----------------									----------------
IN: 											IN: 
0x00008000:  e3a0d302      mov	sp, #134217728	; 0x8000000				0x00008000:  e3a0d302      mov	sp, #134217728	; 0x8000000
0x00008004:  eb000000      bl	0x800c							0x00008004:  eb000000      bl	0x800c

----------------									----------------
IN: main										IN: main
0x0000800c:  e92d4070      push	{r4, r5, r6, lr}					0x0000800c:  e92d4070      push	{r4, r5, r6, lr}
0x00008010:  e3a00000      mov	r0, #0	; 0x0						0x00008010:  e3a00000      mov	r0, #0	; 0x0
0x00008014:  e59f6100      ldr	r6, [pc, #256]	; 0x811c				0x00008014:  e59f6100      ldr	r6, [pc, #256]	; 0x811c
0x00008018:  e24dd010      sub	sp, sp, #16	; 0x10					0x00008018:  e24dd010      sub	sp, sp, #16	; 0x10
0x0000801c:  e59f30fc      ldr	r3, [pc, #252]	; 0x8120				0x0000801c:  e59f30fc      ldr	r3, [pc, #252]	; 0x8120
0x00008020:  e08f6006      add	r6, pc, r6						0x00008020:  e08f6006      add	r6, pc, r6
0x00008024:  e7961003      ldr	r1, [r6, r3]						0x00008024:  e7961003      ldr	r1, [r6, r3]
0x00008028:  eb000046      bl	0x8148							0x00008028:  eb000046      bl	0x8148

----------------									----------------
IN: init_printf										IN: init_printf
0x00008148:  e59f2014      ldr	r2, [pc, #20]	; 0x8164				0x00008148:  e59f2014      ldr	r2, [pc, #20]	; 0x8164
0x0000814c:  e59f3014      ldr	r3, [pc, #20]	; 0x8168				0x0000814c:  e59f3014      ldr	r3, [pc, #20]	; 0x8168
0x00008150:  e08f2002      add	r2, pc, r2						0x00008150:  e08f2002      add	r2, pc, r2
0x00008154:  e08f3003      add	r3, pc, r3						0x00008154:  e08f3003      add	r3, pc, r3
0x00008158:  e5821000      str	r1, [r2]						0x00008158:  e5821000      str	r1, [r2]
0x0000815c:  e5830000      str	r0, [r3]						0x0000815c:  e5830000      str	r0, [r3]
0x00008160:  e12fff1e      bx	lr							0x00008160:  e12fff1e      bx	lr

----------------									----------------
IN: main										IN: main
0x0000802c:  e3a00024      mov	r0, #36	; 0x24						0x0000802c:  e3a00024      mov	r0, #36	; 0x24
0x00008030:  eb001308      bl	0xcc58							0x00008030:  eb001308      bl	0xcc58

----------------									----------------
IN: malloc										IN: malloc
0x0000cc58:  e59f10dc      ldr	r1, [pc, #220]	; 0xcd3c				0x0000cc58:  e59f10dc      ldr	r1, [pc, #220]	; 0xcd3c
0x0000cc5c:  e08f1001      add	r1, pc, r1						0x0000cc5c:  e08f1001      add	r1, pc, r1
0x0000cc60:  e5d12000      ldrb	r2, [r1]						0x0000cc60:  e5d12000      ldrb	r2, [r1]
0x0000cc64:  e3520000      cmp	r2, #0	; 0x0						0x0000cc64:  e3520000      cmp	r2, #0	; 0x0
0x0000cc68:  0a000013      beq	0xccbc							0x0000cc68:  0a000013      beq	0xccbc

----------------									----------------
IN: malloc										IN: malloc
0x0000ccbc:  e59f3080      ldr	r3, [pc, #128]	; 0xcd44				0x0000ccbc:  e59f3080      ldr	r3, [pc, #128]	; 0xcd44
0x0000ccc0:  e3500000      cmp	r0, #0	; 0x0						0x0000ccc0:  e3500000      cmp	r0, #0	; 0x0
0x0000ccc4:  e59fc07c      ldr	ip, [pc, #124]	; 0xcd48				0x0000ccc4:  e59fc07c      ldr	ip, [pc, #124]	; 0xcd48
0x0000ccc8:  e08f3003      add	r3, pc, r3						0x0000ccc8:  e08f3003      add	r3, pc, r3
0x0000cccc:  e08fc00c      add	ip, pc, ip						0x0000cccc:  e08fc00c      add	ip, pc, ip
0x0000ccd0:  e5832008      str	r2, [r3, #8]						0x0000ccd0:  e5832008      str	r2, [r3, #8]
0x0000ccd4:  e3a02001      mov	r2, #1	; 0x1						0x0000ccd4:  e3a02001      mov	r2, #1	; 0x1
0x0000ccd8:  e5c12000      strb	r2, [r1]						0x0000ccd8:  e5c12000      strb	r2, [r1]
0x0000ccdc:  1280101b      addne	r1, r0, #27	; 0x1b				0x0000ccdc:  1280101b      addne	r1, r0, #27	; 0x1b
0x0000cce0:  e58c3000      str	r3, [ip]						0x0000cce0:  e58c3000      str	r3, [ip]
0x0000cce4:  e3a0c802      mov	ip, #131072	; 0x20000				0x0000cce4:  e3a0c802      mov	ip, #131072	; 0x20000
0x0000cce8:  13c1100f      bicne	r1, r1, #15	; 0xf				0x0000cce8:  13c1100f      bicne	r1, r1, #15	; 0xf
0x0000ccec:  e5c32004      strb	r2, [r3, #4]						0x0000ccec:  e5c32004      strb	r2, [r3, #4]
0x0000ccf0:  e583c000      str	ip, [r3]						0x0000ccf0:  e583c000      str	ip, [r3]
0x0000ccf4:  1affffe6      bne	0xcc94							0x0000ccf4:  1affffe6      bne	0xcc94

----------------									----------------
IN: malloc										IN: malloc
0x0000cc94:  e3520000      cmp	r2, #0	; 0x0						0x0000cc94:  e3520000      cmp	r2, #0	; 0x0
0x0000cc98:  0a000002      beq	0xcca8							0x0000cc98:  0a000002      beq	0xcca8

----------------									----------------
IN: malloc										IN: malloc
0x0000cc9c:  e5932000      ldr	r2, [r3]						0x0000cc9c:  e5932000      ldr	r2, [r3]
0x0000cca0:  e1520001      cmp	r2, r1							0x0000cca0:  e1520001      cmp	r2, r1
0x0000cca4:  2a000014      bcs	0xccfc							0x0000cca4:  2a000014      bcs	0xccfc

----------------									----------------
IN: malloc										IN: malloc
0x0000ccfc:  e281001c      add	r0, r1, #28	; 0x1c					0x0000ccfc:  e281001c      add	r0, r1, #28	; 0x1c
0x0000cd00:  e1520000      cmp	r2, r0							0x0000cd00:  e1520000      cmp	r2, r0
0x0000cd04:  3a000008      bcc	0xcd2c							0x0000cd04:  3a000008      bcc	0xcd2c

----------------									----------------
IN: malloc										IN: malloc
0x0000cd08:  e0830001      add	r0, r3, r1						0x0000cd08:  e0830001      add	r0, r3, r1
0x0000cd0c:  e0422001      sub	r2, r2, r1						0x0000cd0c:  e0422001      sub	r2, r2, r1
0x0000cd10:  e7832001      str	r2, [r3, r1]						0x0000cd10:  e7832001      str	r2, [r3, r1]
0x0000cd14:  e3a02001      mov	r2, #1	; 0x1						0x0000cd14:  e3a02001      mov	r2, #1	; 0x1
0x0000cd18:  e5c02004      strb	r2, [r0, #4]						0x0000cd18:  e5c02004      strb	r2, [r0, #4]
0x0000cd1c:  e5932008      ldr	r2, [r3, #8]						0x0000cd1c:  e5932008      ldr	r2, [r3, #8]
0x0000cd20:  e5802008      str	r2, [r0, #8]						0x0000cd20:  e5802008      str	r2, [r0, #8]
0x0000cd24:  e5831000      str	r1, [r3]						0x0000cd24:  e5831000      str	r1, [r3]
0x0000cd28:  e5830008      str	r0, [r3, #8]						0x0000cd28:  e5830008      str	r0, [r3, #8]
0x0000cd2c:  e3a02000      mov	r2, #0	; 0x0						0x0000cd2c:  e3a02000      mov	r2, #0	; 0x0
0x0000cd30:  e283000c      add	r0, r3, #12	; 0xc					0x0000cd30:  e283000c      add	r0, r3, #12	; 0xc
0x0000cd34:  e5c32004      strb	r2, [r3, #4]						0x0000cd34:  e5c32004      strb	r2, [r3, #4]
0x0000cd38:  e12fff1e      bx	lr							0x0000cd38:  e12fff1e      bx	lr

----------------									----------------
IN: main										IN: main
0x00008034:  e2505000      subs	r5, r0, #0	; 0x0					0x00008034:  e2505000      subs	r5, r0, #0	; 0x0
0x00008038:  0a00002b      beq	0x80ec							0x00008038:  0a00002b      beq	0x80ec

----------------									----------------
IN: main										IN: main
0x0000803c:  e3a02024      mov	r2, #36	; 0x24						0x0000803c:  e3a02024      mov	r2, #36	; 0x24
0x00008040:  e3a01000      mov	r1, #0	; 0x0						0x00008040:  e3a01000      mov	r1, #0	; 0x0
0x00008044:  e1a0400d      mov	r4, sp							0x00008044:  e1a0400d      mov	r4, sp
0x00008048:  eb00136c      bl	0xce00							0x00008048:  eb00136c      bl	0xce00

----------------									----------------
IN: memset										IN: memset
0x0000ce00:  e3520000      cmp	r2, #0	; 0x0						0x0000ce00:  e3520000      cmp	r2, #0	; 0x0
0x0000ce04:  012fff1e      bxeq	lr							0x0000ce04:  012fff1e      bxeq	lr

----------------									----------------
IN: memset										IN: memset
0x0000ce08:  e0802002      add	r2, r0, r2						0x0000ce08:  e0802002      add	r2, r0, r2
0x0000ce0c:  e6ef1071      uxtb	r1, r1							0x0000ce0c:  e6ef1071      uxtb	r1, r1
0x0000ce10:  e1a03000      mov	r3, r0							0x0000ce10:  e1a03000      mov	r3, r0
0x0000ce14:  e4c31001      strb	r1, [r3], #1						0x0000ce14:  e4c31001      strb	r1, [r3], #1
0x0000ce18:  e1530002      cmp	r3, r2							0x0000ce18:  e1530002      cmp	r3, r2
0x0000ce1c:  1afffffc      bne	0xce14							0x0000ce1c:  1afffffc      bne	0xce14

----------------									----------------
IN: memset										IN: memset
0x0000ce14:  e4c31001      strb	r1, [r3], #1						0x0000ce14:  e4c31001      strb	r1, [r3], #1
0x0000ce18:  e1530002      cmp	r3, r2							0x0000ce18:  e1530002      cmp	r3, r2
0x0000ce1c:  1afffffc      bne	0xce14							0x0000ce1c:  1afffffc      bne	0xce14

----------------									----------------
IN: memset										IN: memset
0x0000ce20:  e12fff1e      bx	lr							0x0000ce20:  e12fff1e      bx	lr

----------------									----------------
IN: main										IN: main
0x0000804c:  e59f30d0      ldr	r3, [pc, #208]	; 0x8124				0x0000804c:  e59f30d0      ldr	r3, [pc, #208]	; 0x8124
0x00008050:  e08f3003      add	r3, pc, r3						0x00008050:  e08f3003      add	r3, pc, r3
0x00008054:  e893000f      ldm	r3, {r0, r1, r2, r3}					0x00008054:  e893000f      ldm	r3, {r0, r1, r2, r3}
0x00008058:  e884000f      stm	r4, {r0, r1, r2, r3}					0x00008058:  e884000f      stm	r4, {r0, r1, r2, r3}
0x0000805c:  e3a00010      mov	r0, #16	; 0x10						0x0000805c:  e3a00010      mov	r0, #16	; 0x10
0x00008060:  eb0012fc      bl	0xcc58							0x00008060:  eb0012fc      bl	0xcc58

----------------									----------------
IN: malloc										IN: malloc
0x0000cc6c:  e3500000      cmp	r0, #0	; 0x0						0x0000cc6c:  e3500000      cmp	r0, #0	; 0x0
0x0000cc70:  0a00000f      beq	0xccb4							0x0000cc70:  0a00000f      beq	0xccb4

----------------									----------------
IN: malloc										IN: malloc
0x0000cc74:  e59f30c4      ldr	r3, [pc, #196]	; 0xcd40				0x0000cc74:  e59f30c4      ldr	r3, [pc, #196]	; 0xcd40
0x0000cc78:  e280101b      add	r1, r0, #27	; 0x1b					0x0000cc78:  e280101b      add	r1, r0, #27	; 0x1b
0x0000cc7c:  e3c1100f      bic	r1, r1, #15	; 0xf					0x0000cc7c:  e3c1100f      bic	r1, r1, #15	; 0xf
0x0000cc80:  e08f3003      add	r3, pc, r3						0x0000cc80:  e08f3003      add	r3, pc, r3
0x0000cc84:  e5933000      ldr	r3, [r3]						0x0000cc84:  e5933000      ldr	r3, [r3]
0x0000cc88:  e3530000      cmp	r3, #0	; 0x0						0x0000cc88:  e3530000      cmp	r3, #0	; 0x0
0x0000cc8c:  0a000008      beq	0xccb4							0x0000cc8c:  0a000008      beq	0xccb4

----------------									----------------
IN: malloc										IN: malloc
0x0000cc90:  e5d32004      ldrb	r2, [r3, #4]						0x0000cc90:  e5d32004      ldrb	r2, [r3, #4]
0x0000cc94:  e3520000      cmp	r2, #0	; 0x0						0x0000cc94:  e3520000      cmp	r2, #0	; 0x0
0x0000cc98:  0a000002      beq	0xcca8							0x0000cc98:  0a000002      beq	0xcca8

----------------									----------------
IN: malloc										IN: malloc
0x0000cca8:  e5933008      ldr	r3, [r3, #8]						0x0000cca8:  e5933008      ldr	r3, [r3, #8]
0x0000ccac:  e3530000      cmp	r3, #0	; 0x0						0x0000ccac:  e3530000      cmp	r3, #0	; 0x0
0x0000ccb0:  1afffff6      bne	0xcc90							0x0000ccb0:  1afffff6      bne	0xcc90

----------------									----------------
IN: main										IN: main
0x00008064:  e585001c      str	r0, [r5, #28]						0x00008064:  e585001c      str	r0, [r5, #28]
0x00008068:  e3500000      cmp	r0, #0	; 0x0						0x00008068:  e3500000      cmp	r0, #0	; 0x0
0x0000806c:  0a000026      beq	0x810c							0x0000806c:  0a000026      beq	0x810c

----------------									----------------
IN: main										IN: main
0x00008070:  e3a02010      mov	r2, #16	; 0x10						0x00008070:  e3a02010      mov	r2, #16	; 0x10
0x00008074:  e1a01004      mov	r1, r4							0x00008074:  e1a01004      mov	r1, r4
0x00008078:  eb001397      bl	0xcedc							0x00008078:  eb001397      bl	0xcedc

----------------									----------------
IN: memcpy										IN: memcpy
0x0000cedc:  e3520000      cmp	r2, #0	; 0x0						0x0000cedc:  e3520000      cmp	r2, #0	; 0x0
0x0000cee0:  012fff1e      bxeq	lr							0x0000cee0:  012fff1e      bxeq	lr

----------------									----------------
IN: memcpy										IN: memcpy
0x0000cee4:  e081c002      add	ip, r1, r2						0x0000cee4:  e081c002      add	ip, r1, r2
0x0000cee8:  e2403001      sub	r3, r0, #1	; 0x1					0x0000cee8:  e2403001      sub	r3, r0, #1	; 0x1
0x0000ceec:  e4d12001      ldrb	r2, [r1], #1						0x0000ceec:  e4d12001      ldrb	r2, [r1], #1
0x0000cef0:  e151000c      cmp	r1, ip							0x0000cef0:  e151000c      cmp	r1, ip
0x0000cef4:  e5e32001      strb	r2, [r3, #1]!						0x0000cef4:  e5e32001      strb	r2, [r3, #1]!
0x0000cef8:  1afffffb      bne	0xceec							0x0000cef8:  1afffffb      bne	0xceec

----------------									----------------
IN: memcpy										IN: memcpy
0x0000ceec:  e4d12001      ldrb	r2, [r1], #1						0x0000ceec:  e4d12001      ldrb	r2, [r1], #1
0x0000cef0:  e151000c      cmp	r1, ip							0x0000cef0:  e151000c      cmp	r1, ip
0x0000cef4:  e5e32001      strb	r2, [r3, #1]!						0x0000cef4:  e5e32001      strb	r2, [r3, #1]!
0x0000cef8:  1afffffb      bne	0xceec							0x0000cef8:  1afffffb      bne	0xceec

----------------									----------------
IN: memcpy										IN: memcpy
0x0000cefc:  e12fff1e      bx	lr							0x0000cefc:  e12fff1e      bx	lr

----------------									----------------
IN: main										IN: main
0x0000807c:  e59f00a4      ldr	r0, [pc, #164]	; 0x8128				0x0000807c:  e59f00a4      ldr	r0, [pc, #164]	; 0x8128
0x00008080:  e30c2afe      movw	r2, #51966	; 0xcafe				0x00008080:  e30c2afe      movw	r2, #51966	; 0xcafe
0x00008084:  e34b2abe      movt	r2, #47806	; 0xbabe				0x00008084:  e34b2abe      movt	r2, #47806	; 0xbabe
0x00008088:  e30b1eef      movw	r1, #48879	; 0xbeef				0x00008088:  e30b1eef      movw	r1, #48879	; 0xbeef
0x0000808c:  e34d1ead      movt	r1, #57005	; 0xdead				0x0000808c:  e34d1ead      movt	r1, #57005	; 0xdead
0x00008090:  e08f0000      add	r0, pc, r0						0x00008090:  e08f0000      add	r0, pc, r0
0x00008094:  eb001b79      bl	0xee80							0x00008094:  eb001b79      bl	0xee80

----------------									----------------
IN: tfp_printf										IN: tfp_printf
0x0000ee80:  e92d000f      push	{r0, r1, r2, r3}					0x0000ee80:  e92d000f      push	{r0, r1, r2, r3}
0x0000ee84:  e59f1038      ldr	r1, [pc, #56]	; 0xeec4				0x0000ee84:  e59f1038      ldr	r1, [pc, #56]	; 0xeec4
0x0000ee88:  e59f0038      ldr	r0, [pc, #56]	; 0xeec8				0x0000ee88:  e59f0038      ldr	r0, [pc, #56]	; 0xeec8
0x0000ee8c:  e52de004      push	{lr}		; (str lr, [sp, #-4]!)			0x0000ee8c:  e52de004      push	{lr}		; (str lr, [sp, #-4]!)
0x0000ee90:  e24dd00c      sub	sp, sp, #12	; 0xc					0x0000ee90:  e24dd00c      sub	sp, sp, #12	; 0xc
0x0000ee94:  e08f1001      add	r1, pc, r1						0x0000ee94:  e08f1001      add	r1, pc, r1
0x0000ee98:  e28d3014      add	r3, sp, #20	; 0x14					0x0000ee98:  e28d3014      add	r3, sp, #20	; 0x14
0x0000ee9c:  e08f0000      add	r0, pc, r0						0x0000ee9c:  e08f0000      add	r0, pc, r0
0x0000eea0:  e59d2010      ldr	r2, [sp, #16]						0x0000eea0:  e59d2010      ldr	r2, [sp, #16]
0x0000eea4:  e5911000      ldr	r1, [r1]						0x0000eea4:  e5911000      ldr	r1, [r1]
0x0000eea8:  e5900000      ldr	r0, [r0]						0x0000eea8:  e5900000      ldr	r0, [r0]
0x0000eeac:  e58d3004      str	r3, [sp, #4]						0x0000eeac:  e58d3004      str	r3, [sp, #4]
0x0000eeb0:  ebfffed0      bl	0xe9f8							0x0000eeb0:  ebfffed0      bl	0xe9f8

----------------									----------------
IN: tfp_format										IN: tfp_format
0x0000e9f8:  e92d4ff0      push	{r4, r5, r6, r7, r8, r9, sl, fp, lr}			0x0000e9f8:  e92d4ff0      push	{r4, r5, r6, r7, r8, r9, sl, fp, lr}
0x0000e9fc:  e1a04002      mov	r4, r2							0x0000e9fc:  e1a04002      mov	r4, r2
0x0000ea00:  e1a07001      mov	r7, r1							0x0000ea00:  e1a07001      mov	r7, r1
0x0000ea04:  e24dd024      sub	sp, sp, #36	; 0x24					0x0000ea04:  e24dd024      sub	sp, sp, #36	; 0x24
0x0000ea08:  e4d21001      ldrb	r1, [r2], #1						0x0000ea08:  e4d21001      ldrb	r1, [r2], #1
0x0000ea0c:  e3510000      cmp	r1, #0	; 0x0						0x0000ea0c:  e3510000      cmp	r1, #0	; 0x0
0x0000ea10:  0a000052      beq	0xeb60							0x0000ea10:  0a000052      beq	0xeb60

----------------									----------------
IN: tfp_format										IN: tfp_format
0x0000ea14:  e30c9ccd      movw	r9, #52429	; 0xcccd				0x0000ea14:  e30c9ccd      movw	r9, #52429	; 0xcccd
0x0000ea18:  e1a06000      mov	r6, r0							0x0000ea18:  e1a06000      mov	r6, r0
0x0000ea1c:  e34c9ccc      movt	r9, #52428	; 0xcccc				0x0000ea1c:  e34c9ccc      movt	r9, #52428	; 0xcccc
0x0000ea20:  e1a0a003      mov	sl, r3							0x0000ea20:  e1a0a003      mov	sl, r3
0x0000ea24:  e28db014      add	fp, sp, #20	; 0x14					0x0000ea24:  e28db014      add	fp, sp, #20	; 0x14
0x0000ea28:  ea000006      b	0xea48							0x0000ea28:  ea000006      b	0xea48

----------------									----------------
IN: tfp_format										IN: tfp_format
0x0000ea48:  e3510025      cmp	r1, #37	; 0x25						0x0000ea48:  e3510025      cmp	r1, #37	; 0x25
0x0000ea4c:  1afffff6      bne	0xea2c							0x0000ea4c:  1afffff6      bne	0xea2c

----------------									----------------
IN: tfp_format										IN: tfp_format
0x0000ea2c:  e1a00006      mov	r0, r6							0x0000ea2c:  e1a00006      mov	r0, r6
0x0000ea30:  e1a04002      mov	r4, r2							0x0000ea30:  e1a04002      mov	r4, r2
0x0000ea34:  e12fff37      blx	r7							0x0000ea34:  e12fff37      blx	r7

----------------									----------------
IN: putc_uart										IN: putc_uart
0x00010450:  e1a00001      mov	r0, r1							0x00010450:  e1a00001      mov	r0, r1
0x00010454:  eafffff9      b	0x10440							0x00010454:  eafffff9      b	0x10440

----------------									----------------
IN: uart_putc										IN: uart_putc
0x00010440:  e3a03a01      mov	r3, #4096	; 0x1000				0x00010440:  e3a03a01      mov	r3, #4096	; 0x1000
0x00010444:  e341301f      movt	r3, #4127	; 0x101f				0x00010444:  e341301f      movt	r3, #4127	; 0x101f
0x00010448:  e5830000      str	r0, [r3]						0x00010448:  e5830000      str	r0, [r3]
0x0001044c:  e12fff1e      bx	lr							0x0001044c:  e12fff1e      bx	lr

----------------									----------------
IN: tfp_format										IN: tfp_format
0x0000ea38:  e1a02004      mov	r2, r4							0x0000ea38:  e1a02004      mov	r2, r4
0x0000ea3c:  e4d21001      ldrb	r1, [r2], #1						0x0000ea3c:  e4d21001      ldrb	r1, [r2], #1
0x0000ea40:  e3510000      cmp	r1, #0	; 0x0						0x0000ea40:  e3510000      cmp	r1, #0	; 0x0
0x0000ea44:  0a000045      beq	0xeb60							0x0000ea44:  0a000045      beq	0xeb60

----------------									----------------
IN: tfp_format										IN: tfp_format
0x0000ea50:  e5d42001      ldrb	r2, [r4, #1]						0x0000ea50:  e5d42001      ldrb	r2, [r4, #1]
0x0000ea54:  e3a05000      mov	r5, #0	; 0x0						0x0000ea54:  e3a05000      mov	r5, #0	; 0x0
0x0000ea58:  e3520030      cmp	r2, #48	; 0x30						0x0000ea58:  e3520030      cmp	r2, #48	; 0x30
0x0000ea5c:  12844002      addne	r4, r4, #2	; 0x2				0x0000ea5c:  12844002      addne	r4, r4, #2	; 0x2
0x0000ea60:  13a08000      movne	r8, #0	; 0x0					0x0000ea60:  13a08000      movne	r8, #0	; 0x0
0x0000ea64:  05d42002      ldrbeq	r2, [r4, #2]					0x0000ea64:  05d42002      ldrbeq	r2, [r4, #2]
0x0000ea68:  03a08001      moveq	r8, #1	; 0x1					0x0000ea68:  03a08001      moveq	r8, #1	; 0x1
0x0000ea6c:  02844003      addeq	r4, r4, #3	; 0x3				0x0000ea6c:  02844003      addeq	r4, r4, #3	; 0x3
0x0000ea70:  e2421030      sub	r1, r2, #48	; 0x30					0x0000ea70:  e2421030      sub	r1, r2, #48	; 0x30
0x0000ea74:  e6ef3071      uxtb	r3, r1							0x0000ea74:  e6ef3071      uxtb	r3, r1
0x0000ea78:  e3530009      cmp	r3, #9	; 0x9						0x0000ea78:  e3530009      cmp	r3, #9	; 0x9
0x0000ea7c:  9a000065      bls	0xec18							0x0000ea7c:  9a000065      bls	0xec18

----------------									----------------
IN: tfp_format										IN: tfp_format
0x0000ec18:  e3a0e00a      mov	lr, #10	; 0xa						0x0000ec18:  e3a0e00a      mov	lr, #10	; 0xa
0x0000ec1c:  ea000002      b	0xec2c							0x0000ec1c:  ea000002      b	0xec2c

----------------									----------------
IN: tfp_format										IN: tfp_format
0x0000ec2c:  e6ef3071      uxtb	r3, r1							0x0000ec2c:  e6ef3071      uxtb	r3, r1
0x0000ec30:  e2420061      sub	r0, r2, #97	; 0x61					0x0000ec30:  e2420061      sub	r0, r2, #97	; 0x61
0x0000ec34:  e3530009      cmp	r3, #9	; 0x9						0x0000ec34:  e3530009      cmp	r3, #9	; 0x9
0x0000ec38:  e242c041      sub	ip, r2, #65	; 0x41					0x0000ec38:  e242c041      sub	ip, r2, #65	; 0x41
0x0000ec3c:  e2423037      sub	r3, r2, #55	; 0x37					0x0000ec3c:  e2423037      sub	r3, r2, #55	; 0x37
0x0000ec40:  91a03001      movls	r3, r1						0x0000ec40:  91a03001      movls	r3, r1
0x0000ec44:  9afffff5      bls	0xec20							0x0000ec44:  9afffff5      bls	0xec20

----------------									----------------
IN: tfp_format										IN: tfp_format
0x0000ec20:  e4d42001      ldrb	r2, [r4], #1						0x0000ec20:  e4d42001      ldrb	r2, [r4], #1
0x0000ec24:  e025359e      mla	r5, lr, r5, r3						0x0000ec24:  e025359e      mla	r5, lr, r5, r3
0x0000ec28:  e2421030      sub	r1, r2, #48	; 0x30					0x0000ec28:  e2421030      sub	r1, r2, #48	; 0x30
0x0000ec2c:  e6ef3071      uxtb	r3, r1							0x0000ec2c:  e6ef3071      uxtb	r3, r1
0x0000ec30:  e2420061      sub	r0, r2, #97	; 0x61					0x0000ec30:  e2420061      sub	r0, r2, #97	; 0x61
0x0000ec34:  e3530009      cmp	r3, #9	; 0x9						0x0000ec34:  e3530009      cmp	r3, #9	; 0x9
0x0000ec38:  e242c041      sub	ip, r2, #65	; 0x41					0x0000ec38:  e242c041      sub	ip, r2, #65	; 0x41
0x0000ec3c:  e2423037      sub	r3, r2, #55	; 0x37					0x0000ec3c:  e2423037      sub	r3, r2, #55	; 0x37
0x0000ec40:  91a03001      movls	r3, r1						0x0000ec40:  91a03001      movls	r3, r1
0x0000ec44:  9afffff5      bls	0xec20							0x0000ec44:  9afffff5      bls	0xec20

----------------									----------------
IN: tfp_format										IN: tfp_format
0x0000ec48:  e3500005      cmp	r0, #5	; 0x5						0x0000ec48:  e3500005      cmp	r0, #5	; 0x5
0x0000ec4c:  92423057      subls	r3, r2, #87	; 0x57				0x0000ec4c:  92423057      subls	r3, r2, #87	; 0x57
0x0000ec50:  9a000001      bls	0xec5c							0x0000ec50:  9a000001      bls	0xec5c

----------------									----------------
IN: tfp_format										IN: tfp_format
0x0000ec54:  e35c0005      cmp	ip, #5	; 0x5						0x0000ec54:  e35c0005      cmp	ip, #5	; 0x5
0x0000ec58:  8affff88      bhi	0xea80							0x0000ec58:  8affff88      bhi	0xea80

----------------									----------------
IN: tfp_format										IN: tfp_format
0x0000ea80:  e352006c      cmp	r2, #108	; 0x6c					0x0000ea80:  e352006c      cmp	r2, #108	; 0x6c
0x0000ea84:  0a000037      beq	0xeb68							0x0000ea84:  0a000037      beq	0xeb68

----------------									----------------
IN: tfp_format										IN: tfp_format
0x0000ea88:  e352007a      cmp	r2, #122	; 0x7a					0x0000ea88:  e352007a      cmp	r2, #122	; 0x7a
0x0000ea8c:  8affffe9      bhi	0xea38							0x0000ea8c:  8affffe9      bhi	0xea38

----------------									----------------
IN: tfp_format										IN: tfp_format
0x0000ea90:  e3520057      cmp	r2, #87	; 0x57						0x0000ea90:  e3520057      cmp	r2, #87	; 0x57
0x0000ea94:  9a000026      bls	0xeb34							0x0000ea94:  9a000026      bls	0xeb34

----------------									----------------
IN: tfp_format										IN: tfp_format
0x0000ea98:  e2423058      sub	r3, r2, #88	; 0x58					0x0000ea98:  e2423058      sub	r3, r2, #88	; 0x58
0x0000ea9c:  e3530022      cmp	r3, #34	; 0x22						0x0000ea9c:  e3530022      cmp	r3, #34	; 0x22
0x0000eaa0:  908ff103      addls	pc, pc, r3, lsl #2				0x0000eaa0:  908ff103      addls	pc, pc, r3, lsl #2

----------------									----------------
IN: tfp_format										IN: tfp_format
0x0000eaa8:  ea0000cf      b	0xedec							0x0000eaa8:  ea0000cf      b	0xedec

----------------									----------------
IN: tfp_format										IN: tfp_format
0x0000edec:  e49a0004      ldr	r0, [sl], #4						0x0000edec:  e49a0004      ldr	r0, [sl], #4
0x0000edf0:  e2422058      sub	r2, r2, #88	; 0x58					0x0000edf0:  e2422058      sub	r2, r2, #88	; 0x58
0x0000edf4:  e16f2f12      clz	r2, r2							0x0000edf4:  e16f2f12      clz	r2, r2
0x0000edf8:  e1a0300b      mov	r3, fp							0x0000edf8:  e1a0300b      mov	r3, fp
0x0000edfc:  e3a01010      mov	r1, #16	; 0x10						0x0000edfc:  e3a01010      mov	r1, #16	; 0x10
0x0000ee00:  e1a022a2      lsr	r2, r2, #5						0x0000ee00:  e1a022a2      lsr	r2, r2, #5
0x0000ee04:  ebfffe9b      bl	0xe878							0x0000ee04:  ebfffe9b      bl	0xe878

----------------									----------------
IN: ui2a										IN: ui2a
0x0000e878:  e1500001      cmp	r0, r1							0x0000e878:  e1500001      cmp	r0, r1
0x0000e87c:  e3a0c001      mov	ip, #1	; 0x1						0x0000e87c:  e3a0c001      mov	ip, #1	; 0x1
0x0000e880:  e92d4070      push	{r4, r5, r6, lr}					0x0000e880:  e92d4070      push	{r4, r5, r6, lr}
0x0000e884:  3a000028      bcc	0xe92c							0x0000e884:  3a000028      bcc	0xe92c

----------------									----------------
IN: ui2a										IN: ui2a
0x0000e888:  e00c0c91      mul	ip, r1, ip						0x0000e888:  e00c0c91      mul	ip, r1, ip
0x0000e88c:  e73efc10      udiv	lr, r0, ip						0x0000e88c:  e73efc10      udiv	lr, r0, ip
0x0000e890:  e15e0001      cmp	lr, r1							0x0000e890:  e15e0001      cmp	lr, r1
0x0000e894:  2afffffb      bcs	0xe888							0x0000e894:  2afffffb      bcs	0xe888

----------------									----------------
IN: ui2a										IN: ui2a
0x0000e898:  e35c0000      cmp	ip, #0	; 0x0						0x0000e898:  e35c0000      cmp	ip, #0	; 0x0
0x0000e89c:  0a000020      beq	0xe924							0x0000e89c:  0a000020      beq	0xe924

----------------									----------------
IN: ui2a										IN: ui2a
0x0000e8a0:  e3a04000      mov	r4, #0	; 0x0						0x0000e8a0:  e3a04000      mov	r4, #0	; 0x0
0x0000e8a4:  e35e0000      cmp	lr, #0	; 0x0						0x0000e8a4:  e35e0000      cmp	lr, #0	; 0x0
0x0000e8a8:  d3540000      cmple	r4, #0	; 0x0					0x0000e8a8:  d3540000      cmple	r4, #0	; 0x0
0x0000e8ac:  e736f11c      udiv	r6, ip, r1						0x0000e8ac:  e736f11c      udiv	r6, ip, r1
0x0000e8b0:  13a05001      movne	r5, #1	; 0x1					0x0000e8b0:  13a05001      movne	r5, #1	; 0x1
0x0000e8b4:  03a05000      moveq	r5, #0	; 0x0					0x0000e8b4:  03a05000      moveq	r5, #0	; 0x0
0x0000e8b8:  e0600e9c      mls	r0, ip, lr, r0						0x0000e8b8:  e0600e9c      mls	r0, ip, lr, r0
0x0000e8bc:  1a000008      bne	0xe8e4							0x0000e8bc:  1a000008      bne	0xe8e4

----------------									----------------
IN: ui2a										IN: ui2a
0x0000e8e4:  e35e0009      cmp	lr, #9	; 0x9						0x0000e8e4:  e35e0009      cmp	lr, #9	; 0x9
0x0000e8e8:  d3a05030      movle	r5, #48	; 0x30					0x0000e8e8:  d3a05030      movle	r5, #48	; 0x30
0x0000e8ec:  da000002      ble	0xe8fc							0x0000e8ec:  da000002      ble	0xe8fc

----------------									----------------
IN: ui2a										IN: ui2a
0x0000e8f0:  e3520000      cmp	r2, #0	; 0x0						0x0000e8f0:  e3520000      cmp	r2, #0	; 0x0
0x0000e8f4:  13a05037      movne	r5, #55	; 0x37					0x0000e8f4:  13a05037      movne	r5, #55	; 0x37
0x0000e8f8:  03a05057      moveq	r5, #87	; 0x57					0x0000e8f8:  03a05057      moveq	r5, #87	; 0x57
0x0000e8fc:  e151000c      cmp	r1, ip							0x0000e8fc:  e151000c      cmp	r1, ip
0x0000e900:  e1a0c003      mov	ip, r3							0x0000e900:  e1a0c003      mov	ip, r3
0x0000e904:  e085e00e      add	lr, r5, lr						0x0000e904:  e085e00e      add	lr, r5, lr
0x0000e908:  e2844001      add	r4, r4, #1	; 0x1					0x0000e908:  e2844001      add	r4, r4, #1	; 0x1
0x0000e90c:  e4cce001      strb	lr, [ip], #1						0x0000e90c:  e4cce001      strb	lr, [ip], #1
0x0000e910:  e1a0300c      mov	r3, ip							0x0000e910:  e1a0300c      mov	r3, ip
0x0000e914:  8affffef      bhi	0xe8d8							0x0000e914:  8affffef      bhi	0xe8d8

----------------									----------------
IN: ui2a										IN: ui2a
0x0000e918:  e73ef610      udiv	lr, r0, r6						0x0000e918:  e73ef610      udiv	lr, r0, r6
0x0000e91c:  e1a0c006      mov	ip, r6							0x0000e91c:  e1a0c006      mov	ip, r6
0x0000e920:  eaffffdf      b	0xe8a4							0x0000e920:  eaffffdf      b	0xe8a4

----------------									----------------
IN: ui2a										IN: ui2a
0x0000e8a4:  e35e0000      cmp	lr, #0	; 0x0						0x0000e8a4:  e35e0000      cmp	lr, #0	; 0x0
0x0000e8a8:  d3540000      cmple	r4, #0	; 0x0					0x0000e8a8:  d3540000      cmple	r4, #0	; 0x0
0x0000e8ac:  e736f11c      udiv	r6, ip, r1						0x0000e8ac:  e736f11c      udiv	r6, ip, r1
0x0000e8b0:  13a05001      movne	r5, #1	; 0x1					0x0000e8b0:  13a05001      movne	r5, #1	; 0x1
0x0000e8b4:  03a05000      moveq	r5, #0	; 0x0					0x0000e8b4:  03a05000      moveq	r5, #0	; 0x0
0x0000e8b8:  e0600e9c      mls	r0, ip, lr, r0						0x0000e8b8:  e0600e9c      mls	r0, ip, lr, r0
0x0000e8bc:  1a000008      bne	0xe8e4							0x0000e8bc:  1a000008      bne	0xe8e4

----------------									----------------
IN: ui2a										IN: ui2a
0x0000e8d8:  e3a03000      mov	r3, #0	; 0x0						0x0000e8d8:  e3a03000      mov	r3, #0	; 0x0
0x0000e8dc:  e5cc3000      strb	r3, [ip]						0x0000e8dc:  e5cc3000      strb	r3, [ip]
0x0000e8e0:  e8bd8070      pop	{r4, r5, r6, pc}					0x0000e8e0:  e8bd8070      pop	{r4, r5, r6, pc}

----------------									----------------
IN: tfp_format										IN: tfp_format
0x0000ee08:  eaffffa0      b	0xec90							0x0000ee08:  eaffffa0      b	0xec90

----------------									----------------
IN: tfp_format										IN: tfp_format
0x0000ec90:  e58db000      str	fp, [sp]						0x0000ec90:  e58db000      str	fp, [sp]
0x0000ec94:  e1a03008      mov	r3, r8							0x0000ec94:  e1a03008      mov	r3, r8
0x0000ec98:  e1a02005      mov	r2, r5							0x0000ec98:  e1a02005      mov	r2, r5
0x0000ec9c:  e1a01007      mov	r1, r7							0x0000ec9c:  e1a01007      mov	r1, r7
0x0000eca0:  e1a00006      mov	r0, r6							0x0000eca0:  e1a00006      mov	r0, r6
0x0000eca4:  ebffff22      bl	0xe934							0x0000eca4:  ebffff22      bl	0xe934

----------------									----------------
IN: putchw										IN: putchw
0x0000e934:  e92d41f0      push	{r4, r5, r6, r7, r8, lr}				0x0000e934:  e92d41f0      push	{r4, r5, r6, r7, r8, lr}
0x0000e938:  e1a07001      mov	r7, r1							0x0000e938:  e1a07001      mov	r7, r1
0x0000e93c:  e59d5018      ldr	r5, [sp, #24]						0x0000e93c:  e59d5018      ldr	r5, [sp, #24]
0x0000e940:  e3530000      cmp	r3, #0	; 0x0						0x0000e940:  e3530000      cmp	r3, #0	; 0x0
0x0000e944:  13a08030      movne	r8, #48	; 0x30					0x0000e944:  13a08030      movne	r8, #48	; 0x30
0x0000e948:  03a08020      moveq	r8, #32	; 0x20					0x0000e948:  03a08020      moveq	r8, #32	; 0x20
0x0000e94c:  e4d51001      ldrb	r1, [r5], #1						0x0000e94c:  e4d51001      ldrb	r1, [r5], #1
0x0000e950:  e1a06000      mov	r6, r0							0x0000e950:  e1a06000      mov	r6, r0
0x0000e954:  e3510000      cmp	r1, #0	; 0x0						0x0000e954:  e3510000      cmp	r1, #0	; 0x0
0x0000e958:  0a00001d      beq	0xe9d4							0x0000e958:  0a00001d      beq	0xe9d4

----------------									----------------
IN: putchw										IN: putchw
0x0000e95c:  e3520000      cmp	r2, #0	; 0x0						0x0000e95c:  e3520000      cmp	r2, #0	; 0x0
0x0000e960:  da000015      ble	0xe9bc							0x0000e960:  da000015      ble	0xe9bc

----------------									----------------
IN: putchw										IN: putchw
0x0000e964:  e1a03005      mov	r3, r5							0x0000e964:  e1a03005      mov	r3, r5
0x0000e968:  ea000001      b	0xe974							0x0000e968:  ea000001      b	0xe974

----------------									----------------
IN: putchw										IN: putchw
0x0000e974:  e4d30001      ldrb	r0, [r3], #1						0x0000e974:  e4d30001      ldrb	r0, [r3], #1
0x0000e978:  e1a04002      mov	r4, r2							0x0000e978:  e1a04002      mov	r4, r2
0x0000e97c:  e2422001      sub	r2, r2, #1	; 0x1					0x0000e97c:  e2422001      sub	r2, r2, #1	; 0x1
0x0000e980:  e3500000      cmp	r0, #0	; 0x0						0x0000e980:  e3500000      cmp	r0, #0	; 0x0
0x0000e984:  1afffff8      bne	0xe96c							0x0000e984:  1afffff8      bne	0xe96c

----------------									----------------
IN: putchw										IN: putchw
0x0000e96c:  e3520000      cmp	r2, #0	; 0x0						0x0000e96c:  e3520000      cmp	r2, #0	; 0x0
0x0000e970:  0a000011      beq	0xe9bc							0x0000e970:  0a000011      beq	0xe9bc

----------------									----------------
IN: putchw										IN: putchw
0x0000e988:  e3520000      cmp	r2, #0	; 0x0						0x0000e988:  e3520000      cmp	r2, #0	; 0x0
0x0000e98c:  e2444002      sub	r4, r4, #2	; 0x2					0x0000e98c:  e2444002      sub	r4, r4, #2	; 0x2
0x0000e990:  0a000009      beq	0xe9bc							0x0000e990:  0a000009      beq	0xe9bc

----------------									----------------
IN: putchw										IN: putchw
0x0000e9bc:  e1a00006      mov	r0, r6							0x0000e9bc:  e1a00006      mov	r0, r6
0x0000e9c0:  e12fff37      blx	r7							0x0000e9c0:  e12fff37      blx	r7

----------------									----------------
IN: putchw										IN: putchw
0x0000e9c4:  e4d51001      ldrb	r1, [r5], #1						0x0000e9c4:  e4d51001      ldrb	r1, [r5], #1
0x0000e9c8:  e3510000      cmp	r1, #0	; 0x0						0x0000e9c8:  e3510000      cmp	r1, #0	; 0x0
0x0000e9cc:  1afffffa      bne	0xe9bc							0x0000e9cc:  1afffffa      bne	0xe9bc

----------------									----------------
IN: putchw										IN: putchw
0x0000e9d0:  e8bd81f0      pop	{r4, r5, r6, r7, r8, pc}				0x0000e9d0:  e8bd81f0      pop	{r4, r5, r6, r7, r8, pc}

----------------									----------------
IN: tfp_format										IN: tfp_format
0x0000eca8:  eaffff62      b	0xea38							0x0000eca8:  eaffff62      b	0xea38

----------------									----------------
IN: tfp_format										IN: tfp_format
0x0000eb60:  e28dd024      add	sp, sp, #36	; 0x24					0x0000eb60:  e28dd024      add	sp, sp, #36	; 0x24
0x0000eb64:  e8bd8ff0      pop	{r4, r5, r6, r7, r8, r9, sl, fp, pc}			0x0000eb64:  e8bd8ff0      pop	{r4, r5, r6, r7, r8, r9, sl, fp, pc}

----------------									----------------
IN: tfp_printf										IN: tfp_printf
0x0000eeb4:  e28dd00c      add	sp, sp, #12	; 0xc					0x0000eeb4:  e28dd00c      add	sp, sp, #12	; 0xc
0x0000eeb8:  e49de004      pop	{lr}		; (ldr lr, [sp], #4)			0x0000eeb8:  e49de004      pop	{lr}		; (ldr lr, [sp], #4)
0x0000eebc:  e28dd010      add	sp, sp, #16	; 0x10					0x0000eebc:  e28dd010      add	sp, sp, #16	; 0x10
0x0000eec0:  e12fff1e      bx	lr							0x0000eec0:  e12fff1e      bx	lr

----------------									----------------
IN: main										IN: main
0x00008098:  e59f208c      ldr	r2, [pc, #140]	; 0x812c				0x00008098:  e59f208c      ldr	r2, [pc, #140]	; 0x812c
0x0000809c:  e1a00005      mov	r0, r5							0x0000809c:  e1a00005      mov	r0, r5
0x000080a0:  e59f3088      ldr	r3, [pc, #136]	; 0x8130				0x000080a0:  e59f3088      ldr	r3, [pc, #136]	; 0x8130
0x000080a4:  e7962002      ldr	r2, [r6, r2]						0x000080a4:  e7962002      ldr	r2, [r6, r2]
0x000080a8:  e7961003      ldr	r1, [r6, r3]						0x000080a8:  e7961003      ldr	r1, [r6, r3]
0x000080ac:  e5922000      ldr	r2, [r2]						0x000080ac:  e5922000      ldr	r2, [r2]
0x000080b0:  eb00086c      bl	0xa268							0x000080b0:  eb00086c      bl	0xa268

----------------									----------------
IN: decrypt_memory									IN: decrypt_memory
0x0000a268:  e92d43f0      push	{r4, r5, r6, r7, r8, r9, lr}				0x0000a268:  e92d43f0      push	{r4, r5, r6, r7, r8, r9, lr}
0x0000a26c:  e1a07000      mov	r7, r0							0x0000a26c:  e1a07000      mov	r7, r0
0x0000a270:  e59f00fc      ldr	r0, [pc, #252]	; 0xa374				0x0000a270:  e59f00fc      ldr	r0, [pc, #252]	; 0xa374
0x0000a274:  e24dd014      sub	sp, sp, #20	; 0x14					0x0000a274:  e24dd014      sub	sp, sp, #20	; 0x14
0x0000a278:  e59f80f8      ldr	r8, [pc, #248]	; 0xa378				0x0000a278:  e59f80f8      ldr	r8, [pc, #248]	; 0xa378
0x0000a27c:  e1a05002      mov	r5, r2							0x0000a27c:  e1a05002      mov	r5, r2
0x0000a280:  e08f0000      add	r0, pc, r0						0x0000a280:  e08f0000      add	r0, pc, r0
0x0000a284:  e1a06001      mov	r6, r1							0x0000a284:  e1a06001      mov	r6, r1
0x0000a288:  e08f8008      add	r8, pc, r8						0x0000a288:  e08f8008      add	r8, pc, r8
0x0000a28c:  eb0012fb      bl	0xee80							0x0000a28c:  eb0012fb      bl	0xee80

----------------									----------------
IN: decrypt_memory									IN: decrypt_memory
0x0000a290:  e5875020      str	r5, [r7, #32]						0x0000a290:  e5875020      str	r5, [r7, #32]
0x0000a294:  e1a00006      mov	r0, r6							0x0000a294:  e1a00006      mov	r0, r6
0x0000a298:  e3a04000      mov	r4, #0	; 0x0						0x0000a298:  e3a04000      mov	r4, #0	; 0x0
0x0000a29c:  e1a01005      mov	r1, r5							0x0000a29c:  e1a01005      mov	r1, r5
0x0000a2a0:  e58d400c      str	r4, [sp, #12]						0x0000a2a0:  e58d400c      str	r4, [sp, #12]
0x0000a2a4:  ebfff8f1      bl	0x8670							0x0000a2a4:  ebfff8f1      bl	0x8670

----------------									----------------
IN: iobuf_temp_with_content								IN: iobuf_temp_with_content
0x00008670:  e92d4070      push	{r4, r5, r6, lr}					0x00008670:  e92d4070      push	{r4, r5, r6, lr}
0x00008674:  e1a04000      mov	r4, r0							0x00008674:  e1a04000      mov	r4, r0
0x00008678:  e3a00001      mov	r0, #1	; 0x1						0x00008678:  e3a00001      mov	r0, #1	; 0x1
0x0000867c:  e1a06001      mov	r6, r1							0x0000867c:  e1a06001      mov	r6, r1
0x00008680:  ebffffcc      bl	0x85b8							0x00008680:  ebffffcc      bl	0x85b8

----------------									----------------
IN: iobuf_alloc										IN: iobuf_alloc
0x000085b8:  e1a03000      mov	r3, r0							0x000085b8:  e1a03000      mov	r3, r0
0x000085bc:  e92d4030      push	{r4, r5, lr}						0x000085bc:  e92d4030      push	{r4, r5, lr}
0x000085c0:  e24dd00c      sub	sp, sp, #12	; 0xc					0x000085c0:  e24dd00c      sub	sp, sp, #12	; 0xc
0x000085c4:  e59f0098      ldr	r0, [pc, #152]	; 0x8664				0x000085c4:  e59f0098      ldr	r0, [pc, #152]	; 0x8664
0x000085c8:  e3530003      cmp	r3, #3	; 0x3						0x000085c8:  e3530003      cmp	r3, #3	; 0x3
0x000085cc:  e58d1004      str	r1, [sp, #4]						0x000085cc:  e58d1004      str	r1, [sp, #4]
0x000085d0:  83a02000      movhi	r2, #0	; 0x0					0x000085d0:  83a02000      movhi	r2, #0	; 0x0
0x000085d4:  e08f0000      add	r0, pc, r0						0x000085d4:  e08f0000      add	r0, pc, r0
0x000085d8:  e1a01003      mov	r1, r3							0x000085d8:  e1a01003      mov	r1, r3
0x000085dc:  93a02001      movls	r2, #1	; 0x1					0x000085dc:  93a02001      movls	r2, #1	; 0x1
0x000085e0:  e1a05003      mov	r5, r3							0x000085e0:  e1a05003      mov	r5, r3
0x000085e4:  eb001a25      bl	0xee80							0x000085e4:  eb001a25      bl	0xee80

----------------									----------------
IN: tfp_format										IN: tfp_format
0x0000ead8:  ea000062      b	0xec68							0x0000ead8:  ea000062      b	0xec68

----------------									----------------
IN: tfp_format										IN: tfp_format
0x0000ec68:  e49a0004      ldr	r0, [sl], #4						0x0000ec68:  e49a0004      ldr	r0, [sl], #4
0x0000ec6c:  e3a02000      mov	r2, #0	; 0x0						0x0000ec6c:  e3a02000      mov	r2, #0	; 0x0
0x0000ec70:  e3a0100a      mov	r1, #10	; 0xa						0x0000ec70:  e3a0100a      mov	r1, #10	; 0xa
0x0000ec74:  e3500000      cmp	r0, #0	; 0x0						0x0000ec74:  e3500000      cmp	r0, #0	; 0x0
0x0000ec78:  b3a0302d      movlt	r3, #45	; 0x2d					0x0000ec78:  b3a0302d      movlt	r3, #45	; 0x2d
0x0000ec7c:  b2600000      rsblt	r0, r0, #0	; 0x0				0x0000ec7c:  b2600000      rsblt	r0, r0, #0	; 0x0
0x0000ec80:  b5cd3014      strblt	r3, [sp, #20]					0x0000ec80:  b5cd3014      strblt	r3, [sp, #20]
0x0000ec84:  a1a0300b      movge	r3, fp						0x0000ec84:  a1a0300b      movge	r3, fp
0x0000ec88:  b28d3015      addlt	r3, sp, #21	; 0x15				0x0000ec88:  b28d3015      addlt	r3, sp, #21	; 0x15
0x0000ec8c:  ebfffef9      bl	0xe878							0x0000ec8c:  ebfffef9      bl	0xe878

----------------									----------------
IN: ui2a										IN: ui2a
0x0000e92c:  e1a0e000      mov	lr, r0							0x0000e92c:  e1a0e000      mov	lr, r0
0x0000e930:  eaffffda      b	0xe8a0							0x0000e930:  eaffffda      b	0xe8a0

----------------									----------------
IN: ui2a										IN: ui2a
0x0000e8fc:  e151000c      cmp	r1, ip							0x0000e8fc:  e151000c      cmp	r1, ip
0x0000e900:  e1a0c003      mov	ip, r3							0x0000e900:  e1a0c003      mov	ip, r3
0x0000e904:  e085e00e      add	lr, r5, lr						0x0000e904:  e085e00e      add	lr, r5, lr
0x0000e908:  e2844001      add	r4, r4, #1	; 0x1					0x0000e908:  e2844001      add	r4, r4, #1	; 0x1
0x0000e90c:  e4cce001      strb	lr, [ip], #1						0x0000e90c:  e4cce001      strb	lr, [ip], #1
0x0000e910:  e1a0300c      mov	r3, ip							0x0000e910:  e1a0300c      mov	r3, ip
0x0000e914:  8affffef      bhi	0xe8d8							0x0000e914:  8affffef      bhi	0xe8d8

----------------									----------------
IN: iobuf_alloc										IN: iobuf_alloc
0x000085e8:  e59d3004      ldr	r3, [sp, #4]						0x000085e8:  e59d3004      ldr	r3, [sp, #4]
0x000085ec:  e3530000      cmp	r3, #0	; 0x0						0x000085ec:  e3530000      cmp	r3, #0	; 0x0
0x000085f0:  0a000015      beq	0x864c							0x000085f0:  0a000015      beq	0x864c

----------------									----------------
IN: iobuf_alloc										IN: iobuf_alloc
0x000085f4:  e3a01048      mov	r1, #72	; 0x48						0x000085f4:  e3a01048      mov	r1, #72	; 0x48
0x000085f8:  e3a00001      mov	r0, #1	; 0x1						0x000085f8:  e3a00001      mov	r0, #1	; 0x1
0x000085fc:  eb001225      bl	0xce98							0x000085fc:  eb001225      bl	0xce98

----------------									----------------
IN: xcalloc										IN: xcalloc
0x0000ce98:  e3500000      cmp	r0, #0	; 0x0						0x0000ce98:  e3500000      cmp	r0, #0	; 0x0
0x0000ce9c:  e92d4070      push	{r4, r5, r6, lr}					0x0000ce9c:  e92d4070      push	{r4, r5, r6, lr}
0x0000cea0:  0a000003      beq	0xceb4							0x0000cea0:  0a000003      beq	0xceb4

----------------									----------------
IN: xcalloc										IN: xcalloc
0x0000cea4:  e0832190      umull	r2, r3, r0, r1					0x0000cea4:  e0832190      umull	r2, r3, r0, r1
0x0000cea8:  e3530000      cmp	r3, #0	; 0x0						0x0000cea8:  e3530000      cmp	r3, #0	; 0x0
0x0000ceac:  13a05000      movne	r5, #0	; 0x0					0x0000ceac:  13a05000      movne	r5, #0	; 0x0
0x0000ceb0:  1a000007      bne	0xced4							0x0000ceb0:  1a000007      bne	0xced4

----------------									----------------
IN: xcalloc										IN: xcalloc
0x0000ceb4:  e0040091      mul	r4, r1, r0						0x0000ceb4:  e0040091      mul	r4, r1, r0
0x0000ceb8:  e1a00004      mov	r0, r4							0x0000ceb8:  e1a00004      mov	r0, r4
0x0000cebc:  ebffff65      bl	0xcc58							0x0000cebc:  ebffff65      bl	0xcc58

----------------									----------------
IN: xcalloc										IN: xcalloc
0x0000cec0:  e2505000      subs	r5, r0, #0	; 0x0					0x0000cec0:  e2505000      subs	r5, r0, #0	; 0x0
0x0000cec4:  0a000002      beq	0xced4							0x0000cec4:  0a000002      beq	0xced4

----------------									----------------
IN: xcalloc										IN: xcalloc
0x0000cec8:  e1a02004      mov	r2, r4							0x0000cec8:  e1a02004      mov	r2, r4
0x0000cecc:  e3a01000      mov	r1, #0	; 0x0						0x0000cecc:  e3a01000      mov	r1, #0	; 0x0
0x0000ced0:  ebffffca      bl	0xce00							0x0000ced0:  ebffffca      bl	0xce00

----------------									----------------
IN: xcalloc										IN: xcalloc
0x0000ced4:  e1a00005      mov	r0, r5							0x0000ced4:  e1a00005      mov	r0, r5
0x0000ced8:  e8bd8070      pop	{r4, r5, r6, pc}					0x0000ced8:  e8bd8070      pop	{r4, r5, r6, pc}

----------------									----------------
IN: iobuf_alloc										IN: iobuf_alloc
0x00008600:  e1a04000      mov	r4, r0							0x00008600:  e1a04000      mov	r4, r0
0x00008604:  e59d0004      ldr	r0, [sp, #4]						0x00008604:  e59d0004      ldr	r0, [sp, #4]
0x00008608:  e5c45000      strb	r5, [r4]						0x00008608:  e5c45000      strb	r5, [r4]
0x0000860c:  eb001204      bl	0xce24							0x0000860c:  eb001204      bl	0xce24

----------------									----------------
IN: xmalloc										IN: xmalloc
0x0000ce24:  e3500001      cmp	r0, #1	; 0x1						0x0000ce24:  e3500001      cmp	r0, #1	; 0x1
0x0000ce28:  e92d4070      push	{r4, r5, r6, lr}					0x0000ce28:  e92d4070      push	{r4, r5, r6, lr}
0x0000ce2c:  21a04000      movcs	r4, r0						0x0000ce2c:  21a04000      movcs	r4, r0
0x0000ce30:  33a04001      movcc	r4, #1	; 0x1					0x0000ce30:  33a04001      movcc	r4, #1	; 0x1
0x0000ce34:  e1a00004      mov	r0, r4							0x0000ce34:  e1a00004      mov	r0, r4
0x0000ce38:  ebffff86      bl	0xcc58							0x0000ce38:  ebffff86      bl	0xcc58

----------------									----------------
IN: xmalloc										IN: xmalloc
0x0000ce3c:  e2505000      subs	r5, r0, #0	; 0x0					0x0000ce3c:  e2505000      subs	r5, r0, #0	; 0x0
0x0000ce40:  0a000004      beq	0xce58							0x0000ce40:  0a000004      beq	0xce58

----------------									----------------
IN: xmalloc										IN: xmalloc
0x0000ce44:  e1a02004      mov	r2, r4							0x0000ce44:  e1a02004      mov	r2, r4
0x0000ce48:  e3a01000      mov	r1, #0	; 0x0						0x0000ce48:  e3a01000      mov	r1, #0	; 0x0
0x0000ce4c:  ebffffeb      bl	0xce00							0x0000ce4c:  ebffffeb      bl	0xce00

----------------									----------------
IN: xmalloc										IN: xmalloc
0x0000ce50:  e1a00005      mov	r0, r5							0x0000ce50:  e1a00005      mov	r0, r5
0x0000ce54:  e8bd8070      pop	{r4, r5, r6, pc}					0x0000ce54:  e8bd8070      pop	{r4, r5, r6, pc}

----------------									----------------
IN: iobuf_alloc										IN: iobuf_alloc
0x00008610:  e59f2050      ldr	r2, [pc, #80]	; 0x8668				0x00008610:  e59f2050      ldr	r2, [pc, #80]	; 0x8668
0x00008614:  e3a01000      mov	r1, #0	; 0x0						0x00008614:  e3a01000      mov	r1, #0	; 0x0
0x00008618:  e59d3004      ldr	r3, [sp, #4]						0x00008618:  e59d3004      ldr	r3, [sp, #4]
0x0000861c:  e08f2002      add	r2, pc, r2						0x0000861c:  e08f2002      add	r2, pc, r2
0x00008620:  e5843014      str	r3, [r4, #20]						0x00008620:  e5843014      str	r3, [r4, #20]
0x00008624:  e5923000      ldr	r3, [r2]						0x00008624:  e5923000      ldr	r3, [r2]
0x00008628:  e5840020      str	r0, [r4, #32]						0x00008628:  e5840020      str	r0, [r4, #32]
0x0000862c:  e1a00004      mov	r0, r4							0x0000862c:  e1a00004      mov	r0, r4
0x00008630:  e5841044      str	r1, [r4, #68]						0x00008630:  e5841044      str	r1, [r4, #68]
0x00008634:  e2833001      add	r3, r3, #1	; 0x1					0x00008634:  e2833001      add	r3, r3, #1	; 0x1
0x00008638:  e5841038      str	r1, [r4, #56]						0x00008638:  e5841038      str	r1, [r4, #56]
0x0000863c:  e5823000      str	r3, [r2]						0x0000863c:  e5823000      str	r3, [r2]
0x00008640:  e5843040      str	r3, [r4, #64]						0x00008640:  e5843040      str	r3, [r4, #64]
0x00008644:  e28dd00c      add	sp, sp, #12	; 0xc					0x00008644:  e28dd00c      add	sp, sp, #12	; 0xc
0x00008648:  e8bd8030      pop	{r4, r5, pc}						0x00008648:  e8bd8030      pop	{r4, r5, pc}

----------------									----------------
IN: iobuf_temp_with_content								IN: iobuf_temp_with_content
0x00008684:  e1a05000      mov	r5, r0							0x00008684:  e1a05000      mov	r5, r0
0x00008688:  e59f0044      ldr	r0, [pc, #68]	; 0x86d4				0x00008688:  e59f0044      ldr	r0, [pc, #68]	; 0x86d4
0x0000868c:  e5951014      ldr	r1, [r5, #20]						0x0000868c:  e5951014      ldr	r1, [r5, #20]
0x00008690:  e08f0000      add	r0, pc, r0						0x00008690:  e08f0000      add	r0, pc, r0
0x00008694:  eb0019f9      bl	0xee80							0x00008694:  eb0019f9      bl	0xee80

----------------									----------------
IN: iobuf_temp_with_content								IN: iobuf_temp_with_content
0x00008698:  e3560000      cmp	r6, #0	; 0x0						0x00008698:  e3560000      cmp	r6, #0	; 0x0
0x0000869c:  0a000009      beq	0x86c8							0x0000869c:  0a000009      beq	0x86c8

----------------									----------------
IN: iobuf_temp_with_content								IN: iobuf_temp_with_content
0x000086a0:  e0841006      add	r1, r4, r6						0x000086a0:  e0841006      add	r1, r4, r6
0x000086a4:  e2443001      sub	r3, r4, #1	; 0x1					0x000086a4:  e2443001      sub	r3, r4, #1	; 0x1
0x000086a8:  e2411001      sub	r1, r1, #1	; 0x1					0x000086a8:  e2411001      sub	r1, r1, #1	; 0x1
0x000086ac:  e2644001      rsb	r4, r4, #1	; 0x1					0x000086ac:  e2644001      rsb	r4, r4, #1	; 0x1
0x000086b0:  e0842003      add	r2, r4, r3						0x000086b0:  e0842003      add	r2, r4, r3
0x000086b4:  e5f3e001      ldrb	lr, [r3, #1]!						0x000086b4:  e5f3e001      ldrb	lr, [r3, #1]!
0x000086b8:  e595c020      ldr	ip, [r5, #32]						0x000086b8:  e595c020      ldr	ip, [r5, #32]
0x000086bc:  e1530001      cmp	r3, r1							0x000086bc:  e1530001      cmp	r3, r1
0x000086c0:  e7cce002      strb	lr, [ip, r2]						0x000086c0:  e7cce002      strb	lr, [ip, r2]
0x000086c4:  1afffff9      bne	0x86b0							0x000086c4:  1afffff9      bne	0x86b0

----------------									----------------
IN: iobuf_temp_with_content								IN: iobuf_temp_with_content
0x000086b0:  e0842003      add	r2, r4, r3						0x000086b0:  e0842003      add	r2, r4, r3
0x000086b4:  e5f3e001      ldrb	lr, [r3, #1]!						0x000086b4:  e5f3e001      ldrb	lr, [r3, #1]!
0x000086b8:  e595c020      ldr	ip, [r5, #32]						0x000086b8:  e595c020      ldr	ip, [r5, #32]
0x000086bc:  e1530001      cmp	r3, r1							0x000086bc:  e1530001      cmp	r3, r1
0x000086c0:  e7cce002      strb	lr, [ip, r2]						0x000086c0:  e7cce002      strb	lr, [ip, r2]
0x000086c4:  1afffff9      bne	0x86b0							0x000086c4:  1afffff9      bne	0x86b0

----------------									----------------
IN: iobuf_temp_with_content								IN: iobuf_temp_with_content
0x000086c8:  e585601c      str	r6, [r5, #28]						0x000086c8:  e585601c      str	r6, [r5, #28]
0x000086cc:  e1a00005      mov	r0, r5							0x000086cc:  e1a00005      mov	r0, r5
0x000086d0:  e8bd8070      pop	{r4, r5, r6, pc}					0x000086d0:  e8bd8070      pop	{r4, r5, r6, pc}

----------------									----------------
IN: decrypt_memory									IN: decrypt_memory
0x0000a2a8:  e2506000      subs	r6, r0, #0	; 0x0					0x0000a2a8:  e2506000      subs	r6, r0, #0	; 0x0
0x0000a2ac:  0a00002e      beq	0xa36c							0x0000a2ac:  0a00002e      beq	0xa36c

----------------									----------------
IN: decrypt_memory									IN: decrypt_memory
0x0000a2b0:  e59f50c4      ldr	r5, [pc, #196]	; 0xa37c				0x0000a2b0:  e59f50c4      ldr	r5, [pc, #196]	; 0xa37c
0x0000a2b4:  e1a01004      mov	r1, r4							0x0000a2b4:  e1a01004      mov	r1, r4
0x0000a2b8:  e1a00004      mov	r0, r4							0x0000a2b8:  e1a00004      mov	r0, r4
0x0000a2bc:  e08f5005      add	r5, pc, r5						0x0000a2bc:  e08f5005      add	r5, pc, r5
0x0000a2c0:  ebffff52      bl	0xa010							0x0000a2c0:  ebffff52      bl	0xa010

----------------									----------------
IN: translate_file_handle								IN: translate_file_handle
0x0000a010:  e12fff1e      bx	lr							0x0000a010:  e12fff1e      bx	lr

----------------									----------------
IN: decrypt_memory									IN: decrypt_memory
0x0000a2c4:  e1a01005      mov	r1, r5							0x0000a2c4:  e1a01005      mov	r1, r5
0x0000a2c8:  ebfffa1d      bl	0x8b44							0x0000a2c8:  ebfffa1d      bl	0x8b44

----------------									----------------
IN: iobuf_fdopen									IN: iobuf_fdopen
0x00008b44:  e1a03001      mov	r3, r1							0x00008b44:  e1a03001      mov	r3, r1
0x00008b48:  e3a01077      mov	r1, #119	; 0x77					0x00008b48:  e3a01077      mov	r1, #119	; 0x77
0x00008b4c:  e92d43f0      push	{r4, r5, r6, r7, r8, r9, lr}				0x00008b4c:  e92d43f0      push	{r4, r5, r6, r7, r8, r9, lr}
0x00008b50:  e1a07000      mov	r7, r0							0x00008b50:  e1a07000      mov	r7, r0
0x00008b54:  e59f60dc      ldr	r6, [pc, #220]	; 0x8c38				0x00008b54:  e59f60dc      ldr	r6, [pc, #220]	; 0x8c38
0x00008b58:  e24dd014      sub	sp, sp, #20	; 0x14					0x00008b58:  e24dd014      sub	sp, sp, #20	; 0x14
0x00008b5c:  e1a00003      mov	r0, r3							0x00008b5c:  e1a00003      mov	r0, r3
0x00008b60:  e3a08000      mov	r8, #0	; 0x0						0x00008b60:  e3a08000      mov	r8, #0	; 0x0
0x00008b64:  e08f6006      add	r6, pc, r6						0x00008b64:  e08f6006      add	r6, pc, r6
0x00008b68:  eb00113c      bl	0xd060							0x00008b68:  eb00113c      bl	0xd060

----------------									----------------
IN: strchr										IN: strchr
0x0000d060:  e6ef1071      uxtb	r1, r1							0x0000d060:  e6ef1071      uxtb	r1, r1
0x0000d064:  e1a03000      mov	r3, r0							0x0000d064:  e1a03000      mov	r3, r0
0x0000d068:  e5d32000      ldrb	r2, [r3]						0x0000d068:  e5d32000      ldrb	r2, [r3]
0x0000d06c:  e1a00003      mov	r0, r3							0x0000d06c:  e1a00003      mov	r0, r3
0x0000d070:  e2833001      add	r3, r3, #1	; 0x1					0x0000d070:  e2833001      add	r3, r3, #1	; 0x1
0x0000d074:  e1520001      cmp	r2, r1							0x0000d074:  e1520001      cmp	r2, r1
0x0000d078:  012fff1e      bxeq	lr							0x0000d078:  012fff1e      bxeq	lr

----------------									----------------
IN: strchr										IN: strchr
0x0000d07c:  e3520000      cmp	r2, #0	; 0x0						0x0000d07c:  e3520000      cmp	r2, #0	; 0x0
0x0000d080:  1afffff8      bne	0xd068							0x0000d080:  1afffff8      bne	0xd068

----------------									----------------
IN: strchr										IN: strchr
0x0000d068:  e5d32000      ldrb	r2, [r3]						0x0000d068:  e5d32000      ldrb	r2, [r3]
0x0000d06c:  e1a00003      mov	r0, r3							0x0000d06c:  e1a00003      mov	r0, r3
0x0000d070:  e2833001      add	r3, r3, #1	; 0x1					0x0000d070:  e2833001      add	r3, r3, #1	; 0x1
0x0000d074:  e1520001      cmp	r2, r1							0x0000d074:  e1520001      cmp	r2, r1
0x0000d078:  012fff1e      bxeq	lr							0x0000d078:  012fff1e      bxeq	lr

----------------									----------------
IN: strchr										IN: strchr
0x0000d084:  e1a00002      mov	r0, r2							0x0000d084:  e1a00002      mov	r0, r2
0x0000d088:  e12fff1e      bx	lr							0x0000d088:  e12fff1e      bx	lr

----------------									----------------
IN: iobuf_fdopen									IN: iobuf_fdopen
0x00008b6c:  e3500000      cmp	r0, #0	; 0x0						0x00008b6c:  e3500000      cmp	r0, #0	; 0x0
0x00008b70:  e3a01a02      mov	r1, #8192	; 0x2000				0x00008b70:  e3a01a02      mov	r1, #8192	; 0x2000
0x00008b74:  13a00002      movne	r0, #2	; 0x2					0x00008b74:  13a00002      movne	r0, #2	; 0x2
0x00008b78:  01a00008      moveq	r0, r8						0x00008b78:  01a00008      moveq	r0, r8
0x00008b7c:  e3a09001      mov	r9, #1	; 0x1						0x00008b7c:  e3a09001      mov	r9, #1	; 0x1
0x00008b80:  ebfffe8c      bl	0x85b8							0x00008b80:  ebfffe8c      bl	0x85b8

----------------									----------------
IN: ui2a										IN: ui2a
0x0000e8c0:  e151000c      cmp	r1, ip							0x0000e8c0:  e151000c      cmp	r1, ip
0x0000e8c4:  e1a04005      mov	r4, r5							0x0000e8c4:  e1a04005      mov	r4, r5
0x0000e8c8:  9a000012      bls	0xe918							0x0000e8c8:  9a000012      bls	0xe918

----------------									----------------
IN: ui2a										IN: ui2a
0x0000e8cc:  e1a0c003      mov	ip, r3							0x0000e8cc:  e1a0c003      mov	ip, r3
0x0000e8d0:  e28ee030      add	lr, lr, #48	; 0x30					0x0000e8d0:  e28ee030      add	lr, lr, #48	; 0x30
0x0000e8d4:  e4cce001      strb	lr, [ip], #1						0x0000e8d4:  e4cce001      strb	lr, [ip], #1
0x0000e8d8:  e3a03000      mov	r3, #0	; 0x0						0x0000e8d8:  e3a03000      mov	r3, #0	; 0x0
0x0000e8dc:  e5cc3000      strb	r3, [ip]						0x0000e8dc:  e5cc3000      strb	r3, [ip]
0x0000e8e0:  e8bd8070      pop	{r4, r5, r6, pc}					0x0000e8e0:  e8bd8070      pop	{r4, r5, r6, pc}

----------------									----------------
IN: iobuf_fdopen									IN: iobuf_fdopen
0x00008b84:  e1a05000      mov	r5, r0							0x00008b84:  e1a05000      mov	r5, r0
0x00008b88:  e3a0004c      mov	r0, #76	; 0x4c						0x00008b88:  e3a0004c      mov	r0, #76	; 0x4c
0x00008b8c:  eb0010a4      bl	0xce24							0x00008b8c:  eb0010a4      bl	0xce24

----------------									----------------
IN: iobuf_fdopen									IN: iobuf_fdopen
0x00008b90:  e59f10a4      ldr	r1, [pc, #164]	; 0x8c3c				0x00008b90:  e59f10a4      ldr	r1, [pc, #164]	; 0x8c3c
0x00008b94:  e1a02007      mov	r2, r7							0x00008b94:  e1a02007      mov	r2, r7
0x00008b98:  e5807000      str	r7, [r0]						0x00008b98:  e5807000      str	r7, [r0]
0x00008b9c:  e2807036      add	r7, r0, #54	; 0x36					0x00008b9c:  e2807036      add	r7, r0, #54	; 0x36
0x00008ba0:  e08f1001      add	r1, pc, r1						0x00008ba0:  e08f1001      add	r1, pc, r1
0x00008ba4:  e1a04000      mov	r4, r0							0x00008ba4:  e1a04000      mov	r4, r0
0x00008ba8:  e5809010      str	r9, [r0, #16]						0x00008ba8:  e5809010      str	r9, [r0, #16]
0x00008bac:  e5808004      str	r8, [r0, #4]						0x00008bac:  e5808004      str	r8, [r0, #4]
0x00008bb0:  e1a00007      mov	r0, r7							0x00008bb0:  e1a00007      mov	r0, r7
0x00008bb4:  eb0018c4      bl	0xeecc							0x00008bb4:  eb0018c4      bl	0xeecc

----------------									----------------
IN: tfp_sprintf										IN: tfp_sprintf
0x0000eecc:  e92d000e      push	{r1, r2, r3}						0x0000eecc:  e92d000e      push	{r1, r2, r3}
0x0000eed0:  e59f103c      ldr	r1, [pc, #60]	; 0xef14				0x0000eed0:  e59f103c      ldr	r1, [pc, #60]	; 0xef14
0x0000eed4:  e52de004      push	{lr}		; (str lr, [sp, #-4]!)			0x0000eed4:  e52de004      push	{lr}		; (str lr, [sp, #-4]!)
0x0000eed8:  e24dd010      sub	sp, sp, #16	; 0x10					0x0000eed8:  e24dd010      sub	sp, sp, #16	; 0x10
0x0000eedc:  e08f1001      add	r1, pc, r1						0x0000eedc:  e08f1001      add	r1, pc, r1
0x0000eee0:  e28d3018      add	r3, sp, #24	; 0x18					0x0000eee0:  e28d3018      add	r3, sp, #24	; 0x18
0x0000eee4:  e59d2014      ldr	r2, [sp, #20]						0x0000eee4:  e59d2014      ldr	r2, [sp, #20]
0x0000eee8:  e58d0004      str	r0, [sp, #4]						0x0000eee8:  e58d0004      str	r0, [sp, #4]
0x0000eeec:  e28d0004      add	r0, sp, #4	; 0x4					0x0000eeec:  e28d0004      add	r0, sp, #4	; 0x4
0x0000eef0:  e58d300c      str	r3, [sp, #12]						0x0000eef0:  e58d300c      str	r3, [sp, #12]
0x0000eef4:  ebfffebf      bl	0xe9f8							0x0000eef4:  ebfffebf      bl	0xe9f8

----------------									----------------
IN: putcp										IN: putcp
0x0000e9e4:  e5903000      ldr	r3, [r0]						0x0000e9e4:  e5903000      ldr	r3, [r0]
0x0000e9e8:  e2832001      add	r2, r3, #1	; 0x1					0x0000e9e8:  e2832001      add	r2, r3, #1	; 0x1
0x0000e9ec:  e5802000      str	r2, [r0]						0x0000e9ec:  e5802000      str	r2, [r0]
0x0000e9f0:  e5c31000      strb	r1, [r3]						0x0000e9f0:  e5c31000      strb	r1, [r3]
0x0000e9f4:  e12fff1e      bx	lr							0x0000e9f4:  e12fff1e      bx	lr

----------------									----------------
IN: tfp_sprintf										IN: tfp_sprintf
0x0000eef8:  e59d3004      ldr	r3, [sp, #4]						0x0000eef8:  e59d3004      ldr	r3, [sp, #4]
0x0000eefc:  e3a02000      mov	r2, #0	; 0x0						0x0000eefc:  e3a02000      mov	r2, #0	; 0x0
0x0000ef00:  e5c32000      strb	r2, [r3]						0x0000ef00:  e5c32000      strb	r2, [r3]
0x0000ef04:  e28dd010      add	sp, sp, #16	; 0x10					0x0000ef04:  e28dd010      add	sp, sp, #16	; 0x10
0x0000ef08:  e49de004      pop	{lr}		; (ldr lr, [sp], #4)			0x0000ef08:  e49de004      pop	{lr}		; (ldr lr, [sp], #4)
0x0000ef0c:  e28dd00c      add	sp, sp, #12	; 0xc					0x0000ef0c:  e28dd00c      add	sp, sp, #12	; 0xc
0x0000ef10:  e12fff1e      bx	lr							0x0000ef10:  e12fff1e      bx	lr

----------------									----------------
IN: iobuf_fdopen									IN: iobuf_fdopen
0x00008bb8:  e59f3080      ldr	r3, [pc, #128]	; 0x8c40				0x00008bb8:  e59f3080      ldr	r3, [pc, #128]	; 0x8c40
0x00008bbc:  e1a01009      mov	r1, r9							0x00008bbc:  e1a01009      mov	r1, r9
0x00008bc0:  e1a00004      mov	r0, r4							0x00008bc0:  e1a00004      mov	r0, r4
0x00008bc4:  e1a02008      mov	r2, r8							0x00008bc4:  e1a02008      mov	r2, r8
0x00008bc8:  e7963003      ldr	r3, [r6, r3]						0x00008bc8:  e7963003      ldr	r3, [r6, r3]
0x00008bcc:  e5854030      str	r4, [r5, #48]						0x00008bcc:  e5854030      str	r4, [r5, #48]
0x00008bd0:  e585302c      str	r3, [r5, #44]						0x00008bd0:  e585302c      str	r3, [r5, #44]
0x00008bd4:  e28d300c      add	r3, sp, #12	; 0xc					0x00008bd4:  e28d300c      add	r3, sp, #12	; 0xc
0x00008bd8:  e58d3000      str	r3, [sp]						0x00008bd8:  e58d3000      str	r3, [sp]
0x00008bdc:  e1a03008      mov	r3, r8							0x00008bdc:  e1a03008      mov	r3, r8
0x00008be0:  ebfffd77      bl	0x81c4							0x00008be0:  ebfffd77      bl	0x81c4

----------------									----------------
IN: file_filter										IN: file_filter
0x000081c4:  e92d41f0      push	{r4, r5, r6, r7, r8, lr}				0x000081c4:  e92d41f0      push	{r4, r5, r6, r7, r8, lr}
0x000081c8:  e3510003      cmp	r1, #3	; 0x3						0x000081c8:  e3510003      cmp	r1, #3	; 0x3
0x000081cc:  e59d6018      ldr	r6, [sp, #24]						0x000081cc:  e59d6018      ldr	r6, [sp, #24]
0x000081d0:  e1a04000      mov	r4, r0							0x000081d0:  e1a04000      mov	r4, r0
0x000081d4:  e59fc14c      ldr	ip, [pc, #332]	; 0x8328				0x000081d4:  e59fc14c      ldr	ip, [pc, #332]	; 0x8328
0x000081d8:  e1a05003      mov	r5, r3							0x000081d8:  e1a05003      mov	r5, r3
0x000081dc:  e5967000      ldr	r7, [r6]						0x000081dc:  e5967000      ldr	r7, [r6]
0x000081e0:  e08fc00c      add	ip, pc, ip						0x000081e0:  e08fc00c      add	ip, pc, ip
0x000081e4:  0a00000d      beq	0x8220							0x000081e4:  0a00000d      beq	0x8220

----------------									----------------
IN: file_filter										IN: file_filter
0x000081e8:  e3510004      cmp	r1, #4	; 0x4						0x000081e8:  e3510004      cmp	r1, #4	; 0x4
0x000081ec:  0a000007      beq	0x8210							0x000081ec:  0a000007      beq	0x8210

----------------									----------------
IN: file_filter										IN: file_filter
0x000081f0:  e3510001      cmp	r1, #1	; 0x1						0x000081f0:  e3510001      cmp	r1, #1	; 0x1
0x000081f4:  0a000018      beq	0x825c							0x000081f4:  0a000018      beq	0x825c

----------------									----------------
IN: file_filter										IN: file_filter
0x0000825c:  e3a03000      mov	r3, #0	; 0x0						0x0000825c:  e3a03000      mov	r3, #0	; 0x0
0x00008260:  e580300c      str	r3, [r0, #12]						0x00008260:  e580300c      str	r3, [r0, #12]
0x00008264:  e1a00003      mov	r0, r3							0x00008264:  e1a00003      mov	r0, r3
0x00008268:  e5843004      str	r3, [r4, #4]						0x00008268:  e5843004      str	r3, [r4, #4]
0x0000826c:  e5843008      str	r3, [r4, #8]						0x0000826c:  e5843008      str	r3, [r4, #8]
0x00008270:  e1c433b4      strh	r3, [r4, #52]						0x00008270:  e1c433b4      strh	r3, [r4, #52]
0x00008274:  e8bd81f0      pop	{r4, r5, r6, r7, r8, pc}				0x00008274:  e8bd81f0      pop	{r4, r5, r6, r7, r8, pc}

----------------									----------------
IN: iobuf_fdopen									IN: iobuf_fdopen
0x00008be4:  e59f3058      ldr	r3, [pc, #88]	; 0x8c44				0x00008be4:  e59f3058      ldr	r3, [pc, #88]	; 0x8c44
0x00008be8:  e7963003      ldr	r3, [r6, r3]						0x00008be8:  e7963003      ldr	r3, [r6, r3]
0x00008bec:  e5933000      ldr	r3, [r3]						0x00008bec:  e5933000      ldr	r3, [r3]
0x00008bf0:  e1530008      cmp	r3, r8							0x00008bf0:  e1530008      cmp	r3, r8
0x00008bf4:  0a000007      beq	0x8c18							0x00008bf4:  0a000007      beq	0x8c18

----------------									----------------
IN: iobuf_fdopen									IN: iobuf_fdopen
0x00008c18:  e3a03000      mov	r3, #0	; 0x0						0x00008c18:  e3a03000      mov	r3, #0	; 0x0
0x00008c1c:  e3a02001      mov	r2, #1	; 0x1						0x00008c1c:  e3a02001      mov	r2, #1	; 0x1
0x00008c20:  e3a01003      mov	r1, #3	; 0x3						0x00008c20:  e3a01003      mov	r1, #3	; 0x3
0x00008c24:  e1a00005      mov	r0, r5							0x00008c24:  e1a00005      mov	r0, r5
0x00008c28:  ebfffeaa      bl	0x86d8							0x00008c28:  ebfffeaa      bl	0x86d8

----------------									----------------
IN: iobuf_ioctl										IN: iobuf_ioctl
0x000086d8:  e92d4ff0      push	{r4, r5, r6, r7, r8, r9, sl, fp, lr}			0x000086d8:  e92d4ff0      push	{r4, r5, r6, r7, r8, r9, sl, fp, lr}
0x000086dc:  e1a04000      mov	r4, r0							0x000086dc:  e1a04000      mov	r4, r0
0x000086e0:  e59f0418      ldr	r0, [pc, #1048]	; 0x8b00				0x000086e0:  e59f0418      ldr	r0, [pc, #1048]	; 0x8b00
0x000086e4:  e1a05001      mov	r5, r1							0x000086e4:  e1a05001      mov	r5, r1
0x000086e8:  e59f8414      ldr	r8, [pc, #1044]	; 0x8b04				0x000086e8:  e59f8414      ldr	r8, [pc, #1044]	; 0x8b04
0x000086ec:  e24dd034      sub	sp, sp, #52	; 0x34					0x000086ec:  e24dd034      sub	sp, sp, #52	; 0x34
0x000086f0:  e08f0000      add	r0, pc, r0						0x000086f0:  e08f0000      add	r0, pc, r0
0x000086f4:  e1a06002      mov	r6, r2							0x000086f4:  e1a06002      mov	r6, r2
0x000086f8:  e08f8008      add	r8, pc, r8						0x000086f8:  e08f8008      add	r8, pc, r8
0x000086fc:  e1a07003      mov	r7, r3							0x000086fc:  e1a07003      mov	r7, r3
0x00008700:  eb0019de      bl	0xee80							0x00008700:  eb0019de      bl	0xee80

----------------									----------------
IN: iobuf_ioctl										IN: iobuf_ioctl
0x00008704:  e3550001      cmp	r5, #1	; 0x1						0x00008704:  e3550001      cmp	r5, #1	; 0x1
0x00008708:  0a000057      beq	0x886c							0x00008708:  0a000057      beq	0x886c

----------------									----------------
IN: iobuf_ioctl										IN: iobuf_ioctl
0x0000870c:  e3550002      cmp	r5, #2	; 0x2						0x0000870c:  e3550002      cmp	r5, #2	; 0x2
0x00008710:  0a000039      beq	0x87fc							0x00008710:  0a000039      beq	0x87fc

----------------									----------------
IN: iobuf_ioctl										IN: iobuf_ioctl
0x00008714:  e3550003      cmp	r5, #3	; 0x3						0x00008714:  e3550003      cmp	r5, #3	; 0x3
0x00008718:  0a000097      beq	0x897c							0x00008718:  0a000097      beq	0x897c

----------------									----------------
IN: iobuf_ioctl										IN: iobuf_ioctl
0x0000897c:  e59f3184      ldr	r3, [pc, #388]	; 0x8b08				0x0000897c:  e59f3184      ldr	r3, [pc, #388]	; 0x8b08
0x00008980:  e7983003      ldr	r3, [r8, r3]						0x00008980:  e7983003      ldr	r3, [r8, r3]
0x00008984:  e5933000      ldr	r3, [r3]						0x00008984:  e5933000      ldr	r3, [r3]
0x00008988:  e3530000      cmp	r3, #0	; 0x0						0x00008988:  e3530000      cmp	r3, #0	; 0x0
0x0000898c:  0a00001c      beq	0x8a04							0x0000898c:  0a00001c      beq	0x8a04

----------------									----------------
IN: iobuf_ioctl										IN: iobuf_ioctl
0x00008a04:  e3540000      cmp	r4, #0	; 0x0						0x00008a04:  e3540000      cmp	r4, #0	; 0x0
0x00008a08:  1afffff9      bne	0x89f4							0x00008a08:  1afffff9      bne	0x89f4

----------------									----------------
IN: iobuf_ioctl										IN: iobuf_ioctl
0x000089f4:  e594303c      ldr	r3, [r4, #60]						0x000089f4:  e594303c      ldr	r3, [r4, #60]
0x000089f8:  e3530000      cmp	r3, #0	; 0x0						0x000089f8:  e3530000      cmp	r3, #0	; 0x0
0x000089fc:  0a000003      beq	0x8a10							0x000089fc:  0a000003      beq	0x8a10

----------------									----------------
IN: iobuf_ioctl										IN: iobuf_ioctl
0x00008a10:  e59f20f8      ldr	r2, [pc, #248]	; 0x8b10				0x00008a10:  e59f20f8      ldr	r2, [pc, #248]	; 0x8b10
0x00008a14:  e594102c      ldr	r1, [r4, #44]						0x00008a14:  e594102c      ldr	r1, [r4, #44]
0x00008a18:  e7982002      ldr	r2, [r8, r2]						0x00008a18:  e7982002      ldr	r2, [r8, r2]
0x00008a1c:  e1510002      cmp	r1, r2							0x00008a1c:  e1510002      cmp	r1, r2
0x00008a20:  01a00003      moveq	r0, r3						0x00008a20:  01a00003      moveq	r0, r3
0x00008a24:  05942030      ldreq	r2, [r4, #48]					0x00008a24:  05942030      ldreq	r2, [r4, #48]
0x00008a28:  05826008      streq	r6, [r2, #8]					0x00008a28:  05826008      streq	r6, [r2, #8]
0x00008a2c:  0affff83      beq	0x8840							0x00008a2c:  0affff83      beq	0x8840

----------------									----------------
IN: iobuf_ioctl										IN: iobuf_ioctl
0x00008840:  e28dd034      add	sp, sp, #52	; 0x34					0x00008840:  e28dd034      add	sp, sp, #52	; 0x34
0x00008844:  e8bd8ff0      pop	{r4, r5, r6, r7, r8, r9, sl, fp, pc}			0x00008844:  e8bd8ff0      pop	{r4, r5, r6, r7, r8, r9, sl, fp, pc}

----------------									----------------
IN: iobuf_fdopen									IN: iobuf_fdopen
0x00008c2c:  e1a00005      mov	r0, r5							0x00008c2c:  e1a00005      mov	r0, r5
0x00008c30:  e28dd014      add	sp, sp, #20	; 0x14					0x00008c30:  e28dd014      add	sp, sp, #20	; 0x14
0x00008c34:  e8bd83f0      pop	{r4, r5, r6, r7, r8, r9, pc}				0x00008c34:  e8bd83f0      pop	{r4, r5, r6, r7, r8, r9, pc}

----------------									----------------
IN: decrypt_memory									IN: decrypt_memory
0x0000a2cc:  e1a01005      mov	r1, r5							0x0000a2cc:  e1a01005      mov	r1, r5
0x0000a2d0:  e1a00004      mov	r0, r4							0x0000a2d0:  e1a00004      mov	r0, r4
0x0000a2d4:  ebfff88e      bl	0x8514							0x0000a2d4:  ebfff88e      bl	0x8514

----------------									----------------
IN: fd_cache_open									IN: fd_cache_open
0x00008514:  e92d4070      push	{r4, r5, r6, lr}					0x00008514:  e92d4070      push	{r4, r5, r6, lr}
0x00008518:  e1a04000      mov	r4, r0							0x00008518:  e1a04000      mov	r4, r0
0x0000851c:  e59f0090      ldr	r0, [pc, #144]	; 0x85b4				0x0000851c:  e59f0090      ldr	r0, [pc, #144]	; 0x85b4
0x00008520:  e1a05001      mov	r5, r1							0x00008520:  e1a05001      mov	r5, r1
0x00008524:  e1a01004      mov	r1, r4							0x00008524:  e1a01004      mov	r1, r4
0x00008528:  e08f0000      add	r0, pc, r0						0x00008528:  e08f0000      add	r0, pc, r0
0x0000852c:  eb001a53      bl	0xee80							0x0000852c:  eb001a53      bl	0xee80

----------------									----------------
IN: tfp_format										IN: tfp_format
0x0000eb14:  ea000094      b	0xed6c							0x0000eb14:  ea000094      b	0xed6c

----------------									----------------
IN: tfp_format										IN: tfp_format
0x0000ed6c:  e49a3004      ldr	r3, [sl], #4						0x0000ed6c:  e49a3004      ldr	r3, [sl], #4
0x0000ed70:  e1a02005      mov	r2, r5							0x0000ed70:  e1a02005      mov	r2, r5
0x0000ed74:  e1a01007      mov	r1, r7							0x0000ed74:  e1a01007      mov	r1, r7
0x0000ed78:  e1a00006      mov	r0, r6							0x0000ed78:  e1a00006      mov	r0, r6
0x0000ed7c:  e58d3000      str	r3, [sp]						0x0000ed7c:  e58d3000      str	r3, [sp]
0x0000ed80:  e3a03000      mov	r3, #0	; 0x0						0x0000ed80:  e3a03000      mov	r3, #0	; 0x0
0x0000ed84:  ebfffeea      bl	0xe934							0x0000ed84:  ebfffeea      bl	0xe934

----------------									----------------
IN: tfp_format										IN: tfp_format
0x0000ed88:  eaffff2a      b	0xea38							0x0000ed88:  eaffff2a      b	0xea38

----------------									----------------
IN: fd_cache_open									IN: fd_cache_open
0x00008530:  e3a0102b      mov	r1, #43	; 0x2b						0x00008530:  e3a0102b      mov	r1, #43	; 0x2b
0x00008534:  e1a00005      mov	r0, r5							0x00008534:  e1a00005      mov	r0, r5
0x00008538:  eb0012c8      bl	0xd060							0x00008538:  eb0012c8      bl	0xd060

----------------									----------------
IN: fd_cache_open									IN: fd_cache_open
0x0000853c:  e3500000      cmp	r0, #0	; 0x0						0x0000853c:  e3500000      cmp	r0, #0	; 0x0
0x00008540:  0a000010      beq	0x8588							0x00008540:  0a000010      beq	0x8588

----------------									----------------
IN: fd_cache_open									IN: fd_cache_open
0x00008588:  e3a01077      mov	r1, #119	; 0x77					0x00008588:  e3a01077      mov	r1, #119	; 0x77
0x0000858c:  e1a00005      mov	r0, r5							0x0000858c:  e1a00005      mov	r0, r5
0x00008590:  eb0012b2      bl	0xd060							0x00008590:  eb0012b2      bl	0xd060

----------------									----------------
IN: fd_cache_open									IN: fd_cache_open
0x00008594:  e2506000      subs	r6, r0, #0	; 0x0					0x00008594:  e2506000      subs	r6, r0, #0	; 0x0
0x00008598:  0affffee      beq	0x8558							0x00008598:  0affffee      beq	0x8558

----------------									----------------
IN: fd_cache_open									IN: fd_cache_open
0x00008558:  e3a01062      mov	r1, #98	; 0x62						0x00008558:  e3a01062      mov	r1, #98	; 0x62
0x0000855c:  e1a00005      mov	r0, r5							0x0000855c:  e1a00005      mov	r0, r5
0x00008560:  eb0012be      bl	0xd060							0x00008560:  eb0012be      bl	0xd060

----------------									----------------
IN: fd_cache_open									IN: fd_cache_open
0x00008564:  e3500000      cmp	r0, #0	; 0x0						0x00008564:  e3500000      cmp	r0, #0	; 0x0
0x00008568:  e30021b6      movw	r2, #438	; 0x1b6					0x00008568:  e30021b6      movw	r2, #438	; 0x1b6
0x0000856c:  13866801      orrne	r6, r6, #65536	; 0x10000			0x0000856c:  13866801      orrne	r6, r6, #65536	; 0x10000
0x00008570:  e1a00004      mov	r0, r4							0x00008570:  e1a00004      mov	r0, r4
0x00008574:  e1a01006      mov	r1, r6							0x00008574:  e1a01006      mov	r1, r6
0x00008578:  e8bd4070      pop	{r4, r5, r6, lr}					0x00008578:  e8bd4070      pop	{r4, r5, r6, lr}
0x0000857c:  ea0012d3      b	0xd0d0							0x0000857c:  ea0012d3      b	0xd0d0

----------------									----------------
IN: open										IN: open
0x0000d0d0:  e92d000e      push	{r1, r2, r3}						0x0000d0d0:  e92d000e      push	{r1, r2, r3}
0x0000d0d4:  e59f1040      ldr	r1, [pc, #64]	; 0xd11c				0x0000d0d4:  e59f1040      ldr	r1, [pc, #64]	; 0xd11c
0x0000d0d8:  e92d4030      push	{r4, r5, lr}						0x0000d0d8:  e92d4030      push	{r4, r5, lr}
0x0000d0dc:  e1a04000      mov	r4, r0							0x0000d0dc:  e1a04000      mov	r4, r0
0x0000d0e0:  e08f1001      add	r1, pc, r1						0x0000d0e0:  e08f1001      add	r1, pc, r1
0x0000d0e4:  ebffffe8      bl	0xd08c							0x0000d0e4:  ebffffe8      bl	0xd08c

----------------									----------------
IN: strcmp										IN: strcmp
0x0000d08c:  e5d03000      ldrb	r3, [r0]						0x0000d08c:  e5d03000      ldrb	r3, [r0]
0x0000d090:  e3530000      cmp	r3, #0	; 0x0						0x0000d090:  e3530000      cmp	r3, #0	; 0x0
0x0000d094:  05d12000      ldrbeq	r2, [r1]					0x0000d094:  05d12000      ldrbeq	r2, [r1]
0x0000d098:  1a000003      bne	0xd0ac							0x0000d098:  1a000003      bne	0xd0ac

----------------									----------------
IN: strcmp										IN: strcmp
0x0000d0ac:  e1a0c001      mov	ip, r1							0x0000d0ac:  e1a0c001      mov	ip, r1
0x0000d0b0:  e4d12001      ldrb	r2, [r1], #1						0x0000d0b0:  e4d12001      ldrb	r2, [r1], #1
0x0000d0b4:  e1520003      cmp	r2, r3							0x0000d0b4:  e1520003      cmp	r2, r3
0x0000d0b8:  0afffff8      beq	0xd0a0							0x0000d0b8:  0afffff8      beq	0xd0a0

----------------									----------------
IN: strcmp										IN: strcmp
0x0000d0bc:  e0430002      sub	r0, r3, r2						0x0000d0bc:  e0430002      sub	r0, r3, r2
0x0000d0c0:  e12fff1e      bx	lr							0x0000d0c0:  e12fff1e      bx	lr

----------------									----------------
IN: open										IN: open
0x0000d0e8:  e3500000      cmp	r0, #0	; 0x0						0x0000d0e8:  e3500000      cmp	r0, #0	; 0x0
0x0000d0ec:  03a00001      moveq	r0, #1	; 0x1					0x0000d0ec:  03a00001      moveq	r0, #1	; 0x1
0x0000d0f0:  0a000006      beq	0xd110							0x0000d0f0:  0a000006      beq	0xd110

----------------									----------------
IN: open										IN: open
0x0000d0f4:  e59f1024      ldr	r1, [pc, #36]	; 0xd120				0x0000d0f4:  e59f1024      ldr	r1, [pc, #36]	; 0xd120
0x0000d0f8:  e1a00004      mov	r0, r4							0x0000d0f8:  e1a00004      mov	r0, r4
0x0000d0fc:  e08f1001      add	r1, pc, r1						0x0000d0fc:  e08f1001      add	r1, pc, r1
0x0000d100:  ebffffe1      bl	0xd08c							0x0000d100:  ebffffe1      bl	0xd08c

----------------									----------------
IN: open										IN: open
0x0000d104:  e2500000      subs	r0, r0, #0	; 0x0					0x0000d104:  e2500000      subs	r0, r0, #0	; 0x0
0x0000d108:  13a00001      movne	r0, #1	; 0x1					0x0000d108:  13a00001      movne	r0, #1	; 0x1
0x0000d10c:  e2600000      rsb	r0, r0, #0	; 0x0					0x0000d10c:  e2600000      rsb	r0, r0, #0	; 0x0
0x0000d110:  e8bd4030      pop	{r4, r5, lr}						0x0000d110:  e8bd4030      pop	{r4, r5, lr}
0x0000d114:  e28dd00c      add	sp, sp, #12	; 0xc					0x0000d114:  e28dd00c      add	sp, sp, #12	; 0xc
0x0000d118:  e12fff1e      bx	lr							0x0000d118:  e12fff1e      bx	lr

----------------									----------------
IN: decrypt_memory									IN: decrypt_memory
0x0000a2d8:  e1a09000      mov	r9, r0							0x0000a2d8:  e1a09000      mov	r9, r0
0x0000a2dc:  e1a00004      mov	r0, r4							0x0000a2dc:  e1a00004      mov	r0, r4
0x0000a2e0:  eb00184b      bl	0x10414							0x0000a2e0:  eb00184b      bl	0x10414

----------------									----------------
IN: strlen										IN: strlen
0x00010414:  e5d03000      ldrb	r3, [r0]						0x00010414:  e5d03000      ldrb	r3, [r0]
0x00010418:  e3530000      cmp	r3, #0	; 0x0						0x00010418:  e3530000      cmp	r3, #0	; 0x0
0x0001041c:  0a000005      beq	0x10438							0x0001041c:  0a000005      beq	0x10438

----------------									----------------
IN: strlen										IN: strlen
0x00010420:  e1a03000      mov	r3, r0							0x00010420:  e1a03000      mov	r3, r0
0x00010424:  e5f32001      ldrb	r2, [r3, #1]!						0x00010424:  e5f32001      ldrb	r2, [r3, #1]!
0x00010428:  e3520000      cmp	r2, #0	; 0x0						0x00010428:  e3520000      cmp	r2, #0	; 0x0
0x0001042c:  1afffffc      bne	0x10424							0x0001042c:  1afffffc      bne	0x10424

----------------									----------------
IN: strlen										IN: strlen
0x00010424:  e5f32001      ldrb	r2, [r3, #1]!						0x00010424:  e5f32001      ldrb	r2, [r3, #1]!
0x00010428:  e3520000      cmp	r2, #0	; 0x0						0x00010428:  e3520000      cmp	r2, #0	; 0x0
0x0001042c:  1afffffc      bne	0x10424							0x0001042c:  1afffffc      bne	0x10424

----------------									----------------
IN: strlen										IN: strlen
0x00010430:  e0430000      sub	r0, r3, r0						0x00010430:  e0430000      sub	r0, r3, r0
0x00010434:  e12fff1e      bx	lr							0x00010434:  e12fff1e      bx	lr

----------------									----------------
IN: decrypt_memory									IN: decrypt_memory
0x0000a2e4:  e2800038      add	r0, r0, #56	; 0x38					0x0000a2e4:  e2800038      add	r0, r0, #56	; 0x38
0x0000a2e8:  eb000acd      bl	0xce24							0x0000a2e8:  eb000acd      bl	0xce24

----------------									----------------
IN: decrypt_memory									IN: decrypt_memory
0x0000a2ec:  e5804010      str	r4, [r0, #16]						0x0000a2ec:  e5804010      str	r4, [r0, #16]
0x0000a2f0:  e1a05000      mov	r5, r0							0x0000a2f0:  e1a05000      mov	r5, r0
0x0000a2f4:  e5809000      str	r9, [r0]						0x0000a2f4:  e5809000      str	r9, [r0]
0x0000a2f8:  e1a01004      mov	r1, r4							0x0000a2f8:  e1a01004      mov	r1, r4
0x0000a2fc:  e2800036      add	r0, r0, #54	; 0x36					0x0000a2fc:  e2800036      add	r0, r0, #54	; 0x36
0x0000a300:  eb000b3c      bl	0xcff8							0x0000a300:  eb000b3c      bl	0xcff8

----------------									----------------
IN: strcpy										IN: strcpy
0x0000cff8:  e2400001      sub	r0, r0, #1	; 0x1					0x0000cff8:  e2400001      sub	r0, r0, #1	; 0x1
0x0000cffc:  e4d13001      ldrb	r3, [r1], #1						0x0000cffc:  e4d13001      ldrb	r3, [r1], #1

----------------									----------------
IN: strcpy										IN: strcpy
0x0000d000:  e5e03001      strb	r3, [r0, #1]!						0x0000d000:  e5e03001      strb	r3, [r0, #1]!
0x0000d004:  e3530000      cmp	r3, #0	; 0x0						0x0000d004:  e3530000      cmp	r3, #0	; 0x0
0x0000d008:  1afffffb      bne	0xcffc							0x0000d008:  1afffffb      bne	0xcffc

----------------									----------------
IN: strcpy										IN: strcpy
0x0000cffc:  e4d13001      ldrb	r3, [r1], #1						0x0000cffc:  e4d13001      ldrb	r3, [r1], #1

----------------									----------------
IN: strcpy										IN: strcpy
0x0000d00c:  e12fff1e      bx	lr							0x0000d00c:  e12fff1e      bx	lr

----------------									----------------
IN: decrypt_memory									IN: decrypt_memory
0x0000a304:  e1a00004      mov	r0, r4							0x0000a304:  e1a00004      mov	r0, r4
0x0000a308:  eb000b92      bl	0xd158							0x0000a308:  eb000b92      bl	0xd158

----------------									----------------
IN: xstrdup										IN: xstrdup
0x0000d158:  e92d4010      push	{r4, lr}						0x0000d158:  e92d4010      push	{r4, lr}
0x0000d15c:  ebfffff0      bl	0xd124							0x0000d15c:  ebfffff0      bl	0xd124

----------------									----------------
IN: strdup										IN: strdup
0x0000d124:  e92d4070      push	{r4, r5, r6, lr}					0x0000d124:  e92d4070      push	{r4, r5, r6, lr}
0x0000d128:  e1a06000      mov	r6, r0							0x0000d128:  e1a06000      mov	r6, r0
0x0000d12c:  eb000cb8      bl	0x10414							0x0000d12c:  eb000cb8      bl	0x10414

----------------									----------------
IN: strdup										IN: strdup
0x0000d130:  e2805001      add	r5, r0, #1	; 0x1					0x0000d130:  e2805001      add	r5, r0, #1	; 0x1
0x0000d134:  e1a00005      mov	r0, r5							0x0000d134:  e1a00005      mov	r0, r5
0x0000d138:  ebfffec6      bl	0xcc58							0x0000d138:  ebfffec6      bl	0xcc58

----------------									----------------
IN: strdup										IN: strdup
0x0000d13c:  e2504000      subs	r4, r0, #0	; 0x0					0x0000d13c:  e2504000      subs	r4, r0, #0	; 0x0
0x0000d140:  0a000002      beq	0xd150							0x0000d140:  0a000002      beq	0xd150

----------------									----------------
IN: strdup										IN: strdup
0x0000d144:  e1a02005      mov	r2, r5							0x0000d144:  e1a02005      mov	r2, r5
0x0000d148:  e1a01006      mov	r1, r6							0x0000d148:  e1a01006      mov	r1, r6
0x0000d14c:  ebffff62      bl	0xcedc							0x0000d14c:  ebffff62      bl	0xcedc

----------------									----------------
IN: strdup										IN: strdup
0x0000d150:  e1a00004      mov	r0, r4							0x0000d150:  e1a00004      mov	r0, r4
0x0000d154:  e8bd8070      pop	{r4, r5, r6, pc}					0x0000d154:  e8bd8070      pop	{r4, r5, r6, pc}

----------------									----------------
IN: xstrdup										IN: xstrdup
0x0000d160:  e3500000      cmp	r0, #0	; 0x0						0x0000d160:  e3500000      cmp	r0, #0	; 0x0
0x0000d164:  18bd8010      popne	{r4, pc}					0x0000d164:  18bd8010      popne	{r4, pc}

----------------									----------------
IN: decrypt_memory									IN: decrypt_memory
0x0000a30c:  e59f306c      ldr	r3, [pc, #108]	; 0xa380				0x0000a30c:  e59f306c      ldr	r3, [pc, #108]	; 0xa380
0x0000a310:  e3a01001      mov	r1, #1	; 0x1						0x0000a310:  e3a01001      mov	r1, #1	; 0x1
0x0000a314:  e5860038      str	r0, [r6, #56]						0x0000a314:  e5860038      str	r0, [r6, #56]
0x0000a318:  e1a02004      mov	r2, r4							0x0000a318:  e1a02004      mov	r2, r4
0x0000a31c:  e7983003      ldr	r3, [r8, r3]						0x0000a31c:  e7983003      ldr	r3, [r8, r3]
0x0000a320:  e1a00005      mov	r0, r5							0x0000a320:  e1a00005      mov	r0, r5
0x0000a324:  e586302c      str	r3, [r6, #44]						0x0000a324:  e586302c      str	r3, [r6, #44]
0x0000a328:  e28d300c      add	r3, sp, #12	; 0xc					0x0000a328:  e28d300c      add	r3, sp, #12	; 0xc
0x0000a32c:  e5851008      str	r1, [r5, #8]						0x0000a32c:  e5851008      str	r1, [r5, #8]
0x0000a330:  e5865030      str	r5, [r6, #48]						0x0000a330:  e5865030      str	r5, [r6, #48]
0x0000a334:  e58d3000      str	r3, [sp]						0x0000a334:  e58d3000      str	r3, [sp]
0x0000a338:  e1a03004      mov	r3, r4							0x0000a338:  e1a03004      mov	r3, r4
0x0000a33c:  ebfff7a0      bl	0x81c4							0x0000a33c:  ebfff7a0      bl	0x81c4

----------------									----------------
IN: decrypt_memory									IN: decrypt_memory
0x0000a340:  e1a01004      mov	r1, r4							0x0000a340:  e1a01004      mov	r1, r4
0x0000a344:  e1a02006      mov	r2, r6							0x0000a344:  e1a02006      mov	r2, r6
0x0000a348:  e1a00007      mov	r0, r7							0x0000a348:  e1a00007      mov	r0, r7
0x0000a34c:  eb001ac0      bl	0x10e54							0x0000a34c:  eb001ac0      bl	0x10e54

----------------									----------------
IN: proc_encryption_packets								IN: proc_encryption_packets
0x00010e54:  e92d41f0      push	{r4, r5, r6, r7, r8, lr}				0x00010e54:  e92d41f0      push	{r4, r5, r6, r7, r8, lr}
0x00010e58:  e1a06000      mov	r6, r0							0x00010e58:  e1a06000      mov	r6, r0
0x00010e5c:  e59f0054      ldr	r0, [pc, #84]	; 0x10eb8				0x00010e5c:  e59f0054      ldr	r0, [pc, #84]	; 0x10eb8
0x00010e60:  e1a05002      mov	r5, r2							0x00010e60:  e1a05002      mov	r5, r2
0x00010e64:  e592202c      ldr	r2, [r2, #44]						0x00010e64:  e592202c      ldr	r2, [r2, #44]
0x00010e68:  e1a07001      mov	r7, r1							0x00010e68:  e1a07001      mov	r7, r1
0x00010e6c:  e08f0000      add	r0, pc, r0						0x00010e6c:  e08f0000      add	r0, pc, r0
0x00010e70:  e5d51000      ldrb	r1, [r5]						0x00010e70:  e5d51000      ldrb	r1, [r5]
0x00010e74:  ebfff801      bl	0xee80							0x00010e74:  ebfff801      bl	0xee80

----------------									----------------
IN: proc_encryption_packets								IN: proc_encryption_packets
0x00010e78:  e3a00060      mov	r0, #96	; 0x60						0x00010e78:  e3a00060      mov	r0, #96	; 0x60
0x00010e7c:  ebffeffb      bl	0xce70							0x00010e7c:  ebffeffb      bl	0xce70

----------------									----------------
IN: xmalloc_clear									IN: xmalloc_clear
0x0000ce70:  e92d4070      push	{r4, r5, r6, lr}					0x0000ce70:  e92d4070      push	{r4, r5, r6, lr}
0x0000ce74:  e1a05000      mov	r5, r0							0x0000ce74:  e1a05000      mov	r5, r0
0x0000ce78:  ebffff76      bl	0xcc58							0x0000ce78:  ebffff76      bl	0xcc58

----------------									----------------
IN: xmalloc_clear									IN: xmalloc_clear
0x0000ce7c:  e2504000      subs	r4, r0, #0	; 0x0					0x0000ce7c:  e2504000      subs	r4, r0, #0	; 0x0
0x0000ce80:  0a000002      beq	0xce90							0x0000ce80:  0a000002      beq	0xce90

----------------									----------------
IN: xmalloc_clear									IN: xmalloc_clear
0x0000ce84:  e1a02005      mov	r2, r5							0x0000ce84:  e1a02005      mov	r2, r5
0x0000ce88:  e3a01000      mov	r1, #0	; 0x0						0x0000ce88:  e3a01000      mov	r1, #0	; 0x0
0x0000ce8c:  ebffffdb      bl	0xce00							0x0000ce8c:  ebffffdb      bl	0xce00

----------------									----------------
IN: xmalloc_clear									IN: xmalloc_clear
0x0000ce90:  e1a00004      mov	r0, r4							0x0000ce90:  e1a00004      mov	r0, r4
0x0000ce94:  e8bd8070      pop	{r4, r5, r6, pc}					0x0000ce94:  e8bd8070      pop	{r4, r5, r6, pc}

----------------									----------------
IN: proc_encryption_packets								IN: proc_encryption_packets
0x00010e80:  e5806000      str	r6, [r0]						0x00010e80:  e5806000      str	r6, [r0]
0x00010e84:  e1a04000      mov	r4, r0							0x00010e84:  e1a04000      mov	r4, r0
0x00010e88:  e5807004      str	r7, [r0, #4]						0x00010e88:  e5807004      str	r7, [r0, #4]
0x00010e8c:  e3a03001      mov	r3, #1	; 0x1						0x00010e8c:  e3a03001      mov	r3, #1	; 0x1
0x00010e90:  e5843014      str	r3, [r4, #20]						0x00010e90:  e5843014      str	r3, [r4, #20]
0x00010e94:  e1a02005      mov	r2, r5							0x00010e94:  e1a02005      mov	r2, r5
0x00010e98:  e1a01004      mov	r1, r4							0x00010e98:  e1a01004      mov	r1, r4
0x00010e9c:  e1a00006      mov	r0, r6							0x00010e9c:  e1a00006      mov	r0, r6
0x00010ea0:  ebfffe4a      bl	0x107d0							0x00010ea0:  ebfffe4a      bl	0x107d0

----------------									----------------
IN: do_proc_packets									IN: do_proc_packets
0x000107d0:  e92d4ff0      push	{r4, r5, r6, r7, r8, r9, sl, fp, lr}			0x000107d0:  e92d4ff0      push	{r4, r5, r6, r7, r8, r9, sl, fp, lr}
0x000107d4:  e1a05000      mov	r5, r0							0x000107d4:  e1a05000      mov	r5, r0
0x000107d8:  e59f05a8      ldr	r0, [pc, #1448]	; 0x10d88				0x000107d8:  e59f05a8      ldr	r0, [pc, #1448]	; 0x10d88
0x000107dc:  e24dd044      sub	sp, sp, #68	; 0x44					0x000107dc:  e24dd044      sub	sp, sp, #68	; 0x44
0x000107e0:  e1a04001      mov	r4, r1							0x000107e0:  e1a04001      mov	r4, r1
0x000107e4:  e1a0a002      mov	sl, r2							0x000107e4:  e1a0a002      mov	sl, r2
0x000107e8:  e08f0000      add	r0, pc, r0						0x000107e8:  e08f0000      add	r0, pc, r0
0x000107ec:  e5951020      ldr	r1, [r5, #32]						0x000107ec:  e5951020      ldr	r1, [r5, #32]
0x000107f0:  ebfff9a2      bl	0xee80							0x000107f0:  ebfff9a2      bl	0xee80

----------------									----------------
IN: do_proc_packets									IN: do_proc_packets
0x000107f4:  e595001c      ldr	r0, [r5, #28]						0x000107f4:  e595001c      ldr	r0, [r5, #28]
0x000107f8:  e3500000      cmp	r0, #0	; 0x0						0x000107f8:  e3500000      cmp	r0, #0	; 0x0
0x000107fc:  0a0000cd      beq	0x10b38							0x000107fc:  0a0000cd      beq	0x10b38

----------------									----------------
IN: do_proc_packets									IN: do_proc_packets
0x00010800:  ebffff03      bl	0x10414							0x00010800:  ebffff03      bl	0x10414

----------------									----------------
IN: do_proc_packets									IN: do_proc_packets
0x00010804:  e2806001      add	r6, r0, #1	; 0x1					0x00010804:  e2806001      add	r6, r0, #1	; 0x1
0x00010808:  e1a00006      mov	r0, r6							0x00010808:  e1a00006      mov	r0, r6
0x0001080c:  ebfff111      bl	0xcc58							0x0001080c:  ebfff111      bl	0xcc58

----------------									----------------
IN: do_proc_packets									IN: do_proc_packets
0x00010810:  e5840034      str	r0, [r4, #52]						0x00010810:  e5840034      str	r0, [r4, #52]
0x00010814:  e3500000      cmp	r0, #0	; 0x0						0x00010814:  e3500000      cmp	r0, #0	; 0x0
0x00010818:  0a000002      beq	0x10828							0x00010818:  0a000002      beq	0x10828

----------------									----------------
IN: do_proc_packets									IN: do_proc_packets
0x0001081c:  e595101c      ldr	r1, [r5, #28]						0x0001081c:  e595101c      ldr	r1, [r5, #28]
0x00010820:  e1a02006      mov	r2, r6							0x00010820:  e1a02006      mov	r2, r6
0x00010824:  ebfff1ac      bl	0xcedc							0x00010824:  ebfff1ac      bl	0xcedc

----------------									----------------
IN: do_proc_packets									IN: do_proc_packets
0x00010828:  e5953020      ldr	r3, [r5, #32]						0x00010828:  e5953020      ldr	r3, [r5, #32]
0x0001082c:  e1a06004      mov	r6, r4							0x0001082c:  e1a06004      mov	r6, r4
0x00010830:  e584301c      str	r3, [r4, #28]						0x00010830:  e584301c      str	r3, [r4, #28]
0x00010834:  e3a03000      mov	r3, #0	; 0x0						0x00010834:  e3a03000      mov	r3, #0	; 0x0
0x00010838:  e5966004      ldr	r6, [r6, #4]						0x00010838:  e5966004      ldr	r6, [r6, #4]
0x0001083c:  e2833001      add	r3, r3, #1	; 0x1					0x0001083c:  e2833001      add	r3, r3, #1	; 0x1
0x00010840:  e3560000      cmp	r6, #0	; 0x0						0x00010840:  e3560000      cmp	r6, #0	; 0x0
0x00010844:  1afffffb      bne	0x10838							0x00010844:  1afffffb      bne	0x10838

----------------									----------------
IN: do_proc_packets									IN: do_proc_packets
0x00010848:  e3530020      cmp	r3, #32	; 0x20						0x00010848:  e3530020      cmp	r3, #32	; 0x20
0x0001084c:  ca0000da      bgt	0x10bbc							0x0001084c:  ca0000da      bgt	0x10bbc

----------------									----------------
IN: do_proc_packets									IN: do_proc_packets
0x00010850:  e59f7534      ldr	r7, [pc, #1332]	; 0x10d8c				0x00010850:  e59f7534      ldr	r7, [pc, #1332]	; 0x10d8c
0x00010854:  e3a00008      mov	r0, #8	; 0x8						0x00010854:  e3a00008      mov	r0, #8	; 0x8
0x00010858:  e59f8530      ldr	r8, [pc, #1328]	; 0x10d90				0x00010858:  e59f8530      ldr	r8, [pc, #1328]	; 0x10d90
0x0001085c:  ebfff170      bl	0xce24							0x0001085c:  ebfff170      bl	0xce24

----------------									----------------
IN: do_proc_packets									IN: do_proc_packets
0x00010860:  e59f352c      ldr	r3, [pc, #1324]	; 0x10d94				0x00010860:  e59f352c      ldr	r3, [pc, #1324]	; 0x10d94
0x00010864:  e1a05000      mov	r5, r0							0x00010864:  e1a05000      mov	r5, r0
0x00010868:  e59f9528      ldr	r9, [pc, #1320]	; 0x10d98				0x00010868:  e59f9528      ldr	r9, [pc, #1320]	; 0x10d98
0x0001086c:  e08f3003      add	r3, pc, r3						0x0001086c:  e08f3003      add	r3, pc, r3
0x00010870:  e584a040      str	sl, [r4, #64]						0x00010870:  e584a040      str	sl, [r4, #64]
0x00010874:  e08f7007      add	r7, pc, r7						0x00010874:  e08f7007      add	r7, pc, r7
0x00010878:  e5c06000      strb	r6, [r0]						0x00010878:  e5c06000      strb	r6, [r0]
0x0001087c:  e5806004      str	r6, [r0, #4]						0x0001087c:  e5806004      str	r6, [r0, #4]
0x00010880:  e58da028      str	sl, [sp, #40]						0x00010880:  e58da028      str	sl, [sp, #40]
0x00010884:  e1a0a006      mov	sl, r6							0x00010884:  e1a0a006      mov	sl, r6
0x00010888:  e5cd602c      strb	r6, [sp, #44]						0x00010888:  e5cd602c      strb	r6, [sp, #44]
0x0001088c:  e58d6030      str	r6, [sp, #48]						0x0001088c:  e58d6030      str	r6, [sp, #48]
0x00010890:  e58d6034      str	r6, [sp, #52]						0x00010890:  e58d6034      str	r6, [sp, #52]
0x00010894:  e58d6038      str	r6, [sp, #56]						0x00010894:  e58d6038      str	r6, [sp, #56]
0x00010898:  e58d603c      str	r6, [sp, #60]						0x00010898:  e58d603c      str	r6, [sp, #60]
0x0001089c:  e28d6028      add	r6, sp, #40	; 0x28					0x0001089c:  e28d6028      add	r6, sp, #40	; 0x28
0x000108a0:  e08f8008      add	r8, pc, r8						0x000108a0:  e08f8008      add	r8, pc, r8
0x000108a4:  e08f9009      add	r9, pc, r9						0x000108a4:  e08f9009      add	r9, pc, r9
0x000108a8:  e58d3018      str	r3, [sp, #24]						0x000108a8:  e58d3018      str	r3, [sp, #24]
0x000108ac:  ea00000a      b	0x108dc							0x000108ac:  ea00000a      b	0x108dc

----------------									----------------
IN: do_proc_packets									IN: do_proc_packets
0x000108dc:  e300379e      movw	r3, #1950	; 0x79e					0x000108dc:  e300379e      movw	r3, #1950	; 0x79e
0x000108e0:  e1a02007      mov	r2, r7							0x000108e0:  e1a02007      mov	r2, r7
0x000108e4:  e1a01005      mov	r1, r5							0x000108e4:  e1a01005      mov	r1, r5
0x000108e8:  e1a00006      mov	r0, r6							0x000108e8:  e1a00006      mov	r0, r6
0x000108ec:  ebfff7c6      bl	0xe80c							0x000108ec:  ebfff7c6      bl	0xe80c

----------------									----------------
IN: dbg_parse_packet									IN: dbg_parse_packet
0x0000e80c:  e92d40f0      push	{r4, r5, r6, r7, lr}					0x0000e80c:  e92d40f0      push	{r4, r5, r6, r7, lr}
0x0000e810:  e1a06000      mov	r6, r0							0x0000e810:  e1a06000      mov	r6, r0
0x0000e814:  e59f0058      ldr	r0, [pc, #88]	; 0xe874				0x0000e814:  e59f0058      ldr	r0, [pc, #88]	; 0xe874
0x0000e818:  e24dd01c      sub	sp, sp, #28	; 0x1c					0x0000e818:  e24dd01c      sub	sp, sp, #28	; 0x1c
0x0000e81c:  e28d7014      add	r7, sp, #20	; 0x14					0x0000e81c:  e28d7014      add	r7, sp, #20	; 0x14
0x0000e820:  e3a04000      mov	r4, #0	; 0x0						0x0000e820:  e3a04000      mov	r4, #0	; 0x0
0x0000e824:  e08f0000      add	r0, pc, r0						0x0000e824:  e08f0000      add	r0, pc, r0
0x0000e828:  e1a05001      mov	r5, r1							0x0000e828:  e1a05001      mov	r5, r1
0x0000e82c:  eb000193      bl	0xee80							0x0000e82c:  eb000193      bl	0xee80

----------------									----------------
IN: dbg_parse_packet									IN: dbg_parse_packet
0x0000e830:  e58d4008      str	r4, [sp, #8]						0x0000e830:  e58d4008      str	r4, [sp, #8]
0x0000e834:  e3a03000      mov	r3, #0	; 0x0						0x0000e834:  e3a03000      mov	r3, #0	; 0x0
0x0000e838:  e58d4004      str	r4, [sp, #4]						0x0000e838:  e58d4004      str	r4, [sp, #4]
0x0000e83c:  e1a02003      mov	r2, r3							0x0000e83c:  e1a02003      mov	r2, r3
0x0000e840:  e58d7000      str	r7, [sp]						0x0000e840:  e58d7000      str	r7, [sp]
0x0000e844:  e1a01005      mov	r1, r5							0x0000e844:  e1a01005      mov	r1, r5
0x0000e848:  e1a00006      mov	r0, r6							0x0000e848:  e1a00006      mov	r0, r6
0x0000e84c:  ebfffa46      bl	0xd16c							0x0000e84c:  ebfffa46      bl	0xd16c

----------------									----------------
IN: parse.constprop.0									IN: parse.constprop.0
0x0000d16c:  e92d4ff0      push	{r4, r5, r6, r7, r8, r9, sl, fp, lr}			0x0000d16c:  e92d4ff0      push	{r4, r5, r6, r7, r8, r9, sl, fp, lr}
0x0000d170:  e24dd09c      sub	sp, sp, #156	; 0x9c					0x0000d170:  e24dd09c      sub	sp, sp, #156	; 0x9c
0x0000d174:  e5904000      ldr	r4, [r0]						0x0000d174:  e5904000      ldr	r4, [r0]
0x0000d178:  e2538000      subs	r8, r3, #0	; 0x0					0x0000d178:  e2538000      subs	r8, r3, #0	; 0x0
0x0000d17c:  e58d100c      str	r1, [sp, #12]						0x0000d17c:  e58d100c      str	r1, [sp, #12]
0x0000d180:  e1a07002      mov	r7, r2							0x0000d180:  e1a07002      mov	r7, r2
0x0000d184:  e59d20c0      ldr	r2, [sp, #192]						0x0000d184:  e59d20c0      ldr	r2, [sp, #192]
0x0000d188:  e3a03000      mov	r3, #0	; 0x0						0x0000d188:  e3a03000      mov	r3, #0	; 0x0
0x0000d18c:  e1a06000      mov	r6, r0							0x0000d18c:  e1a06000      mov	r6, r0
0x0000d190:  e5823000      str	r3, [r2]						0x0000d190:  e5823000      str	r3, [r2]
0x0000d194:  0a000007      beq	0xd1b8							0x0000d194:  0a000007      beq	0xd1b8

----------------									----------------
IN: parse.constprop.0									IN: parse.constprop.0
0x0000d1b8:  e5943010      ldr	r3, [r4, #16]						0x0000d1b8:  e5943010      ldr	r3, [r4, #16]
0x0000d1bc:  e3530000      cmp	r3, #0	; 0x0						0x0000d1bc:  e3530000      cmp	r3, #0	; 0x0
0x0000d1c0:  1a000003      bne	0xd1d4							0x0000d1c0:  1a000003      bne	0xd1d4

----------------									----------------
IN: parse.constprop.0									IN: parse.constprop.0
0x0000d1c4:  e5943018      ldr	r3, [r4, #24]						0x0000d1c4:  e5943018      ldr	r3, [r4, #24]
0x0000d1c8:  e594201c      ldr	r2, [r4, #28]						0x0000d1c8:  e594201c      ldr	r2, [r4, #28]
0x0000d1cc:  e1530002      cmp	r3, r2							0x0000d1cc:  e1530002      cmp	r3, r2
0x0000d1d0:  3a000036      bcc	0xd2b0							0x0000d1d0:  3a000036      bcc	0xd2b0

----------------									----------------
IN: parse.constprop.0									IN: parse.constprop.0
0x0000d2b0:  e5942008      ldr	r2, [r4, #8]						0x0000d2b0:  e5942008      ldr	r2, [r4, #8]
0x0000d2b4:  e5941020      ldr	r1, [r4, #32]						0x0000d2b4:  e5941020      ldr	r1, [r4, #32]
0x0000d2b8:  e2822001      add	r2, r2, #1	; 0x1					0x0000d2b8:  e2822001      add	r2, r2, #1	; 0x1
0x0000d2bc:  e5842008      str	r2, [r4, #8]						0x0000d2bc:  e5842008      str	r2, [r4, #8]
0x0000d2c0:  e2832001      add	r2, r3, #1	; 0x1					0x0000d2c0:  e2832001      add	r2, r3, #1	; 0x1
0x0000d2c4:  e5842018      str	r2, [r4, #24]						0x0000d2c4:  e5842018      str	r2, [r4, #24]
0x0000d2c8:  e7d13003      ldrb	r3, [r1, r3]						0x0000d2c8:  e7d13003      ldrb	r3, [r1, r3]
0x0000d2cc:  e5cd302c      strb	r3, [sp, #44]						0x0000d2cc:  e5cd302c      strb	r3, [sp, #44]
0x0000d2d0:  e1a00003      mov	r0, r3							0x0000d2d0:  e1a00003      mov	r0, r3
0x0000d2d4:  e3100080      tst	r0, #128	; 0x80					0x0000d2d4:  e3100080      tst	r0, #128	; 0x80
0x0000d2d8:  1affffc5      bne	0xd1f4							0x0000d2d8:  1affffc5      bne	0xd1f4

----------------									----------------
IN: parse.constprop.0									IN: parse.constprop.0
0x0000d1f4:  e2103040      ands	r3, r0, #64	; 0x40					0x0000d1f4:  e2103040      ands	r3, r0, #64	; 0x40
0x0000d1f8:  e58d3010      str	r3, [sp, #16]						0x0000d1f8:  e58d3010      str	r3, [sp, #16]
0x0000d1fc:  1a00003f      bne	0xd300							0x0000d1fc:  1a00003f      bne	0xd300

----------------									----------------
IN: parse.constprop.0									IN: parse.constprop.0
0x0000d200:  e2003003      and	r3, r0, #3	; 0x3					0x0000d200:  e2003003      and	r3, r0, #3	; 0x3
0x0000d204:  e1a00140      asr	r0, r0, #2						0x0000d204:  e1a00140      asr	r0, r0, #2
0x0000d208:  e3530003      cmp	r3, #3	; 0x3						0x0000d208:  e3530003      cmp	r3, #3	; 0x3
0x0000d20c:  e200800f      and	r8, r0, #15	; 0xf					0x0000d20c:  e200800f      and	r8, r0, #15	; 0xf
0x0000d210:  0a0000c1      beq	0xd51c							0x0000d210:  0a0000c1      beq	0xd51c

----------------									----------------
IN: parse.constprop.0									IN: parse.constprop.0
0x0000d214:  e59d5010      ldr	r5, [sp, #16]						0x0000d214:  e59d5010      ldr	r5, [sp, #16]
0x0000d218:  e3a0a001      mov	sl, #1	; 0x1						0x0000d218:  e3a0a001      mov	sl, #1	; 0x1
0x0000d21c:  e28db02d      add	fp, sp, #45	; 0x2d					0x0000d21c:  e28db02d      add	fp, sp, #45	; 0x2d
0x0000d220:  e1a0331a      lsl	r3, sl, r3						0x0000d220:  e1a0331a      lsl	r3, sl, r3
0x0000d224:  e083900a      add	r9, r3, sl						0x0000d224:  e083900a      add	r9, r3, sl
0x0000d228:  ea00000a      b	0xd258							0x0000d228:  ea00000a      b	0xd258

----------------									----------------
IN: parse.constprop.0									IN: parse.constprop.0
0x0000d258:  e5943010      ldr	r3, [r4, #16]						0x0000d258:  e5943010      ldr	r3, [r4, #16]
0x0000d25c:  e1a00004      mov	r0, r4							0x0000d25c:  e1a00004      mov	r0, r4
0x0000d260:  e1a05405      lsl	r5, r5, #8						0x0000d260:  e1a05405      lsl	r5, r5, #8
0x0000d264:  e3530000      cmp	r3, #0	; 0x0						0x0000d264:  e3530000      cmp	r3, #0	; 0x0
0x0000d268:  1a000004      bne	0xd280							0x0000d268:  1a000004      bne	0xd280

----------------									----------------
IN: parse.constprop.0									IN: parse.constprop.0
0x0000d26c:  e5943018      ldr	r3, [r4, #24]						0x0000d26c:  e5943018      ldr	r3, [r4, #24]
0x0000d270:  e594201c      ldr	r2, [r4, #28]						0x0000d270:  e594201c      ldr	r2, [r4, #28]
0x0000d274:  e1530002      cmp	r3, r2							0x0000d274:  e1530002      cmp	r3, r2
0x0000d278:  e2832001      add	r2, r3, #1	; 0x1					0x0000d278:  e2832001      add	r2, r3, #1	; 0x1
0x0000d27c:  3affffea      bcc	0xd22c							0x0000d27c:  3affffea      bcc	0xd22c

----------------									----------------
IN: parse.constprop.0									IN: parse.constprop.0
0x0000d22c:  e5842018      str	r2, [r4, #24]						0x0000d22c:  e5842018      str	r2, [r4, #24]
0x0000d230:  e5942008      ldr	r2, [r4, #8]						0x0000d230:  e5942008      ldr	r2, [r4, #8]
0x0000d234:  e5941020      ldr	r1, [r4, #32]						0x0000d234:  e5941020      ldr	r1, [r4, #32]
0x0000d238:  e2822001      add	r2, r2, #1	; 0x1					0x0000d238:  e2822001      add	r2, r2, #1	; 0x1
0x0000d23c:  e5842008      str	r2, [r4, #8]						0x0000d23c:  e5842008      str	r2, [r4, #8]
0x0000d240:  e7d10003      ldrb	r0, [r1, r3]						0x0000d240:  e7d10003      ldrb	r0, [r1, r3]
0x0000d244:  e1805005      orr	r5, r0, r5						0x0000d244:  e1805005      orr	r5, r0, r5
0x0000d248:  e28aa001      add	sl, sl, #1	; 0x1					0x0000d248:  e28aa001      add	sl, sl, #1	; 0x1
0x0000d24c:  e159000a      cmp	r9, sl							0x0000d24c:  e159000a      cmp	r9, sl
0x0000d250:  e4cb0001      strb	r0, [fp], #1						0x0000d250:  e4cb0001      strb	r0, [fp], #1
0x0000d254:  0a00003e      beq	0xd354							0x0000d254:  0a00003e      beq	0xd354

----------------									----------------
IN: parse.constprop.0									IN: parse.constprop.0
0x0000d354:  e59d30c4      ldr	r3, [sp, #196]						0x0000d354:  e59d30c4      ldr	r3, [sp, #196]
0x0000d358:  e3530000      cmp	r3, #0	; 0x0						0x0000d358:  e3530000      cmp	r3, #0	; 0x0
0x0000d35c:  13580000      cmpne	r8, #0	; 0x0					0x0000d35c:  13580000      cmpne	r8, #0	; 0x0
0x0000d360:  13a0a001      movne	sl, #1	; 0x1					0x0000d360:  13a0a001      movne	sl, #1	; 0x1
0x0000d364:  03a0a000      moveq	sl, #0	; 0x0					0x0000d364:  03a0a000      moveq	sl, #0	; 0x0
0x0000d368:  1a000061      bne	0xd4f4							0x0000d368:  1a000061      bne	0xd4f4

----------------									----------------
IN: parse.constprop.0									IN: parse.constprop.0
0x0000d36c:  e248b00d      sub	fp, r8, #13	; 0xd					0x0000d36c:  e248b00d      sub	fp, r8, #13	; 0xd
0x0000d370:  e16fbf1b      clz	fp, fp							0x0000d370:  e16fbf1b      clz	fp, fp
0x0000d374:  e1a0b2ab      lsr	fp, fp, #5						0x0000d374:  e1a0b2ab      lsr	fp, fp, #5
0x0000d378:  e3570002      cmp	r7, #2	; 0x2						0x0000d378:  e3570002      cmp	r7, #2	; 0x2
0x0000d37c:  13a03000      movne	r3, #0	; 0x0					0x0000d37c:  13a03000      movne	r3, #0	; 0x0
0x0000d380:  020b3001      andeq	r3, fp, #1	; 0x1				0x0000d380:  020b3001      andeq	r3, fp, #1	; 0x1
0x0000d384:  e3530000      cmp	r3, #0	; 0x0						0x0000d384:  e3530000      cmp	r3, #0	; 0x0
0x0000d388:  1a000093      bne	0xd5dc							0x0000d388:  1a000093      bne	0xd5dc

----------------									----------------
IN: parse.constprop.0									IN: parse.constprop.0
0x0000d38c:  e59d30c8      ldr	r3, [sp, #200]						0x0000d38c:  e59d30c8      ldr	r3, [sp, #200]
0x0000d390:  e2033001      and	r3, r3, #1	; 0x1					0x0000d390:  e2033001      and	r3, r3, #1	; 0x1
0x0000d394:  e3580000      cmp	r8, #0	; 0x0						0x0000d394:  e3580000      cmp	r8, #0	; 0x0
0x0000d398:  03833001      orreq	r3, r3, #1	; 0x1				0x0000d398:  03833001      orreq	r3, r3, #1	; 0x1
0x0000d39c:  e58d3014      str	r3, [sp, #20]						0x0000d39c:  e58d3014      str	r3, [sp, #20]
0x0000d3a0:  e3530000      cmp	r3, #0	; 0x0						0x0000d3a0:  e3530000      cmp	r3, #0	; 0x0
0x0000d3a4:  1a000141      bne	0xd8b0							0x0000d3a4:  1a000141      bne	0xd8b0

----------------									----------------
IN: parse.constprop.0									IN: parse.constprop.0
0x0000d3a8:  e3570000      cmp	r7, #0	; 0x0						0x0000d3a8:  e3570000      cmp	r7, #0	; 0x0
0x0000d3ac:  1358000e      cmpne	r8, #14	; 0xe					0x0000d3ac:  1358000e      cmpne	r8, #14	; 0xe
0x0000d3b0:  0a000002      beq	0xd3c0							0x0000d3b0:  0a000002      beq	0xd3c0

----------------									----------------
IN: parse.constprop.0									IN: parse.constprop.0
0x0000d3c0:  e5963014      ldr	r3, [r6, #20]						0x0000d3c0:  e5963014      ldr	r3, [r6, #20]
0x0000d3c4:  e59f2dc8      ldr	r2, [pc, #3528]	; 0xe194				0x0000d3c4:  e59f2dc8      ldr	r2, [pc, #3528]	; 0xe194
0x0000d3c8:  e59f0dc8      ldr	r0, [pc, #3528]	; 0xe198				0x0000d3c8:  e59f0dc8      ldr	r0, [pc, #3528]	; 0xe198
0x0000d3cc:  e2833001      add	r3, r3, #1	; 0x1					0x0000d3cc:  e2833001      add	r3, r3, #1	; 0x1
0x0000d3d0:  e5863014      str	r3, [r6, #20]						0x0000d3d0:  e5863014      str	r3, [r6, #20]
0x0000d3d4:  e08f2002      add	r2, pc, r2						0x0000d3d4:  e08f2002      add	r2, pc, r2
0x0000d3d8:  e59d300c      ldr	r3, [sp, #12]						0x0000d3d8:  e59d300c      ldr	r3, [sp, #12]
0x0000d3dc:  e7921108      ldr	r1, [r2, r8, lsl #2]					0x0000d3dc:  e7921108      ldr	r1, [r2, r8, lsl #2]
0x0000d3e0:  e1a02008      mov	r2, r8							0x0000d3e0:  e1a02008      mov	r2, r8
0x0000d3e4:  e5c38000      strb	r8, [r3]						0x0000d3e4:  e5c38000      strb	r8, [r3]
0x0000d3e8:  e08f0000      add	r0, pc, r0						0x0000d3e8:  e08f0000      add	r0, pc, r0
0x0000d3ec:  eb0006a3      bl	0xee80							0x0000d3ec:  eb0006a3      bl	0xee80

----------------									----------------
IN: parse.constprop.0									IN: parse.constprop.0
0x0000d3f0:  e59d3010      ldr	r3, [sp, #16]						0x0000d3f0:  e59d3010      ldr	r3, [sp, #16]
0x0000d3f4:  e2482003      sub	r2, r8, #3	; 0x3					0x0000d3f4:  e2482003      sub	r2, r8, #3	; 0x3
0x0000d3f8:  e2533000      subs	r3, r3, #0	; 0x0					0x0000d3f8:  e2533000      subs	r3, r3, #0	; 0x0
0x0000d3fc:  13a03001      movne	r3, #1	; 0x1					0x0000d3fc:  13a03001      movne	r3, #1	; 0x1

----------------									----------------
IN: parse.constprop.0									IN: parse.constprop.0
0x0000d400:  e3520010      cmp	r2, #16	; 0x10						0x0000d400:  e3520010      cmp	r2, #16	; 0x10
0x0000d404:  908ff102      addls	pc, pc, r2, lsl #2				0x0000d404:  908ff102      addls	pc, pc, r2, lsl #2

----------------									----------------
IN: parse.constprop.0									IN: parse.constprop.0
0x0000d40c:  ea000137      b	0xd8f0							0x0000d40c:  ea000137      b	0xd8f0

----------------									----------------
IN: parse.constprop.0									IN: parse.constprop.0
0x0000d8f0:  e3550003      cmp	r5, #3	; 0x3						0x0000d8f0:  e3550003      cmp	r5, #3	; 0x3
0x0000d8f4:  9a000283      bls	0xe308							0x0000d8f4:  9a000283      bls	0xe308

----------------									----------------
IN: parse.constprop.0									IN: parse.constprop.0
0x0000d8f8:  e5943010      ldr	r3, [r4, #16]						0x0000d8f8:  e5943010      ldr	r3, [r4, #16]
0x0000d8fc:  e3530000      cmp	r3, #0	; 0x0						0x0000d8fc:  e3530000      cmp	r3, #0	; 0x0
0x0000d900:  1a0001b0      bne	0xdfc8							0x0000d900:  1a0001b0      bne	0xdfc8

----------------									----------------
IN: parse.constprop.0									IN: parse.constprop.0
0x0000d904:  e5943018      ldr	r3, [r4, #24]						0x0000d904:  e5943018      ldr	r3, [r4, #24]
0x0000d908:  e594201c      ldr	r2, [r4, #28]						0x0000d908:  e594201c      ldr	r2, [r4, #28]
0x0000d90c:  e1530002      cmp	r3, r2							0x0000d90c:  e1530002      cmp	r3, r2
0x0000d910:  2a0001ac      bcs	0xdfc8							0x0000d910:  2a0001ac      bcs	0xdfc8

----------------									----------------
IN: parse.constprop.0									IN: parse.constprop.0
0x0000d914:  e5942008      ldr	r2, [r4, #8]						0x0000d914:  e5942008      ldr	r2, [r4, #8]
0x0000d918:  e5941020      ldr	r1, [r4, #32]						0x0000d918:  e5941020      ldr	r1, [r4, #32]
0x0000d91c:  e2822001      add	r2, r2, #1	; 0x1					0x0000d91c:  e2822001      add	r2, r2, #1	; 0x1
0x0000d920:  e5842008      str	r2, [r4, #8]						0x0000d920:  e5842008      str	r2, [r4, #8]
0x0000d924:  e2832001      add	r2, r3, #1	; 0x1					0x0000d924:  e2832001      add	r2, r3, #1	; 0x1
0x0000d928:  e5842018      str	r2, [r4, #24]						0x0000d928:  e5842018      str	r2, [r4, #24]
0x0000d92c:  e7d1b003      ldrb	fp, [r1, r3]						0x0000d92c:  e7d1b003      ldrb	fp, [r1, r3]
0x0000d930:  e24b3004      sub	r3, fp, #4	; 0x4					0x0000d930:  e24b3004      sub	r3, fp, #4	; 0x4
0x0000d934:  e2457001      sub	r7, r5, #1	; 0x1					0x0000d934:  e2457001      sub	r7, r5, #1	; 0x1
0x0000d938:  e3530001      cmp	r3, #1	; 0x1						0x0000d938:  e3530001      cmp	r3, #1	; 0x1
0x0000d93c:  8a000393      bhi	0xe790							0x0000d93c:  8a000393      bhi	0xe790

----------------									----------------
IN: parse.constprop.0									IN: parse.constprop.0
0x0000d940:  e35700c8      cmp	r7, #200	; 0xc8					0x0000d940:  e35700c8      cmp	r7, #200	; 0xc8
0x0000d944:  8a00039d      bhi	0xe7c0							0x0000d944:  8a00039d      bhi	0xe7c0

----------------									----------------
IN: parse.constprop.0									IN: parse.constprop.0
0x0000d948:  e594a010      ldr	sl, [r4, #16]						0x0000d948:  e594a010      ldr	sl, [r4, #16]
0x0000d94c:  e35a0000      cmp	sl, #0	; 0x0						0x0000d94c:  e35a0000      cmp	sl, #0	; 0x0
0x0000d950:  1a0001e6      bne	0xe0f0							0x0000d950:  1a0001e6      bne	0xe0f0

----------------									----------------
IN: parse.constprop.0									IN: parse.constprop.0
0x0000d954:  e594201c      ldr	r2, [r4, #28]						0x0000d954:  e594201c      ldr	r2, [r4, #28]
0x0000d958:  e5941018      ldr	r1, [r4, #24]						0x0000d958:  e5941018      ldr	r1, [r4, #24]
0x0000d95c:  e1a03002      mov	r3, r2							0x0000d95c:  e1a03002      mov	r3, r2
0x0000d960:  e1510002      cmp	r1, r2							0x0000d960:  e1510002      cmp	r1, r2
0x0000d964:  2a0001e1      bcs	0xe0f0							0x0000d964:  2a0001e1      bcs	0xe0f0

----------------									----------------
IN: parse.constprop.0									IN: parse.constprop.0
0x0000d968:  e5940008      ldr	r0, [r4, #8]						0x0000d968:  e5940008      ldr	r0, [r4, #8]
0x0000d96c:  e35b0005      cmp	fp, #5	; 0x5						0x0000d96c:  e35b0005      cmp	fp, #5	; 0x5
0x0000d970:  e594c020      ldr	ip, [r4, #32]						0x0000d970:  e594c020      ldr	ip, [r4, #32]
0x0000d974:  12458002      subne	r8, r5, #2	; 0x2				0x0000d974:  12458002      subne	r8, r5, #2	; 0x2
0x0000d978:  e2800001      add	r0, r0, #1	; 0x1					0x0000d978:  e2800001      add	r0, r0, #1	; 0x1
0x0000d97c:  e5840008      str	r0, [r4, #8]						0x0000d97c:  e5840008      str	r0, [r4, #8]
0x0000d980:  e2810001      add	r0, r1, #1	; 0x1					0x0000d980:  e2810001      add	r0, r1, #1	; 0x1
0x0000d984:  e5840018      str	r0, [r4, #24]						0x0000d984:  e5840018      str	r0, [r4, #24]
0x0000d988:  e7dc1001      ldrb	r1, [ip, r1]						0x0000d988:  e7dc1001      ldrb	r1, [ip, r1]
0x0000d98c:  e58d1010      str	r1, [sp, #16]						0x0000d98c:  e58d1010      str	r1, [sp, #16]
0x0000d990:  0a000359      beq	0xe6fc							0x0000d990:  0a000359      beq	0xe6fc

----------------									----------------
IN: parse.constprop.0									IN: parse.constprop.0
0x0000d994:  e5941018      ldr	r1, [r4, #24]						0x0000d994:  e5941018      ldr	r1, [r4, #24]
0x0000d998:  e1a03002      mov	r3, r2							0x0000d998:  e1a03002      mov	r3, r2
0x0000d99c:  e1510003      cmp	r1, r3							0x0000d99c:  e1510003      cmp	r1, r3
0x0000d9a0:  2a0001de      bcs	0xe120							0x0000d9a0:  2a0001de      bcs	0xe120

----------------									----------------
IN: parse.constprop.0									IN: parse.constprop.0
0x0000d9a4:  e5942008      ldr	r2, [r4, #8]						0x0000d9a4:  e5942008      ldr	r2, [r4, #8]
0x0000d9a8:  e5940020      ldr	r0, [r4, #32]						0x0000d9a8:  e5940020      ldr	r0, [r4, #32]
0x0000d9ac:  e2822001      add	r2, r2, #1	; 0x1					0x0000d9ac:  e2822001      add	r2, r2, #1	; 0x1
0x0000d9b0:  e5842008      str	r2, [r4, #8]						0x0000d9b0:  e5842008      str	r2, [r4, #8]
0x0000d9b4:  e2812001      add	r2, r1, #1	; 0x1					0x0000d9b4:  e2812001      add	r2, r1, #1	; 0x1
0x0000d9b8:  e5842018      str	r2, [r4, #24]						0x0000d9b8:  e5842018      str	r2, [r4, #24]
0x0000d9bc:  e7d07001      ldrb	r7, [r0, r1]						0x0000d9bc:  e7d07001      ldrb	r7, [r0, r1]
0x0000d9c0:  e1530002      cmp	r3, r2							0x0000d9c0:  e1530002      cmp	r3, r2
0x0000d9c4:  9a0001dc      bls	0xe13c							0x0000d9c4:  9a0001dc      bls	0xe13c

----------------									----------------
IN: parse.constprop.0									IN: parse.constprop.0
0x0000d9c8:  e5943008      ldr	r3, [r4, #8]						0x0000d9c8:  e5943008      ldr	r3, [r4, #8]
0x0000d9cc:  e5941020      ldr	r1, [r4, #32]						0x0000d9cc:  e5941020      ldr	r1, [r4, #32]
0x0000d9d0:  e2833001      add	r3, r3, #1	; 0x1					0x0000d9d0:  e2833001      add	r3, r3, #1	; 0x1
0x0000d9d4:  e5843008      str	r3, [r4, #8]						0x0000d9d4:  e5843008      str	r3, [r4, #8]
0x0000d9d8:  e2823001      add	r3, r2, #1	; 0x1					0x0000d9d8:  e2823001      add	r3, r2, #1	; 0x1
0x0000d9dc:  e5843018      str	r3, [r4, #24]						0x0000d9dc:  e5843018      str	r3, [r4, #24]
0x0000d9e0:  e7d13002      ldrb	r3, [r1, r2]						0x0000d9e0:  e7d13002      ldrb	r3, [r1, r2]
0x0000d9e4:  e58d3018      str	r3, [sp, #24]						0x0000d9e4:  e58d3018      str	r3, [sp, #24]
0x0000d9e8:  e3570001      cmp	r7, #1	; 0x1						0x0000d9e8:  e3570001      cmp	r7, #1	; 0x1
0x0000d9ec:  e2485002      sub	r5, r8, #2	; 0x2					0x0000d9ec:  e2485002      sub	r5, r8, #2	; 0x2
0x0000d9f0:  0a00034e      beq	0xe730							0x0000d9f0:  0a00034e      beq	0xe730

----------------									----------------
IN: parse.constprop.0									IN: parse.constprop.0
0x0000d9f4:  e3570003      cmp	r7, #3	; 0x3						0x0000d9f4:  e3570003      cmp	r7, #3	; 0x3
0x0000d9f8:  0a000273      beq	0xe3cc							0x0000d9f8:  0a000273      beq	0xe3cc

----------------									----------------
IN: parse.constprop.0									IN: parse.constprop.0
0x0000e3cc:  e3a03009      mov	r3, #9	; 0x9						0x0000e3cc:  e3a03009      mov	r3, #9	; 0x9
0x0000e3d0:  e1550003      cmp	r5, r3							0x0000e3d0:  e1550003      cmp	r5, r3
0x0000e3d4:  3a0000f4      bcc	0xe7ac							0x0000e3d4:  3a0000f4      bcc	0xe7ac

----------------									----------------
IN: parse.constprop.0									IN: parse.constprop.0
0x0000e3d8:  e0453003      sub	r3, r5, r3						0x0000e3d8:  e0453003      sub	r3, r5, r3
0x0000e3dc:  e2472003      sub	r2, r7, #3	; 0x3					0x0000e3dc:  e2472003      sub	r2, r7, #3	; 0x3
0x0000e3e0:  e16f2f12      clz	r2, r2							0x0000e3e0:  e16f2f12      clz	r2, r2
0x0000e3e4:  e283001b      add	r0, r3, #27	; 0x1b					0x0000e3e4:  e283001b      add	r0, r3, #27	; 0x1b
0x0000e3e8:  e58d3020      str	r3, [sp, #32]						0x0000e3e8:  e58d3020      str	r3, [sp, #32]
0x0000e3ec:  e1a022a2      lsr	r2, r2, #5						0x0000e3ec:  e1a022a2      lsr	r2, r2, #5
0x0000e3f0:  e58d2014      str	r2, [sp, #20]						0x0000e3f0:  e58d2014      str	r2, [sp, #20]
0x0000e3f4:  ebfffa9d      bl	0xce70							0x0000e3f4:  ebfffa9d      bl	0xce70

----------------									----------------
IN: parse.constprop.0									IN: parse.constprop.0
0x0000e3f8:  e59d100c      ldr	r1, [sp, #12]						0x0000e3f8:  e59d100c      ldr	r1, [sp, #12]
0x0000e3fc:  e3c73002      bic	r3, r7, #2	; 0x2					0x0000e3fc:  e3c73002      bic	r3, r7, #2	; 0x2

----------------									----------------
IN: parse.constprop.0									IN: parse.constprop.0
0x0000e400:  e5810004      str	r0, [r1, #4]						0x0000e400:  e5810004      str	r0, [r1, #4]
0x0000e404:  e3530001      cmp	r3, #1	; 0x1						0x0000e404:  e3530001      cmp	r3, #1	; 0x1
0x0000e408:  e59d1010      ldr	r1, [sp, #16]						0x0000e408:  e59d1010      ldr	r1, [sp, #16]
0x0000e40c:  e59d2020      ldr	r2, [sp, #32]						0x0000e40c:  e59d2020      ldr	r2, [sp, #32]
0x0000e410:  e5c01001      strb	r1, [r0, #1]						0x0000e410:  e5c01001      strb	r1, [r0, #1]
0x0000e414:  e59d1018      ldr	r1, [sp, #24]						0x0000e414:  e59d1018      ldr	r1, [sp, #24]
0x0000e418:  e58d001c      str	r0, [sp, #28]						0x0000e418:  e58d001c      str	r0, [sp, #28]
0x0000e41c:  e5c0b000      strb	fp, [r0]						0x0000e41c:  e5c0b000      strb	fp, [r0]
0x0000e420:  e5c0a002      strb	sl, [r0, #2]						0x0000e420:  e5c0a002      strb	sl, [r0, #2]
0x0000e424:  e5807004      str	r7, [r0, #4]						0x0000e424:  e5807004      str	r7, [r0, #4]
0x0000e428:  e5c01008      strb	r1, [r0, #8]						0x0000e428:  e5c01008      strb	r1, [r0, #8]
0x0000e42c:  e58d200c      str	r2, [sp, #12]						0x0000e42c:  e58d200c      str	r2, [sp, #12]
0x0000e430:  1a000032      bne	0xe500							0x0000e430:  1a000032      bne	0xe500

----------------									----------------
IN: parse.constprop.0									IN: parse.constprop.0
0x0000e434:  e58d6024      str	r6, [sp, #36]						0x0000e434:  e58d6024      str	r6, [sp, #36]
0x0000e438:  e2802008      add	r2, r0, #8	; 0x8					0x0000e438:  e2802008      add	r2, r0, #8	; 0x8
0x0000e43c:  e1a06005      mov	r6, r5							0x0000e43c:  e1a06005      mov	r6, r5
0x0000e440:  e1a05002      mov	r5, r2							0x0000e440:  e1a05002      mov	r5, r2
0x0000e444:  ea000013      b	0xe498							0x0000e444:  ea000013      b	0xe498

----------------									----------------
IN: parse.constprop.0									IN: parse.constprop.0
0x0000e498:  e5943010      ldr	r3, [r4, #16]						0x0000e498:  e5943010      ldr	r3, [r4, #16]
0x0000e49c:  e1a00004      mov	r0, r4							0x0000e49c:  e1a00004      mov	r0, r4
0x0000e4a0:  e3530000      cmp	r3, #0	; 0x0						0x0000e4a0:  e3530000      cmp	r3, #0	; 0x0
0x0000e4a4:  1a000004      bne	0xe4bc							0x0000e4a4:  1a000004      bne	0xe4bc

----------------									----------------
IN: parse.constprop.0									IN: parse.constprop.0
0x0000e4a8:  e5943018      ldr	r3, [r4, #24]						0x0000e4a8:  e5943018      ldr	r3, [r4, #24]
0x0000e4ac:  e594101c      ldr	r1, [r4, #28]						0x0000e4ac:  e594101c      ldr	r1, [r4, #28]
0x0000e4b0:  e1530001      cmp	r3, r1							0x0000e4b0:  e1530001      cmp	r3, r1
0x0000e4b4:  e2831001      add	r1, r3, #1	; 0x1					0x0000e4b4:  e2831001      add	r1, r3, #1	; 0x1
0x0000e4b8:  3affffe2      bcc	0xe448							0x0000e4b8:  3affffe2      bcc	0xe448

----------------									----------------
IN: parse.constprop.0									IN: parse.constprop.0
0x0000e448:  e5841018      str	r1, [r4, #24]						0x0000e448:  e5841018      str	r1, [r4, #24]
0x0000e44c:  e5941008      ldr	r1, [r4, #8]						0x0000e44c:  e5941008      ldr	r1, [r4, #8]
0x0000e450:  e5940020      ldr	r0, [r4, #32]						0x0000e450:  e5940020      ldr	r0, [r4, #32]
0x0000e454:  e2811001      add	r1, r1, #1	; 0x1					0x0000e454:  e2811001      add	r1, r1, #1	; 0x1
0x0000e458:  e5841008      str	r1, [r4, #8]						0x0000e458:  e5841008      str	r1, [r4, #8]
0x0000e45c:  e7d03003      ldrb	r3, [r0, r3]						0x0000e45c:  e7d03003      ldrb	r3, [r0, r3]
0x0000e460:  e5e53001      strb	r3, [r5, #1]!						0x0000e460:  e5e53001      strb	r3, [r5, #1]!
0x0000e464:  e30f3ffe      movw	r3, #65534	; 0xfffe				0x0000e464:  e30f3ffe      movw	r3, #65534	; 0xfffe
0x0000e468:  e34f3fff      movt	r3, #65535	; 0xffff				0x0000e468:  e34f3fff      movt	r3, #65535	; 0xffff
0x0000e46c:  e2461001      sub	r1, r6, #1	; 0x1					0x0000e46c:  e2461001      sub	r1, r6, #1	; 0x1
0x0000e470:  e0433001      sub	r3, r3, r1						0x0000e470:  e0433001      sub	r3, r3, r1
0x0000e474:  e0833008      add	r3, r3, r8						0x0000e474:  e0833008      add	r3, r3, r8
0x0000e478:  e3530007      cmp	r3, #7	; 0x7						0x0000e478:  e3530007      cmp	r3, #7	; 0x7
0x0000e47c:  c3a03000      movgt	r3, #0	; 0x0					0x0000e47c:  c3a03000      movgt	r3, #0	; 0x0
0x0000e480:  d3a03001      movle	r3, #1	; 0x1					0x0000e480:  d3a03001      movle	r3, #1	; 0x1
0x0000e484:  e3510000      cmp	r1, #0	; 0x0						0x0000e484:  e3510000      cmp	r1, #0	; 0x0
0x0000e488:  03a03000      moveq	r3, #0	; 0x0					0x0000e488:  03a03000      moveq	r3, #0	; 0x0
0x0000e48c:  e3530000      cmp	r3, #0	; 0x0						0x0000e48c:  e3530000      cmp	r3, #0	; 0x0
0x0000e490:  0a000064      beq	0xe628							0x0000e490:  0a000064      beq	0xe628

----------------									----------------
IN: parse.constprop.0									IN: parse.constprop.0
0x0000e494:  e1a06001      mov	r6, r1							0x0000e494:  e1a06001      mov	r6, r1
0x0000e498:  e5943010      ldr	r3, [r4, #16]						0x0000e498:  e5943010      ldr	r3, [r4, #16]
0x0000e49c:  e1a00004      mov	r0, r4							0x0000e49c:  e1a00004      mov	r0, r4
0x0000e4a0:  e3530000      cmp	r3, #0	; 0x0						0x0000e4a0:  e3530000      cmp	r3, #0	; 0x0
0x0000e4a4:  1a000004      bne	0xe4bc							0x0000e4a4:  1a000004      bne	0xe4bc

----------------									----------------
IN: parse.constprop.0									IN: parse.constprop.0
0x0000e628:  e58d3014      str	r3, [sp, #20]						0x0000e628:  e58d3014      str	r3, [sp, #20]
0x0000e62c:  e3570003      cmp	r7, #3	; 0x3						0x0000e62c:  e3570003      cmp	r7, #3	; 0x3
0x0000e630:  e1a05006      mov	r5, r6							0x0000e630:  e1a05006      mov	r5, r6
0x0000e634:  11a05001      movne	r5, r1						0x0000e634:  11a05001      movne	r5, r1
0x0000e638:  e59d6024      ldr	r6, [sp, #36]						0x0000e638:  e59d6024      ldr	r6, [sp, #36]
0x0000e63c:  1affffaf      bne	0xe500							0x0000e63c:  1affffaf      bne	0xe500

----------------									----------------
IN: parse.constprop.0									IN: parse.constprop.0
0x0000e640:  e5943010      ldr	r3, [r4, #16]						0x0000e640:  e5943010      ldr	r3, [r4, #16]
0x0000e644:  e3530000      cmp	r3, #0	; 0x0						0x0000e644:  e3530000      cmp	r3, #0	; 0x0
0x0000e648:  1a000069      bne	0xe7f4							0x0000e648:  1a000069      bne	0xe7f4

----------------									----------------
IN: parse.constprop.0									IN: parse.constprop.0
0x0000e64c:  e5943018      ldr	r3, [r4, #24]						0x0000e64c:  e5943018      ldr	r3, [r4, #24]
0x0000e650:  e594201c      ldr	r2, [r4, #28]						0x0000e650:  e594201c      ldr	r2, [r4, #28]
0x0000e654:  e1530002      cmp	r3, r2							0x0000e654:  e1530002      cmp	r3, r2
0x0000e658:  2a000065      bcs	0xe7f4							0x0000e658:  2a000065      bcs	0xe7f4

----------------									----------------
IN: parse.constprop.0									IN: parse.constprop.0
0x0000e65c:  e5942008      ldr	r2, [r4, #8]						0x0000e65c:  e5942008      ldr	r2, [r4, #8]
0x0000e660:  e5941020      ldr	r1, [r4, #32]						0x0000e660:  e5941020      ldr	r1, [r4, #32]
0x0000e664:  e2822001      add	r2, r2, #1	; 0x1					0x0000e664:  e2822001      add	r2, r2, #1	; 0x1
0x0000e668:  e5842008      str	r2, [r4, #8]						0x0000e668:  e5842008      str	r2, [r4, #8]
0x0000e66c:  e2832001      add	r2, r3, #1	; 0x1					0x0000e66c:  e2832001      add	r2, r3, #1	; 0x1
0x0000e670:  e5842018      str	r2, [r4, #24]						0x0000e670:  e5842018      str	r2, [r4, #24]
0x0000e674:  e7d13003      ldrb	r3, [r1, r3]						0x0000e674:  e7d13003      ldrb	r3, [r1, r3]
0x0000e678:  e59d201c      ldr	r2, [sp, #28]						0x0000e678:  e59d201c      ldr	r2, [sp, #28]
0x0000e67c:  e2455002      sub	r5, r5, #2	; 0x2					0x0000e67c:  e2455002      sub	r5, r5, #2	; 0x2
0x0000e680:  e5823014      str	r3, [r2, #20]						0x0000e680:  e5823014      str	r3, [r2, #20]
0x0000e684:  e3a03001      mov	r3, #1	; 0x1						0x0000e684:  e3a03001      mov	r3, #1	; 0x1
0x0000e688:  e58d3014      str	r3, [sp, #20]						0x0000e688:  e58d3014      str	r3, [sp, #20]
0x0000e68c:  eaffff9b      b	0xe500							0x0000e68c:  eaffff9b      b	0xe500

----------------									----------------
IN: parse.constprop.0									IN: parse.constprop.0
0x0000e500:  e5dd3020      ldrb	r3, [sp, #32]						0x0000e500:  e5dd3020      ldrb	r3, [sp, #32]
0x0000e504:  e59d201c      ldr	r2, [sp, #28]						0x0000e504:  e59d201c      ldr	r2, [sp, #28]
0x0000e508:  e3530000      cmp	r3, #0	; 0x0						0x0000e508:  e3530000      cmp	r3, #0	; 0x0
0x0000e50c:  e5c23018      strb	r3, [r2, #24]						0x0000e50c:  e5c23018      strb	r3, [r2, #24]
0x0000e510:  0a00002a      beq	0xe5c0							0x0000e510:  0a00002a      beq	0xe5c0

----------------									----------------
IN: parse.constprop.0									IN: parse.constprop.0
0x0000e5c0:  e59d3018      ldr	r3, [sp, #24]						0x0000e5c0:  e59d3018      ldr	r3, [sp, #24]
0x0000e5c4:  e1a0100b      mov	r1, fp							0x0000e5c4:  e1a0100b      mov	r1, fp
0x0000e5c8:  e51f0394      ldr	r0, [pc, #-916]	; 0xe23c				0x0000e5c8:  e51f0394      ldr	r0, [pc, #-916]	; 0xe23c
0x0000e5cc:  e58d3004      str	r3, [sp, #4]						0x0000e5cc:  e58d3004      str	r3, [sp, #4]
0x0000e5d0:  e1a0300a      mov	r3, sl							0x0000e5d0:  e1a0300a      mov	r3, sl
0x0000e5d4:  e08f0000      add	r0, pc, r0						0x0000e5d4:  e08f0000      add	r0, pc, r0
0x0000e5d8:  e59d2010      ldr	r2, [sp, #16]						0x0000e5d8:  e59d2010      ldr	r2, [sp, #16]
0x0000e5dc:  e58d7000      str	r7, [sp]						0x0000e5dc:  e58d7000      str	r7, [sp]
0x0000e5e0:  eb000226      bl	0xee80							0x0000e5e0:  eb000226      bl	0xee80

----------------									----------------
IN: parse.constprop.0									IN: parse.constprop.0
0x0000e5e4:  e59d300c      ldr	r3, [sp, #12]						0x0000e5e4:  e59d300c      ldr	r3, [sp, #12]
0x0000e5e8:  e3530000      cmp	r3, #0	; 0x0						0x0000e5e8:  e3530000      cmp	r3, #0	; 0x0
0x0000e5ec:  1a000036      bne	0xe6cc							0x0000e5ec:  1a000036      bne	0xe6cc

----------------									----------------
IN: parse.constprop.0									IN: parse.constprop.0
0x0000e5f0:  e59d3014      ldr	r3, [sp, #20]						0x0000e5f0:  e59d3014      ldr	r3, [sp, #20]
0x0000e5f4:  e3530000      cmp	r3, #0	; 0x0						0x0000e5f4:  e3530000      cmp	r3, #0	; 0x0
0x0000e5f8:  0afffd05      beq	0xda14							0x0000e5f8:  0afffd05      beq	0xda14

----------------									----------------
IN: parse.constprop.0									IN: parse.constprop.0
0x0000e5fc:  e59d301c      ldr	r3, [sp, #28]						0x0000e5fc:  e59d301c      ldr	r3, [sp, #28]
0x0000e600:  e51f03c8      ldr	r0, [pc, #-968]	; 0xe240				0x0000e600:  e51f03c8      ldr	r0, [pc, #-968]	; 0xe240
0x0000e604:  e5932014      ldr	r2, [r3, #20]						0x0000e604:  e5932014      ldr	r2, [r3, #20]
0x0000e608:  e08f0000      add	r0, pc, r0						0x0000e608:  e08f0000      add	r0, pc, r0
0x0000e60c:  e1a03222      lsr	r3, r2, #4						0x0000e60c:  e1a03222      lsr	r3, r2, #4
0x0000e610:  e202100f      and	r1, r2, #15	; 0xf					0x0000e610:  e202100f      and	r1, r2, #15	; 0xf
0x0000e614:  e2833006      add	r3, r3, #6	; 0x6					0x0000e614:  e2833006      add	r3, r3, #6	; 0x6
0x0000e618:  e2811010      add	r1, r1, #16	; 0x10					0x0000e618:  e2811010      add	r1, r1, #16	; 0x10
0x0000e61c:  e1a01311      lsl	r1, r1, r3						0x0000e61c:  e1a01311      lsl	r1, r1, r3
0x0000e620:  eb000216      bl	0xee80							0x0000e620:  eb000216      bl	0xee80

----------------									----------------
IN: tfp_format										IN: tfp_format
0x0000eb68:  e4d42001      ldrb	r2, [r4], #1						0x0000eb68:  e4d42001      ldrb	r2, [r4], #1
0x0000eb6c:  e352007a      cmp	r2, #122	; 0x7a					0x0000eb6c:  e352007a      cmp	r2, #122	; 0x7a
0x0000eb70:  8affffb0      bhi	0xea38							0x0000eb70:  8affffb0      bhi	0xea38

----------------									----------------
IN: tfp_format										IN: tfp_format
0x0000eb74:  e3520057      cmp	r2, #87	; 0x57						0x0000eb74:  e3520057      cmp	r2, #87	; 0x57
0x0000eb78:  9affffed      bls	0xeb34							0x0000eb78:  9affffed      bls	0xeb34

----------------									----------------
IN: tfp_format										IN: tfp_format
0x0000eb7c:  e2423058      sub	r3, r2, #88	; 0x58					0x0000eb7c:  e2423058      sub	r3, r2, #88	; 0x58
0x0000eb80:  e3530022      cmp	r3, #34	; 0x22						0x0000eb80:  e3530022      cmp	r3, #34	; 0x22
0x0000eb84:  908ff103      addls	pc, pc, r3, lsl #2				0x0000eb84:  908ff103      addls	pc, pc, r3, lsl #2

----------------									----------------
IN: tfp_format										IN: tfp_format
0x0000ec00:  ea000089      b	0xee2c							0x0000ec00:  ea000089      b	0xee2c

----------------									----------------
IN: tfp_format										IN: tfp_format
0x0000ee2c:  e49a0004      ldr	r0, [sl], #4						0x0000ee2c:  e49a0004      ldr	r0, [sl], #4
0x0000ee30:  e1a0300b      mov	r3, fp							0x0000ee30:  e1a0300b      mov	r3, fp
0x0000ee34:  e3a02000      mov	r2, #0	; 0x0						0x0000ee34:  e3a02000      mov	r2, #0	; 0x0
0x0000ee38:  e3a0100a      mov	r1, #10	; 0xa						0x0000ee38:  e3a0100a      mov	r1, #10	; 0xa
0x0000ee3c:  ebfffe8d      bl	0xe878							0x0000ee3c:  ebfffe8d      bl	0xe878

----------------									----------------
IN: tfp_format										IN: tfp_format
0x0000ee40:  eaffff92      b	0xec90							0x0000ee40:  eaffff92      b	0xec90

----------------									----------------
IN: parse.constprop.0									IN: parse.constprop.0
0x0000e624:  eafffcfa      b	0xda14							0x0000e624:  eafffcfa      b	0xda14

----------------									----------------
IN: parse.constprop.0									IN: parse.constprop.0
0x0000da14:  e1a01005      mov	r1, r5							0x0000da14:  e1a01005      mov	r1, r5
0x0000da18:  e1a00004      mov	r0, r4							0x0000da18:  e1a00004      mov	r0, r4
0x0000da1c:  e3a02000      mov	r2, #0	; 0x0						0x0000da1c:  e3a02000      mov	r2, #0	; 0x0
0x0000da20:  ebfff17b      bl	0xa014							0x0000da20:  ebfff17b      bl	0xa014

----------------									----------------
IN: iobuf_skip_rest									IN: iobuf_skip_rest
0x0000a014:  e3520000      cmp	r2, #0	; 0x0						0x0000a014:  e3520000      cmp	r2, #0	; 0x0
0x0000a018:  e92d4070      push	{r4, r5, r6, lr}					0x0000a018:  e92d4070      push	{r4, r5, r6, lr}
0x0000a01c:  e1a04000      mov	r4, r0							0x0000a01c:  e1a04000      mov	r4, r0
0x0000a020:  1a000031      bne	0xa0ec							0x0000a020:  1a000031      bne	0xa0ec

----------------									----------------
IN: iobuf_skip_rest									IN: iobuf_skip_rest
0x0000a024:  e3510000      cmp	r1, #0	; 0x0						0x0000a024:  e3510000      cmp	r1, #0	; 0x0
0x0000a028:  e1a05001      mov	r5, r1							0x0000a028:  e1a05001      mov	r5, r1
0x0000a02c:  08bd8070      popeq	{r4, r5, r6, pc}				0x0000a02c:  08bd8070      popeq	{r4, r5, r6, pc}

----------------									----------------
IN: parse.constprop.0									IN: parse.constprop.0
0x0000da24:  e1a01006      mov	r1, r6							0x0000da24:  e1a01006      mov	r1, r6
0x0000da28:  e3a00000      mov	r0, #0	; 0x0						0x0000da28:  e3a00000      mov	r0, #0	; 0x0
0x0000da2c:  ebfff3c9      bl	0xa958							0x0000da2c:  ebfff3c9      bl	0xa958

----------------									----------------
IN: free_packet.localalias								IN: free_packet.localalias
0x0000a958:  e3500000      cmp	r0, #0	; 0x0						0x0000a958:  e3500000      cmp	r0, #0	; 0x0
0x0000a95c:  e92d4010      push	{r4, lr}						0x0000a95c:  e92d4010      push	{r4, lr}
0x0000a960:  e1a04001      mov	r4, r1							0x0000a960:  e1a04001      mov	r4, r1
0x0000a964:  0a000007      beq	0xa988							0x0000a964:  0a000007      beq	0xa988

----------------									----------------
IN: free_packet.localalias								IN: free_packet.localalias
0x0000a988:  e3540000      cmp	r4, #0	; 0x0						0x0000a988:  e3540000      cmp	r4, #0	; 0x0
0x0000a98c:  08bd8010      popeq	{r4, pc}					0x0000a98c:  08bd8010      popeq	{r4, pc}

----------------									----------------
IN: free_packet.localalias								IN: free_packet.localalias
0x0000a990:  e5943008      ldr	r3, [r4, #8]						0x0000a990:  e5943008      ldr	r3, [r4, #8]
0x0000a994:  e3530000      cmp	r3, #0	; 0x0						0x0000a994:  e3530000      cmp	r3, #0	; 0x0
0x0000a998:  08bd8010      popeq	{r4, pc}					0x0000a998:  08bd8010      popeq	{r4, pc}

----------------									----------------
IN: parse.constprop.0									IN: parse.constprop.0
0x0000da30:  e59f07d0      ldr	r0, [pc, #2000]	; 0xe208				0x0000da30:  e59f07d0      ldr	r0, [pc, #2000]	; 0xe208
0x0000da34:  e1a01009      mov	r1, r9							0x0000da34:  e1a01009      mov	r1, r9
0x0000da38:  e08f0000      add	r0, pc, r0						0x0000da38:  e08f0000      add	r0, pc, r0
0x0000da3c:  eb00050f      bl	0xee80							0x0000da3c:  eb00050f      bl	0xee80

----------------									----------------
IN: parse.constprop.0									IN: parse.constprop.0
0x0000da40:  e1a01009      mov	r1, r9							0x0000da40:  e1a01009      mov	r1, r9
0x0000da44:  e28d002c      add	r0, sp, #44	; 0x2c					0x0000da44:  e28d002c      add	r0, sp, #44	; 0x2c
0x0000da48:  ebfff1ab      bl	0xa0fc							0x0000da48:  ebfff1ab      bl	0xa0fc

----------------									----------------
IN: log_hexdump										IN: log_hexdump
0x0000a0fc:  e92d4ff0      push	{r4, r5, r6, r7, r8, r9, sl, fp, lr}			0x0000a0fc:  e92d4ff0      push	{r4, r5, r6, r7, r8, r9, sl, fp, lr}
0x0000a100:  e1a06000      mov	r6, r0							0x0000a100:  e1a06000      mov	r6, r0
0x0000a104:  e59f013c      ldr	r0, [pc, #316]	; 0xa248				0x0000a104:  e59f013c      ldr	r0, [pc, #316]	; 0xa248
0x0000a108:  e1a07001      mov	r7, r1							0x0000a108:  e1a07001      mov	r7, r1
0x0000a10c:  e24dd02c      sub	sp, sp, #44	; 0x2c					0x0000a10c:  e24dd02c      sub	sp, sp, #44	; 0x2c
0x0000a110:  e08f0000      add	r0, pc, r0						0x0000a110:  e08f0000      add	r0, pc, r0
0x0000a114:  eb001359      bl	0xee80							0x0000a114:  eb001359      bl	0xee80

----------------									----------------
IN: log_hexdump										IN: log_hexdump
0x0000a118:  e3570000      cmp	r7, #0	; 0x0						0x0000a118:  e3570000      cmp	r7, #0	; 0x0
0x0000a11c:  da000041      ble	0xa228							0x0000a11c:  da000041      ble	0xa228

----------------									----------------
IN: log_hexdump										IN: log_hexdump
0x0000a120:  e59f3124      ldr	r3, [pc, #292]	; 0xa24c				0x0000a120:  e59f3124      ldr	r3, [pc, #292]	; 0xa24c
0x0000a124:  e3a0a000      mov	sl, #0	; 0x0						0x0000a124:  e3a0a000      mov	sl, #0	; 0x0
0x0000a128:  e59f9120      ldr	r9, [pc, #288]	; 0xa250				0x0000a128:  e59f9120      ldr	r9, [pc, #288]	; 0xa250
0x0000a12c:  e59f8120      ldr	r8, [pc, #288]	; 0xa254				0x0000a12c:  e59f8120      ldr	r8, [pc, #288]	; 0xa254
0x0000a130:  e59f5120      ldr	r5, [pc, #288]	; 0xa258				0x0000a130:  e59f5120      ldr	r5, [pc, #288]	; 0xa258
0x0000a134:  e08f3003      add	r3, pc, r3						0x0000a134:  e08f3003      add	r3, pc, r3
0x0000a138:  e58d3004      str	r3, [sp, #4]						0x0000a138:  e58d3004      str	r3, [sp, #4]
0x0000a13c:  e28d3013      add	r3, sp, #19	; 0x13					0x0000a13c:  e28d3013      add	r3, sp, #19	; 0x13
0x0000a140:  e08f9009      add	r9, pc, r9						0x0000a140:  e08f9009      add	r9, pc, r9
0x0000a144:  e08f8008      add	r8, pc, r8						0x0000a144:  e08f8008      add	r8, pc, r8
0x0000a148:  e08f5005      add	r5, pc, r5						0x0000a148:  e08f5005      add	r5, pc, r5
0x0000a14c:  e58d3008      str	r3, [sp, #8]						0x0000a14c:  e58d3008      str	r3, [sp, #8]
0x0000a150:  e28d3014      add	r3, sp, #20	; 0x14					0x0000a150:  e28d3014      add	r3, sp, #20	; 0x14
0x0000a154:  e58d300c      str	r3, [sp, #12]						0x0000a154:  e58d300c      str	r3, [sp, #12]
0x0000a158:  e59d0004      ldr	r0, [sp, #4]						0x0000a158:  e59d0004      ldr	r0, [sp, #4]
0x0000a15c:  e3570010      cmp	r7, #16	; 0x10						0x0000a15c:  e3570010      cmp	r7, #16	; 0x10
0x0000a160:  e1a0100a      mov	r1, sl							0x0000a160:  e1a0100a      mov	r1, sl
0x0000a164:  e3a0b000      mov	fp, #0	; 0x0						0x0000a164:  e3a0b000      mov	fp, #0	; 0x0
0x0000a168:  b1a04007      movlt	r4, r7						0x0000a168:  b1a04007      movlt	r4, r7
0x0000a16c:  a3a04010      movge	r4, #16	; 0x10					0x0000a16c:  a3a04010      movge	r4, #16	; 0x10
0x0000a170:  eb001342      bl	0xee80							0x0000a170:  eb001342      bl	0xee80

----------------									----------------
IN: tfp_format										IN: tfp_format
0x0000eb34:  e3520000      cmp	r2, #0	; 0x0						0x0000eb34:  e3520000      cmp	r2, #0	; 0x0
0x0000eb38:  0a000008      beq	0xeb60							0x0000eb38:  0a000008      beq	0xeb60

----------------									----------------
IN: tfp_format										IN: tfp_format
0x0000eb3c:  e3520025      cmp	r2, #37	; 0x25						0x0000eb3c:  e3520025      cmp	r2, #37	; 0x25
0x0000eb40:  1affffbc      bne	0xea38							0x0000eb40:  1affffbc      bne	0xea38

----------------									----------------
IN: log_hexdump										IN: log_hexdump
0x0000a174:  ea000006      b	0xa194							0x0000a174:  ea000006      b	0xa194

----------------									----------------
IN: log_hexdump										IN: log_hexdump
0x0000a194:  e31b0001      tst	fp, #1	; 0x1						0x0000a194:  e31b0001      tst	fp, #1	; 0x1
0x0000a198:  0a000027      beq	0xa23c							0x0000a198:  0a000027      beq	0xa23c

----------------									----------------
IN: log_hexdump										IN: log_hexdump
0x0000a23c:  e1a00009      mov	r0, r9							0x0000a23c:  e1a00009      mov	r0, r9
0x0000a240:  eb00130e      bl	0xee80							0x0000a240:  eb00130e      bl	0xee80

----------------									----------------
IN: log_hexdump										IN: log_hexdump
0x0000a244:  eaffffd4      b	0xa19c							0x0000a244:  eaffffd4      b	0xa19c

----------------									----------------
IN: log_hexdump										IN: log_hexdump
0x0000a19c:  e31b0007      tst	fp, #7	; 0x7						0x0000a19c:  e31b0007      tst	fp, #7	; 0x7
0x0000a1a0:  0a000022      beq	0xa230							0x0000a1a0:  0a000022      beq	0xa230

----------------									----------------
IN: log_hexdump										IN: log_hexdump
0x0000a230:  e1a00008      mov	r0, r8							0x0000a230:  e1a00008      mov	r0, r8
0x0000a234:  eb001311      bl	0xee80							0x0000a234:  eb001311      bl	0xee80

----------------									----------------
IN: log_hexdump										IN: log_hexdump
0x0000a238:  eaffffd9      b	0xa1a4							0x0000a238:  eaffffd9      b	0xa1a4

----------------									----------------
IN: log_hexdump										IN: log_hexdump
0x0000a1a4:  e154000b      cmp	r4, fp							0x0000a1a4:  e154000b      cmp	r4, fp
0x0000a1a8:  e1a00005      mov	r0, r5							0x0000a1a8:  e1a00005      mov	r0, r5
0x0000a1ac:  cafffff1      bgt	0xa178							0x0000a1ac:  cafffff1      bgt	0xa178

----------------									----------------
IN: log_hexdump										IN: log_hexdump
0x0000a178:  e59f00dc      ldr	r0, [pc, #220]	; 0xa25c				0x0000a178:  e59f00dc      ldr	r0, [pc, #220]	; 0xa25c
0x0000a17c:  e7d6100b      ldrb	r1, [r6, fp]						0x0000a17c:  e7d6100b      ldrb	r1, [r6, fp]
0x0000a180:  e28bb001      add	fp, fp, #1	; 0x1					0x0000a180:  e28bb001      add	fp, fp, #1	; 0x1
0x0000a184:  e08f0000      add	r0, pc, r0						0x0000a184:  e08f0000      add	r0, pc, r0
0x0000a188:  eb00133c      bl	0xee80							0x0000a188:  eb00133c      bl	0xee80

----------------									----------------
IN: tfp_format										IN: tfp_format
0x0000eb28:  ea0000af      b	0xedec							0x0000eb28:  ea0000af      b	0xedec

----------------									----------------
IN: log_hexdump										IN: log_hexdump
0x0000a18c:  e35b0010      cmp	fp, #16	; 0x10						0x0000a18c:  e35b0010      cmp	fp, #16	; 0x10
0x0000a190:  0a00000a      beq	0xa1c0							0x0000a190:  0a00000a      beq	0xa1c0

----------------									----------------
IN: putchw										IN: putchw
0x0000e994:  e1a01008      mov	r1, r8							0x0000e994:  e1a01008      mov	r1, r8
0x0000e998:  e1a00006      mov	r0, r6							0x0000e998:  e1a00006      mov	r0, r6
0x0000e99c:  e12fff37      blx	r7							0x0000e99c:  e12fff37      blx	r7

----------------									----------------
IN: putchw										IN: putchw
0x0000e9a0:  e3540000      cmp	r4, #0	; 0x0						0x0000e9a0:  e3540000      cmp	r4, #0	; 0x0
0x0000e9a4:  e2444001      sub	r4, r4, #1	; 0x1					0x0000e9a4:  e2444001      sub	r4, r4, #1	; 0x1
0x0000e9a8:  cafffff9      bgt	0xe994							0x0000e9a8:  cafffff9      bgt	0xe994

----------------									----------------
IN: putchw										IN: putchw
0x0000e9ac:  e59d3018      ldr	r3, [sp, #24]						0x0000e9ac:  e59d3018      ldr	r3, [sp, #24]
0x0000e9b0:  e5d31000      ldrb	r1, [r3]						0x0000e9b0:  e5d31000      ldrb	r1, [r3]
0x0000e9b4:  e3510000      cmp	r1, #0	; 0x0						0x0000e9b4:  e3510000      cmp	r1, #0	; 0x0
0x0000e9b8:  08bd81f0      popeq	{r4, r5, r6, r7, r8, pc}			0x0000e9b8:  08bd81f0      popeq	{r4, r5, r6, r7, r8, pc}

----------------									----------------
IN: log_hexdump										IN: log_hexdump
0x0000a1b0:  e28bb001      add	fp, fp, #1	; 0x1					0x0000a1b0:  e28bb001      add	fp, fp, #1	; 0x1
0x0000a1b4:  eb001331      bl	0xee80							0x0000a1b4:  eb001331      bl	0xee80

----------------									----------------
IN: log_hexdump										IN: log_hexdump
0x0000a1b8:  e35b0010      cmp	fp, #16	; 0x10						0x0000a1b8:  e35b0010      cmp	fp, #16	; 0x10
0x0000a1bc:  1afffff4      bne	0xa194							0x0000a1bc:  1afffff4      bne	0xa194

----------------									----------------
IN: log_hexdump										IN: log_hexdump
0x0000a1c0:  e59f0098      ldr	r0, [pc, #152]	; 0xa260				0x0000a1c0:  e59f0098      ldr	r0, [pc, #152]	; 0xa260
0x0000a1c4:  e08f0000      add	r0, pc, r0						0x0000a1c4:  e08f0000      add	r0, pc, r0
0x0000a1c8:  eb00132c      bl	0xee80							0x0000a1c8:  eb00132c      bl	0xee80

----------------									----------------
IN: log_hexdump										IN: log_hexdump
0x0000a1cc:  e59d1008      ldr	r1, [sp, #8]						0x0000a1cc:  e59d1008      ldr	r1, [sp, #8]
0x0000a1d0:  e2462001      sub	r2, r6, #1	; 0x1					0x0000a1d0:  e2462001      sub	r2, r6, #1	; 0x1
0x0000a1d4:  e082c004      add	ip, r2, r4						0x0000a1d4:  e082c004      add	ip, r2, r4
0x0000a1d8:  e5f23001      ldrb	r3, [r2, #1]!						0x0000a1d8:  e5f23001      ldrb	r3, [r2, #1]!
0x0000a1dc:  e2430020      sub	r0, r3, #32	; 0x20					0x0000a1dc:  e2430020      sub	r0, r3, #32	; 0x20
0x0000a1e0:  e350005e      cmp	r0, #94	; 0x5e						0x0000a1e0:  e350005e      cmp	r0, #94	; 0x5e
0x0000a1e4:  83a0302e      movhi	r3, #46	; 0x2e					0x0000a1e4:  83a0302e      movhi	r3, #46	; 0x2e
0x0000a1e8:  e152000c      cmp	r2, ip							0x0000a1e8:  e152000c      cmp	r2, ip
0x0000a1ec:  e5e13001      strb	r3, [r1, #1]!						0x0000a1ec:  e5e13001      strb	r3, [r1, #1]!
0x0000a1f0:  1afffff8      bne	0xa1d8							0x0000a1f0:  1afffff8      bne	0xa1d8

----------------									----------------
IN: log_hexdump										IN: log_hexdump
0x0000a1d8:  e5f23001      ldrb	r3, [r2, #1]!						0x0000a1d8:  e5f23001      ldrb	r3, [r2, #1]!
0x0000a1dc:  e2430020      sub	r0, r3, #32	; 0x20					0x0000a1dc:  e2430020      sub	r0, r3, #32	; 0x20
0x0000a1e0:  e350005e      cmp	r0, #94	; 0x5e						0x0000a1e0:  e350005e      cmp	r0, #94	; 0x5e
0x0000a1e4:  83a0302e      movhi	r3, #46	; 0x2e					0x0000a1e4:  83a0302e      movhi	r3, #46	; 0x2e
0x0000a1e8:  e152000c      cmp	r2, ip							0x0000a1e8:  e152000c      cmp	r2, ip
0x0000a1ec:  e5e13001      strb	r3, [r1, #1]!						0x0000a1ec:  e5e13001      strb	r3, [r1, #1]!
0x0000a1f0:  1afffff8      bne	0xa1d8							0x0000a1f0:  1afffff8      bne	0xa1d8

----------------									----------------
IN: log_hexdump										IN: log_hexdump
0x0000a1f4:  e59f0068      ldr	r0, [pc, #104]	; 0xa264				0x0000a1f4:  e59f0068      ldr	r0, [pc, #104]	; 0xa264
0x0000a1f8:  e2843028      add	r3, r4, #40	; 0x28					0x0000a1f8:  e2843028      add	r3, r4, #40	; 0x28
0x0000a1fc:  e08d3003      add	r3, sp, r3						0x0000a1fc:  e08d3003      add	r3, sp, r3
0x0000a200:  e3a02000      mov	r2, #0	; 0x0						0x0000a200:  e3a02000      mov	r2, #0	; 0x0
0x0000a204:  e08f0000      add	r0, pc, r0						0x0000a204:  e08f0000      add	r0, pc, r0
0x0000a208:  e59d100c      ldr	r1, [sp, #12]						0x0000a208:  e59d100c      ldr	r1, [sp, #12]
0x0000a20c:  e0477004      sub	r7, r7, r4						0x0000a20c:  e0477004      sub	r7, r7, r4
0x0000a210:  e5432014      strb	r2, [r3, #-20]						0x0000a210:  e5432014      strb	r2, [r3, #-20]
0x0000a214:  e0866004      add	r6, r6, r4						0x0000a214:  e0866004      add	r6, r6, r4
0x0000a218:  eb001318      bl	0xee80							0x0000a218:  eb001318      bl	0xee80

----------------									----------------
IN: log_hexdump										IN: log_hexdump
0x0000a21c:  e08aa004      add	sl, sl, r4						0x0000a21c:  e08aa004      add	sl, sl, r4
0x0000a220:  e3570000      cmp	r7, #0	; 0x0						0x0000a220:  e3570000      cmp	r7, #0	; 0x0
0x0000a224:  caffffcb      bgt	0xa158							0x0000a224:  caffffcb      bgt	0xa158

----------------									----------------
IN: log_hexdump										IN: log_hexdump
0x0000a228:  e28dd02c      add	sp, sp, #44	; 0x2c					0x0000a228:  e28dd02c      add	sp, sp, #44	; 0x2c
0x0000a22c:  e8bd8ff0      pop	{r4, r5, r6, r7, r8, r9, sl, fp, pc}			0x0000a22c:  e8bd8ff0      pop	{r4, r5, r6, r7, r8, r9, sl, fp, pc}

----------------									----------------
IN: parse.constprop.0									IN: parse.constprop.0
0x0000da4c:  eaffff63      b	0xd7e0							0x0000da4c:  eaffff63      b	0xd7e0

----------------									----------------
IN: parse.constprop.0									IN: parse.constprop.0
0x0000d7e0:  e5943028      ldr	r3, [r4, #40]						0x0000d7e0:  e5943028      ldr	r3, [r4, #40]
0x0000d7e4:  e3530000      cmp	r3, #0	; 0x0						0x0000d7e4:  e3530000      cmp	r3, #0	; 0x0
0x0000d7e8:  03a00000      moveq	r0, #0	; 0x0					0x0000d7e8:  03a00000      moveq	r0, #0	; 0x0
0x0000d7ec:  13a00022      movne	r0, #34	; 0x22					0x0000d7ec:  13a00022      movne	r0, #34	; 0x22
0x0000d7f0:  e28dd09c      add	sp, sp, #156	; 0x9c					0x0000d7f0:  e28dd09c      add	sp, sp, #156	; 0x9c
0x0000d7f4:  e8bd8ff0      pop	{r4, r5, r6, r7, r8, r9, sl, fp, pc}			0x0000d7f4:  e8bd8ff0      pop	{r4, r5, r6, r7, r8, r9, sl, fp, pc}

----------------									----------------
IN: dbg_parse_packet									IN: dbg_parse_packet
0x0000e850:  e59d3014      ldr	r3, [sp, #20]						0x0000e850:  e59d3014      ldr	r3, [sp, #20]
0x0000e854:  e2533000      subs	r3, r3, #0	; 0x0					0x0000e854:  e2533000      subs	r3, r3, #0	; 0x0
0x0000e858:  13a03001      movne	r3, #1	; 0x1					0x0000e858:  13a03001      movne	r3, #1	; 0x1
0x0000e85c:  e3500000      cmp	r0, #0	; 0x0						0x0000e85c:  e3500000      cmp	r0, #0	; 0x0
0x0000e860:  13a03000      movne	r3, #0	; 0x0					0x0000e860:  13a03000      movne	r3, #0	; 0x0
0x0000e864:  e3530000      cmp	r3, #0	; 0x0						0x0000e864:  e3530000      cmp	r3, #0	; 0x0
0x0000e868:  1afffff0      bne	0xe830							0x0000e868:  1afffff0      bne	0xe830

----------------									----------------
IN: dbg_parse_packet									IN: dbg_parse_packet
0x0000e86c:  e28dd01c      add	sp, sp, #28	; 0x1c					0x0000e86c:  e28dd01c      add	sp, sp, #28	; 0x1c
0x0000e870:  e8bd80f0      pop	{r4, r5, r6, r7, pc}					0x0000e870:  e8bd80f0      pop	{r4, r5, r6, r7, pc}

----------------									----------------
IN: do_proc_packets									IN: do_proc_packets
0x000108f0:  e3700001      cmn	r0, #1	; 0x1						0x000108f0:  e3700001      cmn	r0, #1	; 0x1
0x000108f4:  0a0000bb      beq	0x10be8							0x000108f4:  0a0000bb      beq	0x10be8

----------------									----------------
IN: do_proc_packets									IN: do_proc_packets
0x000108f8:  e3500000      cmp	r0, #0	; 0x0						0x000108f8:  e3500000      cmp	r0, #0	; 0x0
0x000108fc:  1a0000c2      bne	0x10c0c							0x000108fc:  1a0000c2      bne	0x10c0c

----------------									----------------
IN: do_proc_packets									IN: do_proc_packets
0x00010900:  e5943014      ldr	r3, [r4, #20]						0x00010900:  e5943014      ldr	r3, [r4, #20]
0x00010904:  e3530000      cmp	r3, #0	; 0x0						0x00010904:  e3530000      cmp	r3, #0	; 0x0
0x00010908:  0affffe8      beq	0x108b0							0x00010908:  0affffe8      beq	0x108b0

----------------									----------------
IN: do_proc_packets									IN: do_proc_packets
0x0001090c:  e1a00008      mov	r0, r8							0x0001090c:  e1a00008      mov	r0, r8
0x00010910:  ebfff95a      bl	0xee80							0x00010910:  ebfff95a      bl	0xee80

----------------									----------------
IN: do_proc_packets									IN: do_proc_packets
0x00010914:  e5d52000      ldrb	r2, [r5]						0x00010914:  e5d52000      ldrb	r2, [r5]
0x00010918:  e2423003      sub	r3, r2, #3	; 0x3					0x00010918:  e2423003      sub	r3, r2, #3	; 0x3
0x0001091c:  e3530011      cmp	r3, #17	; 0x11						0x0001091c:  e3530011      cmp	r3, #17	; 0x11
0x00010920:  908ff103      addls	pc, pc, r3, lsl #2				0x00010920:  908ff103      addls	pc, pc, r3, lsl #2

----------------									----------------
IN: do_proc_packets									IN: do_proc_packets
0x00010928:  ea000069      b	0x10ad4							0x00010928:  ea000069      b	0x10ad4

----------------									----------------
IN: do_proc_packets									IN: do_proc_packets
0x00010ad4:  e59f02d0      ldr	r0, [pc, #720]	; 0x10dac				0x00010ad4:  e59f02d0      ldr	r0, [pc, #720]	; 0x10dac
0x00010ad8:  e08f0000      add	r0, pc, r0						0x00010ad8:  e08f0000      add	r0, pc, r0
0x00010adc:  ebfff8e7      bl	0xee80							0x00010adc:  ebfff8e7      bl	0xee80

----------------									----------------
IN: do_proc_packets									IN: do_proc_packets
0x00010ae0:  e595a004      ldr	sl, [r5, #4]						0x00010ae0:  e595a004      ldr	sl, [r5, #4]
0x00010ae4:  e35a0000      cmp	sl, #0	; 0x0						0x00010ae4:  e35a0000      cmp	sl, #0	; 0x0
0x00010ae8:  0a00004c      beq	0x10c20							0x00010ae8:  0a00004c      beq	0x10c20

----------------									----------------
IN: do_proc_packets									IN: do_proc_packets
0x00010aec:  e594b02c      ldr	fp, [r4, #44]						0x00010aec:  e594b02c      ldr	fp, [r4, #44]
0x00010af0:  e35b0000      cmp	fp, #0	; 0x0						0x00010af0:  e35b0000      cmp	fp, #0	; 0x0
0x00010af4:  0a000061      beq	0x10c80							0x00010af4:  0a000061      beq	0x10c80

----------------									----------------
IN: do_proc_packets									IN: do_proc_packets
0x00010c80:  e59f0154      ldr	r0, [pc, #340]	; 0x10ddc				0x00010c80:  e59f0154      ldr	r0, [pc, #340]	; 0x10ddc
0x00010c84:  e08f0000      add	r0, pc, r0						0x00010c84:  e08f0000      add	r0, pc, r0
0x00010c88:  ebfff87c      bl	0xee80							0x00010c88:  ebfff87c      bl	0xee80

----------------									----------------
IN: do_proc_packets									IN: do_proc_packets
0x00010c8c:  e59f214c      ldr	r2, [pc, #332]	; 0x10de0				0x00010c8c:  e59f214c      ldr	r2, [pc, #332]	; 0x10de0
0x00010c90:  e59f114c      ldr	r1, [pc, #332]	; 0x10de4				0x00010c90:  e59f114c      ldr	r1, [pc, #332]	; 0x10de4
0x00010c94:  e59f014c      ldr	r0, [pc, #332]	; 0x10de8				0x00010c94:  e59f014c      ldr	r0, [pc, #332]	; 0x10de8
0x00010c98:  e5da3001      ldrb	r3, [sl, #1]						0x00010c98:  e5da3001      ldrb	r3, [sl, #1]
0x00010c9c:  e08f2002      add	r2, pc, r2						0x00010c9c:  e08f2002      add	r2, pc, r2
0x00010ca0:  e08f1001      add	r1, pc, r1						0x00010ca0:  e08f1001      add	r1, pc, r1
0x00010ca4:  e08f0000      add	r0, pc, r0						0x00010ca4:  e08f0000      add	r0, pc, r0
0x00010ca8:  e58d301c      str	r3, [sp, #28]						0x00010ca8:  e58d301c      str	r3, [sp, #28]
0x00010cac:  ebfff873      bl	0xee80							0x00010cac:  ebfff873      bl	0xee80

----------------									----------------
IN: do_proc_packets									IN: do_proc_packets
0x00010cb0:  e59f0134      ldr	r0, [pc, #308]	; 0x10dec				0x00010cb0:  e59f0134      ldr	r0, [pc, #308]	; 0x10dec
0x00010cb4:  e3a02002      mov	r2, #2	; 0x2						0x00010cb4:  e3a02002      mov	r2, #2	; 0x2
0x00010cb8:  e5842038      str	r2, [r4, #56]						0x00010cb8:  e5842038      str	r2, [r4, #56]
0x00010cbc:  e5941030      ldr	r1, [r4, #48]						0x00010cbc:  e5941030      ldr	r1, [r4, #48]
0x00010cc0:  e08f0000      add	r0, pc, r0						0x00010cc0:  e08f0000      add	r0, pc, r0
0x00010cc4:  ebfff86d      bl	0xee80							0x00010cc4:  ebfff86d      bl	0xee80

----------------									----------------
IN: do_proc_packets									IN: do_proc_packets
0x00010cc8:  e59f0120      ldr	r0, [pc, #288]	; 0x10df0				0x00010cc8:  e59f0120      ldr	r0, [pc, #288]	; 0x10df0
0x00010ccc:  e5941034      ldr	r1, [r4, #52]						0x00010ccc:  e5941034      ldr	r1, [r4, #52]
0x00010cd0:  e08f0000      add	r0, pc, r0						0x00010cd0:  e08f0000      add	r0, pc, r0
0x00010cd4:  ebfff869      bl	0xee80							0x00010cd4:  ebfff869      bl	0xee80

----------------									----------------
IN: do_proc_packets									IN: do_proc_packets
0x00010cd8:  e59d301c      ldr	r3, [sp, #28]						0x00010cd8:  e59d301c      ldr	r3, [sp, #28]
0x00010cdc:  e1a0200b      mov	r2, fp							0x00010cdc:  e1a0200b      mov	r2, fp
0x00010ce0:  e58db008      str	fp, [sp, #8]						0x00010ce0:  e58db008      str	fp, [sp, #8]
0x00010ce4:  e28a1004      add	r1, sl, #4	; 0x4					0x00010ce4:  e28a1004      add	r1, sl, #4	; 0x4
0x00010ce8:  e58db004      str	fp, [sp, #4]						0x00010ce8:  e58db004      str	fp, [sp, #4]
0x00010cec:  e1a00003      mov	r0, r3							0x00010cec:  e1a00003      mov	r0, r3
0x00010cf0:  e58db000      str	fp, [sp]						0x00010cf0:  e58db000      str	fp, [sp]
0x00010cf4:  e5943034      ldr	r3, [r4, #52]						0x00010cf4:  e5943034      ldr	r3, [r4, #52]
0x00010cf8:  e58d3010      str	r3, [sp, #16]						0x00010cf8:  e58d3010      str	r3, [sp, #16]
0x00010cfc:  e5943030      ldr	r3, [r4, #48]						0x00010cfc:  e5943030      ldr	r3, [r4, #48]
0x00010d00:  e58d300c      str	r3, [sp, #12]						0x00010d00:  e58d300c      str	r3, [sp, #12]
0x00010d04:  e3a03001      mov	r3, #1	; 0x1						0x00010d04:  e3a03001      mov	r3, #1	; 0x1
0x00010d08:  ebfffe23      bl	0x1059c							0x00010d08:  ebfffe23      bl	0x1059c

----------------									----------------
IN: passphrase_to_dek									IN: passphrase_to_dek
0x0001059c:  e92d43f0      push	{r4, r5, r6, r7, r8, r9, lr}				0x0001059c:  e92d43f0      push	{r4, r5, r6, r7, r8, r9, lr}
0x000105a0:  e24dd014      sub	sp, sp, #20	; 0x14					0x000105a0:  e24dd014      sub	sp, sp, #20	; 0x14
0x000105a4:  e1a04000      mov	r4, r0							0x000105a4:  e1a04000      mov	r4, r0
0x000105a8:  e1a05002      mov	r5, r2							0x000105a8:  e1a05002      mov	r5, r2
0x000105ac:  e59f01e8      ldr	r0, [pc, #488]	; 0x1079c				0x000105ac:  e59f01e8      ldr	r0, [pc, #488]	; 0x1079c
0x000105b0:  e1a07001      mov	r7, r1							0x000105b0:  e1a07001      mov	r7, r1
0x000105b4:  e59d6038      ldr	r6, [sp, #56]						0x000105b4:  e59d6038      ldr	r6, [sp, #56]
0x000105b8:  e08f0000      add	r0, pc, r0						0x000105b8:  e08f0000      add	r0, pc, r0
0x000105bc:  e59d8040      ldr	r8, [sp, #64]						0x000105bc:  e59d8040      ldr	r8, [sp, #64]
0x000105c0:  ebfffa2e      bl	0xee80							0x000105c0:  ebfffa2e      bl	0xee80

----------------									----------------
IN: passphrase_to_dek									IN: passphrase_to_dek
0x000105c4:  e3560000      cmp	r6, #0	; 0x0						0x000105c4:  e3560000      cmp	r6, #0	; 0x0
0x000105c8:  e3a03000      mov	r3, #0	; 0x0						0x000105c8:  e3a03000      mov	r3, #0	; 0x0
0x000105cc:  028d600c      addeq	r6, sp, #12	; 0xc				0x000105cc:  028d600c      addeq	r6, sp, #12	; 0xc
0x000105d0:  e3550000      cmp	r5, #0	; 0x0						0x000105d0:  e3550000      cmp	r5, #0	; 0x0
0x000105d4:  e5863000      str	r3, [r6]						0x000105d4:  e5863000      str	r3, [r6]
0x000105d8:  0a000003      beq	0x105ec							0x000105d8:  0a000003      beq	0x105ec

----------------									----------------
IN: passphrase_to_dek									IN: passphrase_to_dek
0x000105ec:  e3a00024      mov	r0, #36	; 0x24						0x000105ec:  e3a00024      mov	r0, #36	; 0x24
0x000105f0:  ebfff21e      bl	0xce70							0x000105f0:  ebfff21e      bl	0xce70

----------------									----------------
IN: passphrase_to_dek									IN: passphrase_to_dek
0x000105f4:  e5973010      ldr	r3, [r7, #16]						0x000105f4:  e5973010      ldr	r3, [r7, #16]
0x000105f8:  e3a02010      mov	r2, #16	; 0x10						0x000105f8:  e3a02010      mov	r2, #16	; 0x10
0x000105fc:  e5804000      str	r4, [r0]						0x000105fc:  e5804000      str	r4, [r0]
0x00010600:  e3580000      cmp	r8, #0	; 0x0						0x00010600:  e3580000      cmp	r8, #0	; 0x0
0x00010604:  e5802004      str	r2, [r0, #4]						0x00010604:  e5802004      str	r2, [r0, #4]
0x00010608:  e203400f      and	r4, r3, #15	; 0xf					0x00010608:  e203400f      and	r4, r3, #15	; 0xf
0x0001060c:  e1a03223      lsr	r3, r3, #4						0x0001060c:  e1a03223      lsr	r3, r3, #4
0x00010610:  e1a06000      mov	r6, r0							0x00010610:  e1a06000      mov	r6, r0
0x00010614:  e0844002      add	r4, r4, r2						0x00010614:  e0844002      add	r4, r4, r2
0x00010618:  e2833006      add	r3, r3, #6	; 0x6					0x00010618:  e2833006      add	r3, r3, #6	; 0x6
0x0001061c:  e1a04314      lsl	r4, r4, r3						0x0001061c:  e1a04314      lsl	r4, r4, r3
0x00010620:  0a000041      beq	0x1072c							0x00010620:  0a000041      beq	0x1072c

----------------									----------------
IN: passphrase_to_dek									IN: passphrase_to_dek
0x00010624:  e59f0174      ldr	r0, [pc, #372]	; 0x107a0				0x00010624:  e59f0174      ldr	r0, [pc, #372]	; 0x107a0
0x00010628:  e1a01008      mov	r1, r8							0x00010628:  e1a01008      mov	r1, r8
0x0001062c:  e2875005      add	r5, r7, #5	; 0x5					0x0001062c:  e2875005      add	r5, r7, #5	; 0x5
0x00010630:  e08f0000      add	r0, pc, r0						0x00010630:  e08f0000      add	r0, pc, r0
0x00010634:  ebfffa11      bl	0xee80							0x00010634:  ebfffa11      bl	0xee80

----------------									----------------
IN: passphrase_to_dek									IN: passphrase_to_dek
0x00010638:  e1a00008      mov	r0, r8							0x00010638:  e1a00008      mov	r0, r8
0x0001063c:  ebffff74      bl	0x10414							0x0001063c:  ebffff74      bl	0x10414

----------------									----------------
IN: passphrase_to_dek									IN: passphrase_to_dek
0x00010640:  e2809001      add	r9, r0, #1	; 0x1					0x00010640:  e2809001      add	r9, r0, #1	; 0x1
0x00010644:  e1a00009      mov	r0, r9							0x00010644:  e1a00009      mov	r0, r9
0x00010648:  ebfff182      bl	0xcc58							0x00010648:  ebfff182      bl	0xcc58

----------------									----------------
IN: passphrase_to_dek									IN: passphrase_to_dek
0x0001064c:  e586000c      str	r0, [r6, #12]						0x0001064c:  e586000c      str	r0, [r6, #12]
0x00010650:  e1a02009      mov	r2, r9							0x00010650:  e1a02009      mov	r2, r9
0x00010654:  e1a01008      mov	r1, r8							0x00010654:  e1a01008      mov	r1, r8
0x00010658:  ebfff21f      bl	0xcedc							0x00010658:  ebfff21f      bl	0xcedc

----------------									----------------
IN: passphrase_to_dek									IN: passphrase_to_dek
0x0001065c:  e59f0140      ldr	r0, [pc, #320]	; 0x107a4				0x0001065c:  e59f0140      ldr	r0, [pc, #320]	; 0x107a4
0x00010660:  e08f0000      add	r0, pc, r0						0x00010660:  e08f0000      add	r0, pc, r0
0x00010664:  ebfffa05      bl	0xee80							0x00010664:  ebfffa05      bl	0xee80

----------------									----------------
IN: passphrase_to_dek									IN: passphrase_to_dek
0x00010668:  e59f0138      ldr	r0, [pc, #312]	; 0x107a8				0x00010668:  e59f0138      ldr	r0, [pc, #312]	; 0x107a8
0x0001066c:  e5961000      ldr	r1, [r6]						0x0001066c:  e5961000      ldr	r1, [r6]
0x00010670:  e08f0000      add	r0, pc, r0						0x00010670:  e08f0000      add	r0, pc, r0
0x00010674:  ebfffa01      bl	0xee80							0x00010674:  ebfffa01      bl	0xee80

----------------									----------------
IN: passphrase_to_dek									IN: passphrase_to_dek
0x00010678:  e59f012c      ldr	r0, [pc, #300]	; 0x107ac				0x00010678:  e59f012c      ldr	r0, [pc, #300]	; 0x107ac
0x0001067c:  e5961004      ldr	r1, [r6, #4]						0x0001067c:  e5961004      ldr	r1, [r6, #4]
0x00010680:  e08f0000      add	r0, pc, r0						0x00010680:  e08f0000      add	r0, pc, r0
0x00010684:  ebfff9fd      bl	0xee80							0x00010684:  ebfff9fd      bl	0xee80

----------------									----------------
IN: passphrase_to_dek									IN: passphrase_to_dek
0x00010688:  e59f0120      ldr	r0, [pc, #288]	; 0x107b0				0x00010688:  e59f0120      ldr	r0, [pc, #288]	; 0x107b0
0x0001068c:  e1a01004      mov	r1, r4							0x0001068c:  e1a01004      mov	r1, r4
0x00010690:  e08f0000      add	r0, pc, r0						0x00010690:  e08f0000      add	r0, pc, r0
0x00010694:  ebfff9f9      bl	0xee80							0x00010694:  ebfff9f9      bl	0xee80

----------------									----------------
IN: passphrase_to_dek									IN: passphrase_to_dek
0x00010698:  e59f0114      ldr	r0, [pc, #276]	; 0x107b4				0x00010698:  e59f0114      ldr	r0, [pc, #276]	; 0x107b4
0x0001069c:  e08f0000      add	r0, pc, r0						0x0001069c:  e08f0000      add	r0, pc, r0
0x000106a0:  ebfff9f6      bl	0xee80							0x000106a0:  ebfff9f6      bl	0xee80

----------------									----------------
IN: passphrase_to_dek									IN: passphrase_to_dek
0x000106a4:  e5963004      ldr	r3, [r6, #4]						0x000106a4:  e5963004      ldr	r3, [r6, #4]
0x000106a8:  e3530000      cmp	r3, #0	; 0x0						0x000106a8:  e3530000      cmp	r3, #0	; 0x0
0x000106ac:  da00000a      ble	0x106dc							0x000106ac:  da00000a      ble	0x106dc

----------------									----------------
IN: passphrase_to_dek									IN: passphrase_to_dek
0x000106b0:  e59f8100      ldr	r8, [pc, #256]	; 0x107b8				0x000106b0:  e59f8100      ldr	r8, [pc, #256]	; 0x107b8
0x000106b4:  e3a04000      mov	r4, #0	; 0x0						0x000106b4:  e3a04000      mov	r4, #0	; 0x0
0x000106b8:  e08f8008      add	r8, pc, r8						0x000106b8:  e08f8008      add	r8, pc, r8
0x000106bc:  e596300c      ldr	r3, [r6, #12]						0x000106bc:  e596300c      ldr	r3, [r6, #12]
0x000106c0:  e1a00008      mov	r0, r8							0x000106c0:  e1a00008      mov	r0, r8
0x000106c4:  e7d31004      ldrb	r1, [r3, r4]						0x000106c4:  e7d31004      ldrb	r1, [r3, r4]
0x000106c8:  e2844001      add	r4, r4, #1	; 0x1					0x000106c8:  e2844001      add	r4, r4, #1	; 0x1
0x000106cc:  ebfff9eb      bl	0xee80							0x000106cc:  ebfff9eb      bl	0xee80

----------------									----------------
IN: passphrase_to_dek									IN: passphrase_to_dek
0x000106d0:  e5963004      ldr	r3, [r6, #4]						0x000106d0:  e5963004      ldr	r3, [r6, #4]
0x000106d4:  e1530004      cmp	r3, r4							0x000106d4:  e1530004      cmp	r3, r4
0x000106d8:  cafffff7      bgt	0x106bc							0x000106d8:  cafffff7      bgt	0x106bc

----------------									----------------
IN: passphrase_to_dek									IN: passphrase_to_dek
0x000106bc:  e596300c      ldr	r3, [r6, #12]						0x000106bc:  e596300c      ldr	r3, [r6, #12]
0x000106c0:  e1a00008      mov	r0, r8							0x000106c0:  e1a00008      mov	r0, r8
0x000106c4:  e7d31004      ldrb	r1, [r3, r4]						0x000106c4:  e7d31004      ldrb	r1, [r3, r4]
0x000106c8:  e2844001      add	r4, r4, #1	; 0x1					0x000106c8:  e2844001      add	r4, r4, #1	; 0x1
0x000106cc:  ebfff9eb      bl	0xee80							0x000106cc:  ebfff9eb      bl	0xee80

----------------									----------------
IN: passphrase_to_dek									IN: passphrase_to_dek
0x000106dc:  e59f00d8      ldr	r0, [pc, #216]	; 0x107bc				0x000106dc:  e59f00d8      ldr	r0, [pc, #216]	; 0x107bc
0x000106e0:  e287700d      add	r7, r7, #13	; 0xd					0x000106e0:  e287700d      add	r7, r7, #13	; 0xd
0x000106e4:  e59f80d4      ldr	r8, [pc, #212]	; 0x107c0				0x000106e4:  e59f80d4      ldr	r8, [pc, #212]	; 0x107c0
0x000106e8:  e08f0000      add	r0, pc, r0						0x000106e8:  e08f0000      add	r0, pc, r0
0x000106ec:  e08f8008      add	r8, pc, r8						0x000106ec:  e08f8008      add	r8, pc, r8
0x000106f0:  ebfff9e2      bl	0xee80							0x000106f0:  ebfff9e2      bl	0xee80

----------------									----------------
IN: passphrase_to_dek									IN: passphrase_to_dek
0x000106f4:  e59f00c8      ldr	r0, [pc, #200]	; 0x107c4				0x000106f4:  e59f00c8      ldr	r0, [pc, #200]	; 0x107c4
0x000106f8:  e08f0000      add	r0, pc, r0						0x000106f8:  e08f0000      add	r0, pc, r0
0x000106fc:  ebfff9df      bl	0xee80							0x000106fc:  ebfff9df      bl	0xee80

----------------									----------------
IN: passphrase_to_dek									IN: passphrase_to_dek
0x00010700:  e4d51001      ldrb	r1, [r5], #1						0x00010700:  e4d51001      ldrb	r1, [r5], #1
0x00010704:  e1a00008      mov	r0, r8							0x00010704:  e1a00008      mov	r0, r8
0x00010708:  ebfff9dc      bl	0xee80							0x00010708:  ebfff9dc      bl	0xee80

----------------									----------------
IN: passphrase_to_dek									IN: passphrase_to_dek
0x0001070c:  e1570005      cmp	r7, r5							0x0001070c:  e1570005      cmp	r7, r5
0x00010710:  1afffffa      bne	0x10700							0x00010710:  1afffffa      bne	0x10700

----------------									----------------
IN: passphrase_to_dek									IN: passphrase_to_dek
0x00010714:  e59f00ac      ldr	r0, [pc, #172]	; 0x107c8				0x00010714:  e59f00ac      ldr	r0, [pc, #172]	; 0x107c8
0x00010718:  e08f0000      add	r0, pc, r0						0x00010718:  e08f0000      add	r0, pc, r0
0x0001071c:  ebfff9d7      bl	0xee80							0x0001071c:  ebfff9d7      bl	0xee80

----------------									----------------
IN: passphrase_to_dek									IN: passphrase_to_dek
0x00010720:  e1a00006      mov	r0, r6							0x00010720:  e1a00006      mov	r0, r6
0x00010724:  e28dd014      add	sp, sp, #20	; 0x14					0x00010724:  e28dd014      add	sp, sp, #20	; 0x14
0x00010728:  e8bd83f0      pop	{r4, r5, r6, r7, r8, r9, pc}				0x00010728:  e8bd83f0      pop	{r4, r5, r6, r7, r8, r9, pc}

----------------									----------------
IN: do_proc_packets									IN: do_proc_packets
0x00010d0c:  e584002c      str	r0, [r4, #44]						0x00010d0c:  e584002c      str	r0, [r4, #44]
0x00010d10:  e3500000      cmp	r0, #0	; 0x0						0x00010d10:  e3500000      cmp	r0, #0	; 0x0
0x00010d14:  0affff77      beq	0x10af8							0x00010d14:  0affff77      beq	0x10af8

----------------									----------------
IN: do_proc_packets									IN: do_proc_packets
0x00010d18:  e5da3002      ldrb	r3, [sl, #2]						0x00010d18:  e5da3002      ldrb	r3, [sl, #2]
0x00010d1c:  e5d02008      ldrb	r2, [r0, #8]						0x00010d1c:  e5d02008      ldrb	r2, [r0, #8]
0x00010d20:  e1a03083      lsl	r3, r3, #1						0x00010d20:  e1a03083      lsl	r3, r3, #1
0x00010d24:  e3c2205f      bic	r2, r2, #95	; 0x5f					0x00010d24:  e3c2205f      bic	r2, r2, #95	; 0x5f
0x00010d28:  e203301e      and	r3, r3, #30	; 0x1e					0x00010d28:  e203301e      and	r3, r3, #30	; 0x1e
0x00010d2c:  e3833041      orr	r3, r3, #65	; 0x41					0x00010d2c:  e3833041      orr	r3, r3, #65	; 0x41
0x00010d30:  e1833002      orr	r3, r3, r2						0x00010d30:  e1833002      orr	r3, r3, r2
0x00010d34:  e5c03008      strb	r3, [r0, #8]						0x00010d34:  e5c03008      strb	r3, [r0, #8]
0x00010d38:  eaffff6e      b	0x10af8							0x00010d38:  eaffff6e      b	0x10af8

----------------									----------------
IN: do_proc_packets									IN: do_proc_packets
0x00010af8:  e3a01010      mov	r1, #16	; 0x10						0x00010af8:  e3a01010      mov	r1, #16	; 0x10
0x00010afc:  e3a00001      mov	r0, #1	; 0x1						0x00010afc:  e3a00001      mov	r0, #1	; 0x1
0x00010b00:  ebfff0e4      bl	0xce98							0x00010b00:  ebfff0e4      bl	0xce98

----------------									----------------
IN: do_proc_packets									IN: do_proc_packets
0x00010b04:  e5da3001      ldrb	r3, [sl, #1]						0x00010b04:  e5da3001      ldrb	r3, [sl, #1]
0x00010b08:  e5803004      str	r3, [r0, #4]						0x00010b08:  e5803004      str	r3, [r0, #4]
0x00010b0c:  e5da3002      ldrb	r3, [sl, #2]						0x00010b0c:  e5da3002      ldrb	r3, [sl, #2]
0x00010b10:  e16f3f13      clz	r3, r3							0x00010b10:  e16f3f13      clz	r3, r3
0x00010b14:  e1a032a3      lsr	r3, r3, #5						0x00010b14:  e1a032a3      lsr	r3, r3, #5
0x00010b18:  e5803008      str	r3, [r0, #8]						0x00010b18:  e5803008      str	r3, [r0, #8]
0x00010b1c:  e5943048      ldr	r3, [r4, #72]						0x00010b1c:  e5943048      ldr	r3, [r4, #72]
0x00010b20:  e5942050      ldr	r2, [r4, #80]						0x00010b20:  e5942050      ldr	r2, [r4, #80]
0x00010b24:  e2833001      add	r3, r3, #1	; 0x1					0x00010b24:  e2833001      add	r3, r3, #1	; 0x1
0x00010b28:  e5802000      str	r2, [r0]						0x00010b28:  e5802000      str	r2, [r0]
0x00010b2c:  e5840050      str	r0, [r4, #80]						0x00010b2c:  e5840050      str	r0, [r4, #80]
0x00010b30:  e5843048      str	r3, [r4, #72]						0x00010b30:  e5843048      str	r3, [r4, #72]
0x00010b34:  eaffff5d      b	0x108b0							0x00010b34:  eaffff5d      b	0x108b0

----------------									----------------
IN: do_proc_packets									IN: do_proc_packets
0x000108b0:  e5d53000      ldrb	r3, [r5]						0x000108b0:  e5d53000      ldrb	r3, [r5]
0x000108b4:  e3530002      cmp	r3, #2	; 0x2						0x000108b4:  e3530002      cmp	r3, #2	; 0x2
0x000108b8:  13530013      cmpne	r3, #19	; 0x13					0x000108b8:  13530013      cmpne	r3, #19	; 0x13
0x000108bc:  0a000005      beq	0x108d8							0x000108bc:  0a000005      beq	0x108d8

----------------									----------------
IN: do_proc_packets									IN: do_proc_packets
0x000108c0:  e5d4205c      ldrb	r2, [r4, #92]						0x000108c0:  e5d4205c      ldrb	r2, [r4, #92]
0x000108c4:  e243300b      sub	r3, r3, #11	; 0xb					0x000108c4:  e243300b      sub	r3, r3, #11	; 0xb
0x000108c8:  e16f3f13      clz	r3, r3							0x000108c8:  e16f3f13      clz	r3, r3
0x000108cc:  e1a032a3      lsr	r3, r3, #5						0x000108cc:  e1a032a3      lsr	r3, r3, #5
0x000108d0:  e7c12093      bfi	r2, r3, #1, #1						0x000108d0:  e7c12093      bfi	r2, r3, #1, #1
0x000108d4:  e5c4205c      strb	r2, [r4, #92]						0x000108d4:  e5c4205c      strb	r2, [r4, #92]
0x000108d8:  e3a0a001      mov	sl, #1	; 0x1						0x000108d8:  e3a0a001      mov	sl, #1	; 0x1
0x000108dc:  e300379e      movw	r3, #1950	; 0x79e					0x000108dc:  e300379e      movw	r3, #1950	; 0x79e
0x000108e0:  e1a02007      mov	r2, r7							0x000108e0:  e1a02007      mov	r2, r7
0x000108e4:  e1a01005      mov	r1, r5							0x000108e4:  e1a01005      mov	r1, r5
0x000108e8:  e1a00006      mov	r0, r6							0x000108e8:  e1a00006      mov	r0, r6
0x000108ec:  ebfff7c6      bl	0xe80c							0x000108ec:  ebfff7c6      bl	0xe80c

----------------									----------------
IN: parse.constprop.0									IN: parse.constprop.0
0x0000d300:  e5943010      ldr	r3, [r4, #16]						0x0000d300:  e5943010      ldr	r3, [r4, #16]
0x0000d304:  e200803f      and	r8, r0, #63	; 0x3f					0x0000d304:  e200803f      and	r8, r0, #63	; 0x3f
0x0000d308:  e3530000      cmp	r3, #0	; 0x0						0x0000d308:  e3530000      cmp	r3, #0	; 0x0
0x0000d30c:  1a000003      bne	0xd320							0x0000d30c:  1a000003      bne	0xd320

----------------									----------------
IN: parse.constprop.0									IN: parse.constprop.0
0x0000d310:  e5943018      ldr	r3, [r4, #24]						0x0000d310:  e5943018      ldr	r3, [r4, #24]
0x0000d314:  e594201c      ldr	r2, [r4, #28]						0x0000d314:  e594201c      ldr	r2, [r4, #28]
0x0000d318:  e1530002      cmp	r3, r2							0x0000d318:  e1530002      cmp	r3, r2
0x0000d31c:  3a00006b      bcc	0xd4d0							0x0000d31c:  3a00006b      bcc	0xd4d0

----------------									----------------
IN: parse.constprop.0									IN: parse.constprop.0
0x0000d4d0:  e5942008      ldr	r2, [r4, #8]						0x0000d4d0:  e5942008      ldr	r2, [r4, #8]
0x0000d4d4:  e5941020      ldr	r1, [r4, #32]						0x0000d4d4:  e5941020      ldr	r1, [r4, #32]
0x0000d4d8:  e2822001      add	r2, r2, #1	; 0x1					0x0000d4d8:  e2822001      add	r2, r2, #1	; 0x1
0x0000d4dc:  e5842008      str	r2, [r4, #8]						0x0000d4dc:  e5842008      str	r2, [r4, #8]
0x0000d4e0:  e2832001      add	r2, r3, #1	; 0x1					0x0000d4e0:  e2832001      add	r2, r3, #1	; 0x1
0x0000d4e4:  e5842018      str	r2, [r4, #24]						0x0000d4e4:  e5842018      str	r2, [r4, #24]
0x0000d4e8:  e7d13003      ldrb	r3, [r1, r3]						0x0000d4e8:  e7d13003      ldrb	r3, [r1, r3]
0x0000d4ec:  e1a00003      mov	r0, r3							0x0000d4ec:  e1a00003      mov	r0, r3
0x0000d4f0:  eaffff8f      b	0xd334							0x0000d4f0:  eaffff8f      b	0xd334

----------------									----------------
IN: parse.constprop.0									IN: parse.constprop.0
0x0000d334:  e5cd302d      strb	r3, [sp, #45]						0x0000d334:  e5cd302d      strb	r3, [sp, #45]
0x0000d338:  e35000bf      cmp	r0, #191	; 0xbf					0x0000d338:  e35000bf      cmp	r0, #191	; 0xbf
0x0000d33c:  d1a05000      movle	r5, r0						0x0000d33c:  d1a05000      movle	r5, r0
0x0000d340:  d3a09002      movle	r9, #2	; 0x2					0x0000d340:  d3a09002      movle	r9, #2	; 0x2
0x0000d344:  ca000049      bgt	0xd470							0x0000d344:  ca000049      bgt	0xd470

----------------									----------------
IN: parse.constprop.0									IN: parse.constprop.0
0x0000d470:  e35000df      cmp	r0, #223	; 0xdf					0x0000d470:  e35000df      cmp	r0, #223	; 0xdf
0x0000d474:  ca000035      bgt	0xd550							0x0000d474:  ca000035      bgt	0xd550

----------------									----------------
IN: parse.constprop.0									IN: parse.constprop.0
0x0000d550:  e35000ff      cmp	r0, #255	; 0xff					0x0000d550:  e35000ff      cmp	r0, #255	; 0xff
0x0000d554:  0a0000a7      beq	0xd7f8							0x0000d554:  0a0000a7      beq	0xd7f8

----------------									----------------
IN: parse.constprop.0									IN: parse.constprop.0
0x0000d558:  e2483008      sub	r3, r8, #8	; 0x8					0x0000d558:  e2483008      sub	r3, r8, #8	; 0x8
0x0000d55c:  e353000c      cmp	r3, #12	; 0xc						0x0000d55c:  e353000c      cmp	r3, #12	; 0xc
0x0000d560:  908ff103      addls	pc, pc, r3, lsl #2				0x0000d560:  908ff103      addls	pc, pc, r3, lsl #2

----------------									----------------
IN: parse.constprop.0									IN: parse.constprop.0
0x0000d56c:  ea000038      b	0xd654							0x0000d56c:  ea000038      b	0xd654

----------------									----------------
IN: parse.constprop.0									IN: parse.constprop.0
0x0000d654:  e6ef1070      uxtb	r1, r0							0x0000d654:  e6ef1070      uxtb	r1, r0
0x0000d658:  e1a00004      mov	r0, r4							0x0000d658:  e1a00004      mov	r0, r4
0x0000d65c:  e3a09002      mov	r9, #2	; 0x2						0x0000d65c:  e3a09002      mov	r9, #2	; 0x2
0x0000d660:  e3a05001      mov	r5, #1	; 0x1						0x0000d660:  e3a05001      mov	r5, #1	; 0x1
0x0000d664:  ebfff231      bl	0x9f30							0x0000d664:  ebfff231      bl	0x9f30

----------------									----------------
IN: iobuf_set_partial_body_length_mode							IN: iobuf_set_partial_body_length_mode
0x00009f30:  e92d4070      push	{r4, r5, r6, lr}					0x00009f30:  e92d4070      push	{r4, r5, r6, lr}
0x00009f34:  e1a04000      mov	r4, r0							0x00009f34:  e1a04000      mov	r4, r0
0x00009f38:  e59f00b8      ldr	r0, [pc, #184]	; 0x9ff8				0x00009f38:  e59f00b8      ldr	r0, [pc, #184]	; 0x9ff8
0x00009f3c:  e1a05001      mov	r5, r1							0x00009f3c:  e1a05001      mov	r5, r1
0x00009f40:  e08f0000      add	r0, pc, r0						0x00009f40:  e08f0000      add	r0, pc, r0
0x00009f44:  eb0013cd      bl	0xee80							0x00009f44:  eb0013cd      bl	0xee80

----------------									----------------
IN: iobuf_set_partial_body_length_mode							IN: iobuf_set_partial_body_length_mode
0x00009f48:  e3550000      cmp	r5, #0	; 0x0						0x00009f48:  e3550000      cmp	r5, #0	; 0x0
0x00009f4c:  1a000015      bne	0x9fa8							0x00009f4c:  1a000015      bne	0x9fa8

----------------									----------------
IN: iobuf_set_partial_body_length_mode							IN: iobuf_set_partial_body_length_mode
0x00009fa8:  e3a01020      mov	r1, #32	; 0x20						0x00009fa8:  e3a01020      mov	r1, #32	; 0x20
0x00009fac:  e3a00001      mov	r0, #1	; 0x1						0x00009fac:  e3a00001      mov	r0, #1	; 0x1
0x00009fb0:  eb000bb8      bl	0xce98							0x00009fb0:  eb000bb8      bl	0xce98

----------------									----------------
IN: iobuf_set_partial_body_length_mode							IN: iobuf_set_partial_body_length_mode
0x00009fb4:  e5d41000      ldrb	r1, [r4]						0x00009fb4:  e5d41000      ldrb	r1, [r4]
0x00009fb8:  e3a03001      mov	r3, #1	; 0x1						0x00009fb8:  e3a03001      mov	r3, #1	; 0x1
0x00009fbc:  e580300c      str	r3, [r0, #12]						0x00009fbc:  e580300c      str	r3, [r0, #12]
0x00009fc0:  e3a03000      mov	r3, #0	; 0x0						0x00009fc0:  e3a03000      mov	r3, #0	; 0x0
0x00009fc4:  e5801000      str	r1, [r0]						0x00009fc4:  e5801000      str	r1, [r0]
0x00009fc8:  e1a06000      mov	r6, r0							0x00009fc8:  e1a06000      mov	r6, r0
0x00009fcc:  e5803004      str	r3, [r0, #4]						0x00009fcc:  e5803004      str	r3, [r0, #4]
0x00009fd0:  e59f0030      ldr	r0, [pc, #48]	; 0xa008				0x00009fd0:  e59f0030      ldr	r0, [pc, #48]	; 0xa008
0x00009fd4:  e5865018      str	r5, [r6, #24]						0x00009fd4:  e5865018      str	r5, [r6, #24]
0x00009fd8:  e08f0000      add	r0, pc, r0						0x00009fd8:  e08f0000      add	r0, pc, r0
0x00009fdc:  eb0013a7      bl	0xee80							0x00009fdc:  eb0013a7      bl	0xee80

----------------									----------------
IN: iobuf_set_partial_body_length_mode							IN: iobuf_set_partial_body_length_mode
0x00009fe0:  e59f1024      ldr	r1, [pc, #36]	; 0xa00c				0x00009fe0:  e59f1024      ldr	r1, [pc, #36]	; 0xa00c
0x00009fe4:  e1a02006      mov	r2, r6							0x00009fe4:  e1a02006      mov	r2, r6
0x00009fe8:  e1a00004      mov	r0, r4							0x00009fe8:  e1a00004      mov	r0, r4
0x00009fec:  e08f1001      add	r1, pc, r1						0x00009fec:  e08f1001      add	r1, pc, r1
0x00009ff0:  e8bd4070      pop	{r4, r5, r6, lr}					0x00009ff0:  e8bd4070      pop	{r4, r5, r6, lr}
0x00009ff4:  eafffb8f      b	0x8e38							0x00009ff4:  eafffb8f      b	0x8e38

----------------									----------------
IN: iobuf_push_filter									IN: iobuf_push_filter
0x00008e38:  e3a03000      mov	r3, #0	; 0x0						0x00008e38:  e3a03000      mov	r3, #0	; 0x0
0x00008e3c:  eaffff83      b	0x8c50							0x00008e3c:  eaffff83      b	0x8c50

----------------									----------------
IN: iobuf_push_filter2									IN: iobuf_push_filter2
0x00008c50:  e92d43f0      push	{r4, r5, r6, r7, r8, r9, lr}				0x00008c50:  e92d43f0      push	{r4, r5, r6, r7, r8, r9, lr}
0x00008c54:  e24dd034      sub	sp, sp, #52	; 0x34					0x00008c54:  e24dd034      sub	sp, sp, #52	; 0x34
0x00008c58:  e5d0c000      ldrb	ip, [r0]						0x00008c58:  e5d0c000      ldrb	ip, [r0]
0x00008c5c:  e1a09003      mov	r9, r3							0x00008c5c:  e1a09003      mov	r9, r3
0x00008c60:  e59f81bc      ldr	r8, [pc, #444]	; 0x8e24				0x00008c60:  e59f81bc      ldr	r8, [pc, #444]	; 0x8e24
0x00008c64:  e3a03000      mov	r3, #0	; 0x0						0x00008c64:  e3a03000      mov	r3, #0	; 0x0
0x00008c68:  e58d3008      str	r3, [sp, #8]						0x00008c68:  e58d3008      str	r3, [sp, #8]
0x00008c6c:  e35c0002      cmp	ip, #2	; 0x2						0x00008c6c:  e35c0002      cmp	ip, #2	; 0x2
0x00008c70:  e08f8008      add	r8, pc, r8						0x00008c70:  e08f8008      add	r8, pc, r8
0x00008c74:  e1a04000      mov	r4, r0							0x00008c74:  e1a04000      mov	r4, r0
0x00008c78:  e1a05001      mov	r5, r1							0x00008c78:  e1a05001      mov	r5, r1
0x00008c7c:  e1a07002      mov	r7, r2							0x00008c7c:  e1a07002      mov	r7, r2
0x00008c80:  0a00005c      beq	0x8df8							0x00008c80:  0a00005c      beq	0x8df8

----------------									----------------
IN: iobuf_push_filter2									IN: iobuf_push_filter2
0x00008c84:  e5943044      ldr	r3, [r4, #68]						0x00008c84:  e5943044      ldr	r3, [r4, #68]
0x00008c88:  e353003f      cmp	r3, #63	; 0x3f						0x00008c88:  e353003f      cmp	r3, #63	; 0x3f
0x00008c8c:  ca000039      bgt	0x8d78							0x00008c8c:  ca000039      bgt	0x8d78

----------------									----------------
IN: iobuf_push_filter2									IN: iobuf_push_filter2
0x00008c90:  e3a00048      mov	r0, #72	; 0x48						0x00008c90:  e3a00048      mov	r0, #72	; 0x48
0x00008c94:  eb001062      bl	0xce24							0x00008c94:  eb001062      bl	0xce24

----------------									----------------
IN: iobuf_push_filter2									IN: iobuf_push_filter2
0x00008c98:  e3a02048      mov	r2, #72	; 0x48						0x00008c98:  e3a02048      mov	r2, #72	; 0x48
0x00008c9c:  e1a01004      mov	r1, r4							0x00008c9c:  e1a01004      mov	r1, r4
0x00008ca0:  e1a06000      mov	r6, r0							0x00008ca0:  e1a06000      mov	r6, r0
0x00008ca4:  eb00108c      bl	0xcedc							0x00008ca4:  eb00108c      bl	0xcedc

----------------									----------------
IN: iobuf_push_filter2									IN: iobuf_push_filter2
0x00008ca8:  e5d42000      ldrb	r2, [r4]						0x00008ca8:  e5d42000      ldrb	r2, [r4]
0x00008cac:  e3a03000      mov	r3, #0	; 0x0						0x00008cac:  e3a03000      mov	r3, #0	; 0x0
0x00008cb0:  e584302c      str	r3, [r4, #44]						0x00008cb0:  e584302c      str	r3, [r4, #44]
0x00008cb4:  e5843030      str	r3, [r4, #48]						0x00008cb4:  e5843030      str	r3, [r4, #48]
0x00008cb8:  e3520003      cmp	r2, #3	; 0x3						0x00008cb8:  e3520003      cmp	r2, #3	; 0x3
0x00008cbc:  e5843034      str	r3, [r4, #52]						0x00008cbc:  e5843034      str	r3, [r4, #52]
0x00008cc0:  e5843024      str	r3, [r4, #36]						0x00008cc0:  e5843024      str	r3, [r4, #36]
0x00008cc4:  0a000026      beq	0x8d64							0x00008cc4:  0a000026      beq	0x8d64

----------------									----------------
IN: iobuf_push_filter2									IN: iobuf_push_filter2
0x00008cc8:  e3520001      cmp	r2, #1	; 0x1						0x00008cc8:  e3520001      cmp	r2, #1	; 0x1
0x00008ccc:  05c43000      strbeq	r3, [r4]					0x00008ccc:  05c43000      strbeq	r3, [r4]
0x00008cd0:  03a00a02      moveq	r0, #8192	; 0x2000			0x00008cd0:  03a00a02      moveq	r0, #8192	; 0x2000
0x00008cd4:  15940014      ldrne	r0, [r4, #20]					0x00008cd4:  15940014      ldrne	r0, [r4, #20]
0x00008cd8:  05840014      streq	r0, [r4, #20]					0x00008cd8:  05840014      streq	r0, [r4, #20]
0x00008cdc:  eb001050      bl	0xce24							0x00008cdc:  eb001050      bl	0xce24

----------------									----------------
IN: iobuf_push_filter2									IN: iobuf_push_filter2
0x00008ce0:  e1c620d8      ldrd	r2, [r6, #8]						0x00008ce0:  e1c620d8      ldrd	r2, [r6, #8]
0x00008ce4:  e584603c      str	r6, [r4, #60]						0x00008ce4:  e584603c      str	r6, [r4, #60]
0x00008ce8:  e5966044      ldr	r6, [r6, #68]						0x00008ce8:  e5966044      ldr	r6, [r6, #68]
0x00008cec:  e0833002      add	r3, r3, r2						0x00008cec:  e0833002      add	r3, r3, r2
0x00008cf0:  e59f2130      ldr	r2, [pc, #304]	; 0x8e28				0x00008cf0:  e59f2130      ldr	r2, [pc, #304]	; 0x8e28
0x00008cf4:  e2866001      add	r6, r6, #1	; 0x1					0x00008cf4:  e2866001      add	r6, r6, #1	; 0x1
0x00008cf8:  e584300c      str	r3, [r4, #12]						0x00008cf8:  e584300c      str	r3, [r4, #12]
0x00008cfc:  e3a03000      mov	r3, #0	; 0x0						0x00008cfc:  e3a03000      mov	r3, #0	; 0x0
0x00008d00:  e5840020      str	r0, [r4, #32]						0x00008d00:  e5840020      str	r0, [r4, #32]
0x00008d04:  e5849034      str	r9, [r4, #52]						0x00008d04:  e5849034      str	r9, [r4, #52]
0x00008d08:  e584502c      str	r5, [r4, #44]						0x00008d08:  e584502c      str	r5, [r4, #44]
0x00008d0c:  e5847030      str	r7, [r4, #48]						0x00008d0c:  e5847030      str	r7, [r4, #48]
0x00008d10:  e5846044      str	r6, [r4, #68]						0x00008d10:  e5846044      str	r6, [r4, #68]
0x00008d14:  e584301c      str	r3, [r4, #28]						0x00008d14:  e584301c      str	r3, [r4, #28]
0x00008d18:  e5843018      str	r3, [r4, #24]						0x00008d18:  e5843018      str	r3, [r4, #24]
0x00008d1c:  e5843008      str	r3, [r4, #8]						0x00008d1c:  e5843008      str	r3, [r4, #8]
0x00008d20:  e5843004      str	r3, [r4, #4]						0x00008d20:  e5843004      str	r3, [r4, #4]
0x00008d24:  e5843010      str	r3, [r4, #16]						0x00008d24:  e5843010      str	r3, [r4, #16]
0x00008d28:  e7988002      ldr	r8, [r8, r2]						0x00008d28:  e7988002      ldr	r8, [r8, r2]
0x00008d2c:  e5982000      ldr	r2, [r8]						0x00008d2c:  e5982000      ldr	r2, [r8]
0x00008d30:  e1520003      cmp	r2, r3							0x00008d30:  e1520003      cmp	r2, r3
0x00008d34:  1a000015      bne	0x8d90							0x00008d34:  1a000015      bne	0x8d90

----------------									----------------
IN: iobuf_push_filter2									IN: iobuf_push_filter2
0x00008d38:  e3550000      cmp	r5, #0	; 0x0						0x00008d38:  e3550000      cmp	r5, #0	; 0x0
0x00008d3c:  0a000006      beq	0x8d5c							0x00008d3c:  0a000006      beq	0x8d5c

----------------									----------------
IN: iobuf_push_filter2									IN: iobuf_push_filter2
0x00008d40:  e594203c      ldr	r2, [r4, #60]						0x00008d40:  e594203c      ldr	r2, [r4, #60]
0x00008d44:  e28d1008      add	r1, sp, #8	; 0x8					0x00008d44:  e28d1008      add	r1, sp, #8	; 0x8
0x00008d48:  e5940030      ldr	r0, [r4, #48]						0x00008d48:  e5940030      ldr	r0, [r4, #48]
0x00008d4c:  e3a03000      mov	r3, #0	; 0x0						0x00008d4c:  e3a03000      mov	r3, #0	; 0x0
0x00008d50:  e58d1000      str	r1, [sp]						0x00008d50:  e58d1000      str	r1, [sp]
0x00008d54:  e3a01001      mov	r1, #1	; 0x1						0x00008d54:  e3a01001      mov	r1, #1	; 0x1
0x00008d58:  e12fff35      blx	r5							0x00008d58:  e12fff35      blx	r5

----------------									----------------
IN: block_filter									IN: block_filter
0x000096ec:  e59fc7ec      ldr	ip, [pc, #2028]	; 0x9ee0				0x000096ec:  e59fc7ec      ldr	ip, [pc, #2028]	; 0x9ee0
0x000096f0:  e92d4ff8      push	{r3, r4, r5, r6, r7, r8, r9, sl, fp, lr}		0x000096f0:  e92d4ff8      push	{r3, r4, r5, r6, r7, r8, r9, sl, fp, lr}
0x000096f4:  e1a06001      mov	r6, r1							0x000096f4:  e1a06001      mov	r6, r1
0x000096f8:  e08fc00c      add	ip, pc, ip						0x000096f8:  e08fc00c      add	ip, pc, ip
0x000096fc:  e1a05000      mov	r5, r0							0x000096fc:  e1a05000      mov	r5, r0
0x00009700:  e59fe7dc      ldr	lr, [pc, #2012]	; 0x9ee4				0x00009700:  e59fe7dc      ldr	lr, [pc, #2012]	; 0x9ee4
0x00009704:  e1a0100c      mov	r1, ip							0x00009704:  e1a0100c      mov	r1, ip
0x00009708:  e59d8028      ldr	r8, [sp, #40]						0x00009708:  e59d8028      ldr	r8, [sp, #40]
0x0000970c:  e1a07002      mov	r7, r2							0x0000970c:  e1a07002      mov	r7, r2
0x00009710:  e79c000e      ldr	r0, [ip, lr]						0x00009710:  e79c000e      ldr	r0, [ip, lr]
0x00009714:  e1a0a003      mov	sl, r3							0x00009714:  e1a0a003      mov	sl, r3
0x00009718:  e7901106      ldr	r1, [r0, r6, lsl #2]					0x00009718:  e7901106      ldr	r1, [r0, r6, lsl #2]
0x0000971c:  e59f07c4      ldr	r0, [pc, #1988]	; 0x9ee8				0x0000971c:  e59f07c4      ldr	r0, [pc, #1988]	; 0x9ee8
0x00009720:  e08f0000      add	r0, pc, r0						0x00009720:  e08f0000      add	r0, pc, r0
0x00009724:  eb0015d5      bl	0xee80							0x00009724:  eb0015d5      bl	0xee80

----------------									----------------
IN: block_filter									IN: block_filter
0x00009728:  e5984000      ldr	r4, [r8]						0x00009728:  e5984000      ldr	r4, [r8]
0x0000972c:  e3560003      cmp	r6, #3	; 0x3						0x0000972c:  e3560003      cmp	r6, #3	; 0x3
0x00009730:  0a000019      beq	0x979c							0x00009730:  0a000019      beq	0x979c

----------------									----------------
IN: block_filter									IN: block_filter
0x00009734:  e3560004      cmp	r6, #4	; 0x4						0x00009734:  e3560004      cmp	r6, #4	; 0x4
0x00009738:  0a0000ac      beq	0x99f0							0x00009738:  0a0000ac      beq	0x99f0

----------------									----------------
IN: block_filter									IN: block_filter
0x0000973c:  e3560001      cmp	r6, #1	; 0x1						0x0000973c:  e3560001      cmp	r6, #1	; 0x1
0x00009740:  0a000004      beq	0x9758							0x00009740:  0a000004      beq	0x9758

----------------									----------------
IN: block_filter									IN: block_filter
0x00009758:  e595300c      ldr	r3, [r5, #12]						0x00009758:  e595300c      ldr	r3, [r5, #12]
0x0000975c:  e3530000      cmp	r3, #0	; 0x0						0x0000975c:  e3530000      cmp	r3, #0	; 0x0
0x00009760:  13a03000      movne	r3, #0	; 0x0					0x00009760:  13a03000      movne	r3, #0	; 0x0
0x00009764:  15853008      strne	r3, [r5, #8]					0x00009764:  15853008      strne	r3, [r5, #8]
0x00009768:  1a000004      bne	0x9780							0x00009768:  1a000004      bne	0x9780

----------------									----------------
IN: block_filter									IN: block_filter
0x00009780:  e3a03000      mov	r3, #0	; 0x0						0x00009780:  e3a03000      mov	r3, #0	; 0x0
0x00009784:  e585301c      str	r3, [r5, #28]						0x00009784:  e585301c      str	r3, [r5, #28]
0x00009788:  e1a09003      mov	r9, r3							0x00009788:  e1a09003      mov	r9, r3
0x0000978c:  e5853010      str	r3, [r5, #16]						0x0000978c:  e5853010      str	r3, [r5, #16]
0x00009790:  e1a00009      mov	r0, r9							0x00009790:  e1a00009      mov	r0, r9
0x00009794:  e5853014      str	r3, [r5, #20]						0x00009794:  e5853014      str	r3, [r5, #20]
0x00009798:  e8bd8ff8      pop	{r3, r4, r5, r6, r7, r8, r9, sl, fp, pc}		0x00009798:  e8bd8ff8      pop	{r3, r4, r5, r6, r7, r8, r9, sl, fp, pc}

----------------									----------------
IN: iobuf_push_filter2									IN: iobuf_push_filter2
0x00008d5c:  e28dd034      add	sp, sp, #52	; 0x34					0x00008d5c:  e28dd034      add	sp, sp, #52	; 0x34
0x00008d60:  e8bd83f0      pop	{r4, r5, r6, r7, r8, r9, pc}				0x00008d60:  e8bd83f0      pop	{r4, r5, r6, r7, r8, r9, pc}

----------------									----------------
IN: parse.constprop.0									IN: parse.constprop.0
0x0000d668:  eaffffce      b	0xd5a8							0x0000d668:  eaffffce      b	0xd5a8

----------------									----------------
IN: parse.constprop.0									IN: parse.constprop.0
0x0000d5a8:  e59d30c4      ldr	r3, [sp, #196]						0x0000d5a8:  e59d30c4      ldr	r3, [sp, #196]
0x0000d5ac:  e3530000      cmp	r3, #0	; 0x0						0x0000d5ac:  e3530000      cmp	r3, #0	; 0x0
0x0000d5b0:  03a05000      moveq	r5, #0	; 0x0					0x0000d5b0:  03a05000      moveq	r5, #0	; 0x0
0x0000d5b4:  12055001      andne	r5, r5, #1	; 0x1				0x0000d5b4:  12055001      andne	r5, r5, #1	; 0x1
0x0000d5b8:  e3550000      cmp	r5, #0	; 0x0						0x0000d5b8:  e3550000      cmp	r5, #0	; 0x0
0x0000d5bc:  03a0a001      moveq	sl, #1	; 0x1					0x0000d5bc:  03a0a001      moveq	sl, #1	; 0x1
0x0000d5c0:  0affff69      beq	0xd36c							0x0000d5c0:  0affff69      beq	0xd36c

----------------									----------------
IN: parse.constprop.0									IN: parse.constprop.0
0x0000d424:  ea000090      b	0xd66c							0x0000d424:  ea000090      b	0xd66c

----------------									----------------
IN: parse.constprop.0									IN: parse.constprop.0
0x0000d66c:  e59f0b48      ldr	r0, [pc, #2888]	; 0xe1bc				0x0000d66c:  e59f0b48      ldr	r0, [pc, #2888]	; 0xe1bc
0x0000d670:  e58d3010      str	r3, [sp, #16]						0x0000d670:  e58d3010      str	r3, [sp, #16]
0x0000d674:  e08f0000      add	r0, pc, r0						0x0000d674:  e08f0000      add	r0, pc, r0
0x0000d678:  eb000600      bl	0xee80							0x0000d678:  eb000600      bl	0xee80

----------------									----------------
IN: parse.constprop.0									IN: parse.constprop.0
0x0000d67c:  e59f0b3c      ldr	r0, [pc, #2876]	; 0xe1c0				0x0000d67c:  e59f0b3c      ldr	r0, [pc, #2876]	; 0xe1c0
0x0000d680:  e1a01005      mov	r1, r5							0x0000d680:  e1a01005      mov	r1, r5
0x0000d684:  e08f0000      add	r0, pc, r0						0x0000d684:  e08f0000      add	r0, pc, r0
0x0000d688:  eb0005fc      bl	0xee80							0x0000d688:  eb0005fc      bl	0xee80

----------------									----------------
IN: parse.constprop.0									IN: parse.constprop.0
0x0000d68c:  e59f0b30      ldr	r0, [pc, #2864]	; 0xe1c4				0x0000d68c:  e59f0b30      ldr	r0, [pc, #2864]	; 0xe1c4
0x0000d690:  e08f0000      add	r0, pc, r0						0x0000d690:  e08f0000      add	r0, pc, r0
0x0000d694:  eb0005f9      bl	0xee80							0x0000d694:  eb0005f9      bl	0xee80

----------------									----------------
IN: parse.constprop.0									IN: parse.constprop.0
0x0000d698:  e59f0b28      ldr	r0, [pc, #2856]	; 0xe1c8				0x0000d698:  e59f0b28      ldr	r0, [pc, #2856]	; 0xe1c8
0x0000d69c:  e1a01004      mov	r1, r4							0x0000d69c:  e1a01004      mov	r1, r4
0x0000d6a0:  e08f0000      add	r0, pc, r0						0x0000d6a0:  e08f0000      add	r0, pc, r0
0x0000d6a4:  eb0005f5      bl	0xee80							0x0000d6a4:  eb0005f5      bl	0xee80

----------------									----------------
IN: tfp_format										IN: tfp_format
0x0000eb08:  ea00009f      b	0xed8c							0x0000eb08:  ea00009f      b	0xed8c

----------------									----------------
IN: tfp_format										IN: tfp_format
0x0000ed8c:  e1a00006      mov	r0, r6							0x0000ed8c:  e1a00006      mov	r0, r6
0x0000ed90:  e3a01030      mov	r1, #48	; 0x30						0x0000ed90:  e3a01030      mov	r1, #48	; 0x30
0x0000ed94:  e12fff37      blx	r7							0x0000ed94:  e12fff37      blx	r7

----------------									----------------
IN: tfp_format										IN: tfp_format
0x0000ed98:  e1a00006      mov	r0, r6							0x0000ed98:  e1a00006      mov	r0, r6
0x0000ed9c:  e3a01078      mov	r1, #120	; 0x78					0x0000ed9c:  e3a01078      mov	r1, #120	; 0x78
0x0000eda0:  e12fff37      blx	r7							0x0000eda0:  e12fff37      blx	r7

----------------									----------------
IN: tfp_format										IN: tfp_format
0x0000eda4:  e49a0004      ldr	r0, [sl], #4						0x0000eda4:  e49a0004      ldr	r0, [sl], #4
0x0000eda8:  e1a0300b      mov	r3, fp							0x0000eda8:  e1a0300b      mov	r3, fp
0x0000edac:  e3a02001      mov	r2, #1	; 0x1						0x0000edac:  e3a02001      mov	r2, #1	; 0x1
0x0000edb0:  e3a01010      mov	r1, #16	; 0x10						0x0000edb0:  e3a01010      mov	r1, #16	; 0x10
0x0000edb4:  ebfffeaf      bl	0xe878							0x0000edb4:  ebfffeaf      bl	0xe878

----------------									----------------
IN: tfp_format										IN: tfp_format
0x0000edb8:  e58db000      str	fp, [sp]						0x0000edb8:  e58db000      str	fp, [sp]
0x0000edbc:  e1a03008      mov	r3, r8							0x0000edbc:  e1a03008      mov	r3, r8
0x0000edc0:  e1a02005      mov	r2, r5							0x0000edc0:  e1a02005      mov	r2, r5
0x0000edc4:  e1a01007      mov	r1, r7							0x0000edc4:  e1a01007      mov	r1, r7
0x0000edc8:  e1a00006      mov	r0, r6							0x0000edc8:  e1a00006      mov	r0, r6
0x0000edcc:  ebfffed8      bl	0xe934							0x0000edcc:  ebfffed8      bl	0xe934

----------------									----------------
IN: tfp_format										IN: tfp_format
0x0000edd0:  eaffff18      b	0xea38							0x0000edd0:  eaffff18      b	0xea38

----------------									----------------
IN: parse.constprop.0									IN: parse.constprop.0
0x0000d6a8:  e59f0b1c      ldr	r0, [pc, #2844]	; 0xe1cc				0x0000d6a8:  e59f0b1c      ldr	r0, [pc, #2844]	; 0xe1cc
0x0000d6ac:  e2482012      sub	r2, r8, #18	; 0x12					0x0000d6ac:  e2482012      sub	r2, r8, #18	; 0x12
0x0000d6b0:  e16f2f12      clz	r2, r2							0x0000d6b0:  e16f2f12      clz	r2, r2
0x0000d6b4:  e1a01008      mov	r1, r8							0x0000d6b4:  e1a01008      mov	r1, r8
0x0000d6b8:  e08f0000      add	r0, pc, r0						0x0000d6b8:  e08f0000      add	r0, pc, r0
0x0000d6bc:  e1a022a2      lsr	r2, r2, #5						0x0000d6bc:  e1a022a2      lsr	r2, r2, #5
0x0000d6c0:  eb0005ee      bl	0xee80							0x0000d6c0:  eb0005ee      bl	0xee80

----------------									----------------
IN: parse.constprop.0									IN: parse.constprop.0
0x0000d6c4:  e59f0b04      ldr	r0, [pc, #2820]	; 0xe1d0				0x0000d6c4:  e59f0b04      ldr	r0, [pc, #2820]	; 0xe1d0
0x0000d6c8:  e1a0100a      mov	r1, sl							0x0000d6c8:  e1a0100a      mov	r1, sl
0x0000d6cc:  e08f0000      add	r0, pc, r0						0x0000d6cc:  e08f0000      add	r0, pc, r0
0x0000d6d0:  eb0005ea      bl	0xee80							0x0000d6d0:  eb0005ea      bl	0xee80

----------------									----------------
IN: parse.constprop.0									IN: parse.constprop.0
0x0000d6d4:  e59f0af8      ldr	r0, [pc, #2808]	; 0xe1d4				0x0000d6d4:  e59f0af8      ldr	r0, [pc, #2808]	; 0xe1d4
0x0000d6d8:  e5d41000      ldrb	r1, [r4]						0x0000d6d8:  e5d41000      ldrb	r1, [r4]
0x0000d6dc:  e08f0000      add	r0, pc, r0						0x0000d6dc:  e08f0000      add	r0, pc, r0
0x0000d6e0:  eb0005e6      bl	0xee80							0x0000d6e0:  eb0005e6      bl	0xee80

----------------									----------------
IN: parse.constprop.0									IN: parse.constprop.0
0x0000d6e4:  e3a00014      mov	r0, #20	; 0x14						0x0000d6e4:  e3a00014      mov	r0, #20	; 0x14
0x0000d6e8:  ebfffdcd      bl	0xce24							0x0000d6e8:  ebfffdcd      bl	0xce24

----------------									----------------
IN: parse.constprop.0									IN: parse.constprop.0
0x0000d6ec:  e59d300c      ldr	r3, [sp, #12]						0x0000d6ec:  e59d300c      ldr	r3, [sp, #12]
0x0000d6f0:  e3580012      cmp	r8, #18	; 0x12						0x0000d6f0:  e3580012      cmp	r8, #18	; 0x12
0x0000d6f4:  e1a07000      mov	r7, r0							0x0000d6f4:  e1a07000      mov	r7, r0
0x0000d6f8:  e5830004      str	r0, [r3, #4]						0x0000d6f8:  e5830004      str	r0, [r3, #4]
0x0000d6fc:  e59d3010      ldr	r3, [sp, #16]						0x0000d6fc:  e59d3010      ldr	r3, [sp, #16]
0x0000d700:  e5c0a009      strb	sl, [r0, #9]						0x0000d700:  e5c0a009      strb	sl, [r0, #9]
0x0000d704:  e5c03008      strb	r3, [r0, #8]						0x0000d704:  e5c03008      strb	r3, [r0, #8]
0x0000d708:  e3a03000      mov	r3, #0	; 0x0						0x0000d708:  e3a03000      mov	r3, #0	; 0x0
0x0000d70c:  e5803004      str	r3, [r0, #4]						0x0000d70c:  e5803004      str	r3, [r0, #4]
0x0000d710:  e5803010      str	r3, [r0, #16]						0x0000d710:  e5803010      str	r3, [r0, #16]
0x0000d714:  e5c0300b      strb	r3, [r0, #11]						0x0000d714:  e5c0300b      strb	r3, [r0, #11]
0x0000d718:  e1c030bc      strh	r3, [r0, #12]						0x0000d718:  e1c030bc      strh	r3, [r0, #12]
0x0000d71c:  15c0300a      strbne	r3, [r0, #10]					0x0000d71c:  15c0300a      strbne	r3, [r0, #10]
0x0000d720:  11a03005      movne	r3, r5						0x0000d720:  11a03005      movne	r3, r5
0x0000d724:  0a0002d0      beq	0xe26c							0x0000d724:  0a0002d0      beq	0xe26c

----------------									----------------
IN: parse.constprop.0									IN: parse.constprop.0
0x0000d728:  e2555000      subs	r5, r5, #0	; 0x0					0x0000d728:  e2555000      subs	r5, r5, #0	; 0x0
0x0000d72c:  13a05001      movne	r5, #1	; 0x1					0x0000d72c:  13a05001      movne	r5, #1	; 0x1
0x0000d730:  e3530009      cmp	r3, #9	; 0x9						0x0000d730:  e3530009      cmp	r3, #9	; 0x9
0x0000d734:  83a05000      movhi	r5, #0	; 0x0					0x0000d734:  83a05000      movhi	r5, #0	; 0x0
0x0000d738:  e3550000      cmp	r5, #0	; 0x0						0x0000d738:  e3550000      cmp	r5, #0	; 0x0
0x0000d73c:  1a000311      bne	0xe388							0x0000d73c:  1a000311      bne	0xe388

----------------									----------------
IN: parse.constprop.0									IN: parse.constprop.0
0x0000d740:  e59f5a90      ldr	r5, [pc, #2704]	; 0xe1d8				0x0000d740:  e59f5a90      ldr	r5, [pc, #2704]	; 0xe1d8
0x0000d744:  e1a01003      mov	r1, r3							0x0000d744:  e1a01003      mov	r1, r3
0x0000d748:  e5873000      str	r3, [r7]						0x0000d748:  e5873000      str	r3, [r7]
0x0000d74c:  e08f5005      add	r5, pc, r5						0x0000d74c:  e08f5005      add	r5, pc, r5
0x0000d750:  e1a00005      mov	r0, r5							0x0000d750:  e1a00005      mov	r0, r5
0x0000d754:  eb0005c9      bl	0xee80							0x0000d754:  eb0005c9      bl	0xee80

----------------									----------------
IN: parse.constprop.0									IN: parse.constprop.0
0x0000d758:  e5971000      ldr	r1, [r7]						0x0000d758:  e5971000      ldr	r1, [r7]
0x0000d75c:  e3510000      cmp	r1, #0	; 0x0						0x0000d75c:  e3510000      cmp	r1, #0	; 0x0
0x0000d760:  1a0002ff      bne	0xe364							0x0000d760:  1a0002ff      bne	0xe364

----------------									----------------
IN: parse.constprop.0									IN: parse.constprop.0
0x0000d764:  e59f0a70      ldr	r0, [pc, #2672]	; 0xe1dc				0x0000d764:  e59f0a70      ldr	r0, [pc, #2672]	; 0xe1dc
0x0000d768:  e1a01007      mov	r1, r7							0x0000d768:  e1a01007      mov	r1, r7
0x0000d76c:  e08f0000      add	r0, pc, r0						0x0000d76c:  e08f0000      add	r0, pc, r0
0x0000d770:  eb0005c2      bl	0xee80							0x0000d770:  eb0005c2      bl	0xee80

----------------									----------------
IN: parse.constprop.0									IN: parse.constprop.0
0x0000d774:  e59f0a64      ldr	r0, [pc, #2660]	; 0xe1e0				0x0000d774:  e59f0a64      ldr	r0, [pc, #2660]	; 0xe1e0
0x0000d778:  e1a01004      mov	r1, r4							0x0000d778:  e1a01004      mov	r1, r4
0x0000d77c:  e08f0000      add	r0, pc, r0						0x0000d77c:  e08f0000      add	r0, pc, r0
0x0000d780:  eb0005be      bl	0xee80							0x0000d780:  eb0005be      bl	0xee80

----------------									----------------
IN: parse.constprop.0									IN: parse.constprop.0
0x0000d784:  e59f0a58      ldr	r0, [pc, #2648]	; 0xe1e4				0x0000d784:  e59f0a58      ldr	r0, [pc, #2648]	; 0xe1e4
0x0000d788:  e3a01000      mov	r1, #0	; 0x0						0x0000d788:  e3a01000      mov	r1, #0	; 0x0
0x0000d78c:  e5874010      str	r4, [r7, #16]						0x0000d78c:  e5874010      str	r4, [r7, #16]
0x0000d790:  e08f0000      add	r0, pc, r0						0x0000d790:  e08f0000      add	r0, pc, r0
0x0000d794:  eb0005b9      bl	0xee80							0x0000d794:  eb0005b9      bl	0xee80

----------------									----------------
IN: parse.constprop.0									IN: parse.constprop.0
0x0000d798:  e1a01006      mov	r1, r6							0x0000d798:  e1a01006      mov	r1, r6
0x0000d79c:  e3a00000      mov	r0, #0	; 0x0						0x0000d79c:  e3a00000      mov	r0, #0	; 0x0
0x0000d7a0:  ebfff46c      bl	0xa958							0x0000d7a0:  ebfff46c      bl	0xa958

----------------									----------------
IN: parse.constprop.0									IN: parse.constprop.0
0x0000d7a4:  e2483005      sub	r3, r8, #5	; 0x5					0x0000d7a4:  e2483005      sub	r3, r8, #5	; 0x5
0x0000d7a8:  e3530001      cmp	r3, #1	; 0x1						0x0000d7a8:  e3530001      cmp	r3, #1	; 0x1
0x0000d7ac:  938bb001      orrls	fp, fp, #1	; 0x1				0x0000d7ac:  938bb001      orrls	fp, fp, #1	; 0x1
0x0000d7b0:  e35b0000      cmp	fp, #0	; 0x0						0x0000d7b0:  e35b0000      cmp	fp, #0	; 0x0
0x0000d7b4:  0a000154      beq	0xdd0c							0x0000d7b4:  0a000154      beq	0xdd0c

----------------									----------------
IN: parse.constprop.0									IN: parse.constprop.0
0x0000dd0c:  e3580002      cmp	r8, #2	; 0x2						0x0000dd0c:  e3580002      cmp	r8, #2	; 0x2
0x0000dd10:  13580011      cmpne	r8, #17	; 0x11					0x0000dd10:  13580011      cmpne	r8, #17	; 0x11
0x0000dd14:  0afffea7      beq	0xd7b8							0x0000dd14:  0afffea7      beq	0xd7b8

----------------									----------------
IN: parse.constprop.0									IN: parse.constprop.0
0x0000dd18:  eaffff44      b	0xda30							0x0000dd18:  eaffff44      b	0xda30

----------------									----------------
IN: do_proc_packets									IN: do_proc_packets
0x00010940:  ea000018      b	0x109a8							0x00010940:  ea000018      b	0x109a8

----------------									----------------
IN: do_proc_packets									IN: do_proc_packets
0x000109a8:  e1a00009      mov	r0, r9							0x000109a8:  e1a00009      mov	r0, r9
0x000109ac:  ebfff933      bl	0xee80							0x000109ac:  ebfff933      bl	0xee80

----------------									----------------
IN: do_proc_packets									IN: do_proc_packets
0x000109b0:  e5d53000      ldrb	r3, [r5]						0x000109b0:  e5d53000      ldrb	r3, [r5]
0x000109b4:  e59d2018      ldr	r2, [sp, #24]						0x000109b4:  e59d2018      ldr	r2, [sp, #24]
0x000109b8:  e3530014      cmp	r3, #20	; 0x14						0x000109b8:  e3530014      cmp	r3, #20	; 0x14
0x000109bc:  e592b000      ldr	fp, [r2]						0x000109bc:  e592b000      ldr	fp, [r2]
0x000109c0:  03a03001      moveq	r3, #1	; 0x1					0x000109c0:  03a03001      moveq	r3, #1	; 0x1
0x000109c4:  05843054      streq	r3, [r4, #84]					0x000109c4:  05843054      streq	r3, [r4, #84]
0x000109c8:  0a000002      beq	0x109d8							0x000109c8:  0a000002      beq	0x109d8

----------------									----------------
IN: do_proc_packets									IN: do_proc_packets
0x000109cc:  e3530012      cmp	r3, #18	; 0x12						0x000109cc:  e3530012      cmp	r3, #18	; 0x12
0x000109d0:  03a03001      moveq	r3, #1	; 0x1					0x000109d0:  03a03001      moveq	r3, #1	; 0x1
0x000109d4:  05843058      streq	r3, [r4, #88]					0x000109d4:  05843058      streq	r3, [r4, #88]
0x000109d8:  e35b0000      cmp	fp, #0	; 0x0						0x000109d8:  e35b0000      cmp	fp, #0	; 0x0
0x000109dc:  1a00005d      bne	0x10b58							0x000109dc:  1a00005d      bne	0x10b58

----------------									----------------
IN: do_proc_packets									IN: do_proc_packets
0x000109e0:  e5941048      ldr	r1, [r4, #72]						0x000109e0:  e5941048      ldr	r1, [r4, #72]
0x000109e4:  e3510001      cmp	r1, #1	; 0x1						0x000109e4:  e3510001      cmp	r1, #1	; 0x1
0x000109e8:  8a000056      bhi	0x10b48							0x000109e8:  8a000056      bhi	0x10b48

----------------									----------------
IN: do_proc_packets									IN: do_proc_packets
0x000109ec:  0a0000e1      beq	0x10d78							0x000109ec:  0a0000e1      beq	0x10d78

----------------									----------------
IN: do_proc_packets									IN: do_proc_packets
0x00010d78:  e59f0078      ldr	r0, [pc, #120]	; 0x10df8				0x00010d78:  e59f0078      ldr	r0, [pc, #120]	; 0x10df8
0x00010d7c:  e08f0000      add	r0, pc, r0						0x00010d7c:  e08f0000      add	r0, pc, r0
0x00010d80:  ebfff83e      bl	0xee80							0x00010d80:  ebfff83e      bl	0xee80

----------------									----------------
IN: do_proc_packets									IN: do_proc_packets
0x00010d84:  eaffff19      b	0x109f0							0x00010d84:  eaffff19      b	0x109f0

----------------									----------------
IN: do_proc_packets									IN: do_proc_packets
0x000109f0:  e59f03a4      ldr	r0, [pc, #932]	; 0x10d9c				0x000109f0:  e59f03a4      ldr	r0, [pc, #932]	; 0x10d9c
0x000109f4:  e5951004      ldr	r1, [r5, #4]						0x000109f4:  e5951004      ldr	r1, [r5, #4]
0x000109f8:  e08f0000      add	r0, pc, r0						0x000109f8:  e08f0000      add	r0, pc, r0
0x000109fc:  ebfff91f      bl	0xee80							0x000109fc:  ebfff91f      bl	0xee80

----------------									----------------
IN: do_proc_packets									IN: do_proc_packets
0x00010a00:  e594302c      ldr	r3, [r4, #44]						0x00010a00:  e594302c      ldr	r3, [r4, #44]
0x00010a04:  e28d1024      add	r1, sp, #36	; 0x24					0x00010a04:  e28d1024      add	r1, sp, #36	; 0x24
0x00010a08:  e5952004      ldr	r2, [r5, #4]						0x00010a08:  e5952004      ldr	r2, [r5, #4]
0x00010a0c:  e5940000      ldr	r0, [r4]						0x00010a0c:  e5940000      ldr	r0, [r4]
0x00010a10:  e58d1000      str	r1, [sp]						0x00010a10:  e58d1000      str	r1, [sp]
0x00010a14:  e1a01004      mov	r1, r4							0x00010a14:  e1a01004      mov	r1, r4
0x00010a18:  ebffe6f4      bl	0xa5f0							0x00010a18:  ebffe6f4      bl	0xa5f0

----------------									----------------
IN: decrypt_data									IN: decrypt_data
0x0000a5f0:  e92d47f0      push	{r4, r5, r6, r7, r8, r9, sl, lr}			0x0000a5f0:  e92d47f0      push	{r4, r5, r6, r7, r8, r9, sl, lr}
0x0000a5f4:  e24dd030      sub	sp, sp, #48	; 0x30					0x0000a5f4:  e24dd030      sub	sp, sp, #48	; 0x30
0x0000a5f8:  e1a07000      mov	r7, r0							0x0000a5f8:  e1a07000      mov	r7, r0
0x0000a5fc:  e3a06000      mov	r6, #0	; 0x0						0x0000a5fc:  e3a06000      mov	r6, #0	; 0x0
0x0000a600:  e59f0330      ldr	r0, [pc, #816]	; 0xa938				0x0000a600:  e59f0330      ldr	r0, [pc, #816]	; 0xa938
0x0000a604:  e1a08001      mov	r8, r1							0x0000a604:  e1a08001      mov	r8, r1
0x0000a608:  e59d9050      ldr	r9, [sp, #80]						0x0000a608:  e59d9050      ldr	r9, [sp, #80]
0x0000a60c:  e1a04002      mov	r4, r2							0x0000a60c:  e1a04002      mov	r4, r2
0x0000a610:  e08f0000      add	r0, pc, r0						0x0000a610:  e08f0000      add	r0, pc, r0
0x0000a614:  e1a05003      mov	r5, r3							0x0000a614:  e1a05003      mov	r5, r3
0x0000a618:  eb001218      bl	0xee80							0x0000a618:  eb001218      bl	0xee80

----------------									----------------
IN: decrypt_data									IN: decrypt_data
0x0000a61c:  e5896000      str	r6, [r9]						0x0000a61c:  e5896000      str	r6, [r9]
0x0000a620:  e3a01080      mov	r1, #128	; 0x80					0x0000a620:  e3a01080      mov	r1, #128	; 0x80
0x0000a624:  e3a00001      mov	r0, #1	; 0x1						0x0000a624:  e3a00001      mov	r0, #1	; 0x1
0x0000a628:  eb000a78      bl	0xd010							0x0000a628:  eb000a78      bl	0xd010

----------------									----------------
IN: xtrycalloc										IN: xtrycalloc
0x0000d010:  e3500000      cmp	r0, #0	; 0x0						0x0000d010:  e3500000      cmp	r0, #0	; 0x0
0x0000d014:  13510000      cmpne	r1, #0	; 0x0					0x0000d014:  13510000      cmpne	r1, #0	; 0x0
0x0000d018:  e92d4070      push	{r4, r5, r6, lr}					0x0000d018:  e92d4070      push	{r4, r5, r6, lr}
0x0000d01c:  e0050091      mul	r5, r1, r0						0x0000d01c:  e0050091      mul	r5, r1, r0
0x0000d020:  0a000002      beq	0xd030							0x0000d020:  0a000002      beq	0xd030

----------------									----------------
IN: xtrycalloc										IN: xtrycalloc
0x0000d024:  e730f015      udiv	r0, r5, r0						0x0000d024:  e730f015      udiv	r0, r5, r0
0x0000d028:  e1500001      cmp	r0, r1							0x0000d028:  e1500001      cmp	r0, r1
0x0000d02c:  1a000008      bne	0xd054							0x0000d02c:  1a000008      bne	0xd054

----------------									----------------
IN: xtrycalloc										IN: xtrycalloc
0x0000d030:  e1a00005      mov	r0, r5							0x0000d030:  e1a00005      mov	r0, r5
0x0000d034:  ebffff07      bl	0xcc58							0x0000d034:  ebffff07      bl	0xcc58

----------------									----------------
IN: xtrycalloc										IN: xtrycalloc
0x0000d038:  e2504000      subs	r4, r0, #0	; 0x0					0x0000d038:  e2504000      subs	r4, r0, #0	; 0x0
0x0000d03c:  0a000002      beq	0xd04c							0x0000d03c:  0a000002      beq	0xd04c

----------------									----------------
IN: xtrycalloc										IN: xtrycalloc
0x0000d040:  e1a02005      mov	r2, r5							0x0000d040:  e1a02005      mov	r2, r5
0x0000d044:  e3a01000      mov	r1, #0	; 0x0						0x0000d044:  e3a01000      mov	r1, #0	; 0x0
0x0000d048:  ebffff6c      bl	0xce00							0x0000d048:  ebffff6c      bl	0xce00

----------------									----------------
IN: xtrycalloc										IN: xtrycalloc
0x0000d04c:  e1a00004      mov	r0, r4							0x0000d04c:  e1a00004      mov	r0, r4
0x0000d050:  e8bd8070      pop	{r4, r5, r6, pc}					0x0000d050:  e8bd8070      pop	{r4, r5, r6, pc}

----------------									----------------
IN: decrypt_data									IN: decrypt_data
0x0000a62c:  e1500006      cmp	r0, r6							0x0000a62c:  e1500006      cmp	r0, r6
0x0000a630:  e58d000c      str	r0, [sp, #12]						0x0000a630:  e58d000c      str	r0, [sp, #12]
0x0000a634:  0a0000bd      beq	0xa930							0x0000a634:  0a0000bd      beq	0xa930

----------------									----------------
IN: decrypt_data									IN: decrypt_data
0x0000a638:  e5901078      ldr	r1, [r0, #120]						0x0000a638:  e5901078      ldr	r1, [r0, #120]
0x0000a63c:  e3a03001      mov	r3, #1	; 0x1						0x0000a63c:  e3a03001      mov	r3, #1	; 0x1
0x0000a640:  e5803000      str	r3, [r0]						0x0000a640:  e5803000      str	r3, [r0]
0x0000a644:  e59f02f0      ldr	r0, [pc, #752]	; 0xa93c				0x0000a644:  e59f02f0      ldr	r0, [pc, #752]	; 0xa93c
0x0000a648:  e08f0000      add	r0, pc, r0						0x0000a648:  e08f0000      add	r0, pc, r0
0x0000a64c:  eb00120b      bl	0xee80							0x0000a64c:  eb00120b      bl	0xee80

----------------									----------------
IN: decrypt_data									IN: decrypt_data
0x0000a650:  e59f12e8      ldr	r1, [pc, #744]	; 0xa940				0x0000a650:  e59f12e8      ldr	r1, [pc, #744]	; 0xa940
0x0000a654:  e3a00017      mov	r0, #23	; 0x17						0x0000a654:  e3a00017      mov	r0, #23	; 0x17
0x0000a658:  e58d6000      str	r6, [sp]						0x0000a658:  e58d6000      str	r6, [sp]
0x0000a65c:  e08f1001      add	r1, pc, r1						0x0000a65c:  e08f1001      add	r1, pc, r1
0x0000a660:  e5953000      ldr	r3, [r5]						0x0000a660:  e5953000      ldr	r3, [r5]
0x0000a664:  e5d4200a      ldrb	r2, [r4, #10]						0x0000a664:  e5d4200a      ldrb	r2, [r4, #10]
0x0000a668:  eb001204      bl	0xee80							0x0000a668:  eb001204      bl	0xee80

----------------									----------------
IN: decrypt_data									IN: decrypt_data
0x0000a66c:  e5d4900b      ldrb	r9, [r4, #11]						0x0000a66c:  e5d4900b      ldrb	r9, [r4, #11]
0x0000a670:  e3590000      cmp	r9, #0	; 0x0						0x0000a670:  e3590000      cmp	r9, #0	; 0x0
0x0000a674:  1a000076      bne	0xa854							0x0000a674:  1a000076      bne	0xa854

----------------									----------------
IN: decrypt_data									IN: decrypt_data
0x0000a678:  e5943000      ldr	r3, [r4]						0x0000a678:  e5943000      ldr	r3, [r4]
0x0000a67c:  e2433001      sub	r3, r3, #1	; 0x1					0x0000a67c:  e2433001      sub	r3, r3, #1	; 0x1
0x0000a680:  e3530008      cmp	r3, #8	; 0x8						0x0000a680:  e3530008      cmp	r3, #8	; 0x8
0x0000a684:  9a000081      bls	0xa890							0x0000a684:  9a000081      bls	0xa890

----------------									----------------
IN: decrypt_data									IN: decrypt_data
0x0000a688:  e3a02004      mov	r2, #4	; 0x4						0x0000a688:  e3a02004      mov	r2, #4	; 0x4
0x0000a68c:  e1a01009      mov	r1, r9							0x0000a68c:  e1a01009      mov	r1, r9
0x0000a690:  e28d000c      add	r0, sp, #12	; 0xc					0x0000a690:  e28d000c      add	r0, sp, #12	; 0xc
0x0000a694:  eb0009d9      bl	0xce00							0x0000a694:  eb0009d9      bl	0xce00

----------------									----------------
IN: decrypt_data									IN: decrypt_data
0x0000a698:  e59d600c      ldr	r6, [sp, #12]						0x0000a698:  e59d600c      ldr	r6, [sp, #12]
0x0000a69c:  e3a00040      mov	r0, #64	; 0x40						0x0000a69c:  e3a00040      mov	r0, #64	; 0x40
0x0000a6a0:  eb00096c      bl	0xcc58							0x0000a6a0:  eb00096c      bl	0xcc58

----------------									----------------
IN: decrypt_data									IN: decrypt_data
0x0000a6a4:  e59d300c      ldr	r3, [sp, #12]						0x0000a6a4:  e59d300c      ldr	r3, [sp, #12]
0x0000a6a8:  e5860004      str	r0, [r6, #4]						0x0000a6a8:  e5860004      str	r0, [r6, #4]
0x0000a6ac:  e5930004      ldr	r0, [r3, #4]						0x0000a6ac:  e5930004      ldr	r0, [r3, #4]
0x0000a6b0:  e3500000      cmp	r0, #0	; 0x0						0x0000a6b0:  e3500000      cmp	r0, #0	; 0x0
0x0000a6b4:  0a00009d      beq	0xa930							0x0000a6b4:  0a00009d      beq	0xa930

----------------									----------------
IN: decrypt_data									IN: decrypt_data
0x0000a6b8:  e3a02040      mov	r2, #64	; 0x40						0x0000a6b8:  e3a02040      mov	r2, #64	; 0x40
0x0000a6bc:  e1a01009      mov	r1, r9							0x0000a6bc:  e1a01009      mov	r1, r9
0x0000a6c0:  eb0009ce      bl	0xce00							0x0000a6c0:  eb0009ce      bl	0xce00

----------------									----------------
IN: decrypt_data									IN: decrypt_data
0x0000a6c4:  e59d300c      ldr	r3, [sp, #12]						0x0000a6c4:  e59d300c      ldr	r3, [sp, #12]
0x0000a6c8:  e5952004      ldr	r2, [r5, #4]						0x0000a6c8:  e5952004      ldr	r2, [r5, #4]
0x0000a6cc:  e5930004      ldr	r0, [r3, #4]						0x0000a6cc:  e5930004      ldr	r0, [r3, #4]
0x0000a6d0:  e595100c      ldr	r1, [r5, #12]						0x0000a6d0:  e595100c      ldr	r1, [r5, #12]
0x0000a6d4:  eb00073c      bl	0xc3cc							0x0000a6d4:  eb00073c      bl	0xc3cc

----------------									----------------
IN: _gcry_cipher_setkey									IN: _gcry_cipher_setkey
0x0000c3cc:  e2802030      add	r2, r0, #48	; 0x30					0x0000c3cc:  e2802030      add	r2, r0, #48	; 0x30
0x0000c3d0:  e2800040      add	r0, r0, #64	; 0x40					0x0000c3d0:  e2800040      add	r0, r0, #64	; 0x40
0x0000c3d4:  e92d4010      push	{r4, lr}						0x0000c3d4:  e92d4010      push	{r4, lr}
0x0000c3d8:  e2811004      add	r1, r1, #4	; 0x4					0x0000c3d8:  e2811004      add	r1, r1, #4	; 0x4
0x0000c3dc:  e5513003      ldrb	r3, [r1, #-3]						0x0000c3dc:  e5513003      ldrb	r3, [r1, #-3]
0x0000c3e0:  e5514004      ldrb	r4, [r1, #-4]						0x0000c3e0:  e5514004      ldrb	r4, [r1, #-4]
0x0000c3e4:  e551e002      ldrb	lr, [r1, #-2]						0x0000c3e4:  e551e002      ldrb	lr, [r1, #-2]
0x0000c3e8:  e1a03803      lsl	r3, r3, #16						0x0000c3e8:  e1a03803      lsl	r3, r3, #16
0x0000c3ec:  e551c001      ldrb	ip, [r1, #-1]						0x0000c3ec:  e551c001      ldrb	ip, [r1, #-1]
0x0000c3f0:  e0833c04      add	r3, r3, r4, lsl #24					0x0000c3f0:  e0833c04      add	r3, r3, r4, lsl #24
0x0000c3f4:  e083340e      add	r3, r3, lr, lsl #8					0x0000c3f4:  e083340e      add	r3, r3, lr, lsl #8
0x0000c3f8:  e083300c      add	r3, r3, ip						0x0000c3f8:  e083300c      add	r3, r3, ip
0x0000c3fc:  e4823004      str	r3, [r2], #4						0x0000c3fc:  e4823004      str	r3, [r2], #4

----------------									----------------
IN: _gcry_cipher_setkey									IN: _gcry_cipher_setkey
0x0000c400:  e1500002      cmp	r0, r2							0x0000c400:  e1500002      cmp	r0, r2
0x0000c404:  1afffff3      bne	0xc3d8							0x0000c404:  1afffff3      bne	0xc3d8

----------------									----------------
IN: _gcry_cipher_setkey									IN: _gcry_cipher_setkey
0x0000c3d8:  e2811004      add	r1, r1, #4	; 0x4					0x0000c3d8:  e2811004      add	r1, r1, #4	; 0x4
0x0000c3dc:  e5513003      ldrb	r3, [r1, #-3]						0x0000c3dc:  e5513003      ldrb	r3, [r1, #-3]
0x0000c3e0:  e5514004      ldrb	r4, [r1, #-4]						0x0000c3e0:  e5514004      ldrb	r4, [r1, #-4]
0x0000c3e4:  e551e002      ldrb	lr, [r1, #-2]						0x0000c3e4:  e551e002      ldrb	lr, [r1, #-2]
0x0000c3e8:  e1a03803      lsl	r3, r3, #16						0x0000c3e8:  e1a03803      lsl	r3, r3, #16
0x0000c3ec:  e551c001      ldrb	ip, [r1, #-1]						0x0000c3ec:  e551c001      ldrb	ip, [r1, #-1]
0x0000c3f0:  e0833c04      add	r3, r3, r4, lsl #24					0x0000c3f0:  e0833c04      add	r3, r3, r4, lsl #24
0x0000c3f4:  e083340e      add	r3, r3, lr, lsl #8					0x0000c3f4:  e083340e      add	r3, r3, lr, lsl #8
0x0000c3f8:  e083300c      add	r3, r3, ip						0x0000c3f8:  e083300c      add	r3, r3, ip
0x0000c3fc:  e4823004      str	r3, [r2], #4						0x0000c3fc:  e4823004      str	r3, [r2], #4

----------------									----------------
IN: _gcry_cipher_setkey									IN: _gcry_cipher_setkey
0x0000c408:  e3a00000      mov	r0, #0	; 0x0						0x0000c408:  e3a00000      mov	r0, #0	; 0x0
0x0000c40c:  e8bd8010      pop	{r4, pc}						0x0000c40c:  e8bd8010      pop	{r4, pc}

----------------									----------------
IN: decrypt_data									IN: decrypt_data
0x0000a6d8:  e5943010      ldr	r3, [r4, #16]						0x0000a6d8:  e5943010      ldr	r3, [r4, #16]
0x0000a6dc:  e1a06000      mov	r6, r0							0x0000a6dc:  e1a06000      mov	r6, r0
0x0000a6e0:  e3530000      cmp	r3, #0	; 0x0						0x0000a6e0:  e3530000      cmp	r3, #0	; 0x0
0x0000a6e4:  0a00005e      beq	0xa864							0x0000a6e4:  0a00005e      beq	0xa864

----------------									----------------
IN: decrypt_data									IN: decrypt_data
0x0000a6e8:  e59d300c      ldr	r3, [sp, #12]						0x0000a6e8:  e59d300c      ldr	r3, [sp, #12]
0x0000a6ec:  e1a01009      mov	r1, r9							0x0000a6ec:  e1a01009      mov	r1, r9
0x0000a6f0:  e3a02008      mov	r2, #8	; 0x8						0x0000a6f0:  e3a02008      mov	r2, #8	; 0x8
0x0000a6f4:  e5930004      ldr	r0, [r3, #4]						0x0000a6f4:  e5930004      ldr	r0, [r3, #4]
0x0000a6f8:  eb000744      bl	0xc410							0x0000a6f8:  eb000744      bl	0xc410

----------------									----------------
IN: _gcry_cipher_setiv									IN: _gcry_cipher_setiv
0x0000c410:  e3510000      cmp	r1, #0	; 0x0						0x0000c410:  e3510000      cmp	r1, #0	; 0x0
0x0000c414:  e3a0c000      mov	ip, #0	; 0x0						0x0000c414:  e3a0c000      mov	ip, #0	; 0x0
0x0000c418:  e92d4010      push	{r4, lr}						0x0000c418:  e92d4010      push	{r4, lr}
0x0000c41c:  e580c020      str	ip, [r0, #32]						0x0000c41c:  e580c020      str	ip, [r0, #32]
0x0000c420:  0a000002      beq	0xc430							0x0000c420:  0a000002      beq	0xc430

----------------									----------------
IN: _gcry_cipher_setiv									IN: _gcry_cipher_setiv
0x0000c430:  eb000272      bl	0xce00							0x0000c430:  eb000272      bl	0xce00

----------------									----------------
IN: _gcry_cipher_setiv									IN: _gcry_cipher_setiv
0x0000c434:  e3a00000      mov	r0, #0	; 0x0						0x0000c434:  e3a00000      mov	r0, #0	; 0x0
0x0000c438:  e8bd8010      pop	{r4, pc}						0x0000c438:  e8bd8010      pop	{r4, pc}

----------------									----------------
IN: decrypt_data									IN: decrypt_data
0x0000a6fc:  e5941000      ldr	r1, [r4]						0x0000a6fc:  e5941000      ldr	r1, [r4]
0x0000a700:  e3510000      cmp	r1, #0	; 0x0						0x0000a700:  e3510000      cmp	r1, #0	; 0x0
0x0000a704:  028da00f      addeq	sl, sp, #15	; 0xf				0x0000a704:  028da00f      addeq	sl, sp, #15	; 0xf
0x0000a708:  028d9019      addeq	r9, sp, #25	; 0x19				0x0000a708:  028d9019      addeq	r9, sp, #25	; 0x19
0x0000a70c:  0a000009      beq	0xa738							0x0000a70c:  0a000009      beq	0xa738

----------------									----------------
IN: decrypt_data									IN: decrypt_data
0x0000a738:  e5942010      ldr	r2, [r4, #16]						0x0000a738:  e5942010      ldr	r2, [r4, #16]
0x0000a73c:  e5923010      ldr	r3, [r2, #16]						0x0000a73c:  e5923010      ldr	r3, [r2, #16]
0x0000a740:  e1a00002      mov	r0, r2							0x0000a740:  e1a00002      mov	r0, r2
0x0000a744:  e3530000      cmp	r3, #0	; 0x0						0x0000a744:  e3530000      cmp	r3, #0	; 0x0
0x0000a748:  1a000004      bne	0xa760							0x0000a748:  1a000004      bne	0xa760

----------------									----------------
IN: decrypt_data									IN: decrypt_data
0x0000a74c:  e5923018      ldr	r3, [r2, #24]						0x0000a74c:  e5923018      ldr	r3, [r2, #24]
0x0000a750:  e592101c      ldr	r1, [r2, #28]						0x0000a750:  e592101c      ldr	r1, [r2, #28]
0x0000a754:  e1530001      cmp	r3, r1							0x0000a754:  e1530001      cmp	r3, r1
0x0000a758:  e2831001      add	r1, r3, #1	; 0x1					0x0000a758:  e2831001      add	r1, r3, #1	; 0x1
0x0000a75c:  3affffec      bcc	0xa714							0x0000a75c:  3affffec      bcc	0xa714

----------------									----------------
IN: decrypt_data									IN: decrypt_data
0x0000a760:  ebfffa73      bl	0x9134							0x0000a760:  ebfffa73      bl	0x9134

----------------									----------------
IN: iobuf_readbyte									IN: iobuf_readbyte
0x00009134:  e92d40f0      push	{r4, r5, r6, r7, lr}					0x00009134:  e92d40f0      push	{r4, r5, r6, r7, lr}
0x00009138:  e24dd01c      sub	sp, sp, #28	; 0x1c					0x00009138:  e24dd01c      sub	sp, sp, #28	; 0x1c
0x0000913c:  e59f62c4      ldr	r6, [pc, #708]	; 0x9408				0x0000913c:  e59f62c4      ldr	r6, [pc, #708]	; 0x9408
0x00009140:  e1a04000      mov	r4, r0							0x00009140:  e1a04000      mov	r4, r0
0x00009144:  e58d000c      str	r0, [sp, #12]						0x00009144:  e58d000c      str	r0, [sp, #12]
0x00009148:  e5d00000      ldrb	r0, [r0]						0x00009148:  e5d00000      ldrb	r0, [r0]
0x0000914c:  e08f6006      add	r6, pc, r6						0x0000914c:  e08f6006      add	r6, pc, r6
0x00009150:  e2403002      sub	r3, r0, #2	; 0x2					0x00009150:  e2403002      sub	r3, r0, #2	; 0x2
0x00009154:  e3530001      cmp	r3, #1	; 0x1						0x00009154:  e3530001      cmp	r3, #1	; 0x1
0x00009158:  9a00009e      bls	0x93d8							0x00009158:  9a00009e      bls	0x93d8

----------------									----------------
IN: iobuf_readbyte									IN: iobuf_readbyte
0x0000915c:  e5943004      ldr	r3, [r4, #4]						0x0000915c:  e5943004      ldr	r3, [r4, #4]
0x00009160:  e3530000      cmp	r3, #0	; 0x0						0x00009160:  e3530000      cmp	r3, #0	; 0x0
0x00009164:  1a00000d      bne	0x91a0							0x00009164:  1a00000d      bne	0x91a0

----------------									----------------
IN: iobuf_readbyte									IN: iobuf_readbyte
0x00009168:  e5941018      ldr	r1, [r4, #24]						0x00009168:  e5941018      ldr	r1, [r4, #24]
0x0000916c:  e594201c      ldr	r2, [r4, #28]						0x0000916c:  e594201c      ldr	r2, [r4, #28]
0x00009170:  e1510002      cmp	r1, r2							0x00009170:  e1510002      cmp	r1, r2
0x00009174:  2a00000e      bcs	0x91b4							0x00009174:  2a00000e      bcs	0x91b4

----------------									----------------
IN: iobuf_readbyte									IN: iobuf_readbyte
0x000091b4:  e3500001      cmp	r0, #1	; 0x1						0x000091b4:  e3500001      cmp	r0, #1	; 0x1
0x000091b8:  0afffffb      beq	0x91ac							0x000091b8:  0afffffb      beq	0x91ac

----------------									----------------
IN: iobuf_readbyte									IN: iobuf_readbyte
0x000091bc:  e5940020      ldr	r0, [r4, #32]						0x000091bc:  e5940020      ldr	r0, [r4, #32]
0x000091c0:  e0422001      sub	r2, r2, r1						0x000091c0:  e0422001      sub	r2, r2, r1
0x000091c4:  e584201c      str	r2, [r4, #28]						0x000091c4:  e584201c      str	r2, [r4, #28]
0x000091c8:  e0801001      add	r1, r0, r1						0x000091c8:  e0801001      add	r1, r0, r1
0x000091cc:  eb000f68      bl	0xcf74							0x000091cc:  eb000f68      bl	0xcf74

----------------									----------------
IN: memmove										IN: memmove
0x0000cf74:  e1500001      cmp	r0, r1							0x0000cf74:  e1500001      cmp	r0, r1
0x0000cf78:  9a00000b      bls	0xcfac							0x0000cf78:  9a00000b      bls	0xcfac

----------------									----------------
IN: memmove										IN: memmove
0x0000cfac:  e3520000      cmp	r2, #0	; 0x0						0x0000cfac:  e3520000      cmp	r2, #0	; 0x0
0x0000cfb0:  012fff1e      bxeq	lr							0x0000cfb0:  012fff1e      bxeq	lr

----------------									----------------
IN: iobuf_readbyte									IN: iobuf_readbyte
0x000091d0:  e594301c      ldr	r3, [r4, #28]						0x000091d0:  e594301c      ldr	r3, [r4, #28]
0x000091d4:  e3a02000      mov	r2, #0	; 0x0						0x000091d4:  e3a02000      mov	r2, #0	; 0x0
0x000091d8:  e5842018      str	r2, [r4, #24]						0x000091d8:  e5842018      str	r2, [r4, #24]
0x000091dc:  e1530002      cmp	r3, r2							0x000091dc:  e1530002      cmp	r3, r2
0x000091e0:  0a00000a      beq	0x9210							0x000091e0:  0a00000a      beq	0x9210

----------------									----------------
IN: iobuf_readbyte									IN: iobuf_readbyte
0x00009210:  e5942024      ldr	r2, [r4, #36]						0x00009210:  e5942024      ldr	r2, [r4, #36]
0x00009214:  e3520000      cmp	r2, #0	; 0x0						0x00009214:  e3520000      cmp	r2, #0	; 0x0
0x00009218:  0a000015      beq	0x9274							0x00009218:  0a000015      beq	0x9274

----------------									----------------
IN: iobuf_readbyte									IN: iobuf_readbyte
0x00009274:  e5942028      ldr	r2, [r4, #40]						0x00009274:  e5942028      ldr	r2, [r4, #40]
0x00009278:  e3520000      cmp	r2, #0	; 0x0						0x00009278:  e3520000      cmp	r2, #0	; 0x0
0x0000927c:  1affffca      bne	0x91ac							0x0000927c:  1affffca      bne	0x91ac

----------------									----------------
IN: iobuf_readbyte									IN: iobuf_readbyte
0x00009280:  e594502c      ldr	r5, [r4, #44]						0x00009280:  e594502c      ldr	r5, [r4, #44]
0x00009284:  e3550000      cmp	r5, #0	; 0x0						0x00009284:  e3550000      cmp	r5, #0	; 0x0
0x00009288:  0affffc7      beq	0x91ac							0x00009288:  0affffc7      beq	0x91ac

----------------									----------------
IN: iobuf_readbyte									IN: iobuf_readbyte
0x0000928c:  e5942014      ldr	r2, [r4, #20]						0x0000928c:  e5942014      ldr	r2, [r4, #20]
0x00009290:  e0422003      sub	r2, r2, r3						0x00009290:  e0422003      sub	r2, r2, r3
0x00009294:  e58d2010      str	r2, [sp, #16]						0x00009294:  e58d2010      str	r2, [sp, #16]
0x00009298:  e3520000      cmp	r2, #0	; 0x0						0x00009298:  e3520000      cmp	r2, #0	; 0x0
0x0000929c:  0a000042      beq	0x93ac							0x0000929c:  0a000042      beq	0x93ac

----------------									----------------
IN: iobuf_readbyte									IN: iobuf_readbyte
0x000092a0:  e5942020      ldr	r2, [r4, #32]						0x000092a0:  e5942020      ldr	r2, [r4, #32]
0x000092a4:  e28d1010      add	r1, sp, #16	; 0x10					0x000092a4:  e28d1010      add	r1, sp, #16	; 0x10
0x000092a8:  e5940030      ldr	r0, [r4, #48]						0x000092a8:  e5940030      ldr	r0, [r4, #48]
0x000092ac:  e0823003      add	r3, r2, r3						0x000092ac:  e0823003      add	r3, r2, r3
0x000092b0:  e594203c      ldr	r2, [r4, #60]						0x000092b0:  e594203c      ldr	r2, [r4, #60]
0x000092b4:  e58d1000      str	r1, [sp]						0x000092b4:  e58d1000      str	r1, [sp]
0x000092b8:  e3a01003      mov	r1, #3	; 0x3						0x000092b8:  e3a01003      mov	r1, #3	; 0x3
0x000092bc:  e12fff35      blx	r5							0x000092bc:  e12fff35      blx	r5

----------------									----------------
IN: block_filter									IN: block_filter
0x0000979c:  e59f0748      ldr	r0, [pc, #1864]	; 0x9eec				0x0000979c:  e59f0748      ldr	r0, [pc, #1864]	; 0x9eec
0x000097a0:  e1a01004      mov	r1, r4							0x000097a0:  e1a01004      mov	r1, r4
0x000097a4:  e08f0000      add	r0, pc, r0						0x000097a4:  e08f0000      add	r0, pc, r0
0x000097a8:  eb0015b4      bl	0xee80							0x000097a8:  eb0015b4      bl	0xee80

----------------									----------------
IN: block_filter									IN: block_filter
0x000097ac:  e1a00004      mov	r0, r4							0x000097ac:  e1a00004      mov	r0, r4
0x000097b0:  eb0015b2      bl	0xee80							0x000097b0:  eb0015b2      bl	0xee80

----------------									----------------
IN: block_filter									IN: block_filter
0x000097b4:  e595901c      ldr	r9, [r5, #28]						0x000097b4:  e595901c      ldr	r9, [r5, #28]
0x000097b8:  e3590000      cmp	r9, #0	; 0x0						0x000097b8:  e3590000      cmp	r9, #0	; 0x0
0x000097bc:  13a06000      movne	r6, #0	; 0x0					0x000097bc:  13a06000      movne	r6, #0	; 0x0
0x000097c0:  13e09000      mvnne	r9, #0	; 0x0					0x000097c0:  13e09000      mvnne	r9, #0	; 0x0
0x000097c4:  1a00001f      bne	0x9848							0x000097c4:  1a00001f      bne	0x9848

----------------									----------------
IN: block_filter									IN: block_filter
0x000097c8:  e3540000      cmp	r4, #0	; 0x0						0x000097c8:  e3540000      cmp	r4, #0	; 0x0
0x000097cc:  0a0001bc      beq	0x9ec4							0x000097cc:  0a0001bc      beq	0x9ec4

----------------									----------------
IN: block_filter									IN: block_filter
0x000097d0:  e5953004      ldr	r3, [r5, #4]						0x000097d0:  e5953004      ldr	r3, [r5, #4]
0x000097d4:  e3530000      cmp	r3, #0	; 0x0						0x000097d4:  e3530000      cmp	r3, #0	; 0x0
0x000097d8:  e1a06003      mov	r6, r3							0x000097d8:  e1a06003      mov	r6, r3
0x000097dc:  11a06009      movne	r6, r9						0x000097dc:  11a06009      movne	r6, r9
0x000097e0:  0a00001b      beq	0x9854							0x000097e0:  0a00001b      beq	0x9854

----------------									----------------
IN: block_filter									IN: block_filter
0x00009854:  e595200c      ldr	r2, [r5, #12]						0x00009854:  e595200c      ldr	r2, [r5, #12]
0x00009858:  e3520002      cmp	r2, #2	; 0x2						0x00009858:  e3520002      cmp	r2, #2	; 0x2
0x0000985c:  0a00004c      beq	0x9994							0x0000985c:  0a00004c      beq	0x9994

----------------									----------------
IN: block_filter									IN: block_filter
0x00009860:  e3520000      cmp	r2, #0	; 0x0						0x00009860:  e3520000      cmp	r2, #0	; 0x0
0x00009864:  0affffde      beq	0x97e4							0x00009864:  0affffde      beq	0x97e4

----------------									----------------
IN: block_filter									IN: block_filter
0x00009868:  e59f0684      ldr	r0, [pc, #1668]	; 0x9ef4				0x00009868:  e59f0684      ldr	r0, [pc, #1668]	; 0x9ef4
0x0000986c:  e08f0000      add	r0, pc, r0						0x0000986c:  e08f0000      add	r0, pc, r0
0x00009870:  eb001582      bl	0xee80							0x00009870:  eb001582      bl	0xee80

----------------									----------------
IN: block_filter									IN: block_filter
0x00009874:  e5953018      ldr	r3, [r5, #24]						0x00009874:  e5953018      ldr	r3, [r5, #24]
0x00009878:  e3530000      cmp	r3, #0	; 0x0						0x00009878:  e3530000      cmp	r3, #0	; 0x0
0x0000987c:  0a00000f      beq	0x98c0							0x0000987c:  0a00000f      beq	0x98c0

----------------									----------------
IN: block_filter									IN: block_filter
0x00009880:  e35300bf      cmp	r3, #191	; 0xbf					0x00009880:  e35300bf      cmp	r3, #191	; 0xbf
0x00009884:  e3a02000      mov	r2, #0	; 0x0						0x00009884:  e3a02000      mov	r2, #0	; 0x0
0x00009888:  e5852018      str	r2, [r5, #24]						0x00009888:  e5852018      str	r2, [r5, #24]
0x0000988c:  ca00001b      bgt	0x9900							0x0000988c:  ca00001b      bgt	0x9900

----------------									----------------
IN: block_filter									IN: block_filter
0x00009900:  e35300df      cmp	r3, #223	; 0xdf					0x00009900:  e35300df      cmp	r3, #223	; 0xdf
0x00009904:  ca000032      bgt	0x99d4							0x00009904:  ca000032      bgt	0x99d4

----------------									----------------
IN: block_filter									IN: block_filter
0x000099d4:  e35300ff      cmp	r3, #255	; 0xff					0x000099d4:  e35300ff      cmp	r3, #255	; 0xff
0x000099d8:  0a000063      beq	0x9b6c							0x000099d8:  0a000063      beq	0x9b6c

----------------									----------------
IN: block_filter									IN: block_filter
0x000099dc:  e203301f      and	r3, r3, #31	; 0x1f					0x000099dc:  e203301f      and	r3, r3, #31	; 0x1f
0x000099e0:  e3a02001      mov	r2, #1	; 0x1						0x000099e0:  e3a02001      mov	r2, #1	; 0x1
0x000099e4:  e1a03312      lsl	r3, r2, r3						0x000099e4:  e1a03312      lsl	r3, r2, r3
0x000099e8:  e5853004      str	r3, [r5, #4]						0x000099e8:  e5853004      str	r3, [r5, #4]
0x000099ec:  eaffff7c      b	0x97e4							0x000099ec:  eaffff7c      b	0x97e4

----------------									----------------
IN: block_filter									IN: block_filter
0x000097e4:  e1a02003      mov	r2, r3							0x000097e4:  e1a02003      mov	r2, r3
0x000097e8:  e3520000      cmp	r2, #0	; 0x0						0x000097e8:  e3520000      cmp	r2, #0	; 0x0
0x000097ec:  e1a0100a      mov	r1, sl							0x000097ec:  e1a0100a      mov	r1, sl
0x000097f0:  e1a00007      mov	r0, r7							0x000097f0:  e1a00007      mov	r0, r7
0x000097f4:  0a000016      beq	0x9854							0x000097f4:  0a000016      beq	0x9854

----------------									----------------
IN: block_filter									IN: block_filter
0x000097f8:  e1520004      cmp	r2, r4							0x000097f8:  e1520004      cmp	r2, r4
0x000097fc:  31a0b002      movcc	fp, r2						0x000097fc:  31a0b002      movcc	fp, r2

----------------									----------------
IN: block_filter									IN: block_filter
0x00009800:  21a0b004      movcs	fp, r4						0x00009800:  21a0b004      movcs	fp, r4
0x00009804:  e1a0200b      mov	r2, fp							0x00009804:  e1a0200b      mov	r2, fp
0x00009808:  ebffff02      bl	0x9418							0x00009808:  ebffff02      bl	0x9418

----------------									----------------
IN: iobuf_read										IN: iobuf_read
0x00009418:  e92d41f0      push	{r4, r5, r6, r7, r8, lr}				0x00009418:  e92d41f0      push	{r4, r5, r6, r7, r8, lr}
0x0000941c:  e1a06000      mov	r6, r0							0x0000941c:  e1a06000      mov	r6, r0
0x00009420:  e59f0138      ldr	r0, [pc, #312]	; 0x9560				0x00009420:  e59f0138      ldr	r0, [pc, #312]	; 0x9560
0x00009424:  e1a07002      mov	r7, r2							0x00009424:  e1a07002      mov	r7, r2
0x00009428:  e5962004      ldr	r2, [r6, #4]						0x00009428:  e5962004      ldr	r2, [r6, #4]
0x0000942c:  e1a04001      mov	r4, r1							0x0000942c:  e1a04001      mov	r4, r1
0x00009430:  e08f0000      add	r0, pc, r0						0x00009430:  e08f0000      add	r0, pc, r0
0x00009434:  e1a01007      mov	r1, r7							0x00009434:  e1a01007      mov	r1, r7
0x00009438:  eb001690      bl	0xee80							0x00009438:  eb001690      bl	0xee80

----------------									----------------
IN: iobuf_read										IN: iobuf_read
0x0000943c:  e5d63000      ldrb	r3, [r6]						0x0000943c:  e5d63000      ldrb	r3, [r6]
0x00009440:  e2433002      sub	r3, r3, #2	; 0x2					0x00009440:  e2433002      sub	r3, r3, #2	; 0x2
0x00009444:  e3530001      cmp	r3, #1	; 0x1						0x00009444:  e3530001      cmp	r3, #1	; 0x1
0x00009448:  9a00003f      bls	0x954c							0x00009448:  9a00003f      bls	0x954c

----------------									----------------
IN: iobuf_read										IN: iobuf_read
0x0000944c:  e5965004      ldr	r5, [r6, #4]						0x0000944c:  e5965004      ldr	r5, [r6, #4]
0x00009450:  e3550000      cmp	r5, #0	; 0x0						0x00009450:  e3550000      cmp	r5, #0	; 0x0
0x00009454:  0a000011      beq	0x94a0							0x00009454:  0a000011      beq	0x94a0

----------------									----------------
IN: iobuf_read										IN: iobuf_read
0x000094a0:  e1550007      cmp	r5, r7							0x000094a0:  e1550007      cmp	r5, r7
0x000094a4:  3a00001a      bcc	0x9514							0x000094a4:  3a00001a      bcc	0x9514

----------------									----------------
IN: iobuf_read										IN: iobuf_read
0x00009514:  e5963018      ldr	r3, [r6, #24]						0x00009514:  e5963018      ldr	r3, [r6, #24]
0x00009518:  e596201c      ldr	r2, [r6, #28]						0x00009518:  e596201c      ldr	r2, [r6, #28]
0x0000951c:  e0478005      sub	r8, r7, r5						0x0000951c:  e0478005      sub	r8, r7, r5
0x00009520:  e1530002      cmp	r3, r2							0x00009520:  e1530002      cmp	r3, r2
0x00009524:  e0421003      sub	r1, r2, r3						0x00009524:  e0421003      sub	r1, r2, r3
0x00009528:  3affffe3      bcc	0x94bc							0x00009528:  3affffe3      bcc	0x94bc

----------------									----------------
IN: iobuf_read										IN: iobuf_read
0x000094bc:  e1580001      cmp	r8, r1							0x000094bc:  e1580001      cmp	r8, r1
0x000094c0:  21a08001      movcs	r8, r1						0x000094c0:  21a08001      movcs	r8, r1
0x000094c4:  e3540000      cmp	r4, #0	; 0x0						0x000094c4:  e3540000      cmp	r4, #0	; 0x0
0x000094c8:  e0832008      add	r2, r3, r8						0x000094c8:  e0832008      add	r2, r3, r8
0x000094cc:  0a000019      beq	0x9538							0x000094cc:  0a000019      beq	0x9538

----------------									----------------
IN: iobuf_read										IN: iobuf_read
0x000094d0:  e5961020      ldr	r1, [r6, #32]						0x000094d0:  e5961020      ldr	r1, [r6, #32]
0x000094d4:  e1a00004      mov	r0, r4							0x000094d4:  e1a00004      mov	r0, r4
0x000094d8:  e0855008      add	r5, r5, r8						0x000094d8:  e0855008      add	r5, r5, r8
0x000094dc:  e1a02008      mov	r2, r8							0x000094dc:  e1a02008      mov	r2, r8
0x000094e0:  e0811003      add	r1, r1, r3						0x000094e0:  e0811003      add	r1, r1, r3
0x000094e4:  e0844008      add	r4, r4, r8						0x000094e4:  e0844008      add	r4, r4, r8
0x000094e8:  eb000e7b      bl	0xcedc							0x000094e8:  eb000e7b      bl	0xcedc

----------------									----------------
IN: iobuf_read										IN: iobuf_read
0x000094ec:  e5963018      ldr	r3, [r6, #24]						0x000094ec:  e5963018      ldr	r3, [r6, #24]
0x000094f0:  e1570005      cmp	r7, r5							0x000094f0:  e1570005      cmp	r7, r5
0x000094f4:  e0833008      add	r3, r3, r8						0x000094f4:  e0833008      add	r3, r3, r8
0x000094f8:  e5863018      str	r3, [r6, #24]						0x000094f8:  e5863018      str	r3, [r6, #24]
0x000094fc:  9affffe9      bls	0x94a8							0x000094fc:  9affffe9      bls	0x94a8

----------------									----------------
IN: iobuf_read										IN: iobuf_read
0x000094a8:  e5963008      ldr	r3, [r6, #8]						0x000094a8:  e5963008      ldr	r3, [r6, #8]
0x000094ac:  e0833005      add	r3, r3, r5						0x000094ac:  e0833005      add	r3, r3, r5
0x000094b0:  e5863008      str	r3, [r6, #8]						0x000094b0:  e5863008      str	r3, [r6, #8]
0x000094b4:  e1a00005      mov	r0, r5							0x000094b4:  e1a00005      mov	r0, r5
0x000094b8:  e8bd81f0      pop	{r4, r5, r6, r7, r8, pc}				0x000094b8:  e8bd81f0      pop	{r4, r5, r6, r7, r8, pc}

----------------									----------------
IN: block_filter									IN: block_filter
0x0000980c:  e15b0000      cmp	fp, r0							0x0000980c:  e15b0000      cmp	fp, r0
0x00009810:  e08aa000      add	sl, sl, r0						0x00009810:  e08aa000      add	sl, sl, r0
0x00009814:  da000021      ble	0x98a0							0x00009814:  da000021      ble	0x98a0

----------------									----------------
IN: block_filter									IN: block_filter
0x000098a0:  e5953004      ldr	r3, [r5, #4]						0x000098a0:  e5953004      ldr	r3, [r5, #4]
0x000098a4:  e0544000      subs	r4, r4, r0						0x000098a4:  e0544000      subs	r4, r4, r0
0x000098a8:  e0432000      sub	r2, r3, r0						0x000098a8:  e0432000      sub	r2, r3, r0
0x000098ac:  e0866000      add	r6, r6, r0						0x000098ac:  e0866000      add	r6, r6, r0
0x000098b0:  e1a03002      mov	r3, r2							0x000098b0:  e1a03002      mov	r3, r2
0x000098b4:  e5852004      str	r2, [r5, #4]						0x000098b4:  e5852004      str	r2, [r5, #4]
0x000098b8:  1affffca      bne	0x97e8							0x000098b8:  1affffca      bne	0x97e8

----------------									----------------
IN: block_filter									IN: block_filter
0x000098bc:  eaffffe1      b	0x9848							0x000098bc:  eaffffe1      b	0x9848

----------------									----------------
IN: block_filter									IN: block_filter
0x00009848:  e5886000      str	r6, [r8]						0x00009848:  e5886000      str	r6, [r8]
0x0000984c:  e1a00009      mov	r0, r9							0x0000984c:  e1a00009      mov	r0, r9
0x00009850:  e8bd8ff8      pop	{r3, r4, r5, r6, r7, r8, r9, sl, fp, pc}		0x00009850:  e8bd8ff8      pop	{r3, r4, r5, r6, r7, r8, r9, sl, fp, pc}

----------------									----------------
IN: iobuf_readbyte									IN: iobuf_readbyte
0x000092c0:  e594201c      ldr	r2, [r4, #28]						0x000092c0:  e594201c      ldr	r2, [r4, #28]
0x000092c4:  e3700001      cmn	r0, #1	; 0x1						0x000092c4:  e3700001      cmn	r0, #1	; 0x1
0x000092c8:  e59d3010      ldr	r3, [sp, #16]						0x000092c8:  e59d3010      ldr	r3, [sp, #16]
0x000092cc:  e1a05000      mov	r5, r0							0x000092cc:  e1a05000      mov	r5, r0
0x000092d0:  e0823003      add	r3, r2, r3						0x000092d0:  e0823003      add	r3, r2, r3
0x000092d4:  e584301c      str	r3, [r4, #28]						0x000092d4:  e584301c      str	r3, [r4, #28]
0x000092d8:  1a00002d      bne	0x9394							0x000092d8:  1a00002d      bne	0x9394

----------------									----------------
IN: iobuf_readbyte									IN: iobuf_readbyte
0x00009394:  e3500000      cmp	r0, #0	; 0x0						0x00009394:  e3500000      cmp	r0, #0	; 0x0
0x00009398:  0a000002      beq	0x93a8							0x00009398:  0a000002      beq	0x93a8

----------------									----------------
IN: iobuf_readbyte									IN: iobuf_readbyte
0x000093a8:  e5942018      ldr	r2, [r4, #24]						0x000093a8:  e5942018      ldr	r2, [r4, #24]
0x000093ac:  e1520003      cmp	r2, r3							0x000093ac:  e1520003      cmp	r2, r3
0x000093b0:  3affff91      bcc	0x91fc							0x000093b0:  3affff91      bcc	0x91fc

----------------									----------------
IN: iobuf_readbyte									IN: iobuf_readbyte
0x000091fc:  e5943020      ldr	r3, [r4, #32]						0x000091fc:  e5943020      ldr	r3, [r4, #32]
0x00009200:  e2821001      add	r1, r2, #1	; 0x1					0x00009200:  e2821001      add	r1, r2, #1	; 0x1
0x00009204:  e5841018      str	r1, [r4, #24]						0x00009204:  e5841018      str	r1, [r4, #24]
0x00009208:  e7d35002      ldrb	r5, [r3, r2]						0x00009208:  e7d35002      ldrb	r5, [r3, r2]
0x0000920c:  eaffffdd      b	0x9188							0x0000920c:  eaffffdd      b	0x9188

----------------									----------------
IN: iobuf_readbyte									IN: iobuf_readbyte
0x00009188:  e5943008      ldr	r3, [r4, #8]						0x00009188:  e5943008      ldr	r3, [r4, #8]
0x0000918c:  e2833001      add	r3, r3, #1	; 0x1					0x0000918c:  e2833001      add	r3, r3, #1	; 0x1
0x00009190:  e5843008      str	r3, [r4, #8]						0x00009190:  e5843008      str	r3, [r4, #8]
0x00009194:  e1a00005      mov	r0, r5							0x00009194:  e1a00005      mov	r0, r5
0x00009198:  e28dd01c      add	sp, sp, #28	; 0x1c					0x00009198:  e28dd01c      add	sp, sp, #28	; 0x1c
0x0000919c:  e8bd80f0      pop	{r4, r5, r6, r7, pc}					0x0000919c:  e8bd80f0      pop	{r4, r5, r6, r7, pc}

----------------									----------------
IN: decrypt_data									IN: decrypt_data
0x0000a764:  e3700001      cmn	r0, #1	; 0x1						0x0000a764:  e3700001      cmn	r0, #1	; 0x1
0x0000a768:  e6ef0070      uxtb	r0, r0							0x0000a768:  e6ef0070      uxtb	r0, r0
0x0000a76c:  1affffee      bne	0xa72c							0x0000a76c:  1affffee      bne	0xa72c

----------------									----------------
IN: decrypt_data									IN: decrypt_data
0x0000a72c:  e5ea0001      strb	r0, [sl, #1]!						0x0000a72c:  e5ea0001      strb	r0, [sl, #1]!
0x0000a730:  e159000a      cmp	r9, sl							0x0000a730:  e159000a      cmp	r9, sl
0x0000a734:  0a00000d      beq	0xa770							0x0000a734:  0a00000d      beq	0xa770

----------------									----------------
IN: decrypt_data									IN: decrypt_data
0x0000a714:  e5821018      str	r1, [r2, #24]						0x0000a714:  e5821018      str	r1, [r2, #24]
0x0000a718:  e5921008      ldr	r1, [r2, #8]						0x0000a718:  e5921008      ldr	r1, [r2, #8]
0x0000a71c:  e5920020      ldr	r0, [r2, #32]						0x0000a71c:  e5920020      ldr	r0, [r2, #32]
0x0000a720:  e2811001      add	r1, r1, #1	; 0x1					0x0000a720:  e2811001      add	r1, r1, #1	; 0x1
0x0000a724:  e5821008      str	r1, [r2, #8]						0x0000a724:  e5821008      str	r1, [r2, #8]
0x0000a728:  e7d00003      ldrb	r0, [r0, r3]						0x0000a728:  e7d00003      ldrb	r0, [r0, r3]
0x0000a72c:  e5ea0001      strb	r0, [sl, #1]!						0x0000a72c:  e5ea0001      strb	r0, [sl, #1]!
0x0000a730:  e159000a      cmp	r9, sl							0x0000a730:  e159000a      cmp	r9, sl
0x0000a734:  0a00000d      beq	0xa770							0x0000a734:  0a00000d      beq	0xa770

----------------									----------------
IN: decrypt_data									IN: decrypt_data
0x0000a770:  e59d300c      ldr	r3, [sp, #12]						0x0000a770:  e59d300c      ldr	r3, [sp, #12]
0x0000a774:  e3a0200a      mov	r2, #10	; 0xa						0x0000a774:  e3a0200a      mov	r2, #10	; 0xa
0x0000a778:  e28d1010      add	r1, sp, #16	; 0x10					0x0000a778:  e28d1010      add	r1, sp, #16	; 0x10
0x0000a77c:  e5930004      ldr	r0, [r3, #4]						0x0000a77c:  e5930004      ldr	r0, [r3, #4]
0x0000a780:  e3a03000      mov	r3, #0	; 0x0						0x0000a780:  e3a03000      mov	r3, #0	; 0x0
0x0000a784:  e58d3000      str	r3, [sp]						0x0000a784:  e58d3000      str	r3, [sp]
0x0000a788:  eb000907      bl	0xcbac							0x0000a788:  eb000907      bl	0xcbac

----------------									----------------
IN: _gcry_cipher_decrypt								IN: _gcry_cipher_decrypt
0x0000cbac:  e92d41f0      push	{r4, r5, r6, r7, r8, lr}				0x0000cbac:  e92d41f0      push	{r4, r5, r6, r7, r8, lr}
0x0000cbb0:  e1a07000      mov	r7, r0							0x0000cbb0:  e1a07000      mov	r7, r0
0x0000cbb4:  e59d6018      ldr	r6, [sp, #24]						0x0000cbb4:  e59d6018      ldr	r6, [sp, #24]
0x0000cbb8:  e1a04002      mov	r4, r2							0x0000cbb8:  e1a04002      mov	r4, r2
0x0000cbbc:  e59f0084      ldr	r0, [pc, #132]	; 0xcc48				0x0000cbbc:  e59f0084      ldr	r0, [pc, #132]	; 0xcc48
0x0000cbc0:  e1a08001      mov	r8, r1							0x0000cbc0:  e1a08001      mov	r8, r1
0x0000cbc4:  e1a02006      mov	r2, r6							0x0000cbc4:  e1a02006      mov	r2, r6
0x0000cbc8:  e1a01003      mov	r1, r3							0x0000cbc8:  e1a01003      mov	r1, r3
0x0000cbcc:  e08f0000      add	r0, pc, r0						0x0000cbcc:  e08f0000      add	r0, pc, r0
0x0000cbd0:  e1a05003      mov	r5, r3							0x0000cbd0:  e1a05003      mov	r5, r3
0x0000cbd4:  eb0008a9      bl	0xee80							0x0000cbd4:  eb0008a9      bl	0xee80

----------------									----------------
IN: tfp_format										IN: tfp_format
0x0000eb30:  ea000062      b	0xecc0							0x0000eb30:  ea000062      b	0xecc0

----------------									----------------
IN: tfp_format										IN: tfp_format
0x0000ecc0:  e4d43001      ldrb	r3, [r4], #1						0x0000ecc0:  e4d43001      ldrb	r3, [r4], #1
0x0000ecc4:  e3530075      cmp	r3, #117	; 0x75					0x0000ecc4:  e3530075      cmp	r3, #117	; 0x75
0x0000ecc8:  1affff5a      bne	0xea38							0x0000ecc8:  1affff5a      bne	0xea38

----------------									----------------
IN: tfp_format										IN: tfp_format
0x0000eccc:  e1a0300a      mov	r3, sl							0x0000eccc:  e1a0300a      mov	r3, sl
0x0000ecd0:  e493e004      ldr	lr, [r3], #4						0x0000ecd0:  e493e004      ldr	lr, [r3], #4
0x0000ecd4:  e58d3008      str	r3, [sp, #8]						0x0000ecd4:  e58d3008      str	r3, [sp, #8]
0x0000ecd8:  e35e0009      cmp	lr, #9	; 0x9						0x0000ecd8:  e35e0009      cmp	lr, #9	; 0x9
0x0000ecdc:  e3a03001      mov	r3, #1	; 0x1						0x0000ecdc:  e3a03001      mov	r3, #1	; 0x1
0x0000ece0:  9a000062      bls	0xee70							0x0000ece0:  9a000062      bls	0xee70

----------------									----------------
IN: tfp_format										IN: tfp_format
0x0000ee70:  e1a0200e      mov	r2, lr							0x0000ee70:  e1a0200e      mov	r2, lr
0x0000ee74:  eaffffa1      b	0xed00							0x0000ee74:  eaffffa1      b	0xed00

----------------									----------------
IN: tfp_format										IN: tfp_format
0x0000ed00:  e58d800c      str	r8, [sp, #12]						0x0000ed00:  e58d800c      str	r8, [sp, #12]
0x0000ed04:  e3a0a000      mov	sl, #0	; 0x0						0x0000ed04:  e3a0a000      mov	sl, #0	; 0x0
0x0000ed08:  e1a0800b      mov	r8, fp							0x0000ed08:  e1a0800b      mov	r8, fp
0x0000ed0c:  e1a0c002      mov	ip, r2							0x0000ed0c:  e1a0c002      mov	ip, r2
0x0000ed10:  ea000005      b	0xed2c							0x0000ed10:  ea000005      b	0xed2c

----------------									----------------
IN: tfp_format										IN: tfp_format
0x0000ed2c:  e0812399      umull	r2, r1, r9, r3					0x0000ed2c:  e0812399      umull	r2, r1, r9, r3
0x0000ed30:  e25a2000      subs	r2, sl, #0	; 0x0					0x0000ed30:  e25a2000      subs	r2, sl, #0	; 0x0
0x0000ed34:  e1a00008      mov	r0, r8							0x0000ed34:  e1a00008      mov	r0, r8
0x0000ed38:  13a02001      movne	r2, #1	; 0x1					0x0000ed38:  13a02001      movne	r2, #1	; 0x1
0x0000ed3c:  e28aa001      add	sl, sl, #1	; 0x1					0x0000ed3c:  e28aa001      add	sl, sl, #1	; 0x1
0x0000ed40:  e06eec93      mls	lr, r3, ip, lr						0x0000ed40:  e06eec93      mls	lr, r3, ip, lr
0x0000ed44:  e3530009      cmp	r3, #9	; 0x9						0x0000ed44:  e3530009      cmp	r3, #9	; 0x9
0x0000ed48:  93822001      orrls	r2, r2, #1	; 0x1				0x0000ed48:  93822001      orrls	r2, r2, #1	; 0x1
0x0000ed4c:  e35c0000      cmp	ip, #0	; 0x0						0x0000ed4c:  e35c0000      cmp	ip, #0	; 0x0
0x0000ed50:  c3822001      orrgt	r2, r2, #1	; 0x1				0x0000ed50:  c3822001      orrgt	r2, r2, #1	; 0x1
0x0000ed54:  e28cc030      add	ip, ip, #48	; 0x30					0x0000ed54:  e28cc030      add	ip, ip, #48	; 0x30
0x0000ed58:  e1a011a1      lsr	r1, r1, #3						0x0000ed58:  e1a011a1      lsr	r1, r1, #3
0x0000ed5c:  e3520000      cmp	r2, #0	; 0x0						0x0000ed5c:  e3520000      cmp	r2, #0	; 0x0
0x0000ed60:  1affffeb      bne	0xed14							0x0000ed60:  1affffeb      bne	0xed14

----------------									----------------
IN: tfp_format										IN: tfp_format
0x0000ed14:  e4c0c001      strb	ip, [r0], #1						0x0000ed14:  e4c0c001      strb	ip, [r0], #1
0x0000ed18:  e3530009      cmp	r3, #9	; 0x9						0x0000ed18:  e3530009      cmp	r3, #9	; 0x9
0x0000ed1c:  e1a08000      mov	r8, r0							0x0000ed1c:  e1a08000      mov	r8, r0
0x0000ed20:  9a000047      bls	0xee44							0x0000ed20:  9a000047      bls	0xee44

----------------									----------------
IN: tfp_format										IN: tfp_format
0x0000ee44:  e59d800c      ldr	r8, [sp, #12]						0x0000ee44:  e59d800c      ldr	r8, [sp, #12]
0x0000ee48:  e59da008      ldr	sl, [sp, #8]						0x0000ee48:  e59da008      ldr	sl, [sp, #8]
0x0000ee4c:  e3a01000      mov	r1, #0	; 0x0						0x0000ee4c:  e3a01000      mov	r1, #0	; 0x0
0x0000ee50:  e5c01000      strb	r1, [r0]						0x0000ee50:  e5c01000      strb	r1, [r0]
0x0000ee54:  e1a03008      mov	r3, r8							0x0000ee54:  e1a03008      mov	r3, r8
0x0000ee58:  e58db000      str	fp, [sp]						0x0000ee58:  e58db000      str	fp, [sp]
0x0000ee5c:  e1a02005      mov	r2, r5							0x0000ee5c:  e1a02005      mov	r2, r5
0x0000ee60:  e1a01007      mov	r1, r7							0x0000ee60:  e1a01007      mov	r1, r7
0x0000ee64:  e1a00006      mov	r0, r6							0x0000ee64:  e1a00006      mov	r0, r6
0x0000ee68:  ebfffeb1      bl	0xe934							0x0000ee68:  ebfffeb1      bl	0xe934

----------------									----------------
IN: tfp_format										IN: tfp_format
0x0000ee6c:  eafffef1      b	0xea38							0x0000ee6c:  eafffef1      b	0xea38

----------------									----------------
IN: _gcry_cipher_decrypt								IN: _gcry_cipher_decrypt
0x0000cbd8:  e59f006c      ldr	r0, [pc, #108]	; 0xcc4c				0x0000cbd8:  e59f006c      ldr	r0, [pc, #108]	; 0xcc4c
0x0000cbdc:  e1a02004      mov	r2, r4							0x0000cbdc:  e1a02004      mov	r2, r4
0x0000cbe0:  e5973020      ldr	r3, [r7, #32]						0x0000cbe0:  e5973020      ldr	r3, [r7, #32]
0x0000cbe4:  e1a01006      mov	r1, r6							0x0000cbe4:  e1a01006      mov	r1, r6
0x0000cbe8:  e08f0000      add	r0, pc, r0						0x0000cbe8:  e08f0000      add	r0, pc, r0
0x0000cbec:  eb0008a3      bl	0xee80							0x0000cbec:  eb0008a3      bl	0xee80

----------------									----------------
IN: _gcry_cipher_decrypt								IN: _gcry_cipher_decrypt
0x0000cbf0:  e3550000      cmp	r5, #0	; 0x0						0x0000cbf0:  e3550000      cmp	r5, #0	; 0x0
0x0000cbf4:  0a00000d      beq	0xcc30							0x0000cbf4:  0a00000d      beq	0xcc30

----------------									----------------
IN: _gcry_cipher_decrypt								IN: _gcry_cipher_decrypt
0x0000cc30:  e59f001c      ldr	r0, [pc, #28]	; 0xcc54				0x0000cc30:  e59f001c      ldr	r0, [pc, #28]	; 0xcc54
0x0000cc34:  e1a06004      mov	r6, r4							0x0000cc34:  e1a06004      mov	r6, r4
0x0000cc38:  e1a05008      mov	r5, r8							0x0000cc38:  e1a05008      mov	r5, r8
0x0000cc3c:  e08f0000      add	r0, pc, r0						0x0000cc3c:  e08f0000      add	r0, pc, r0
0x0000cc40:  eb00088e      bl	0xee80							0x0000cc40:  eb00088e      bl	0xee80

----------------									----------------
IN: _gcry_cipher_decrypt								IN: _gcry_cipher_decrypt
0x0000cc44:  eafffff2      b	0xcc14							0x0000cc44:  eafffff2      b	0xcc14

----------------									----------------
IN: _gcry_cipher_decrypt								IN: _gcry_cipher_decrypt
0x0000cc14:  e58d6018      str	r6, [sp, #24]						0x0000cc14:  e58d6018      str	r6, [sp, #24]
0x0000cc18:  e1a03005      mov	r3, r5							0x0000cc18:  e1a03005      mov	r3, r5
0x0000cc1c:  e1a02004      mov	r2, r4							0x0000cc1c:  e1a02004      mov	r2, r4
0x0000cc20:  e1a01008      mov	r1, r8							0x0000cc20:  e1a01008      mov	r1, r8
0x0000cc24:  e1a00007      mov	r0, r7							0x0000cc24:  e1a00007      mov	r0, r7
0x0000cc28:  e8bd41f0      pop	{r4, r5, r6, r7, r8, lr}				0x0000cc28:  e8bd41f0      pop	{r4, r5, r6, r7, r8, lr}
0x0000cc2c:  eafffe47      b	0xc550							0x0000cc2c:  eafffe47      b	0xc550

----------------									----------------
IN: _gcry_cipher_cfb_decrypt								IN: _gcry_cipher_cfb_decrypt
0x0000c550:  e92d4ff0      push	{r4, r5, r6, r7, r8, r9, sl, fp, lr}			0x0000c550:  e92d4ff0      push	{r4, r5, r6, r7, r8, r9, sl, fp, lr}
0x0000c554:  e1a08000      mov	r8, r0							0x0000c554:  e1a08000      mov	r8, r0
0x0000c558:  e59f05f8      ldr	r0, [pc, #1528]	; 0xcb58				0x0000c558:  e59f05f8      ldr	r0, [pc, #1528]	; 0xcb58
0x0000c55c:  e24dd05c      sub	sp, sp, #92	; 0x5c					0x0000c55c:  e24dd05c      sub	sp, sp, #92	; 0x5c
0x0000c560:  e59f65f4      ldr	r6, [pc, #1524]	; 0xcb5c				0x0000c560:  e59f65f4      ldr	r6, [pc, #1524]	; 0xcb5c
0x0000c564:  e2485001      sub	r5, r8, #1	; 0x1					0x0000c564:  e2485001      sub	r5, r8, #1	; 0x1
0x0000c568:  e08f0000      add	r0, pc, r0						0x0000c568:  e08f0000      add	r0, pc, r0
0x0000c56c:  e2884007      add	r4, r8, #7	; 0x7					0x0000c56c:  e2884007      add	r4, r8, #7	; 0x7
0x0000c570:  e58d1024      str	r1, [sp, #36]						0x0000c570:  e58d1024      str	r1, [sp, #36]
0x0000c574:  e1a07005      mov	r7, r5							0x0000c574:  e1a07005      mov	r7, r5
0x0000c578:  e59d1080      ldr	r1, [sp, #128]						0x0000c578:  e59d1080      ldr	r1, [sp, #128]
0x0000c57c:  e58d3028      str	r3, [sp, #40]						0x0000c57c:  e58d3028      str	r3, [sp, #40]
0x0000c580:  e3a03001      mov	r3, #1	; 0x1						0x0000c580:  e3a03001      mov	r3, #1	; 0x1
0x0000c584:  e58d201c      str	r2, [sp, #28]						0x0000c584:  e58d201c      str	r2, [sp, #28]
0x0000c588:  eb000a3c      bl	0xee80							0x0000c588:  eb000a3c      bl	0xee80

----------------									----------------
IN: _gcry_cipher_cfb_decrypt								IN: _gcry_cipher_cfb_decrypt
0x0000c58c:  e59f05cc      ldr	r0, [pc, #1484]	; 0xcb60				0x0000c58c:  e59f05cc      ldr	r0, [pc, #1484]	; 0xcb60
0x0000c590:  e08f6006      add	r6, pc, r6						0x0000c590:  e08f6006      add	r6, pc, r6
0x0000c594:  e08f0000      add	r0, pc, r0						0x0000c594:  e08f0000      add	r0, pc, r0
0x0000c598:  eb000a38      bl	0xee80							0x0000c598:  eb000a38      bl	0xee80

----------------									----------------
IN: _gcry_cipher_cfb_decrypt								IN: _gcry_cipher_cfb_decrypt
0x0000c59c:  e5f71001      ldrb	r1, [r7, #1]!						0x0000c59c:  e5f71001      ldrb	r1, [r7, #1]!
0x0000c5a0:  e1a00006      mov	r0, r6							0x0000c5a0:  e1a00006      mov	r0, r6
0x0000c5a4:  eb000a35      bl	0xee80							0x0000c5a4:  eb000a35      bl	0xee80

----------------									----------------
IN: _gcry_cipher_cfb_decrypt								IN: _gcry_cipher_cfb_decrypt
0x0000c5a8:  e1570004      cmp	r7, r4							0x0000c5a8:  e1570004      cmp	r7, r4
0x0000c5ac:  1afffffa      bne	0xc59c							0x0000c5ac:  1afffffa      bne	0xc59c

----------------									----------------
IN: _gcry_cipher_cfb_decrypt								IN: _gcry_cipher_cfb_decrypt
0x0000c5b0:  e59f05ac      ldr	r0, [pc, #1452]	; 0xcb64				0x0000c5b0:  e59f05ac      ldr	r0, [pc, #1452]	; 0xcb64
0x0000c5b4:  e08f0000      add	r0, pc, r0						0x0000c5b4:  e08f0000      add	r0, pc, r0
0x0000c5b8:  eb000a30      bl	0xee80							0x0000c5b8:  eb000a30      bl	0xee80

----------------									----------------
IN: _gcry_cipher_cfb_decrypt								IN: _gcry_cipher_cfb_decrypt
0x0000c5bc:  e59d3080      ldr	r3, [sp, #128]						0x0000c5bc:  e59d3080      ldr	r3, [sp, #128]
0x0000c5c0:  e59d201c      ldr	r2, [sp, #28]						0x0000c5c0:  e59d201c      ldr	r2, [sp, #28]
0x0000c5c4:  e1530002      cmp	r3, r2							0x0000c5c4:  e1530002      cmp	r3, r2
0x0000c5c8:  83e04000      mvnhi	r4, #0	; 0x0					0x0000c5c8:  83e04000      mvnhi	r4, #0	; 0x0
0x0000c5cc:  8a00007a      bhi	0xc7bc							0x0000c5cc:  8a00007a      bhi	0xc7bc

----------------									----------------
IN: _gcry_cipher_cfb_decrypt								IN: _gcry_cipher_cfb_decrypt
0x0000c5d0:  e5983020      ldr	r3, [r8, #32]						0x0000c5d0:  e5983020      ldr	r3, [r8, #32]
0x0000c5d4:  e59d2080      ldr	r2, [sp, #128]						0x0000c5d4:  e59d2080      ldr	r2, [sp, #128]
0x0000c5d8:  e1530002      cmp	r3, r2							0x0000c5d8:  e1530002      cmp	r3, r2
0x0000c5dc:  2a00013d      bcs	0xcad8							0x0000c5dc:  2a00013d      bcs	0xcad8

----------------									----------------
IN: _gcry_cipher_cfb_decrypt								IN: _gcry_cipher_cfb_decrypt
0x0000c5e0:  e3530000      cmp	r3, #0	; 0x0						0x0000c5e0:  e3530000      cmp	r3, #0	; 0x0
0x0000c5e4:  1a00010f      bne	0xca28							0x0000c5e4:  1a00010f      bne	0xca28

----------------									----------------
IN: _gcry_cipher_cfb_decrypt								IN: _gcry_cipher_cfb_decrypt
0x0000c5e8:  e59d3080      ldr	r3, [sp, #128]						0x0000c5e8:  e59d3080      ldr	r3, [sp, #128]
0x0000c5ec:  e353000f      cmp	r3, #15	; 0xf						0x0000c5ec:  e353000f      cmp	r3, #15	; 0xf
0x0000c5f0:  8a000074      bhi	0xc7c8							0x0000c5f0:  8a000074      bhi	0xc7c8

----------------									----------------
IN: _gcry_cipher_cfb_decrypt								IN: _gcry_cipher_cfb_decrypt
0x0000c5f4:  e59d401c      ldr	r4, [sp, #28]						0x0000c5f4:  e59d401c      ldr	r4, [sp, #28]
0x0000c5f8:  e3a03000      mov	r3, #0	; 0x0						0x0000c5f8:  e3a03000      mov	r3, #0	; 0x0
0x0000c5fc:  e59f0564      ldr	r0, [pc, #1380]	; 0xcb68				0x0000c5fc:  e59f0564      ldr	r0, [pc, #1380]	; 0xcb68
0x0000c600:  e59d1080      ldr	r1, [sp, #128]						0x0000c600:  e59d1080      ldr	r1, [sp, #128]
0x0000c604:  e1a02004      mov	r2, r4							0x0000c604:  e1a02004      mov	r2, r4
0x0000c608:  e08f0000      add	r0, pc, r0						0x0000c608:  e08f0000      add	r0, pc, r0
0x0000c60c:  eb000a1b      bl	0xee80							0x0000c60c:  eb000a1b      bl	0xee80

----------------									----------------
IN: _gcry_cipher_cfb_decrypt								IN: _gcry_cipher_cfb_decrypt
0x0000c610:  e59d3080      ldr	r3, [sp, #128]						0x0000c610:  e59d3080      ldr	r3, [sp, #128]
0x0000c614:  e3530007      cmp	r3, #7	; 0x7						0x0000c614:  e3530007      cmp	r3, #7	; 0x7
0x0000c618:  9a000142      bls	0xcb28							0x0000c618:  9a000142      bls	0xcb28

----------------									----------------
IN: _gcry_cipher_cfb_decrypt								IN: _gcry_cipher_cfb_decrypt
0x0000c61c:  e59f0548      ldr	r0, [pc, #1352]	; 0xcb6c				0x0000c61c:  e59f0548      ldr	r0, [pc, #1352]	; 0xcb6c
0x0000c620:  e1a02004      mov	r2, r4							0x0000c620:  e1a02004      mov	r2, r4
0x0000c624:  e5983020      ldr	r3, [r8, #32]						0x0000c624:  e5983020      ldr	r3, [r8, #32]
0x0000c628:  e28d5038      add	r5, sp, #56	; 0x38					0x0000c628:  e28d5038      add	r5, sp, #56	; 0x38
0x0000c62c:  e08f0000      add	r0, pc, r0						0x0000c62c:  e08f0000      add	r0, pc, r0
0x0000c630:  e28d6030      add	r6, sp, #48	; 0x30					0x0000c630:  e28d6030      add	r6, sp, #48	; 0x30
0x0000c634:  e59d1080      ldr	r1, [sp, #128]						0x0000c634:  e59d1080      ldr	r1, [sp, #128]
0x0000c638:  e59f7530      ldr	r7, [pc, #1328]	; 0xcb70				0x0000c638:  e59f7530      ldr	r7, [pc, #1328]	; 0xcb70
0x0000c63c:  eb000a0f      bl	0xee80							0x0000c63c:  eb000a0f      bl	0xee80

----------------									----------------
IN: _gcry_cipher_cfb_decrypt								IN: _gcry_cipher_cfb_decrypt
0x0000c640:  e59d3080      ldr	r3, [sp, #128]						0x0000c640:  e59d3080      ldr	r3, [sp, #128]
0x0000c644:  e3a02008      mov	r2, #8	; 0x8						0x0000c644:  e3a02008      mov	r2, #8	; 0x8
0x0000c648:  e08f7007      add	r7, pc, r7						0x0000c648:  e08f7007      add	r7, pc, r7
0x0000c64c:  e1a01008      mov	r1, r8							0x0000c64c:  e1a01008      mov	r1, r8
0x0000c650:  e2880010      add	r0, r8, #16	; 0x10					0x0000c650:  e2880010      add	r0, r8, #16	; 0x10
0x0000c654:  e2434008      sub	r4, r3, #8	; 0x8					0x0000c654:  e2434008      sub	r4, r3, #8	; 0x8
0x0000c658:  ebfffe4f      bl	0xbf9c							0x0000c658:  ebfffe4f      bl	0xbf9c

----------------									----------------
IN: cipher_block_cpy									IN: cipher_block_cpy
0x0000bf9c:  e3520008      cmp	r2, #8	; 0x8						0x0000bf9c:  e3520008      cmp	r2, #8	; 0x8
0x0000bfa0:  e92d41f0      push	{r4, r5, r6, r7, r8, lr}				0x0000bfa0:  e92d41f0      push	{r4, r5, r6, r7, r8, lr}
0x0000bfa4:  e1a04000      mov	r4, r0							0x0000bfa4:  e1a04000      mov	r4, r0
0x0000bfa8:  e1a05001      mov	r5, r1							0x0000bfa8:  e1a05001      mov	r5, r1
0x0000bfac:  e1a00001      mov	r0, r1							0x0000bfac:  e1a00001      mov	r0, r1
0x0000bfb0:  0a000017      beq	0xc014							0x0000bfb0:  0a000017      beq	0xc014

----------------									----------------
IN: cipher_block_cpy									IN: cipher_block_cpy
0x0000c014:  ebffffcd      bl	0xbf50							0x0000c014:  ebffffcd      bl	0xbf50

----------------									----------------
IN: buf_get_le32									IN: buf_get_le32
0x0000bf50:  e3500000      cmp	r0, #0	; 0x0						0x0000bf50:  e3500000      cmp	r0, #0	; 0x0
0x0000bf54:  012fff1e      bxeq	lr							0x0000bf54:  012fff1e      bxeq	lr

----------------									----------------
IN: buf_get_le32									IN: buf_get_le32
0x0000bf58:  e5d01000      ldrb	r1, [r0]						0x0000bf58:  e5d01000      ldrb	r1, [r0]
0x0000bf5c:  e5d02001      ldrb	r2, [r0, #1]						0x0000bf5c:  e5d02001      ldrb	r2, [r0, #1]
0x0000bf60:  e5d03002      ldrb	r3, [r0, #2]						0x0000bf60:  e5d03002      ldrb	r3, [r0, #2]
0x0000bf64:  e5d0c003      ldrb	ip, [r0, #3]						0x0000bf64:  e5d0c003      ldrb	ip, [r0, #3]
0x0000bf68:  e1a00803      lsl	r0, r3, #16						0x0000bf68:  e1a00803      lsl	r0, r3, #16
0x0000bf6c:  e1800c0c      orr	r0, r0, ip, lsl #24					0x0000bf6c:  e1800c0c      orr	r0, r0, ip, lsl #24
0x0000bf70:  e1800001      orr	r0, r0, r1						0x0000bf70:  e1800001      orr	r0, r0, r1
0x0000bf74:  e1800402      orr	r0, r0, r2, lsl #8					0x0000bf74:  e1800402      orr	r0, r0, r2, lsl #8
0x0000bf78:  e12fff1e      bx	lr							0x0000bf78:  e12fff1e      bx	lr

----------------									----------------
IN: cipher_block_cpy									IN: cipher_block_cpy
0x0000c018:  e1a06000      mov	r6, r0							0x0000c018:  e1a06000      mov	r6, r0
0x0000c01c:  e2850004      add	r0, r5, #4	; 0x4					0x0000c01c:  e2850004      add	r0, r5, #4	; 0x4
0x0000c020:  ebffffca      bl	0xbf50							0x0000c020:  ebffffca      bl	0xbf50

----------------									----------------
IN: cipher_block_cpy									IN: cipher_block_cpy
0x0000c024:  e1a05000      mov	r5, r0							0x0000c024:  e1a05000      mov	r5, r0
0x0000c028:  e1a01006      mov	r1, r6							0x0000c028:  e1a01006      mov	r1, r6
0x0000c02c:  e1a00004      mov	r0, r4							0x0000c02c:  e1a00004      mov	r0, r4
0x0000c030:  ebffffd1      bl	0xbf7c							0x0000c030:  ebffffd1      bl	0xbf7c

----------------									----------------
IN: buf_put_le32									IN: buf_put_le32
0x0000bf7c:  e1a0cc21      lsr	ip, r1, #24						0x0000bf7c:  e1a0cc21      lsr	ip, r1, #24
0x0000bf80:  e1a02821      lsr	r2, r1, #16						0x0000bf80:  e1a02821      lsr	r2, r1, #16
0x0000bf84:  e1a03421      lsr	r3, r1, #8						0x0000bf84:  e1a03421      lsr	r3, r1, #8
0x0000bf88:  e5c0c003      strb	ip, [r0, #3]						0x0000bf88:  e5c0c003      strb	ip, [r0, #3]
0x0000bf8c:  e5c02002      strb	r2, [r0, #2]						0x0000bf8c:  e5c02002      strb	r2, [r0, #2]
0x0000bf90:  e5c03001      strb	r3, [r0, #1]						0x0000bf90:  e5c03001      strb	r3, [r0, #1]
0x0000bf94:  e5c01000      strb	r1, [r0]						0x0000bf94:  e5c01000      strb	r1, [r0]
0x0000bf98:  e12fff1e      bx	lr							0x0000bf98:  e12fff1e      bx	lr

----------------									----------------
IN: cipher_block_cpy									IN: cipher_block_cpy
0x0000c034:  e1a01005      mov	r1, r5							0x0000c034:  e1a01005      mov	r1, r5
0x0000c038:  e2840004      add	r0, r4, #4	; 0x4					0x0000c038:  e2840004      add	r0, r4, #4	; 0x4
0x0000c03c:  e8bd41f0      pop	{r4, r5, r6, r7, r8, lr}				0x0000c03c:  e8bd41f0      pop	{r4, r5, r6, r7, r8, lr}
0x0000c040:  eaffffcd      b	0xbf7c							0x0000c040:  eaffffcd      b	0xbf7c

----------------									----------------
IN: _gcry_cipher_cfb_decrypt								IN: _gcry_cipher_cfb_decrypt
0x0000c65c:  e1a01008      mov	r1, r8							0x0000c65c:  e1a01008      mov	r1, r8
0x0000c660:  e1a00005      mov	r0, r5							0x0000c660:  e1a00005      mov	r0, r5
0x0000c664:  ebffffa7      bl	0xc508							0x0000c664:  ebffffa7      bl	0xc508

----------------									----------------
IN: blockFromBytes									IN: blockFromBytes
0x0000c508:  e3a0c000      mov	ip, #0	; 0x0						0x0000c508:  e3a0c000      mov	ip, #0	; 0x0
0x0000c50c:  e3a03001      mov	r3, #1	; 0x1						0x0000c50c:  e3a03001      mov	r3, #1	; 0x1
0x0000c510:  e52de004      push	{lr}		; (str lr, [sp, #-4]!)			0x0000c510:  e52de004      push	{lr}		; (str lr, [sp, #-4]!)
0x0000c514:  e1a0e00c      mov	lr, ip							0x0000c514:  e1a0e00c      mov	lr, ip
0x0000c518:  ea000001      b	0xc524							0x0000c518:  ea000001      b	0xc524

----------------									----------------
IN: blockFromBytes									IN: blockFromBytes
0x0000c524:  e2432001      sub	r2, r3, #1	; 0x1					0x0000c524:  e2432001      sub	r2, r3, #1	; 0x1
0x0000c528:  e3520003      cmp	r2, #3	; 0x3						0x0000c528:  e3520003      cmp	r2, #3	; 0x3
0x0000c52c:  e5d12000      ldrb	r2, [r1]						0x0000c52c:  e5d12000      ldrb	r2, [r1]
0x0000c530:  9182e40e      orrls	lr, r2, lr, lsl #8				0x0000c530:  9182e40e      orrls	lr, r2, lr, lsl #8
0x0000c534:  9afffff8      bls	0xc51c							0x0000c534:  9afffff8      bls	0xc51c

----------------									----------------
IN: blockFromBytes									IN: blockFromBytes
0x0000c51c:  e2833001      add	r3, r3, #1	; 0x1					0x0000c51c:  e2833001      add	r3, r3, #1	; 0x1
0x0000c520:  e2811001      add	r1, r1, #1	; 0x1					0x0000c520:  e2811001      add	r1, r1, #1	; 0x1
0x0000c524:  e2432001      sub	r2, r3, #1	; 0x1					0x0000c524:  e2432001      sub	r2, r3, #1	; 0x1
0x0000c528:  e3520003      cmp	r2, #3	; 0x3						0x0000c528:  e3520003      cmp	r2, #3	; 0x3
0x0000c52c:  e5d12000      ldrb	r2, [r1]						0x0000c52c:  e5d12000      ldrb	r2, [r1]
0x0000c530:  9182e40e      orrls	lr, r2, lr, lsl #8				0x0000c530:  9182e40e      orrls	lr, r2, lr, lsl #8
0x0000c534:  9afffff8      bls	0xc51c							0x0000c534:  9afffff8      bls	0xc51c

----------------									----------------
IN: blockFromBytes									IN: blockFromBytes
0x0000c538:  e182c40c      orr	ip, r2, ip, lsl #8					0x0000c538:  e182c40c      orr	ip, r2, ip, lsl #8
0x0000c53c:  e3530008      cmp	r3, #8	; 0x8						0x0000c53c:  e3530008      cmp	r3, #8	; 0x8
0x0000c540:  1afffff5      bne	0xc51c							0x0000c540:  1afffff5      bne	0xc51c

----------------									----------------
IN: blockFromBytes									IN: blockFromBytes
0x0000c544:  e580e000      str	lr, [r0]						0x0000c544:  e580e000      str	lr, [r0]
0x0000c548:  e580c004      str	ip, [r0, #4]						0x0000c548:  e580c004      str	ip, [r0, #4]
0x0000c54c:  e49df004      pop	{pc}		; (ldr pc, [sp], #4)			0x0000c54c:  e49df004      pop	{pc}		; (ldr pc, [sp], #4)

----------------									----------------
IN: _gcry_cipher_cfb_decrypt								IN: _gcry_cipher_cfb_decrypt
0x0000c668:  e59d203c      ldr	r2, [sp, #60]						0x0000c668:  e59d203c      ldr	r2, [sp, #60]
0x0000c66c:  e1a00007      mov	r0, r7							0x0000c66c:  e1a00007      mov	r0, r7
0x0000c670:  e59d1038      ldr	r1, [sp, #56]						0x0000c670:  e59d1038      ldr	r1, [sp, #56]
0x0000c674:  eb000a01      bl	0xee80							0x0000c674:  eb000a01      bl	0xee80

----------------									----------------
IN: _gcry_cipher_cfb_decrypt								IN: _gcry_cipher_cfb_decrypt
0x0000c678:  e3a03000      mov	r3, #0	; 0x0						0x0000c678:  e3a03000      mov	r3, #0	; 0x0
0x0000c67c:  e1a00006      mov	r0, r6							0x0000c67c:  e1a00006      mov	r0, r6
0x0000c680:  e58d3000      str	r3, [sp]						0x0000c680:  e58d3000      str	r3, [sp]
0x0000c684:  e2881030      add	r1, r8, #48	; 0x30					0x0000c684:  e2881030      add	r1, r8, #48	; 0x30
0x0000c688:  e895000c      ldm	r5, {r2, r3}						0x0000c688:  e895000c      ldm	r5, {r2, r3}
0x0000c68c:  ebffff8f      bl	0xc4d0							0x0000c68c:  ebffff8f      bl	0xc4d0

----------------									----------------
IN: encrypt										IN: encrypt
0x0000c4d0:  e92d4010      push	{r4, lr}						0x0000c4d0:  e92d4010      push	{r4, lr}
0x0000c4d4:  e24dd010      sub	sp, sp, #16	; 0x10					0x0000c4d4:  e24dd010      sub	sp, sp, #16	; 0x10
0x0000c4d8:  e1a04000      mov	r4, r0							0x0000c4d8:  e1a04000      mov	r4, r0
0x0000c4dc:  e59dc018      ldr	ip, [sp, #24]						0x0000c4dc:  e59dc018      ldr	ip, [sp, #24]
0x0000c4e0:  e58dc004      str	ip, [sp, #4]						0x0000c4e0:  e58dc004      str	ip, [sp, #4]
0x0000c4e4:  e28dc008      add	ip, sp, #8	; 0x8					0x0000c4e4:  e28dc008      add	ip, sp, #8	; 0x8
0x0000c4e8:  e88c000c      stm	ip, {r2, r3}						0x0000c4e8:  e88c000c      stm	ip, {r2, r3}
0x0000c4ec:  e3a03000      mov	r3, #0	; 0x0						0x0000c4ec:  e3a03000      mov	r3, #0	; 0x0
0x0000c4f0:  e58d3000      str	r3, [sp]						0x0000c4f0:  e58d3000      str	r3, [sp]
0x0000c4f4:  e89c000c      ldm	ip, {r2, r3}						0x0000c4f4:  e89c000c      ldm	ip, {r2, r3}
0x0000c4f8:  ebfff935      bl	0xa9d4							0x0000c4f8:  ebfff935      bl	0xa9d4

----------------									----------------
IN: run											IN: run
0x0000a9d4:  e92d4ff0      push	{r4, r5, r6, r7, r8, r9, sl, fp, lr}			0x0000a9d4:  e92d4ff0      push	{r4, r5, r6, r7, r8, r9, sl, fp, lr}
0x0000a9d8:  e24ddf75      sub	sp, sp, #468	; 0x1d4					0x0000a9d8:  e24ddf75      sub	sp, sp, #468	; 0x1d4
0x0000a9dc:  e59fcff0      ldr	ip, [pc, #4080]	; 0xb9d4				0x0000a9dc:  e59fcff0      ldr	ip, [pc, #4080]	; 0xb9d4
0x0000a9e0:  e3a05000      mov	r5, #0	; 0x0						0x0000a9e0:  e3a05000      mov	r5, #0	; 0x0
0x0000a9e4:  e58d0060      str	r0, [sp, #96]						0x0000a9e4:  e58d0060      str	r0, [sp, #96]
0x0000a9e8:  e28d00a0      add	r0, sp, #160	; 0xa0					0x0000a9e8:  e28d00a0      add	r0, sp, #160	; 0xa0
0x0000a9ec:  e08fc00c      add	ip, pc, ip						0x0000a9ec:  e08fc00c      add	ip, pc, ip
0x0000a9f0:  e1a04001      mov	r4, r1							0x0000a9f0:  e1a04001      mov	r4, r1
0x0000a9f4:  e880000c      stm	r0, {r2, r3}						0x0000a9f4:  e880000c      stm	r0, {r2, r3}
0x0000a9f8:  e59d30a4      ldr	r3, [sp, #164]						0x0000a9f8:  e59d30a4      ldr	r3, [sp, #164]
0x0000a9fc:  e28d00a8      add	r0, sp, #168	; 0xa8					0x0000a9fc:  e28d00a8      add	r0, sp, #168	; 0xa8
0x0000aa00:  e58d206c      str	r2, [sp, #108]						0x0000aa00:  e58d206c      str	r2, [sp, #108]
0x0000aa04:  e3a02010      mov	r2, #16	; 0x10						0x0000aa04:  e3a02010      mov	r2, #16	; 0x10
0x0000aa08:  e58d3070      str	r3, [sp, #112]						0x0000aa08:  e58d3070      str	r3, [sp, #112]
0x0000aa0c:  e58dc064      str	ip, [sp, #100]						0x0000aa0c:  e58dc064      str	ip, [sp, #100]
0x0000aa10:  e58d0074      str	r0, [sp, #116]						0x0000aa10:  e58d0074      str	r0, [sp, #116]
0x0000aa14:  e58d50a8      str	r5, [sp, #168]						0x0000aa14:  e58d50a8      str	r5, [sp, #168]
0x0000aa18:  e5805004      str	r5, [r0, #4]						0x0000aa18:  e5805004      str	r5, [r0, #4]
0x0000aa1c:  e5805008      str	r5, [r0, #8]						0x0000aa1c:  e5805008      str	r5, [r0, #8]
0x0000aa20:  e580500c      str	r5, [r0, #12]						0x0000aa20:  e580500c      str	r5, [r0, #12]
0x0000aa24:  eb00092c      bl	0xcedc							0x0000aa24:  eb00092c      bl	0xcedc

----------------									----------------
IN: run											IN: run
0x0000aa28:  e59d31fc      ldr	r3, [sp, #508]						0x0000aa28:  e59d31fc      ldr	r3, [sp, #508]
0x0000aa2c:  e58d50b8      str	r5, [sp, #184]						0x0000aa2c:  e58d50b8      str	r5, [sp, #184]
0x0000aa30:  e1530005      cmp	r3, r5							0x0000aa30:  e1530005      cmp	r3, r5
0x0000aa34:  e28d30b8      add	r3, sp, #184	; 0xb8					0x0000aa34:  e28d30b8      add	r3, sp, #184	; 0xb8
0x0000aa38:  e58d50bc      str	r5, [sp, #188]						0x0000aa38:  e58d50bc      str	r5, [sp, #188]
0x0000aa3c:  e58d50c0      str	r5, [sp, #192]						0x0000aa3c:  e58d50c0      str	r5, [sp, #192]
0x0000aa40:  e58d50c4      str	r5, [sp, #196]						0x0000aa40:  e58d50c4      str	r5, [sp, #196]
0x0000aa44:  e58d3078      str	r3, [sp, #120]						0x0000aa44:  e58d3078      str	r3, [sp, #120]
0x0000aa48:  1a00042c      bne	0xbb00							0x0000aa48:  1a00042c      bne	0xbb00

----------------									----------------
IN: run											IN: run
0x0000aa4c:  e59f4f84      ldr	r4, [pc, #3972]	; 0xb9d8				0x0000aa4c:  e59f4f84      ldr	r4, [pc, #3972]	; 0xb9d8
0x0000aa50:  e3a02080      mov	r2, #128	; 0x80					0x0000aa50:  e3a02080      mov	r2, #128	; 0x80
0x0000aa54:  e59f3f80      ldr	r3, [pc, #3968]	; 0xb9dc				0x0000aa54:  e59f3f80      ldr	r3, [pc, #3968]	; 0xb9dc
0x0000aa58:  e3a01000      mov	r1, #0	; 0x0						0x0000aa58:  e3a01000      mov	r1, #0	; 0x0
0x0000aa5c:  e08f4004      add	r4, pc, r4						0x0000aa5c:  e08f4004      add	r4, pc, r4
0x0000aa60:  e28d0e15      add	r0, sp, #336	; 0x150					0x0000aa60:  e28d0e15      add	r0, sp, #336	; 0x150
0x0000aa64:  e08f3003      add	r3, pc, r3						0x0000aa64:  e08f3003      add	r3, pc, r3
0x0000aa68:  e58d307c      str	r3, [sp, #124]						0x0000aa68:  e58d307c      str	r3, [sp, #124]
0x0000aa6c:  e58d4080      str	r4, [sp, #128]						0x0000aa6c:  e58d4080      str	r4, [sp, #128]
0x0000aa70:  eb0008e2      bl	0xce00							0x0000aa70:  eb0008e2      bl	0xce00

----------------									----------------
IN: run											IN: run
0x0000aa74:  e59d2064      ldr	r2, [sp, #100]						0x0000aa74:  e59d2064      ldr	r2, [sp, #100]
0x0000aa78:  e59f3f60      ldr	r3, [pc, #3936]	; 0xb9e0				0x0000aa78:  e59f3f60      ldr	r3, [pc, #3936]	; 0xb9e0
0x0000aa7c:  e7929003      ldr	r9, [r2, r3]						0x0000aa7c:  e7929003      ldr	r9, [r2, r3]
0x0000aa80:  e59f3f5c      ldr	r3, [pc, #3932]	; 0xb9e4				0x0000aa80:  e59f3f5c      ldr	r3, [pc, #3932]	; 0xb9e4
0x0000aa84:  e792a003      ldr	sl, [r2, r3]						0x0000aa84:  e792a003      ldr	sl, [r2, r3]
0x0000aa88:  e59f3f58      ldr	r3, [pc, #3928]	; 0xb9e8				0x0000aa88:  e59f3f58      ldr	r3, [pc, #3928]	; 0xb9e8
0x0000aa8c:  e7928003      ldr	r8, [r2, r3]						0x0000aa8c:  e7928003      ldr	r8, [r2, r3]
0x0000aa90:  e59f3f54      ldr	r3, [pc, #3924]	; 0xb9ec				0x0000aa90:  e59f3f54      ldr	r3, [pc, #3924]	; 0xb9ec
0x0000aa94:  e792b003      ldr	fp, [r2, r3]						0x0000aa94:  e792b003      ldr	fp, [r2, r3]
0x0000aa98:  e3a03000      mov	r3, #0	; 0x0						0x0000aa98:  e3a03000      mov	r3, #0	; 0x0
0x0000aa9c:  e58d301c      str	r3, [sp, #28]						0x0000aa9c:  e58d301c      str	r3, [sp, #28]
0x0000aaa0:  e28d2e16      add	r2, sp, #352	; 0x160					0x0000aaa0:  e28d2e16      add	r2, sp, #352	; 0x160
0x0000aaa4:  e58d3038      str	r3, [sp, #56]						0x0000aaa4:  e58d3038      str	r3, [sp, #56]
0x0000aaa8:  e28d30c8      add	r3, sp, #200	; 0xc8					0x0000aaa8:  e28d30c8      add	r3, sp, #200	; 0xc8
0x0000aaac:  e58d3068      str	r3, [sp, #104]						0x0000aaac:  e58d3068      str	r3, [sp, #104]
0x0000aab0:  e284300f      add	r3, r4, #15	; 0xf					0x0000aab0:  e284300f      add	r3, r4, #15	; 0xf
0x0000aab4:  e58d3084      str	r3, [sp, #132]						0x0000aab4:  e58d3084      str	r3, [sp, #132]
0x0000aab8:  e1a0300a      mov	r3, sl							0x0000aab8:  e1a0300a      mov	r3, sl
0x0000aabc:  e58d2018      str	r2, [sp, #24]						0x0000aabc:  e58d2018      str	r2, [sp, #24]
0x0000aac0:  e1a0a009      mov	sl, r9							0x0000aac0:  e1a0a009      mov	sl, r9
0x0000aac4:  e1a09003      mov	r9, r3							0x0000aac4:  e1a09003      mov	r9, r3
0x0000aac8:  e59d31fc      ldr	r3, [sp, #508]						0x0000aac8:  e59d31fc      ldr	r3, [sp, #508]
0x0000aacc:  e3530000      cmp	r3, #0	; 0x0						0x0000aacc:  e3530000      cmp	r3, #0	; 0x0
0x0000aad0:  1a000383      bne	0xb8e4							0x0000aad0:  1a000383      bne	0xb8e4

----------------									----------------
IN: run											IN: run
0x0000aad4:  e59d21fc      ldr	r2, [sp, #508]						0x0000aad4:  e59d21fc      ldr	r2, [sp, #508]
0x0000aad8:  e5dd30b6      ldrb	r3, [sp, #182]						0x0000aad8:  e5dd30b6      ldrb	r3, [sp, #182]
0x0000aadc:  e59d10a8      ldr	r1, [sp, #168]						0x0000aadc:  e59d10a8      ldr	r1, [sp, #168]
0x0000aae0:  e3520000      cmp	r2, #0	; 0x0						0x0000aae0:  e3520000      cmp	r2, #0	; 0x0
0x0000aae4:  e5dd20b4      ldrb	r2, [sp, #180]						0x0000aae4:  e5dd20b4      ldrb	r2, [sp, #180]
0x0000aae8:  e79a3103      ldr	r3, [sl, r3, lsl #2]					0x0000aae8:  e79a3103      ldr	r3, [sl, r3, lsl #2]
0x0000aaec:  e7992102      ldr	r2, [r9, r2, lsl #2]					0x0000aaec:  e7992102      ldr	r2, [r9, r2, lsl #2]
0x0000aaf0:  e0233002      eor	r3, r3, r2						0x0000aaf0:  e0233002      eor	r3, r3, r2
0x0000aaf4:  e5dd20b7      ldrb	r2, [sp, #183]						0x0000aaf4:  e5dd20b7      ldrb	r2, [sp, #183]
0x0000aaf8:  e0233001      eor	r3, r3, r1						0x0000aaf8:  e0233001      eor	r3, r3, r1
0x0000aafc:  e7982102      ldr	r2, [r8, r2, lsl #2]					0x0000aafc:  e7982102      ldr	r2, [r8, r2, lsl #2]
0x0000ab00:  e0233002      eor	r3, r3, r2						0x0000ab00:  e0233002      eor	r3, r3, r2
0x0000ab04:  e5dd20b5      ldrb	r2, [sp, #181]						0x0000ab04:  e5dd20b5      ldrb	r2, [sp, #181]
0x0000ab08:  e79b2102      ldr	r2, [fp, r2, lsl #2]					0x0000ab08:  e79b2102      ldr	r2, [fp, r2, lsl #2]
0x0000ab0c:  e0233002      eor	r3, r3, r2						0x0000ab0c:  e0233002      eor	r3, r3, r2
0x0000ab10:  e5dd20b3      ldrb	r2, [sp, #179]						0x0000ab10:  e5dd20b3      ldrb	r2, [sp, #179]
0x0000ab14:  e7982102      ldr	r2, [r8, r2, lsl #2]					0x0000ab14:  e7982102      ldr	r2, [r8, r2, lsl #2]
0x0000ab18:  e0236002      eor	r6, r3, r2						0x0000ab18:  e0236002      eor	r6, r3, r2
0x0000ab1c:  e5dd30b1      ldrb	r3, [sp, #177]						0x0000ab1c:  e5dd30b1      ldrb	r3, [sp, #177]
0x0000ab20:  e1a01c26      lsr	r1, r6, #24						0x0000ab20:  e1a01c26      lsr	r1, r6, #24
0x0000ab24:  e59d20b0      ldr	r2, [sp, #176]						0x0000ab24:  e59d20b0      ldr	r2, [sp, #176]
0x0000ab28:  e79b3103      ldr	r3, [fp, r3, lsl #2]					0x0000ab28:  e79b3103      ldr	r3, [fp, r3, lsl #2]
0x0000ab2c:  e7e75456      ubfx	r5, r6, #8, #8						0x0000ab2c:  e7e75456      ubfx	r5, r6, #8, #8
0x0000ab30:  e0233002      eor	r3, r3, r2						0x0000ab30:  e0233002      eor	r3, r3, r2
0x0000ab34:  e79a2101      ldr	r2, [sl, r1, lsl #2]					0x0000ab34:  e79a2101      ldr	r2, [sl, r1, lsl #2]
0x0000ab38:  e58d1020      str	r1, [sp, #32]						0x0000ab38:  e58d1020      str	r1, [sp, #32]
0x0000ab3c:  e0233002      eor	r3, r3, r2						0x0000ab3c:  e0233002      eor	r3, r3, r2
0x0000ab40:  e7992105      ldr	r2, [r9, r5, lsl #2]					0x0000ab40:  e7992105      ldr	r2, [r9, r5, lsl #2]
0x0000ab44:  e7e71856      ubfx	r1, r6, #16, #8						0x0000ab44:  e7e71856      ubfx	r1, r6, #16, #8
0x0000ab48:  e0233002      eor	r3, r3, r2						0x0000ab48:  e0233002      eor	r3, r3, r2
0x0000ab4c:  e6ef2076      uxtb	r2, r6							0x0000ab4c:  e6ef2076      uxtb	r2, r6
0x0000ab50:  e58d1030      str	r1, [sp, #48]						0x0000ab50:  e58d1030      str	r1, [sp, #48]
0x0000ab54:  e7981101      ldr	r1, [r8, r1, lsl #2]					0x0000ab54:  e7981101      ldr	r1, [r8, r1, lsl #2]
0x0000ab58:  e58d2024      str	r2, [sp, #36]						0x0000ab58:  e58d2024      str	r2, [sp, #36]
0x0000ab5c:  e79b2102      ldr	r2, [fp, r2, lsl #2]					0x0000ab5c:  e79b2102      ldr	r2, [fp, r2, lsl #2]
0x0000ab60:  e0233001      eor	r3, r3, r1						0x0000ab60:  e0233001      eor	r3, r3, r1
0x0000ab64:  e0232002      eor	r2, r3, r2						0x0000ab64:  e0232002      eor	r2, r3, r2
0x0000ab68:  e5dd30b2      ldrb	r3, [sp, #178]						0x0000ab68:  e5dd30b2      ldrb	r3, [sp, #178]
0x0000ab6c:  e6ef0072      uxtb	r0, r2							0x0000ab6c:  e6ef0072      uxtb	r0, r2
0x0000ab70:  e58d1034      str	r1, [sp, #52]						0x0000ab70:  e58d1034      str	r1, [sp, #52]
0x0000ab74:  e79a1103      ldr	r1, [sl, r3, lsl #2]					0x0000ab74:  e79a1103      ldr	r1, [sl, r3, lsl #2]
0x0000ab78:  e59d30b4      ldr	r3, [sp, #180]						0x0000ab78:  e59d30b4      ldr	r3, [sp, #180]
0x0000ab7c:  e7e7c452      ubfx	ip, r2, #8, #8						0x0000ab7c:  e7e7c452      ubfx	ip, r2, #8, #8
0x0000ab80:  e0211003      eor	r1, r1, r3						0x0000ab80:  e0211003      eor	r1, r1, r3
0x0000ab84:  e79a3100      ldr	r3, [sl, r0, lsl #2]					0x0000ab84:  e79a3100      ldr	r3, [sl, r0, lsl #2]
0x0000ab88:  e58d203c      str	r2, [sp, #60]						0x0000ab88:  e58d203c      str	r2, [sp, #60]
0x0000ab8c:  e0211003      eor	r1, r1, r3						0x0000ab8c:  e0211003      eor	r1, r1, r3
0x0000ab90:  e1a03002      mov	r3, r2							0x0000ab90:  e1a03002      mov	r3, r2
0x0000ab94:  e58d20bc      str	r2, [sp, #188]						0x0000ab94:  e58d20bc      str	r2, [sp, #188]
0x0000ab98:  e7e72852      ubfx	r2, r2, #16, #8						0x0000ab98:  e7e72852      ubfx	r2, r2, #16, #8
0x0000ab9c:  e58d0028      str	r0, [sp, #40]						0x0000ab9c:  e58d0028      str	r0, [sp, #40]
0x0000aba0:  e58dc02c      str	ip, [sp, #44]						0x0000aba0:  e58dc02c      str	ip, [sp, #44]
0x0000aba4:  e58d60b8      str	r6, [sp, #184]						0x0000aba4:  e58d60b8      str	r6, [sp, #184]
0x0000aba8:  e58d2044      str	r2, [sp, #68]						0x0000aba8:  e58d2044      str	r2, [sp, #68]
0x0000abac:  e799010c      ldr	r0, [r9, ip, lsl #2]					0x0000abac:  e799010c      ldr	r0, [r9, ip, lsl #2]
0x0000abb0:  e0211000      eor	r1, r1, r0						0x0000abb0:  e0211000      eor	r1, r1, r0
0x0000abb4:  e58d0040      str	r0, [sp, #64]						0x0000abb4:  e58d0040      str	r0, [sp, #64]
0x0000abb8:  e1a00c23      lsr	r0, r3, #24						0x0000abb8:  e1a00c23      lsr	r0, r3, #24
0x0000abbc:  e7983102      ldr	r3, [r8, r2, lsl #2]					0x0000abbc:  e7983102      ldr	r3, [r8, r2, lsl #2]
0x0000abc0:  e79b2100      ldr	r2, [fp, r0, lsl #2]					0x0000abc0:  e79b2100      ldr	r2, [fp, r0, lsl #2]
0x0000abc4:  e0211003      eor	r1, r1, r3						0x0000abc4:  e0211003      eor	r1, r1, r3
0x0000abc8:  e58d204c      str	r2, [sp, #76]						0x0000abc8:  e58d204c      str	r2, [sp, #76]
0x0000abcc:  e0212002      eor	r2, r1, r2						0x0000abcc:  e0212002      eor	r2, r1, r2
0x0000abd0:  e58d0048      str	r0, [sp, #72]						0x0000abd0:  e58d0048      str	r0, [sp, #72]
0x0000abd4:  e7e70452      ubfx	r0, r2, #8, #8						0x0000abd4:  e7e70452      ubfx	r0, r2, #8, #8
0x0000abd8:  e5dd10b0      ldrb	r1, [sp, #176]						0x0000abd8:  e5dd10b0      ldrb	r1, [sp, #176]
0x0000abdc:  e79a7100      ldr	r7, [sl, r0, lsl #2]					0x0000abdc:  e79a7100      ldr	r7, [sl, r0, lsl #2]
0x0000abe0:  e7e70852      ubfx	r0, r2, #16, #8						0x0000abe0:  e7e70852      ubfx	r0, r2, #16, #8
0x0000abe4:  e7991101      ldr	r1, [r9, r1, lsl #2]					0x0000abe4:  e7991101      ldr	r1, [r9, r1, lsl #2]
0x0000abe8:  e799c100      ldr	ip, [r9, r0, lsl #2]					0x0000abe8:  e799c100      ldr	ip, [r9, r0, lsl #2]
0x0000abec:  e58d0054      str	r0, [sp, #84]						0x0000abec:  e58d0054      str	r0, [sp, #84]
0x0000abf0:  e59d00ac      ldr	r0, [sp, #172]						0x0000abf0:  e59d00ac      ldr	r0, [sp, #172]
0x0000abf4:  e58d2050      str	r2, [sp, #80]						0x0000abf4:  e58d2050      str	r2, [sp, #80]
0x0000abf8:  e0211000      eor	r1, r1, r0						0x0000abf8:  e0211000      eor	r1, r1, r0
0x0000abfc:  e1a00002      mov	r0, r2							0x0000abfc:  e1a00002      mov	r0, r2

----------------									----------------
IN: run											IN: run
0x0000ac00:  e58d20c0      str	r2, [sp, #192]						0x0000ac00:  e58d20c0      str	r2, [sp, #192]
0x0000ac04:  e6ef2072      uxtb	r2, r2							0x0000ac04:  e6ef2072      uxtb	r2, r2
0x0000ac08:  e0211007      eor	r1, r1, r7						0x0000ac08:  e0211007      eor	r1, r1, r7
0x0000ac0c:  e021100c      eor	r1, r1, ip						0x0000ac0c:  e021100c      eor	r1, r1, ip
0x0000ac10:  e58dc058      str	ip, [sp, #88]						0x0000ac10:  e58dc058      str	ip, [sp, #88]
0x0000ac14:  e1a0cc20      lsr	ip, r0, #24						0x0000ac14:  e1a0cc20      lsr	ip, r0, #24
0x0000ac18:  e7980102      ldr	r0, [r8, r2, lsl #2]					0x0000ac18:  e7980102      ldr	r0, [r8, r2, lsl #2]
0x0000ac1c:  e58dc05c      str	ip, [sp, #92]						0x0000ac1c:  e58dc05c      str	ip, [sp, #92]
0x0000ac20:  e0211000      eor	r1, r1, r0						0x0000ac20:  e0211000      eor	r1, r1, r0
0x0000ac24:  e79b010c      ldr	r0, [fp, ip, lsl #2]					0x0000ac24:  e79b010c      ldr	r0, [fp, ip, lsl #2]
0x0000ac28:  e0214000      eor	r4, r1, r0						0x0000ac28:  e0214000      eor	r4, r1, r0
0x0000ac2c:  e58d40c4      str	r4, [sp, #196]						0x0000ac2c:  e58d40c4      str	r4, [sp, #196]
0x0000ac30:  1a0003dc      bne	0xbba8							0x0000ac30:  1a0003dc      bne	0xbba8

----------------									----------------
IN: run											IN: run
0x0000ac34:  e59d1040      ldr	r1, [sp, #64]						0x0000ac34:  e59d1040      ldr	r1, [sp, #64]
0x0000ac38:  e59de018      ldr	lr, [sp, #24]						0x0000ac38:  e59de018      ldr	lr, [sp, #24]
0x0000ac3c:  e0211003      eor	r1, r1, r3						0x0000ac3c:  e0211003      eor	r1, r1, r3
0x0000ac40:  e59d005c      ldr	r0, [sp, #92]						0x0000ac40:  e59d005c      ldr	r0, [sp, #92]
0x0000ac44:  e1a03001      mov	r3, r1							0x0000ac44:  e1a03001      mov	r3, r1
0x0000ac48:  e59d104c      ldr	r1, [sp, #76]						0x0000ac48:  e59d104c      ldr	r1, [sp, #76]
0x0000ac4c:  e79a0100      ldr	r0, [sl, r0, lsl #2]					0x0000ac4c:  e79a0100      ldr	r0, [sl, r0, lsl #2]
0x0000ac50:  e0233001      eor	r3, r3, r1						0x0000ac50:  e0233001      eor	r3, r3, r1
0x0000ac54:  e0277003      eor	r7, r7, r3						0x0000ac54:  e0277003      eor	r7, r7, r3
0x0000ac58:  e59d302c      ldr	r3, [sp, #44]						0x0000ac58:  e59d302c      ldr	r3, [sp, #44]
0x0000ac5c:  e59d1054      ldr	r1, [sp, #84]						0x0000ac5c:  e59d1054      ldr	r1, [sp, #84]
0x0000ac60:  e79b3103      ldr	r3, [fp, r3, lsl #2]					0x0000ac60:  e79b3103      ldr	r3, [fp, r3, lsl #2]
0x0000ac64:  e7981101      ldr	r1, [r8, r1, lsl #2]					0x0000ac64:  e7981101      ldr	r1, [r8, r1, lsl #2]
0x0000ac68:  e58d302c      str	r3, [sp, #44]						0x0000ac68:  e58d302c      str	r3, [sp, #44]
0x0000ac6c:  e7993102      ldr	r3, [r9, r2, lsl #2]					0x0000ac6c:  e7993102      ldr	r3, [r9, r2, lsl #2]
0x0000ac70:  e59d21fc      ldr	r2, [sp, #508]						0x0000ac70:  e59d21fc      ldr	r2, [sp, #508]
0x0000ac74:  e0277003      eor	r7, r7, r3						0x0000ac74:  e0277003      eor	r7, r7, r3
0x0000ac78:  e7e73454      ubfx	r3, r4, #8, #8						0x0000ac78:  e7e73454      ubfx	r3, r4, #8, #8
0x0000ac7c:  e3520000      cmp	r2, #0	; 0x0						0x0000ac7c:  e3520000      cmp	r2, #0	; 0x0
0x0000ac80:  e50e700c      str	r7, [lr, #-12]						0x0000ac80:  e50e700c      str	r7, [lr, #-12]
0x0000ac84:  e79ac103      ldr	ip, [sl, r3, lsl #2]					0x0000ac84:  e79ac103      ldr	ip, [sl, r3, lsl #2]
0x0000ac88:  e59d3028      ldr	r3, [sp, #40]						0x0000ac88:  e59d3028      ldr	r3, [sp, #40]
0x0000ac8c:  e59d702c      ldr	r7, [sp, #44]						0x0000ac8c:  e59d702c      ldr	r7, [sp, #44]
0x0000ac90:  e7983103      ldr	r3, [r8, r3, lsl #2]					0x0000ac90:  e7983103      ldr	r3, [r8, r3, lsl #2]
0x0000ac94:  e79ae105      ldr	lr, [sl, r5, lsl #2]					0x0000ac94:  e79ae105      ldr	lr, [sl, r5, lsl #2]
0x0000ac98:  e0233007      eor	r3, r3, r7						0x0000ac98:  e0233007      eor	r3, r3, r7
0x0000ac9c:  e79b7105      ldr	r7, [fp, r5, lsl #2]					0x0000ac9c:  e79b7105      ldr	r7, [fp, r5, lsl #2]
0x0000aca0:  e59d5058      ldr	r5, [sp, #88]						0x0000aca0:  e59d5058      ldr	r5, [sp, #88]
0x0000aca4:  e023300e      eor	r3, r3, lr						0x0000aca4:  e023300e      eor	r3, r3, lr
0x0000aca8:  e0233005      eor	r3, r3, r5						0x0000aca8:  e0233005      eor	r3, r3, r5
0x0000acac:  e59de018      ldr	lr, [sp, #24]						0x0000acac:  e59de018      ldr	lr, [sp, #24]
0x0000acb0:  e0233000      eor	r3, r3, r0						0x0000acb0:  e0233000      eor	r3, r3, r0
0x0000acb4:  e50e3010      str	r3, [lr, #-16]						0x0000acb4:  e50e3010      str	r3, [lr, #-16]
0x0000acb8:  e59d3024      ldr	r3, [sp, #36]						0x0000acb8:  e59d3024      ldr	r3, [sp, #36]
0x0000acbc:  e59d0034      ldr	r0, [sp, #52]						0x0000acbc:  e59d0034      ldr	r0, [sp, #52]
0x0000acc0:  e7983103      ldr	r3, [r8, r3, lsl #2]					0x0000acc0:  e7983103      ldr	r3, [r8, r3, lsl #2]
0x0000acc4:  e1a02c24      lsr	r2, r4, #24						0x0000acc4:  e1a02c24      lsr	r2, r4, #24
0x0000acc8:  e0233007      eor	r3, r3, r7						0x0000acc8:  e0233007      eor	r3, r3, r7
0x0000accc:  e0211003      eor	r1, r1, r3						0x0000accc:  e0211003      eor	r1, r1, r3
0x0000acd0:  e59d3020      ldr	r3, [sp, #32]						0x0000acd0:  e59d3020      ldr	r3, [sp, #32]
0x0000acd4:  e58d7040      str	r7, [sp, #64]						0x0000acd4:  e58d7040      str	r7, [sp, #64]
0x0000acd8:  e79b3103      ldr	r3, [fp, r3, lsl #2]					0x0000acd8:  e79b3103      ldr	r3, [fp, r3, lsl #2]
0x0000acdc:  e0200003      eor	r0, r0, r3						0x0000acdc:  e0200003      eor	r0, r0, r3
0x0000ace0:  e6ef3074      uxtb	r3, r4							0x0000ace0:  e6ef3074      uxtb	r3, r4
0x0000ace4:  e02cc000      eor	ip, ip, r0						0x0000ace4:  e02cc000      eor	ip, ip, r0
0x0000ace8:  e7993103      ldr	r3, [r9, r3, lsl #2]					0x0000ace8:  e7993103      ldr	r3, [r9, r3, lsl #2]
0x0000acec:  e79a0102      ldr	r0, [sl, r2, lsl #2]					0x0000acec:  e79a0102      ldr	r0, [sl, r2, lsl #2]
0x0000acf0:  e02cc003      eor	ip, ip, r3						0x0000acf0:  e02cc003      eor	ip, ip, r3
0x0000acf4:  e7e73854      ubfx	r3, r4, #16, #8						0x0000acf4:  e7e73854      ubfx	r3, r4, #16, #8
0x0000acf8:  e0211000      eor	r1, r1, r0						0x0000acf8:  e0211000      eor	r1, r1, r0
0x0000acfc:  e7993103      ldr	r3, [r9, r3, lsl #2]					0x0000acfc:  e7993103      ldr	r3, [r9, r3, lsl #2]
0x0000ad00:  e0211003      eor	r1, r1, r3						0x0000ad00:  e0211003      eor	r1, r1, r3
0x0000ad04:  e50e1008      str	r1, [lr, #-8]						0x0000ad04:  e50e1008      str	r1, [lr, #-8]
0x0000ad08:  e79b3102      ldr	r3, [fp, r2, lsl #2]					0x0000ad08:  e79b3102      ldr	r3, [fp, r2, lsl #2]
0x0000ad0c:  e02cc003      eor	ip, ip, r3						0x0000ad0c:  e02cc003      eor	ip, ip, r3
0x0000ad10:  e59d301c      ldr	r3, [sp, #28]						0x0000ad10:  e59d301c      ldr	r3, [sp, #28]
0x0000ad14:  e50ec004      str	ip, [lr, #-4]						0x0000ad14:  e50ec004      str	ip, [lr, #-4]
0x0000ad18:  e2832003      add	r2, r3, #3	; 0x3					0x0000ad18:  e2832003      add	r2, r3, #3	; 0x3
0x0000ad1c:  1a0003e3      bne	0xbcb0							0x0000ad1c:  1a0003e3      bne	0xbcb0

----------------									----------------
IN: run											IN: run
0x0000ad20:  e59d3040      ldr	r3, [sp, #64]						0x0000ad20:  e59d3040      ldr	r3, [sp, #64]
0x0000ad24:  e59d202c      ldr	r2, [sp, #44]						0x0000ad24:  e59d202c      ldr	r2, [sp, #44]
0x0000ad28:  e0266003      eor	r6, r6, r3						0x0000ad28:  e0266003      eor	r6, r6, r3
0x0000ad2c:  e59d3044      ldr	r3, [sp, #68]						0x0000ad2c:  e59d3044      ldr	r3, [sp, #68]
0x0000ad30:  e79a3103      ldr	r3, [sl, r3, lsl #2]					0x0000ad30:  e79a3103      ldr	r3, [sl, r3, lsl #2]
0x0000ad34:  e0222003      eor	r2, r2, r3						0x0000ad34:  e0222003      eor	r2, r2, r3
0x0000ad38:  e1a03002      mov	r3, r2							0x0000ad38:  e1a03002      mov	r3, r2
0x0000ad3c:  e59d2020      ldr	r2, [sp, #32]						0x0000ad3c:  e59d2020      ldr	r2, [sp, #32]
0x0000ad40:  e7982102      ldr	r2, [r8, r2, lsl #2]					0x0000ad40:  e7982102      ldr	r2, [r8, r2, lsl #2]
0x0000ad44:  e0233002      eor	r3, r3, r2						0x0000ad44:  e0233002      eor	r3, r3, r2
0x0000ad48:  e59d2028      ldr	r2, [sp, #40]						0x0000ad48:  e59d2028      ldr	r2, [sp, #40]
0x0000ad4c:  e7992102      ldr	r2, [r9, r2, lsl #2]					0x0000ad4c:  e7992102      ldr	r2, [r9, r2, lsl #2]
0x0000ad50:  e0233002      eor	r3, r3, r2						0x0000ad50:  e0233002      eor	r3, r3, r2
0x0000ad54:  e59d2048      ldr	r2, [sp, #72]						0x0000ad54:  e59d2048      ldr	r2, [sp, #72]
0x0000ad58:  e7982102      ldr	r2, [r8, r2, lsl #2]					0x0000ad58:  e7982102      ldr	r2, [r8, r2, lsl #2]
0x0000ad5c:  e0233002      eor	r3, r3, r2						0x0000ad5c:  e0233002      eor	r3, r3, r2
0x0000ad60:  e59d2050      ldr	r2, [sp, #80]						0x0000ad60:  e59d2050      ldr	r2, [sp, #80]
0x0000ad64:  e0233002      eor	r3, r3, r2						0x0000ad64:  e0233002      eor	r3, r3, r2
0x0000ad68:  e59d2030      ldr	r2, [sp, #48]						0x0000ad68:  e59d2030      ldr	r2, [sp, #48]
0x0000ad6c:  e1a00c23      lsr	r0, r3, #24						0x0000ad6c:  e1a00c23      lsr	r0, r3, #24
0x0000ad70:  e79ae102      ldr	lr, [sl, r2, lsl #2]					0x0000ad70:  e79ae102      ldr	lr, [sl, r2, lsl #2]
0x0000ad74:  e59d203c      ldr	r2, [sp, #60]						0x0000ad74:  e59d203c      ldr	r2, [sp, #60]
0x0000ad78:  e7e7c853      ubfx	ip, r3, #16, #8						0x0000ad78:  e7e7c853      ubfx	ip, r3, #16, #8
0x0000ad7c:  e022200e      eor	r2, r2, lr						0x0000ad7c:  e022200e      eor	r2, r2, lr
0x0000ad80:  e58d30a8      str	r3, [sp, #168]						0x0000ad80:  e58d30a8      str	r3, [sp, #168]
0x0000ad84:  e1a0e002      mov	lr, r2							0x0000ad84:  e1a0e002      mov	lr, r2
0x0000ad88:  e59d2024      ldr	r2, [sp, #36]						0x0000ad88:  e59d2024      ldr	r2, [sp, #36]
0x0000ad8c:  e7991102      ldr	r1, [r9, r2, lsl #2]					0x0000ad8c:  e7991102      ldr	r1, [r9, r2, lsl #2]
0x0000ad90:  e59d21fc      ldr	r2, [sp, #508]						0x0000ad90:  e59d21fc      ldr	r2, [sp, #508]
0x0000ad94:  e0247001      eor	r7, r4, r1						0x0000ad94:  e0247001      eor	r7, r4, r1
0x0000ad98:  e3520000      cmp	r2, #0	; 0x0						0x0000ad98:  e3520000      cmp	r2, #0	; 0x0
0x0000ad9c:  e7e72453      ubfx	r2, r3, #8, #8						0x0000ad9c:  e7e72453      ubfx	r2, r3, #8, #8
0x0000ada0:  e6ef3073      uxtb	r3, r3							0x0000ada0:  e6ef3073      uxtb	r3, r3
0x0000ada4:  e7991102      ldr	r1, [r9, r2, lsl #2]					0x0000ada4:  e7991102      ldr	r1, [r9, r2, lsl #2]
0x0000ada8:  e79a2100      ldr	r2, [sl, r0, lsl #2]					0x0000ada8:  e79a2100      ldr	r2, [sl, r0, lsl #2]
0x0000adac:  e79b3103      ldr	r3, [fp, r3, lsl #2]					0x0000adac:  e79b3103      ldr	r3, [fp, r3, lsl #2]
0x0000adb0:  e0266002      eor	r6, r6, r2						0x0000adb0:  e0266002      eor	r6, r6, r2
0x0000adb4:  e798210c      ldr	r2, [r8, ip, lsl #2]					0x0000adb4:  e798210c      ldr	r2, [r8, ip, lsl #2]
0x0000adb8:  e0266001      eor	r6, r6, r1						0x0000adb8:  e0266001      eor	r6, r6, r1
0x0000adbc:  e0222006      eor	r2, r2, r6						0x0000adbc:  e0222006      eor	r2, r2, r6
0x0000adc0:  e0222003      eor	r2, r2, r3						0x0000adc0:  e0222003      eor	r2, r2, r3
0x0000adc4:  e7e75852      ubfx	r5, r2, #16, #8						0x0000adc4:  e7e75852      ubfx	r5, r2, #16, #8
0x0000adc8:  e6ef3072      uxtb	r3, r2							0x0000adc8:  e6ef3072      uxtb	r3, r2
0x0000adcc:  e58d20ac      str	r2, [sp, #172]						0x0000adcc:  e58d20ac      str	r2, [sp, #172]
0x0000add0:  e79a3103      ldr	r3, [sl, r3, lsl #2]					0x0000add0:  e79a3103      ldr	r3, [sl, r3, lsl #2]
0x0000add4:  e58d1024      str	r1, [sp, #36]						0x0000add4:  e58d1024      str	r1, [sp, #36]
0x0000add8:  e02ee003      eor	lr, lr, r3						0x0000add8:  e02ee003      eor	lr, lr, r3
0x0000addc:  e7e73452      ubfx	r3, r2, #8, #8						0x0000addc:  e7e73452      ubfx	r3, r2, #8, #8
0x0000ade0:  e1a02c22      lsr	r2, r2, #24						0x0000ade0:  e1a02c22      lsr	r2, r2, #24
0x0000ade4:  e7993103      ldr	r3, [r9, r3, lsl #2]					0x0000ade4:  e7993103      ldr	r3, [r9, r3, lsl #2]
0x0000ade8:  e79b1102      ldr	r1, [fp, r2, lsl #2]					0x0000ade8:  e79b1102      ldr	r1, [fp, r2, lsl #2]
0x0000adec:  e02ee003      eor	lr, lr, r3						0x0000adec:  e02ee003      eor	lr, lr, r3
0x0000adf0:  e58d3028      str	r3, [sp, #40]						0x0000adf0:  e58d3028      str	r3, [sp, #40]
0x0000adf4:  e7983105      ldr	r3, [r8, r5, lsl #2]					0x0000adf4:  e7983105      ldr	r3, [r8, r5, lsl #2]
0x0000adf8:  e023300e      eor	r3, r3, lr						0x0000adf8:  e023300e      eor	r3, r3, lr
0x0000adfc:  e0233001      eor	r3, r3, r1						0x0000adfc:  e0233001      eor	r3, r3, r1
0x0000ae00:  e7e74453      ubfx	r4, r3, #8, #8						0x0000ae00:  e7e74453      ubfx	r4, r3, #8, #8
0x0000ae04:  e6ef1073      uxtb	r1, r3							0x0000ae04:  e6ef1073      uxtb	r1, r3
0x0000ae08:  e7e7e853      ubfx	lr, r3, #16, #8						0x0000ae08:  e7e7e853      ubfx	lr, r3, #16, #8
0x0000ae0c:  e7986101      ldr	r6, [r8, r1, lsl #2]					0x0000ae0c:  e7986101      ldr	r6, [r8, r1, lsl #2]
0x0000ae10:  e79a1104      ldr	r1, [sl, r4, lsl #2]					0x0000ae10:  e79a1104      ldr	r1, [sl, r4, lsl #2]
0x0000ae14:  e58d30b0      str	r3, [sp, #176]						0x0000ae14:  e58d30b0      str	r3, [sp, #176]
0x0000ae18:  e0211007      eor	r1, r1, r7						0x0000ae18:  e0211007      eor	r1, r1, r7
0x0000ae1c:  e799710e      ldr	r7, [r9, lr, lsl #2]					0x0000ae1c:  e799710e      ldr	r7, [r9, lr, lsl #2]
0x0000ae20:  e1a03c23      lsr	r3, r3, #24						0x0000ae20:  e1a03c23      lsr	r3, r3, #24
0x0000ae24:  e0211007      eor	r1, r1, r7						0x0000ae24:  e0211007      eor	r1, r1, r7
0x0000ae28:  e0266001      eor	r6, r6, r1						0x0000ae28:  e0266001      eor	r6, r6, r1
0x0000ae2c:  e79b1103      ldr	r1, [fp, r3, lsl #2]					0x0000ae2c:  e79b1103      ldr	r1, [fp, r3, lsl #2]
0x0000ae30:  e0266001      eor	r6, r6, r1						0x0000ae30:  e0266001      eor	r6, r6, r1
0x0000ae34:  e58d60b4      str	r6, [sp, #180]						0x0000ae34:  e58d60b4      str	r6, [sp, #180]
0x0000ae38:  1a00037f      bne	0xbc3c							0x0000ae38:  1a00037f      bne	0xbc3c

----------------									----------------
IN: run											IN: run
0x0000ae3c:  e7990100      ldr	r0, [r9, r0, lsl #2]					0x0000ae3c:  e7990100      ldr	r0, [r9, r0, lsl #2]
0x0000ae40:  e79ac10c      ldr	ip, [sl, ip, lsl #2]					0x0000ae40:  e79ac10c      ldr	ip, [sl, ip, lsl #2]
0x0000ae44:  e58d003c      str	r0, [sp, #60]						0x0000ae44:  e58d003c      str	r0, [sp, #60]
0x0000ae48:  e5dd00b7      ldrb	r0, [sp, #183]						0x0000ae48:  e5dd00b7      ldrb	r0, [sp, #183]
0x0000ae4c:  e79a1105      ldr	r1, [sl, r5, lsl #2]					0x0000ae4c:  e79a1105      ldr	r1, [sl, r5, lsl #2]
0x0000ae50:  e58dc034      str	ip, [sp, #52]						0x0000ae50:  e58dc034      str	ip, [sp, #52]
0x0000ae54:  e798c100      ldr	ip, [r8, r0, lsl #2]					0x0000ae54:  e798c100      ldr	ip, [r8, r0, lsl #2]
0x0000ae58:  e5dd00b4      ldrb	r0, [sp, #180]						0x0000ae58:  e5dd00b4      ldrb	r0, [sp, #180]
0x0000ae5c:  e58d1040      str	r1, [sp, #64]						0x0000ae5c:  e58d1040      str	r1, [sp, #64]
0x0000ae60:  e58d0030      str	r0, [sp, #48]						0x0000ae60:  e58d0030      str	r0, [sp, #48]
0x0000ae64:  e1a06000      mov	r6, r0							0x0000ae64:  e1a06000      mov	r6, r0
0x0000ae68:  e5dd10a8      ldrb	r1, [sp, #168]						0x0000ae68:  e5dd10a8      ldrb	r1, [sp, #168]
0x0000ae6c:  e5dd00b0      ldrb	r0, [sp, #176]						0x0000ae6c:  e5dd00b0      ldrb	r0, [sp, #176]
0x0000ae70:  e7992102      ldr	r2, [r9, r2, lsl #2]					0x0000ae70:  e7992102      ldr	r2, [r9, r2, lsl #2]
0x0000ae74:  e58d0020      str	r0, [sp, #32]						0x0000ae74:  e58d0020      str	r0, [sp, #32]
0x0000ae78:  e5dd70b5      ldrb	r7, [sp, #181]						0x0000ae78:  e5dd70b5      ldrb	r7, [sp, #181]
0x0000ae7c:  e79a0101      ldr	r0, [sl, r1, lsl #2]					0x0000ae7c:  e79a0101      ldr	r0, [sl, r1, lsl #2]
0x0000ae80:  e79b6106      ldr	r6, [fp, r6, lsl #2]					0x0000ae80:  e79b6106      ldr	r6, [fp, r6, lsl #2]
0x0000ae84:  e58d2044      str	r2, [sp, #68]						0x0000ae84:  e58d2044      str	r2, [sp, #68]
0x0000ae88:  e020000c      eor	r0, r0, ip						0x0000ae88:  e020000c      eor	r0, r0, ip
0x0000ae8c:  e5dd20ac      ldrb	r2, [sp, #172]						0x0000ae8c:  e5dd20ac      ldrb	r2, [sp, #172]
0x0000ae90:  e58dc02c      str	ip, [sp, #44]						0x0000ae90:  e58dc02c      str	ip, [sp, #44]
0x0000ae94:  e798c107      ldr	ip, [r8, r7, lsl #2]					0x0000ae94:  e798c107      ldr	ip, [r8, r7, lsl #2]
0x0000ae98:  e7981101      ldr	r1, [r8, r1, lsl #2]					0x0000ae98:  e7981101      ldr	r1, [r8, r1, lsl #2]
0x0000ae9c:  e02cc006      eor	ip, ip, r6						0x0000ae9c:  e02cc006      eor	ip, ip, r6
0x0000aea0:  e79a6102      ldr	r6, [sl, r2, lsl #2]					0x0000aea0:  e79a6102      ldr	r6, [sl, r2, lsl #2]
0x0000aea4:  e79b2102      ldr	r2, [fp, r2, lsl #2]					0x0000aea4:  e79b2102      ldr	r2, [fp, r2, lsl #2]
0x0000aea8:  e0211006      eor	r1, r1, r6						0x0000aea8:  e0211006      eor	r1, r1, r6
0x0000aeac:  e59d6028      ldr	r6, [sp, #40]						0x0000aeac:  e59d6028      ldr	r6, [sp, #40]
0x0000aeb0:  e59d51fc      ldr	r5, [sp, #508]						0x0000aeb0:  e59d51fc      ldr	r5, [sp, #508]
0x0000aeb4:  e0211006      eor	r1, r1, r6						0x0000aeb4:  e0211006      eor	r1, r1, r6
0x0000aeb8:  e59d6020      ldr	r6, [sp, #32]						0x0000aeb8:  e59d6020      ldr	r6, [sp, #32]
0x0000aebc:  e3550000      cmp	r5, #0	; 0x0						0x0000aebc:  e3550000      cmp	r5, #0	; 0x0
0x0000aec0:  e5dd50b6      ldrb	r5, [sp, #182]						0x0000aec0:  e5dd50b6      ldrb	r5, [sp, #182]
0x0000aec4:  e79b6106      ldr	r6, [fp, r6, lsl #2]					0x0000aec4:  e79b6106      ldr	r6, [fp, r6, lsl #2]
0x0000aec8:  e0222006      eor	r2, r2, r6						0x0000aec8:  e0222006      eor	r2, r2, r6
0x0000aecc:  e59d6040      ldr	r6, [sp, #64]						0x0000aecc:  e59d6040      ldr	r6, [sp, #64]
0x0000aed0:  e0222006      eor	r2, r2, r6						0x0000aed0:  e0222006      eor	r2, r2, r6
0x0000aed4:  e59d6044      ldr	r6, [sp, #68]						0x0000aed4:  e59d6044      ldr	r6, [sp, #68]
0x0000aed8:  e0226006      eor	r6, r2, r6						0x0000aed8:  e0226006      eor	r6, r2, r6
0x0000aedc:  e79b2105      ldr	r2, [fp, r5, lsl #2]					0x0000aedc:  e79b2105      ldr	r2, [fp, r5, lsl #2]
0x0000aee0:  e0200002      eor	r0, r0, r2						0x0000aee0:  e0200002      eor	r0, r0, r2
0x0000aee4:  e59d2024      ldr	r2, [sp, #36]						0x0000aee4:  e59d2024      ldr	r2, [sp, #36]
0x0000aee8:  e0200002      eor	r0, r0, r2						0x0000aee8:  e0200002      eor	r0, r0, r2
0x0000aeec:  e7992105      ldr	r2, [r9, r5, lsl #2]					0x0000aeec:  e7992105      ldr	r2, [r9, r5, lsl #2]
0x0000aef0:  e022200c      eor	r2, r2, ip						0x0000aef0:  e022200c      eor	r2, r2, ip
0x0000aef4:  e59dc034      ldr	ip, [sp, #52]						0x0000aef4:  e59dc034      ldr	ip, [sp, #52]
0x0000aef8:  e022200c      eor	r2, r2, ip						0x0000aef8:  e022200c      eor	r2, r2, ip
0x0000aefc:  e59dc03c      ldr	ip, [sp, #60]						0x0000aefc:  e59dc03c      ldr	ip, [sp, #60]
0x0000af00:  e022200c      eor	r2, r2, ip						0x0000af00:  e022200c      eor	r2, r2, ip
0x0000af04:  e59dc018      ldr	ip, [sp, #24]						0x0000af04:  e59dc018      ldr	ip, [sp, #24]
0x0000af08:  e58c2004      str	r2, [ip, #4]						0x0000af08:  e58c2004      str	r2, [ip, #4]
0x0000af0c:  e798c103      ldr	ip, [r8, r3, lsl #2]					0x0000af0c:  e798c103      ldr	ip, [r8, r3, lsl #2]
0x0000af10:  e79a3103      ldr	r3, [sl, r3, lsl #2]					0x0000af10:  e79a3103      ldr	r3, [sl, r3, lsl #2]
0x0000af14:  e021100c      eor	r1, r1, ip						0x0000af14:  e021100c      eor	r1, r1, ip
0x0000af18:  e0200003      eor	r0, r0, r3						0x0000af18:  e0200003      eor	r0, r0, r3
0x0000af1c:  e79b310e      ldr	r3, [fp, lr, lsl #2]					0x0000af1c:  e79b310e      ldr	r3, [fp, lr, lsl #2]
0x0000af20:  e59d2018      ldr	r2, [sp, #24]						0x0000af20:  e59d2018      ldr	r2, [sp, #24]
0x0000af24:  e0211003      eor	r1, r1, r3						0x0000af24:  e0211003      eor	r1, r1, r3
0x0000af28:  e7983104      ldr	r3, [r8, r4, lsl #2]					0x0000af28:  e7983104      ldr	r3, [r8, r4, lsl #2]
0x0000af2c:  e5821008      str	r1, [r2, #8]						0x0000af2c:  e5821008      str	r1, [r2, #8]
0x0000af30:  e0233006      eor	r3, r3, r6						0x0000af30:  e0233006      eor	r3, r3, r6
0x0000af34:  e582300c      str	r3, [r2, #12]						0x0000af34:  e582300c      str	r3, [r2, #12]
0x0000af38:  e59d301c      ldr	r3, [sp, #28]						0x0000af38:  e59d301c      ldr	r3, [sp, #28]
0x0000af3c:  e5820000      str	r0, [r2]						0x0000af3c:  e5820000      str	r0, [r2]
0x0000af40:  e2831004      add	r1, r3, #4	; 0x4					0x0000af40:  e2831004      add	r1, r3, #4	; 0x4
0x0000af44:  e2832007      add	r2, r3, #7	; 0x7					0x0000af44:  e2832007      add	r2, r3, #7	; 0x7
0x0000af48:  1a0003e2      bne	0xbed8							0x0000af48:  1a0003e2      bne	0xbed8

----------------									----------------
IN: run											IN: run
0x0000af4c:  e59d302c      ldr	r3, [sp, #44]						0x0000af4c:  e59d302c      ldr	r3, [sp, #44]
0x0000af50:  e79a210e      ldr	r2, [sl, lr, lsl #2]					0x0000af50:  e79a210e      ldr	r2, [sl, lr, lsl #2]
0x0000af54:  e59de1fc      ldr	lr, [sp, #508]						0x0000af54:  e59de1fc      ldr	lr, [sp, #508]
0x0000af58:  e023300c      eor	r3, r3, ip						0x0000af58:  e023300c      eor	r3, r3, ip
0x0000af5c:  e79a0105      ldr	r0, [sl, r5, lsl #2]					0x0000af5c:  e79a0105      ldr	r0, [sl, r5, lsl #2]
0x0000af60:  e1a0c003      mov	ip, r3							0x0000af60:  e1a0c003      mov	ip, r3
0x0000af64:  e59d3030      ldr	r3, [sp, #48]						0x0000af64:  e59d3030      ldr	r3, [sp, #48]
0x0000af68:  e35e0000      cmp	lr, #0	; 0x0						0x0000af68:  e35e0000      cmp	lr, #0	; 0x0
0x0000af6c:  e59de0a8      ldr	lr, [sp, #168]						0x0000af6c:  e59de0a8      ldr	lr, [sp, #168]
0x0000af70:  e7995103      ldr	r5, [r9, r3, lsl #2]					0x0000af70:  e7995103      ldr	r5, [r9, r3, lsl #2]
0x0000af74:  e02cc00e      eor	ip, ip, lr						0x0000af74:  e02cc00e      eor	ip, ip, lr
0x0000af78:  e79b7107      ldr	r7, [fp, r7, lsl #2]					0x0000af78:  e79b7107      ldr	r7, [fp, r7, lsl #2]
0x0000af7c:  e02cc000      eor	ip, ip, r0						0x0000af7c:  e02cc000      eor	ip, ip, r0
0x0000af80:  e02cc005      eor	ip, ip, r5						0x0000af80:  e02cc005      eor	ip, ip, r5
0x0000af84:  e027700c      eor	r7, r7, ip						0x0000af84:  e027700c      eor	r7, r7, ip
0x0000af88:  e79b1104      ldr	r1, [fp, r4, lsl #2]					0x0000af88:  e79b1104      ldr	r1, [fp, r4, lsl #2]
0x0000af8c:  e1a0ec27      lsr	lr, r7, #24						0x0000af8c:  e1a0ec27      lsr	lr, r7, #24
0x0000af90:  e59d00b0      ldr	r0, [sp, #176]						0x0000af90:  e59d00b0      ldr	r0, [sp, #176]
0x0000af94:  e7e7c457      ubfx	ip, r7, #8, #8						0x0000af94:  e7e7c457      ubfx	ip, r7, #8, #8
0x0000af98:  e0211000      eor	r1, r1, r0						0x0000af98:  e0211000      eor	r1, r1, r0
0x0000af9c:  e79a010e      ldr	r0, [sl, lr, lsl #2]					0x0000af9c:  e79a010e      ldr	r0, [sl, lr, lsl #2]
0x0000afa0:  e7e74857      ubfx	r4, r7, #16, #8						0x0000afa0:  e7e74857      ubfx	r4, r7, #16, #8
0x0000afa4:  e0211000      eor	r1, r1, r0						0x0000afa4:  e0211000      eor	r1, r1, r0
0x0000afa8:  e799010c      ldr	r0, [r9, ip, lsl #2]					0x0000afa8:  e799010c      ldr	r0, [r9, ip, lsl #2]
0x0000afac:  e58dc024      str	ip, [sp, #36]						0x0000afac:  e58dc024      str	ip, [sp, #36]
0x0000afb0:  e6efc077      uxtb	ip, r7							0x0000afb0:  e6efc077      uxtb	ip, r7
0x0000afb4:  e0211000      eor	r1, r1, r0						0x0000afb4:  e0211000      eor	r1, r1, r0
0x0000afb8:  e58d003c      str	r0, [sp, #60]						0x0000afb8:  e58d003c      str	r0, [sp, #60]
0x0000afbc:  e7980104      ldr	r0, [r8, r4, lsl #2]					0x0000afbc:  e7980104      ldr	r0, [r8, r4, lsl #2]
0x0000afc0:  e58dc028      str	ip, [sp, #40]						0x0000afc0:  e58dc028      str	ip, [sp, #40]
0x0000afc4:  e0211000      eor	r1, r1, r0						0x0000afc4:  e0211000      eor	r1, r1, r0
0x0000afc8:  e79b010c      ldr	r0, [fp, ip, lsl #2]					0x0000afc8:  e79b010c      ldr	r0, [fp, ip, lsl #2]
0x0000afcc:  e59d3020      ldr	r3, [sp, #32]						0x0000afcc:  e59d3020      ldr	r3, [sp, #32]
0x0000afd0:  e0210000      eor	r0, r1, r0						0x0000afd0:  e0210000      eor	r0, r1, r0
0x0000afd4:  e59d10b4      ldr	r1, [sp, #180]						0x0000afd4:  e59d10b4      ldr	r1, [sp, #180]
0x0000afd8:  e6efc070      uxtb	ip, r0							0x0000afd8:  e6efc070      uxtb	ip, r0
0x0000afdc:  e58de020      str	lr, [sp, #32]						0x0000afdc:  e58de020      str	lr, [sp, #32]
0x0000afe0:  e7e7e450      ubfx	lr, r0, #8, #8						0x0000afe0:  e7e7e450      ubfx	lr, r0, #8, #8
0x0000afe4:  e0211002      eor	r1, r1, r2						0x0000afe4:  e0211002      eor	r1, r1, r2
0x0000afe8:  e79a210c      ldr	r2, [sl, ip, lsl #2]					0x0000afe8:  e79a210c      ldr	r2, [sl, ip, lsl #2]
0x0000afec:  e58dc044      str	ip, [sp, #68]						0x0000afec:  e58dc044      str	ip, [sp, #68]
0x0000aff0:  e799c10e      ldr	ip, [r9, lr, lsl #2]					0x0000aff0:  e799c10e      ldr	ip, [r9, lr, lsl #2]
0x0000aff4:  e0211002      eor	r1, r1, r2						0x0000aff4:  e0211002      eor	r1, r1, r2
0x0000aff8:  e58d2034      str	r2, [sp, #52]						0x0000aff8:  e58d2034      str	r2, [sp, #52]
0x0000affc:  e7e72850      ubfx	r2, r0, #16, #8						0x0000affc:  e7e72850      ubfx	r2, r0, #16, #8

----------------									----------------
IN: run											IN: run
0x0000b000:  e021100c      eor	r1, r1, ip						0x0000b000:  e021100c      eor	r1, r1, ip
0x0000b004:  e58dc04c      str	ip, [sp, #76]						0x0000b004:  e58dc04c      str	ip, [sp, #76]
0x0000b008:  e1a0cc20      lsr	ip, r0, #24						0x0000b008:  e1a0cc20      lsr	ip, r0, #24
0x0000b00c:  e7993103      ldr	r3, [r9, r3, lsl #2]					0x0000b00c:  e7993103      ldr	r3, [r9, r3, lsl #2]
0x0000b010:  e58d4030      str	r4, [sp, #48]						0x0000b010:  e58d4030      str	r4, [sp, #48]
0x0000b014:  e58d0040      str	r0, [sp, #64]						0x0000b014:  e58d0040      str	r0, [sp, #64]
0x0000b018:  e58d00bc      str	r0, [sp, #188]						0x0000b018:  e58d00bc      str	r0, [sp, #188]
0x0000b01c:  e58d2050      str	r2, [sp, #80]						0x0000b01c:  e58d2050      str	r2, [sp, #80]
0x0000b020:  e58d70b8      str	r7, [sp, #184]						0x0000b020:  e58d70b8      str	r7, [sp, #184]
0x0000b024:  e58de048      str	lr, [sp, #72]						0x0000b024:  e58de048      str	lr, [sp, #72]
0x0000b028:  e58dc02c      str	ip, [sp, #44]						0x0000b028:  e58dc02c      str	ip, [sp, #44]
0x0000b02c:  e7980102      ldr	r0, [r8, r2, lsl #2]					0x0000b02c:  e7980102      ldr	r0, [r8, r2, lsl #2]
0x0000b030:  e59d40ac      ldr	r4, [sp, #172]						0x0000b030:  e59d40ac      ldr	r4, [sp, #172]
0x0000b034:  e0211000      eor	r1, r1, r0						0x0000b034:  e0211000      eor	r1, r1, r0
0x0000b038:  e79b010c      ldr	r0, [fp, ip, lsl #2]					0x0000b038:  e79b010c      ldr	r0, [fp, ip, lsl #2]
0x0000b03c:  e0244003      eor	r4, r4, r3						0x0000b03c:  e0244003      eor	r4, r4, r3
0x0000b040:  e0211000      eor	r1, r1, r0						0x0000b040:  e0211000      eor	r1, r1, r0
0x0000b044:  e7e72451      ubfx	r2, r1, #8, #8						0x0000b044:  e7e72451      ubfx	r2, r1, #8, #8
0x0000b048:  e6ef6071      uxtb	r6, r1							0x0000b048:  e6ef6071      uxtb	r6, r1
0x0000b04c:  e7e75851      ubfx	r5, r1, #16, #8						0x0000b04c:  e7e75851      ubfx	r5, r1, #16, #8
0x0000b050:  e79a3102      ldr	r3, [sl, r2, lsl #2]					0x0000b050:  e79a3102      ldr	r3, [sl, r2, lsl #2]
0x0000b054:  e58d1054      str	r1, [sp, #84]						0x0000b054:  e58d1054      str	r1, [sp, #84]
0x0000b058:  e0244003      eor	r4, r4, r3						0x0000b058:  e0244003      eor	r4, r4, r3
0x0000b05c:  e58d10c0      str	r1, [sp, #192]						0x0000b05c:  e58d10c0      str	r1, [sp, #192]
0x0000b060:  e1a03c21      lsr	r3, r1, #24						0x0000b060:  e1a03c21      lsr	r3, r1, #24
0x0000b064:  e7991105      ldr	r1, [r9, r5, lsl #2]					0x0000b064:  e7991105      ldr	r1, [r9, r5, lsl #2]
0x0000b068:  e0244001      eor	r4, r4, r1						0x0000b068:  e0244001      eor	r4, r4, r1
0x0000b06c:  e7981106      ldr	r1, [r8, r6, lsl #2]					0x0000b06c:  e7981106      ldr	r1, [r8, r6, lsl #2]
0x0000b070:  e0244001      eor	r4, r4, r1						0x0000b070:  e0244001      eor	r4, r4, r1
0x0000b074:  e79b1103      ldr	r1, [fp, r3, lsl #2]					0x0000b074:  e79b1103      ldr	r1, [fp, r3, lsl #2]
0x0000b078:  e0244001      eor	r4, r4, r1						0x0000b078:  e0244001      eor	r4, r4, r1
0x0000b07c:  e58d40c4      str	r4, [sp, #196]						0x0000b07c:  e58d40c4      str	r4, [sp, #196]
0x0000b080:  1a00036e      bne	0xbe40							0x0000b080:  1a00036e      bne	0xbe40

----------------									----------------
IN: run											IN: run
0x0000b084:  e59dc050      ldr	ip, [sp, #80]						0x0000b084:  e59dc050      ldr	ip, [sp, #80]
0x0000b088:  e59de048      ldr	lr, [sp, #72]						0x0000b088:  e59de048      ldr	lr, [sp, #72]
0x0000b08c:  e59d004c      ldr	r0, [sp, #76]						0x0000b08c:  e59d004c      ldr	r0, [sp, #76]
0x0000b090:  e59d1034      ldr	r1, [sp, #52]						0x0000b090:  e59d1034      ldr	r1, [sp, #52]
0x0000b094:  e79ac10c      ldr	ip, [sl, ip, lsl #2]					0x0000b094:  e79ac10c      ldr	ip, [sl, ip, lsl #2]
0x0000b098:  e79be10e      ldr	lr, [fp, lr, lsl #2]					0x0000b098:  e79be10e      ldr	lr, [fp, lr, lsl #2]
0x0000b09c:  e0211000      eor	r1, r1, r0						0x0000b09c:  e0211000      eor	r1, r1, r0
0x0000b0a0:  e58de034      str	lr, [sp, #52]						0x0000b0a0:  e58de034      str	lr, [sp, #52]
0x0000b0a4:  e59d0030      ldr	r0, [sp, #48]						0x0000b0a4:  e59d0030      ldr	r0, [sp, #48]
0x0000b0a8:  e798e102      ldr	lr, [r8, r2, lsl #2]					0x0000b0a8:  e798e102      ldr	lr, [r8, r2, lsl #2]
0x0000b0ac:  e58dc030      str	ip, [sp, #48]						0x0000b0ac:  e58dc030      str	ip, [sp, #48]
0x0000b0b0:  e59d21fc      ldr	r2, [sp, #508]						0x0000b0b0:  e59d21fc      ldr	r2, [sp, #508]
0x0000b0b4:  e798c103      ldr	ip, [r8, r3, lsl #2]					0x0000b0b4:  e798c103      ldr	ip, [r8, r3, lsl #2]
0x0000b0b8:  e7e73454      ubfx	r3, r4, #8, #8						0x0000b0b8:  e7e73454      ubfx	r3, r4, #8, #8
0x0000b0bc:  e3520000      cmp	r2, #0	; 0x0						0x0000b0bc:  e3520000      cmp	r2, #0	; 0x0
0x0000b0c0:  e58d1058      str	r1, [sp, #88]						0x0000b0c0:  e58d1058      str	r1, [sp, #88]
0x0000b0c4:  e7982103      ldr	r2, [r8, r3, lsl #2]					0x0000b0c4:  e7982103      ldr	r2, [r8, r3, lsl #2]
0x0000b0c8:  e59d3028      ldr	r3, [sp, #40]						0x0000b0c8:  e59d3028      ldr	r3, [sp, #40]
0x0000b0cc:  e79a0100      ldr	r0, [sl, r0, lsl #2]					0x0000b0cc:  e79a0100      ldr	r0, [sl, r0, lsl #2]
0x0000b0d0:  e79a1103      ldr	r1, [sl, r3, lsl #2]					0x0000b0d0:  e79a1103      ldr	r1, [sl, r3, lsl #2]
0x0000b0d4:  e59d303c      ldr	r3, [sp, #60]						0x0000b0d4:  e59d303c      ldr	r3, [sp, #60]
0x0000b0d8:  e58d004c      str	r0, [sp, #76]						0x0000b0d8:  e58d004c      str	r0, [sp, #76]
0x0000b0dc:  e0233001      eor	r3, r3, r1						0x0000b0dc:  e0233001      eor	r3, r3, r1
0x0000b0e0:  e79b6106      ldr	r6, [fp, r6, lsl #2]					0x0000b0e0:  e79b6106      ldr	r6, [fp, r6, lsl #2]
0x0000b0e4:  e1a01003      mov	r1, r3							0x0000b0e4:  e1a01003      mov	r1, r3
0x0000b0e8:  e59d3020      ldr	r3, [sp, #32]						0x0000b0e8:  e59d3020      ldr	r3, [sp, #32]
0x0000b0ec:  e7993103      ldr	r3, [r9, r3, lsl #2]					0x0000b0ec:  e7993103      ldr	r3, [r9, r3, lsl #2]
0x0000b0f0:  e0233000      eor	r3, r3, r0						0x0000b0f0:  e0233000      eor	r3, r3, r0
0x0000b0f4:  e0233002      eor	r3, r3, r2						0x0000b0f4:  e0233002      eor	r3, r3, r2
0x0000b0f8:  e6ef2074      uxtb	r2, r4							0x0000b0f8:  e6ef2074      uxtb	r2, r4
0x0000b0fc:  e59d0030      ldr	r0, [sp, #48]						0x0000b0fc:  e59d0030      ldr	r0, [sp, #48]
0x0000b100:  e79b2102      ldr	r2, [fp, r2, lsl #2]					0x0000b100:  e79b2102      ldr	r2, [fp, r2, lsl #2]
0x0000b104:  e0233002      eor	r3, r3, r2						0x0000b104:  e0233002      eor	r3, r3, r2
0x0000b108:  e59d202c      ldr	r2, [sp, #44]						0x0000b108:  e59d202c      ldr	r2, [sp, #44]
0x0000b10c:  e58d303c      str	r3, [sp, #60]						0x0000b10c:  e58d303c      str	r3, [sp, #60]
0x0000b110:  e7992102      ldr	r2, [r9, r2, lsl #2]					0x0000b110:  e7992102      ldr	r2, [r9, r2, lsl #2]
0x0000b114:  e0222000      eor	r2, r2, r0						0x0000b114:  e0222000      eor	r2, r2, r0
0x0000b118:  e59d0034      ldr	r0, [sp, #52]						0x0000b118:  e59d0034      ldr	r0, [sp, #52]
0x0000b11c:  e0222000      eor	r2, r2, r0						0x0000b11c:  e0222000      eor	r2, r2, r0
0x0000b120:  e022200e      eor	r2, r2, lr						0x0000b120:  e022200e      eor	r2, r2, lr
0x0000b124:  e0222006      eor	r2, r2, r6						0x0000b124:  e0222006      eor	r2, r2, r6
0x0000b128:  e59d6018      ldr	r6, [sp, #24]						0x0000b128:  e59d6018      ldr	r6, [sp, #24]
0x0000b12c:  e1a00c24      lsr	r0, r4, #24						0x0000b12c:  e1a00c24      lsr	r0, r4, #24
0x0000b130:  e586201c      str	r2, [r6, #28]						0x0000b130:  e586201c      str	r2, [r6, #28]
0x0000b134:  e79a2105      ldr	r2, [sl, r5, lsl #2]					0x0000b134:  e79a2105      ldr	r2, [sl, r5, lsl #2]
0x0000b138:  e79b5105      ldr	r5, [fp, r5, lsl #2]					0x0000b138:  e79b5105      ldr	r5, [fp, r5, lsl #2]
0x0000b13c:  e0211002      eor	r1, r1, r2						0x0000b13c:  e0211002      eor	r1, r1, r2
0x0000b140:  e7e72854      ubfx	r2, r4, #16, #8						0x0000b140:  e7e72854      ubfx	r2, r4, #16, #8
0x0000b144:  e79be102      ldr	lr, [fp, r2, lsl #2]					0x0000b144:  e79be102      ldr	lr, [fp, r2, lsl #2]
0x0000b148:  e59d2024      ldr	r2, [sp, #36]						0x0000b148:  e59d2024      ldr	r2, [sp, #36]
0x0000b14c:  e59d3058      ldr	r3, [sp, #88]						0x0000b14c:  e59d3058      ldr	r3, [sp, #88]
0x0000b150:  e7982102      ldr	r2, [r8, r2, lsl #2]					0x0000b150:  e7982102      ldr	r2, [r8, r2, lsl #2]
0x0000b154:  e0222003      eor	r2, r2, r3						0x0000b154:  e0222003      eor	r2, r2, r3
0x0000b158:  e022200c      eor	r2, r2, ip						0x0000b158:  e022200c      eor	r2, r2, ip
0x0000b15c:  e0222005      eor	r2, r2, r5						0x0000b15c:  e0222005      eor	r2, r2, r5
0x0000b160:  e5862018      str	r2, [r6, #24]						0x0000b160:  e5862018      str	r2, [r6, #24]
0x0000b164:  e7982100      ldr	r2, [r8, r0, lsl #2]					0x0000b164:  e7982100      ldr	r2, [r8, r0, lsl #2]
0x0000b168:  e59d303c      ldr	r3, [sp, #60]						0x0000b168:  e59d303c      ldr	r3, [sp, #60]
0x0000b16c:  e0211002      eor	r1, r1, r2						0x0000b16c:  e0211002      eor	r1, r1, r2
0x0000b170:  e7992100      ldr	r2, [r9, r0, lsl #2]					0x0000b170:  e7992100      ldr	r2, [r9, r0, lsl #2]
0x0000b174:  e02ee001      eor	lr, lr, r1						0x0000b174:  e02ee001      eor	lr, lr, r1
0x0000b178:  e0233002      eor	r3, r3, r2						0x0000b178:  e0233002      eor	r3, r3, r2
0x0000b17c:  e5863014      str	r3, [r6, #20]						0x0000b17c:  e5863014      str	r3, [r6, #20]
0x0000b180:  e59d301c      ldr	r3, [sp, #28]						0x0000b180:  e59d301c      ldr	r3, [sp, #28]
0x0000b184:  e586e010      str	lr, [r6, #16]						0x0000b184:  e586e010      str	lr, [r6, #16]
0x0000b188:  e2831008      add	r1, r3, #8	; 0x8					0x0000b188:  e2831008      add	r1, r3, #8	; 0x8
0x0000b18c:  e283200b      add	r2, r3, #11	; 0xb					0x0000b18c:  e283200b      add	r2, r3, #11	; 0xb
0x0000b190:  1a000315      bne	0xbdec							0x0000b190:  1a000315      bne	0xbdec

----------------									----------------
IN: run											IN: run
0x0000b194:  e59d3034      ldr	r3, [sp, #52]						0x0000b194:  e59d3034      ldr	r3, [sp, #52]
0x0000b198:  e59d1030      ldr	r1, [sp, #48]						0x0000b198:  e59d1030      ldr	r1, [sp, #48]
0x0000b19c:  e59d204c      ldr	r2, [sp, #76]						0x0000b19c:  e59d204c      ldr	r2, [sp, #76]
0x0000b1a0:  e0211003      eor	r1, r1, r3						0x0000b1a0:  e0211003      eor	r1, r1, r3
0x0000b1a4:  e59d3040      ldr	r3, [sp, #64]						0x0000b1a4:  e59d3040      ldr	r3, [sp, #64]
0x0000b1a8:  e0233002      eor	r3, r3, r2						0x0000b1a8:  e0233002      eor	r3, r3, r2
0x0000b1ac:  e59d2020      ldr	r2, [sp, #32]						0x0000b1ac:  e59d2020      ldr	r2, [sp, #32]
0x0000b1b0:  e7982102      ldr	r2, [r8, r2, lsl #2]					0x0000b1b0:  e7982102      ldr	r2, [r8, r2, lsl #2]
0x0000b1b4:  e0211002      eor	r1, r1, r2						0x0000b1b4:  e0211002      eor	r1, r1, r2
0x0000b1b8:  e59d2044      ldr	r2, [sp, #68]						0x0000b1b8:  e59d2044      ldr	r2, [sp, #68]
0x0000b1bc:  e7992102      ldr	r2, [r9, r2, lsl #2]					0x0000b1bc:  e7992102      ldr	r2, [r9, r2, lsl #2]
0x0000b1c0:  e0211002      eor	r1, r1, r2						0x0000b1c0:  e0211002      eor	r1, r1, r2
0x0000b1c4:  e59d202c      ldr	r2, [sp, #44]						0x0000b1c4:  e59d202c      ldr	r2, [sp, #44]
0x0000b1c8:  e7982102      ldr	r2, [r8, r2, lsl #2]					0x0000b1c8:  e7982102      ldr	r2, [r8, r2, lsl #2]
0x0000b1cc:  e0211002      eor	r1, r1, r2						0x0000b1cc:  e0211002      eor	r1, r1, r2
0x0000b1d0:  e59d2054      ldr	r2, [sp, #84]						0x0000b1d0:  e59d2054      ldr	r2, [sp, #84]
0x0000b1d4:  e0211002      eor	r1, r1, r2						0x0000b1d4:  e0211002      eor	r1, r1, r2
0x0000b1d8:  e59d2024      ldr	r2, [sp, #36]						0x0000b1d8:  e59d2024      ldr	r2, [sp, #36]
0x0000b1dc:  e7e7c851      ubfx	ip, r1, #16, #8						0x0000b1dc:  e7e7c851      ubfx	ip, r1, #16, #8
0x0000b1e0:  e79be102      ldr	lr, [fp, r2, lsl #2]					0x0000b1e0:  e79be102      ldr	lr, [fp, r2, lsl #2]
0x0000b1e4:  e59d2028      ldr	r2, [sp, #40]						0x0000b1e4:  e59d2028      ldr	r2, [sp, #40]
0x0000b1e8:  e798510c      ldr	r5, [r8, ip, lsl #2]					0x0000b1e8:  e798510c      ldr	r5, [r8, ip, lsl #2]
0x0000b1ec:  e7992102      ldr	r2, [r9, r2, lsl #2]					0x0000b1ec:  e7992102      ldr	r2, [r9, r2, lsl #2]
0x0000b1f0:  e7e70451      ubfx	r0, r1, #8, #8						0x0000b1f0:  e7e70451      ubfx	r0, r1, #8, #8
0x0000b1f4:  e0244002      eor	r4, r4, r2						0x0000b1f4:  e0244002      eor	r4, r4, r2
0x0000b1f8:  e59d21fc      ldr	r2, [sp, #508]						0x0000b1f8:  e59d21fc      ldr	r2, [sp, #508]
0x0000b1fc:  e02ee007      eor	lr, lr, r7						0x0000b1fc:  e02ee007      eor	lr, lr, r7
0x0000b200:  e58d10a8      str	r1, [sp, #168]						0x0000b200:  e58d10a8      str	r1, [sp, #168]
0x0000b204:  e3520000      cmp	r2, #0	; 0x0						0x0000b204:  e3520000      cmp	r2, #0	; 0x0
0x0000b208:  e1a02c21      lsr	r2, r1, #24						0x0000b208:  e1a02c21      lsr	r2, r1, #24
0x0000b20c:  e6ef1071      uxtb	r1, r1							0x0000b20c:  e6ef1071      uxtb	r1, r1
0x0000b210:  e58d5020      str	r5, [sp, #32]						0x0000b210:  e58d5020      str	r5, [sp, #32]
0x0000b214:  e79ac102      ldr	ip, [sl, r2, lsl #2]					0x0000b214:  e79ac102      ldr	ip, [sl, r2, lsl #2]
0x0000b218:  e79b1101      ldr	r1, [fp, r1, lsl #2]					0x0000b218:  e79b1101      ldr	r1, [fp, r1, lsl #2]
0x0000b21c:  e02ee00c      eor	lr, lr, ip						0x0000b21c:  e02ee00c      eor	lr, lr, ip
0x0000b220:  e799c100      ldr	ip, [r9, r0, lsl #2]					0x0000b220:  e799c100      ldr	ip, [r9, r0, lsl #2]
0x0000b224:  e02cc00e      eor	ip, ip, lr						0x0000b224:  e02cc00e      eor	ip, ip, lr
0x0000b228:  e02cc005      eor	ip, ip, r5						0x0000b228:  e02cc005      eor	ip, ip, r5
0x0000b22c:  e02cc001      eor	ip, ip, r1						0x0000b22c:  e02cc001      eor	ip, ip, r1
0x0000b230:  e7e7e85c      ubfx	lr, ip, #16, #8						0x0000b230:  e7e7e85c      ubfx	lr, ip, #16, #8
0x0000b234:  e6ef107c      uxtb	r1, ip							0x0000b234:  e6ef107c      uxtb	r1, ip
0x0000b238:  e58dc0ac      str	ip, [sp, #172]						0x0000b238:  e58dc0ac      str	ip, [sp, #172]
0x0000b23c:  e79a1101      ldr	r1, [sl, r1, lsl #2]					0x0000b23c:  e79a1101      ldr	r1, [sl, r1, lsl #2]
0x0000b240:  e798510e      ldr	r5, [r8, lr, lsl #2]					0x0000b240:  e798510e      ldr	r5, [r8, lr, lsl #2]
0x0000b244:  e0233001      eor	r3, r3, r1						0x0000b244:  e0233001      eor	r3, r3, r1
0x0000b248:  e7e7145c      ubfx	r1, ip, #8, #8						0x0000b248:  e7e7145c      ubfx	r1, ip, #8, #8
0x0000b24c:  e1a0cc2c      lsr	ip, ip, #24						0x0000b24c:  e1a0cc2c      lsr	ip, ip, #24
0x0000b250:  e58d5024      str	r5, [sp, #36]						0x0000b250:  e58d5024      str	r5, [sp, #36]
0x0000b254:  e79be10c      ldr	lr, [fp, ip, lsl #2]					0x0000b254:  e79be10c      ldr	lr, [fp, ip, lsl #2]
0x0000b258:  e799c101      ldr	ip, [r9, r1, lsl #2]					0x0000b258:  e799c101      ldr	ip, [r9, r1, lsl #2]
0x0000b25c:  e023300c      eor	r3, r3, ip						0x0000b25c:  e023300c      eor	r3, r3, ip
0x0000b260:  e0233005      eor	r3, r3, r5						0x0000b260:  e0233005      eor	r3, r3, r5
0x0000b264:  e023300e      eor	r3, r3, lr						0x0000b264:  e023300e      eor	r3, r3, lr
0x0000b268:  e7e7c453      ubfx	ip, r3, #8, #8						0x0000b268:  e7e7c453      ubfx	ip, r3, #8, #8
0x0000b26c:  e58d30b0      str	r3, [sp, #176]						0x0000b26c:  e58d30b0      str	r3, [sp, #176]
0x0000b270:  e79a510c      ldr	r5, [sl, ip, lsl #2]					0x0000b270:  e79a510c      ldr	r5, [sl, ip, lsl #2]
0x0000b274:  e7e7c853      ubfx	ip, r3, #16, #8						0x0000b274:  e7e7c853      ubfx	ip, r3, #16, #8
0x0000b278:  e0244005      eor	r4, r4, r5						0x0000b278:  e0244005      eor	r4, r4, r5
0x0000b27c:  e799c10c      ldr	ip, [r9, ip, lsl #2]					0x0000b27c:  e799c10c      ldr	ip, [r9, ip, lsl #2]
0x0000b280:  e024400c      eor	r4, r4, ip						0x0000b280:  e024400c      eor	r4, r4, ip
0x0000b284:  e58dc028      str	ip, [sp, #40]						0x0000b284:  e58dc028      str	ip, [sp, #40]
0x0000b288:  e6efc073      uxtb	ip, r3							0x0000b288:  e6efc073      uxtb	ip, r3
0x0000b28c:  e1a03c23      lsr	r3, r3, #24						0x0000b28c:  e1a03c23      lsr	r3, r3, #24
0x0000b290:  e798c10c      ldr	ip, [r8, ip, lsl #2]					0x0000b290:  e798c10c      ldr	ip, [r8, ip, lsl #2]
0x0000b294:  e024400c      eor	r4, r4, ip						0x0000b294:  e024400c      eor	r4, r4, ip
0x0000b298:  e79bc103      ldr	ip, [fp, r3, lsl #2]					0x0000b298:  e79bc103      ldr	ip, [fp, r3, lsl #2]
0x0000b29c:  e024400c      eor	r4, r4, ip						0x0000b29c:  e024400c      eor	r4, r4, ip
0x0000b2a0:  e58d40b4      str	r4, [sp, #180]						0x0000b2a0:  e58d40b4      str	r4, [sp, #180]
0x0000b2a4:  1a0002af      bne	0xbd68							0x0000b2a4:  1a0002af      bne	0xbd68

----------------									----------------
IN: run											IN: run
0x0000b2a8:  e79bc101      ldr	ip, [fp, r1, lsl #2]					0x0000b2a8:  e79bc101      ldr	ip, [fp, r1, lsl #2]
0x0000b2ac:  e79b0100      ldr	r0, [fp, r0, lsl #2]					0x0000b2ac:  e79b0100      ldr	r0, [fp, r0, lsl #2]
0x0000b2b0:  e5dd10b5      ldrb	r1, [sp, #181]						0x0000b2b0:  e5dd10b5      ldrb	r1, [sp, #181]
0x0000b2b4:  e79b2102      ldr	r2, [fp, r2, lsl #2]					0x0000b2b4:  e79b2102      ldr	r2, [fp, r2, lsl #2]
0x0000b2b8:  e58d0030      str	r0, [sp, #48]						0x0000b2b8:  e58d0030      str	r0, [sp, #48]
0x0000b2bc:  e79a0101      ldr	r0, [sl, r1, lsl #2]					0x0000b2bc:  e79a0101      ldr	r0, [sl, r1, lsl #2]
0x0000b2c0:  e5dd10b4      ldrb	r1, [sp, #180]						0x0000b2c0:  e5dd10b4      ldrb	r1, [sp, #180]
0x0000b2c4:  e5dd70ac      ldrb	r7, [sp, #172]						0x0000b2c4:  e5dd70ac      ldrb	r7, [sp, #172]
0x0000b2c8:  e7991101      ldr	r1, [r9, r1, lsl #2]					0x0000b2c8:  e7991101      ldr	r1, [r9, r1, lsl #2]
0x0000b2cc:  e58d2034      str	r2, [sp, #52]						0x0000b2cc:  e58d2034      str	r2, [sp, #52]
0x0000b2d0:  e5dd20b0      ldrb	r2, [sp, #176]						0x0000b2d0:  e5dd20b0      ldrb	r2, [sp, #176]
0x0000b2d4:  e0200001      eor	r0, r0, r1						0x0000b2d4:  e0200001      eor	r0, r0, r1
0x0000b2d8:  e58dc02c      str	ip, [sp, #44]						0x0000b2d8:  e58dc02c      str	ip, [sp, #44]
0x0000b2dc:  e7981107      ldr	r1, [r8, r7, lsl #2]					0x0000b2dc:  e7981107      ldr	r1, [r8, r7, lsl #2]
0x0000b2e0:  e799c102      ldr	ip, [r9, r2, lsl #2]					0x0000b2e0:  e799c102      ldr	ip, [r9, r2, lsl #2]
0x0000b2e4:  e7997107      ldr	r7, [r9, r7, lsl #2]					0x0000b2e4:  e7997107      ldr	r7, [r9, r7, lsl #2]
0x0000b2e8:  e5dd60a8      ldrb	r6, [sp, #168]						0x0000b2e8:  e5dd60a8      ldrb	r6, [sp, #168]
0x0000b2ec:  e02cc007      eor	ip, ip, r7						0x0000b2ec:  e02cc007      eor	ip, ip, r7
0x0000b2f0:  e02cc005      eor	ip, ip, r5						0x0000b2f0:  e02cc005      eor	ip, ip, r5
0x0000b2f4:  e59d5024      ldr	r5, [sp, #36]						0x0000b2f4:  e59d5024      ldr	r5, [sp, #36]
0x0000b2f8:  e59d41fc      ldr	r4, [sp, #508]						0x0000b2f8:  e59d41fc      ldr	r4, [sp, #508]
0x0000b2fc:  e02cc005      eor	ip, ip, r5						0x0000b2fc:  e02cc005      eor	ip, ip, r5
0x0000b300:  e59d5018      ldr	r5, [sp, #24]						0x0000b300:  e59d5018      ldr	r5, [sp, #24]
0x0000b304:  e3540000      cmp	r4, #0	; 0x0						0x0000b304:  e3540000      cmp	r4, #0	; 0x0
0x0000b308:  e02cc00e      eor	ip, ip, lr						0x0000b308:  e02cc00e      eor	ip, ip, lr
0x0000b30c:  e585c024      str	ip, [r5, #36]						0x0000b30c:  e585c024      str	ip, [r5, #36]
0x0000b310:  e79ac106      ldr	ip, [sl, r6, lsl #2]					0x0000b310:  e79ac106      ldr	ip, [sl, r6, lsl #2]
0x0000b314:  e5dd40b6      ldrb	r4, [sp, #182]						0x0000b314:  e5dd40b6      ldrb	r4, [sp, #182]
0x0000b318:  e5dd20b7      ldrb	r2, [sp, #183]						0x0000b318:  e5dd20b7      ldrb	r2, [sp, #183]
0x0000b31c:  e021100c      eor	r1, r1, ip						0x0000b31c:  e021100c      eor	r1, r1, ip
0x0000b320:  e59dc028      ldr	ip, [sp, #40]						0x0000b320:  e59dc028      ldr	ip, [sp, #40]
0x0000b324:  e799e104      ldr	lr, [r9, r4, lsl #2]					0x0000b324:  e799e104      ldr	lr, [r9, r4, lsl #2]
0x0000b328:  e79a2102      ldr	r2, [sl, r2, lsl #2]					0x0000b328:  e79a2102      ldr	r2, [sl, r2, lsl #2]
0x0000b32c:  e02cc001      eor	ip, ip, r1						0x0000b32c:  e02cc001      eor	ip, ip, r1
0x0000b330:  e7981106      ldr	r1, [r8, r6, lsl #2]					0x0000b330:  e7981106      ldr	r1, [r8, r6, lsl #2]
0x0000b334:  e022200e      eor	r2, r2, lr						0x0000b334:  e022200e      eor	r2, r2, lr
0x0000b338:  e0222001      eor	r2, r2, r1						0x0000b338:  e0222001      eor	r2, r2, r1
0x0000b33c:  e59d1030      ldr	r1, [sp, #48]						0x0000b33c:  e59d1030      ldr	r1, [sp, #48]
0x0000b340:  e59de020      ldr	lr, [sp, #32]						0x0000b340:  e59de020      ldr	lr, [sp, #32]
0x0000b344:  e0222001      eor	r2, r2, r1						0x0000b344:  e0222001      eor	r2, r2, r1
0x0000b348:  e79b1104      ldr	r1, [fp, r4, lsl #2]					0x0000b348:  e79b1104      ldr	r1, [fp, r4, lsl #2]
0x0000b34c:  e0211000      eor	r1, r1, r0						0x0000b34c:  e0211000      eor	r1, r1, r0
0x0000b350:  e59d0034      ldr	r0, [sp, #52]						0x0000b350:  e59d0034      ldr	r0, [sp, #52]
0x0000b354:  e021100e      eor	r1, r1, lr						0x0000b354:  e021100e      eor	r1, r1, lr
0x0000b358:  e0211000      eor	r1, r1, r0						0x0000b358:  e0211000      eor	r1, r1, r0
0x0000b35c:  e585102c      str	r1, [r5, #44]						0x0000b35c:  e585102c      str	r1, [r5, #44]
0x0000b360:  e79a1103      ldr	r1, [sl, r3, lsl #2]					0x0000b360:  e79a1103      ldr	r1, [sl, r3, lsl #2]
0x0000b364:  e7983103      ldr	r3, [r8, r3, lsl #2]					0x0000b364:  e7983103      ldr	r3, [r8, r3, lsl #2]
0x0000b368:  e021100c      eor	r1, r1, ip						0x0000b368:  e021100c      eor	r1, r1, ip
0x0000b36c:  e59dc02c      ldr	ip, [sp, #44]						0x0000b36c:  e59dc02c      ldr	ip, [sp, #44]
0x0000b370:  e0222003      eor	r2, r2, r3						0x0000b370:  e0222003      eor	r2, r2, r3
0x0000b374:  e59d301c      ldr	r3, [sp, #28]						0x0000b374:  e59d301c      ldr	r3, [sp, #28]
0x0000b378:  e021100c      eor	r1, r1, ip						0x0000b378:  e021100c      eor	r1, r1, ip
0x0000b37c:  e5851020      str	r1, [r5, #32]						0x0000b37c:  e5851020      str	r1, [r5, #32]
0x0000b380:  e283100c      add	r1, r3, #12	; 0xc					0x0000b380:  e283100c      add	r1, r3, #12	; 0xc
0x0000b384:  e5852028      str	r2, [r5, #40]						0x0000b384:  e5852028      str	r2, [r5, #40]
0x0000b388:  e283200f      add	r2, r3, #15	; 0xf					0x0000b388:  e283200f      add	r2, r3, #15	; 0xf
0x0000b38c:  1a0001f4      bne	0xbb64							0x0000b38c:  1a0001f4      bne	0xbb64

----------------									----------------
IN: run											IN: run
0x0000b390:  e59d3038      ldr	r3, [sp, #56]						0x0000b390:  e59d3038      ldr	r3, [sp, #56]
0x0000b394:  e3530001      cmp	r3, #1	; 0x1						0x0000b394:  e3530001      cmp	r3, #1	; 0x1
0x0000b398:  e59d301c      ldr	r3, [sp, #28]						0x0000b398:  e59d301c      ldr	r3, [sp, #28]
0x0000b39c:  e2833010      add	r3, r3, #16	; 0x10					0x0000b39c:  e2833010      add	r3, r3, #16	; 0x10
0x0000b3a0:  e58d301c      str	r3, [sp, #28]						0x0000b3a0:  e58d301c      str	r3, [sp, #28]
0x0000b3a4:  e59d3018      ldr	r3, [sp, #24]						0x0000b3a4:  e59d3018      ldr	r3, [sp, #24]
0x0000b3a8:  e2833040      add	r3, r3, #64	; 0x40					0x0000b3a8:  e2833040      add	r3, r3, #64	; 0x40
0x0000b3ac:  e58d3018      str	r3, [sp, #24]						0x0000b3ac:  e58d3018      str	r3, [sp, #24]
0x0000b3b0:  1a000146      bne	0xb8d0							0x0000b3b0:  1a000146      bne	0xb8d0

----------------									----------------
IN: run											IN: run
0x0000b8d0:  e3a03001      mov	r3, #1	; 0x1						0x0000b8d0:  e3a03001      mov	r3, #1	; 0x1
0x0000b8d4:  e58d3038      str	r3, [sp, #56]						0x0000b8d4:  e58d3038      str	r3, [sp, #56]
0x0000b8d8:  e59d31fc      ldr	r3, [sp, #508]						0x0000b8d8:  e59d31fc      ldr	r3, [sp, #508]
0x0000b8dc:  e3530000      cmp	r3, #0	; 0x0						0x0000b8dc:  e3530000      cmp	r3, #0	; 0x0
0x0000b8e0:  0afffc7b      beq	0xaad4							0x0000b8e0:  0afffc7b      beq	0xaad4

----------------									----------------
IN: run											IN: run
0x0000b3b4:  e3a02040      mov	r2, #64	; 0x40						0x0000b3b4:  e3a02040      mov	r2, #64	; 0x40
0x0000b3b8:  e3a01000      mov	r1, #0	; 0x0						0x0000b3b8:  e3a01000      mov	r1, #0	; 0x0
0x0000b3bc:  e28d00cc      add	r0, sp, #204	; 0xcc					0x0000b3bc:  e28d00cc      add	r0, sp, #204	; 0xcc
0x0000b3c0:  eb00068e      bl	0xce00							0x0000b3c0:  eb00068e      bl	0xce00

----------------									----------------
IN: run											IN: run
0x0000b3c4:  e59d306c      ldr	r3, [sp, #108]						0x0000b3c4:  e59d306c      ldr	r3, [sp, #108]
0x0000b3c8:  e3a02040      mov	r2, #64	; 0x40						0x0000b3c8:  e3a02040      mov	r2, #64	; 0x40
0x0000b3cc:  e3a01000      mov	r1, #0	; 0x0						0x0000b3cc:  e3a01000      mov	r1, #0	; 0x0
0x0000b3d0:  e28d0e11      add	r0, sp, #272	; 0x110					0x0000b3d0:  e28d0e11      add	r0, sp, #272	; 0x110
0x0000b3d4:  e58d30c8      str	r3, [sp, #200]						0x0000b3d4:  e58d30c8      str	r3, [sp, #200]
0x0000b3d8:  eb000688      bl	0xce00							0x0000b3d8:  eb000688      bl	0xce00

----------------									----------------
IN: run											IN: run
0x0000b3dc:  e59d31fc      ldr	r3, [sp, #508]						0x0000b3dc:  e59d31fc      ldr	r3, [sp, #508]
0x0000b3e0:  e3530000      cmp	r3, #0	; 0x0						0x0000b3e0:  e3530000      cmp	r3, #0	; 0x0
0x0000b3e4:  1a0001c1      bne	0xbaf0							0x0000b3e4:  1a0001c1      bne	0xbaf0

----------------									----------------
IN: run											IN: run
0x0000b3e8:  e59d2064      ldr	r2, [sp, #100]						0x0000b3e8:  e59d2064      ldr	r2, [sp, #100]
0x0000b3ec:  e28d7f43      add	r7, sp, #268	; 0x10c					0x0000b3ec:  e28d7f43      add	r7, sp, #268	; 0x10c
0x0000b3f0:  e59f35f8      ldr	r3, [pc, #1528]	; 0xb9f0				0x0000b3f0:  e59f35f8      ldr	r3, [pc, #1528]	; 0xb9f0
0x0000b3f4:  e3a04001      mov	r4, #1	; 0x1						0x0000b3f4:  e3a04001      mov	r4, #1	; 0x1
0x0000b3f8:  e59d5068      ldr	r5, [sp, #104]						0x0000b3f8:  e59d5068      ldr	r5, [sp, #104]
0x0000b3fc:  e7923003      ldr	r3, [r2, r3]						0x0000b3fc:  e7923003      ldr	r3, [r2, r3]

----------------									----------------
IN: run											IN: run
0x0000b400:  e59d6070      ldr	r6, [sp, #112]						0x0000b400:  e59d6070      ldr	r6, [sp, #112]
0x0000b404:  e58d3020      str	r3, [sp, #32]						0x0000b404:  e58d3020      str	r3, [sp, #32]
0x0000b408:  e59f35e4      ldr	r3, [pc, #1508]	; 0xb9f4				0x0000b408:  e59f35e4      ldr	r3, [pc, #1508]	; 0xb9f4
0x0000b40c:  e7923003      ldr	r3, [r2, r3]						0x0000b40c:  e7923003      ldr	r3, [r2, r3]
0x0000b410:  e58d3024      str	r3, [sp, #36]						0x0000b410:  e58d3024      str	r3, [sp, #36]
0x0000b414:  e59f35dc      ldr	r3, [pc, #1500]	; 0xb9f8				0x0000b414:  e59f35dc      ldr	r3, [pc, #1500]	; 0xb9f8
0x0000b418:  e7923003      ldr	r3, [r2, r3]						0x0000b418:  e7923003      ldr	r3, [r2, r3]
0x0000b41c:  e58d3028      str	r3, [sp, #40]						0x0000b41c:  e58d3028      str	r3, [sp, #40]
0x0000b420:  e59f35d4      ldr	r3, [pc, #1492]	; 0xb9fc				0x0000b420:  e59f35d4      ldr	r3, [pc, #1492]	; 0xb9fc
0x0000b424:  e7923003      ldr	r3, [r2, r3]						0x0000b424:  e7923003      ldr	r3, [r2, r3]
0x0000b428:  e58d7018      str	r7, [sp, #24]						0x0000b428:  e58d7018      str	r7, [sp, #24]
0x0000b42c:  e58d302c      str	r3, [sp, #44]						0x0000b42c:  e58d302c      str	r3, [sp, #44]
0x0000b430:  e30a3aab      movw	r3, #43691	; 0xaaab				0x0000b430:  e30a3aab      movw	r3, #43691	; 0xaaab
0x0000b434:  e34a3aaa      movt	r3, #43690	; 0xaaaa				0x0000b434:  e34a3aaa      movt	r3, #43690	; 0xaaaa
0x0000b438:  e58d301c      str	r3, [sp, #28]						0x0000b438:  e58d301c      str	r3, [sp, #28]
0x0000b43c:  e59f35bc      ldr	r3, [pc, #1468]	; 0xba00				0x0000b43c:  e59f35bc      ldr	r3, [pc, #1468]	; 0xba00
0x0000b440:  e08f3003      add	r3, pc, r3						0x0000b440:  e08f3003      add	r3, pc, r3
0x0000b444:  e58d3034      str	r3, [sp, #52]						0x0000b444:  e58d3034      str	r3, [sp, #52]
0x0000b448:  e59f35b4      ldr	r3, [pc, #1460]	; 0xba04				0x0000b448:  e59f35b4      ldr	r3, [pc, #1460]	; 0xba04
0x0000b44c:  e08f3003      add	r3, pc, r3						0x0000b44c:  e08f3003      add	r3, pc, r3
0x0000b450:  e58d3038      str	r3, [sp, #56]						0x0000b450:  e58d3038      str	r3, [sp, #56]
0x0000b454:  ea000021      b	0xb4e0							0x0000b454:  ea000021      b	0xb4e0

----------------									----------------
IN: run											IN: run
0x0000b4e0:  e59d31f8      ldr	r3, [sp, #504]						0x0000b4e0:  e59d31f8      ldr	r3, [sp, #504]
0x0000b4e4:  e2448001      sub	r8, r4, #1	; 0x1					0x0000b4e4:  e2448001      sub	r8, r4, #1	; 0x1
0x0000b4e8:  e3530000      cmp	r3, #0	; 0x0						0x0000b4e8:  e3530000      cmp	r3, #0	; 0x0
0x0000b4ec:  e59d31fc      ldr	r3, [sp, #508]						0x0000b4ec:  e59d31fc      ldr	r3, [sp, #508]
0x0000b4f0:  12647010      rsbne	r7, r4, #16	; 0x10				0x0000b4f0:  12647010      rsbne	r7, r4, #16	; 0x10
0x0000b4f4:  01a07008      moveq	r7, r8						0x0000b4f4:  01a07008      moveq	r7, r8
0x0000b4f8:  e3530000      cmp	r3, #0	; 0x0						0x0000b4f8:  e3530000      cmp	r3, #0	; 0x0
0x0000b4fc:  e28d3e1d      add	r3, sp, #464	; 0x1d0					0x0000b4fc:  e28d3e1d      add	r3, sp, #464	; 0x1d0
0x0000b500:  e0833107      add	r3, r3, r7, lsl #2					0x0000b500:  e0833107      add	r3, r3, r7, lsl #2
0x0000b504:  e287b010      add	fp, r7, #16	; 0x10					0x0000b504:  e287b010      add	fp, r7, #16	; 0x10
0x0000b508:  e5139080      ldr	r9, [r3, #-128]						0x0000b508:  e5139080      ldr	r9, [r3, #-128]
0x0000b50c:  e28d3e1d      add	r3, sp, #464	; 0x1d0					0x0000b50c:  e28d3e1d      add	r3, sp, #464	; 0x1d0
0x0000b510:  e083310b      add	r3, r3, fp, lsl #2					0x0000b510:  e083310b      add	r3, r3, fp, lsl #2
0x0000b514:  e5133080      ldr	r3, [r3, #-128]						0x0000b514:  e5133080      ldr	r3, [r3, #-128]
0x0000b518:  e203a01f      and	sl, r3, #31	; 0x1f					0x0000b518:  e203a01f      and	sl, r3, #31	; 0x1f
0x0000b51c:  1a00001e      bne	0xb59c							0x0000b51c:  1a00001e      bne	0xb59c

----------------									----------------
IN: run											IN: run
0x0000b520:  e59d301c      ldr	r3, [sp, #28]						0x0000b520:  e59d301c      ldr	r3, [sp, #28]
0x0000b524:  e0832793      umull	r2, r3, r3, r7					0x0000b524:  e0832793      umull	r2, r3, r3, r7
0x0000b528:  e3a02003      mov	r2, #3	; 0x3						0x0000b528:  e3a02003      mov	r2, #3	; 0x3
0x0000b52c:  e1a030a3      lsr	r3, r3, #1						0x0000b52c:  e1a030a3      lsr	r3, r3, #1
0x0000b530:  e0637392      mls	r3, r2, r3, r7						0x0000b530:  e0637392      mls	r3, r2, r3, r7
0x0000b534:  e3530001      cmp	r3, #1	; 0x1						0x0000b534:  e3530001      cmp	r3, #1	; 0x1
0x0000b538:  0a000076      beq	0xb718							0x0000b538:  0a000076      beq	0xb718

----------------									----------------
IN: run											IN: run
0x0000b53c:  e3530002      cmp	r3, #2	; 0x2						0x0000b53c:  e3530002      cmp	r3, #2	; 0x2
0x0000b540:  1affffc4      bne	0xb458							0x0000b540:  1affffc4      bne	0xb458

----------------									----------------
IN: run											IN: run
0x0000b458:  e0899006      add	r9, r9, r6						0x0000b458:  e0899006      add	r9, r9, r6
0x0000b45c:  e26aa020      rsb	sl, sl, #32	; 0x20					0x0000b45c:  e26aa020      rsb	sl, sl, #32	; 0x20
0x0000b460:  e59d2024      ldr	r2, [sp, #36]						0x0000b460:  e59d2024      ldr	r2, [sp, #36]
0x0000b464:  e1a09a79      ror	r9, r9, sl						0x0000b464:  e1a09a79      ror	r9, r9, sl
0x0000b468:  e7e73859      ubfx	r3, r9, #16, #8						0x0000b468:  e7e73859      ubfx	r3, r9, #16, #8
0x0000b46c:  e59d1020      ldr	r1, [sp, #32]						0x0000b46c:  e59d1020      ldr	r1, [sp, #32]
0x0000b470:  e7923103      ldr	r3, [r2, r3, lsl #2]					0x0000b470:  e7923103      ldr	r3, [r2, r3, lsl #2]
0x0000b474:  e1a02c29      lsr	r2, r9, #24						0x0000b474:  e1a02c29      lsr	r2, r9, #24
0x0000b478:  e7912102      ldr	r2, [r1, r2, lsl #2]					0x0000b478:  e7912102      ldr	r2, [r1, r2, lsl #2]
0x0000b47c:  e59d1028      ldr	r1, [sp, #40]						0x0000b47c:  e59d1028      ldr	r1, [sp, #40]
0x0000b480:  e0233002      eor	r3, r3, r2						0x0000b480:  e0233002      eor	r3, r3, r2
0x0000b484:  e7e72459      ubfx	r2, r9, #8, #8						0x0000b484:  e7e72459      ubfx	r2, r9, #8, #8
0x0000b488:  e6ef9079      uxtb	r9, r9							0x0000b488:  e6ef9079      uxtb	r9, r9
0x0000b48c:  e7912102      ldr	r2, [r1, r2, lsl #2]					0x0000b48c:  e7912102      ldr	r2, [r1, r2, lsl #2]
0x0000b490:  e0433002      sub	r3, r3, r2						0x0000b490:  e0433002      sub	r3, r3, r2
0x0000b494:  e59d202c      ldr	r2, [sp, #44]						0x0000b494:  e59d202c      ldr	r2, [sp, #44]
0x0000b498:  e7922109      ldr	r2, [r2, r9, lsl #2]					0x0000b498:  e7922109      ldr	r2, [r2, r9, lsl #2]
0x0000b49c:  e0833002      add	r3, r3, r2						0x0000b49c:  e0833002      add	r3, r3, r2
0x0000b4a0:  e5952000      ldr	r2, [r5]						0x0000b4a0:  e5952000      ldr	r2, [r5]
0x0000b4a4:  e5856004      str	r6, [r5, #4]						0x0000b4a4:  e5856004      str	r6, [r5, #4]
0x0000b4a8:  e1a06004      mov	r6, r4							0x0000b4a8:  e1a06004      mov	r6, r4
0x0000b4ac:  e0233002      eor	r3, r3, r2						0x0000b4ac:  e0233002      eor	r3, r3, r2
0x0000b4b0:  e59d2018      ldr	r2, [sp, #24]						0x0000b4b0:  e59d2018      ldr	r2, [sp, #24]
0x0000b4b4:  e5823004      str	r3, [r2, #4]						0x0000b4b4:  e5823004      str	r3, [r2, #4]
0x0000b4b8:  e59d3018      ldr	r3, [sp, #24]						0x0000b4b8:  e59d3018      ldr	r3, [sp, #24]
0x0000b4bc:  e2844001      add	r4, r4, #1	; 0x1					0x0000b4bc:  e2844001      add	r4, r4, #1	; 0x1
0x0000b4c0:  e3540011      cmp	r4, #17	; 0x11						0x0000b4c0:  e3540011      cmp	r4, #17	; 0x11
0x0000b4c4:  e2855004      add	r5, r5, #4	; 0x4					0x0000b4c4:  e2855004      add	r5, r5, #4	; 0x4
0x0000b4c8:  e2833004      add	r3, r3, #4	; 0x4					0x0000b4c8:  e2833004      add	r3, r3, #4	; 0x4
0x0000b4cc:  e58d3018      str	r3, [sp, #24]						0x0000b4cc:  e58d3018      str	r3, [sp, #24]
0x0000b4d0:  0a00012b      beq	0xb984							0x0000b4d0:  0a00012b      beq	0xb984

----------------									----------------
IN: run											IN: run
0x0000b4d4:  e28d3e1d      add	r3, sp, #464	; 0x1d0					0x0000b4d4:  e28d3e1d      add	r3, sp, #464	; 0x1d0
0x0000b4d8:  e0836106      add	r6, r3, r6, lsl #2					0x0000b4d8:  e0836106      add	r6, r3, r6, lsl #2
0x0000b4dc:  e51660c4      ldr	r6, [r6, #-196]						0x0000b4dc:  e51660c4      ldr	r6, [r6, #-196]
0x0000b4e0:  e59d31f8      ldr	r3, [sp, #504]						0x0000b4e0:  e59d31f8      ldr	r3, [sp, #504]
0x0000b4e4:  e2448001      sub	r8, r4, #1	; 0x1					0x0000b4e4:  e2448001      sub	r8, r4, #1	; 0x1
0x0000b4e8:  e3530000      cmp	r3, #0	; 0x0						0x0000b4e8:  e3530000      cmp	r3, #0	; 0x0
0x0000b4ec:  e59d31fc      ldr	r3, [sp, #508]						0x0000b4ec:  e59d31fc      ldr	r3, [sp, #508]
0x0000b4f0:  12647010      rsbne	r7, r4, #16	; 0x10				0x0000b4f0:  12647010      rsbne	r7, r4, #16	; 0x10
0x0000b4f4:  01a07008      moveq	r7, r8						0x0000b4f4:  01a07008      moveq	r7, r8
0x0000b4f8:  e3530000      cmp	r3, #0	; 0x0						0x0000b4f8:  e3530000      cmp	r3, #0	; 0x0
0x0000b4fc:  e28d3e1d      add	r3, sp, #464	; 0x1d0					0x0000b4fc:  e28d3e1d      add	r3, sp, #464	; 0x1d0
0x0000b500:  e0833107      add	r3, r3, r7, lsl #2					0x0000b500:  e0833107      add	r3, r3, r7, lsl #2
0x0000b504:  e287b010      add	fp, r7, #16	; 0x10					0x0000b504:  e287b010      add	fp, r7, #16	; 0x10
0x0000b508:  e5139080      ldr	r9, [r3, #-128]						0x0000b508:  e5139080      ldr	r9, [r3, #-128]
0x0000b50c:  e28d3e1d      add	r3, sp, #464	; 0x1d0					0x0000b50c:  e28d3e1d      add	r3, sp, #464	; 0x1d0
0x0000b510:  e083310b      add	r3, r3, fp, lsl #2					0x0000b510:  e083310b      add	r3, r3, fp, lsl #2
0x0000b514:  e5133080      ldr	r3, [r3, #-128]						0x0000b514:  e5133080      ldr	r3, [r3, #-128]
0x0000b518:  e203a01f      and	sl, r3, #31	; 0x1f					0x0000b518:  e203a01f      and	sl, r3, #31	; 0x1f
0x0000b51c:  1a00001e      bne	0xb59c							0x0000b51c:  1a00001e      bne	0xb59c

----------------									----------------
IN: run											IN: run
0x0000b718:  e0299006      eor	r9, r9, r6						0x0000b718:  e0299006      eor	r9, r9, r6
0x0000b71c:  e26aa020      rsb	sl, sl, #32	; 0x20					0x0000b71c:  e26aa020      rsb	sl, sl, #32	; 0x20
0x0000b720:  e59d2028      ldr	r2, [sp, #40]						0x0000b720:  e59d2028      ldr	r2, [sp, #40]
0x0000b724:  e1a09a79      ror	r9, r9, sl						0x0000b724:  e1a09a79      ror	r9, r9, sl
0x0000b728:  e7e73459      ubfx	r3, r9, #8, #8						0x0000b728:  e7e73459      ubfx	r3, r9, #8, #8
0x0000b72c:  e59d1020      ldr	r1, [sp, #32]						0x0000b72c:  e59d1020      ldr	r1, [sp, #32]
0x0000b730:  e7923103      ldr	r3, [r2, r3, lsl #2]					0x0000b730:  e7923103      ldr	r3, [r2, r3, lsl #2]
0x0000b734:  e1a02c29      lsr	r2, r9, #24						0x0000b734:  e1a02c29      lsr	r2, r9, #24
0x0000b738:  e7912102      ldr	r2, [r1, r2, lsl #2]					0x0000b738:  e7912102      ldr	r2, [r1, r2, lsl #2]
0x0000b73c:  e59d1024      ldr	r1, [sp, #36]						0x0000b73c:  e59d1024      ldr	r1, [sp, #36]
0x0000b740:  e0833002      add	r3, r3, r2						0x0000b740:  e0833002      add	r3, r3, r2
0x0000b744:  e7e72859      ubfx	r2, r9, #16, #8						0x0000b744:  e7e72859      ubfx	r2, r9, #16, #8
0x0000b748:  e6ef9079      uxtb	r9, r9							0x0000b748:  e6ef9079      uxtb	r9, r9
0x0000b74c:  e7912102      ldr	r2, [r1, r2, lsl #2]					0x0000b74c:  e7912102      ldr	r2, [r1, r2, lsl #2]
0x0000b750:  e0433002      sub	r3, r3, r2						0x0000b750:  e0433002      sub	r3, r3, r2
0x0000b754:  e59d202c      ldr	r2, [sp, #44]						0x0000b754:  e59d202c      ldr	r2, [sp, #44]
0x0000b758:  e7922109      ldr	r2, [r2, r9, lsl #2]					0x0000b758:  e7922109      ldr	r2, [r2, r9, lsl #2]
0x0000b75c:  e0233002      eor	r3, r3, r2						0x0000b75c:  e0233002      eor	r3, r3, r2
0x0000b760:  eaffff4e      b	0xb4a0							0x0000b760:  eaffff4e      b	0xb4a0

----------------									----------------
IN: run											IN: run
0x0000b4a0:  e5952000      ldr	r2, [r5]						0x0000b4a0:  e5952000      ldr	r2, [r5]
0x0000b4a4:  e5856004      str	r6, [r5, #4]						0x0000b4a4:  e5856004      str	r6, [r5, #4]
0x0000b4a8:  e1a06004      mov	r6, r4							0x0000b4a8:  e1a06004      mov	r6, r4
0x0000b4ac:  e0233002      eor	r3, r3, r2						0x0000b4ac:  e0233002      eor	r3, r3, r2
0x0000b4b0:  e59d2018      ldr	r2, [sp, #24]						0x0000b4b0:  e59d2018      ldr	r2, [sp, #24]
0x0000b4b4:  e5823004      str	r3, [r2, #4]						0x0000b4b4:  e5823004      str	r3, [r2, #4]
0x0000b4b8:  e59d3018      ldr	r3, [sp, #24]						0x0000b4b8:  e59d3018      ldr	r3, [sp, #24]
0x0000b4bc:  e2844001      add	r4, r4, #1	; 0x1					0x0000b4bc:  e2844001      add	r4, r4, #1	; 0x1
0x0000b4c0:  e3540011      cmp	r4, #17	; 0x11						0x0000b4c0:  e3540011      cmp	r4, #17	; 0x11
0x0000b4c4:  e2855004      add	r5, r5, #4	; 0x4					0x0000b4c4:  e2855004      add	r5, r5, #4	; 0x4
0x0000b4c8:  e2833004      add	r3, r3, #4	; 0x4					0x0000b4c8:  e2833004      add	r3, r3, #4	; 0x4
0x0000b4cc:  e58d3018      str	r3, [sp, #24]						0x0000b4cc:  e58d3018      str	r3, [sp, #24]
0x0000b4d0:  0a00012b      beq	0xb984							0x0000b4d0:  0a00012b      beq	0xb984

----------------									----------------
IN: run											IN: run
0x0000b544:  e59d31fc      ldr	r3, [sp, #508]						0x0000b544:  e59d31fc      ldr	r3, [sp, #508]
0x0000b548:  e0497006      sub	r7, r9, r6						0x0000b548:  e0497006      sub	r7, r9, r6
0x0000b54c:  e3530000      cmp	r3, #0	; 0x0						0x0000b54c:  e3530000      cmp	r3, #0	; 0x0
0x0000b550:  e26a3020      rsb	r3, sl, #32	; 0x20					0x0000b550:  e26a3020      rsb	r3, sl, #32	; 0x20
0x0000b554:  e1a07377      ror	r7, r7, r3						0x0000b554:  e1a07377      ror	r7, r7, r3
0x0000b558:  1a0000b0      bne	0xb820							0x0000b558:  1a0000b0      bne	0xb820

----------------									----------------
IN: run											IN: run
0x0000b55c:  e7e73857      ubfx	r3, r7, #16, #8						0x0000b55c:  e7e73857      ubfx	r3, r7, #16, #8
0x0000b560:  e59d2024      ldr	r2, [sp, #36]						0x0000b560:  e59d2024      ldr	r2, [sp, #36]
0x0000b564:  e59d1020      ldr	r1, [sp, #32]						0x0000b564:  e59d1020      ldr	r1, [sp, #32]
0x0000b568:  e7923103      ldr	r3, [r2, r3, lsl #2]					0x0000b568:  e7923103      ldr	r3, [r2, r3, lsl #2]
0x0000b56c:  e1a02c27      lsr	r2, r7, #24						0x0000b56c:  e1a02c27      lsr	r2, r7, #24
0x0000b570:  e7912102      ldr	r2, [r1, r2, lsl #2]					0x0000b570:  e7912102      ldr	r2, [r1, r2, lsl #2]
0x0000b574:  e59d1028      ldr	r1, [sp, #40]						0x0000b574:  e59d1028      ldr	r1, [sp, #40]
0x0000b578:  e0833002      add	r3, r3, r2						0x0000b578:  e0833002      add	r3, r3, r2
0x0000b57c:  e7e72457      ubfx	r2, r7, #8, #8						0x0000b57c:  e7e72457      ubfx	r2, r7, #8, #8
0x0000b580:  e6ef7077      uxtb	r7, r7							0x0000b580:  e6ef7077      uxtb	r7, r7
0x0000b584:  e7912102      ldr	r2, [r1, r2, lsl #2]					0x0000b584:  e7912102      ldr	r2, [r1, r2, lsl #2]
0x0000b588:  e0233002      eor	r3, r3, r2						0x0000b588:  e0233002      eor	r3, r3, r2
0x0000b58c:  e59d202c      ldr	r2, [sp, #44]						0x0000b58c:  e59d202c      ldr	r2, [sp, #44]
0x0000b590:  e7922107      ldr	r2, [r2, r7, lsl #2]					0x0000b590:  e7922107      ldr	r2, [r2, r7, lsl #2]
0x0000b594:  e0433002      sub	r3, r3, r2						0x0000b594:  e0433002      sub	r3, r3, r2
0x0000b598:  eaffffc0      b	0xb4a0							0x0000b598:  eaffffc0      b	0xb4a0

----------------									----------------
IN: run											IN: run
0x0000b984:  e59d31fc      ldr	r3, [sp, #508]						0x0000b984:  e59d31fc      ldr	r3, [sp, #508]
0x0000b988:  e59d514c      ldr	r5, [sp, #332]						0x0000b988:  e59d514c      ldr	r5, [sp, #332]
0x0000b98c:  e59d4108      ldr	r4, [sp, #264]						0x0000b98c:  e59d4108      ldr	r4, [sp, #264]
0x0000b990:  e3530000      cmp	r3, #0	; 0x0						0x0000b990:  e3530000      cmp	r3, #0	; 0x0
0x0000b994:  1a000005      bne	0xb9b0							0x0000b994:  1a000005      bne	0xb9b0

----------------									----------------
IN: run											IN: run
0x0000b998:  e59d3060      ldr	r3, [sp, #96]						0x0000b998:  e59d3060      ldr	r3, [sp, #96]
0x0000b99c:  e5835000      str	r5, [r3]						0x0000b99c:  e5835000      str	r5, [r3]
0x0000b9a0:  e1a00003      mov	r0, r3							0x0000b9a0:  e1a00003      mov	r0, r3
0x0000b9a4:  e5834004      str	r4, [r3, #4]						0x0000b9a4:  e5834004      str	r4, [r3, #4]
0x0000b9a8:  e28ddf75      add	sp, sp, #468	; 0x1d4					0x0000b9a8:  e28ddf75      add	sp, sp, #468	; 0x1d4
0x0000b9ac:  e8bd8ff0      pop	{r4, r5, r6, r7, r8, r9, sl, fp, pc}			0x0000b9ac:  e8bd8ff0      pop	{r4, r5, r6, r7, r8, r9, sl, fp, pc}

----------------									----------------
IN: encrypt										IN: encrypt
0x0000c4fc:  e1a00004      mov	r0, r4							0x0000c4fc:  e1a00004      mov	r0, r4
0x0000c500:  e28dd010      add	sp, sp, #16	; 0x10					0x0000c500:  e28dd010      add	sp, sp, #16	; 0x10
0x0000c504:  e8bd8010      pop	{r4, pc}						0x0000c504:  e8bd8010      pop	{r4, pc}

----------------									----------------
IN: _gcry_cipher_cfb_decrypt								IN: _gcry_cipher_cfb_decrypt
0x0000c690:  e8960003      ldm	r6, {r0, r1}						0x0000c690:  e8960003      ldm	r6, {r0, r1}
0x0000c694:  e1a02008      mov	r2, r8							0x0000c694:  e1a02008      mov	r2, r8
0x0000c698:  e1a06000      mov	r6, r0							0x0000c698:  e1a06000      mov	r6, r0
0x0000c69c:  e1a09001      mov	r9, r1							0x0000c69c:  e1a09001      mov	r9, r1
0x0000c6a0:  e8850003      stm	r5, {r0, r1}						0x0000c6a0:  e8850003      stm	r5, {r0, r1}
0x0000c6a4:  ebffff75      bl	0xc480							0x0000c6a4:  ebffff75      bl	0xc480

----------------									----------------
IN: bytesFromBlock									IN: bytesFromBlock
0x0000c480:  e5c21007      strb	r1, [r2, #7]						0x0000c480:  e5c21007      strb	r1, [r2, #7]
0x0000c484:  e24dd008      sub	sp, sp, #8	; 0x8					0x0000c484:  e24dd008      sub	sp, sp, #8	; 0x8
0x0000c488:  e1a0c421      lsr	ip, r1, #8						0x0000c488:  e1a0c421      lsr	ip, r1, #8
0x0000c48c:  e28d3008      add	r3, sp, #8	; 0x8					0x0000c48c:  e28d3008      add	r3, sp, #8	; 0x8
0x0000c490:  e5c2c006      strb	ip, [r2, #6]						0x0000c490:  e5c2c006      strb	ip, [r2, #6]
0x0000c494:  e9030003      stmdb	r3, {r0, r1}					0x0000c494:  e9030003      stmdb	r3, {r0, r1}
0x0000c498:  e1a03000      mov	r3, r0							0x0000c498:  e1a03000      mov	r3, r0
0x0000c49c:  e1a00821      lsr	r0, r1, #16						0x0000c49c:  e1a00821      lsr	r0, r1, #16
0x0000c4a0:  e1a0c423      lsr	ip, r3, #8						0x0000c4a0:  e1a0c423      lsr	ip, r3, #8
0x0000c4a4:  e1a01c21      lsr	r1, r1, #24						0x0000c4a4:  e1a01c21      lsr	r1, r1, #24
0x0000c4a8:  e5c20005      strb	r0, [r2, #5]						0x0000c4a8:  e5c20005      strb	r0, [r2, #5]
0x0000c4ac:  e5c23003      strb	r3, [r2, #3]						0x0000c4ac:  e5c23003      strb	r3, [r2, #3]
0x0000c4b0:  e1a00823      lsr	r0, r3, #16						0x0000c4b0:  e1a00823      lsr	r0, r3, #16
0x0000c4b4:  e1a03c23      lsr	r3, r3, #24						0x0000c4b4:  e1a03c23      lsr	r3, r3, #24
0x0000c4b8:  e5c21004      strb	r1, [r2, #4]						0x0000c4b8:  e5c21004      strb	r1, [r2, #4]
0x0000c4bc:  e5c2c002      strb	ip, [r2, #2]						0x0000c4bc:  e5c2c002      strb	ip, [r2, #2]
0x0000c4c0:  e5c20001      strb	r0, [r2, #1]						0x0000c4c0:  e5c20001      strb	r0, [r2, #1]
0x0000c4c4:  e5c23000      strb	r3, [r2]						0x0000c4c4:  e5c23000      strb	r3, [r2]
0x0000c4c8:  e28dd008      add	sp, sp, #8	; 0x8					0x0000c4c8:  e28dd008      add	sp, sp, #8	; 0x8
0x0000c4cc:  e12fff1e      bx	lr							0x0000c4cc:  e12fff1e      bx	lr

----------------									----------------
IN: _gcry_cipher_cfb_decrypt								IN: _gcry_cipher_cfb_decrypt
0x0000c6a8:  e1a02009      mov	r2, r9							0x0000c6a8:  e1a02009      mov	r2, r9
0x0000c6ac:  e1a01006      mov	r1, r6							0x0000c6ac:  e1a01006      mov	r1, r6
0x0000c6b0:  e1a00007      mov	r0, r7							0x0000c6b0:  e1a00007      mov	r0, r7
0x0000c6b4:  eb0009f1      bl	0xee80							0x0000c6b4:  eb0009f1      bl	0xee80

----------------									----------------
IN: _gcry_cipher_cfb_decrypt								IN: _gcry_cipher_cfb_decrypt
0x0000c6b8:  e59d3028      ldr	r3, [sp, #40]						0x0000c6b8:  e59d3028      ldr	r3, [sp, #40]
0x0000c6bc:  e1a01008      mov	r1, r8							0x0000c6bc:  e1a01008      mov	r1, r8
0x0000c6c0:  e1a02003      mov	r2, r3							0x0000c6c0:  e1a02003      mov	r2, r3
0x0000c6c4:  e2833008      add	r3, r3, #8	; 0x8					0x0000c6c4:  e2833008      add	r3, r3, #8	; 0x8
0x0000c6c8:  e58d3028      str	r3, [sp, #40]						0x0000c6c8:  e58d3028      str	r3, [sp, #40]
0x0000c6cc:  e59d3024      ldr	r3, [sp, #36]						0x0000c6cc:  e59d3024      ldr	r3, [sp, #36]
0x0000c6d0:  e1a00003      mov	r0, r3							0x0000c6d0:  e1a00003      mov	r0, r3
0x0000c6d4:  e2833008      add	r3, r3, #8	; 0x8					0x0000c6d4:  e2833008      add	r3, r3, #8	; 0x8
0x0000c6d8:  e58d3024      str	r3, [sp, #36]						0x0000c6d8:  e58d3024      str	r3, [sp, #36]
0x0000c6dc:  e3a03008      mov	r3, #8	; 0x8						0x0000c6dc:  e3a03008      mov	r3, #8	; 0x8
0x0000c6e0:  ebfffedb      bl	0xc254							0x0000c6e0:  ebfffedb      bl	0xc254

----------------									----------------
IN: cipher_block_xor_n_copy								IN: cipher_block_xor_n_copy
0x0000c254:  e52de004      push	{lr}		; (str lr, [sp, #-4]!)			0x0000c254:  e52de004      push	{lr}		; (str lr, [sp, #-4]!)
0x0000c258:  e24dd00c      sub	sp, sp, #12	; 0xc					0x0000c258:  e24dd00c      sub	sp, sp, #12	; 0xc
0x0000c25c:  e58d3000      str	r3, [sp]						0x0000c25c:  e58d3000      str	r3, [sp]
0x0000c260:  e1a03002      mov	r3, r2							0x0000c260:  e1a03002      mov	r3, r2
0x0000c264:  e1a02001      mov	r2, r1							0x0000c264:  e1a02001      mov	r2, r1
0x0000c268:  e1a01003      mov	r1, r3							0x0000c268:  e1a01003      mov	r1, r3
0x0000c26c:  ebffff74      bl	0xc044							0x0000c26c:  ebffff74      bl	0xc044

----------------									----------------
IN: cipher_block_xor_n_copy_2								IN: cipher_block_xor_n_copy_2
0x0000c044:  e92d4ff8      push	{r3, r4, r5, r6, r7, r8, r9, sl, fp, lr}		0x0000c044:  e92d4ff8      push	{r3, r4, r5, r6, r7, r8, r9, sl, fp, lr}
0x0000c048:  e1a08000      mov	r8, r0							0x0000c048:  e1a08000      mov	r8, r0
0x0000c04c:  e59dc028      ldr	ip, [sp, #40]						0x0000c04c:  e59dc028      ldr	ip, [sp, #40]
0x0000c050:  e1a09001      mov	r9, r1							0x0000c050:  e1a09001      mov	r9, r1
0x0000c054:  e1a07002      mov	r7, r2							0x0000c054:  e1a07002      mov	r7, r2
0x0000c058:  e1a0a003      mov	sl, r3							0x0000c058:  e1a0a003      mov	sl, r3
0x0000c05c:  e35c0008      cmp	ip, #8	; 0x8						0x0000c05c:  e35c0008      cmp	ip, #8	; 0x8
0x0000c060:  13a04000      movne	r4, #0	; 0x0					0x0000c060:  13a04000      movne	r4, #0	; 0x0
0x0000c064:  0a000012      beq	0xc0b4							0x0000c064:  0a000012      beq	0xc0b4

----------------									----------------
IN: cipher_block_xor_n_copy_2								IN: cipher_block_xor_n_copy_2
0x0000c0b4:  e1a00003      mov	r0, r3							0x0000c0b4:  e1a00003      mov	r0, r3
0x0000c0b8:  e287b004      add	fp, r7, #4	; 0x4					0x0000c0b8:  e287b004      add	fp, r7, #4	; 0x4
0x0000c0bc:  ebffffa3      bl	0xbf50							0x0000c0bc:  ebffffa3      bl	0xbf50

----------------									----------------
IN: cipher_block_xor_n_copy_2								IN: cipher_block_xor_n_copy_2
0x0000c0c0:  e1a03000      mov	r3, r0							0x0000c0c0:  e1a03000      mov	r3, r0
0x0000c0c4:  e28a0004      add	r0, sl, #4	; 0x4					0x0000c0c4:  e28a0004      add	r0, sl, #4	; 0x4
0x0000c0c8:  e1a0a003      mov	sl, r3							0x0000c0c8:  e1a0a003      mov	sl, r3
0x0000c0cc:  ebffff9f      bl	0xbf50							0x0000c0cc:  ebffff9f      bl	0xbf50

----------------									----------------
IN: cipher_block_xor_n_copy_2								IN: cipher_block_xor_n_copy_2
0x0000c0d0:  e1a06000      mov	r6, r0							0x0000c0d0:  e1a06000      mov	r6, r0
0x0000c0d4:  e1a00007      mov	r0, r7							0x0000c0d4:  e1a00007      mov	r0, r7
0x0000c0d8:  ebffff9c      bl	0xbf50							0x0000c0d8:  ebffff9c      bl	0xbf50

----------------									----------------
IN: cipher_block_xor_n_copy_2								IN: cipher_block_xor_n_copy_2
0x0000c0dc:  e1a05000      mov	r5, r0							0x0000c0dc:  e1a05000      mov	r5, r0
0x0000c0e0:  e1a0000b      mov	r0, fp							0x0000c0e0:  e1a0000b      mov	r0, fp
0x0000c0e4:  ebffff99      bl	0xbf50							0x0000c0e4:  ebffff99      bl	0xbf50

----------------									----------------
IN: cipher_block_xor_n_copy_2								IN: cipher_block_xor_n_copy_2
0x0000c0e8:  e1a04000      mov	r4, r0							0x0000c0e8:  e1a04000      mov	r4, r0
0x0000c0ec:  e1a00009      mov	r0, r9							0x0000c0ec:  e1a00009      mov	r0, r9
0x0000c0f0:  ebffff96      bl	0xbf50							0x0000c0f0:  ebffff96      bl	0xbf50

----------------									----------------
IN: cipher_block_xor_n_copy_2								IN: cipher_block_xor_n_copy_2
0x0000c0f4:  e0255000      eor	r5, r5, r0						0x0000c0f4:  e0255000      eor	r5, r5, r0
0x0000c0f8:  e2890004      add	r0, r9, #4	; 0x4					0x0000c0f8:  e2890004      add	r0, r9, #4	; 0x4
0x0000c0fc:  ebffff93      bl	0xbf50							0x0000c0fc:  ebffff93      bl	0xbf50

----------------									----------------
IN: cipher_block_xor_n_copy_2								IN: cipher_block_xor_n_copy_2
0x0000c100:  e0244000      eor	r4, r4, r0						0x0000c100:  e0244000      eor	r4, r4, r0
0x0000c104:  e1a01005      mov	r1, r5							0x0000c104:  e1a01005      mov	r1, r5
0x0000c108:  e1a00008      mov	r0, r8							0x0000c108:  e1a00008      mov	r0, r8
0x0000c10c:  ebffff9a      bl	0xbf7c							0x0000c10c:  ebffff9a      bl	0xbf7c

----------------									----------------
IN: cipher_block_xor_n_copy_2								IN: cipher_block_xor_n_copy_2
0x0000c110:  e1a01004      mov	r1, r4							0x0000c110:  e1a01004      mov	r1, r4
0x0000c114:  e2880004      add	r0, r8, #4	; 0x4					0x0000c114:  e2880004      add	r0, r8, #4	; 0x4
0x0000c118:  ebffff97      bl	0xbf7c							0x0000c118:  ebffff97      bl	0xbf7c

----------------									----------------
IN: cipher_block_xor_n_copy_2								IN: cipher_block_xor_n_copy_2
0x0000c11c:  e1a0100a      mov	r1, sl							0x0000c11c:  e1a0100a      mov	r1, sl
0x0000c120:  e1a00007      mov	r0, r7							0x0000c120:  e1a00007      mov	r0, r7
0x0000c124:  ebffff94      bl	0xbf7c							0x0000c124:  ebffff94      bl	0xbf7c

----------------									----------------
IN: cipher_block_xor_n_copy_2								IN: cipher_block_xor_n_copy_2
0x0000c128:  e1a01006      mov	r1, r6							0x0000c128:  e1a01006      mov	r1, r6
0x0000c12c:  e1a0000b      mov	r0, fp							0x0000c12c:  e1a0000b      mov	r0, fp
0x0000c130:  e8bd4ff8      pop	{r3, r4, r5, r6, r7, r8, r9, sl, fp, lr}		0x0000c130:  e8bd4ff8      pop	{r3, r4, r5, r6, r7, r8, r9, sl, fp, lr}
0x0000c134:  eaffff90      b	0xbf7c							0x0000c134:  eaffff90      b	0xbf7c

----------------									----------------
IN: cipher_block_xor_n_copy								IN: cipher_block_xor_n_copy
0x0000c270:  e28dd00c      add	sp, sp, #12	; 0xc					0x0000c270:  e28dd00c      add	sp, sp, #12	; 0xc
0x0000c274:  e49df004      pop	{pc}		; (ldr pc, [sp], #4)			0x0000c274:  e49df004      pop	{pc}		; (ldr pc, [sp], #4)

----------------									----------------
IN: _gcry_cipher_cfb_decrypt								IN: _gcry_cipher_cfb_decrypt
0x0000c6e4:  e3540000      cmp	r4, #0	; 0x0						0x0000c6e4:  e3540000      cmp	r4, #0	; 0x0
0x0000c6e8:  0a000033      beq	0xc7bc							0x0000c6e8:  0a000033      beq	0xc7bc

----------------									----------------
IN: _gcry_cipher_cfb_decrypt								IN: _gcry_cipher_cfb_decrypt
0x0000c6ec:  e59f0480      ldr	r0, [pc, #1152]	; 0xcb74				0x0000c6ec:  e59f0480      ldr	r0, [pc, #1152]	; 0xcb74
0x0000c6f0:  e1a01004      mov	r1, r4							0x0000c6f0:  e1a01004      mov	r1, r4
0x0000c6f4:  e5983020      ldr	r3, [r8, #32]						0x0000c6f4:  e5983020      ldr	r3, [r8, #32]
0x0000c6f8:  e28d5040      add	r5, sp, #64	; 0x40					0x0000c6f8:  e28d5040      add	r5, sp, #64	; 0x40
0x0000c6fc:  e59d201c      ldr	r2, [sp, #28]						0x0000c6fc:  e59d201c      ldr	r2, [sp, #28]
0x0000c700:  e28d7030      add	r7, sp, #48	; 0x30					0x0000c700:  e28d7030      add	r7, sp, #48	; 0x30
0x0000c704:  e08f0000      add	r0, pc, r0						0x0000c704:  e08f0000      add	r0, pc, r0
0x0000c708:  e3a09000      mov	r9, #0	; 0x0						0x0000c708:  e3a09000      mov	r9, #0	; 0x0
0x0000c70c:  e59f6464      ldr	r6, [pc, #1124]	; 0xcb78				0x0000c70c:  e59f6464      ldr	r6, [pc, #1124]	; 0xcb78
0x0000c710:  eb0009da      bl	0xee80							0x0000c710:  eb0009da      bl	0xee80

----------------									----------------
IN: _gcry_cipher_cfb_decrypt								IN: _gcry_cipher_cfb_decrypt
0x0000c714:  e3a02008      mov	r2, #8	; 0x8						0x0000c714:  e3a02008      mov	r2, #8	; 0x8
0x0000c718:  e1a01008      mov	r1, r8							0x0000c718:  e1a01008      mov	r1, r8
0x0000c71c:  e08f6006      add	r6, pc, r6						0x0000c71c:  e08f6006      add	r6, pc, r6
0x0000c720:  e2880010      add	r0, r8, #16	; 0x10					0x0000c720:  e2880010      add	r0, r8, #16	; 0x10
0x0000c724:  ebfffe1c      bl	0xbf9c							0x0000c724:  ebfffe1c      bl	0xbf9c

----------------									----------------
IN: _gcry_cipher_cfb_decrypt								IN: _gcry_cipher_cfb_decrypt
0x0000c728:  e1a01008      mov	r1, r8							0x0000c728:  e1a01008      mov	r1, r8
0x0000c72c:  e1a00005      mov	r0, r5							0x0000c72c:  e1a00005      mov	r0, r5
0x0000c730:  ebffff74      bl	0xc508							0x0000c730:  ebffff74      bl	0xc508

----------------									----------------
IN: _gcry_cipher_cfb_decrypt								IN: _gcry_cipher_cfb_decrypt
0x0000c734:  e59d2044      ldr	r2, [sp, #68]						0x0000c734:  e59d2044      ldr	r2, [sp, #68]
0x0000c738:  e1a00006      mov	r0, r6							0x0000c738:  e1a00006      mov	r0, r6
0x0000c73c:  e59d1040      ldr	r1, [sp, #64]						0x0000c73c:  e59d1040      ldr	r1, [sp, #64]
0x0000c740:  eb0009ce      bl	0xee80							0x0000c740:  eb0009ce      bl	0xee80

----------------									----------------
IN: _gcry_cipher_cfb_decrypt								IN: _gcry_cipher_cfb_decrypt
0x0000c744:  e58d9000      str	r9, [sp]						0x0000c744:  e58d9000      str	r9, [sp]
0x0000c748:  e1a00007      mov	r0, r7							0x0000c748:  e1a00007      mov	r0, r7
0x0000c74c:  e895000c      ldm	r5, {r2, r3}						0x0000c74c:  e895000c      ldm	r5, {r2, r3}
0x0000c750:  e2881030      add	r1, r8, #48	; 0x30					0x0000c750:  e2881030      add	r1, r8, #48	; 0x30
0x0000c754:  ebffff5d      bl	0xc4d0							0x0000c754:  ebffff5d      bl	0xc4d0

----------------									----------------
IN: _gcry_cipher_cfb_decrypt								IN: _gcry_cipher_cfb_decrypt
0x0000c758:  e8970003      ldm	r7, {r0, r1}						0x0000c758:  e8970003      ldm	r7, {r0, r1}
0x0000c75c:  e1a02008      mov	r2, r8							0x0000c75c:  e1a02008      mov	r2, r8
0x0000c760:  e1a07000      mov	r7, r0							0x0000c760:  e1a07000      mov	r7, r0
0x0000c764:  e1a0a001      mov	sl, r1							0x0000c764:  e1a0a001      mov	sl, r1
0x0000c768:  e8850003      stm	r5, {r0, r1}						0x0000c768:  e8850003      stm	r5, {r0, r1}
0x0000c76c:  ebffff43      bl	0xc480							0x0000c76c:  ebffff43      bl	0xc480

----------------									----------------
IN: _gcry_cipher_cfb_decrypt								IN: _gcry_cipher_cfb_decrypt
0x0000c770:  e1a0200a      mov	r2, sl							0x0000c770:  e1a0200a      mov	r2, sl
0x0000c774:  e1a01007      mov	r1, r7							0x0000c774:  e1a01007      mov	r1, r7
0x0000c778:  e1a00006      mov	r0, r6							0x0000c778:  e1a00006      mov	r0, r6
0x0000c77c:  eb0009bf      bl	0xee80							0x0000c77c:  eb0009bf      bl	0xee80

----------------									----------------
IN: _gcry_cipher_cfb_decrypt								IN: _gcry_cipher_cfb_decrypt
0x0000c780:  e59d2028      ldr	r2, [sp, #40]						0x0000c780:  e59d2028      ldr	r2, [sp, #40]
0x0000c784:  e2643008      rsb	r3, r4, #8	; 0x8					0x0000c784:  e2643008      rsb	r3, r4, #8	; 0x8
0x0000c788:  e59d0024      ldr	r0, [sp, #36]						0x0000c788:  e59d0024      ldr	r0, [sp, #36]
0x0000c78c:  e1a01008      mov	r1, r8							0x0000c78c:  e1a01008      mov	r1, r8
0x0000c790:  e5883020      str	r3, [r8, #32]						0x0000c790:  e5883020      str	r3, [r8, #32]
0x0000c794:  e1a03004      mov	r3, r4							0x0000c794:  e1a03004      mov	r3, r4
0x0000c798:  e1a04009      mov	r4, r9							0x0000c798:  e1a04009      mov	r4, r9
0x0000c79c:  ebfffea3      bl	0xc230							0x0000c79c:  ebfffea3      bl	0xc230

----------------									----------------
IN: buf_xor_n_copy									IN: buf_xor_n_copy
0x0000c230:  e52de004      push	{lr}		; (str lr, [sp, #-4]!)			0x0000c230:  e52de004      push	{lr}		; (str lr, [sp, #-4]!)
0x0000c234:  e24dd00c      sub	sp, sp, #12	; 0xc					0x0000c234:  e24dd00c      sub	sp, sp, #12	; 0xc
0x0000c238:  e58d3000      str	r3, [sp]						0x0000c238:  e58d3000      str	r3, [sp]
0x0000c23c:  e1a03002      mov	r3, r2							0x0000c23c:  e1a03002      mov	r3, r2
0x0000c240:  e1a02001      mov	r2, r1							0x0000c240:  e1a02001      mov	r2, r1
0x0000c244:  e1a01003      mov	r1, r3							0x0000c244:  e1a01003      mov	r1, r3
0x0000c248:  ebffffba      bl	0xc138							0x0000c248:  ebffffba      bl	0xc138

----------------									----------------
IN: buf_xor_n_copy_2									IN: buf_xor_n_copy_2
0x0000c138:  e92d4ff0      push	{r4, r5, r6, r7, r8, r9, sl, fp, lr}			0x0000c138:  e92d4ff0      push	{r4, r5, r6, r7, r8, r9, sl, fp, lr}
0x0000c13c:  e24dd014      sub	sp, sp, #20	; 0x14					0x0000c13c:  e24dd014      sub	sp, sp, #20	; 0x14
0x0000c140:  e1a05000      mov	r5, r0							0x0000c140:  e1a05000      mov	r5, r0
0x0000c144:  e1a06001      mov	r6, r1							0x0000c144:  e1a06001      mov	r6, r1
0x0000c148:  e59dc038      ldr	ip, [sp, #56]						0x0000c148:  e59dc038      ldr	ip, [sp, #56]
0x0000c14c:  e1a07003      mov	r7, r3							0x0000c14c:  e1a07003      mov	r7, r3
0x0000c150:  e58d2000      str	r2, [sp]						0x0000c150:  e58d2000      str	r2, [sp]
0x0000c154:  e35c0003      cmp	ip, #3	; 0x3						0x0000c154:  e35c0003      cmp	ip, #3	; 0x3
0x0000c158:  9a000032      bls	0xc228							0x0000c158:  9a000032      bls	0xc228

----------------									----------------
IN: buf_xor_n_copy_2									IN: buf_xor_n_copy_2
0x0000c228:  e59d3038      ldr	r3, [sp, #56]						0x0000c228:  e59d3038      ldr	r3, [sp, #56]
0x0000c22c:  eaffffee      b	0xc1ec							0x0000c22c:  eaffffee      b	0xc1ec

----------------									----------------
IN: buf_xor_n_copy_2									IN: buf_xor_n_copy_2
0x0000c1ec:  e3530000      cmp	r3, #0	; 0x0						0x0000c1ec:  e3530000      cmp	r3, #0	; 0x0
0x0000c1f0:  0a00000a      beq	0xc220							0x0000c1f0:  0a00000a      beq	0xc220

----------------									----------------
IN: buf_xor_n_copy_2									IN: buf_xor_n_copy_2
0x0000c1f4:  e59d2000      ldr	r2, [sp]						0x0000c1f4:  e59d2000      ldr	r2, [sp]
0x0000c1f8:  e0853003      add	r3, r5, r3						0x0000c1f8:  e0853003      add	r3, r5, r3
0x0000c1fc:  e2422001      sub	r2, r2, #1	; 0x1					0x0000c1fc:  e2422001      sub	r2, r2, #1	; 0x1
0x0000c200:  e5f21001      ldrb	r1, [r2, #1]!						0x0000c200:  e5f21001      ldrb	r1, [r2, #1]!
0x0000c204:  e4d6c001      ldrb	ip, [r6], #1						0x0000c204:  e4d6c001      ldrb	ip, [r6], #1
0x0000c208:  e4d70001      ldrb	r0, [r7], #1						0x0000c208:  e4d70001      ldrb	r0, [r7], #1
0x0000c20c:  e021100c      eor	r1, r1, ip						0x0000c20c:  e021100c      eor	r1, r1, ip
0x0000c210:  e4c51001      strb	r1, [r5], #1						0x0000c210:  e4c51001      strb	r1, [r5], #1
0x0000c214:  e1550003      cmp	r5, r3							0x0000c214:  e1550003      cmp	r5, r3
0x0000c218:  e5c20000      strb	r0, [r2]						0x0000c218:  e5c20000      strb	r0, [r2]
0x0000c21c:  1afffff7      bne	0xc200							0x0000c21c:  1afffff7      bne	0xc200

----------------									----------------
IN: buf_xor_n_copy_2									IN: buf_xor_n_copy_2
0x0000c200:  e5f21001      ldrb	r1, [r2, #1]!						0x0000c200:  e5f21001      ldrb	r1, [r2, #1]!
0x0000c204:  e4d6c001      ldrb	ip, [r6], #1						0x0000c204:  e4d6c001      ldrb	ip, [r6], #1
0x0000c208:  e4d70001      ldrb	r0, [r7], #1						0x0000c208:  e4d70001      ldrb	r0, [r7], #1
0x0000c20c:  e021100c      eor	r1, r1, ip						0x0000c20c:  e021100c      eor	r1, r1, ip
0x0000c210:  e4c51001      strb	r1, [r5], #1						0x0000c210:  e4c51001      strb	r1, [r5], #1
0x0000c214:  e1550003      cmp	r5, r3							0x0000c214:  e1550003      cmp	r5, r3
0x0000c218:  e5c20000      strb	r0, [r2]						0x0000c218:  e5c20000      strb	r0, [r2]
0x0000c21c:  1afffff7      bne	0xc200							0x0000c21c:  1afffff7      bne	0xc200

----------------									----------------
IN: buf_xor_n_copy_2									IN: buf_xor_n_copy_2
0x0000c220:  e28dd014      add	sp, sp, #20	; 0x14					0x0000c220:  e28dd014      add	sp, sp, #20	; 0x14
0x0000c224:  e8bd8ff0      pop	{r4, r5, r6, r7, r8, r9, sl, fp, pc}			0x0000c224:  e8bd8ff0      pop	{r4, r5, r6, r7, r8, r9, sl, fp, pc}

----------------									----------------
IN: buf_xor_n_copy									IN: buf_xor_n_copy
0x0000c24c:  e28dd00c      add	sp, sp, #12	; 0xc					0x0000c24c:  e28dd00c      add	sp, sp, #12	; 0xc
0x0000c250:  e49df004      pop	{pc}		; (ldr pc, [sp], #4)			0x0000c250:  e49df004      pop	{pc}		; (ldr pc, [sp], #4)

----------------									----------------
IN: _gcry_cipher_cfb_decrypt								IN: _gcry_cipher_cfb_decrypt
0x0000c7a0:  e1a01008      mov	r1, r8							0x0000c7a0:  e1a01008      mov	r1, r8
0x0000c7a4:  e1a00005      mov	r0, r5							0x0000c7a4:  e1a00005      mov	r0, r5
0x0000c7a8:  ebffff56      bl	0xc508							0x0000c7a8:  ebffff56      bl	0xc508

----------------									----------------
IN: _gcry_cipher_cfb_decrypt								IN: _gcry_cipher_cfb_decrypt
0x0000c7ac:  e59d2044      ldr	r2, [sp, #68]						0x0000c7ac:  e59d2044      ldr	r2, [sp, #68]
0x0000c7b0:  e1a00006      mov	r0, r6							0x0000c7b0:  e1a00006      mov	r0, r6
0x0000c7b4:  e59d1040      ldr	r1, [sp, #64]						0x0000c7b4:  e59d1040      ldr	r1, [sp, #64]
0x0000c7b8:  eb0009b0      bl	0xee80							0x0000c7b8:  eb0009b0      bl	0xee80

----------------									----------------
IN: _gcry_cipher_cfb_decrypt								IN: _gcry_cipher_cfb_decrypt
0x0000c7bc:  e1a00004      mov	r0, r4							0x0000c7bc:  e1a00004      mov	r0, r4
0x0000c7c0:  e28dd05c      add	sp, sp, #92	; 0x5c					0x0000c7c0:  e28dd05c      add	sp, sp, #92	; 0x5c
0x0000c7c4:  e8bd8ff0      pop	{r4, r5, r6, r7, r8, r9, sl, fp, pc}			0x0000c7c4:  e8bd8ff0      pop	{r4, r5, r6, r7, r8, r9, sl, fp, pc}

----------------									----------------
IN: decrypt_data									IN: decrypt_data
0x0000a78c:  e59d300c      ldr	r3, [sp, #12]						0x0000a78c:  e59d300c      ldr	r3, [sp, #12]
0x0000a790:  e5930004      ldr	r0, [r3, #4]						0x0000a790:  e5930004      ldr	r0, [r3, #4]
0x0000a794:  eb000728      bl	0xc43c							0x0000a794:  eb000728      bl	0xc43c

----------------									----------------
IN: cipher_sync										IN: cipher_sync
0x0000c43c:  e5902020      ldr	r2, [r0, #32]						0x0000c43c:  e5902020      ldr	r2, [r0, #32]
0x0000c440:  e3520000      cmp	r2, #0	; 0x0						0x0000c440:  e3520000      cmp	r2, #0	; 0x0
0x0000c444:  012fff1e      bxeq	lr							0x0000c444:  012fff1e      bxeq	lr

----------------									----------------
IN: cipher_sync										IN: cipher_sync
0x0000c448:  e92d4010      push	{r4, lr}						0x0000c448:  e92d4010      push	{r4, lr}
0x0000c44c:  e1a04000      mov	r4, r0							0x0000c44c:  e1a04000      mov	r4, r0
0x0000c450:  e0800002      add	r0, r0, r2						0x0000c450:  e0800002      add	r0, r0, r2
0x0000c454:  e1a01004      mov	r1, r4							0x0000c454:  e1a01004      mov	r1, r4
0x0000c458:  e2622008      rsb	r2, r2, #8	; 0x8					0x0000c458:  e2622008      rsb	r2, r2, #8	; 0x8
0x0000c45c:  eb0002c4      bl	0xcf74							0x0000c45c:  eb0002c4      bl	0xcf74

----------------									----------------
IN: memmove										IN: memmove
0x0000cf7c:  e0813002      add	r3, r1, r2						0x0000cf7c:  e0813002      add	r3, r1, r2
0x0000cf80:  e1530000      cmp	r3, r0							0x0000cf80:  e1530000      cmp	r3, r0
0x0000cf84:  9a000008      bls	0xcfac							0x0000cf84:  9a000008      bls	0xcfac

----------------									----------------
IN: memmove										IN: memmove
0x0000cfb4:  e081c002      add	ip, r1, r2						0x0000cfb4:  e081c002      add	ip, r1, r2
0x0000cfb8:  e2403001      sub	r3, r0, #1	; 0x1					0x0000cfb8:  e2403001      sub	r3, r0, #1	; 0x1
0x0000cfbc:  e4d12001      ldrb	r2, [r1], #1						0x0000cfbc:  e4d12001      ldrb	r2, [r1], #1
0x0000cfc0:  e15c0001      cmp	ip, r1							0x0000cfc0:  e15c0001      cmp	ip, r1
0x0000cfc4:  e5e32001      strb	r2, [r3, #1]!						0x0000cfc4:  e5e32001      strb	r2, [r3, #1]!
0x0000cfc8:  1afffffb      bne	0xcfbc							0x0000cfc8:  1afffffb      bne	0xcfbc

----------------									----------------
IN: memmove										IN: memmove
0x0000cfbc:  e4d12001      ldrb	r2, [r1], #1						0x0000cfbc:  e4d12001      ldrb	r2, [r1], #1
0x0000cfc0:  e15c0001      cmp	ip, r1							0x0000cfc0:  e15c0001      cmp	ip, r1
0x0000cfc4:  e5e32001      strb	r2, [r3, #1]!						0x0000cfc4:  e5e32001      strb	r2, [r3, #1]!
0x0000cfc8:  1afffffb      bne	0xcfbc							0x0000cfc8:  1afffffb      bne	0xcfbc

----------------									----------------
IN: memmove										IN: memmove
0x0000cfcc:  e12fff1e      bx	lr							0x0000cfcc:  e12fff1e      bx	lr

----------------									----------------
IN: cipher_sync										IN: cipher_sync
0x0000c460:  e5942020      ldr	r2, [r4, #32]						0x0000c460:  e5942020      ldr	r2, [r4, #32]
0x0000c464:  e1a00004      mov	r0, r4							0x0000c464:  e1a00004      mov	r0, r4
0x0000c468:  e0441002      sub	r1, r4, r2						0x0000c468:  e0441002      sub	r1, r4, r2
0x0000c46c:  e2811018      add	r1, r1, #24	; 0x18					0x0000c46c:  e2811018      add	r1, r1, #24	; 0x18
0x0000c470:  eb000299      bl	0xcedc							0x0000c470:  eb000299      bl	0xcedc

----------------									----------------
IN: cipher_sync										IN: cipher_sync
0x0000c474:  e3a03000      mov	r3, #0	; 0x0						0x0000c474:  e3a03000      mov	r3, #0	; 0x0
0x0000c478:  e5843020      str	r3, [r4, #32]						0x0000c478:  e5843020      str	r3, [r4, #32]
0x0000c47c:  e8bd8010      pop	{r4, pc}						0x0000c47c:  e8bd8010      pop	{r4, pc}

----------------									----------------
IN: decrypt_data									IN: decrypt_data
0x0000a798:  e5d53008      ldrb	r3, [r5, #8]						0x0000a798:  e5d53008      ldrb	r3, [r5, #8]
0x0000a79c:  e3130040      tst	r3, #64	; 0x40						0x0000a79c:  e3130040      tst	r3, #64	; 0x40
0x0000a7a0:  0a000036      beq	0xa880							0x0000a7a0:  0a000036      beq	0xa880

----------------									----------------
IN: decrypt_data									IN: decrypt_data
0x0000a7a4:  e5dd2016      ldrb	r2, [sp, #22]						0x0000a7a4:  e5dd2016      ldrb	r2, [sp, #22]
0x0000a7a8:  e5dd3018      ldrb	r3, [sp, #24]						0x0000a7a8:  e5dd3018      ldrb	r3, [sp, #24]
0x0000a7ac:  e1520003      cmp	r2, r3							0x0000a7ac:  e1520003      cmp	r2, r3
0x0000a7b0:  1a000003      bne	0xa7c4							0x0000a7b0:  1a000003      bne	0xa7c4

----------------									----------------
IN: decrypt_data									IN: decrypt_data
0x0000a7b4:  e5dd2017      ldrb	r2, [sp, #23]						0x0000a7b4:  e5dd2017      ldrb	r2, [sp, #23]
0x0000a7b8:  e5dd3019      ldrb	r3, [sp, #25]						0x0000a7b8:  e5dd3019      ldrb	r3, [sp, #25]
0x0000a7bc:  e1520003      cmp	r2, r3							0x0000a7bc:  e1520003      cmp	r2, r3
0x0000a7c0:  0a00002e      beq	0xa880							0x0000a7c0:  0a00002e      beq	0xa880

----------------									----------------
IN: decrypt_data									IN: decrypt_data
0x0000a880:  e59f00c8      ldr	r0, [pc, #200]	; 0xa950				0x0000a880:  e59f00c8      ldr	r0, [pc, #200]	; 0xa950
0x0000a884:  e08f0000      add	r0, pc, r0						0x0000a884:  e08f0000      add	r0, pc, r0
0x0000a888:  eb00117c      bl	0xee80							0x0000a888:  eb00117c      bl	0xee80

----------------									----------------
IN: decrypt_data									IN: decrypt_data
0x0000a88c:  eaffffcf      b	0xa7d0							0x0000a88c:  eaffffcf      b	0xa7d0

----------------									----------------
IN: decrypt_data									IN: decrypt_data
0x0000a7d0:  e59d200c      ldr	r2, [sp, #12]						0x0000a7d0:  e59d200c      ldr	r2, [sp, #12]
0x0000a7d4:  e5940010      ldr	r0, [r4, #16]						0x0000a7d4:  e5940010      ldr	r0, [r4, #16]
0x0000a7d8:  e5923000      ldr	r3, [r2]						0x0000a7d8:  e5923000      ldr	r3, [r2]
0x0000a7dc:  e5d2c050      ldrb	ip, [r2, #80]						0x0000a7dc:  e5d2c050      ldrb	ip, [r2, #80]
0x0000a7e0:  e59f1160      ldr	r1, [pc, #352]	; 0xa948				0x0000a7e0:  e59f1160      ldr	r1, [pc, #352]	; 0xa948
0x0000a7e4:  e2833001      add	r3, r3, #1	; 0x1					0x0000a7e4:  e2833001      add	r3, r3, #1	; 0x1
0x0000a7e8:  e5823000      str	r3, [r2]						0x0000a7e8:  e5823000      str	r3, [r2]
0x0000a7ec:  e5d43009      ldrb	r3, [r4, #9]						0x0000a7ec:  e5d43009      ldrb	r3, [r4, #9]
0x0000a7f0:  e08f1001      add	r1, pc, r1						0x0000a7f0:  e08f1001      add	r1, pc, r1
0x0000a7f4:  e2533000      subs	r3, r3, #0	; 0x0					0x0000a7f4:  e2533000      subs	r3, r3, #0	; 0x0
0x0000a7f8:  13a03001      movne	r3, #1	; 0x1					0x0000a7f8:  13a03001      movne	r3, #1	; 0x1
0x0000a7fc:  e7c0c013      bfi	ip, r3, #0, #1						0x0000a7fc:  e7c0c013      bfi	ip, r3, #0, #1

----------------									----------------
IN: decrypt_data									IN: decrypt_data
0x0000a800:  e5c2c050      strb	ip, [r2, #80]						0x0000a800:  e5c2c050      strb	ip, [r2, #80]
0x0000a804:  e5943000      ldr	r3, [r4]						0x0000a804:  e5943000      ldr	r3, [r4]
0x0000a808:  e5823078      str	r3, [r2, #120]						0x0000a808:  e5823078      str	r3, [r2, #120]
0x0000a80c:  ebfff989      bl	0x8e38							0x0000a80c:  ebfff989      bl	0x8e38

----------------									----------------
IN: decode_filter									IN: decode_filter
0x0000a3d4:  e92d47f0      push	{r4, r5, r6, r7, r8, r9, sl, lr}			0x0000a3d4:  e92d47f0      push	{r4, r5, r6, r7, r8, r9, sl, lr}
0x0000a3d8:  e24dd008      sub	sp, sp, #8	; 0x8					0x0000a3d8:  e24dd008      sub	sp, sp, #8	; 0x8
0x0000a3dc:  e1a05000      mov	r5, r0							0x0000a3dc:  e1a05000      mov	r5, r0
0x0000a3e0:  e1a04001      mov	r4, r1							0x0000a3e0:  e1a04001      mov	r4, r1
0x0000a3e4:  e59d9028      ldr	r9, [sp, #40]						0x0000a3e4:  e59d9028      ldr	r9, [sp, #40]
0x0000a3e8:  e1a07002      mov	r7, r2							0x0000a3e8:  e1a07002      mov	r7, r2
0x0000a3ec:  e59f01e4      ldr	r0, [pc, #484]	; 0xa5d8				0x0000a3ec:  e59f01e4      ldr	r0, [pc, #484]	; 0xa5d8
0x0000a3f0:  e1a06003      mov	r6, r3							0x0000a3f0:  e1a06003      mov	r6, r3
0x0000a3f4:  e5992000      ldr	r2, [r9]						0x0000a3f4:  e5992000      ldr	r2, [r9]
0x0000a3f8:  e08f0000      add	r0, pc, r0						0x0000a3f8:  e08f0000      add	r0, pc, r0
0x0000a3fc:  e5953078      ldr	r3, [r5, #120]						0x0000a3fc:  e5953078      ldr	r3, [r5, #120]

----------------									----------------
IN: decode_filter									IN: decode_filter
0x0000a400:  eb00129e      bl	0xee80							0x0000a400:  eb00129e      bl	0xee80

----------------									----------------
IN: decode_filter									IN: decode_filter
0x0000a404:  e3540003      cmp	r4, #3	; 0x3						0x0000a404:  e3540003      cmp	r4, #3	; 0x3
0x0000a408:  0a000004      beq	0xa420							0x0000a408:  0a000004      beq	0xa420

----------------									----------------
IN: decode_filter									IN: decode_filter
0x0000a40c:  e3540002      cmp	r4, #2	; 0x2						0x0000a40c:  e3540002      cmp	r4, #2	; 0x2
0x0000a410:  13a00000      movne	r0, #0	; 0x0					0x0000a410:  13a00000      movne	r0, #0	; 0x0
0x0000a414:  0a000046      beq	0xa534							0x0000a414:  0a000046      beq	0xa534

----------------									----------------
IN: decode_filter									IN: decode_filter
0x0000a418:  e28dd008      add	sp, sp, #8	; 0x8					0x0000a418:  e28dd008      add	sp, sp, #8	; 0x8
0x0000a41c:  e8bd87f0      pop	{r4, r5, r6, r7, r8, r9, sl, pc}			0x0000a41c:  e8bd87f0      pop	{r4, r5, r6, r7, r8, r9, sl, pc}

----------------									----------------
IN: decrypt_data									IN: decrypt_data
0x0000a810:  e5942010      ldr	r2, [r4, #16]						0x0000a810:  e5942010      ldr	r2, [r4, #16]
0x0000a814:  e1a01008      mov	r1, r8							0x0000a814:  e1a01008      mov	r1, r8
0x0000a818:  e1a00007      mov	r0, r7							0x0000a818:  e1a00007      mov	r0, r7
0x0000a81c:  eb001976      bl	0x10dfc							0x0000a81c:  eb001976      bl	0x10dfc

----------------									----------------
IN: proc_packets									IN: proc_packets
0x00010dfc:  e92d41f0      push	{r4, r5, r6, r7, r8, lr}				0x00010dfc:  e92d41f0      push	{r4, r5, r6, r7, r8, lr}
0x00010e00:  e1a05000      mov	r5, r0							0x00010e00:  e1a05000      mov	r5, r0
0x00010e04:  e59f0044      ldr	r0, [pc, #68]	; 0x10e50				0x00010e04:  e59f0044      ldr	r0, [pc, #68]	; 0x10e50
0x00010e08:  e1a06001      mov	r6, r1							0x00010e08:  e1a06001      mov	r6, r1
0x00010e0c:  e1a07002      mov	r7, r2							0x00010e0c:  e1a07002      mov	r7, r2
0x00010e10:  e08f0000      add	r0, pc, r0						0x00010e10:  e08f0000      add	r0, pc, r0
0x00010e14:  ebfff819      bl	0xee80							0x00010e14:  ebfff819      bl	0xee80

----------------									----------------
IN: proc_packets									IN: proc_packets
0x00010e18:  e3a00060      mov	r0, #96	; 0x60						0x00010e18:  e3a00060      mov	r0, #96	; 0x60
0x00010e1c:  ebfff013      bl	0xce70							0x00010e1c:  ebfff013      bl	0xce70

----------------									----------------
IN: proc_packets									IN: proc_packets
0x00010e20:  e5805000      str	r5, [r0]						0x00010e20:  e5805000      str	r5, [r0]
0x00010e24:  e1a01000      mov	r1, r0							0x00010e24:  e1a01000      mov	r1, r0
0x00010e28:  e5806004      str	r6, [r0, #4]						0x00010e28:  e5806004      str	r6, [r0, #4]
0x00010e2c:  e1a04000      mov	r4, r0							0x00010e2c:  e1a04000      mov	r4, r0
0x00010e30:  e1a02007      mov	r2, r7							0x00010e30:  e1a02007      mov	r2, r7
0x00010e34:  e1a00005      mov	r0, r5							0x00010e34:  e1a00005      mov	r0, r5
0x00010e38:  ebfffe64      bl	0x107d0							0x00010e38:  ebfffe64      bl	0x107d0

----------------									----------------
IN: do_proc_packets									IN: do_proc_packets
0x00010838:  e5966004      ldr	r6, [r6, #4]						0x00010838:  e5966004      ldr	r6, [r6, #4]
0x0001083c:  e2833001      add	r3, r3, #1	; 0x1					0x0001083c:  e2833001      add	r3, r3, #1	; 0x1
0x00010840:  e3560000      cmp	r6, #0	; 0x0						0x00010840:  e3560000      cmp	r6, #0	; 0x0
0x00010844:  1afffffb      bne	0x10838							0x00010844:  1afffffb      bne	0x10838

----------------									----------------
IN: parse.constprop.0									IN: parse.constprop.0
0x0000d1d4:  e1a00004      mov	r0, r4							0x0000d1d4:  e1a00004      mov	r0, r4
0x0000d1d8:  ebffefd5      bl	0x9134							0x0000d1d8:  ebffefd5      bl	0x9134

----------------									----------------
IN: decode_filter									IN: decode_filter
0x0000a420:  e5d54050      ldrb	r4, [r5, #80]						0x0000a420:  e5d54050      ldrb	r4, [r5, #80]
0x0000a424:  e214a006      ands	sl, r4, #6	; 0x6					0x0000a424:  e214a006      ands	sl, r4, #6	; 0x6
0x0000a428:  1a000063      bne	0xa5bc							0x0000a428:  1a000063      bne	0xa5bc

----------------									----------------
IN: decode_filter									IN: decode_filter
0x0000a42c:  e59f01a8      ldr	r0, [pc, #424]	; 0xa5dc				0x0000a42c:  e59f01a8      ldr	r0, [pc, #424]	; 0xa5dc
0x0000a430:  e5998000      ldr	r8, [r9]						0x0000a430:  e5998000      ldr	r8, [r9]
0x0000a434:  e08f0000      add	r0, pc, r0						0x0000a434:  e08f0000      add	r0, pc, r0
0x0000a438:  eb001290      bl	0xee80							0x0000a438:  eb001290      bl	0xee80

----------------									----------------
IN: decode_filter									IN: decode_filter
0x0000a43c:  e59f019c      ldr	r0, [pc, #412]	; 0xa5e0				0x0000a43c:  e59f019c      ldr	r0, [pc, #412]	; 0xa5e0
0x0000a440:  e08f0000      add	r0, pc, r0						0x0000a440:  e08f0000      add	r0, pc, r0
0x0000a444:  eb00128d      bl	0xee80							0x0000a444:  eb00128d      bl	0xee80

----------------									----------------
IN: decode_filter									IN: decode_filter
0x0000a448:  e5d53050      ldrb	r3, [r5, #80]						0x0000a448:  e5d53050      ldrb	r3, [r5, #80]
0x0000a44c:  e2134001      ands	r4, r3, #1	; 0x1					0x0000a44c:  e2134001      ands	r4, r3, #1	; 0x1
0x0000a450:  1a000024      bne	0xa4e8							0x0000a450:  1a000024      bne	0xa4e8

----------------									----------------
IN: decode_filter									IN: decode_filter
0x0000a4e8:  e59f00f4      ldr	r0, [pc, #244]	; 0xa5e4				0x0000a4e8:  e59f00f4      ldr	r0, [pc, #244]	; 0xa5e4
0x0000a4ec:  e1a02008      mov	r2, r8							0x0000a4ec:  e1a02008      mov	r2, r8
0x0000a4f0:  e1a0100a      mov	r1, sl							0x0000a4f0:  e1a0100a      mov	r1, sl
0x0000a4f4:  e08f0000      add	r0, pc, r0						0x0000a4f4:  e08f0000      add	r0, pc, r0
0x0000a4f8:  eb001260      bl	0xee80							0x0000a4f8:  eb001260      bl	0xee80

----------------									----------------
IN: tfp_format										IN: tfp_format
0x0000ece4:  e3a0100a      mov	r1, #10	; 0xa						0x0000ece4:  e3a0100a      mov	r1, #10	; 0xa
0x0000ece8:  e0030391      mul	r3, r1, r3						0x0000ece8:  e0030391      mul	r3, r1, r3
0x0000ecec:  e732f31e      udiv	r2, lr, r3						0x0000ecec:  e732f31e      udiv	r2, lr, r3
0x0000ecf0:  e3520009      cmp	r2, #9	; 0x9						0x0000ecf0:  e3520009      cmp	r2, #9	; 0x9
0x0000ecf4:  8afffffb      bhi	0xece8							0x0000ecf4:  8afffffb      bhi	0xece8

----------------									----------------
IN: tfp_format										IN: tfp_format
0x0000ece8:  e0030391      mul	r3, r1, r3						0x0000ece8:  e0030391      mul	r3, r1, r3
0x0000ecec:  e732f31e      udiv	r2, lr, r3						0x0000ecec:  e732f31e      udiv	r2, lr, r3
0x0000ecf0:  e3520009      cmp	r2, #9	; 0x9						0x0000ecf0:  e3520009      cmp	r2, #9	; 0x9
0x0000ecf4:  8afffffb      bhi	0xece8							0x0000ecf4:  8afffffb      bhi	0xece8

----------------									----------------
IN: tfp_format										IN: tfp_format
0x0000ecf8:  e3530000      cmp	r3, #0	; 0x0						0x0000ecf8:  e3530000      cmp	r3, #0	; 0x0
0x0000ecfc:  0a00005d      beq	0xee78							0x0000ecfc:  0a00005d      beq	0xee78

----------------									----------------
IN: tfp_format										IN: tfp_format
0x0000ed24:  e73cf11e      udiv	ip, lr, r1						0x0000ed24:  e73cf11e      udiv	ip, lr, r1
0x0000ed28:  e1a03001      mov	r3, r1							0x0000ed28:  e1a03001      mov	r3, r1
0x0000ed2c:  e0812399      umull	r2, r1, r9, r3					0x0000ed2c:  e0812399      umull	r2, r1, r9, r3
0x0000ed30:  e25a2000      subs	r2, sl, #0	; 0x0					0x0000ed30:  e25a2000      subs	r2, sl, #0	; 0x0
0x0000ed34:  e1a00008      mov	r0, r8							0x0000ed34:  e1a00008      mov	r0, r8
0x0000ed38:  13a02001      movne	r2, #1	; 0x1					0x0000ed38:  13a02001      movne	r2, #1	; 0x1
0x0000ed3c:  e28aa001      add	sl, sl, #1	; 0x1					0x0000ed3c:  e28aa001      add	sl, sl, #1	; 0x1
0x0000ed40:  e06eec93      mls	lr, r3, ip, lr						0x0000ed40:  e06eec93      mls	lr, r3, ip, lr
0x0000ed44:  e3530009      cmp	r3, #9	; 0x9						0x0000ed44:  e3530009      cmp	r3, #9	; 0x9
0x0000ed48:  93822001      orrls	r2, r2, #1	; 0x1				0x0000ed48:  93822001      orrls	r2, r2, #1	; 0x1
0x0000ed4c:  e35c0000      cmp	ip, #0	; 0x0						0x0000ed4c:  e35c0000      cmp	ip, #0	; 0x0
0x0000ed50:  c3822001      orrgt	r2, r2, #1	; 0x1				0x0000ed50:  c3822001      orrgt	r2, r2, #1	; 0x1
0x0000ed54:  e28cc030      add	ip, ip, #48	; 0x30					0x0000ed54:  e28cc030      add	ip, ip, #48	; 0x30
0x0000ed58:  e1a011a1      lsr	r1, r1, #3						0x0000ed58:  e1a011a1      lsr	r1, r1, #3
0x0000ed5c:  e3520000      cmp	r2, #0	; 0x0						0x0000ed5c:  e3520000      cmp	r2, #0	; 0x0
0x0000ed60:  1affffeb      bne	0xed14							0x0000ed60:  1affffeb      bne	0xed14

----------------									----------------
IN: decode_filter									IN: decode_filter
0x0000a4fc:  e3580000      cmp	r8, #0	; 0x0						0x0000a4fc:  e3580000      cmp	r8, #0	; 0x0
0x0000a500:  11a0400a      movne	r4, sl						0x0000a500:  11a0400a      movne	r4, sl
0x0000a504:  1a000003      bne	0xa518							0x0000a504:  1a000003      bne	0xa518

----------------									----------------
IN: decode_filter									IN: decode_filter
0x0000a518:  e0482004      sub	r2, r8, r4						0x0000a518:  e0482004      sub	r2, r8, r4
0x0000a51c:  e1a00007      mov	r0, r7							0x0000a51c:  e1a00007      mov	r0, r7
0x0000a520:  e0861004      add	r1, r6, r4						0x0000a520:  e0861004      add	r1, r6, r4
0x0000a524:  ebfffbbb      bl	0x9418							0x0000a524:  ebfffbbb      bl	0x9418

----------------									----------------
IN: iobuf_read										IN: iobuf_read
0x00009500:  e3a03000      mov	r3, #0	; 0x0						0x00009500:  e3a03000      mov	r3, #0	; 0x0
0x00009504:  e4c43001      strb	r3, [r4], #1						0x00009504:  e4c43001      strb	r3, [r4], #1
0x00009508:  e2855001      add	r5, r5, #1	; 0x1					0x00009508:  e2855001      add	r5, r5, #1	; 0x1
0x0000950c:  e1550007      cmp	r5, r7							0x0000950c:  e1550007      cmp	r5, r7
0x00009510:  2affffe4      bcs	0x94a8							0x00009510:  2affffe4      bcs	0x94a8

----------------									----------------
IN: iobuf_read										IN: iobuf_read
0x0000952c:  e3540000      cmp	r4, #0	; 0x0						0x0000952c:  e3540000      cmp	r4, #0	; 0x0
0x00009530:  1afffff2      bne	0x9500							0x00009530:  1afffff2      bne	0x9500

----------------									----------------
IN: decode_filter									IN: decode_filter
0x0000a528:  e3700001      cmn	r0, #1	; 0x1						0x0000a528:  e3700001      cmn	r0, #1	; 0x1
0x0000a52c:  1afffff6      bne	0xa50c							0x0000a52c:  1afffff6      bne	0xa50c

----------------									----------------
IN: decode_filter									IN: decode_filter
0x0000a50c:  e0844000      add	r4, r4, r0						0x0000a50c:  e0844000      add	r4, r4, r0
0x0000a510:  e1580004      cmp	r8, r4							0x0000a510:  e1580004      cmp	r8, r4
0x0000a514:  9a00000b      bls	0xa548							0x0000a514:  9a00000b      bls	0xa548

----------------									----------------
IN: decode_filter									IN: decode_filter
0x0000a548:  e5950004      ldr	r0, [r5, #4]						0x0000a548:  e5950004      ldr	r0, [r5, #4]
0x0000a54c:  e3500000      cmp	r0, #0	; 0x0						0x0000a54c:  e3500000      cmp	r0, #0	; 0x0
0x0000a550:  0a000003      beq	0xa564							0x0000a550:  0a000003      beq	0xa564

----------------									----------------
IN: decode_filter									IN: decode_filter
0x0000a554:  e59f008c      ldr	r0, [pc, #140]	; 0xa5e8				0x0000a554:  e59f008c      ldr	r0, [pc, #140]	; 0xa5e8
0x0000a558:  e08f0000      add	r0, pc, r0						0x0000a558:  e08f0000      add	r0, pc, r0
0x0000a55c:  eb001247      bl	0xee80							0x0000a55c:  eb001247      bl	0xee80

----------------									----------------
IN: decode_filter									IN: decode_filter
0x0000a560:  e5950004      ldr	r0, [r5, #4]						0x0000a560:  e5950004      ldr	r0, [r5, #4]
0x0000a564:  e3a05000      mov	r5, #0	; 0x0						0x0000a564:  e3a05000      mov	r5, #0	; 0x0
0x0000a568:  e1a01006      mov	r1, r6							0x0000a568:  e1a01006      mov	r1, r6
0x0000a56c:  e58d5000      str	r5, [sp]						0x0000a56c:  e58d5000      str	r5, [sp]
0x0000a570:  e1a03005      mov	r3, r5							0x0000a570:  e1a03005      mov	r3, r5
0x0000a574:  e1a02004      mov	r2, r4							0x0000a574:  e1a02004      mov	r2, r4
0x0000a578:  eb00098b      bl	0xcbac							0x0000a578:  eb00098b      bl	0xcbac

----------------									----------------
IN: _gcry_cipher_cfb_decrypt								IN: _gcry_cipher_cfb_decrypt
0x0000c7c8:  e59f03ac      ldr	r0, [pc, #940]	; 0xcb7c				0x0000c7c8:  e59f03ac      ldr	r0, [pc, #940]	; 0xcb7c
0x0000c7cc:  e3a03000      mov	r3, #0	; 0x0						0x0000c7cc:  e3a03000      mov	r3, #0	; 0x0
0x0000c7d0:  e59d201c      ldr	r2, [sp, #28]						0x0000c7d0:  e59d201c      ldr	r2, [sp, #28]
0x0000c7d4:  e59d1080      ldr	r1, [sp, #128]						0x0000c7d4:  e59d1080      ldr	r1, [sp, #128]
0x0000c7d8:  e08f0000      add	r0, pc, r0						0x0000c7d8:  e08f0000      add	r0, pc, r0
0x0000c7dc:  e59f639c      ldr	r6, [pc, #924]	; 0xcb80				0x0000c7dc:  e59f639c      ldr	r6, [pc, #924]	; 0xcb80
0x0000c7e0:  eb0009a6      bl	0xee80							0x0000c7e0:  eb0009a6      bl	0xee80

----------------									----------------
IN: _gcry_cipher_cfb_decrypt								IN: _gcry_cipher_cfb_decrypt
0x0000c7e4:  e59d3080      ldr	r3, [sp, #128]						0x0000c7e4:  e59d3080      ldr	r3, [sp, #128]
0x0000c7e8:  e59f0394      ldr	r0, [pc, #916]	; 0xcb84				0x0000c7e8:  e59f0394      ldr	r0, [pc, #916]	; 0xcb84
0x0000c7ec:  e1a031a3      lsr	r3, r3, #3						0x0000c7ec:  e1a031a3      lsr	r3, r3, #3
0x0000c7f0:  e08f0000      add	r0, pc, r0						0x0000c7f0:  e08f0000      add	r0, pc, r0
0x0000c7f4:  e1a07003      mov	r7, r3							0x0000c7f4:  e1a07003      mov	r7, r3
0x0000c7f8:  e58d300c      str	r3, [sp, #12]						0x0000c7f8:  e58d300c      str	r3, [sp, #12]
0x0000c7fc:  eb00099f      bl	0xee80							0x0000c7fc:  eb00099f      bl	0xee80

----------------									----------------
IN: _gcry_cipher_cfb_decrypt								IN: _gcry_cipher_cfb_decrypt
0x0000c800:  e59f0380      ldr	r0, [pc, #896]	; 0xcb88				0x0000c800:  e59f0380      ldr	r0, [pc, #896]	; 0xcb88
0x0000c804:  e1a01007      mov	r1, r7							0x0000c804:  e1a01007      mov	r1, r7
0x0000c808:  e08f6006      add	r6, pc, r6						0x0000c808:  e08f6006      add	r6, pc, r6
0x0000c80c:  e08f0000      add	r0, pc, r0						0x0000c80c:  e08f0000      add	r0, pc, r0
0x0000c810:  eb00099a      bl	0xee80							0x0000c810:  eb00099a      bl	0xee80

----------------									----------------
IN: _gcry_cipher_cfb_decrypt								IN: _gcry_cipher_cfb_decrypt
0x0000c814:  e59f1370      ldr	r1, [pc, #880]	; 0xcb8c				0x0000c814:  e59f1370      ldr	r1, [pc, #880]	; 0xcb8c
0x0000c818:  e59f0370      ldr	r0, [pc, #880]	; 0xcb90				0x0000c818:  e59f0370      ldr	r0, [pc, #880]	; 0xcb90
0x0000c81c:  e08f1001      add	r1, pc, r1						0x0000c81c:  e08f1001      add	r1, pc, r1
0x0000c820:  e08f0000      add	r0, pc, r0						0x0000c820:  e08f0000      add	r0, pc, r0
0x0000c824:  eb000995      bl	0xee80							0x0000c824:  eb000995      bl	0xee80

----------------									----------------
IN: _gcry_cipher_cfb_decrypt								IN: _gcry_cipher_cfb_decrypt
0x0000c828:  e5f51001      ldrb	r1, [r5, #1]!						0x0000c828:  e5f51001      ldrb	r1, [r5, #1]!
0x0000c82c:  e1a00006      mov	r0, r6							0x0000c82c:  e1a00006      mov	r0, r6
0x0000c830:  eb000992      bl	0xee80							0x0000c830:  eb000992      bl	0xee80

----------------									----------------
IN: _gcry_cipher_cfb_decrypt								IN: _gcry_cipher_cfb_decrypt
0x0000c834:  e1550004      cmp	r5, r4							0x0000c834:  e1550004      cmp	r5, r4
0x0000c838:  1afffffa      bne	0xc828							0x0000c838:  1afffffa      bne	0xc828

----------------									----------------
IN: _gcry_cipher_cfb_decrypt								IN: _gcry_cipher_cfb_decrypt
0x0000c83c:  e59f0350      ldr	r0, [pc, #848]	; 0xcb94				0x0000c83c:  e59f0350      ldr	r0, [pc, #848]	; 0xcb94
0x0000c840:  e08f0000      add	r0, pc, r0						0x0000c840:  e08f0000      add	r0, pc, r0
0x0000c844:  eb00098d      bl	0xee80							0x0000c844:  eb00098d      bl	0xee80

----------------									----------------
IN: _gcry_cipher_cfb_decrypt								IN: _gcry_cipher_cfb_decrypt
0x0000c848:  e59d300c      ldr	r3, [sp, #12]						0x0000c848:  e59d300c      ldr	r3, [sp, #12]
0x0000c84c:  e3530002      cmp	r3, #2	; 0x2						0x0000c84c:  e3530002      cmp	r3, #2	; 0x2
0x0000c850:  0a0000b6      beq	0xcb30							0x0000c850:  0a0000b6      beq	0xcb30

----------------									----------------
IN: _gcry_cipher_cfb_decrypt								IN: _gcry_cipher_cfb_decrypt
0x0000c854:  e59d3024      ldr	r3, [sp, #36]						0x0000c854:  e59d3024      ldr	r3, [sp, #36]
0x0000c858:  e288b030      add	fp, r8, #48	; 0x30					0x0000c858:  e288b030      add	fp, r8, #48	; 0x30
0x0000c85c:  e59f7334      ldr	r7, [pc, #820]	; 0xcb98				0x0000c85c:  e59f7334      ldr	r7, [pc, #820]	; 0xcb98
0x0000c860:  e28d4038      add	r4, sp, #56	; 0x38					0x0000c860:  e28d4038      add	r4, sp, #56	; 0x38
0x0000c864:  e59da028      ldr	sl, [sp, #40]						0x0000c864:  e59da028      ldr	sl, [sp, #40]
0x0000c868:  e2836017      add	r6, r3, #23	; 0x17					0x0000c868:  e2836017      add	r6, r3, #23	; 0x17
0x0000c86c:  e08f7007      add	r7, pc, r7						0x0000c86c:  e08f7007      add	r7, pc, r7
0x0000c870:  e3a03001      mov	r3, #1	; 0x1						0x0000c870:  e3a03001      mov	r3, #1	; 0x1
0x0000c874:  e58d3014      str	r3, [sp, #20]						0x0000c874:  e58d3014      str	r3, [sp, #20]
0x0000c878:  e28d9030      add	r9, sp, #48	; 0x30					0x0000c878:  e28d9030      add	r9, sp, #48	; 0x30
0x0000c87c:  e58d8020      str	r8, [sp, #32]						0x0000c87c:  e58d8020      str	r8, [sp, #32]
0x0000c880:  e28d3040      add	r3, sp, #64	; 0x40					0x0000c880:  e28d3040      add	r3, sp, #64	; 0x40
0x0000c884:  e58d3010      str	r3, [sp, #16]						0x0000c884:  e58d3010      str	r3, [sp, #16]
0x0000c888:  e28d3048      add	r3, sp, #72	; 0x48					0x0000c888:  e28d3048      add	r3, sp, #72	; 0x48
0x0000c88c:  e58d302c      str	r3, [sp, #44]						0x0000c88c:  e58d302c      str	r3, [sp, #44]
0x0000c890:  e59d8020      ldr	r8, [sp, #32]						0x0000c890:  e59d8020      ldr	r8, [sp, #32]
0x0000c894:  e3a02008      mov	r2, #8	; 0x8						0x0000c894:  e3a02008      mov	r2, #8	; 0x8
0x0000c898:  e59d5010      ldr	r5, [sp, #16]						0x0000c898:  e59d5010      ldr	r5, [sp, #16]
0x0000c89c:  e1a01008      mov	r1, r8							0x0000c89c:  e1a01008      mov	r1, r8
0x0000c8a0:  e1a00005      mov	r0, r5							0x0000c8a0:  e1a00005      mov	r0, r5
0x0000c8a4:  ebfffdbc      bl	0xbf9c							0x0000c8a4:  ebfffdbc      bl	0xbf9c

----------------									----------------
IN: _gcry_cipher_cfb_decrypt								IN: _gcry_cipher_cfb_decrypt
0x0000c8a8:  e59d002c      ldr	r0, [sp, #44]						0x0000c8a8:  e59d002c      ldr	r0, [sp, #44]
0x0000c8ac:  e3a02010      mov	r2, #16	; 0x10						0x0000c8ac:  e3a02010      mov	r2, #16	; 0x10
0x0000c8b0:  e1a0100a      mov	r1, sl							0x0000c8b0:  e1a0100a      mov	r1, sl
0x0000c8b4:  ebfffdb8      bl	0xbf9c							0x0000c8b4:  ebfffdb8      bl	0xbf9c

----------------									----------------
IN: cipher_block_cpy									IN: cipher_block_cpy
0x0000bfb4:  ebffffe5      bl	0xbf50							0x0000bfb4:  ebffffe5      bl	0xbf50

----------------									----------------
IN: cipher_block_cpy									IN: cipher_block_cpy
0x0000bfb8:  e1a08000      mov	r8, r0							0x0000bfb8:  e1a08000      mov	r8, r0
0x0000bfbc:  e2850004      add	r0, r5, #4	; 0x4					0x0000bfbc:  e2850004      add	r0, r5, #4	; 0x4
0x0000bfc0:  ebffffe2      bl	0xbf50							0x0000bfc0:  ebffffe2      bl	0xbf50

----------------									----------------
IN: cipher_block_cpy									IN: cipher_block_cpy
0x0000bfc4:  e1a07000      mov	r7, r0							0x0000bfc4:  e1a07000      mov	r7, r0
0x0000bfc8:  e2850008      add	r0, r5, #8	; 0x8					0x0000bfc8:  e2850008      add	r0, r5, #8	; 0x8
0x0000bfcc:  ebffffdf      bl	0xbf50							0x0000bfcc:  ebffffdf      bl	0xbf50

----------------									----------------
IN: cipher_block_cpy									IN: cipher_block_cpy
0x0000bfd0:  e1a06000      mov	r6, r0							0x0000bfd0:  e1a06000      mov	r6, r0
0x0000bfd4:  e285000c      add	r0, r5, #12	; 0xc					0x0000bfd4:  e285000c      add	r0, r5, #12	; 0xc
0x0000bfd8:  ebffffdc      bl	0xbf50							0x0000bfd8:  ebffffdc      bl	0xbf50

----------------									----------------
IN: cipher_block_cpy									IN: cipher_block_cpy
0x0000bfdc:  e1a05000      mov	r5, r0							0x0000bfdc:  e1a05000      mov	r5, r0
0x0000bfe0:  e1a01008      mov	r1, r8							0x0000bfe0:  e1a01008      mov	r1, r8
0x0000bfe4:  e1a00004      mov	r0, r4							0x0000bfe4:  e1a00004      mov	r0, r4
0x0000bfe8:  ebffffe3      bl	0xbf7c							0x0000bfe8:  ebffffe3      bl	0xbf7c

----------------									----------------
IN: cipher_block_cpy									IN: cipher_block_cpy
0x0000bfec:  e1a01007      mov	r1, r7							0x0000bfec:  e1a01007      mov	r1, r7
0x0000bff0:  e2840004      add	r0, r4, #4	; 0x4					0x0000bff0:  e2840004      add	r0, r4, #4	; 0x4
0x0000bff4:  ebffffe0      bl	0xbf7c							0x0000bff4:  ebffffe0      bl	0xbf7c

----------------									----------------
IN: cipher_block_cpy									IN: cipher_block_cpy
0x0000bff8:  e1a01006      mov	r1, r6							0x0000bff8:  e1a01006      mov	r1, r6
0x0000bffc:  e2840008      add	r0, r4, #8	; 0x8					0x0000bffc:  e2840008      add	r0, r4, #8	; 0x8

----------------									----------------
IN: cipher_block_cpy									IN: cipher_block_cpy
0x0000c000:  ebffffdd      bl	0xbf7c							0x0000c000:  ebffffdd      bl	0xbf7c

----------------									----------------
IN: cipher_block_cpy									IN: cipher_block_cpy
0x0000c004:  e1a01005      mov	r1, r5							0x0000c004:  e1a01005      mov	r1, r5
0x0000c008:  e284000c      add	r0, r4, #12	; 0xc					0x0000c008:  e284000c      add	r0, r4, #12	; 0xc
0x0000c00c:  e8bd41f0      pop	{r4, r5, r6, r7, r8, lr}				0x0000c00c:  e8bd41f0      pop	{r4, r5, r6, r7, r8, lr}
0x0000c010:  eaffffd9      b	0xbf7c							0x0000c010:  eaffffd9      b	0xbf7c

----------------									----------------
IN: _gcry_cipher_cfb_decrypt								IN: _gcry_cipher_cfb_decrypt
0x0000c8b8:  e2463017      sub	r3, r6, #23	; 0x17					0x0000c8b8:  e2463017      sub	r3, r6, #23	; 0x17
0x0000c8bc:  e1a00008      mov	r0, r8							0x0000c8bc:  e1a00008      mov	r0, r8
0x0000c8c0:  e58d3018      str	r3, [sp, #24]						0x0000c8c0:  e58d3018      str	r3, [sp, #24]
0x0000c8c4:  e3a02008      mov	r2, #8	; 0x8						0x0000c8c4:  e3a02008      mov	r2, #8	; 0x8
0x0000c8c8:  e28a1010      add	r1, sl, #16	; 0x10					0x0000c8c8:  e28a1010      add	r1, sl, #16	; 0x10
0x0000c8cc:  e3a08000      mov	r8, #0	; 0x0						0x0000c8cc:  e3a08000      mov	r8, #0	; 0x0
0x0000c8d0:  ebfffdb1      bl	0xbf9c							0x0000c8d0:  ebfffdb1      bl	0xbf9c

----------------									----------------
IN: _gcry_cipher_cfb_decrypt								IN: _gcry_cipher_cfb_decrypt
0x0000c8d4:  e28d3058      add	r3, sp, #88	; 0x58					0x0000c8d4:  e28d3058      add	r3, sp, #88	; 0x58
0x0000c8d8:  e58d3008      str	r3, [sp, #8]						0x0000c8d8:  e58d3008      str	r3, [sp, #8]
0x0000c8dc:  e1a01005      mov	r1, r5							0x0000c8dc:  e1a01005      mov	r1, r5
0x0000c8e0:  e1a00004      mov	r0, r4							0x0000c8e0:  e1a00004      mov	r0, r4
0x0000c8e4:  ebffff07      bl	0xc508							0x0000c8e4:  ebffff07      bl	0xc508

----------------									----------------
IN: _gcry_cipher_cfb_decrypt								IN: _gcry_cipher_cfb_decrypt
0x0000c8e8:  e58d8000      str	r8, [sp]						0x0000c8e8:  e58d8000      str	r8, [sp]
0x0000c8ec:  e1a0100b      mov	r1, fp							0x0000c8ec:  e1a0100b      mov	r1, fp
0x0000c8f0:  e894000c      ldm	r4, {r2, r3}						0x0000c8f0:  e894000c      ldm	r4, {r2, r3}
0x0000c8f4:  e1a00009      mov	r0, r9							0x0000c8f4:  e1a00009      mov	r0, r9
0x0000c8f8:  ebfffef4      bl	0xc4d0							0x0000c8f8:  ebfffef4      bl	0xc4d0

----------------									----------------
IN: _gcry_cipher_cfb_decrypt								IN: _gcry_cipher_cfb_decrypt
0x0000c8fc:  e8990003      ldm	r9, {r0, r1}						0x0000c8fc:  e8990003      ldm	r9, {r0, r1}
0x0000c900:  e1a02005      mov	r2, r5							0x0000c900:  e1a02005      mov	r2, r5
0x0000c904:  e2855008      add	r5, r5, #8	; 0x8					0x0000c904:  e2855008      add	r5, r5, #8	; 0x8
0x0000c908:  e8840003      stm	r4, {r0, r1}						0x0000c908:  e8840003      stm	r4, {r0, r1}
0x0000c90c:  ebfffedb      bl	0xc480							0x0000c90c:  ebfffedb      bl	0xc480

----------------									----------------
IN: _gcry_cipher_cfb_decrypt								IN: _gcry_cipher_cfb_decrypt
0x0000c910:  e59d3008      ldr	r3, [sp, #8]						0x0000c910:  e59d3008      ldr	r3, [sp, #8]
0x0000c914:  e1530005      cmp	r3, r5							0x0000c914:  e1530005      cmp	r3, r5
0x0000c918:  1affffef      bne	0xc8dc							0x0000c918:  1affffef      bne	0xc8dc

----------------									----------------
IN: _gcry_cipher_cfb_decrypt								IN: _gcry_cipher_cfb_decrypt
0x0000c8dc:  e1a01005      mov	r1, r5							0x0000c8dc:  e1a01005      mov	r1, r5
0x0000c8e0:  e1a00004      mov	r0, r4							0x0000c8e0:  e1a00004      mov	r0, r4
0x0000c8e4:  ebffff07      bl	0xc508							0x0000c8e4:  ebffff07      bl	0xc508

----------------									----------------
IN: _gcry_cipher_cfb_decrypt								IN: _gcry_cipher_cfb_decrypt
0x0000c91c:  e59d0018      ldr	r0, [sp, #24]						0x0000c91c:  e59d0018      ldr	r0, [sp, #24]
0x0000c920:  e3a03018      mov	r3, #24	; 0x18						0x0000c920:  e3a03018      mov	r3, #24	; 0x18
0x0000c924:  e59d2010      ldr	r2, [sp, #16]						0x0000c924:  e59d2010      ldr	r2, [sp, #16]
0x0000c928:  e1a0100a      mov	r1, sl							0x0000c928:  e1a0100a      mov	r1, sl
0x0000c92c:  e58d8000      str	r8, [sp]						0x0000c92c:  e58d8000      str	r8, [sp]
0x0000c930:  e2465018      sub	r5, r6, #24	; 0x18					0x0000c930:  e2465018      sub	r5, r6, #24	; 0x18
0x0000c934:  ebfffe4f      bl	0xc278							0x0000c934:  ebfffe4f      bl	0xc278

----------------									----------------
IN: buf_xor										IN: buf_xor
0x0000c278:  e92d4ff0      push	{r4, r5, r6, r7, r8, r9, sl, fp, lr}			0x0000c278:  e92d4ff0      push	{r4, r5, r6, r7, r8, r9, sl, fp, lr}
0x0000c27c:  e3530003      cmp	r3, #3	; 0x3						0x0000c27c:  e3530003      cmp	r3, #3	; 0x3
0x0000c280:  e24dd014      sub	sp, sp, #20	; 0x14					0x0000c280:  e24dd014      sub	sp, sp, #20	; 0x14
0x0000c284:  e1a04000      mov	r4, r0							0x0000c284:  e1a04000      mov	r4, r0
0x0000c288:  e1a08001      mov	r8, r1							0x0000c288:  e1a08001      mov	r8, r1
0x0000c28c:  e1a09002      mov	r9, r2							0x0000c28c:  e1a09002      mov	r9, r2
0x0000c290:  e59db038      ldr	fp, [sp, #56]						0x0000c290:  e59db038      ldr	fp, [sp, #56]
0x0000c294:  e58d3000      str	r3, [sp]						0x0000c294:  e58d3000      str	r3, [sp]
0x0000c298:  9a000047      bls	0xc3bc							0x0000c298:  9a000047      bls	0xc3bc

----------------									----------------
IN: buf_xor										IN: buf_xor
0x0000c29c:  e59fa120      ldr	sl, [pc, #288]	; 0xc3c4				0x0000c29c:  e59fa120      ldr	sl, [pc, #288]	; 0xc3c4
0x0000c2a0:  e2433004      sub	r3, r3, #4	; 0x4					0x0000c2a0:  e2433004      sub	r3, r3, #4	; 0x4
0x0000c2a4:  e3c33003      bic	r3, r3, #3	; 0x3					0x0000c2a4:  e3c33003      bic	r3, r3, #3	; 0x3
0x0000c2a8:  e1a06002      mov	r6, r2							0x0000c2a8:  e1a06002      mov	r6, r2
0x0000c2ac:  e08fa00a      add	sl, pc, sl						0x0000c2ac:  e08fa00a      add	sl, pc, sl
0x0000c2b0:  e2833004      add	r3, r3, #4	; 0x4					0x0000c2b0:  e2833004      add	r3, r3, #4	; 0x4
0x0000c2b4:  e0807003      add	r7, r0, r3						0x0000c2b4:  e0807003      add	r7, r0, r3
0x0000c2b8:  e1a05001      mov	r5, r1							0x0000c2b8:  e1a05001      mov	r5, r1
0x0000c2bc:  e58d3004      str	r3, [sp, #4]						0x0000c2bc:  e58d3004      str	r3, [sp, #4]
0x0000c2c0:  e1cd80f8      strd	r8, [sp, #8]						0x0000c2c0:  e1cd80f8      strd	r8, [sp, #8]
0x0000c2c4:  ea00000c      b	0xc2fc							0x0000c2c4:  ea00000c      b	0xc2fc

----------------									----------------
IN: buf_xor										IN: buf_xor
0x0000c2fc:  e35b0000      cmp	fp, #0	; 0x0						0x0000c2fc:  e35b0000      cmp	fp, #0	; 0x0
0x0000c300:  0afffff0      beq	0xc2c8							0x0000c300:  0afffff0      beq	0xc2c8

----------------									----------------
IN: buf_xor										IN: buf_xor
0x0000c2c8:  e1a00005      mov	r0, r5							0x0000c2c8:  e1a00005      mov	r0, r5
0x0000c2cc:  e2855004      add	r5, r5, #4	; 0x4					0x0000c2cc:  e2855004      add	r5, r5, #4	; 0x4
0x0000c2d0:  ebffff1e      bl	0xbf50							0x0000c2d0:  ebffff1e      bl	0xbf50

----------------									----------------
IN: buf_xor										IN: buf_xor
0x0000c2d4:  e1a08000      mov	r8, r0							0x0000c2d4:  e1a08000      mov	r8, r0
0x0000c2d8:  e1a00006      mov	r0, r6							0x0000c2d8:  e1a00006      mov	r0, r6
0x0000c2dc:  e2866004      add	r6, r6, #4	; 0x4					0x0000c2dc:  e2866004      add	r6, r6, #4	; 0x4
0x0000c2e0:  ebffff1a      bl	0xbf50							0x0000c2e0:  ebffff1a      bl	0xbf50

----------------									----------------
IN: buf_xor										IN: buf_xor
0x0000c2e4:  e0281000      eor	r1, r8, r0						0x0000c2e4:  e0281000      eor	r1, r8, r0
0x0000c2e8:  e1a00004      mov	r0, r4							0x0000c2e8:  e1a00004      mov	r0, r4
0x0000c2ec:  e2844004      add	r4, r4, #4	; 0x4					0x0000c2ec:  e2844004      add	r4, r4, #4	; 0x4
0x0000c2f0:  ebffff21      bl	0xbf7c							0x0000c2f0:  ebffff21      bl	0xbf7c

----------------									----------------
IN: buf_xor										IN: buf_xor
0x0000c2f4:  e1540007      cmp	r4, r7							0x0000c2f4:  e1540007      cmp	r4, r7
0x0000c2f8:  0a000012      beq	0xc348							0x0000c2f8:  0a000012      beq	0xc348

----------------									----------------
IN: buf_xor										IN: buf_xor
0x0000c348:  e59d3004      ldr	r3, [sp, #4]						0x0000c348:  e59d3004      ldr	r3, [sp, #4]
0x0000c34c:  e1cd80d8      ldrd	r8, [sp, #8]						0x0000c34c:  e1cd80d8      ldrd	r8, [sp, #8]
0x0000c350:  e0888003      add	r8, r8, r3						0x0000c350:  e0888003      add	r8, r8, r3
0x0000c354:  e0899003      add	r9, r9, r3						0x0000c354:  e0899003      add	r9, r9, r3
0x0000c358:  e59d3000      ldr	r3, [sp]						0x0000c358:  e59d3000      ldr	r3, [sp]
0x0000c35c:  e2033003      and	r3, r3, #3	; 0x3					0x0000c35c:  e2033003      and	r3, r3, #3	; 0x3
0x0000c360:  e58d3000      str	r3, [sp]						0x0000c360:  e58d3000      str	r3, [sp]
0x0000c364:  e59d3000      ldr	r3, [sp]						0x0000c364:  e59d3000      ldr	r3, [sp]
0x0000c368:  e3530000      cmp	r3, #0	; 0x0						0x0000c368:  e3530000      cmp	r3, #0	; 0x0
0x0000c36c:  0a00000a      beq	0xc39c							0x0000c36c:  0a00000a      beq	0xc39c

----------------									----------------
IN: buf_xor										IN: buf_xor
0x0000c39c:  e28dd014      add	sp, sp, #20	; 0x14					0x0000c39c:  e28dd014      add	sp, sp, #20	; 0x14
0x0000c3a0:  e8bd8ff0      pop	{r4, r5, r6, r7, r8, r9, sl, fp, pc}			0x0000c3a0:  e8bd8ff0      pop	{r4, r5, r6, r7, r8, r9, sl, fp, pc}

----------------									----------------
IN: _gcry_cipher_cfb_decrypt								IN: _gcry_cipher_cfb_decrypt
0x0000c938:  e5f51001      ldrb	r1, [r5, #1]!						0x0000c938:  e5f51001      ldrb	r1, [r5, #1]!
0x0000c93c:  e1a00007      mov	r0, r7							0x0000c93c:  e1a00007      mov	r0, r7
0x0000c940:  eb00094e      bl	0xee80							0x0000c940:  eb00094e      bl	0xee80

----------------									----------------
IN: tfp_format										IN: tfp_format
0x0000ead4:  ea000074      b	0xecac							0x0000ead4:  ea000074      b	0xecac

----------------									----------------
IN: tfp_format										IN: tfp_format
0x0000ecac:  e49a1004      ldr	r1, [sl], #4						0x0000ecac:  e49a1004      ldr	r1, [sl], #4
0x0000ecb0:  e1a00006      mov	r0, r6							0x0000ecb0:  e1a00006      mov	r0, r6
0x0000ecb4:  e6ef1071      uxtb	r1, r1							0x0000ecb4:  e6ef1071      uxtb	r1, r1
0x0000ecb8:  e12fff37      blx	r7							0x0000ecb8:  e12fff37      blx	r7

----------------									----------------
IN: tfp_format										IN: tfp_format
0x0000ecbc:  eaffff5d      b	0xea38							0x0000ecbc:  eaffff5d      b	0xea38

----------------									----------------
IN: _gcry_cipher_cfb_decrypt								IN: _gcry_cipher_cfb_decrypt
0x0000c944:  e1560005      cmp	r6, r5							0x0000c944:  e1560005      cmp	r6, r5
0x0000c948:  1afffffa      bne	0xc938							0x0000c948:  1afffffa      bne	0xc938

----------------									----------------
IN: _gcry_cipher_cfb_decrypt								IN: _gcry_cipher_cfb_decrypt
0x0000c94c:  e59d300c      ldr	r3, [sp, #12]						0x0000c94c:  e59d300c      ldr	r3, [sp, #12]
0x0000c950:  e28aa018      add	sl, sl, #24	; 0x18					0x0000c950:  e28aa018      add	sl, sl, #24	; 0x18
0x0000c954:  e2433003      sub	r3, r3, #3	; 0x3					0x0000c954:  e2433003      sub	r3, r3, #3	; 0x3
0x0000c958:  e58d300c      str	r3, [sp, #12]						0x0000c958:  e58d300c      str	r3, [sp, #12]
0x0000c95c:  e3530002      cmp	r3, #2	; 0x2						0x0000c95c:  e3530002      cmp	r3, #2	; 0x2
0x0000c960:  e59d3014      ldr	r3, [sp, #20]						0x0000c960:  e59d3014      ldr	r3, [sp, #20]
0x0000c964:  e2433001      sub	r3, r3, #1	; 0x1					0x0000c964:  e2433001      sub	r3, r3, #1	; 0x1
0x0000c968:  e58d3014      str	r3, [sp, #20]						0x0000c968:  e58d3014      str	r3, [sp, #20]
0x0000c96c:  e2863001      add	r3, r6, #1	; 0x1					0x0000c96c:  e2863001      add	r3, r6, #1	; 0x1
0x0000c970:  e2866018      add	r6, r6, #24	; 0x18					0x0000c970:  e2866018      add	r6, r6, #24	; 0x18
0x0000c974:  8affffc5      bhi	0xc890							0x0000c974:  8affffc5      bhi	0xc890

----------------									----------------
IN: _gcry_cipher_cfb_decrypt								IN: _gcry_cipher_cfb_decrypt
0x0000c890:  e59d8020      ldr	r8, [sp, #32]						0x0000c890:  e59d8020      ldr	r8, [sp, #32]
0x0000c894:  e3a02008      mov	r2, #8	; 0x8						0x0000c894:  e3a02008      mov	r2, #8	; 0x8
0x0000c898:  e59d5010      ldr	r5, [sp, #16]						0x0000c898:  e59d5010      ldr	r5, [sp, #16]
0x0000c89c:  e1a01008      mov	r1, r8							0x0000c89c:  e1a01008      mov	r1, r8
0x0000c8a0:  e1a00005      mov	r0, r5							0x0000c8a0:  e1a00005      mov	r0, r5
0x0000c8a4:  ebfffdbc      bl	0xbf9c							0x0000c8a4:  ebfffdbc      bl	0xbf9c

----------------									----------------
IN: _gcry_cipher_cfb_decrypt								IN: _gcry_cipher_cfb_decrypt
0x0000c978:  e59d200c      ldr	r2, [sp, #12]						0x0000c978:  e59d200c      ldr	r2, [sp, #12]
0x0000c97c:  e59d8020      ldr	r8, [sp, #32]						0x0000c97c:  e59d8020      ldr	r8, [sp, #32]
0x0000c980:  e3520000      cmp	r2, #0	; 0x0						0x0000c980:  e3520000      cmp	r2, #0	; 0x0
0x0000c984:  0a000042      beq	0xca94							0x0000c984:  0a000042      beq	0xca94

----------------									----------------
IN: _gcry_cipher_cfb_decrypt								IN: _gcry_cipher_cfb_decrypt
0x0000c988:  e59f720c      ldr	r7, [pc, #524]	; 0xcb9c				0x0000c988:  e59f720c      ldr	r7, [pc, #524]	; 0xcb9c
0x0000c98c:  e2836007      add	r6, r3, #7	; 0x7					0x0000c98c:  e2836007      add	r6, r3, #7	; 0x7
0x0000c990:  e58db008      str	fp, [sp, #8]						0x0000c990:  e58db008      str	fp, [sp, #8]
0x0000c994:  e08f7007      add	r7, pc, r7						0x0000c994:  e08f7007      add	r7, pc, r7
0x0000c998:  e59db014      ldr	fp, [sp, #20]						0x0000c998:  e59db014      ldr	fp, [sp, #20]
0x0000c99c:  e1a01008      mov	r1, r8							0x0000c99c:  e1a01008      mov	r1, r8
0x0000c9a0:  e1a00004      mov	r0, r4							0x0000c9a0:  e1a00004      mov	r0, r4
0x0000c9a4:  e2465008      sub	r5, r6, #8	; 0x8					0x0000c9a4:  e2465008      sub	r5, r6, #8	; 0x8
0x0000c9a8:  ebfffed6      bl	0xc508							0x0000c9a8:  ebfffed6      bl	0xc508

----------------									----------------
IN: _gcry_cipher_cfb_decrypt								IN: _gcry_cipher_cfb_decrypt
0x0000c9ac:  e59d1008      ldr	r1, [sp, #8]						0x0000c9ac:  e59d1008      ldr	r1, [sp, #8]
0x0000c9b0:  e35b0000      cmp	fp, #0	; 0x0						0x0000c9b0:  e35b0000      cmp	fp, #0	; 0x0
0x0000c9b4:  c3a03001      movgt	r3, #1	; 0x1					0x0000c9b4:  c3a03001      movgt	r3, #1	; 0x1
0x0000c9b8:  d3a03000      movle	r3, #0	; 0x0					0x0000c9b8:  d3a03000      movle	r3, #0	; 0x0
0x0000c9bc:  e58d3000      str	r3, [sp]						0x0000c9bc:  e58d3000      str	r3, [sp]
0x0000c9c0:  e1a00009      mov	r0, r9							0x0000c9c0:  e1a00009      mov	r0, r9
0x0000c9c4:  e894000c      ldm	r4, {r2, r3}						0x0000c9c4:  e894000c      ldm	r4, {r2, r3}
0x0000c9c8:  ebfffec0      bl	0xc4d0							0x0000c9c8:  ebfffec0      bl	0xc4d0

----------------									----------------
IN: _gcry_cipher_cfb_decrypt								IN: _gcry_cipher_cfb_decrypt
0x0000c9cc:  e8990003      ldm	r9, {r0, r1}						0x0000c9cc:  e8990003      ldm	r9, {r0, r1}
0x0000c9d0:  e1a02008      mov	r2, r8							0x0000c9d0:  e1a02008      mov	r2, r8
0x0000c9d4:  e8840003      stm	r4, {r0, r1}						0x0000c9d4:  e8840003      stm	r4, {r0, r1}
0x0000c9d8:  ebfffea8      bl	0xc480							0x0000c9d8:  ebfffea8      bl	0xc480

----------------									----------------
IN: _gcry_cipher_cfb_decrypt								IN: _gcry_cipher_cfb_decrypt
0x0000c9dc:  e3a03008      mov	r3, #8	; 0x8						0x0000c9dc:  e3a03008      mov	r3, #8	; 0x8
0x0000c9e0:  e1a0200a      mov	r2, sl							0x0000c9e0:  e1a0200a      mov	r2, sl
0x0000c9e4:  e1a01008      mov	r1, r8							0x0000c9e4:  e1a01008      mov	r1, r8
0x0000c9e8:  e2460007      sub	r0, r6, #7	; 0x7					0x0000c9e8:  e2460007      sub	r0, r6, #7	; 0x7
0x0000c9ec:  ebfffe18      bl	0xc254							0x0000c9ec:  ebfffe18      bl	0xc254

----------------									----------------
IN: _gcry_cipher_cfb_decrypt								IN: _gcry_cipher_cfb_decrypt
0x0000c9f0:  e5f51001      ldrb	r1, [r5, #1]!						0x0000c9f0:  e5f51001      ldrb	r1, [r5, #1]!
0x0000c9f4:  e1a00007      mov	r0, r7							0x0000c9f4:  e1a00007      mov	r0, r7
0x0000c9f8:  eb000920      bl	0xee80							0x0000c9f8:  eb000920      bl	0xee80

----------------									----------------
IN: _gcry_cipher_cfb_decrypt								IN: _gcry_cipher_cfb_decrypt
0x0000c9fc:  e1550006      cmp	r5, r6							0x0000c9fc:  e1550006      cmp	r5, r6
0x0000ca00:  1afffffa      bne	0xc9f0							0x0000ca00:  1afffffa      bne	0xc9f0

----------------									----------------
IN: _gcry_cipher_cfb_decrypt								IN: _gcry_cipher_cfb_decrypt
0x0000ca04:  e59d300c      ldr	r3, [sp, #12]						0x0000ca04:  e59d300c      ldr	r3, [sp, #12]
0x0000ca08:  e28aa008      add	sl, sl, #8	; 0x8					0x0000ca08:  e28aa008      add	sl, sl, #8	; 0x8
0x0000ca0c:  e24bb001      sub	fp, fp, #1	; 0x1					0x0000ca0c:  e24bb001      sub	fp, fp, #1	; 0x1
0x0000ca10:  e2866008      add	r6, r6, #8	; 0x8					0x0000ca10:  e2866008      add	r6, r6, #8	; 0x8
0x0000ca14:  e3530001      cmp	r3, #1	; 0x1						0x0000ca14:  e3530001      cmp	r3, #1	; 0x1
0x0000ca18:  0a00001d      beq	0xca94							0x0000ca18:  0a00001d      beq	0xca94

----------------									----------------
IN: _gcry_cipher_cfb_decrypt								IN: _gcry_cipher_cfb_decrypt
0x0000ca94:  e59f0108      ldr	r0, [pc, #264]	; 0xcba4				0x0000ca94:  e59f0108      ldr	r0, [pc, #264]	; 0xcba4
0x0000ca98:  e08f0000      add	r0, pc, r0						0x0000ca98:  e08f0000      add	r0, pc, r0
0x0000ca9c:  eb0008f7      bl	0xee80							0x0000ca9c:  eb0008f7      bl	0xee80

----------------									----------------
IN: _gcry_cipher_cfb_decrypt								IN: _gcry_cipher_cfb_decrypt
0x0000caa0:  e59d0010      ldr	r0, [sp, #16]						0x0000caa0:  e59d0010      ldr	r0, [sp, #16]
0x0000caa4:  e3a01018      mov	r1, #24	; 0x18						0x0000caa4:  e3a01018      mov	r1, #24	; 0x18
0x0000caa8:  eb000148      bl	0xcfd0							0x0000caa8:  eb000148      bl	0xcfd0

----------------									----------------
IN: wipememory										IN: wipememory
0x0000cfd0:  e3510000      cmp	r1, #0	; 0x0						0x0000cfd0:  e3510000      cmp	r1, #0	; 0x0
0x0000cfd4:  012fff1e      bxeq	lr							0x0000cfd4:  012fff1e      bxeq	lr

----------------									----------------
IN: wipememory										IN: wipememory
0x0000cfd8:  e0801001      add	r1, r0, r1						0x0000cfd8:  e0801001      add	r1, r0, r1
0x0000cfdc:  e3a02000      mov	r2, #0	; 0x0						0x0000cfdc:  e3a02000      mov	r2, #0	; 0x0
0x0000cfe0:  e1a03000      mov	r3, r0							0x0000cfe0:  e1a03000      mov	r3, r0
0x0000cfe4:  e2800001      add	r0, r0, #1	; 0x1					0x0000cfe4:  e2800001      add	r0, r0, #1	; 0x1
0x0000cfe8:  e1500001      cmp	r0, r1							0x0000cfe8:  e1500001      cmp	r0, r1
0x0000cfec:  e5c32000      strb	r2, [r3]						0x0000cfec:  e5c32000      strb	r2, [r3]
0x0000cff0:  1afffffa      bne	0xcfe0							0x0000cff0:  1afffffa      bne	0xcfe0

----------------									----------------
IN: wipememory										IN: wipememory
0x0000cfe0:  e1a03000      mov	r3, r0							0x0000cfe0:  e1a03000      mov	r3, r0
0x0000cfe4:  e2800001      add	r0, r0, #1	; 0x1					0x0000cfe4:  e2800001      add	r0, r0, #1	; 0x1
0x0000cfe8:  e1500001      cmp	r0, r1							0x0000cfe8:  e1500001      cmp	r0, r1
0x0000cfec:  e5c32000      strb	r2, [r3]						0x0000cfec:  e5c32000      strb	r2, [r3]
0x0000cff0:  1afffffa      bne	0xcfe0							0x0000cff0:  1afffffa      bne	0xcfe0

----------------									----------------
IN: wipememory										IN: wipememory
0x0000cff4:  e12fff1e      bx	lr							0x0000cff4:  e12fff1e      bx	lr

----------------									----------------
IN: _gcry_cipher_cfb_decrypt								IN: _gcry_cipher_cfb_decrypt
0x0000caac:  e59d3080      ldr	r3, [sp, #128]						0x0000caac:  e59d3080      ldr	r3, [sp, #128]
0x0000cab0:  e59d2024      ldr	r2, [sp, #36]						0x0000cab0:  e59d2024      ldr	r2, [sp, #36]
0x0000cab4:  e3c33007      bic	r3, r3, #7	; 0x7					0x0000cab4:  e3c33007      bic	r3, r3, #7	; 0x7
0x0000cab8:  e0822003      add	r2, r2, r3						0x0000cab8:  e0822003      add	r2, r2, r3
0x0000cabc:  e58d2024      str	r2, [sp, #36]						0x0000cabc:  e58d2024      str	r2, [sp, #36]
0x0000cac0:  e59d2028      ldr	r2, [sp, #40]						0x0000cac0:  e59d2028      ldr	r2, [sp, #40]
0x0000cac4:  e0823003      add	r3, r2, r3						0x0000cac4:  e0823003      add	r3, r2, r3
0x0000cac8:  e58d3028      str	r3, [sp, #40]						0x0000cac8:  e58d3028      str	r3, [sp, #40]
0x0000cacc:  e59d3080      ldr	r3, [sp, #128]						0x0000cacc:  e59d3080      ldr	r3, [sp, #128]
0x0000cad0:  e2034007      and	r4, r3, #7	; 0x7					0x0000cad0:  e2034007      and	r4, r3, #7	; 0x7
0x0000cad4:  eaffff02      b	0xc6e4							0x0000cad4:  eaffff02      b	0xc6e4

----------------									----------------
IN: decode_filter									IN: decode_filter
0x0000a57c:  e1a00005      mov	r0, r5							0x0000a57c:  e1a00005      mov	r0, r5
0x0000a580:  eaffffd5      b	0xa4dc							0x0000a580:  eaffffd5      b	0xa4dc

----------------									----------------
IN: decode_filter									IN: decode_filter
0x0000a4dc:  e5894000      str	r4, [r9]						0x0000a4dc:  e5894000      str	r4, [r9]
0x0000a4e0:  e28dd008      add	sp, sp, #8	; 0x8					0x0000a4e0:  e28dd008      add	sp, sp, #8	; 0x8
0x0000a4e4:  e8bd87f0      pop	{r4, r5, r6, r7, r8, r9, sl, pc}			0x0000a4e4:  e8bd87f0      pop	{r4, r5, r6, r7, r8, r9, sl, pc}

----------------									----------------
IN: parse.constprop.0									IN: parse.constprop.0
0x0000d1dc:  e3700001      cmn	r0, #1	; 0x1						0x0000d1dc:  e3700001      cmn	r0, #1	; 0x1
0x0000d1e0:  16ef3070      uxtbne	r3, r0						0x0000d1e0:  16ef3070      uxtbne	r3, r0
0x0000d1e4:  0a00009e      beq	0xd464							0x0000d1e4:  0a00009e      beq	0xd464

----------------									----------------
IN: parse.constprop.0									IN: parse.constprop.0
0x0000d1e8:  e5cd302c      strb	r3, [sp, #44]						0x0000d1e8:  e5cd302c      strb	r3, [sp, #44]
0x0000d1ec:  e3100080      tst	r0, #128	; 0x80					0x0000d1ec:  e3100080      tst	r0, #128	; 0x80
0x0000d1f0:  0a000039      beq	0xd2dc							0x0000d1f0:  0a000039      beq	0xd2dc

----------------									----------------
IN: parse.constprop.0									IN: parse.constprop.0
0x0000d574:  ea000036      b	0xd654						      |	0x0000d438:  ea000072      b	0xd608

----------------									----------------
IN: parse.constprop.0									IN: parse.constprop.0
0x0000d42c:  ea0001aa      b	0xdadc						      |	0x0000d608:  e3a00000      mov	r0, #0	; 0x0
										      >	0x0000d60c:  e1a01006      mov	r1, r6
										      >	0x0000d610:  ebfff4d0      bl	0xa958

----------------									----------------
IN: parse.constprop.0									IN: parse.constprop.0
0x0000dadc:  e22a2001      eor	r2, sl, #1	; 0x1				      |	0x0000d614:  e59f0b94      ldr	r0, [pc, #2964]	; 0xe1b0
0x0000dae0:  e3550005      cmp	r5, #5	; 0x5					      |	0x0000d618:  e1a01009      mov	r1, r9
0x0000dae4:  83a02000      movhi	r2, #0	; 0x0				      |	0x0000d61c:  e08f0000      add	r0, pc, r0
0x0000dae8:  92022001      andls	r2, r2, #1	; 0x1			      |	0x0000d620:  eb000616      bl	0xee80
0x0000daec:  e3520000      cmp	r2, #0	; 0x0					      <
0x0000daf0:  1a00031a      bne	0xe760						      <

----------------									----------------
IN: parse.constprop.0									IN: parse.constprop.0
0x0000daf4:  e5942010      ldr	r2, [r4, #16]					      |	0x0000d624:  e1a01009      mov	r1, r9
0x0000daf8:  e3520000      cmp	r2, #0	; 0x0					      |	0x0000d628:  e28d002c      add	r0, sp, #44	; 0x2c
0x0000dafc:  1a000102      bne	0xdf0c						      |	0x0000d62c:  ebfff2b2      bl	0xa0fc

----------------									----------------
IN: parse.constprop.0									IN: parse.constprop.0
0x0000db00:  e5940018      ldr	r0, [r4, #24]					      |	0x0000d630:  e3a00002      mov	r0, #2	; 0x2
0x0000db04:  e594201c      ldr	r2, [r4, #28]					      |	0x0000d634:  eaffff8b      b	0xd468
0x0000db08:  e1500002      cmp	r0, r2						      <
0x0000db0c:  2a0000fe      bcs	0xdf0c						      <

----------------									----------------
IN: parse.constprop.0									IN: parse.constprop.0
0x0000df0c:  e58d3010      str	r3, [sp, #16]					      |	0x0000d468:  e28dd09c      add	sp, sp, #156	; 0x9c
0x0000df10:  e1a00004      mov	r0, r4						      |	0x0000d46c:  e8bd8ff0      pop	{r4, r5, r6, r7, r8, r9, sl, fp, pc}
0x0000df14:  ebffec86      bl	0x9134						      <
										      <
----------------								      <
IN: parse.constprop.0								      <
0x0000df18:  e5942010      ldr	r2, [r4, #16]					      <
0x0000df1c:  e3550000      cmp	r5, #0	; 0x0					      <
0x0000df20:  e59d3010      ldr	r3, [sp, #16]					      <
0x0000df24:  12455001      subne	r5, r5, #1	; 0x1			      <
0x0000df28:  e3520000      cmp	r2, #0	; 0x0					      <
0x0000df2c:  e6ef8070      uxtb	r8, r0						      <
0x0000df30:  0a000109      beq	0xe35c						      <
										      <
----------------								      <
IN: parse.constprop.0								      <
0x0000e35c:  e594201c      ldr	r2, [r4, #28]					      <
0x0000e360:  eafffdf4      b	0xdb38						      <
										      <
----------------								      <
IN: parse.constprop.0								      <
0x0000db38:  e5941018      ldr	r1, [r4, #24]					      <
0x0000db3c:  e1510002      cmp	r1, r2						      <
0x0000db40:  2a0000fb      bcs	0xdf34						      <
										      <
----------------								      <
IN: parse.constprop.0								      <
0x0000db44:  e5942008      ldr	r2, [r4, #8]					      <
0x0000db48:  e5940020      ldr	r0, [r4, #32]					      <
0x0000db4c:  e2822001      add	r2, r2, #1	; 0x1				      <
0x0000db50:  e5842008      str	r2, [r4, #8]					      <
0x0000db54:  e2812001      add	r2, r1, #1	; 0x1				      <
0x0000db58:  e5842018      str	r2, [r4, #24]					      <
0x0000db5c:  e7d07001      ldrb	r7, [r0, r1]					      <
0x0000db60:  e58d3010      str	r3, [sp, #16]					      <
0x0000db64:  e3550000      cmp	r5, #0	; 0x0					      <
0x0000db68:  0a00011a      beq	0xdfd8						      <
										      <
----------------								      <
IN: parse.constprop.0								      <
0x0000dfd8:  e287001b      add	r0, r7, #27	; 0x1b				      <
0x0000dfdc:  ebfffb90      bl	0xce24						      <
										      <
----------------								      <
IN: parse.constprop.0								      <
0x0000dfe0:  e59d300c      ldr	r3, [sp, #12]					      <
0x0000dfe4:  e1a0b000      mov	fp, r0						      <
0x0000dfe8:  e5830004      str	r0, [r3, #4]					      <
0x0000dfec:  e59d3010      ldr	r3, [sp, #16]					      <
0x0000dff0:  e580800c      str	r8, [r0, #12]					      <
0x0000dff4:  e5c03008      strb	r3, [r0, #8]					      <
0x0000dff8:  e5c0a009      strb	sl, [r0, #9]					      <
0x0000dffc:  e5807014      str	r7, [r0, #20]					      <
										      <
----------------								      <
IN: parse.constprop.0								      <
0x0000e000:  e5942010      ldr	r2, [r4, #16]					      <
0x0000e004:  e3570000      cmp	r7, #0	; 0x0					      <
0x0000e008:  0a0000d8      beq	0xe370						      <
										      <
----------------								      <
IN: parse.constprop.0								      <
0x0000e370:  e3a05000      mov	r5, #0	; 0x0					      <
0x0000e374:  eafffeaf      b	0xde38						      <
										      <
----------------								      <
IN: parse.constprop.0								      <
0x0000de38:  e3520000      cmp	r2, #0	; 0x0					      <
0x0000de3c:  1a00004f      bne	0xdf80						      <
										      <
----------------								      <
IN: parse.constprop.0								      <
0x0000de40:  e5941018      ldr	r1, [r4, #24]					      <
0x0000de44:  e594301c      ldr	r3, [r4, #28]					      <
0x0000de48:  e1510003      cmp	r1, r3						      <
0x0000de4c:  2a00004b      bcs	0xdf80						      <
										      <
----------------								      <
IN: parse.constprop.0								      <
0x0000de50:  e5942008      ldr	r2, [r4, #8]					      <
0x0000de54:  e5940020      ldr	r0, [r4, #32]					      <
0x0000de58:  e2822001      add	r2, r2, #1	; 0x1				      <
0x0000de5c:  e5842008      str	r2, [r4, #8]					      <
0x0000de60:  e2812001      add	r2, r1, #1	; 0x1				      <
0x0000de64:  e5842018      str	r2, [r4, #24]					      <
0x0000de68:  e7d01001      ldrb	r1, [r0, r1]					      <
0x0000de6c:  e1a08c01      lsl	r8, r1, #24					      <
0x0000de70:  e1530002      cmp	r3, r2						      <
0x0000de74:  9a000048      bls	0xdf9c						      <
										      <
----------------								      <
IN: parse.constprop.0								      <
0x0000de78:  e5941008      ldr	r1, [r4, #8]					      <
0x0000de7c:  e5940020      ldr	r0, [r4, #32]					      <
0x0000de80:  e2811001      add	r1, r1, #1	; 0x1				      <
0x0000de84:  e5841008      str	r1, [r4, #8]					      <
0x0000de88:  e2821001      add	r1, r2, #1	; 0x1				      <
0x0000de8c:  e5841018      str	r1, [r4, #24]					      <
0x0000de90:  e7d07002      ldrb	r7, [r0, r2]					      <
0x0000de94:  e1887807      orr	r7, r8, r7, lsl #16				      <
0x0000de98:  e1530001      cmp	r3, r1						      <
0x0000de9c:  9a00002a      bls	0xdf4c						      <
										      <
----------------								      <
IN: parse.constprop.0								      <
0x0000dea0:  e5942008      ldr	r2, [r4, #8]					      <
0x0000dea4:  e5940020      ldr	r0, [r4, #32]					      <
0x0000dea8:  e2822001      add	r2, r2, #1	; 0x1				      <
0x0000deac:  e5842008      str	r2, [r4, #8]					      <
0x0000deb0:  e2812001      add	r2, r1, #1	; 0x1				      <
0x0000deb4:  e5842018      str	r2, [r4, #24]					      <
0x0000deb8:  e7d01001      ldrb	r1, [r0, r1]					      <
0x0000debc:  e1877401      orr	r7, r7, r1, lsl #8				      <
0x0000dec0:  e1520003      cmp	r2, r3						      <
0x0000dec4:  2a000029      bcs	0xdf70						      <
										      <
----------------								      <
IN: parse.constprop.0								      <
0x0000dec8:  e5943008      ldr	r3, [r4, #8]					      <
0x0000decc:  e5941020      ldr	r1, [r4, #32]					      <
0x0000ded0:  e2833001      add	r3, r3, #1	; 0x1				      <
0x0000ded4:  e5843008      str	r3, [r4, #8]					      <
0x0000ded8:  e2823001      add	r3, r2, #1	; 0x1				      <
0x0000dedc:  e5843018      str	r3, [r4, #24]					      <
0x0000dee0:  e7d13002      ldrb	r3, [r1, r2]					      <
0x0000dee4:  e1833007      orr	r3, r3, r7					      <
0x0000dee8:  e3550000      cmp	r5, #0	; 0x0					      <
0x0000deec:  e58b3010      str	r3, [fp, #16]					      <
0x0000def0:  12455004      subne	r5, r5, #4	; 0x4			      <
0x0000def4:  e58b5000      str	r5, [fp]					      <
0x0000def8:  e1a01006      mov	r1, r6						      <
0x0000defc:  e58b4004      str	r4, [fp, #4]					      <
0x0000df00:  e3a00000      mov	r0, #0	; 0x0					      <
0x0000df04:  ebfff293      bl	0xa958						      <
										      <
----------------								      <
IN: parse.constprop.0								      <
0x0000df08:  eafffec8      b	0xda30						      <
										      <
----------------								      <
IN: parse.constprop.0								      <
0x0000d2dc:  e59f1ea8      ldr	r1, [pc, #3752]	; 0xe18c			      <
0x0000d2e0:  e1a02000      mov	r2, r0						      <
0x0000d2e4:  e59f0ea4      ldr	r0, [pc, #3748]	; 0xe190			      <
0x0000d2e8:  e08f1001      add	r1, pc, r1					      <
0x0000d2ec:  e08f0000      add	r0, pc, r0					      <
0x0000d2f0:  eb0006e2      bl	0xee80						      <
										      <
----------------								      <
IN: parse.constprop.0								      <
0x0000d2f4:  e3a0000e      mov	r0, #14	; 0xe					      <
0x0000d2f8:  e28dd09c      add	sp, sp, #156	; 0x9c				      <
0x0000d2fc:  e8bd8ff0      pop	{r4, r5, r6, r7, r8, r9, sl, fp, pc}		      <

----------------									----------------
IN: do_proc_packets									IN: do_proc_packets
0x00010c0c:  e1a0b000      mov	fp, r0							0x00010c0c:  e1a0b000      mov	fp, r0
0x00010c10:  e1a01006      mov	r1, r6							0x00010c10:  e1a01006      mov	r1, r6
0x00010c14:  e1a00005      mov	r0, r5							0x00010c14:  e1a00005      mov	r0, r5
0x00010c18:  ebffe74e      bl	0xa958							0x00010c18:  ebffe74e      bl	0xa958

----------------									----------------
IN: free_packet.localalias								IN: free_packet.localalias
0x0000a968:  e5903004      ldr	r3, [r0, #4]						0x0000a968:  e5903004      ldr	r3, [r0, #4]
0x0000a96c:  e3530000      cmp	r3, #0	; 0x0						0x0000a96c:  e3530000      cmp	r3, #0	; 0x0
0x0000a970:  0a000004      beq	0xa988							0x0000a970:  0a000004      beq	0xa988

----------------									----------------
IN: free_packet.localalias							      <
0x0000a974:  e5d01000      ldrb	r1, [r0]					      <
0x0000a978:  e59f0050      ldr	r0, [pc, #80]	; 0xa9d0			      <
0x0000a97c:  e8bd4010      pop	{r4, lr}					      <
0x0000a980:  e08f0000      add	r0, pc, r0					      <
0x0000a984:  ea00113d      b	0xee80						      <
										      <
----------------								      <
IN: do_proc_packets									IN: do_proc_packets
0x00010c1c:  eaffff9f      b	0x10aa0							0x00010c1c:  eaffff9f      b	0x10aa0

----------------									----------------
IN: do_proc_packets									IN: do_proc_packets
0x00010aa0:  e594002c      ldr	r0, [r4, #44]						0x00010aa0:  e594002c      ldr	r0, [r4, #44]
0x00010aa4:  ebfff0d2      bl	0xcdf4							0x00010aa4:  ebfff0d2      bl	0xcdf4

----------------									----------------
IN: xfree										IN: xfree
0x0000cdf4:  e3500000      cmp	r0, #0	; 0x0						0x0000cdf4:  e3500000      cmp	r0, #0	; 0x0
0x0000cdf8:  012fff1e      bxeq	lr							0x0000cdf8:  012fff1e      bxeq	lr

----------------									----------------
IN: do_proc_packets									IN: do_proc_packets
0x00010aa8:  e1a01006      mov	r1, r6							0x00010aa8:  e1a01006      mov	r1, r6
0x00010aac:  e1a00005      mov	r0, r5							0x00010aac:  e1a00005      mov	r0, r5
0x00010ab0:  ebffe7a8      bl	0xa958							0x00010ab0:  ebffe7a8      bl	0xa958

----------------									----------------
IN: do_proc_packets									IN: do_proc_packets
0x00010ab4:  e59d3034      ldr	r3, [sp, #52]						0x00010ab4:  e59d3034      ldr	r3, [sp, #52]
0x00010ab8:  e3530000      cmp	r3, #0	; 0x0						0x00010ab8:  e3530000      cmp	r3, #0	; 0x0
0x00010abc:  1a00002d      bne	0x10b78							0x00010abc:  1a00002d      bne	0x10b78

----------------									----------------
IN: do_proc_packets									IN: do_proc_packets
0x00010ac0:  e1a00005      mov	r0, r5							0x00010ac0:  e1a00005      mov	r0, r5
0x00010ac4:  ebfff0ca      bl	0xcdf4							0x00010ac4:  ebfff0ca      bl	0xcdf4

----------------									----------------
IN: xfree										IN: xfree
0x0000cdfc:  eaffffd2      b	0xcd4c							0x0000cdfc:  eaffffd2      b	0xcd4c

----------------									----------------
IN: free										IN: free
0x0000cd4c:  e3500000      cmp	r0, #0	; 0x0						0x0000cd4c:  e3500000      cmp	r0, #0	; 0x0
0x0000cd50:  012fff1e      bxeq	lr							0x0000cd50:  012fff1e      bxeq	lr

----------------									----------------
IN: free										IN: free
0x0000cd54:  e5103004      ldr	r3, [r0, #-4]						0x0000cd54:  e5103004      ldr	r3, [r0, #-4]
0x0000cd58:  e3a02001      mov	r2, #1	; 0x1						0x0000cd58:  e3a02001      mov	r2, #1	; 0x1
0x0000cd5c:  e52de004      push	{lr}		; (str lr, [sp, #-4]!)			0x0000cd5c:  e52de004      push	{lr}		; (str lr, [sp, #-4]!)
0x0000cd60:  e3530000      cmp	r3, #0	; 0x0						0x0000cd60:  e3530000      cmp	r3, #0	; 0x0
0x0000cd64:  e5402008      strb	r2, [r0, #-8]						0x0000cd64:  e5402008      strb	r2, [r0, #-8]
0x0000cd68:  e240e00c      sub	lr, r0, #12	; 0xc					0x0000cd68:  e240e00c      sub	lr, r0, #12	; 0xc
0x0000cd6c:  0a000002      beq	0xcd7c							0x0000cd6c:  0a000002      beq	0xcd7c

----------------									----------------
IN: free										IN: free
0x0000cd70:  e5d32004      ldrb	r2, [r3, #4]						0x0000cd70:  e5d32004      ldrb	r2, [r3, #4]
0x0000cd74:  e3520000      cmp	r2, #0	; 0x0						0x0000cd74:  e3520000      cmp	r2, #0	; 0x0
0x0000cd78:  1a000015      bne	0xcdd4							0x0000cd78:  1a000015      bne	0xcdd4

----------------									----------------
IN: free										IN: free
										      >	0x0000cdd4:  e593c000      ldr	ip, [r3]
										      >	0x0000cdd8:  e510200c      ldr	r2, [r0, #-12]
										      >	0x0000cddc:  e5931008      ldr	r1, [r3, #8]
										      >	0x0000cde0:  e082300c      add	r3, r2, ip
										      >	0x0000cde4:  e500300c      str	r3, [r0, #-12]
										      >	0x0000cde8:  e5001004      str	r1, [r0, #-4]
										      >	0x0000cdec:  eaffffe2      b	0xcd7c
										      >
										      >	----------------
										      >	IN: free
0x0000cd7c:  e59f306c      ldr	r3, [pc, #108]	; 0xcdf0				0x0000cd7c:  e59f306c      ldr	r3, [pc, #108]	; 0xcdf0
0x0000cd80:  e08f3003      add	r3, pc, r3						0x0000cd80:  e08f3003      add	r3, pc, r3
0x0000cd84:  e5933000      ldr	r3, [r3]						0x0000cd84:  e5933000      ldr	r3, [r3]
0x0000cd88:  e3530000      cmp	r3, #0	; 0x0						0x0000cd88:  e3530000      cmp	r3, #0	; 0x0
0x0000cd8c:  049df004      popeq	{pc}		; (ldreq pc, [sp], #4)		0x0000cd8c:  049df004      popeq	{pc}		; (ldreq pc, [sp], #4)

----------------									----------------
IN: free										IN: free
0x0000cd90:  e1a02003      mov	r2, r3							0x0000cd90:  e1a02003      mov	r2, r3
0x0000cd94:  e5933008      ldr	r3, [r3, #8]						0x0000cd94:  e5933008      ldr	r3, [r3, #8]
0x0000cd98:  e3530000      cmp	r3, #0	; 0x0						0x0000cd98:  e3530000      cmp	r3, #0	; 0x0
0x0000cd9c:  049df004      popeq	{pc}		; (ldreq pc, [sp], #4)		0x0000cd9c:  049df004      popeq	{pc}		; (ldreq pc, [sp], #4)

----------------									----------------
IN: free										IN: free
0x0000cda0:  e5d21004      ldrb	r1, [r2, #4]						0x0000cda0:  e5d21004      ldrb	r1, [r2, #4]
0x0000cda4:  e3510000      cmp	r1, #0	; 0x0						0x0000cda4:  e3510000      cmp	r1, #0	; 0x0
0x0000cda8:  0afffff8      beq	0xcd90							0x0000cda8:  0afffff8      beq	0xcd90

----------------									----------------
IN: free									      <
0x0000cdac:  e5921000      ldr	r1, [r2]					      <
0x0000cdb0:  e082c001      add	ip, r2, r1					      <
0x0000cdb4:  e15e000c      cmp	lr, ip						      <
0x0000cdb8:  1afffff4      bne	0xcd90						      <
										      <
----------------								      <
IN: do_proc_packets									IN: do_proc_packets
0x00010ac8:  e1a0000b      mov	r0, fp							0x00010ac8:  e1a0000b      mov	r0, fp
0x00010acc:  e28dd044      add	sp, sp, #68	; 0x44					0x00010acc:  e28dd044      add	sp, sp, #68	; 0x44
0x00010ad0:  e8bd8ff0      pop	{r4, r5, r6, r7, r8, r9, sl, fp, pc}			0x00010ad0:  e8bd8ff0      pop	{r4, r5, r6, r7, r8, r9, sl, fp, pc}

----------------									----------------
IN: proc_packets									IN: proc_packets
0x00010e3c:  e1a05000      mov	r5, r0							0x00010e3c:  e1a05000      mov	r5, r0
0x00010e40:  e1a00004      mov	r0, r4							0x00010e40:  e1a00004      mov	r0, r4
0x00010e44:  ebffefea      bl	0xcdf4							0x00010e44:  ebffefea      bl	0xcdf4

----------------									----------------
										      >	IN: free
										      >	0x0000cdac:  e5921000      ldr	r1, [r2]
										      >	0x0000cdb0:  e082c001      add	ip, r2, r1
										      >	0x0000cdb4:  e15e000c      cmp	lr, ip
										      >	0x0000cdb8:  1afffff4      bne	0xcd90
										      >
										      >	----------------
IN: proc_packets									IN: proc_packets
0x00010e48:  e1a00005      mov	r0, r5							0x00010e48:  e1a00005      mov	r0, r5
0x00010e4c:  e8bd81f0      pop	{r4, r5, r6, r7, r8, pc}				0x00010e4c:  e8bd81f0      pop	{r4, r5, r6, r7, r8, pc}

----------------									----------------
IN: decrypt_data									IN: decrypt_data
0x0000a820:  e59d000c      ldr	r0, [sp, #12]						0x0000a820:  e59d000c      ldr	r0, [sp, #12]
0x0000a824:  e3a0200e      mov	r2, #14	; 0xe						0x0000a824:  e3a0200e      mov	r2, #14	; 0xe
0x0000a828:  e3402200      movt	r2, #512	; 0x200					0x0000a828:  e3402200      movt	r2, #512	; 0x200
0x0000a82c:  e3a01000      mov	r1, #0	; 0x0						0x0000a82c:  e3a01000      mov	r1, #0	; 0x0
0x0000a830:  e5d03050      ldrb	r3, [r0, #80]						0x0000a830:  e5d03050      ldrb	r3, [r0, #80]
0x0000a834:  e5841010      str	r1, [r4, #16]						0x0000a834:  e5841010      str	r1, [r4, #16]
0x0000a838:  e7e130d3      ubfx	r3, r3, #1, #2						0x0000a838:  e7e130d3      ubfx	r3, r3, #1, #2
0x0000a83c:  e3530001      cmp	r3, #1	; 0x1						0x0000a83c:  e3530001      cmp	r3, #1	; 0x1
0x0000a840:  81a06002      movhi	r6, r2						0x0000a840:  81a06002      movhi	r6, r2
0x0000a844:  ebfffecf      bl	0xa388							0x0000a844:  ebfffecf      bl	0xa388

----------------									----------------
IN: release_dfx_context									IN: release_dfx_context
0x0000a388:  e92d4070      push	{r4, r5, r6, lr}					0x0000a388:  e92d4070      push	{r4, r5, r6, lr}
0x0000a38c:  e2504000      subs	r4, r0, #0	; 0x0					0x0000a38c:  e2504000      subs	r4, r0, #0	; 0x0
0x0000a390:  08bd8070      popeq	{r4, r5, r6, pc}				0x0000a390:  08bd8070      popeq	{r4, r5, r6, pc}

----------------									----------------
IN: decrypt_data									IN: decrypt_data
0x0000a848:  e1a00006      mov	r0, r6							0x0000a848:  e1a00006      mov	r0, r6
0x0000a84c:  e28dd030      add	sp, sp, #48	; 0x30					0x0000a84c:  e28dd030      add	sp, sp, #48	; 0x30
0x0000a850:  e8bd87f0      pop	{r4, r5, r6, r7, r8, r9, sl, pc}			0x0000a850:  e8bd87f0      pop	{r4, r5, r6, r7, r8, r9, sl, pc}

----------------									----------------
IN: do_proc_packets									IN: do_proc_packets
0x00010a1c:  e1a0a000      mov	sl, r0							0x00010a1c:  e1a0a000      mov	sl, r0
0x00010a20:  e59f0378      ldr	r0, [pc, #888]	; 0x10da0				0x00010a20:  e59f0378      ldr	r0, [pc, #888]	; 0x10da0
0x00010a24:  e1a0100a      mov	r1, sl							0x00010a24:  e1a0100a      mov	r1, sl
0x00010a28:  e08f0000      add	r0, pc, r0						0x00010a28:  e08f0000      add	r0, pc, r0
0x00010a2c:  ebfff913      bl	0xee80							0x00010a2c:  ebfff913      bl	0xee80

----------------									----------------
IN: do_proc_packets									IN: do_proc_packets
0x00010a30:  e16f3f1a      clz	r3, sl							0x00010a30:  e16f3f1a      clz	r3, sl
0x00010a34:  e35b0000      cmp	fp, #0	; 0x0						0x00010a34:  e35b0000      cmp	fp, #0	; 0x0
0x00010a38:  e1a032a3      lsr	r3, r3, #5						0x00010a38:  e1a032a3      lsr	r3, r3, #5
0x00010a3c:  03a03000      moveq	r3, #0	; 0x0					0x00010a3c:  03a03000      moveq	r3, #0	; 0x0
0x00010a40:  e3530000      cmp	r3, #0	; 0x0						0x00010a40:  e3530000      cmp	r3, #0	; 0x0
0x00010a44:  0a00004f      beq	0x10b88							0x00010a44:  0a00004f      beq	0x10b88

----------------									----------------
IN: do_proc_packets									IN: do_proc_packets
0x00010b88:  e37a0001      cmn	sl, #1	; 0x1						0x00010b88:  e37a0001      cmn	sl, #1	; 0x1
0x00010b8c:  0affffb2      beq	0x10a5c							0x00010b8c:  0affffb2      beq	0x10a5c

----------------									----------------
IN: do_proc_packets									IN: do_proc_packets
0x00010b90:  e35a0000      cmp	sl, #0	; 0x0						0x00010b90:  e35a0000      cmp	sl, #0	; 0x0
0x00010b94:  1a00002a      bne	0x10c44							0x00010b94:  1a00002a      bne	0x10c44

----------------									----------------
IN: do_proc_packets									IN: do_proc_packets
0x00010b98:  e3a00019      mov	r0, #25	; 0x19						0x00010b98:  e3a00019      mov	r0, #25	; 0x19
0x00010b9c:  ebfff8b7      bl	0xee80							0x00010b9c:  ebfff8b7      bl	0xee80

----------------									----------------
IN: do_proc_packets									IN: do_proc_packets
0x00010ba0:  e59f0218      ldr	r0, [pc, #536]	; 0x10dc0				0x00010ba0:  e59f0218      ldr	r0, [pc, #536]	; 0x10dc0
0x00010ba4:  e08f0000      add	r0, pc, r0						0x00010ba4:  e08f0000      add	r0, pc, r0
0x00010ba8:  ebfff8b4      bl	0xee80							0x00010ba8:  ebfff8b4      bl	0xee80

----------------									----------------
IN: do_proc_packets									IN: do_proc_packets
0x00010bac:  e59f0210      ldr	r0, [pc, #528]	; 0x10dc4				0x00010bac:  e59f0210      ldr	r0, [pc, #528]	; 0x10dc4
0x00010bb0:  e08f0000      add	r0, pc, r0						0x00010bb0:  e08f0000      add	r0, pc, r0
0x00010bb4:  ebfff8b1      bl	0xee80							0x00010bb4:  ebfff8b1      bl	0xee80

----------------									----------------
IN: do_proc_packets									IN: do_proc_packets
0x00010bb8:  eaffffa7      b	0x10a5c							0x00010bb8:  eaffffa7      b	0x10a5c

----------------									----------------
IN: do_proc_packets									IN: do_proc_packets
0x00010a5c:  e594002c      ldr	r0, [r4, #44]						0x00010a5c:  e594002c      ldr	r0, [r4, #44]
0x00010a60:  e3a0a000      mov	sl, #0	; 0x0						0x00010a60:  e3a0a000      mov	sl, #0	; 0x0
0x00010a64:  ebfff0e2      bl	0xcdf4							0x00010a64:  ebfff0e2      bl	0xcdf4

----------------									----------------
IN: do_proc_packets									IN: do_proc_packets
0x00010a68:  e584a02c      str	sl, [r4, #44]						0x00010a68:  e584a02c      str	sl, [r4, #44]
0x00010a6c:  e1a0100a      mov	r1, sl							0x00010a6c:  e1a0100a      mov	r1, sl
0x00010a70:  e1a00005      mov	r0, r5							0x00010a70:  e1a00005      mov	r0, r5
0x00010a74:  ebffe7b7      bl	0xa958							0x00010a74:  ebffe7b7      bl	0xa958

----------------									----------------
										      >	IN: free_packet.localalias
										      >	0x0000a974:  e5d01000      ldrb	r1, [r0]
										      >	0x0000a978:  e59f0050      ldr	r0, [pc, #80]	; 0xa9d0
										      >	0x0000a97c:  e8bd4010      pop	{r4, lr}
										      >	0x0000a980:  e08f0000      add	r0, pc, r0
										      >	0x0000a984:  ea00113d      b	0xee80
										      >
										      >	----------------
IN: do_proc_packets									IN: do_proc_packets
0x00010a78:  e584a038      str	sl, [r4, #56]						0x00010a78:  e584a038      str	sl, [r4, #56]
0x00010a7c:  e3a0002a      mov	r0, #42	; 0x2a						0x00010a7c:  e3a0002a      mov	r0, #42	; 0x2a
0x00010a80:  ebfff8fe      bl	0xee80							0x00010a80:  ebfff8fe      bl	0xee80

----------------									----------------
IN: do_proc_packets									IN: do_proc_packets
0x00010a84:  e59f231c      ldr	r2, [pc, #796]	; 0x10da8				0x00010a84:  e59f231c      ldr	r2, [pc, #796]	; 0x10da8
0x00010a88:  e08f2002      add	r2, pc, r2						0x00010a88:  e08f2002      add	r2, pc, r2
0x00010a8c:  e5923000      ldr	r3, [r2]						0x00010a8c:  e5923000      ldr	r3, [r2]
0x00010a90:  e2833001      add	r3, r3, #1	; 0x1					0x00010a90:  e2833001      add	r3, r3, #1	; 0x1
0x00010a94:  e5823000      str	r3, [r2]						0x00010a94:  e5823000      str	r3, [r2]
0x00010a98:  eaffff84      b	0x108b0							0x00010a98:  eaffff84      b	0x108b0
										      >
										      >	----------------
										      >	IN: parse.constprop.0
										      >	0x0000d348:  e358003f      cmp	r8, #63	; 0x3f
										      >	0x0000d34c:  03750001      cmneq	r5, #1	; 0x1
										      >	0x0000d350:  0a00003e      beq	0xd450
										      >
										      >	----------------
										      >	IN: parse.constprop.0
										      >	0x0000d420:  ea000078      b	0xd608

----------------									----------------
IN: proc_encryption_packets								IN: proc_encryption_packets
0x00010ea4:  e1a05000      mov	r5, r0							0x00010ea4:  e1a05000      mov	r5, r0
0x00010ea8:  e1a00004      mov	r0, r4							0x00010ea8:  e1a00004      mov	r0, r4
0x00010eac:  ebffefd0      bl	0xcdf4							0x00010eac:  ebffefd0      bl	0xcdf4

----------------									----------------
IN: proc_encryption_packets								IN: proc_encryption_packets
0x00010eb0:  e1a00005      mov	r0, r5							0x00010eb0:  e1a00005      mov	r0, r5
0x00010eb4:  e8bd81f0      pop	{r4, r5, r6, r7, r8, pc}				0x00010eb4:  e8bd81f0      pop	{r4, r5, r6, r7, r8, pc}

----------------									----------------
IN: decrypt_memory									IN: decrypt_memory
0x0000a350:  e1a04000      mov	r4, r0							0x0000a350:  e1a04000      mov	r4, r0
0x0000a354:  e59f0028      ldr	r0, [pc, #40]	; 0xa384				0x0000a354:  e59f0028      ldr	r0, [pc, #40]	; 0xa384
0x0000a358:  e08f0000      add	r0, pc, r0						0x0000a358:  e08f0000      add	r0, pc, r0
0x0000a35c:  eb0012c7      bl	0xee80							0x0000a35c:  eb0012c7      bl	0xee80

----------------									----------------
IN: decrypt_memory									IN: decrypt_memory
0x0000a360:  e1a00004      mov	r0, r4							0x0000a360:  e1a00004      mov	r0, r4
0x0000a364:  e28dd014      add	sp, sp, #20	; 0x14					0x0000a364:  e28dd014      add	sp, sp, #20	; 0x14
0x0000a368:  e8bd83f0      pop	{r4, r5, r6, r7, r8, r9, pc}				0x0000a368:  e8bd83f0      pop	{r4, r5, r6, r7, r8, r9, pc}

----------------									----------------
IN: main										IN: main
0x000080b4:  e2501000      subs	r1, r0, #0	; 0x0					0x000080b4:  e2501000      subs	r1, r0, #0	; 0x0
0x000080b8:  1a00000f      bne	0x80fc							0x000080b8:  1a00000f      bne	0x80fc

----------------									----------------
IN: main										IN: main
0x000080fc:  e59f003c      ldr	r0, [pc, #60]	; 0x8140				0x000080fc:  e59f003c      ldr	r0, [pc, #60]	; 0x8140
0x00008100:  e08f0000      add	r0, pc, r0						0x00008100:  e08f0000      add	r0, pc, r0
0x00008104:  eb001b5d      bl	0xee80							0x00008104:  eb001b5d      bl	0xee80

----------------									----------------
IN: main										IN: main
0x00008108:  eaffffeb      b	0x80bc							0x00008108:  eaffffeb      b	0x80bc

----------------									----------------
IN: main										IN: main
0x000080bc:  e59f0070      ldr	r0, [pc, #112]	; 0x8134				0x000080bc:  e59f0070      ldr	r0, [pc, #112]	; 0x8134
0x000080c0:  e30c2afe      movw	r2, #51966	; 0xcafe				0x000080c0:  e30c2afe      movw	r2, #51966	; 0xcafe
0x000080c4:  e34b2abe      movt	r2, #47806	; 0xbabe				0x000080c4:  e34b2abe      movt	r2, #47806	; 0xbabe
0x000080c8:  e30b1eef      movw	r1, #48879	; 0xbeef				0x000080c8:  e30b1eef      movw	r1, #48879	; 0xbeef
0x000080cc:  e08f0000      add	r0, pc, r0						0x000080cc:  e08f0000      add	r0, pc, r0
0x000080d0:  e34d1ead      movt	r1, #57005	; 0xdead				0x000080d0:  e34d1ead      movt	r1, #57005	; 0xdead
0x000080d4:  eb001b69      bl	0xee80							0x000080d4:  eb001b69      bl	0xee80

----------------									----------------
IN: main										IN: main
0x000080d8:  e59f0058      ldr	r0, [pc, #88]	; 0x8138				0x000080d8:  e59f0058      ldr	r0, [pc, #88]	; 0x8138
0x000080dc:  e08f0000      add	r0, pc, r0						0x000080dc:  e08f0000      add	r0, pc, r0
0x000080e0:  eb001b66      bl	0xee80							0x000080e0:  eb001b66      bl	0xee80

----------------									----------------
IN: main										IN: main
0x000080e4:  e320f003      wfi								0x000080e4:  e320f003      wfi

