----------------
IN: 
0x00008000:  e3a0d302      mov	sp, #134217728	; 0x8000000
0x00008004:  eb002f3c      bl	0x13cfc

----------------
IN: main
0x00013cfc:  e92d41f0      push	{r4, r5, r6, r7, r8, lr}
0x00013d00:  e3a00000      mov	r0, #0	; 0x0
0x00013d04:  e59f6224      ldr	r6, [pc, #548]	; 0x13f30
0x00013d08:  e59f3224      ldr	r3, [pc, #548]	; 0x13f34
0x00013d0c:  e08f6006      add	r6, pc, r6
0x00013d10:  e7961003      ldr	r1, [r6, r3]
0x00013d14:  ebfffa6d      bl	0x126d0

----------------
IN: init_printf
0x000126d0:  e59f300c      ldr	r3, [pc, #12]	; 0x126e4
0x000126d4:  e08f3003      add	r3, pc, r3
0x000126d8:  e5830004      str	r0, [r3, #4]
0x000126dc:  e5831000      str	r1, [r3]
0x000126e0:  e12fff1e      bx	lr

----------------
IN: main
0x00013d18:  e59f0218      ldr	r0, [pc, #536]	; 0x13f38
0x00013d1c:  e08f0000      add	r0, pc, r0
0x00013d20:  ebfffa70      bl	0x126e8

----------------
IN: tfp_printf
0x000126e8:  e92d000f      push	{r0, r1, r2, r3}
0x000126ec:  e59f0030      ldr	r0, [pc, #48]	; 0x12724
0x000126f0:  e52de004      push	{lr}		; (str lr, [sp, #-4]!)
0x000126f4:  e24dd00c      sub	sp, sp, #12	; 0xc
0x000126f8:  e08f0000      add	r0, pc, r0
0x000126fc:  e28d3014      add	r3, sp, #20	; 0x14
0x00012700:  e59d2010      ldr	r2, [sp, #16]
0x00012704:  e5901000      ldr	r1, [r0]
0x00012708:  e5900004      ldr	r0, [r0, #4]
0x0001270c:  e58d3004      str	r3, [sp, #4]
0x00012710:  ebfffecc      bl	0x12248

----------------
IN: tfp_format
0x00012248:  e92d4ff0      push	{r4, r5, r6, r7, r8, r9, sl, fp, lr}
0x0001224c:  e1a04002      mov	r4, r2
0x00012250:  e1a07001      mov	r7, r1
0x00012254:  e24dd024      sub	sp, sp, #36	; 0x24
0x00012258:  e4d21001      ldrb	r1, [r2], #1
0x0001225c:  e3510000      cmp	r1, #0	; 0x0
0x00012260:  0a000052      beq	0x123b0

----------------
IN: tfp_format
0x00012264:  e30c9ccd      movw	r9, #52429	; 0xcccd
0x00012268:  e1a06000      mov	r6, r0
0x0001226c:  e34c9ccc      movt	r9, #52428	; 0xcccc
0x00012270:  e1a0a003      mov	sl, r3
0x00012274:  e28db014      add	fp, sp, #20	; 0x14
0x00012278:  ea000006      b	0x12298

----------------
IN: tfp_format
0x00012298:  e3510025      cmp	r1, #37	; 0x25
0x0001229c:  1afffff6      bne	0x1227c

----------------
IN: tfp_format
0x0001227c:  e1a00006      mov	r0, r6
0x00012280:  e1a04002      mov	r4, r2
0x00012284:  e12fff37      blx	r7

----------------
IN: putc_uart
0x0000f26c:  e12fff1e      bx	lr

----------------
IN: tfp_format
0x00012288:  e1a02004      mov	r2, r4
0x0001228c:  e4d21001      ldrb	r1, [r2], #1
0x00012290:  e3510000      cmp	r1, #0	; 0x0
0x00012294:  0a000045      beq	0x123b0

----------------
IN: tfp_format
0x000123b0:  e28dd024      add	sp, sp, #36	; 0x24
0x000123b4:  e8bd8ff0      pop	{r4, r5, r6, r7, r8, r9, sl, fp, pc}

----------------
IN: tfp_printf
0x00012714:  e28dd00c      add	sp, sp, #12	; 0xc
0x00012718:  e49de004      pop	{lr}		; (ldr lr, [sp], #4)
0x0001271c:  e28dd010      add	sp, sp, #16	; 0x10
0x00012720:  e12fff1e      bx	lr

----------------
IN: main
0x00013d24:  ebffed5c      bl	0xf29c

----------------
IN: print_memory_map
0x0000f29c:  e59f0084      ldr	r0, [pc, #132]	; 0xf328
0x0000f2a0:  e92d4010      push	{r4, lr}
0x0000f2a4:  e59f4080      ldr	r4, [pc, #128]	; 0xf32c
0x0000f2a8:  e08f0000      add	r0, pc, r0
0x0000f2ac:  e08f4004      add	r4, pc, r4
0x0000f2b0:  eb000d0c      bl	0x126e8

----------------
IN: print_memory_map
0x0000f2b4:  e59f3074      ldr	r3, [pc, #116]	; 0xf330
0x0000f2b8:  e59f2074      ldr	r2, [pc, #116]	; 0xf334
0x0000f2bc:  e59f0074      ldr	r0, [pc, #116]	; 0xf338
0x0000f2c0:  e7941003      ldr	r1, [r4, r3]
0x0000f2c4:  e7942002      ldr	r2, [r4, r2]
0x0000f2c8:  e08f0000      add	r0, pc, r0
0x0000f2cc:  eb000d05      bl	0x126e8

----------------
IN: tfp_format
0x000122a0:  e5d42001      ldrb	r2, [r4, #1]
0x000122a4:  e3a05000      mov	r5, #0	; 0x0
0x000122a8:  e3520030      cmp	r2, #48	; 0x30
0x000122ac:  12844002      addne	r4, r4, #2	; 0x2
0x000122b0:  13a08000      movne	r8, #0	; 0x0
0x000122b4:  05d42002      ldrbeq	r2, [r4, #2]
0x000122b8:  03a08001      moveq	r8, #1	; 0x1
0x000122bc:  02844003      addeq	r4, r4, #3	; 0x3
0x000122c0:  e2421030      sub	r1, r2, #48	; 0x30
0x000122c4:  e6ef3071      uxtb	r3, r1
0x000122c8:  e3530009      cmp	r3, #9	; 0x9
0x000122cc:  9a000065      bls	0x12468

----------------
IN: tfp_format
0x000122d0:  e352006c      cmp	r2, #108	; 0x6c
0x000122d4:  0a000037      beq	0x123b8

----------------
IN: tfp_format
0x000122d8:  e352007a      cmp	r2, #122	; 0x7a
0x000122dc:  8affffe9      bhi	0x12288

----------------
IN: tfp_format
0x000122e0:  e3520057      cmp	r2, #87	; 0x57
0x000122e4:  9a000026      bls	0x12384

----------------
IN: tfp_format
0x000122e8:  e2423058      sub	r3, r2, #88	; 0x58
0x000122ec:  e3530022      cmp	r3, #34	; 0x22
0x000122f0:  908ff103      addls	pc, pc, r3, lsl #2

----------------
IN: tfp_format
0x00012358:  ea00009f      b	0x125dc

----------------
IN: tfp_format
0x000125dc:  e1a00006      mov	r0, r6
0x000125e0:  e3a01030      mov	r1, #48	; 0x30
0x000125e4:  e12fff37      blx	r7

----------------
IN: tfp_format
0x000125e8:  e1a00006      mov	r0, r6
0x000125ec:  e3a01078      mov	r1, #120	; 0x78
0x000125f0:  e12fff37      blx	r7

----------------
IN: tfp_format
0x000125f4:  e49a0004      ldr	r0, [sl], #4
0x000125f8:  e1a0300b      mov	r3, fp
0x000125fc:  e3a02001      mov	r2, #1	; 0x1
0x00012600:  e3a01010      mov	r1, #16	; 0x10
0x00012604:  ebfffeaf      bl	0x120c8

----------------
IN: ui2a
0x000120c8:  e1500001      cmp	r0, r1
0x000120cc:  e3a0c001      mov	ip, #1	; 0x1
0x000120d0:  e92d4070      push	{r4, r5, r6, lr}
0x000120d4:  3a000028      bcc	0x1217c

----------------
IN: ui2a
0x000120d8:  e00c0c91      mul	ip, r1, ip
0x000120dc:  e73efc10      udiv	lr, r0, ip
0x000120e0:  e15e0001      cmp	lr, r1
0x000120e4:  2afffffb      bcs	0x120d8

----------------
IN: ui2a
0x000120e8:  e35c0000      cmp	ip, #0	; 0x0
0x000120ec:  0a000020      beq	0x12174

----------------
IN: ui2a
0x000120f0:  e3a04000      mov	r4, #0	; 0x0
0x000120f4:  e35e0000      cmp	lr, #0	; 0x0
0x000120f8:  d3540000      cmple	r4, #0	; 0x0
0x000120fc:  e736f11c      udiv	r6, ip, r1
0x00012100:  13a05001      movne	r5, #1	; 0x1
0x00012104:  03a05000      moveq	r5, #0	; 0x0
0x00012108:  e0600e9c      mls	r0, ip, lr, r0
0x0001210c:  1a000008      bne	0x12134

----------------
IN: ui2a
0x00012134:  e35e0009      cmp	lr, #9	; 0x9
0x00012138:  d3a05030      movle	r5, #48	; 0x30
0x0001213c:  da000002      ble	0x1214c

----------------
IN: ui2a
0x0001214c:  e151000c      cmp	r1, ip
0x00012150:  e1a0c003      mov	ip, r3
0x00012154:  e085e00e      add	lr, r5, lr
0x00012158:  e2844001      add	r4, r4, #1	; 0x1
0x0001215c:  e4cce001      strb	lr, [ip], #1
0x00012160:  e1a0300c      mov	r3, ip
0x00012164:  8affffef      bhi	0x12128

----------------
IN: ui2a
0x00012168:  e73ef610      udiv	lr, r0, r6
0x0001216c:  e1a0c006      mov	ip, r6
0x00012170:  eaffffdf      b	0x120f4

----------------
IN: ui2a
0x000120f4:  e35e0000      cmp	lr, #0	; 0x0
0x000120f8:  d3540000      cmple	r4, #0	; 0x0
0x000120fc:  e736f11c      udiv	r6, ip, r1
0x00012100:  13a05001      movne	r5, #1	; 0x1
0x00012104:  03a05000      moveq	r5, #0	; 0x0
0x00012108:  e0600e9c      mls	r0, ip, lr, r0
0x0001210c:  1a000008      bne	0x12134

----------------
IN: ui2a
0x00012128:  e3a03000      mov	r3, #0	; 0x0
0x0001212c:  e5cc3000      strb	r3, [ip]
0x00012130:  e8bd8070      pop	{r4, r5, r6, pc}

----------------
IN: tfp_format
0x00012608:  e58db000      str	fp, [sp]
0x0001260c:  e1a03008      mov	r3, r8
0x00012610:  e1a02005      mov	r2, r5
0x00012614:  e1a01007      mov	r1, r7
0x00012618:  e1a00006      mov	r0, r6
0x0001261c:  ebfffed8      bl	0x12184

----------------
IN: putchw
0x00012184:  e92d41f0      push	{r4, r5, r6, r7, r8, lr}
0x00012188:  e1a07001      mov	r7, r1
0x0001218c:  e59d5018      ldr	r5, [sp, #24]
0x00012190:  e3530000      cmp	r3, #0	; 0x0
0x00012194:  13a08030      movne	r8, #48	; 0x30
0x00012198:  03a08020      moveq	r8, #32	; 0x20
0x0001219c:  e4d51001      ldrb	r1, [r5], #1
0x000121a0:  e1a06000      mov	r6, r0
0x000121a4:  e3510000      cmp	r1, #0	; 0x0
0x000121a8:  0a00001d      beq	0x12224

----------------
IN: putchw
0x000121ac:  e3520000      cmp	r2, #0	; 0x0
0x000121b0:  da000015      ble	0x1220c

----------------
IN: putchw
0x0001220c:  e1a00006      mov	r0, r6
0x00012210:  e12fff37      blx	r7

----------------
IN: putchw
0x00012214:  e4d51001      ldrb	r1, [r5], #1
0x00012218:  e3510000      cmp	r1, #0	; 0x0
0x0001221c:  1afffffa      bne	0x1220c

----------------
IN: putchw
0x00012220:  e8bd81f0      pop	{r4, r5, r6, r7, r8, pc}

----------------
IN: tfp_format
0x00012620:  eaffff18      b	0x12288

----------------
IN: ui2a
0x00012140:  e3520000      cmp	r2, #0	; 0x0
0x00012144:  13a05037      movne	r5, #55	; 0x37
0x00012148:  03a05057      moveq	r5, #87	; 0x57
0x0001214c:  e151000c      cmp	r1, ip
0x00012150:  e1a0c003      mov	ip, r3
0x00012154:  e085e00e      add	lr, r5, lr
0x00012158:  e2844001      add	r4, r4, #1	; 0x1
0x0001215c:  e4cce001      strb	lr, [ip], #1
0x00012160:  e1a0300c      mov	r3, ip
0x00012164:  8affffef      bhi	0x12128

----------------
IN: print_memory_map
0x0000f2d0:  e59f3064      ldr	r3, [pc, #100]	; 0xf33c
0x0000f2d4:  e59f2064      ldr	r2, [pc, #100]	; 0xf340
0x0000f2d8:  e59f0064      ldr	r0, [pc, #100]	; 0xf344
0x0000f2dc:  e7941003      ldr	r1, [r4, r3]
0x0000f2e0:  e7942002      ldr	r2, [r4, r2]
0x0000f2e4:  e08f0000      add	r0, pc, r0
0x0000f2e8:  eb000cfe      bl	0x126e8

----------------
IN: print_memory_map
0x0000f2ec:  e59f3054      ldr	r3, [pc, #84]	; 0xf348
0x0000f2f0:  e59f2054      ldr	r2, [pc, #84]	; 0xf34c
0x0000f2f4:  e59f0054      ldr	r0, [pc, #84]	; 0xf350
0x0000f2f8:  e7941003      ldr	r1, [r4, r3]
0x0000f2fc:  e7942002      ldr	r2, [r4, r2]
0x0000f300:  e08f0000      add	r0, pc, r0
0x0000f304:  eb000cf7      bl	0x126e8

----------------
IN: print_memory_map
0x0000f308:  e59f2044      ldr	r2, [pc, #68]	; 0xf354
0x0000f30c:  e59f3044      ldr	r3, [pc, #68]	; 0xf358
0x0000f310:  e59f0044      ldr	r0, [pc, #68]	; 0xf35c
0x0000f314:  e7942002      ldr	r2, [r4, r2]
0x0000f318:  e7941003      ldr	r1, [r4, r3]
0x0000f31c:  e08f0000      add	r0, pc, r0
0x0000f320:  e8bd4010      pop	{r4, lr}
0x0000f324:  ea000cef      b	0x126e8

----------------
IN: main
0x00013d28:  e3a00024      mov	r0, #36	; 0x24
0x00013d2c:  ebfff046      bl	0xfe4c

----------------
IN: malloc
0x0000fe4c:  e59f10cc      ldr	r1, [pc, #204]	; 0xff20
0x0000fe50:  e08f1001      add	r1, pc, r1
0x0000fe54:  e5d1c000      ldrb	ip, [r1]
0x0000fe58:  e35c0000      cmp	ip, #0	; 0x0
0x0000fe5c:  0a000011      beq	0xfea8

----------------
IN: malloc
0x0000fea8:  e59f3074      ldr	r3, [pc, #116]	; 0xff24
0x0000feac:  e3a02801      mov	r2, #65536	; 0x10000
0x0000feb0:  e3500000      cmp	r0, #0	; 0x0
0x0000feb4:  e08f3003      add	r3, pc, r3
0x0000feb8:  e5813004      str	r3, [r1, #4]
0x0000febc:  e5832000      str	r2, [r3]
0x0000fec0:  e3a02001      mov	r2, #1	; 0x1
0x0000fec4:  e5c12000      strb	r2, [r1]
0x0000fec8:  1280101b      addne	r1, r0, #27	; 0x1b
0x0000fecc:  13c1100f      bicne	r1, r1, #15	; 0xf
0x0000fed0:  e5c32004      strb	r2, [r3, #4]
0x0000fed4:  e583c008      str	ip, [r3, #8]
0x0000fed8:  1affffe8      bne	0xfe80

----------------
IN: malloc
0x0000fe80:  e3520000      cmp	r2, #0	; 0x0
0x0000fe84:  0a000002      beq	0xfe94

----------------
IN: malloc
0x0000fe88:  e5932000      ldr	r2, [r3]
0x0000fe8c:  e1520001      cmp	r2, r1
0x0000fe90:  2a000012      bcs	0xfee0

----------------
IN: malloc
0x0000fee0:  e281001c      add	r0, r1, #28	; 0x1c
0x0000fee4:  e1520000      cmp	r2, r0
0x0000fee8:  3a000008      bcc	0xff10

----------------
IN: malloc
0x0000feec:  e0830001      add	r0, r3, r1
0x0000fef0:  e0422001      sub	r2, r2, r1
0x0000fef4:  e7832001      str	r2, [r3, r1]
0x0000fef8:  e3a02001      mov	r2, #1	; 0x1
0x0000fefc:  e5c02004      strb	r2, [r0, #4]
0x0000ff00:  e5932008      ldr	r2, [r3, #8]
0x0000ff04:  e5802008      str	r2, [r0, #8]
0x0000ff08:  e5831000      str	r1, [r3]
0x0000ff0c:  e5830008      str	r0, [r3, #8]
0x0000ff10:  e3a02000      mov	r2, #0	; 0x0
0x0000ff14:  e283000c      add	r0, r3, #12	; 0xc
0x0000ff18:  e5c32004      strb	r2, [r3, #4]
0x0000ff1c:  e12fff1e      bx	lr

----------------
IN: main
0x00013d30:  e1a05000      mov	r5, r0
0x00013d34:  e59f0200      ldr	r0, [pc, #512]	; 0x13f3c
0x00013d38:  e1a01005      mov	r1, r5
0x00013d3c:  e08f0000      add	r0, pc, r0
0x00013d40:  ebfffa68      bl	0x126e8

----------------
IN: main
0x00013d44:  e3550000      cmp	r5, #0	; 0x0
0x00013d48:  0a00006c      beq	0x13f00

----------------
IN: main
0x00013d4c:  e59f41ec      ldr	r4, [pc, #492]	; 0x13f40
0x00013d50:  e3a02024      mov	r2, #36	; 0x24
0x00013d54:  e3a01000      mov	r1, #0	; 0x0
0x00013d58:  e1a00005      mov	r0, r5
0x00013d5c:  e08f4004      add	r4, pc, r4
0x00013d60:  ebfff09d      bl	0xffdc

----------------
IN: memset
0x0000ffdc:  e3520000      cmp	r2, #0	; 0x0
0x0000ffe0:  012fff1e      bxeq	lr

----------------
IN: memset
0x0000ffe4:  e0802002      add	r2, r0, r2
0x0000ffe8:  e6ef1071      uxtb	r1, r1
0x0000ffec:  e1a03000      mov	r3, r0
0x0000fff0:  e4c31001      strb	r1, [r3], #1
0x0000fff4:  e1530002      cmp	r3, r2
0x0000fff8:  1afffffc      bne	0xfff0

----------------
IN: memset
0x0000fff0:  e4c31001      strb	r1, [r3], #1
0x0000fff4:  e1530002      cmp	r3, r2
0x0000fff8:  1afffffc      bne	0xfff0

----------------
IN: memset
0x0000fffc:  e12fff1e      bx	lr

----------------
IN: main
0x00013d64:  e59f01d8      ldr	r0, [pc, #472]	; 0x13f44
0x00013d68:  e3a01024      mov	r1, #36	; 0x24
0x00013d6c:  e08f0000      add	r0, pc, r0
0x00013d70:  ebfffa5c      bl	0x126e8

----------------
IN: tfp_format
0x00012328:  ea000062      b	0x124b8

----------------
IN: tfp_format
0x000124b8:  e49a0004      ldr	r0, [sl], #4
0x000124bc:  e3a02000      mov	r2, #0	; 0x0
0x000124c0:  e3a0100a      mov	r1, #10	; 0xa
0x000124c4:  e3500000      cmp	r0, #0	; 0x0
0x000124c8:  b3a0302d      movlt	r3, #45	; 0x2d
0x000124cc:  b2600000      rsblt	r0, r0, #0	; 0x0
0x000124d0:  b5cd3014      strblt	r3, [sp, #20]
0x000124d4:  a1a0300b      movge	r3, fp
0x000124d8:  b28d3015      addlt	r3, sp, #21	; 0x15
0x000124dc:  ebfffef9      bl	0x120c8

----------------
IN: tfp_format
0x000124e0:  e58db000      str	fp, [sp]
0x000124e4:  e1a03008      mov	r3, r8
0x000124e8:  e1a02005      mov	r2, r5
0x000124ec:  e1a01007      mov	r1, r7
0x000124f0:  e1a00006      mov	r0, r6
0x000124f4:  ebffff22      bl	0x12184

----------------
IN: tfp_format
0x000124f8:  eaffff62      b	0x12288

----------------
IN: main
0x00013d74:  e1a00004      mov	r0, r4
0x00013d78:  ebffed3c      bl	0xf270

----------------
IN: strlen
0x0000f270:  e5d03000      ldrb	r3, [r0]
0x0000f274:  e3530000      cmp	r3, #0	; 0x0
0x0000f278:  0a000005      beq	0xf294

----------------
IN: strlen
0x0000f27c:  e1a03000      mov	r3, r0
0x0000f280:  e5f32001      ldrb	r2, [r3, #1]!
0x0000f284:  e3520000      cmp	r2, #0	; 0x0
0x0000f288:  1afffffc      bne	0xf280

----------------
IN: strlen
0x0000f280:  e5f32001      ldrb	r2, [r3, #1]!
0x0000f284:  e3520000      cmp	r2, #0	; 0x0
0x0000f288:  1afffffc      bne	0xf280

----------------
IN: strlen
0x0000f28c:  e0430000      sub	r0, r3, r0
0x0000f290:  e12fff1e      bx	lr

----------------
IN: main
0x00013d7c:  e1a07000      mov	r7, r0
0x00013d80:  e59f01c0      ldr	r0, [pc, #448]	; 0x13f48
0x00013d84:  e1a01007      mov	r1, r7
0x00013d88:  e08f0000      add	r0, pc, r0
0x00013d8c:  ebfffa55      bl	0x126e8

----------------
IN: ui2a
0x0001217c:  e1a0e000      mov	lr, r0
0x00012180:  eaffffda      b	0x120f0

----------------
IN: main
0x00013d90:  e2870001      add	r0, r7, #1	; 0x1
0x00013d94:  ebfff02c      bl	0xfe4c

----------------
IN: malloc
0x0000fe60:  e3500000      cmp	r0, #0	; 0x0
0x0000fe64:  0a00000d      beq	0xfea0

----------------
IN: malloc
0x0000fe68:  e5913004      ldr	r3, [r1, #4]
0x0000fe6c:  e280101b      add	r1, r0, #27	; 0x1b
0x0000fe70:  e3c1100f      bic	r1, r1, #15	; 0xf
0x0000fe74:  e3530000      cmp	r3, #0	; 0x0
0x0000fe78:  0a000008      beq	0xfea0

----------------
IN: malloc
0x0000fe7c:  e5d32004      ldrb	r2, [r3, #4]
0x0000fe80:  e3520000      cmp	r2, #0	; 0x0
0x0000fe84:  0a000002      beq	0xfe94

----------------
IN: malloc
0x0000fe94:  e5933008      ldr	r3, [r3, #8]
0x0000fe98:  e3530000      cmp	r3, #0	; 0x0
0x0000fe9c:  1afffff6      bne	0xfe7c

----------------
IN: main
0x00013d98:  e1a01000      mov	r1, r0
0x00013d9c:  e59f01a8      ldr	r0, [pc, #424]	; 0x13f4c
0x00013da0:  e5851018      str	r1, [r5, #24]
0x00013da4:  e08f0000      add	r0, pc, r0
0x00013da8:  ebfffa4e      bl	0x126e8

----------------
IN: main
0x00013dac:  e5952018      ldr	r2, [r5, #24]
0x00013db0:  e3520000      cmp	r2, #0	; 0x0
0x00013db4:  12422001      subne	r2, r2, #1	; 0x1
0x00013db8:  11a03004      movne	r3, r4
0x00013dbc:  0a000057      beq	0x13f20

----------------
IN: main
0x00013dc0:  e4d34001      ldrb	r4, [r3], #1
0x00013dc4:  e5e24001      strb	r4, [r2, #1]!
0x00013dc8:  e3540000      cmp	r4, #0	; 0x0
0x00013dcc:  1afffffb      bne	0x13dc0

----------------
IN: main
0x00013dd0:  e5950018      ldr	r0, [r5, #24]
0x00013dd4:  e59f8174      ldr	r8, [pc, #372]	; 0x13f50
0x00013dd8:  ebffed24      bl	0xf270

----------------
IN: main
0x00013ddc:  e1a01000      mov	r1, r0
0x00013de0:  e59f016c      ldr	r0, [pc, #364]	; 0x13f54
0x00013de4:  e08f8008      add	r8, pc, r8
0x00013de8:  e08f0000      add	r0, pc, r0
0x00013dec:  ebfffa3d      bl	0x126e8

----------------
IN: main
0x00013df0:  e59f0160      ldr	r0, [pc, #352]	; 0x13f58
0x00013df4:  e08f0000      add	r0, pc, r0
0x00013df8:  ebfffa3a      bl	0x126e8

----------------
IN: main
0x00013dfc:  e5953018      ldr	r3, [r5, #24]
0x00013e00:  e1a00008      mov	r0, r8
0x00013e04:  e7d31004      ldrb	r1, [r3, r4]
0x00013e08:  e2844001      add	r4, r4, #1	; 0x1
0x00013e0c:  ebfffa35      bl	0x126e8

----------------
IN: tfp_format
0x00012468:  e3a0e00a      mov	lr, #10	; 0xa
0x0001246c:  ea000002      b	0x1247c

----------------
IN: tfp_format
0x0001247c:  e6ef3071      uxtb	r3, r1
0x00012480:  e2420061      sub	r0, r2, #97	; 0x61
0x00012484:  e3530009      cmp	r3, #9	; 0x9
0x00012488:  e242c041      sub	ip, r2, #65	; 0x41
0x0001248c:  e2423037      sub	r3, r2, #55	; 0x37
0x00012490:  91a03001      movls	r3, r1
0x00012494:  9afffff5      bls	0x12470

----------------
IN: tfp_format
0x00012470:  e4d42001      ldrb	r2, [r4], #1
0x00012474:  e025359e      mla	r5, lr, r5, r3
0x00012478:  e2421030      sub	r1, r2, #48	; 0x30
0x0001247c:  e6ef3071      uxtb	r3, r1
0x00012480:  e2420061      sub	r0, r2, #97	; 0x61
0x00012484:  e3530009      cmp	r3, #9	; 0x9
0x00012488:  e242c041      sub	ip, r2, #65	; 0x41
0x0001248c:  e2423037      sub	r3, r2, #55	; 0x37
0x00012490:  91a03001      movls	r3, r1
0x00012494:  9afffff5      bls	0x12470

----------------
IN: tfp_format
0x00012498:  e3500005      cmp	r0, #5	; 0x5
0x0001249c:  92423057      subls	r3, r2, #87	; 0x57
0x000124a0:  9a000001      bls	0x124ac

----------------
IN: tfp_format
0x000124a4:  e35c0005      cmp	ip, #5	; 0x5
0x000124a8:  8affff88      bhi	0x122d0

----------------
IN: tfp_format
0x00012378:  ea0000af      b	0x1263c

----------------
IN: tfp_format
0x0001263c:  e49a0004      ldr	r0, [sl], #4
0x00012640:  e2422058      sub	r2, r2, #88	; 0x58
0x00012644:  e16f2f12      clz	r2, r2
0x00012648:  e1a0300b      mov	r3, fp
0x0001264c:  e3a01010      mov	r1, #16	; 0x10
0x00012650:  e1a022a2      lsr	r2, r2, #5
0x00012654:  ebfffe9b      bl	0x120c8

----------------
IN: tfp_format
0x00012658:  eaffffa0      b	0x124e0

----------------
IN: putchw
0x000121b4:  e1a03005      mov	r3, r5
0x000121b8:  ea000001      b	0x121c4

----------------
IN: putchw
0x000121c4:  e4d30001      ldrb	r0, [r3], #1
0x000121c8:  e1a04002      mov	r4, r2
0x000121cc:  e2422001      sub	r2, r2, #1	; 0x1
0x000121d0:  e3500000      cmp	r0, #0	; 0x0
0x000121d4:  1afffff8      bne	0x121bc

----------------
IN: putchw
0x000121bc:  e3520000      cmp	r2, #0	; 0x0
0x000121c0:  0a000011      beq	0x1220c

----------------
IN: putchw
0x000121d8:  e3520000      cmp	r2, #0	; 0x0
0x000121dc:  e2444002      sub	r4, r4, #2	; 0x2
0x000121e0:  0a000009      beq	0x1220c

----------------
IN: main
0x00013e10:  e1570004      cmp	r7, r4
0x00013e14:  2afffff8      bcs	0x13dfc

----------------
IN: ui2a
0x00012110:  e151000c      cmp	r1, ip
0x00012114:  e1a04005      mov	r4, r5
0x00012118:  9a000012      bls	0x12168

----------------
IN: ui2a
0x0001211c:  e1a0c003      mov	ip, r3
0x00012120:  e28ee030      add	lr, lr, #48	; 0x30
0x00012124:  e4cce001      strb	lr, [ip], #1
0x00012128:  e3a03000      mov	r3, #0	; 0x0
0x0001212c:  e5cc3000      strb	r3, [ip]
0x00012130:  e8bd8070      pop	{r4, r5, r6, pc}

----------------
IN: putchw
0x000121e4:  e1a01008      mov	r1, r8
0x000121e8:  e1a00006      mov	r0, r6
0x000121ec:  e12fff37      blx	r7

----------------
IN: putchw
0x000121f0:  e3540000      cmp	r4, #0	; 0x0
0x000121f4:  e2444001      sub	r4, r4, #1	; 0x1
0x000121f8:  cafffff9      bgt	0x121e4

----------------
IN: putchw
0x000121fc:  e59d3018      ldr	r3, [sp, #24]
0x00012200:  e5d31000      ldrb	r1, [r3]
0x00012204:  e3510000      cmp	r1, #0	; 0x0
0x00012208:  08bd81f0      popeq	{r4, r5, r6, r7, r8, pc}

----------------
IN: main
0x00013e18:  e59f413c      ldr	r4, [pc, #316]	; 0x13f5c
0x00013e1c:  e59f013c      ldr	r0, [pc, #316]	; 0x13f60
0x00013e20:  e08f4004      add	r4, pc, r4
0x00013e24:  e08f0000      add	r0, pc, r0
0x00013e28:  ebfffa2e      bl	0x126e8

----------------
IN: main
0x00013e2c:  e1a00004      mov	r0, r4
0x00013e30:  ebffed0e      bl	0xf270

----------------
IN: main
0x00013e34:  e1a07000      mov	r7, r0
0x00013e38:  e285101c      add	r1, r5, #28	; 0x1c
0x00013e3c:  e59f0120      ldr	r0, [pc, #288]	; 0x13f64
0x00013e40:  e08f0000      add	r0, pc, r0
0x00013e44:  ebfffa27      bl	0x126e8

----------------
IN: main
0x00013e48:  e2870001      add	r0, r7, #1	; 0x1
0x00013e4c:  ebffeffe      bl	0xfe4c

----------------
IN: main
0x00013e50:  e040c004      sub	ip, r0, r4
0x00013e54:  e1a03004      mov	r3, r4
0x00013e58:  e585001c      str	r0, [r5, #28]
0x00013e5c:  e083100c      add	r1, r3, ip
0x00013e60:  e4d32001      ldrb	r2, [r3], #1
0x00013e64:  e5c12000      strb	r2, [r1]
0x00013e68:  e3520000      cmp	r2, #0	; 0x0
0x00013e6c:  1afffffa      bne	0x13e5c

----------------
IN: main
0x00013e5c:  e083100c      add	r1, r3, ip
0x00013e60:  e4d32001      ldrb	r2, [r3], #1
0x00013e64:  e5c12000      strb	r2, [r1]
0x00013e68:  e3520000      cmp	r2, #0	; 0x0
0x00013e6c:  1afffffa      bne	0x13e5c

----------------
IN: main
0x00013e70:  e59f00f0      ldr	r0, [pc, #240]	; 0x13f68
0x00013e74:  e595101c      ldr	r1, [r5, #28]
0x00013e78:  e08f0000      add	r0, pc, r0
0x00013e7c:  ebfffa19      bl	0x126e8

----------------
IN: tfp_format
0x00012364:  ea000094      b	0x125bc

----------------
IN: tfp_format
0x000125bc:  e49a3004      ldr	r3, [sl], #4
0x000125c0:  e1a02005      mov	r2, r5
0x000125c4:  e1a01007      mov	r1, r7
0x000125c8:  e1a00006      mov	r0, r6
0x000125cc:  e58d3000      str	r3, [sp]
0x000125d0:  e3a03000      mov	r3, #0	; 0x0
0x000125d4:  ebfffeea      bl	0x12184

----------------
IN: tfp_format
0x000125d8:  eaffff2a      b	0x12288

----------------
IN: main
0x00013e80:  e59f00e4      ldr	r0, [pc, #228]	; 0x13f6c
0x00013e84:  e30c2afe      movw	r2, #51966	; 0xcafe
0x00013e88:  e34b2abe      movt	r2, #47806	; 0xbabe
0x00013e8c:  e30b1eef      movw	r1, #48879	; 0xbeef
0x00013e90:  e34d1ead      movt	r1, #57005	; 0xdead
0x00013e94:  e08f0000      add	r0, pc, r0
0x00013e98:  ebfffa12      bl	0x126e8

----------------
IN: tfp_format
0x000122f8:  ea0000cf      b	0x1263c

----------------
IN: main
0x00013e9c:  e59f20cc      ldr	r2, [pc, #204]	; 0x13f70
0x00013ea0:  e1a00005      mov	r0, r5
0x00013ea4:  e59f30c8      ldr	r3, [pc, #200]	; 0x13f74
0x00013ea8:  e7962002      ldr	r2, [r6, r2]
0x00013eac:  e7961003      ldr	r1, [r6, r3]
0x00013eb0:  e5922000      ldr	r2, [r2]
0x00013eb4:  ebffdfa6      bl	0xbd54

----------------
IN: decrypt_memory
0x0000bd54:  e92d43f0      push	{r4, r5, r6, r7, r8, r9, lr}
0x0000bd58:  e1a07000      mov	r7, r0
0x0000bd5c:  e59f0108      ldr	r0, [pc, #264]	; 0xbe6c
0x0000bd60:  e24dd014      sub	sp, sp, #20	; 0x14
0x0000bd64:  e59f8104      ldr	r8, [pc, #260]	; 0xbe70
0x0000bd68:  e1a05002      mov	r5, r2
0x0000bd6c:  e08f0000      add	r0, pc, r0
0x0000bd70:  e1a06001      mov	r6, r1
0x0000bd74:  e08f8008      add	r8, pc, r8
0x0000bd78:  eb001a5a      bl	0x126e8

----------------
IN: decrypt_memory
0x0000bd7c:  e59f00f0      ldr	r0, [pc, #240]	; 0xbe74
0x0000bd80:  e1a01005      mov	r1, r5
0x0000bd84:  e5875020      str	r5, [r7, #32]
0x0000bd88:  e3a04000      mov	r4, #0	; 0x0
0x0000bd8c:  e08f0000      add	r0, pc, r0
0x0000bd90:  eb001a54      bl	0x126e8

----------------
IN: decrypt_memory
0x0000bd94:  e58d400c      str	r4, [sp, #12]
0x0000bd98:  e1a00006      mov	r0, r6
0x0000bd9c:  e1a01005      mov	r1, r5
0x0000bda0:  ebfff2db      bl	0x8914

----------------
IN: iobuf_temp_with_content
0x00008914:  e92d4070      push	{r4, r5, r6, lr}
0x00008918:  e1a04000      mov	r4, r0
0x0000891c:  e3a00001      mov	r0, #1	; 0x1
0x00008920:  e1a06001      mov	r6, r1
0x00008924:  ebffff00      bl	0x852c

----------------
IN: iobuf_alloc
0x0000852c:  e92d4030      push	{r4, r5, lr}
0x00008530:  e1a05000      mov	r5, r0
0x00008534:  e59f0094      ldr	r0, [pc, #148]	; 0x85d0
0x00008538:  e24dd00c      sub	sp, sp, #12	; 0xc
0x0000853c:  e3550003      cmp	r5, #3	; 0x3
0x00008540:  e58d1004      str	r1, [sp, #4]
0x00008544:  83a01000      movhi	r1, #0	; 0x0
0x00008548:  e08f0000      add	r0, pc, r0
0x0000854c:  93a01001      movls	r1, #1	; 0x1
0x00008550:  eb002864      bl	0x126e8

----------------
IN: iobuf_alloc
0x00008554:  e59d3004      ldr	r3, [sp, #4]
0x00008558:  e3530000      cmp	r3, #0	; 0x0
0x0000855c:  0a000015      beq	0x85b8

----------------
IN: iobuf_alloc
0x00008560:  e3a01048      mov	r1, #72	; 0x48
0x00008564:  e3a00001      mov	r0, #1	; 0x1
0x00008568:  eb001ec1      bl	0x10074

----------------
IN: xcalloc
0x00010074:  e3500000      cmp	r0, #0	; 0x0
0x00010078:  e92d4070      push	{r4, r5, r6, lr}
0x0001007c:  0a000003      beq	0x10090

----------------
IN: xcalloc
0x00010080:  e0832190      umull	r2, r3, r0, r1
0x00010084:  e3530000      cmp	r3, #0	; 0x0
0x00010088:  13a05000      movne	r5, #0	; 0x0
0x0001008c:  1a000007      bne	0x100b0

----------------
IN: xcalloc
0x00010090:  e0040091      mul	r4, r1, r0
0x00010094:  e1a00004      mov	r0, r4
0x00010098:  ebffff6b      bl	0xfe4c

----------------
IN: xcalloc
0x0001009c:  e2505000      subs	r5, r0, #0	; 0x0
0x000100a0:  0a000002      beq	0x100b0

----------------
IN: xcalloc
0x000100a4:  e1a02004      mov	r2, r4
0x000100a8:  e3a01000      mov	r1, #0	; 0x0
0x000100ac:  ebffffca      bl	0xffdc

----------------
IN: xcalloc
0x000100b0:  e1a00005      mov	r0, r5
0x000100b4:  e8bd8070      pop	{r4, r5, r6, pc}

----------------
IN: iobuf_alloc
0x0000856c:  e1a04000      mov	r4, r0
0x00008570:  e59d0004      ldr	r0, [sp, #4]
0x00008574:  e5c45000      strb	r5, [r4]
0x00008578:  eb001ea0      bl	0x10000

----------------
IN: xmalloc
0x00010000:  e3500001      cmp	r0, #1	; 0x1
0x00010004:  e92d4070      push	{r4, r5, r6, lr}
0x00010008:  21a04000      movcs	r4, r0
0x0001000c:  33a04001      movcc	r4, #1	; 0x1
0x00010010:  e1a00004      mov	r0, r4
0x00010014:  ebffff8c      bl	0xfe4c

----------------
IN: xmalloc
0x00010018:  e2505000      subs	r5, r0, #0	; 0x0
0x0001001c:  0a000004      beq	0x10034

----------------
IN: xmalloc
0x00010020:  e1a02004      mov	r2, r4
0x00010024:  e3a01000      mov	r1, #0	; 0x0
0x00010028:  ebffffeb      bl	0xffdc

----------------
IN: xmalloc
0x0001002c:  e1a00005      mov	r0, r5
0x00010030:  e8bd8070      pop	{r4, r5, r6, pc}

----------------
IN: iobuf_alloc
0x0000857c:  e59f2050      ldr	r2, [pc, #80]	; 0x85d4
0x00008580:  e3a01000      mov	r1, #0	; 0x0
0x00008584:  e59d3004      ldr	r3, [sp, #4]
0x00008588:  e08f2002      add	r2, pc, r2
0x0000858c:  e5843014      str	r3, [r4, #20]
0x00008590:  e5923000      ldr	r3, [r2]
0x00008594:  e5840020      str	r0, [r4, #32]
0x00008598:  e1a00004      mov	r0, r4
0x0000859c:  e5841044      str	r1, [r4, #68]
0x000085a0:  e2833001      add	r3, r3, #1	; 0x1
0x000085a4:  e5841038      str	r1, [r4, #56]
0x000085a8:  e5823000      str	r3, [r2]
0x000085ac:  e5843040      str	r3, [r4, #64]
0x000085b0:  e28dd00c      add	sp, sp, #12	; 0xc
0x000085b4:  e8bd8030      pop	{r4, r5, pc}

----------------
IN: iobuf_temp_with_content
0x00008928:  e1a05000      mov	r5, r0
0x0000892c:  e59f0044      ldr	r0, [pc, #68]	; 0x8978
0x00008930:  e5951014      ldr	r1, [r5, #20]
0x00008934:  e08f0000      add	r0, pc, r0
0x00008938:  eb00276a      bl	0x126e8

----------------
IN: iobuf_temp_with_content
0x0000893c:  e3560000      cmp	r6, #0	; 0x0
0x00008940:  0a000009      beq	0x896c

----------------
IN: iobuf_temp_with_content
0x00008944:  e0841006      add	r1, r4, r6
0x00008948:  e2443001      sub	r3, r4, #1	; 0x1
0x0000894c:  e2411001      sub	r1, r1, #1	; 0x1
0x00008950:  e2644001      rsb	r4, r4, #1	; 0x1
0x00008954:  e0842003      add	r2, r4, r3
0x00008958:  e5f3e001      ldrb	lr, [r3, #1]!
0x0000895c:  e595c020      ldr	ip, [r5, #32]
0x00008960:  e1530001      cmp	r3, r1
0x00008964:  e7cce002      strb	lr, [ip, r2]
0x00008968:  1afffff9      bne	0x8954

----------------
IN: iobuf_temp_with_content
0x00008954:  e0842003      add	r2, r4, r3
0x00008958:  e5f3e001      ldrb	lr, [r3, #1]!
0x0000895c:  e595c020      ldr	ip, [r5, #32]
0x00008960:  e1530001      cmp	r3, r1
0x00008964:  e7cce002      strb	lr, [ip, r2]
0x00008968:  1afffff9      bne	0x8954

----------------
IN: iobuf_temp_with_content
0x0000896c:  e585601c      str	r6, [r5, #28]
0x00008970:  e1a00005      mov	r0, r5
0x00008974:  e8bd8070      pop	{r4, r5, r6, pc}

----------------
IN: decrypt_memory
0x0000bda4:  e2506000      subs	r6, r0, #0	; 0x0
0x0000bda8:  0a00002d      beq	0xbe64

----------------
IN: decrypt_memory
0x0000bdac:  e59f50c4      ldr	r5, [pc, #196]	; 0xbe78
0x0000bdb0:  e1a01004      mov	r1, r4
0x0000bdb4:  e1a00004      mov	r0, r4
0x0000bdb8:  e08f5005      add	r5, pc, r5
0x0000bdbc:  ebfffb36      bl	0xaa9c

----------------
IN: translate_file_handle
0x0000aa9c:  e12fff1e      bx	lr

----------------
IN: decrypt_memory
0x0000bdc0:  e1a01005      mov	r1, r5
0x0000bdc4:  ebfff41b      bl	0x8e38

----------------
IN: iobuf_fdopen
0x00008e38:  e1a03001      mov	r3, r1
0x00008e3c:  e3a01077      mov	r1, #119	; 0x77
0x00008e40:  e92d43f0      push	{r4, r5, r6, r7, r8, r9, lr}
0x00008e44:  e1a07000      mov	r7, r0
0x00008e48:  e59f60dc      ldr	r6, [pc, #220]	; 0x8f2c
0x00008e4c:  e24dd014      sub	sp, sp, #20	; 0x14
0x00008e50:  e1a00003      mov	r0, r3
0x00008e54:  e3a08000      mov	r8, #0	; 0x0
0x00008e58:  e08f6006      add	r6, pc, r6
0x00008e5c:  eb001cf6      bl	0x1023c

----------------
IN: strchr
0x0001023c:  e6ef1071      uxtb	r1, r1
0x00010240:  e1a03000      mov	r3, r0
0x00010244:  e5d32000      ldrb	r2, [r3]
0x00010248:  e1a00003      mov	r0, r3
0x0001024c:  e2833001      add	r3, r3, #1	; 0x1
0x00010250:  e1520001      cmp	r2, r1
0x00010254:  012fff1e      bxeq	lr

----------------
IN: strchr
0x00010258:  e3520000      cmp	r2, #0	; 0x0
0x0001025c:  1afffff8      bne	0x10244

----------------
IN: strchr
0x00010244:  e5d32000      ldrb	r2, [r3]
0x00010248:  e1a00003      mov	r0, r3
0x0001024c:  e2833001      add	r3, r3, #1	; 0x1
0x00010250:  e1520001      cmp	r2, r1
0x00010254:  012fff1e      bxeq	lr

----------------
IN: strchr
0x00010260:  e1a00002      mov	r0, r2
0x00010264:  e12fff1e      bx	lr

----------------
IN: iobuf_fdopen
0x00008e60:  e3500000      cmp	r0, #0	; 0x0
0x00008e64:  e3a01a02      mov	r1, #8192	; 0x2000
0x00008e68:  13a00002      movne	r0, #2	; 0x2
0x00008e6c:  01a00008      moveq	r0, r8
0x00008e70:  e3a09001      mov	r9, #1	; 0x1
0x00008e74:  ebfffdac      bl	0x852c

----------------
IN: iobuf_fdopen
0x00008e78:  e1a05000      mov	r5, r0
0x00008e7c:  e3a0004c      mov	r0, #76	; 0x4c
0x00008e80:  eb001c5e      bl	0x10000

----------------
IN: iobuf_fdopen
0x00008e84:  e59f10a4      ldr	r1, [pc, #164]	; 0x8f30
0x00008e88:  e1a02007      mov	r2, r7
0x00008e8c:  e5807000      str	r7, [r0]
0x00008e90:  e2807036      add	r7, r0, #54	; 0x36
0x00008e94:  e08f1001      add	r1, pc, r1
0x00008e98:  e1a04000      mov	r4, r0
0x00008e9c:  e5809010      str	r9, [r0, #16]
0x00008ea0:  e5808004      str	r8, [r0, #4]
0x00008ea4:  e1a00007      mov	r0, r7
0x00008ea8:  eb00261e      bl	0x12728

----------------
IN: tfp_sprintf
0x00012728:  e92d000e      push	{r1, r2, r3}
0x0001272c:  e59f103c      ldr	r1, [pc, #60]	; 0x12770
0x00012730:  e52de004      push	{lr}		; (str lr, [sp, #-4]!)
0x00012734:  e24dd010      sub	sp, sp, #16	; 0x10
0x00012738:  e08f1001      add	r1, pc, r1
0x0001273c:  e28d3018      add	r3, sp, #24	; 0x18
0x00012740:  e59d2014      ldr	r2, [sp, #20]
0x00012744:  e58d0004      str	r0, [sp, #4]
0x00012748:  e28d0004      add	r0, sp, #4	; 0x4
0x0001274c:  e58d300c      str	r3, [sp, #12]
0x00012750:  ebfffebc      bl	0x12248

----------------
IN: putcp
0x00012234:  e5903000      ldr	r3, [r0]
0x00012238:  e2832001      add	r2, r3, #1	; 0x1
0x0001223c:  e5802000      str	r2, [r0]
0x00012240:  e5c31000      strb	r1, [r3]
0x00012244:  e12fff1e      bx	lr

----------------
IN: tfp_sprintf
0x00012754:  e59d3004      ldr	r3, [sp, #4]
0x00012758:  e3a02000      mov	r2, #0	; 0x0
0x0001275c:  e5c32000      strb	r2, [r3]
0x00012760:  e28dd010      add	sp, sp, #16	; 0x10
0x00012764:  e49de004      pop	{lr}		; (ldr lr, [sp], #4)
0x00012768:  e28dd00c      add	sp, sp, #12	; 0xc
0x0001276c:  e12fff1e      bx	lr

----------------
IN: iobuf_fdopen
0x00008eac:  e59f3080      ldr	r3, [pc, #128]	; 0x8f34
0x00008eb0:  e1a01009      mov	r1, r9
0x00008eb4:  e1a00004      mov	r0, r4
0x00008eb8:  e1a02008      mov	r2, r8
0x00008ebc:  e7963003      ldr	r3, [r6, r3]
0x00008ec0:  e5854030      str	r4, [r5, #48]
0x00008ec4:  e585302c      str	r3, [r5, #44]
0x00008ec8:  e28d300c      add	r3, sp, #12	; 0xc
0x00008ecc:  e58d3000      str	r3, [sp]
0x00008ed0:  e1a03008      mov	r3, r8
0x00008ed4:  ebfffc7d      bl	0x80d0

----------------
IN: file_filter
0x000080d0:  e92d41f0      push	{r4, r5, r6, r7, r8, lr}
0x000080d4:  e3510003      cmp	r1, #3	; 0x3
0x000080d8:  e59d6018      ldr	r6, [sp, #24]
0x000080dc:  e1a04000      mov	r4, r0
0x000080e0:  e59fc14c      ldr	ip, [pc, #332]	; 0x8234
0x000080e4:  e1a05003      mov	r5, r3
0x000080e8:  e5967000      ldr	r7, [r6]
0x000080ec:  e08fc00c      add	ip, pc, ip
0x000080f0:  0a00000d      beq	0x812c

----------------
IN: file_filter
0x000080f4:  e3510004      cmp	r1, #4	; 0x4
0x000080f8:  0a000007      beq	0x811c

----------------
IN: file_filter
0x000080fc:  e3510001      cmp	r1, #1	; 0x1
0x00008100:  0a000018      beq	0x8168

----------------
IN: file_filter
0x00008168:  e3a03000      mov	r3, #0	; 0x0
0x0000816c:  e580300c      str	r3, [r0, #12]
0x00008170:  e1a00003      mov	r0, r3
0x00008174:  e5843004      str	r3, [r4, #4]
0x00008178:  e5843008      str	r3, [r4, #8]
0x0000817c:  e1c433b4      strh	r3, [r4, #52]
0x00008180:  e8bd81f0      pop	{r4, r5, r6, r7, r8, pc}

----------------
IN: iobuf_fdopen
0x00008ed8:  e59f3058      ldr	r3, [pc, #88]	; 0x8f38
0x00008edc:  e7963003      ldr	r3, [r6, r3]
0x00008ee0:  e5933000      ldr	r3, [r3]
0x00008ee4:  e1530008      cmp	r3, r8
0x00008ee8:  0a000007      beq	0x8f0c

----------------
IN: iobuf_fdopen
0x00008f0c:  e3a03000      mov	r3, #0	; 0x0
0x00008f10:  e3a02001      mov	r2, #1	; 0x1
0x00008f14:  e3a01003      mov	r1, #3	; 0x3
0x00008f18:  e1a00005      mov	r0, r5
0x00008f1c:  ebfffeaa      bl	0x89cc

----------------
IN: iobuf_ioctl
0x000089cc:  e92d4ff0      push	{r4, r5, r6, r7, r8, r9, sl, fp, lr}
0x000089d0:  e1a04000      mov	r4, r0
0x000089d4:  e59f0418      ldr	r0, [pc, #1048]	; 0x8df4
0x000089d8:  e1a05001      mov	r5, r1
0x000089dc:  e59f8414      ldr	r8, [pc, #1044]	; 0x8df8
0x000089e0:  e24dd034      sub	sp, sp, #52	; 0x34
0x000089e4:  e08f0000      add	r0, pc, r0
0x000089e8:  e1a06002      mov	r6, r2
0x000089ec:  e08f8008      add	r8, pc, r8
0x000089f0:  e1a07003      mov	r7, r3
0x000089f4:  eb00273b      bl	0x126e8

----------------
IN: iobuf_ioctl
0x000089f8:  e3550001      cmp	r5, #1	; 0x1
0x000089fc:  0a000057      beq	0x8b60

----------------
IN: iobuf_ioctl
0x00008a00:  e3550002      cmp	r5, #2	; 0x2
0x00008a04:  0a000039      beq	0x8af0

----------------
IN: iobuf_ioctl
0x00008a08:  e3550003      cmp	r5, #3	; 0x3
0x00008a0c:  0a000097      beq	0x8c70

----------------
IN: iobuf_ioctl
0x00008c70:  e59f3184      ldr	r3, [pc, #388]	; 0x8dfc
0x00008c74:  e7983003      ldr	r3, [r8, r3]
0x00008c78:  e5933000      ldr	r3, [r3]
0x00008c7c:  e3530000      cmp	r3, #0	; 0x0
0x00008c80:  0a00001c      beq	0x8cf8

----------------
IN: iobuf_ioctl
0x00008cf8:  e3540000      cmp	r4, #0	; 0x0
0x00008cfc:  1afffff9      bne	0x8ce8

----------------
IN: iobuf_ioctl
0x00008ce8:  e594303c      ldr	r3, [r4, #60]
0x00008cec:  e3530000      cmp	r3, #0	; 0x0
0x00008cf0:  0a000003      beq	0x8d04

----------------
IN: iobuf_ioctl
0x00008d04:  e59f20f8      ldr	r2, [pc, #248]	; 0x8e04
0x00008d08:  e594102c      ldr	r1, [r4, #44]
0x00008d0c:  e7982002      ldr	r2, [r8, r2]
0x00008d10:  e1510002      cmp	r1, r2
0x00008d14:  01a00003      moveq	r0, r3
0x00008d18:  05942030      ldreq	r2, [r4, #48]
0x00008d1c:  05826008      streq	r6, [r2, #8]
0x00008d20:  0affff83      beq	0x8b34

----------------
IN: iobuf_ioctl
0x00008b34:  e28dd034      add	sp, sp, #52	; 0x34
0x00008b38:  e8bd8ff0      pop	{r4, r5, r6, r7, r8, r9, sl, fp, pc}

----------------
IN: iobuf_fdopen
0x00008f20:  e1a00005      mov	r0, r5
0x00008f24:  e28dd014      add	sp, sp, #20	; 0x14
0x00008f28:  e8bd83f0      pop	{r4, r5, r6, r7, r8, r9, pc}

----------------
IN: decrypt_memory
0x0000bdc8:  e1a01005      mov	r1, r5
0x0000bdcc:  e1a00004      mov	r0, r4
0x0000bdd0:  ebfff192      bl	0x8420

----------------
IN: fd_cache_open
0x00008420:  e92d4070      push	{r4, r5, r6, lr}
0x00008424:  e1a06000      mov	r6, r0
0x00008428:  e59f40b4      ldr	r4, [pc, #180]	; 0x84e4
0x0000842c:  e1a05001      mov	r5, r1
0x00008430:  eb0028ac      bl	0x126e8

----------------
IN: fd_cache_open
0x00008434:  e08f4004      add	r4, pc, r4
0x00008438:  e59f20a8      ldr	r2, [pc, #168]	; 0x84e8
0x0000843c:  e1a03004      mov	r3, r4
0x00008440:  e7943002      ldr	r3, [r4, r2]
0x00008444:  e5933000      ldr	r3, [r3]
0x00008448:  e3530000      cmp	r3, #0	; 0x0
0x0000844c:  1a00001f      bne	0x84d0

----------------
IN: fd_cache_open
0x00008450:  e3a0102b      mov	r1, #43	; 0x2b
0x00008454:  e1a00005      mov	r0, r5
0x00008458:  eb001f77      bl	0x1023c

----------------
IN: fd_cache_open
0x0000845c:  e3500000      cmp	r0, #0	; 0x0
0x00008460:  0a00000e      beq	0x84a0

----------------
IN: fd_cache_open
0x000084a0:  e3a01077      mov	r1, #119	; 0x77
0x000084a4:  e1a00005      mov	r0, r5
0x000084a8:  eb001f63      bl	0x1023c

----------------
IN: fd_cache_open
0x000084ac:  e2504000      subs	r4, r0, #0	; 0x0
0x000084b0:  0afffff0      beq	0x8478

----------------
IN: fd_cache_open
0x00008478:  e3a01062      mov	r1, #98	; 0x62
0x0000847c:  e1a00005      mov	r0, r5
0x00008480:  eb001f6d      bl	0x1023c

----------------
IN: fd_cache_open
0x00008484:  e3500000      cmp	r0, #0	; 0x0
0x00008488:  e30021b6      movw	r2, #438	; 0x1b6
0x0000848c:  13844801      orrne	r4, r4, #65536	; 0x10000
0x00008490:  e1a00006      mov	r0, r6
0x00008494:  e1a01004      mov	r1, r4
0x00008498:  e8bd4070      pop	{r4, r5, r6, lr}
0x0000849c:  ea001f82      b	0x102ac

----------------
IN: open
0x000102ac:  e92d000e      push	{r1, r2, r3}
0x000102b0:  e59f1040      ldr	r1, [pc, #64]	; 0x102f8
0x000102b4:  e92d4030      push	{r4, r5, lr}
0x000102b8:  e1a04000      mov	r4, r0
0x000102bc:  e08f1001      add	r1, pc, r1
0x000102c0:  ebffffe8      bl	0x10268

----------------
IN: strcmp
0x00010268:  e5d03000      ldrb	r3, [r0]
0x0001026c:  e3530000      cmp	r3, #0	; 0x0
0x00010270:  05d12000      ldrbeq	r2, [r1]
0x00010274:  1a000003      bne	0x10288

----------------
IN: strcmp
0x00010288:  e1a0c001      mov	ip, r1
0x0001028c:  e4d12001      ldrb	r2, [r1], #1
0x00010290:  e1520003      cmp	r2, r3
0x00010294:  0afffff8      beq	0x1027c

----------------
IN: strcmp
0x00010298:  e0430002      sub	r0, r3, r2
0x0001029c:  e12fff1e      bx	lr

----------------
IN: open
0x000102c4:  e3500000      cmp	r0, #0	; 0x0
0x000102c8:  03a00001      moveq	r0, #1	; 0x1
0x000102cc:  0a000006      beq	0x102ec

----------------
IN: open
0x000102d0:  e59f1024      ldr	r1, [pc, #36]	; 0x102fc
0x000102d4:  e1a00004      mov	r0, r4
0x000102d8:  e08f1001      add	r1, pc, r1
0x000102dc:  ebffffe1      bl	0x10268

----------------
IN: open
0x000102e0:  e2500000      subs	r0, r0, #0	; 0x0
0x000102e4:  13a00001      movne	r0, #1	; 0x1
0x000102e8:  e2600000      rsb	r0, r0, #0	; 0x0
0x000102ec:  e8bd4030      pop	{r4, r5, lr}
0x000102f0:  e28dd00c      add	sp, sp, #12	; 0xc
0x000102f4:  e12fff1e      bx	lr

----------------
IN: decrypt_memory
0x0000bdd4:  e1a09000      mov	r9, r0
0x0000bdd8:  e1a00004      mov	r0, r4
0x0000bddc:  eb000d23      bl	0xf270

----------------
IN: decrypt_memory
0x0000bde0:  e2800038      add	r0, r0, #56	; 0x38
0x0000bde4:  eb001085      bl	0x10000

----------------
IN: decrypt_memory
0x0000bde8:  e5809000      str	r9, [r0]
0x0000bdec:  e1a05000      mov	r5, r0
0x0000bdf0:  e5804010      str	r4, [r0, #16]
0x0000bdf4:  e1a01004      mov	r1, r4
0x0000bdf8:  e2800036      add	r0, r0, #54	; 0x36
0x0000bdfc:  eb0010f4      bl	0x101d4

----------------
IN: strcpy
0x000101d4:  e2400001      sub	r0, r0, #1	; 0x1
0x000101d8:  e4d13001      ldrb	r3, [r1], #1
0x000101dc:  e5e03001      strb	r3, [r0, #1]!
0x000101e0:  e3530000      cmp	r3, #0	; 0x0
0x000101e4:  1afffffb      bne	0x101d8

----------------
IN: strcpy
0x000101d8:  e4d13001      ldrb	r3, [r1], #1
0x000101dc:  e5e03001      strb	r3, [r0, #1]!
0x000101e0:  e3530000      cmp	r3, #0	; 0x0
0x000101e4:  1afffffb      bne	0x101d8

----------------
IN: strcpy
0x000101e8:  e12fff1e      bx	lr

----------------
IN: decrypt_memory
0x0000be00:  e1a00004      mov	r0, r4
0x0000be04:  eb00114a      bl	0x10334

----------------
IN: xstrdup
0x00010334:  e92d4010      push	{r4, lr}
0x00010338:  ebfffff0      bl	0x10300

----------------
IN: strdup
0x00010300:  e92d4070      push	{r4, r5, r6, lr}
0x00010304:  e1a06000      mov	r6, r0
0x00010308:  ebfffbd8      bl	0xf270

----------------
IN: strdup
0x0001030c:  e2805001      add	r5, r0, #1	; 0x1
0x00010310:  e1a00005      mov	r0, r5
0x00010314:  ebfffecc      bl	0xfe4c

----------------
IN: strdup
0x00010318:  e2504000      subs	r4, r0, #0	; 0x0
0x0001031c:  0a000002      beq	0x1032c

----------------
IN: strdup
0x00010320:  e1a02005      mov	r2, r5
0x00010324:  e1a01006      mov	r1, r6
0x00010328:  ebffff62      bl	0x100b8

----------------
IN: memcpy
0x000100b8:  e3520000      cmp	r2, #0	; 0x0
0x000100bc:  012fff1e      bxeq	lr

----------------
IN: memcpy
0x000100c0:  e081c002      add	ip, r1, r2
0x000100c4:  e2403001      sub	r3, r0, #1	; 0x1
0x000100c8:  e4d12001      ldrb	r2, [r1], #1
0x000100cc:  e151000c      cmp	r1, ip
0x000100d0:  e5e32001      strb	r2, [r3, #1]!
0x000100d4:  1afffffb      bne	0x100c8

----------------
IN: memcpy
0x000100c8:  e4d12001      ldrb	r2, [r1], #1
0x000100cc:  e151000c      cmp	r1, ip
0x000100d0:  e5e32001      strb	r2, [r3, #1]!
0x000100d4:  1afffffb      bne	0x100c8

----------------
IN: memcpy
0x000100d8:  e12fff1e      bx	lr

----------------
IN: strdup
0x0001032c:  e1a00004      mov	r0, r4
0x00010330:  e8bd8070      pop	{r4, r5, r6, pc}

----------------
IN: xstrdup
0x0001033c:  e3500000      cmp	r0, #0	; 0x0
0x00010340:  18bd8010      popne	{r4, pc}

----------------
IN: decrypt_memory
0x0000be08:  e59f306c      ldr	r3, [pc, #108]	; 0xbe7c
0x0000be0c:  e5860038      str	r0, [r6, #56]
0x0000be10:  e59f0068      ldr	r0, [pc, #104]	; 0xbe80
0x0000be14:  e7983003      ldr	r3, [r8, r3]
0x0000be18:  e3a08001      mov	r8, #1	; 0x1
0x0000be1c:  e08f0000      add	r0, pc, r0
0x0000be20:  e586302c      str	r3, [r6, #44]
0x0000be24:  e5858008      str	r8, [r5, #8]
0x0000be28:  e5865030      str	r5, [r6, #48]
0x0000be2c:  eb001a2d      bl	0x126e8

----------------
IN: decrypt_memory
0x0000be30:  e28d300c      add	r3, sp, #12	; 0xc
0x0000be34:  e1a01008      mov	r1, r8
0x0000be38:  e58d3000      str	r3, [sp]
0x0000be3c:  e1a02004      mov	r2, r4
0x0000be40:  e1a00005      mov	r0, r5
0x0000be44:  e1a03004      mov	r3, r4
0x0000be48:  ebfff0a0      bl	0x80d0

----------------
IN: decrypt_memory
0x0000be4c:  e1a02006      mov	r2, r6
0x0000be50:  e1a01004      mov	r1, r4
0x0000be54:  e1a00007      mov	r0, r7
0x0000be58:  eb000fe1      bl	0xfde4

----------------
IN: proc_encryption_packets
0x0000fde4:  e92d41f0      push	{r4, r5, r6, r7, r8, lr}
0x0000fde8:  e1a06000      mov	r6, r0
0x0000fdec:  e59f0054      ldr	r0, [pc, #84]	; 0xfe48
0x0000fdf0:  e1a05002      mov	r5, r2
0x0000fdf4:  e592202c      ldr	r2, [r2, #44]
0x0000fdf8:  e1a07001      mov	r7, r1
0x0000fdfc:  e08f0000      add	r0, pc, r0
0x0000fe00:  e5d51000      ldrb	r1, [r5]
0x0000fe04:  eb000a37      bl	0x126e8

----------------
IN: proc_encryption_packets
0x0000fe08:  e3a00060      mov	r0, #96	; 0x60
0x0000fe0c:  eb00008e      bl	0x1004c

----------------
IN: xmalloc_clear
0x0001004c:  e92d4070      push	{r4, r5, r6, lr}
0x00010050:  e1a05000      mov	r5, r0
0x00010054:  ebffff7c      bl	0xfe4c

----------------
IN: xmalloc_clear
0x00010058:  e2504000      subs	r4, r0, #0	; 0x0
0x0001005c:  0a000002      beq	0x1006c

----------------
IN: xmalloc_clear
0x00010060:  e1a02005      mov	r2, r5
0x00010064:  e3a01000      mov	r1, #0	; 0x0
0x00010068:  ebffffdb      bl	0xffdc

----------------
IN: xmalloc_clear
0x0001006c:  e1a00004      mov	r0, r4
0x00010070:  e8bd8070      pop	{r4, r5, r6, pc}

----------------
IN: proc_encryption_packets
0x0000fe10:  e5806000      str	r6, [r0]
0x0000fe14:  e1a04000      mov	r4, r0
0x0000fe18:  e5807004      str	r7, [r0, #4]
0x0000fe1c:  e3a03001      mov	r3, #1	; 0x1
0x0000fe20:  e5843014      str	r3, [r4, #20]
0x0000fe24:  e1a02005      mov	r2, r5
0x0000fe28:  e1a01004      mov	r1, r4
0x0000fe2c:  e1a00006      mov	r0, r6
0x0000fe30:  ebfffe46      bl	0xf750

----------------
IN: do_proc_packets
0x0000f750:  e92d4ff0      push	{r4, r5, r6, r7, r8, r9, sl, fp, lr}
0x0000f754:  e1a05000      mov	r5, r0
0x0000f758:  e5900018      ldr	r0, [r0, #24]
0x0000f75c:  e24dd044      sub	sp, sp, #68	; 0x44
0x0000f760:  e1a04001      mov	r4, r1
0x0000f764:  e1a08002      mov	r8, r2
0x0000f768:  e3500000      cmp	r0, #0	; 0x0
0x0000f76c:  0a000009      beq	0xf798

----------------
IN: do_proc_packets
0x0000f770:  ebfffebe      bl	0xf270

----------------
IN: do_proc_packets
0x0000f774:  e2800001      add	r0, r0, #1	; 0x1
0x0000f778:  eb0001b3      bl	0xfe4c

----------------
IN: do_proc_packets
0x0000f77c:  e5951018      ldr	r1, [r5, #24]
0x0000f780:  e2402001      sub	r2, r0, #1	; 0x1
0x0000f784:  e5840030      str	r0, [r4, #48]
0x0000f788:  e4d13001      ldrb	r3, [r1], #1
0x0000f78c:  e5e23001      strb	r3, [r2, #1]!
0x0000f790:  e3530000      cmp	r3, #0	; 0x0
0x0000f794:  1afffffb      bne	0xf788

----------------
IN: do_proc_packets
0x0000f788:  e4d13001      ldrb	r3, [r1], #1
0x0000f78c:  e5e23001      strb	r3, [r2, #1]!
0x0000f790:  e3530000      cmp	r3, #0	; 0x0
0x0000f794:  1afffffb      bne	0xf788

----------------
IN: do_proc_packets
0x0000f798:  e595001c      ldr	r0, [r5, #28]
0x0000f79c:  e3500000      cmp	r0, #0	; 0x0
0x0000f7a0:  0a000009      beq	0xf7cc

----------------
IN: do_proc_packets
0x0000f7a4:  ebfffeb1      bl	0xf270

----------------
IN: do_proc_packets
0x0000f7a8:  e2800001      add	r0, r0, #1	; 0x1
0x0000f7ac:  eb0001a6      bl	0xfe4c

----------------
IN: do_proc_packets
0x0000f7b0:  e595101c      ldr	r1, [r5, #28]
0x0000f7b4:  e2402001      sub	r2, r0, #1	; 0x1
0x0000f7b8:  e5840034      str	r0, [r4, #52]
0x0000f7bc:  e4d13001      ldrb	r3, [r1], #1
0x0000f7c0:  e5e23001      strb	r3, [r2, #1]!
0x0000f7c4:  e3530000      cmp	r3, #0	; 0x0
0x0000f7c8:  1afffffb      bne	0xf7bc

----------------
IN: do_proc_packets
0x0000f7bc:  e4d13001      ldrb	r3, [r1], #1
0x0000f7c0:  e5e23001      strb	r3, [r2, #1]!
0x0000f7c4:  e3530000      cmp	r3, #0	; 0x0
0x0000f7c8:  1afffffb      bne	0xf7bc

----------------
IN: do_proc_packets
0x0000f7cc:  e5951020      ldr	r1, [r5, #32]
0x0000f7d0:  e1a06004      mov	r6, r4
0x0000f7d4:  e59f0544      ldr	r0, [pc, #1348]	; 0xfd20
0x0000f7d8:  e584101c      str	r1, [r4, #28]
0x0000f7dc:  e08f0000      add	r0, pc, r0
0x0000f7e0:  eb000bc0      bl	0x126e8

----------------
IN: do_proc_packets
0x0000f7e4:  e3a03000      mov	r3, #0	; 0x0
0x0000f7e8:  e5966004      ldr	r6, [r6, #4]
0x0000f7ec:  e2833001      add	r3, r3, #1	; 0x1
0x0000f7f0:  e3560000      cmp	r6, #0	; 0x0
0x0000f7f4:  1afffffb      bne	0xf7e8

----------------
IN: do_proc_packets
0x0000f7f8:  e3530020      cmp	r3, #32	; 0x20
0x0000f7fc:  ca0000ca      bgt	0xfb2c

----------------
IN: do_proc_packets
0x0000f800:  e59f751c      ldr	r7, [pc, #1308]	; 0xfd24
0x0000f804:  e3a00008      mov	r0, #8	; 0x8
0x0000f808:  e59fb518      ldr	fp, [pc, #1304]	; 0xfd28
0x0000f80c:  eb0001fb      bl	0x10000

----------------
IN: do_proc_packets
0x0000f810:  e59f9514      ldr	r9, [pc, #1300]	; 0xfd2c
0x0000f814:  e1a05000      mov	r5, r0
0x0000f818:  e59f3510      ldr	r3, [pc, #1296]	; 0xfd30
0x0000f81c:  e5848040      str	r8, [r4, #64]
0x0000f820:  e08f7007      add	r7, pc, r7
0x0000f824:  e5c06000      strb	r6, [r0]
0x0000f828:  e5806004      str	r6, [r0, #4]
0x0000f82c:  e58d8028      str	r8, [sp, #40]
0x0000f830:  e1a08006      mov	r8, r6
0x0000f834:  e5cd602c      strb	r6, [sp, #44]
0x0000f838:  e58d6030      str	r6, [sp, #48]
0x0000f83c:  e58d6034      str	r6, [sp, #52]
0x0000f840:  e58d6038      str	r6, [sp, #56]
0x0000f844:  e58d603c      str	r6, [sp, #60]
0x0000f848:  e28d6028      add	r6, sp, #40	; 0x28
0x0000f84c:  e08fb00b      add	fp, pc, fp
0x0000f850:  e08f9009      add	r9, pc, r9
0x0000f854:  e08f3003      add	r3, pc, r3
0x0000f858:  e58d3018      str	r3, [sp, #24]
0x0000f85c:  e3003762      movw	r3, #1890	; 0x762
0x0000f860:  e1a02007      mov	r2, r7
0x0000f864:  e1a01005      mov	r1, r5
0x0000f868:  e1a00006      mov	r0, r6
0x0000f86c:  eb000934      bl	0x11d44

----------------
IN: dbg_parse_packet
0x00011d44:  e92d40f0      push	{r4, r5, r6, r7, lr}
0x00011d48:  e1a06000      mov	r6, r0
0x00011d4c:  e59f0058      ldr	r0, [pc, #88]	; 0x11dac
0x00011d50:  e24dd01c      sub	sp, sp, #28	; 0x1c
0x00011d54:  e28d7014      add	r7, sp, #20	; 0x14
0x00011d58:  e3a04000      mov	r4, #0	; 0x0
0x00011d5c:  e08f0000      add	r0, pc, r0
0x00011d60:  e1a05001      mov	r5, r1
0x00011d64:  eb00025f      bl	0x126e8

----------------
IN: dbg_parse_packet
0x00011d68:  e58d4008      str	r4, [sp, #8]
0x00011d6c:  e3a03000      mov	r3, #0	; 0x0
0x00011d70:  e58d4004      str	r4, [sp, #4]
0x00011d74:  e1a02003      mov	r2, r3
0x00011d78:  e58d7000      str	r7, [sp]
0x00011d7c:  e1a01005      mov	r1, r5
0x00011d80:  e1a00006      mov	r0, r6
0x00011d84:  ebfff986      bl	0x103a4

----------------
IN: parse.constprop.0
0x000103a4:  e92d4ff0      push	{r4, r5, r6, r7, r8, r9, sl, fp, lr}
0x000103a8:  e1a08000      mov	r8, r0
0x000103ac:  e59f0f14      ldr	r0, [pc, #3860]	; 0x112c8
0x000103b0:  e24dd09c      sub	sp, sp, #156	; 0x9c
0x000103b4:  e1a05003      mov	r5, r3
0x000103b8:  e08f0000      add	r0, pc, r0
0x000103bc:  e58d2010      str	r2, [sp, #16]
0x000103c0:  e58d100c      str	r1, [sp, #12]
0x000103c4:  eb0008c7      bl	0x126e8

----------------
IN: parse.constprop.0
0x000103c8:  e59d20c0      ldr	r2, [sp, #192]
0x000103cc:  e3550000      cmp	r5, #0	; 0x0
0x000103d0:  e5984000      ldr	r4, [r8]
0x000103d4:  e3a03000      mov	r3, #0	; 0x0
0x000103d8:  e5823000      str	r3, [r2]
0x000103dc:  0a000007      beq	0x10400

----------------
IN: parse.constprop.0
0x00010400:  e5943010      ldr	r3, [r4, #16]
0x00010404:  e3530000      cmp	r3, #0	; 0x0
0x00010408:  1a00006a      bne	0x105b8

----------------
IN: parse.constprop.0
0x0001040c:  e5943018      ldr	r3, [r4, #24]
0x00010410:  e594201c      ldr	r2, [r4, #28]
0x00010414:  e1530002      cmp	r3, r2
0x00010418:  2a000066      bcs	0x105b8

----------------
IN: parse.constprop.0
0x0001041c:  e5942008      ldr	r2, [r4, #8]
0x00010420:  e5941020      ldr	r1, [r4, #32]
0x00010424:  e2822001      add	r2, r2, #1	; 0x1
0x00010428:  e5842008      str	r2, [r4, #8]
0x0001042c:  e2832001      add	r2, r3, #1	; 0x1
0x00010430:  e5842018      str	r2, [r4, #24]
0x00010434:  e7d13003      ldrb	r3, [r1, r3]
0x00010438:  e1a09003      mov	r9, r3
0x0001043c:  e5cd302c      strb	r3, [sp, #44]
0x00010440:  e1a00004      mov	r0, r4
0x00010444:  e7e03359      ubfx	r3, r9, #6, #1
0x00010448:  e58d3018      str	r3, [sp, #24]
0x0001044c:  e1a05003      mov	r5, r3
0x00010450:  ebffe865      bl	0xa5ec

----------------
IN: iobuf_tell
0x0000a5ec:  e590200c      ldr	r2, [r0, #12]
0x0000a5f0:  e5900008      ldr	r0, [r0, #8]
0x0000a5f4:  e0820000      add	r0, r2, r0
0x0000a5f8:  e12fff1e      bx	lr

----------------
IN: parse.constprop.0
0x00010454:  e1a01000      mov	r1, r0
0x00010458:  e59f0e70      ldr	r0, [pc, #3696]	; 0x112d0
0x0001045c:  e08f0000      add	r0, pc, r0
0x00010460:  eb0008a0      bl	0x126e8

----------------
IN: tfp_format
0x000123b8:  e4d42001      ldrb	r2, [r4], #1
0x000123bc:  e352007a      cmp	r2, #122	; 0x7a
0x000123c0:  8affffb0      bhi	0x12288

----------------
IN: tfp_format
0x000123c4:  e3520057      cmp	r2, #87	; 0x57
0x000123c8:  9affffed      bls	0x12384

----------------
IN: tfp_format
0x000123cc:  e2423058      sub	r3, r2, #88	; 0x58
0x000123d0:  e3530022      cmp	r3, #34	; 0x22
0x000123d4:  908ff103      addls	pc, pc, r3, lsl #2

----------------
IN: tfp_format
0x00012450:  ea000089      b	0x1267c

----------------
IN: tfp_format
0x0001267c:  e49a0004      ldr	r0, [sl], #4
0x00012680:  e1a0300b      mov	r3, fp
0x00012684:  e3a02000      mov	r2, #0	; 0x0
0x00012688:  e3a0100a      mov	r1, #10	; 0xa
0x0001268c:  ebfffe8d      bl	0x120c8

----------------
IN: tfp_format
0x00012690:  eaffff92      b	0x124e0

----------------
IN: parse.constprop.0
0x00010464:  e59f0e68      ldr	r0, [pc, #3688]	; 0x112d4
0x00010468:  e1a02005      mov	r2, r5
0x0001046c:  e1a01009      mov	r1, r9
0x00010470:  e08f0000      add	r0, pc, r0
0x00010474:  eb00089b      bl	0x126e8

----------------
IN: parse.constprop.0
0x00010478:  e3190080      tst	r9, #128	; 0x80
0x0001047c:  e2093040      and	r3, r9, #64	; 0x40
0x00010480:  e58d3014      str	r3, [sp, #20]
0x00010484:  0a00013c      beq	0x1097c

----------------
IN: parse.constprop.0
0x00010488:  e2093040      and	r3, r9, #64	; 0x40
0x0001048c:  e3530000      cmp	r3, #0	; 0x0
0x00010490:  0a000052      beq	0x105e0

----------------
IN: parse.constprop.0
0x000105e0:  e1a00149      asr	r0, r9, #2
0x000105e4:  e209a003      and	sl, r9, #3	; 0x3
0x000105e8:  e35a0003      cmp	sl, #3	; 0x3
0x000105ec:  e200900f      and	r9, r0, #15	; 0xf
0x000105f0:  0a000026      beq	0x10690

----------------
IN: parse.constprop.0
0x000105f4:  e59d5014      ldr	r5, [sp, #20]
0x000105f8:  e3a06001      mov	r6, #1	; 0x1
0x000105fc:  e1a07a16      lsl	r7, r6, sl
0x00010600:  e28da02c      add	sl, sp, #44	; 0x2c
0x00010604:  ea00000c      b	0x1063c

----------------
IN: parse.constprop.0
0x0001063c:  e5943010      ldr	r3, [r4, #16]
0x00010640:  e1a00004      mov	r0, r4
0x00010644:  e1a05405      lsl	r5, r5, #8
0x00010648:  e3530000      cmp	r3, #0	; 0x0
0x0001064c:  1a000004      bne	0x10664

----------------
IN: parse.constprop.0
0x00010650:  e5943018      ldr	r3, [r4, #24]
0x00010654:  e594201c      ldr	r2, [r4, #28]
0x00010658:  e1530002      cmp	r3, r2
0x0001065c:  e2832001      add	r2, r3, #1	; 0x1
0x00010660:  3affffe8      bcc	0x10608

----------------
IN: parse.constprop.0
0x00010608:  e5842018      str	r2, [r4, #24]
0x0001060c:  e5942008      ldr	r2, [r4, #8]
0x00010610:  e5941020      ldr	r1, [r4, #32]
0x00010614:  e2822001      add	r2, r2, #1	; 0x1
0x00010618:  e5842008      str	r2, [r4, #8]
0x0001061c:  e7d12003      ldrb	r2, [r1, r3]
0x00010620:  e1a00002      mov	r0, r2
0x00010624:  e1570006      cmp	r7, r6
0x00010628:  e286b001      add	fp, r6, #1	; 0x1
0x0001062c:  e7ca2006      strb	r2, [sl, r6]
0x00010630:  e1a0600b      mov	r6, fp
0x00010634:  e1825005      orr	r5, r2, r5
0x00010638:  0a000054      beq	0x10790

----------------
IN: parse.constprop.0
0x00010790:  e58d2020      str	r2, [sp, #32]
0x00010794:  e1a07000      mov	r7, r0
0x00010798:  e59f0b8c      ldr	r0, [pc, #2956]	; 0x1132c
0x0001079c:  e58da01c      str	sl, [sp, #28]
0x000107a0:  e08f0000      add	r0, pc, r0
0x000107a4:  eb0007cf      bl	0x126e8

----------------
IN: parse.constprop.0
0x000107a8:  e59f0b80      ldr	r0, [pc, #2944]	; 0x11330
0x000107ac:  e1a01007      mov	r1, r7
0x000107b0:  e08f0000      add	r0, pc, r0
0x000107b4:  eb0007cb      bl	0x126e8

----------------
IN: parse.constprop.0
0x000107b8:  e59f0b74      ldr	r0, [pc, #2932]	; 0x11334
0x000107bc:  e1a01005      mov	r1, r5
0x000107c0:  e08f0000      add	r0, pc, r0
0x000107c4:  eb0007c7      bl	0x126e8

----------------
IN: parse.constprop.0
0x000107c8:  e59f0b68      ldr	r0, [pc, #2920]	; 0x11338
0x000107cc:  e1a01005      mov	r1, r5
0x000107d0:  e08f0000      add	r0, pc, r0
0x000107d4:  eb0007c3      bl	0x126e8

----------------
IN: parse.constprop.0
0x000107d8:  e59f0b5c      ldr	r0, [pc, #2908]	; 0x1133c
0x000107dc:  e1a01005      mov	r1, r5
0x000107e0:  e08f0000      add	r0, pc, r0
0x000107e4:  eb0007bf      bl	0x126e8

----------------
IN: parse.constprop.0
0x000107e8:  e59d2020      ldr	r2, [sp, #32]
0x000107ec:  e59f0b4c      ldr	r0, [pc, #2892]	; 0x11340
0x000107f0:  e1a01002      mov	r1, r2
0x000107f4:  e08f0000      add	r0, pc, r0
0x000107f8:  eb0007ba      bl	0x126e8

----------------
IN: parse.constprop.0
0x000107fc:  e59f0b40      ldr	r0, [pc, #2880]	; 0x11344

----------------
IN: parse.constprop.0
0x00010800:  e3a01000      mov	r1, #0	; 0x0
0x00010804:  e08f0000      add	r0, pc, r0
0x00010808:  eb0007b6      bl	0x126e8

----------------
IN: parse.constprop.0
0x0001080c:  e59f0b34      ldr	r0, [pc, #2868]	; 0x11348
0x00010810:  e1a01005      mov	r1, r5
0x00010814:  e08f0000      add	r0, pc, r0
0x00010818:  eb0007b2      bl	0x126e8

----------------
IN: parse.constprop.0
0x0001081c:  e59d30c4      ldr	r3, [sp, #196]
0x00010820:  e3590000      cmp	r9, #0	; 0x0
0x00010824:  13530000      cmpne	r3, #0	; 0x0
0x00010828:  e59d301c      ldr	r3, [sp, #28]
0x0001082c:  13a0a001      movne	sl, #1	; 0x1
0x00010830:  03a0a000      moveq	sl, #0	; 0x0
0x00010834:  1affff55      bne	0x10590

----------------
IN: parse.constprop.0
0x00010838:  e59d2010      ldr	r2, [sp, #16]
0x0001083c:  e249600d      sub	r6, r9, #13	; 0xd
0x00010840:  e16f6f16      clz	r6, r6
0x00010844:  e1a062a6      lsr	r6, r6, #5
0x00010848:  e3520002      cmp	r2, #2	; 0x2
0x0001084c:  13a03000      movne	r3, #0	; 0x0
0x00010850:  02063001      andeq	r3, r6, #1	; 0x1
0x00010854:  e3530000      cmp	r3, #0	; 0x0
0x00010858:  1a00007c      bne	0x10a50

----------------
IN: parse.constprop.0
0x0001085c:  e59d30c8      ldr	r3, [sp, #200]
0x00010860:  e2037001      and	r7, r3, #1	; 0x1
0x00010864:  e3590000      cmp	r9, #0	; 0x0
0x00010868:  03877001      orreq	r7, r7, #1	; 0x1
0x0001086c:  e3570000      cmp	r7, #0	; 0x0
0x00010870:  1a000005      bne	0x1088c

----------------
IN: parse.constprop.0
0x00010874:  e3520000      cmp	r2, #0	; 0x0
0x00010878:  1359000e      cmpne	r9, #14	; 0xe
0x0001087c:  0a00000f      beq	0x108c0

----------------
IN: parse.constprop.0
0x000108c0:  e5983014      ldr	r3, [r8, #20]
0x000108c4:  e1a02005      mov	r2, r5
0x000108c8:  e59f0a7c      ldr	r0, [pc, #2684]	; 0x1134c
0x000108cc:  e1a01009      mov	r1, r9
0x000108d0:  e2833001      add	r3, r3, #1	; 0x1
0x000108d4:  e5883014      str	r3, [r8, #20]
0x000108d8:  e59d300c      ldr	r3, [sp, #12]
0x000108dc:  e08f0000      add	r0, pc, r0
0x000108e0:  e5c39000      strb	r9, [r3]
0x000108e4:  e1a0300a      mov	r3, sl
0x000108e8:  eb00077e      bl	0x126e8

----------------
IN: parse.constprop.0
0x000108ec:  e59f0a5c      ldr	r0, [pc, #2652]	; 0x11350
0x000108f0:  e1a01009      mov	r1, r9
0x000108f4:  e08f0000      add	r0, pc, r0
0x000108f8:  eb00077a      bl	0x126e8

----------------
IN: parse.constprop.0
0x000108fc:  e59f0a50      ldr	r0, [pc, #2640]	; 0x11354
0x00010900:  e3a01002      mov	r1, #2	; 0x2
0x00010904:  e08f0000      add	r0, pc, r0
0x00010908:  eb000776      bl	0x126e8

----------------
IN: parse.constprop.0
0x0001090c:  e59f3a44      ldr	r3, [pc, #2628]	; 0x11358
0x00010910:  e1a02009      mov	r2, r9
0x00010914:  e59f0a40      ldr	r0, [pc, #2624]	; 0x1135c
0x00010918:  e08f3003      add	r3, pc, r3
0x0001091c:  e08f0000      add	r0, pc, r0
0x00010920:  e7931109      ldr	r1, [r3, r9, lsl #2]
0x00010924:  eb00076f      bl	0x126e8

----------------
IN: parse.constprop.0
0x00010928:  e2493003      sub	r3, r9, #3	; 0x3
0x0001092c:  e3530010      cmp	r3, #16	; 0x10
0x00010930:  908ff103      addls	pc, pc, r3, lsl #2

----------------
IN: parse.constprop.0
0x00010938:  ea00019e      b	0x10fb8

----------------
IN: parse.constprop.0
0x00010fb8:  e3550003      cmp	r5, #3	; 0x3
0x00010fbc:  9a00020f      bls	0x11800

----------------
IN: parse.constprop.0
0x00010fc0:  e5943010      ldr	r3, [r4, #16]
0x00010fc4:  e3530000      cmp	r3, #0	; 0x0
0x00010fc8:  1a0001a9      bne	0x11674

----------------
IN: parse.constprop.0
0x00010fcc:  e5943018      ldr	r3, [r4, #24]
0x00010fd0:  e594201c      ldr	r2, [r4, #28]
0x00010fd4:  e1530002      cmp	r3, r2
0x00010fd8:  2a0001a5      bcs	0x11674

----------------
IN: parse.constprop.0
0x00010fdc:  e5942008      ldr	r2, [r4, #8]
0x00010fe0:  e5941020      ldr	r1, [r4, #32]
0x00010fe4:  e2822001      add	r2, r2, #1	; 0x1
0x00010fe8:  e5842008      str	r2, [r4, #8]
0x00010fec:  e2832001      add	r2, r3, #1	; 0x1
0x00010ff0:  e5842018      str	r2, [r4, #24]
0x00010ff4:  e7d19003      ldrb	r9, [r1, r3]
0x00010ff8:  e2493004      sub	r3, r9, #4	; 0x4
0x00010ffc:  e2456001      sub	r6, r5, #1	; 0x1

----------------
IN: parse.constprop.0
0x00011000:  e3530001      cmp	r3, #1	; 0x1
0x00011004:  8a00032b      bhi	0x11cb8

----------------
IN: parse.constprop.0
0x00011008:  e35600c8      cmp	r6, #200	; 0xc8
0x0001100c:  8a000335      bhi	0x11ce8

----------------
IN: parse.constprop.0
0x00011010:  e5943010      ldr	r3, [r4, #16]
0x00011014:  e58d3010      str	r3, [sp, #16]
0x00011018:  e3530000      cmp	r3, #0	; 0x0
0x0001101c:  1a0001af      bne	0x116e0

----------------
IN: parse.constprop.0
0x00011020:  e594301c      ldr	r3, [r4, #28]
0x00011024:  e5941018      ldr	r1, [r4, #24]
0x00011028:  e1a02003      mov	r2, r3
0x0001102c:  e1510003      cmp	r1, r3
0x00011030:  2a0001aa      bcs	0x116e0

----------------
IN: parse.constprop.0
0x00011034:  e5940008      ldr	r0, [r4, #8]
0x00011038:  e3590005      cmp	r9, #5	; 0x5
0x0001103c:  e594c020      ldr	ip, [r4, #32]
0x00011040:  1245a002      subne	sl, r5, #2	; 0x2
0x00011044:  e2800001      add	r0, r0, #1	; 0x1
0x00011048:  e5840008      str	r0, [r4, #8]
0x0001104c:  e2810001      add	r0, r1, #1	; 0x1
0x00011050:  e5840018      str	r0, [r4, #24]
0x00011054:  e7dc1001      ldrb	r1, [ip, r1]
0x00011058:  e58d1014      str	r1, [sp, #20]
0x0001105c:  0a0002e6      beq	0x11bfc

----------------
IN: parse.constprop.0
0x00011060:  e5941018      ldr	r1, [r4, #24]
0x00011064:  e1a02003      mov	r2, r3
0x00011068:  e1520001      cmp	r2, r1
0x0001106c:  9a0001ae      bls	0x1172c

----------------
IN: parse.constprop.0
0x00011070:  e5943008      ldr	r3, [r4, #8]
0x00011074:  e5940020      ldr	r0, [r4, #32]
0x00011078:  e2833001      add	r3, r3, #1	; 0x1
0x0001107c:  e5843008      str	r3, [r4, #8]
0x00011080:  e2813001      add	r3, r1, #1	; 0x1
0x00011084:  e5843018      str	r3, [r4, #24]
0x00011088:  e7d06001      ldrb	r6, [r0, r1]
0x0001108c:  e1520003      cmp	r2, r3
0x00011090:  9a0001a0      bls	0x11718

----------------
IN: parse.constprop.0
0x00011094:  e5942008      ldr	r2, [r4, #8]
0x00011098:  e5941020      ldr	r1, [r4, #32]
0x0001109c:  e2822001      add	r2, r2, #1	; 0x1
0x000110a0:  e5842008      str	r2, [r4, #8]
0x000110a4:  e2832001      add	r2, r3, #1	; 0x1
0x000110a8:  e5842018      str	r2, [r4, #24]
0x000110ac:  e7d13003      ldrb	r3, [r1, r3]
0x000110b0:  e58d3018      str	r3, [sp, #24]
0x000110b4:  e3560001      cmp	r6, #1	; 0x1
0x000110b8:  e24a5002      sub	r5, sl, #2	; 0x2
0x000110bc:  0a0002e5      beq	0x11c58

----------------
IN: parse.constprop.0
0x000110c0:  e3560003      cmp	r6, #3	; 0x3
0x000110c4:  0a0001fc      beq	0x118bc

----------------
IN: parse.constprop.0
0x000118bc:  e3a03009      mov	r3, #9	; 0x9
0x000118c0:  e1550003      cmp	r5, r3
0x000118c4:  3a000102      bcc	0x11cd4

----------------
IN: parse.constprop.0
0x000118c8:  e0453003      sub	r3, r5, r3
0x000118cc:  e2467003      sub	r7, r6, #3	; 0x3
0x000118d0:  e58d301c      str	r3, [sp, #28]
0x000118d4:  e283001b      add	r0, r3, #27	; 0x1b
0x000118d8:  e16f7f17      clz	r7, r7
0x000118dc:  ebfff9da      bl	0x1004c

----------------
IN: parse.constprop.0
0x000118e0:  e59d100c      ldr	r1, [sp, #12]
0x000118e4:  e3c63002      bic	r3, r6, #2	; 0x2
0x000118e8:  e5810004      str	r0, [r1, #4]
0x000118ec:  e3530001      cmp	r3, #1	; 0x1
0x000118f0:  e59d1014      ldr	r1, [sp, #20]
0x000118f4:  e59d201c      ldr	r2, [sp, #28]
0x000118f8:  e5c01001      strb	r1, [r0, #1]
0x000118fc:  e59d1010      ldr	r1, [sp, #16]
0x00011900:  e1a072a7      lsr	r7, r7, #5
0x00011904:  e5c01002      strb	r1, [r0, #2]
0x00011908:  e59d1018      ldr	r1, [sp, #24]
0x0001190c:  e58d0020      str	r0, [sp, #32]
0x00011910:  e5c09000      strb	r9, [r0]
0x00011914:  e5806004      str	r6, [r0, #4]
0x00011918:  e5c01008      strb	r1, [r0, #8]
0x0001191c:  e58d200c      str	r2, [sp, #12]
0x00011920:  1a000033      bne	0x119f4

----------------
IN: parse.constprop.0
0x00011924:  e58d6024      str	r6, [sp, #36]
0x00011928:  e2803008      add	r3, r0, #8	; 0x8
0x0001192c:  e1a06005      mov	r6, r5
0x00011930:  e1a05003      mov	r5, r3
0x00011934:  ea000013      b	0x11988

----------------
IN: parse.constprop.0
0x00011988:  e5942010      ldr	r2, [r4, #16]
0x0001198c:  e1a00004      mov	r0, r4
0x00011990:  e3520000      cmp	r2, #0	; 0x0
0x00011994:  1a000004      bne	0x119ac

----------------
IN: parse.constprop.0
0x00011998:  e5942018      ldr	r2, [r4, #24]
0x0001199c:  e594101c      ldr	r1, [r4, #28]
0x000119a0:  e1520001      cmp	r2, r1
0x000119a4:  e2821001      add	r1, r2, #1	; 0x1
0x000119a8:  3affffe2      bcc	0x11938

----------------
IN: parse.constprop.0
0x00011938:  e5841018      str	r1, [r4, #24]
0x0001193c:  e5941008      ldr	r1, [r4, #8]
0x00011940:  e5940020      ldr	r0, [r4, #32]
0x00011944:  e2811001      add	r1, r1, #1	; 0x1
0x00011948:  e5841008      str	r1, [r4, #8]
0x0001194c:  e7d02002      ldrb	r2, [r0, r2]
0x00011950:  e5e52001      strb	r2, [r5, #1]!
0x00011954:  e30f7ffe      movw	r7, #65534	; 0xfffe
0x00011958:  e34f7fff      movt	r7, #65535	; 0xffff
0x0001195c:  e2462001      sub	r2, r6, #1	; 0x1
0x00011960:  e0477002      sub	r7, r7, r2
0x00011964:  e087700a      add	r7, r7, sl
0x00011968:  e3570007      cmp	r7, #7	; 0x7
0x0001196c:  c3a07000      movgt	r7, #0	; 0x0
0x00011970:  d3a07001      movle	r7, #1	; 0x1
0x00011974:  e3520000      cmp	r2, #0	; 0x0
0x00011978:  03a07000      moveq	r7, #0	; 0x0
0x0001197c:  e3570000      cmp	r7, #0	; 0x0
0x00011980:  0a000066      beq	0x11b20

----------------
IN: parse.constprop.0
0x00011984:  e1a06002      mov	r6, r2
0x00011988:  e5942010      ldr	r2, [r4, #16]
0x0001198c:  e1a00004      mov	r0, r4
0x00011990:  e3520000      cmp	r2, #0	; 0x0
0x00011994:  1a000004      bne	0x119ac

----------------
IN: parse.constprop.0
0x00011b20:  e1a05006      mov	r5, r6
0x00011b24:  e59d6024      ldr	r6, [sp, #36]
0x00011b28:  e3560003      cmp	r6, #3	; 0x3
0x00011b2c:  11a05002      movne	r5, r2
0x00011b30:  1affffaf      bne	0x119f4

----------------
IN: parse.constprop.0
0x00011b34:  e5943010      ldr	r3, [r4, #16]
0x00011b38:  e3530000      cmp	r3, #0	; 0x0
0x00011b3c:  1a00007c      bne	0x11d34

----------------
IN: parse.constprop.0
0x00011b40:  e5943018      ldr	r3, [r4, #24]
0x00011b44:  e594201c      ldr	r2, [r4, #28]
0x00011b48:  e1530002      cmp	r3, r2
0x00011b4c:  2a000078      bcs	0x11d34

----------------
IN: parse.constprop.0
0x00011b50:  e5942008      ldr	r2, [r4, #8]
0x00011b54:  e5941020      ldr	r1, [r4, #32]
0x00011b58:  e2822001      add	r2, r2, #1	; 0x1
0x00011b5c:  e5842008      str	r2, [r4, #8]
0x00011b60:  e2832001      add	r2, r3, #1	; 0x1
0x00011b64:  e5842018      str	r2, [r4, #24]
0x00011b68:  e7d13003      ldrb	r3, [r1, r3]
0x00011b6c:  e59d2020      ldr	r2, [sp, #32]
0x00011b70:  e2455002      sub	r5, r5, #2	; 0x2
0x00011b74:  e3a07001      mov	r7, #1	; 0x1
0x00011b78:  e5823014      str	r3, [r2, #20]
0x00011b7c:  eaffff9c      b	0x119f4

----------------
IN: parse.constprop.0
0x000119f4:  e5dd301c      ldrb	r3, [sp, #28]
0x000119f8:  e59d2020      ldr	r2, [sp, #32]
0x000119fc:  e3530000      cmp	r3, #0	; 0x0
0x00011a00:  e5c23018      strb	r3, [r2, #24]
0x00011a04:  0a00002c      beq	0x11abc

----------------
IN: parse.constprop.0
0x00011abc:  e59d3018      ldr	r3, [sp, #24]
0x00011ac0:  e1a01009      mov	r1, r9
0x00011ac4:  e51f06cc      ldr	r0, [pc, #-1740]	; 0x11400
0x00011ac8:  e58d3004      str	r3, [sp, #4]
0x00011acc:  e08f0000      add	r0, pc, r0
0x00011ad0:  e59d3010      ldr	r3, [sp, #16]
0x00011ad4:  e59d2014      ldr	r2, [sp, #20]
0x00011ad8:  e58d6000      str	r6, [sp]
0x00011adc:  eb000301      bl	0x126e8

----------------
IN: parse.constprop.0
0x00011ae0:  e59d300c      ldr	r3, [sp, #12]
0x00011ae4:  e3530000      cmp	r3, #0	; 0x0
0x00011ae8:  1a000036      bne	0x11bc8

----------------
IN: parse.constprop.0
0x00011aec:  e3570000      cmp	r7, #0	; 0x0
0x00011af0:  0afffd7a      beq	0x110e0

----------------
IN: parse.constprop.0
0x00011af4:  e59d3020      ldr	r3, [sp, #32]
0x00011af8:  e51f06fc      ldr	r0, [pc, #-1788]	; 0x11404
0x00011afc:  e5932014      ldr	r2, [r3, #20]
0x00011b00:  e08f0000      add	r0, pc, r0
0x00011b04:  e1a03222      lsr	r3, r2, #4
0x00011b08:  e202100f      and	r1, r2, #15	; 0xf
0x00011b0c:  e2833006      add	r3, r3, #6	; 0x6
0x00011b10:  e2811010      add	r1, r1, #16	; 0x10
0x00011b14:  e1a01311      lsl	r1, r1, r3
0x00011b18:  eb0002f2      bl	0x126e8

----------------
IN: parse.constprop.0
0x00011b1c:  eafffd6f      b	0x110e0

----------------
IN: parse.constprop.0
0x000110e0:  e1a01005      mov	r1, r5
0x000110e4:  e1a00004      mov	r0, r4
0x000110e8:  e3a02000      mov	r2, #0	; 0x0
0x000110ec:  ebffe66b      bl	0xaaa0

----------------
IN: iobuf_skip_rest
0x0000aaa0:  e3520000      cmp	r2, #0	; 0x0
0x0000aaa4:  e92d4070      push	{r4, r5, r6, lr}
0x0000aaa8:  e1a04000      mov	r4, r0
0x0000aaac:  1a000031      bne	0xab78

----------------
IN: iobuf_skip_rest
0x0000aab0:  e3510000      cmp	r1, #0	; 0x0
0x0000aab4:  e1a05001      mov	r5, r1
0x0000aab8:  08bd8070      popeq	{r4, r5, r6, pc}

----------------
IN: parse.constprop.0
0x000110f0:  e1a01008      mov	r1, r8
0x000110f4:  e3a00000      mov	r0, #0	; 0x0
0x000110f8:  ebffed54      bl	0xc650

----------------
IN: free_packet.localalias
0x0000c650:  e3500000      cmp	r0, #0	; 0x0
0x0000c654:  e92d4010      push	{r4, lr}
0x0000c658:  e1a04001      mov	r4, r1
0x0000c65c:  0a000007      beq	0xc680

----------------
IN: free_packet.localalias
0x0000c680:  e3540000      cmp	r4, #0	; 0x0
0x0000c684:  08bd8010      popeq	{r4, pc}

----------------
IN: free_packet.localalias
0x0000c688:  e5943008      ldr	r3, [r4, #8]
0x0000c68c:  e3530000      cmp	r3, #0	; 0x0
0x0000c690:  08bd8010      popeq	{r4, pc}

----------------
IN: parse.constprop.0
0x000110fc:  eaffffa5      b	0x10f98

----------------
IN: parse.constprop.0
0x00010f98:  e59f0420      ldr	r0, [pc, #1056]	; 0x113c0
0x00010f9c:  e1a0100b      mov	r1, fp
0x00010fa0:  e08f0000      add	r0, pc, r0
0x00010fa4:  eb0005cf      bl	0x126e8

----------------
IN: parse.constprop.0
0x00010fa8:  e1a0100b      mov	r1, fp
0x00010fac:  e28d002c      add	r0, sp, #44	; 0x2c
0x00010fb0:  ebffe7e3      bl	0xaf44

----------------
IN: log_hexdump
0x0000af44:  e92d4ff0      push	{r4, r5, r6, r7, r8, r9, sl, fp, lr}
0x0000af48:  e1a06000      mov	r6, r0
0x0000af4c:  e59f013c      ldr	r0, [pc, #316]	; 0xb090
0x0000af50:  e1a07001      mov	r7, r1
0x0000af54:  e24dd02c      sub	sp, sp, #44	; 0x2c
0x0000af58:  e08f0000      add	r0, pc, r0
0x0000af5c:  eb001de1      bl	0x126e8

----------------
IN: log_hexdump
0x0000af60:  e3570000      cmp	r7, #0	; 0x0
0x0000af64:  da000041      ble	0xb070

----------------
IN: log_hexdump
0x0000af68:  e59f3124      ldr	r3, [pc, #292]	; 0xb094
0x0000af6c:  e3a0a000      mov	sl, #0	; 0x0
0x0000af70:  e59f9120      ldr	r9, [pc, #288]	; 0xb098
0x0000af74:  e59f8120      ldr	r8, [pc, #288]	; 0xb09c
0x0000af78:  e59f5120      ldr	r5, [pc, #288]	; 0xb0a0
0x0000af7c:  e08f3003      add	r3, pc, r3
0x0000af80:  e58d3004      str	r3, [sp, #4]
0x0000af84:  e28d3013      add	r3, sp, #19	; 0x13
0x0000af88:  e08f9009      add	r9, pc, r9
0x0000af8c:  e08f8008      add	r8, pc, r8
0x0000af90:  e08f5005      add	r5, pc, r5
0x0000af94:  e58d3008      str	r3, [sp, #8]
0x0000af98:  e28d3014      add	r3, sp, #20	; 0x14
0x0000af9c:  e58d300c      str	r3, [sp, #12]
0x0000afa0:  e59d0004      ldr	r0, [sp, #4]
0x0000afa4:  e3570010      cmp	r7, #16	; 0x10
0x0000afa8:  e1a0100a      mov	r1, sl
0x0000afac:  e3a0b000      mov	fp, #0	; 0x0
0x0000afb0:  b1a04007      movlt	r4, r7
0x0000afb4:  a3a04010      movge	r4, #16	; 0x10
0x0000afb8:  eb001dca      bl	0x126e8

----------------
IN: tfp_format
0x00012384:  e3520000      cmp	r2, #0	; 0x0
0x00012388:  0a000008      beq	0x123b0

----------------
IN: tfp_format
0x0001238c:  e3520025      cmp	r2, #37	; 0x25
0x00012390:  1affffbc      bne	0x12288

----------------
IN: log_hexdump
0x0000afbc:  ea000006      b	0xafdc

----------------
IN: log_hexdump
0x0000afdc:  e31b0001      tst	fp, #1	; 0x1
0x0000afe0:  0a000027      beq	0xb084

----------------
IN: log_hexdump
0x0000b084:  e1a00009      mov	r0, r9
0x0000b088:  eb001d96      bl	0x126e8

----------------
IN: log_hexdump
0x0000b08c:  eaffffd4      b	0xafe4

----------------
IN: log_hexdump
0x0000afe4:  e31b0007      tst	fp, #7	; 0x7
0x0000afe8:  0a000022      beq	0xb078

----------------
IN: log_hexdump
0x0000b078:  e1a00008      mov	r0, r8
0x0000b07c:  eb001d99      bl	0x126e8

----------------
IN: log_hexdump
0x0000b080:  eaffffd9      b	0xafec

----------------
IN: log_hexdump
0x0000afec:  e154000b      cmp	r4, fp
0x0000aff0:  e1a00005      mov	r0, r5
0x0000aff4:  cafffff1      bgt	0xafc0

----------------
IN: log_hexdump
0x0000afc0:  e59f00dc      ldr	r0, [pc, #220]	; 0xb0a4
0x0000afc4:  e7d6100b      ldrb	r1, [r6, fp]
0x0000afc8:  e28bb001      add	fp, fp, #1	; 0x1
0x0000afcc:  e08f0000      add	r0, pc, r0
0x0000afd0:  eb001dc4      bl	0x126e8

----------------
IN: log_hexdump
0x0000afd4:  e35b0010      cmp	fp, #16	; 0x10
0x0000afd8:  0a00000a      beq	0xb008

----------------
IN: log_hexdump
0x0000aff8:  e28bb001      add	fp, fp, #1	; 0x1
0x0000affc:  eb001db9      bl	0x126e8

----------------
IN: log_hexdump
0x0000b000:  e35b0010      cmp	fp, #16	; 0x10
0x0000b004:  1afffff4      bne	0xafdc

----------------
IN: log_hexdump
0x0000b008:  e59f0098      ldr	r0, [pc, #152]	; 0xb0a8
0x0000b00c:  e08f0000      add	r0, pc, r0
0x0000b010:  eb001db4      bl	0x126e8

----------------
IN: log_hexdump
0x0000b014:  e59d1008      ldr	r1, [sp, #8]
0x0000b018:  e2462001      sub	r2, r6, #1	; 0x1
0x0000b01c:  e082c004      add	ip, r2, r4
0x0000b020:  e5f23001      ldrb	r3, [r2, #1]!
0x0000b024:  e2430020      sub	r0, r3, #32	; 0x20
0x0000b028:  e350005e      cmp	r0, #94	; 0x5e
0x0000b02c:  83a0302e      movhi	r3, #46	; 0x2e
0x0000b030:  e152000c      cmp	r2, ip
0x0000b034:  e5e13001      strb	r3, [r1, #1]!
0x0000b038:  1afffff8      bne	0xb020

----------------
IN: log_hexdump
0x0000b020:  e5f23001      ldrb	r3, [r2, #1]!
0x0000b024:  e2430020      sub	r0, r3, #32	; 0x20
0x0000b028:  e350005e      cmp	r0, #94	; 0x5e
0x0000b02c:  83a0302e      movhi	r3, #46	; 0x2e
0x0000b030:  e152000c      cmp	r2, ip
0x0000b034:  e5e13001      strb	r3, [r1, #1]!
0x0000b038:  1afffff8      bne	0xb020

----------------
IN: log_hexdump
0x0000b03c:  e59f0068      ldr	r0, [pc, #104]	; 0xb0ac
0x0000b040:  e2843028      add	r3, r4, #40	; 0x28
0x0000b044:  e08d3003      add	r3, sp, r3
0x0000b048:  e3a02000      mov	r2, #0	; 0x0
0x0000b04c:  e08f0000      add	r0, pc, r0
0x0000b050:  e59d100c      ldr	r1, [sp, #12]
0x0000b054:  e0477004      sub	r7, r7, r4
0x0000b058:  e5432014      strb	r2, [r3, #-20]
0x0000b05c:  e0866004      add	r6, r6, r4
0x0000b060:  eb001da0      bl	0x126e8

----------------
IN: log_hexdump
0x0000b064:  e08aa004      add	sl, sl, r4
0x0000b068:  e3570000      cmp	r7, #0	; 0x0
0x0000b06c:  caffffcb      bgt	0xafa0

----------------
IN: log_hexdump
0x0000b070:  e28dd02c      add	sp, sp, #44	; 0x2c
0x0000b074:  e8bd8ff0      pop	{r4, r5, r6, r7, r8, r9, sl, fp, pc}

----------------
IN: parse.constprop.0
0x00010fb4:  eafffe3b      b	0x108a8

----------------
IN: parse.constprop.0
0x000108a8:  e5943028      ldr	r3, [r4, #40]
0x000108ac:  e3530000      cmp	r3, #0	; 0x0
0x000108b0:  03a00000      moveq	r0, #0	; 0x0
0x000108b4:  13a00022      movne	r0, #34	; 0x22
0x000108b8:  e28dd09c      add	sp, sp, #156	; 0x9c
0x000108bc:  e8bd8ff0      pop	{r4, r5, r6, r7, r8, r9, sl, fp, pc}

----------------
IN: dbg_parse_packet
0x00011d88:  e59d3014      ldr	r3, [sp, #20]
0x00011d8c:  e2533000      subs	r3, r3, #0	; 0x0
0x00011d90:  13a03001      movne	r3, #1	; 0x1
0x00011d94:  e3500000      cmp	r0, #0	; 0x0
0x00011d98:  13a03000      movne	r3, #0	; 0x0
0x00011d9c:  e3530000      cmp	r3, #0	; 0x0
0x00011da0:  1afffff0      bne	0x11d68

----------------
IN: dbg_parse_packet
0x00011da4:  e28dd01c      add	sp, sp, #28	; 0x1c
0x00011da8:  e8bd80f0      pop	{r4, r5, r6, r7, pc}

----------------
IN: do_proc_packets
0x0000f870:  e3700001      cmn	r0, #1	; 0x1
0x0000f874:  0a0000c8      beq	0xfb9c

----------------
IN: do_proc_packets
0x0000f878:  e3500000      cmp	r0, #0	; 0x0
0x0000f87c:  1a0000cf      bne	0xfbc0

----------------
IN: do_proc_packets
0x0000f880:  e5943014      ldr	r3, [r4, #20]
0x0000f884:  e3530000      cmp	r3, #0	; 0x0
0x0000f888:  0a00002e      beq	0xf948

----------------
IN: do_proc_packets
0x0000f88c:  e5d52000      ldrb	r2, [r5]
0x0000f890:  e2423003      sub	r3, r2, #3	; 0x3
0x0000f894:  e3530011      cmp	r3, #17	; 0x11
0x0000f898:  908ff103      addls	pc, pc, r3, lsl #2

----------------
IN: do_proc_packets
0x0000f8a0:  ea000010      b	0xf8e8

----------------
IN: do_proc_packets
0x0000f8e8:  e59f0444      ldr	r0, [pc, #1092]	; 0xfd34
0x0000f8ec:  e08f0000      add	r0, pc, r0
0x0000f8f0:  eb000b7c      bl	0x126e8

----------------
IN: do_proc_packets
0x0000f8f4:  e5958004      ldr	r8, [r5, #4]
0x0000f8f8:  e3580000      cmp	r8, #0	; 0x0
0x0000f8fc:  0a00009d      beq	0xfb78

----------------
IN: do_proc_packets
0x0000f900:  e594a02c      ldr	sl, [r4, #44]
0x0000f904:  e35a0000      cmp	sl, #0	; 0x0
0x0000f908:  0a0000c0      beq	0xfc10

----------------
IN: do_proc_packets
0x0000fc10:  e59f0154      ldr	r0, [pc, #340]	; 0xfd6c
0x0000fc14:  e08f0000      add	r0, pc, r0
0x0000fc18:  eb000ab2      bl	0x126e8

----------------
IN: do_proc_packets
0x0000fc1c:  e59f214c      ldr	r2, [pc, #332]	; 0xfd70
0x0000fc20:  e59f114c      ldr	r1, [pc, #332]	; 0xfd74
0x0000fc24:  e59f014c      ldr	r0, [pc, #332]	; 0xfd78
0x0000fc28:  e5d83001      ldrb	r3, [r8, #1]
0x0000fc2c:  e08f1001      add	r1, pc, r1
0x0000fc30:  e08f2002      add	r2, pc, r2
0x0000fc34:  e08f0000      add	r0, pc, r0
0x0000fc38:  e58d301c      str	r3, [sp, #28]
0x0000fc3c:  eb000aa9      bl	0x126e8

----------------
IN: do_proc_packets
0x0000fc40:  e5940030      ldr	r0, [r4, #48]
0x0000fc44:  e3a02002      mov	r2, #2	; 0x2
0x0000fc48:  e5842038      str	r2, [r4, #56]
0x0000fc4c:  ebfffd87      bl	0xf270

----------------
IN: do_proc_packets
0x0000fc50:  e1a01000      mov	r1, r0
0x0000fc54:  e59f0120      ldr	r0, [pc, #288]	; 0xfd7c
0x0000fc58:  e08f0000      add	r0, pc, r0
0x0000fc5c:  eb000aa1      bl	0x126e8

----------------
IN: tfp_format
0x00012380:  ea000062      b	0x12510

----------------
IN: tfp_format
0x00012510:  e4d43001      ldrb	r3, [r4], #1
0x00012514:  e3530075      cmp	r3, #117	; 0x75
0x00012518:  1affff5a      bne	0x12288

----------------
IN: tfp_format
0x0001251c:  e1a0300a      mov	r3, sl
0x00012520:  e493e004      ldr	lr, [r3], #4
0x00012524:  e58d3008      str	r3, [sp, #8]
0x00012528:  e35e0009      cmp	lr, #9	; 0x9
0x0001252c:  e3a03001      mov	r3, #1	; 0x1
0x00012530:  9a000062      bls	0x126c0

----------------
IN: tfp_format
0x000126c0:  e1a0200e      mov	r2, lr
0x000126c4:  eaffffa1      b	0x12550

----------------
IN: tfp_format
0x00012550:  e58d800c      str	r8, [sp, #12]
0x00012554:  e3a0a000      mov	sl, #0	; 0x0
0x00012558:  e1a0800b      mov	r8, fp
0x0001255c:  e1a0c002      mov	ip, r2
0x00012560:  ea000005      b	0x1257c

----------------
IN: tfp_format
0x0001257c:  e0812399      umull	r2, r1, r9, r3
0x00012580:  e25a2000      subs	r2, sl, #0	; 0x0
0x00012584:  e1a00008      mov	r0, r8
0x00012588:  13a02001      movne	r2, #1	; 0x1
0x0001258c:  e28aa001      add	sl, sl, #1	; 0x1
0x00012590:  e06eec93      mls	lr, r3, ip, lr
0x00012594:  e3530009      cmp	r3, #9	; 0x9
0x00012598:  93822001      orrls	r2, r2, #1	; 0x1
0x0001259c:  e35c0000      cmp	ip, #0	; 0x0
0x000125a0:  c3822001      orrgt	r2, r2, #1	; 0x1
0x000125a4:  e28cc030      add	ip, ip, #48	; 0x30
0x000125a8:  e1a011a1      lsr	r1, r1, #3
0x000125ac:  e3520000      cmp	r2, #0	; 0x0
0x000125b0:  1affffeb      bne	0x12564

----------------
IN: tfp_format
0x00012564:  e4c0c001      strb	ip, [r0], #1
0x00012568:  e3530009      cmp	r3, #9	; 0x9
0x0001256c:  e1a08000      mov	r8, r0
0x00012570:  9a000047      bls	0x12694

----------------
IN: tfp_format
0x00012694:  e59d800c      ldr	r8, [sp, #12]
0x00012698:  e59da008      ldr	sl, [sp, #8]
0x0001269c:  e3a01000      mov	r1, #0	; 0x0
0x000126a0:  e5c01000      strb	r1, [r0]
0x000126a4:  e1a03008      mov	r3, r8
0x000126a8:  e58db000      str	fp, [sp]
0x000126ac:  e1a02005      mov	r2, r5
0x000126b0:  e1a01007      mov	r1, r7
0x000126b4:  e1a00006      mov	r0, r6
0x000126b8:  ebfffeb1      bl	0x12184

----------------
IN: tfp_format
0x000126bc:  eafffef1      b	0x12288

----------------
IN: do_proc_packets
0x0000fc60:  e59f0118      ldr	r0, [pc, #280]	; 0xfd80
0x0000fc64:  e5941030      ldr	r1, [r4, #48]
0x0000fc68:  e08f0000      add	r0, pc, r0
0x0000fc6c:  eb000a9d      bl	0x126e8

----------------
IN: do_proc_packets
0x0000fc70:  e59d301c      ldr	r3, [sp, #28]
0x0000fc74:  e1a0200a      mov	r2, sl
0x0000fc78:  e58da008      str	sl, [sp, #8]
0x0000fc7c:  e2881004      add	r1, r8, #4	; 0x4
0x0000fc80:  e58da004      str	sl, [sp, #4]
0x0000fc84:  e1a00003      mov	r0, r3
0x0000fc88:  e58da000      str	sl, [sp]
0x0000fc8c:  e5943034      ldr	r3, [r4, #52]
0x0000fc90:  e58d3010      str	r3, [sp, #16]
0x0000fc94:  e5943030      ldr	r3, [r4, #48]
0x0000fc98:  e58d300c      str	r3, [sp, #12]
0x0000fc9c:  e3a03001      mov	r3, #1	; 0x1
0x0000fca0:  ebfffe1a      bl	0xf510

----------------
IN: passphrase_to_dek
0x0000f510:  e92d4bf0      push	{r4, r5, r6, r7, r8, r9, fp, lr}
0x0000f514:  e28db01c      add	fp, sp, #28	; 0x1c
0x0000f518:  e24dd010      sub	sp, sp, #16	; 0x10
0x0000f51c:  e59b300c      ldr	r3, [fp, #12]
0x0000f520:  e1a04000      mov	r4, r0
0x0000f524:  e59b6014      ldr	r6, [fp, #20]
0x0000f528:  e1a07001      mov	r7, r1
0x0000f52c:  e3530000      cmp	r3, #0	; 0x0
0x0000f530:  024b3020      subeq	r3, fp, #32	; 0x20
0x0000f534:  e3520000      cmp	r2, #0	; 0x0
0x0000f538:  e3a02000      mov	r2, #0	; 0x0
0x0000f53c:  e5832000      str	r2, [r3]
0x0000f540:  0a000003      beq	0xf554

----------------
IN: passphrase_to_dek
0x0000f554:  e3a0003c      mov	r0, #60	; 0x3c
0x0000f558:  eb0002bb      bl	0x1004c

----------------
IN: passphrase_to_dek
0x0000f55c:  e5973010      ldr	r3, [r7, #16]
0x0000f560:  e3560000      cmp	r6, #0	; 0x0
0x0000f564:  e5804000      str	r4, [r0]
0x0000f568:  e3a02010      mov	r2, #16	; 0x10
0x0000f56c:  e5802004      str	r2, [r0, #4]
0x0000f570:  e203400f      and	r4, r3, #15	; 0xf
0x0000f574:  e1a03223      lsr	r3, r3, #4
0x0000f578:  e2844010      add	r4, r4, #16	; 0x10
0x0000f57c:  e2833006      add	r3, r3, #6	; 0x6
0x0000f580:  e1a05000      mov	r5, r0
0x0000f584:  e1a04314      lsl	r4, r4, r3
0x0000f588:  0a000048      beq	0xf6b0

----------------
IN: passphrase_to_dek
0x0000f58c:  e59f018c      ldr	r0, [pc, #396]	; 0xf720
0x0000f590:  e1a01006      mov	r1, r6
0x0000f594:  e1a0800d      mov	r8, sp
0x0000f598:  e08f0000      add	r0, pc, r0
0x0000f59c:  eb000c51      bl	0x126e8

----------------
IN: passphrase_to_dek
0x0000f5a0:  e5952004      ldr	r2, [r5, #4]
0x0000f5a4:  e1a00006      mov	r0, r6
0x0000f5a8:  e2876005      add	r6, r7, #5	; 0x5
0x0000f5ac:  e2823007      add	r3, r2, #7	; 0x7
0x0000f5b0:  e3c33007      bic	r3, r3, #7	; 0x7
0x0000f5b4:  e04dd003      sub	sp, sp, r3
0x0000f5b8:  e28d9008      add	r9, sp, #8	; 0x8
0x0000f5bc:  e1a01009      mov	r1, r9
0x0000f5c0:  ebffffa1      bl	0xf44c

----------------
IN: hex_to_bytes
0x0000f44c:  e3520000      cmp	r2, #0	; 0x0
0x0000f450:  012fff1e      bxeq	lr

----------------
IN: hex_to_bytes
0x0000f454:  e080c082      add	ip, r0, r2, lsl #1
0x0000f458:  e2411001      sub	r1, r1, #1	; 0x1
0x0000f45c:  e52de004      push	{lr}		; (str lr, [sp, #-4]!)
0x0000f460:  ea000018      b	0xf4c8

----------------
IN: hex_to_bytes
0x0000f4c8:  e5d02000      ldrb	r2, [r0]
0x0000f4cc:  e2423030      sub	r3, r2, #48	; 0x30
0x0000f4d0:  e6ef3073      uxtb	r3, r3
0x0000f4d4:  e3530009      cmp	r3, #9	; 0x9
0x0000f4d8:  91a03203      lslls	r3, r3, #4
0x0000f4dc:  96af3073      sxtbls	r3, r3
0x0000f4e0:  9affffe5      bls	0xf47c

----------------
IN: hex_to_bytes
0x0000f47c:  e5d0e001      ldrb	lr, [r0, #1]
0x0000f480:  e24e2030      sub	r2, lr, #48	; 0x30
0x0000f484:  e6ef2072      uxtb	r2, r2
0x0000f488:  e3520009      cmp	r2, #9	; 0x9
0x0000f48c:  91833002      orrls	r3, r3, r2
0x0000f490:  96af3073      sxtbls	r3, r3
0x0000f494:  9a000007      bls	0xf4b8

----------------
IN: hex_to_bytes
0x0000f4b8:  e5e13001      strb	r3, [r1, #1]!
0x0000f4bc:  e2800002      add	r0, r0, #2	; 0x2
0x0000f4c0:  e150000c      cmp	r0, ip
0x0000f4c4:  049df004      popeq	{pc}		; (ldreq pc, [sp], #4)

----------------
IN: hex_to_bytes
0x0000f498:  e24e2041      sub	r2, lr, #65	; 0x41
0x0000f49c:  e3520005      cmp	r2, #5	; 0x5
0x0000f4a0:  9a000016      bls	0xf500

----------------
IN: hex_to_bytes
0x0000f500:  e24ee037      sub	lr, lr, #55	; 0x37
0x0000f504:  e183300e      orr	r3, r3, lr
0x0000f508:  e6af3073      sxtb	r3, r3
0x0000f50c:  eaffffe9      b	0xf4b8

----------------
IN: hex_to_bytes
0x0000f4e4:  e2423041      sub	r3, r2, #65	; 0x41
0x0000f4e8:  e3530005      cmp	r3, #5	; 0x5
0x0000f4ec:  8affffdc      bhi	0xf464

----------------
IN: hex_to_bytes
0x0000f4f0:  e2423037      sub	r3, r2, #55	; 0x37
0x0000f4f4:  e7a33053      sbfx	r3, r3, #0, #4
0x0000f4f8:  e1a03203      lsl	r3, r3, #4
0x0000f4fc:  eaffffde      b	0xf47c

----------------
IN: passphrase_to_dek
0x0000f5c4:  e5952004      ldr	r2, [r5, #4]
0x0000f5c8:  e1a01009      mov	r1, r9
0x0000f5cc:  e2850009      add	r0, r5, #9	; 0x9
0x0000f5d0:  eb0002b8      bl	0x100b8

----------------
IN: passphrase_to_dek
0x0000f5d4:  e1a0d008      mov	sp, r8
0x0000f5d8:  e59f0144      ldr	r0, [pc, #324]	; 0xf724
0x0000f5dc:  e08f0000      add	r0, pc, r0
0x0000f5e0:  eb000c40      bl	0x126e8

----------------
IN: passphrase_to_dek
0x0000f5e4:  e59f013c      ldr	r0, [pc, #316]	; 0xf728
0x0000f5e8:  e5951000      ldr	r1, [r5]
0x0000f5ec:  e08f0000      add	r0, pc, r0
0x0000f5f0:  eb000c3c      bl	0x126e8

----------------
IN: passphrase_to_dek
0x0000f5f4:  e59f0130      ldr	r0, [pc, #304]	; 0xf72c
0x0000f5f8:  e5951004      ldr	r1, [r5, #4]
0x0000f5fc:  e08f0000      add	r0, pc, r0
0x0000f600:  eb000c38      bl	0x126e8

----------------
IN: passphrase_to_dek
0x0000f604:  e59f0124      ldr	r0, [pc, #292]	; 0xf730
0x0000f608:  e1a01004      mov	r1, r4
0x0000f60c:  e08f0000      add	r0, pc, r0
0x0000f610:  eb000c34      bl	0x126e8

----------------
IN: passphrase_to_dek
0x0000f614:  e59f0118      ldr	r0, [pc, #280]	; 0xf734
0x0000f618:  e08f0000      add	r0, pc, r0
0x0000f61c:  eb000c31      bl	0x126e8

----------------
IN: passphrase_to_dek
0x0000f620:  e5953004      ldr	r3, [r5, #4]
0x0000f624:  e3530000      cmp	r3, #0	; 0x0
0x0000f628:  da00000b      ble	0xf65c

----------------
IN: passphrase_to_dek
0x0000f62c:  e59f9104      ldr	r9, [pc, #260]	; 0xf738
0x0000f630:  e2858008      add	r8, r5, #8	; 0x8
0x0000f634:  e08f9009      add	r9, pc, r9
0x0000f638:  e1a04008      mov	r4, r8
0x0000f63c:  e1a00009      mov	r0, r9
0x0000f640:  e5f81001      ldrb	r1, [r8, #1]!
0x0000f644:  e2444007      sub	r4, r4, #7	; 0x7
0x0000f648:  e0444005      sub	r4, r4, r5
0x0000f64c:  eb000c25      bl	0x126e8

----------------
IN: passphrase_to_dek
0x0000f650:  e5953004      ldr	r3, [r5, #4]
0x0000f654:  e1530004      cmp	r3, r4
0x0000f658:  cafffff6      bgt	0xf638

----------------
IN: passphrase_to_dek
0x0000f638:  e1a04008      mov	r4, r8
0x0000f63c:  e1a00009      mov	r0, r9
0x0000f640:  e5f81001      ldrb	r1, [r8, #1]!
0x0000f644:  e2444007      sub	r4, r4, #7	; 0x7
0x0000f648:  e0444005      sub	r4, r4, r5
0x0000f64c:  eb000c25      bl	0x126e8

----------------
IN: passphrase_to_dek
0x0000f65c:  e59f00d8      ldr	r0, [pc, #216]	; 0xf73c
0x0000f660:  e1a04006      mov	r4, r6
0x0000f664:  e59f60d4      ldr	r6, [pc, #212]	; 0xf740
0x0000f668:  e287700d      add	r7, r7, #13	; 0xd
0x0000f66c:  e08f0000      add	r0, pc, r0
0x0000f670:  e08f6006      add	r6, pc, r6
0x0000f674:  eb000c1b      bl	0x126e8

----------------
IN: passphrase_to_dek
0x0000f678:  e59f00c4      ldr	r0, [pc, #196]	; 0xf744
0x0000f67c:  e08f0000      add	r0, pc, r0
0x0000f680:  eb000c18      bl	0x126e8

----------------
IN: passphrase_to_dek
0x0000f684:  e4d41001      ldrb	r1, [r4], #1
0x0000f688:  e1a00006      mov	r0, r6
0x0000f68c:  eb000c15      bl	0x126e8

----------------
IN: passphrase_to_dek
0x0000f690:  e1540007      cmp	r4, r7
0x0000f694:  1afffffa      bne	0xf684

----------------
IN: passphrase_to_dek
0x0000f698:  e59f00a8      ldr	r0, [pc, #168]	; 0xf748
0x0000f69c:  e08f0000      add	r0, pc, r0
0x0000f6a0:  eb000c10      bl	0x126e8

----------------
IN: passphrase_to_dek
0x0000f6a4:  e1a00005      mov	r0, r5
0x0000f6a8:  e24bd01c      sub	sp, fp, #28	; 0x1c
0x0000f6ac:  e8bd8bf0      pop	{r4, r5, r6, r7, r8, r9, fp, pc}

----------------
IN: do_proc_packets
0x0000fca4:  e584002c      str	r0, [r4, #44]
0x0000fca8:  e3500000      cmp	r0, #0	; 0x0
0x0000fcac:  0affff16      beq	0xf90c

----------------
IN: do_proc_packets
0x0000fcb0:  e5d83002      ldrb	r3, [r8, #2]
0x0000fcb4:  e5d02008      ldrb	r2, [r0, #8]
0x0000fcb8:  e1a03083      lsl	r3, r3, #1
0x0000fcbc:  e3c2205f      bic	r2, r2, #95	; 0x5f
0x0000fcc0:  e203301e      and	r3, r3, #30	; 0x1e
0x0000fcc4:  e3833041      orr	r3, r3, #65	; 0x41
0x0000fcc8:  e1833002      orr	r3, r3, r2
0x0000fccc:  e5c03008      strb	r3, [r0, #8]
0x0000fcd0:  eaffff0d      b	0xf90c

----------------
IN: do_proc_packets
0x0000f90c:  e3a01010      mov	r1, #16	; 0x10
0x0000f910:  e3a00001      mov	r0, #1	; 0x1
0x0000f914:  eb0001d6      bl	0x10074

----------------
IN: do_proc_packets
0x0000f918:  e5d83001      ldrb	r3, [r8, #1]
0x0000f91c:  e5803004      str	r3, [r0, #4]
0x0000f920:  e5d83002      ldrb	r3, [r8, #2]
0x0000f924:  e16f3f13      clz	r3, r3
0x0000f928:  e1a032a3      lsr	r3, r3, #5
0x0000f92c:  e5803008      str	r3, [r0, #8]
0x0000f930:  e5943048      ldr	r3, [r4, #72]
0x0000f934:  e5942050      ldr	r2, [r4, #80]
0x0000f938:  e2833001      add	r3, r3, #1	; 0x1
0x0000f93c:  e5802000      str	r2, [r0]
0x0000f940:  e5840050      str	r0, [r4, #80]
0x0000f944:  e5843048      str	r3, [r4, #72]
0x0000f948:  e5d53000      ldrb	r3, [r5]
0x0000f94c:  e3530002      cmp	r3, #2	; 0x2
0x0000f950:  13530013      cmpne	r3, #19	; 0x13
0x0000f954:  0a000005      beq	0xf970

----------------
IN: do_proc_packets
0x0000f958:  e5d4205c      ldrb	r2, [r4, #92]
0x0000f95c:  e243300b      sub	r3, r3, #11	; 0xb
0x0000f960:  e16f3f13      clz	r3, r3
0x0000f964:  e1a032a3      lsr	r3, r3, #5
0x0000f968:  e7c12093      bfi	r2, r3, #1, #1
0x0000f96c:  e5c4205c      strb	r2, [r4, #92]
0x0000f970:  e3a08001      mov	r8, #1	; 0x1
0x0000f974:  eaffffb8      b	0xf85c

----------------
IN: do_proc_packets
0x0000f85c:  e3003762      movw	r3, #1890	; 0x762
0x0000f860:  e1a02007      mov	r2, r7
0x0000f864:  e1a01005      mov	r1, r5
0x0000f868:  e1a00006      mov	r0, r6
0x0000f86c:  eb000934      bl	0x11d44

----------------
IN: parse.constprop.0
0x00010494:  e5943010      ldr	r3, [r4, #16]
0x00010498:  e209903f      and	r9, r9, #63	; 0x3f
0x0001049c:  e3530000      cmp	r3, #0	; 0x0
0x000104a0:  1a0000ad      bne	0x1075c

----------------
IN: parse.constprop.0
0x000104a4:  e5943018      ldr	r3, [r4, #24]
0x000104a8:  e594201c      ldr	r2, [r4, #28]
0x000104ac:  e1530002      cmp	r3, r2
0x000104b0:  2a0000a9      bcs	0x1075c

----------------
IN: parse.constprop.0
0x000104b4:  e5942008      ldr	r2, [r4, #8]
0x000104b8:  e5941020      ldr	r1, [r4, #32]
0x000104bc:  e2822001      add	r2, r2, #1	; 0x1
0x000104c0:  e5842008      str	r2, [r4, #8]
0x000104c4:  e2832001      add	r2, r3, #1	; 0x1
0x000104c8:  e5842018      str	r2, [r4, #24]
0x000104cc:  e7d13003      ldrb	r3, [r1, r3]
0x000104d0:  e1a06003      mov	r6, r3
0x000104d4:  e5cd302d      strb	r3, [sp, #45]
0x000104d8:  e35600bf      cmp	r6, #191	; 0xbf
0x000104dc:  ca00012f      bgt	0x109a0

----------------
IN: parse.constprop.0
0x000109a0:  e35600df      cmp	r6, #223	; 0xdf
0x000109a4:  ca000016      bgt	0x10a04

----------------
IN: parse.constprop.0
0x00010a04:  e35600ff      cmp	r6, #255	; 0xff
0x00010a08:  0a0000a1      beq	0x10c94

----------------
IN: parse.constprop.0
0x00010a0c:  e2493008      sub	r3, r9, #8	; 0x8
0x00010a10:  e353000c      cmp	r3, #12	; 0xc
0x00010a14:  908ff103      addls	pc, pc, r3, lsl #2

----------------
IN: parse.constprop.0
0x00010a20:  ea000037      b	0x10b04

----------------
IN: parse.constprop.0
0x00010b04:  e6ef7076      uxtb	r7, r6
0x00010b08:  e1a00004      mov	r0, r4
0x00010b0c:  e1a01007      mov	r1, r7
0x00010b10:  e3a05001      mov	r5, #1	; 0x1
0x00010b14:  e3a0b002      mov	fp, #2	; 0x2
0x00010b18:  ebffe73e      bl	0xa818

----------------
IN: iobuf_set_partial_body_length_mode
0x0000a818:  e92d4070      push	{r4, r5, r6, lr}
0x0000a81c:  e1a04000      mov	r4, r0
0x0000a820:  e59f00b8      ldr	r0, [pc, #184]	; 0xa8e0
0x0000a824:  e1a05001      mov	r5, r1
0x0000a828:  e08f0000      add	r0, pc, r0
0x0000a82c:  eb001fad      bl	0x126e8

----------------
IN: iobuf_set_partial_body_length_mode
0x0000a830:  e3550000      cmp	r5, #0	; 0x0
0x0000a834:  1a000015      bne	0xa890

----------------
IN: iobuf_set_partial_body_length_mode
0x0000a890:  e3a01020      mov	r1, #32	; 0x20
0x0000a894:  e3a00001      mov	r0, #1	; 0x1
0x0000a898:  eb0015f5      bl	0x10074

----------------
IN: iobuf_set_partial_body_length_mode
0x0000a89c:  e5d41000      ldrb	r1, [r4]
0x0000a8a0:  e3a03001      mov	r3, #1	; 0x1
0x0000a8a4:  e580300c      str	r3, [r0, #12]
0x0000a8a8:  e3a03000      mov	r3, #0	; 0x0
0x0000a8ac:  e5801000      str	r1, [r0]
0x0000a8b0:  e1a06000      mov	r6, r0
0x0000a8b4:  e5803004      str	r3, [r0, #4]
0x0000a8b8:  e59f0030      ldr	r0, [pc, #48]	; 0xa8f0
0x0000a8bc:  e5865018      str	r5, [r6, #24]
0x0000a8c0:  e08f0000      add	r0, pc, r0
0x0000a8c4:  eb001f87      bl	0x126e8

----------------
IN: iobuf_set_partial_body_length_mode
0x0000a8c8:  e59f1024      ldr	r1, [pc, #36]	; 0xa8f4
0x0000a8cc:  e1a02006      mov	r2, r6
0x0000a8d0:  e1a00004      mov	r0, r4
0x0000a8d4:  e08f1001      add	r1, pc, r1
0x0000a8d8:  e8bd4070      pop	{r4, r5, r6, lr}
0x0000a8dc:  eafffa12      b	0x912c

----------------
IN: iobuf_push_filter
0x0000912c:  e92d4070      push	{r4, r5, r6, lr}
0x00009130:  e1a04000      mov	r4, r0
0x00009134:  e59f0028      ldr	r0, [pc, #40]	; 0x9164
0x00009138:  e1a05001      mov	r5, r1
0x0000913c:  e5d41000      ldrb	r1, [r4]
0x00009140:  e1a06002      mov	r6, r2
0x00009144:  e08f0000      add	r0, pc, r0
0x00009148:  eb002566      bl	0x126e8

----------------
IN: iobuf_push_filter
0x0000914c:  e1a02006      mov	r2, r6
0x00009150:  e1a01005      mov	r1, r5
0x00009154:  e1a00004      mov	r0, r4
0x00009158:  e3a03000      mov	r3, #0	; 0x0
0x0000915c:  e8bd4070      pop	{r4, r5, r6, lr}
0x00009160:  eaffff77      b	0x8f44

----------------
IN: iobuf_push_filter2
0x00008f44:  e92d43f0      push	{r4, r5, r6, r7, r8, r9, lr}
0x00008f48:  e24dd034      sub	sp, sp, #52	; 0x34
0x00008f4c:  e5d0c000      ldrb	ip, [r0]
0x00008f50:  e1a09003      mov	r9, r3
0x00008f54:  e59f81bc      ldr	r8, [pc, #444]	; 0x9118
0x00008f58:  e3a03000      mov	r3, #0	; 0x0
0x00008f5c:  e58d3008      str	r3, [sp, #8]
0x00008f60:  e35c0002      cmp	ip, #2	; 0x2
0x00008f64:  e08f8008      add	r8, pc, r8
0x00008f68:  e1a04000      mov	r4, r0
0x00008f6c:  e1a05001      mov	r5, r1
0x00008f70:  e1a07002      mov	r7, r2
0x00008f74:  0a00005c      beq	0x90ec

----------------
IN: iobuf_push_filter2
0x00008f78:  e5943044      ldr	r3, [r4, #68]
0x00008f7c:  e353003f      cmp	r3, #63	; 0x3f
0x00008f80:  ca000039      bgt	0x906c

----------------
IN: iobuf_push_filter2
0x00008f84:  e3a00048      mov	r0, #72	; 0x48
0x00008f88:  eb001c1c      bl	0x10000

----------------
IN: iobuf_push_filter2
0x00008f8c:  e3a02048      mov	r2, #72	; 0x48
0x00008f90:  e1a01004      mov	r1, r4
0x00008f94:  e1a06000      mov	r6, r0
0x00008f98:  eb001c46      bl	0x100b8

----------------
IN: iobuf_push_filter2
0x00008f9c:  e5d42000      ldrb	r2, [r4]
0x00008fa0:  e3a03000      mov	r3, #0	; 0x0
0x00008fa4:  e584302c      str	r3, [r4, #44]
0x00008fa8:  e5843030      str	r3, [r4, #48]
0x00008fac:  e3520003      cmp	r2, #3	; 0x3
0x00008fb0:  e5843034      str	r3, [r4, #52]
0x00008fb4:  e5843024      str	r3, [r4, #36]
0x00008fb8:  0a000026      beq	0x9058

----------------
IN: iobuf_push_filter2
0x00008fbc:  e3520001      cmp	r2, #1	; 0x1
0x00008fc0:  05c43000      strbeq	r3, [r4]
0x00008fc4:  03a00a02      moveq	r0, #8192	; 0x2000
0x00008fc8:  15940014      ldrne	r0, [r4, #20]
0x00008fcc:  05840014      streq	r0, [r4, #20]
0x00008fd0:  eb001c0a      bl	0x10000

----------------
IN: iobuf_push_filter2
0x00008fd4:  e1c620d8      ldrd	r2, [r6, #8]
0x00008fd8:  e584603c      str	r6, [r4, #60]
0x00008fdc:  e5966044      ldr	r6, [r6, #68]
0x00008fe0:  e0833002      add	r3, r3, r2
0x00008fe4:  e59f2130      ldr	r2, [pc, #304]	; 0x911c
0x00008fe8:  e2866001      add	r6, r6, #1	; 0x1
0x00008fec:  e584300c      str	r3, [r4, #12]
0x00008ff0:  e3a03000      mov	r3, #0	; 0x0
0x00008ff4:  e5840020      str	r0, [r4, #32]
0x00008ff8:  e5849034      str	r9, [r4, #52]
0x00008ffc:  e584502c      str	r5, [r4, #44]

----------------
IN: iobuf_push_filter2
0x00009000:  e5847030      str	r7, [r4, #48]
0x00009004:  e5846044      str	r6, [r4, #68]
0x00009008:  e584301c      str	r3, [r4, #28]
0x0000900c:  e5843018      str	r3, [r4, #24]
0x00009010:  e5843008      str	r3, [r4, #8]
0x00009014:  e5843004      str	r3, [r4, #4]
0x00009018:  e5843010      str	r3, [r4, #16]
0x0000901c:  e7988002      ldr	r8, [r8, r2]
0x00009020:  e5982000      ldr	r2, [r8]
0x00009024:  e1520003      cmp	r2, r3
0x00009028:  1a000015      bne	0x9084

----------------
IN: iobuf_push_filter2
0x0000902c:  e3550000      cmp	r5, #0	; 0x0
0x00009030:  0a000006      beq	0x9050

----------------
IN: iobuf_push_filter2
0x00009034:  e594203c      ldr	r2, [r4, #60]
0x00009038:  e28d1008      add	r1, sp, #8	; 0x8
0x0000903c:  e5940030      ldr	r0, [r4, #48]
0x00009040:  e3a03000      mov	r3, #0	; 0x0
0x00009044:  e58d1000      str	r1, [sp]
0x00009048:  e3a01001      mov	r1, #1	; 0x1
0x0000904c:  e12fff35      blx	r5

----------------
IN: block_filter
0x00009a88:  e59fc7e0      ldr	ip, [pc, #2016]	; 0xa270
0x00009a8c:  e92d4ff8      push	{r3, r4, r5, r6, r7, r8, r9, sl, fp, lr}
0x00009a90:  e1a06001      mov	r6, r1
0x00009a94:  e08fc00c      add	ip, pc, ip
0x00009a98:  e1a05000      mov	r5, r0
0x00009a9c:  e59fe7d0      ldr	lr, [pc, #2000]	; 0xa274
0x00009aa0:  e1a0100c      mov	r1, ip
0x00009aa4:  e59d8028      ldr	r8, [sp, #40]
0x00009aa8:  e1a07002      mov	r7, r2
0x00009aac:  e79c000e      ldr	r0, [ip, lr]
0x00009ab0:  e1a0a003      mov	sl, r3
0x00009ab4:  e7901106      ldr	r1, [r0, r6, lsl #2]
0x00009ab8:  e59f07b8      ldr	r0, [pc, #1976]	; 0xa278
0x00009abc:  e08f0000      add	r0, pc, r0
0x00009ac0:  eb002308      bl	0x126e8

----------------
IN: block_filter
0x00009ac4:  e5984000      ldr	r4, [r8]
0x00009ac8:  e3560003      cmp	r6, #3	; 0x3
0x00009acc:  0a000019      beq	0x9b38

----------------
IN: block_filter
0x00009ad0:  e3560004      cmp	r6, #4	; 0x4
0x00009ad4:  0a0000a9      beq	0x9d80

----------------
IN: block_filter
0x00009ad8:  e3560001      cmp	r6, #1	; 0x1
0x00009adc:  0a000004      beq	0x9af4

----------------
IN: block_filter
0x00009af4:  e595300c      ldr	r3, [r5, #12]
0x00009af8:  e3530000      cmp	r3, #0	; 0x0
0x00009afc:  13a03000      movne	r3, #0	; 0x0
0x00009b00:  15853008      strne	r3, [r5, #8]
0x00009b04:  1a000004      bne	0x9b1c

----------------
IN: block_filter
0x00009b1c:  e3a03000      mov	r3, #0	; 0x0
0x00009b20:  e585301c      str	r3, [r5, #28]
0x00009b24:  e1a09003      mov	r9, r3
0x00009b28:  e5853010      str	r3, [r5, #16]
0x00009b2c:  e1a00009      mov	r0, r9
0x00009b30:  e5853014      str	r3, [r5, #20]
0x00009b34:  e8bd8ff8      pop	{r3, r4, r5, r6, r7, r8, r9, sl, fp, pc}

----------------
IN: iobuf_push_filter2
0x00009050:  e28dd034      add	sp, sp, #52	; 0x34
0x00009054:  e8bd83f0      pop	{r4, r5, r6, r7, r8, r9, pc}

----------------
IN: parse.constprop.0
0x00010b1c:  eafffee3      b	0x106b0

----------------
IN: parse.constprop.0
0x000106b0:  e59f0c48      ldr	r0, [pc, #3144]	; 0x11300
0x000106b4:  e08f0000      add	r0, pc, r0
0x000106b8:  eb00080a      bl	0x126e8

----------------
IN: parse.constprop.0
0x000106bc:  e59f0c40      ldr	r0, [pc, #3136]	; 0x11304
0x000106c0:  e1a01006      mov	r1, r6
0x000106c4:  e08f0000      add	r0, pc, r0
0x000106c8:  eb000806      bl	0x126e8

----------------
IN: parse.constprop.0
0x000106cc:  e59f0c34      ldr	r0, [pc, #3124]	; 0x11308
0x000106d0:  e3a01000      mov	r1, #0	; 0x0
0x000106d4:  e08f0000      add	r0, pc, r0
0x000106d8:  eb000802      bl	0x126e8

----------------
IN: parse.constprop.0
0x000106dc:  e59f0c28      ldr	r0, [pc, #3112]	; 0x1130c
0x000106e0:  e3a01000      mov	r1, #0	; 0x0
0x000106e4:  e08f0000      add	r0, pc, r0
0x000106e8:  eb0007fe      bl	0x126e8

----------------
IN: parse.constprop.0
0x000106ec:  e59f0c1c      ldr	r0, [pc, #3100]	; 0x11310
0x000106f0:  e3a01000      mov	r1, #0	; 0x0
0x000106f4:  e08f0000      add	r0, pc, r0
0x000106f8:  eb0007fa      bl	0x126e8

----------------
IN: parse.constprop.0
0x000106fc:  e59f0c10      ldr	r0, [pc, #3088]	; 0x11314
0x00010700:  e1a01007      mov	r1, r7
0x00010704:  e08f0000      add	r0, pc, r0
0x00010708:  eb0007f6      bl	0x126e8

----------------
IN: parse.constprop.0
0x0001070c:  e59f0c04      ldr	r0, [pc, #3076]	; 0x11318
0x00010710:  e3a01000      mov	r1, #0	; 0x0
0x00010714:  e08f0000      add	r0, pc, r0
0x00010718:  eb0007f2      bl	0x126e8

----------------
IN: parse.constprop.0
0x0001071c:  e59f0bf8      ldr	r0, [pc, #3064]	; 0x1131c
0x00010720:  e3a01000      mov	r1, #0	; 0x0
0x00010724:  e08f0000      add	r0, pc, r0
0x00010728:  eb0007ee      bl	0x126e8

----------------
IN: parse.constprop.0
0x0001072c:  e59d30c4      ldr	r3, [sp, #196]
0x00010730:  e3530000      cmp	r3, #0	; 0x0
0x00010734:  03a05000      moveq	r5, #0	; 0x0
0x00010738:  12055001      andne	r5, r5, #1	; 0x1
0x0001073c:  e3550000      cmp	r5, #0	; 0x0
0x00010740:  03a0a001      moveq	sl, #1	; 0x1
0x00010744:  0a00003b      beq	0x10838

----------------
IN: parse.constprop.0
0x00010950:  ea000072      b	0x10b20

----------------
IN: parse.constprop.0
0x00010b20:  e59f0858      ldr	r0, [pc, #2136]	; 0x11380
0x00010b24:  e08f0000      add	r0, pc, r0
0x00010b28:  eb0006ee      bl	0x126e8

----------------
IN: parse.constprop.0
0x00010b2c:  e59f0850      ldr	r0, [pc, #2128]	; 0x11384
0x00010b30:  e1a01005      mov	r1, r5
0x00010b34:  e08f0000      add	r0, pc, r0
0x00010b38:  eb0006ea      bl	0x126e8

----------------
IN: parse.constprop.0
0x00010b3c:  e59f0844      ldr	r0, [pc, #2116]	; 0x11388
0x00010b40:  e08f0000      add	r0, pc, r0
0x00010b44:  eb0006e7      bl	0x126e8

----------------
IN: parse.constprop.0
0x00010b48:  e59f083c      ldr	r0, [pc, #2108]	; 0x1138c
0x00010b4c:  e1a01004      mov	r1, r4
0x00010b50:  e08f0000      add	r0, pc, r0
0x00010b54:  eb0006e3      bl	0x126e8

----------------
IN: parse.constprop.0
0x00010b58:  e59f0830      ldr	r0, [pc, #2096]	; 0x11390
0x00010b5c:  e2492012      sub	r2, r9, #18	; 0x12
0x00010b60:  e16f2f12      clz	r2, r2
0x00010b64:  e1a01009      mov	r1, r9
0x00010b68:  e08f0000      add	r0, pc, r0
0x00010b6c:  e1a022a2      lsr	r2, r2, #5
0x00010b70:  eb0006dc      bl	0x126e8

----------------
IN: parse.constprop.0
0x00010b74:  e59f0818      ldr	r0, [pc, #2072]	; 0x11394
0x00010b78:  e1a0100a      mov	r1, sl
0x00010b7c:  e08f0000      add	r0, pc, r0
0x00010b80:  eb0006d8      bl	0x126e8

----------------
IN: parse.constprop.0
0x00010b84:  e59f080c      ldr	r0, [pc, #2060]	; 0x11398
0x00010b88:  e5d41000      ldrb	r1, [r4]
0x00010b8c:  e08f0000      add	r0, pc, r0
0x00010b90:  eb0006d4      bl	0x126e8

----------------
IN: parse.constprop.0
0x00010b94:  e3a00014      mov	r0, #20	; 0x14
0x00010b98:  ebfffd18      bl	0x10000

----------------
IN: parse.constprop.0
0x00010b9c:  e59d300c      ldr	r3, [sp, #12]
0x00010ba0:  e3590012      cmp	r9, #18	; 0x12
0x00010ba4:  e1a07000      mov	r7, r0
0x00010ba8:  e5830004      str	r0, [r3, #4]
0x00010bac:  e59d3018      ldr	r3, [sp, #24]
0x00010bb0:  e5c0a009      strb	sl, [r0, #9]
0x00010bb4:  e5c03008      strb	r3, [r0, #8]
0x00010bb8:  e3a03000      mov	r3, #0	; 0x0
0x00010bbc:  e5803004      str	r3, [r0, #4]
0x00010bc0:  e5803010      str	r3, [r0, #16]
0x00010bc4:  e5c0300b      strb	r3, [r0, #11]
0x00010bc8:  e1c030bc      strh	r3, [r0, #12]
0x00010bcc:  15c0300a      strbne	r3, [r0, #10]
0x00010bd0:  11a03005      movne	r3, r5
0x00010bd4:  0a0002e9      beq	0x11780

----------------
IN: parse.constprop.0
0x00010bd8:  e2555000      subs	r5, r5, #0	; 0x0
0x00010bdc:  13a05001      movne	r5, #1	; 0x1
0x00010be0:  e3530009      cmp	r3, #9	; 0x9
0x00010be4:  83a05000      movhi	r5, #0	; 0x0
0x00010be8:  e3550000      cmp	r5, #0	; 0x0
0x00010bec:  1a000321      bne	0x11878

----------------
IN: parse.constprop.0
0x00010bf0:  e59f57a4      ldr	r5, [pc, #1956]	; 0x1139c
0x00010bf4:  e1a01003      mov	r1, r3
0x00010bf8:  e5873000      str	r3, [r7]
0x00010bfc:  e08f5005      add	r5, pc, r5

----------------
IN: parse.constprop.0
0x00010c00:  e1a00005      mov	r0, r5
0x00010c04:  eb0006b7      bl	0x126e8

----------------
IN: parse.constprop.0
0x00010c08:  e5971000      ldr	r1, [r7]
0x00010c0c:  e3510000      cmp	r1, #0	; 0x0
0x00010c10:  1a00030f      bne	0x11854

----------------
IN: parse.constprop.0
0x00010c14:  e59f0784      ldr	r0, [pc, #1924]	; 0x113a0
0x00010c18:  e1a01007      mov	r1, r7
0x00010c1c:  e08f0000      add	r0, pc, r0
0x00010c20:  eb0006b0      bl	0x126e8

----------------
IN: parse.constprop.0
0x00010c24:  e59f0778      ldr	r0, [pc, #1912]	; 0x113a4
0x00010c28:  e1a01004      mov	r1, r4
0x00010c2c:  e08f0000      add	r0, pc, r0
0x00010c30:  eb0006ac      bl	0x126e8

----------------
IN: parse.constprop.0
0x00010c34:  e59f076c      ldr	r0, [pc, #1900]	; 0x113a8
0x00010c38:  e3a01000      mov	r1, #0	; 0x0
0x00010c3c:  e5874010      str	r4, [r7, #16]
0x00010c40:  e08f0000      add	r0, pc, r0
0x00010c44:  eb0006a7      bl	0x126e8

----------------
IN: parse.constprop.0
0x00010c48:  e1a01008      mov	r1, r8
0x00010c4c:  e3a00000      mov	r0, #0	; 0x0
0x00010c50:  ebffee7e      bl	0xc650

----------------
IN: parse.constprop.0
0x00010c54:  e2493005      sub	r3, r9, #5	; 0x5
0x00010c58:  e3530001      cmp	r3, #1	; 0x1
0x00010c5c:  93866001      orrls	r6, r6, #1	; 0x1
0x00010c60:  e3560000      cmp	r6, #0	; 0x0
0x00010c64:  0a0000c8      beq	0x10f8c

----------------
IN: parse.constprop.0
0x00010f8c:  e3590002      cmp	r9, #2	; 0x2
0x00010f90:  13590011      cmpne	r9, #17	; 0x11
0x00010f94:  0affff33      beq	0x10c68

----------------
IN: do_proc_packets
0x0000f8b8:  ea00003c      b	0xf9b0

----------------
IN: do_proc_packets
0x0000f9b0:  e1a0000b      mov	r0, fp
0x0000f9b4:  eb000b4b      bl	0x126e8

----------------
IN: do_proc_packets
0x0000f9b8:  e5d53000      ldrb	r3, [r5]
0x0000f9bc:  e59d2018      ldr	r2, [sp, #24]
0x0000f9c0:  e3530014      cmp	r3, #20	; 0x14
0x0000f9c4:  e592a000      ldr	sl, [r2]
0x0000f9c8:  03a03001      moveq	r3, #1	; 0x1
0x0000f9cc:  05843054      streq	r3, [r4, #84]
0x0000f9d0:  0a000002      beq	0xf9e0

----------------
IN: do_proc_packets
0x0000f9d4:  e3530012      cmp	r3, #18	; 0x12
0x0000f9d8:  03a03001      moveq	r3, #1	; 0x1
0x0000f9dc:  05843058      streq	r3, [r4, #88]
0x0000f9e0:  e35a0000      cmp	sl, #0	; 0x0
0x0000f9e4:  1a00005b      bne	0xfb58

----------------
IN: do_proc_packets
0x0000f9e8:  e5941048      ldr	r1, [r4, #72]
0x0000f9ec:  e3510001      cmp	r1, #1	; 0x1
0x0000f9f0:  8a000038      bhi	0xfad8

----------------
IN: do_proc_packets
0x0000f9f4:  0a0000c5      beq	0xfd10

----------------
IN: do_proc_packets
0x0000fd10:  e59f0070      ldr	r0, [pc, #112]	; 0xfd88
0x0000fd14:  e08f0000      add	r0, pc, r0
0x0000fd18:  eb000a72      bl	0x126e8

----------------
IN: do_proc_packets
0x0000fd1c:  eaffff35      b	0xf9f8

----------------
IN: do_proc_packets
0x0000f9f8:  e5951004      ldr	r1, [r5, #4]
0x0000f9fc:  e1a00009      mov	r0, r9
0x0000fa00:  eb000b38      bl	0x126e8

----------------
IN: do_proc_packets
0x0000fa04:  e594302c      ldr	r3, [r4, #44]
0x0000fa08:  e28d1024      add	r1, sp, #36	; 0x24
0x0000fa0c:  e5952004      ldr	r2, [r5, #4]
0x0000fa10:  e5940000      ldr	r0, [r4]
0x0000fa14:  e58d1000      str	r1, [sp]
0x0000fa18:  e1a01004      mov	r1, r4
0x0000fa1c:  ebfff1d5      bl	0xc178

----------------
IN: decrypt_data
0x0000c178:  e92d4ff0      push	{r4, r5, r6, r7, r8, r9, sl, fp, lr}
0x0000c17c:  e24dd03c      sub	sp, sp, #60	; 0x3c
0x0000c180:  e1a08000      mov	r8, r0
0x0000c184:  e3a06000      mov	r6, #0	; 0x0
0x0000c188:  e59f0370      ldr	r0, [pc, #880]	; 0xc500
0x0000c18c:  e1a04002      mov	r4, r2
0x0000c190:  e59d7060      ldr	r7, [sp, #96]
0x0000c194:  e1a05003      mov	r5, r3
0x0000c198:  e08f0000      add	r0, pc, r0
0x0000c19c:  e58d100c      str	r1, [sp, #12]
0x0000c1a0:  eb001950      bl	0x126e8

----------------
IN: decrypt_data
0x0000c1a4:  e5876000      str	r6, [r7]
0x0000c1a8:  e3a01080      mov	r1, #128	; 0x80
0x0000c1ac:  e3a00001      mov	r0, #1	; 0x1
0x0000c1b0:  eb00100d      bl	0x101ec

----------------
IN: xtrycalloc
0x000101ec:  e3500000      cmp	r0, #0	; 0x0
0x000101f0:  13510000      cmpne	r1, #0	; 0x0
0x000101f4:  e92d4070      push	{r4, r5, r6, lr}
0x000101f8:  e0050091      mul	r5, r1, r0
0x000101fc:  0a000002      beq	0x1020c

----------------
IN: xtrycalloc
0x00010200:  e730f015      udiv	r0, r5, r0
0x00010204:  e1500001      cmp	r0, r1
0x00010208:  1a000008      bne	0x10230

----------------
IN: xtrycalloc
0x0001020c:  e1a00005      mov	r0, r5
0x00010210:  ebffff0d      bl	0xfe4c

----------------
IN: xtrycalloc
0x00010214:  e2504000      subs	r4, r0, #0	; 0x0
0x00010218:  0a000002      beq	0x10228

----------------
IN: xtrycalloc
0x0001021c:  e1a02005      mov	r2, r5
0x00010220:  e3a01000      mov	r1, #0	; 0x0
0x00010224:  ebffff6c      bl	0xffdc

----------------
IN: xtrycalloc
0x00010228:  e1a00004      mov	r0, r4
0x0001022c:  e8bd8070      pop	{r4, r5, r6, pc}

----------------
IN: decrypt_data
0x0000c1b4:  e1500006      cmp	r0, r6
0x0000c1b8:  e58d0014      str	r0, [sp, #20]
0x0000c1bc:  0a0000cd      beq	0xc4f8

----------------
IN: decrypt_data
0x0000c1c0:  e5d02050      ldrb	r2, [r0, #80]
0x0000c1c4:  e1a03000      mov	r3, r0
0x0000c1c8:  e7c02016      bfi	r2, r6, #0, #1
0x0000c1cc:  e5c02050      strb	r2, [r0, #80]
0x0000c1d0:  e3a02001      mov	r2, #1	; 0x1
0x0000c1d4:  e5981020      ldr	r1, [r8, #32]
0x0000c1d8:  e5801078      str	r1, [r0, #120]
0x0000c1dc:  e59f0320      ldr	r0, [pc, #800]	; 0xc504
0x0000c1e0:  e5832000      str	r2, [r3]
0x0000c1e4:  e08f0000      add	r0, pc, r0
0x0000c1e8:  eb00193e      bl	0x126e8

----------------
IN: decrypt_data
0x0000c1ec:  e59f1314      ldr	r1, [pc, #788]	; 0xc508
0x0000c1f0:  e3a00017      mov	r0, #23	; 0x17
0x0000c1f4:  e58d6000      str	r6, [sp]
0x0000c1f8:  e08f1001      add	r1, pc, r1
0x0000c1fc:  e5953000      ldr	r3, [r5]
0x0000c200:  e5d4200a      ldrb	r2, [r4, #10]
0x0000c204:  eb001937      bl	0x126e8

----------------
IN: decrypt_data
0x0000c208:  e5d4600b      ldrb	r6, [r4, #11]
0x0000c20c:  e3560000      cmp	r6, #0	; 0x0
0x0000c210:  1a000061      bne	0xc39c

----------------
IN: decrypt_data
0x0000c214:  e5943000      ldr	r3, [r4]
0x0000c218:  e2433001      sub	r3, r3, #1	; 0x1
0x0000c21c:  e3530008      cmp	r3, #8	; 0x8
0x0000c220:  9a00008c      bls	0xc458

----------------
IN: decrypt_data
0x0000c224:  e3a02004      mov	r2, #4	; 0x4
0x0000c228:  e1a01006      mov	r1, r6
0x0000c22c:  e28d0014      add	r0, sp, #20	; 0x14
0x0000c230:  eb000f69      bl	0xffdc

----------------
IN: decrypt_data
0x0000c234:  e59d7014      ldr	r7, [sp, #20]
0x0000c238:  e3a00040      mov	r0, #64	; 0x40
0x0000c23c:  eb000f02      bl	0xfe4c

----------------
IN: decrypt_data
0x0000c240:  e59d3014      ldr	r3, [sp, #20]
0x0000c244:  e5870004      str	r0, [r7, #4]
0x0000c248:  e5930004      ldr	r0, [r3, #4]
0x0000c24c:  e3500000      cmp	r0, #0	; 0x0
0x0000c250:  0a0000a8      beq	0xc4f8

----------------
IN: decrypt_data
0x0000c254:  e3a02040      mov	r2, #64	; 0x40
0x0000c258:  e1a01006      mov	r1, r6
0x0000c25c:  eb000f5e      bl	0xffdc

----------------
IN: decrypt_data
0x0000c260:  e59d3014      ldr	r3, [sp, #20]
0x0000c264:  e2851009      add	r1, r5, #9	; 0x9
0x0000c268:  e5952004      ldr	r2, [r5, #4]
0x0000c26c:  e5930004      ldr	r0, [r3, #4]
0x0000c270:  eb0007c0      bl	0xe178

----------------
IN: _gcry_cipher_setkey
0x0000e178:  e92d41f0      push	{r4, r5, r6, r7, r8, lr}
0x0000e17c:  e1a05000      mov	r5, r0
0x0000e180:  e59f6060      ldr	r6, [pc, #96]	; 0xe1e8
0x0000e184:  e2855030      add	r5, r5, #48	; 0x30
0x0000e188:  e59f005c      ldr	r0, [pc, #92]	; 0xe1ec
0x0000e18c:  e3a07000      mov	r7, #0	; 0x0
0x0000e190:  e08f6006      add	r6, pc, r6
0x0000e194:  e1a04001      mov	r4, r1
0x0000e198:  e08f0000      add	r0, pc, r0
0x0000e19c:  eb001151      bl	0x126e8

----------------
IN: _gcry_cipher_setkey
0x0000e1a0:  e5d42001      ldrb	r2, [r4, #1]
0x0000e1a4:  e1a01007      mov	r1, r7
0x0000e1a8:  e5d40000      ldrb	r0, [r4]
0x0000e1ac:  e2877001      add	r7, r7, #1	; 0x1
0x0000e1b0:  e5d4c002      ldrb	ip, [r4, #2]
0x0000e1b4:  e2844004      add	r4, r4, #4	; 0x4
0x0000e1b8:  e1a02802      lsl	r2, r2, #16
0x0000e1bc:  e5543001      ldrb	r3, [r4, #-1]
0x0000e1c0:  e0822c00      add	r2, r2, r0, lsl #24
0x0000e1c4:  e1a00006      mov	r0, r6
0x0000e1c8:  e082240c      add	r2, r2, ip, lsl #8
0x0000e1cc:  e0822003      add	r2, r2, r3
0x0000e1d0:  e4852004      str	r2, [r5], #4
0x0000e1d4:  eb001143      bl	0x126e8

----------------
IN: _gcry_cipher_setkey
0x0000e1d8:  e3570004      cmp	r7, #4	; 0x4
0x0000e1dc:  1affffef      bne	0xe1a0

----------------
IN: _gcry_cipher_setkey
0x0000e1e0:  e3a00000      mov	r0, #0	; 0x0
0x0000e1e4:  e8bd81f0      pop	{r4, r5, r6, r7, r8, pc}

----------------
IN: decrypt_data
0x0000c274:  e5943010      ldr	r3, [r4, #16]
0x0000c278:  e1a07000      mov	r7, r0
0x0000c27c:  e3530000      cmp	r3, #0	; 0x0
0x0000c280:  0a00006d      beq	0xc43c

----------------
IN: decrypt_data
0x0000c284:  e59d3014      ldr	r3, [sp, #20]
0x0000c288:  e1a01006      mov	r1, r6
0x0000c28c:  e3a02008      mov	r2, #8	; 0x8
0x0000c290:  e5930004      ldr	r0, [r3, #4]
0x0000c294:  eb0007d8      bl	0xe1fc

----------------
IN: _gcry_cipher_setiv
0x0000e1fc:  e92d4070      push	{r4, r5, r6, lr}
0x0000e200:  e1a04000      mov	r4, r0
0x0000e204:  e59f0044      ldr	r0, [pc, #68]	; 0xe250
0x0000e208:  e1a05001      mov	r5, r1
0x0000e20c:  e1a01002      mov	r1, r2
0x0000e210:  e1a06002      mov	r6, r2
0x0000e214:  e08f0000      add	r0, pc, r0
0x0000e218:  eb001132      bl	0x126e8

----------------
IN: _gcry_cipher_setiv
0x0000e21c:  e3550000      cmp	r5, #0	; 0x0
0x0000e220:  e3a03000      mov	r3, #0	; 0x0
0x0000e224:  e5843020      str	r3, [r4, #32]
0x0000e228:  e1a02006      mov	r2, r6
0x0000e22c:  e1a01005      mov	r1, r5
0x0000e230:  e1a00004      mov	r0, r4
0x0000e234:  0a000002      beq	0xe244

----------------
IN: _gcry_cipher_setiv
0x0000e244:  eb000764      bl	0xffdc

----------------
IN: _gcry_cipher_setiv
0x0000e248:  e3a00000      mov	r0, #0	; 0x0
0x0000e24c:  e8bd8070      pop	{r4, r5, r6, pc}

----------------
IN: decrypt_data
0x0000c298:  e5941000      ldr	r1, [r4]
0x0000c29c:  e3510000      cmp	r1, #0	; 0x0
0x0000c2a0:  1a000070      bne	0xc468

----------------
IN: decrypt_data
0x0000c2a4:  e59fb260      ldr	fp, [pc, #608]	; 0xc50c
0x0000c2a8:  e28d6017      add	r6, sp, #23	; 0x17
0x0000c2ac:  e28da021      add	sl, sp, #33	; 0x21
0x0000c2b0:  e08fb00b      add	fp, pc, fp
0x0000c2b4:  ea00000b      b	0xc2e8

----------------
IN: decrypt_data
0x0000c2e8:  e5943010      ldr	r3, [r4, #16]
0x0000c2ec:  e5932010      ldr	r2, [r3, #16]
0x0000c2f0:  e1a00003      mov	r0, r3
0x0000c2f4:  e3520000      cmp	r2, #0	; 0x0
0x0000c2f8:  1a000004      bne	0xc310

----------------
IN: decrypt_data
0x0000c2fc:  e5931018      ldr	r1, [r3, #24]
0x0000c300:  e593201c      ldr	r2, [r3, #28]
0x0000c304:  e1510002      cmp	r1, r2
0x0000c308:  e2812001      add	r2, r1, #1	; 0x1
0x0000c30c:  3affffe9      bcc	0xc2b8

----------------
IN: decrypt_data
0x0000c310:  ebfff451      bl	0x945c

----------------
IN: iobuf_readbyte
0x0000945c:  e92d40f0      push	{r4, r5, r6, r7, lr}
0x00009460:  e24dd01c      sub	sp, sp, #28	; 0x1c
0x00009464:  e59f62c4      ldr	r6, [pc, #708]	; 0x9730
0x00009468:  e1a04000      mov	r4, r0
0x0000946c:  e58d000c      str	r0, [sp, #12]
0x00009470:  e5d00000      ldrb	r0, [r0]
0x00009474:  e08f6006      add	r6, pc, r6
0x00009478:  e2403002      sub	r3, r0, #2	; 0x2
0x0000947c:  e3530001      cmp	r3, #1	; 0x1
0x00009480:  9a00009e      bls	0x9700

----------------
IN: iobuf_readbyte
0x00009484:  e5943004      ldr	r3, [r4, #4]
0x00009488:  e3530000      cmp	r3, #0	; 0x0
0x0000948c:  1a00000d      bne	0x94c8

----------------
IN: iobuf_readbyte
0x00009490:  e5941018      ldr	r1, [r4, #24]
0x00009494:  e594201c      ldr	r2, [r4, #28]
0x00009498:  e1510002      cmp	r1, r2
0x0000949c:  2a00000e      bcs	0x94dc

----------------
IN: iobuf_readbyte
0x000094dc:  e3500001      cmp	r0, #1	; 0x1
0x000094e0:  0afffffb      beq	0x94d4

----------------
IN: iobuf_readbyte
0x000094e4:  e5940020      ldr	r0, [r4, #32]
0x000094e8:  e0422001      sub	r2, r2, r1
0x000094ec:  e584201c      str	r2, [r4, #28]
0x000094f0:  e0801001      add	r1, r0, r1
0x000094f4:  eb001b15      bl	0x10150

----------------
IN: memmove
0x00010150:  e1500001      cmp	r0, r1
0x00010154:  9a00000b      bls	0x10188

----------------
IN: memmove
0x00010188:  e3520000      cmp	r2, #0	; 0x0
0x0001018c:  012fff1e      bxeq	lr

----------------
IN: iobuf_readbyte
0x000094f8:  e594301c      ldr	r3, [r4, #28]
0x000094fc:  e3a02000      mov	r2, #0	; 0x0
0x00009500:  e5842018      str	r2, [r4, #24]
0x00009504:  e1530002      cmp	r3, r2
0x00009508:  0a00000a      beq	0x9538

----------------
IN: iobuf_readbyte
0x00009538:  e5942024      ldr	r2, [r4, #36]
0x0000953c:  e3520000      cmp	r2, #0	; 0x0
0x00009540:  0a000015      beq	0x959c

----------------
IN: iobuf_readbyte
0x0000959c:  e5942028      ldr	r2, [r4, #40]
0x000095a0:  e3520000      cmp	r2, #0	; 0x0
0x000095a4:  1affffca      bne	0x94d4

----------------
IN: iobuf_readbyte
0x000095a8:  e594502c      ldr	r5, [r4, #44]
0x000095ac:  e3550000      cmp	r5, #0	; 0x0
0x000095b0:  0affffc7      beq	0x94d4

----------------
IN: iobuf_readbyte
0x000095b4:  e5942014      ldr	r2, [r4, #20]
0x000095b8:  e0422003      sub	r2, r2, r3
0x000095bc:  e58d2010      str	r2, [sp, #16]
0x000095c0:  e3520000      cmp	r2, #0	; 0x0
0x000095c4:  0a000042      beq	0x96d4

----------------
IN: iobuf_readbyte
0x000095c8:  e5942020      ldr	r2, [r4, #32]
0x000095cc:  e28d1010      add	r1, sp, #16	; 0x10
0x000095d0:  e5940030      ldr	r0, [r4, #48]
0x000095d4:  e0823003      add	r3, r2, r3
0x000095d8:  e594203c      ldr	r2, [r4, #60]
0x000095dc:  e58d1000      str	r1, [sp]
0x000095e0:  e3a01003      mov	r1, #3	; 0x3
0x000095e4:  e12fff35      blx	r5

----------------
IN: block_filter
0x00009b38:  e59f073c      ldr	r0, [pc, #1852]	; 0xa27c
0x00009b3c:  e1a01004      mov	r1, r4
0x00009b40:  e08f0000      add	r0, pc, r0
0x00009b44:  eb0022e7      bl	0x126e8

----------------
IN: block_filter
0x00009b48:  e1a00004      mov	r0, r4
0x00009b4c:  eb0022e5      bl	0x126e8

----------------
IN: block_filter
0x00009b50:  e595901c      ldr	r9, [r5, #28]
0x00009b54:  e3590000      cmp	r9, #0	; 0x0
0x00009b58:  13a06000      movne	r6, #0	; 0x0
0x00009b5c:  13e09000      mvnne	r9, #0	; 0x0
0x00009b60:  1a00001f      bne	0x9be4

----------------
IN: block_filter
0x00009b64:  e3540000      cmp	r4, #0	; 0x0
0x00009b68:  0a0001b0      beq	0xa230

----------------
IN: block_filter
0x00009b6c:  e5953004      ldr	r3, [r5, #4]
0x00009b70:  e3530000      cmp	r3, #0	; 0x0
0x00009b74:  e1a06003      mov	r6, r3
0x00009b78:  11a06009      movne	r6, r9
0x00009b7c:  0a00001b      beq	0x9bf0

----------------
IN: block_filter
0x00009bf0:  e595200c      ldr	r2, [r5, #12]
0x00009bf4:  e3520002      cmp	r2, #2	; 0x2
0x00009bf8:  0a000049      beq	0x9d24

----------------
IN: block_filter
0x00009bfc:  e3520000      cmp	r2, #0	; 0x0

----------------
IN: block_filter
0x00009c00:  0affffde      beq	0x9b80

----------------
IN: block_filter
0x00009c04:  e5953018      ldr	r3, [r5, #24]
0x00009c08:  e3530000      cmp	r3, #0	; 0x0
0x00009c0c:  0a00000f      beq	0x9c50

----------------
IN: block_filter
0x00009c10:  e35300bf      cmp	r3, #191	; 0xbf
0x00009c14:  e3a02000      mov	r2, #0	; 0x0
0x00009c18:  e5852018      str	r2, [r5, #24]
0x00009c1c:  ca00001b      bgt	0x9c90

----------------
IN: block_filter
0x00009c90:  e35300df      cmp	r3, #223	; 0xdf
0x00009c94:  ca000032      bgt	0x9d64

----------------
IN: block_filter
0x00009d64:  e35300ff      cmp	r3, #255	; 0xff
0x00009d68:  0a00005a      beq	0x9ed8

----------------
IN: block_filter
0x00009d6c:  e203301f      and	r3, r3, #31	; 0x1f
0x00009d70:  e3a02001      mov	r2, #1	; 0x1
0x00009d74:  e1a03312      lsl	r3, r2, r3
0x00009d78:  e5853004      str	r3, [r5, #4]
0x00009d7c:  eaffff7f      b	0x9b80

----------------
IN: block_filter
0x00009b80:  e1a02003      mov	r2, r3
0x00009b84:  e3520000      cmp	r2, #0	; 0x0
0x00009b88:  e1a0100a      mov	r1, sl
0x00009b8c:  e1a00007      mov	r0, r7
0x00009b90:  0a000016      beq	0x9bf0

----------------
IN: block_filter
0x00009b94:  e1520004      cmp	r2, r4
0x00009b98:  31a0b002      movcc	fp, r2
0x00009b9c:  21a0b004      movcs	fp, r4
0x00009ba0:  e1a0200b      mov	r2, fp
0x00009ba4:  ebfffee5      bl	0x9740

----------------
IN: iobuf_read
0x00009740:  e92d41f0      push	{r4, r5, r6, r7, r8, lr}
0x00009744:  e1a06000      mov	r6, r0
0x00009748:  e59f0138      ldr	r0, [pc, #312]	; 0x9888
0x0000974c:  e1a07002      mov	r7, r2
0x00009750:  e5962004      ldr	r2, [r6, #4]
0x00009754:  e1a04001      mov	r4, r1
0x00009758:  e08f0000      add	r0, pc, r0
0x0000975c:  e1a01007      mov	r1, r7
0x00009760:  eb0023e0      bl	0x126e8

----------------
IN: iobuf_read
0x00009764:  e5d63000      ldrb	r3, [r6]
0x00009768:  e2433002      sub	r3, r3, #2	; 0x2
0x0000976c:  e3530001      cmp	r3, #1	; 0x1
0x00009770:  9a00003f      bls	0x9874

----------------
IN: iobuf_read
0x00009774:  e5965004      ldr	r5, [r6, #4]
0x00009778:  e3550000      cmp	r5, #0	; 0x0
0x0000977c:  0a000011      beq	0x97c8

----------------
IN: iobuf_read
0x000097c8:  e1550007      cmp	r5, r7
0x000097cc:  3a00001a      bcc	0x983c

----------------
IN: iobuf_read
0x0000983c:  e5963018      ldr	r3, [r6, #24]
0x00009840:  e596201c      ldr	r2, [r6, #28]
0x00009844:  e0478005      sub	r8, r7, r5
0x00009848:  e1530002      cmp	r3, r2
0x0000984c:  e0421003      sub	r1, r2, r3
0x00009850:  3affffe3      bcc	0x97e4

----------------
IN: iobuf_read
0x000097e4:  e1580001      cmp	r8, r1
0x000097e8:  21a08001      movcs	r8, r1
0x000097ec:  e3540000      cmp	r4, #0	; 0x0
0x000097f0:  e0832008      add	r2, r3, r8
0x000097f4:  0a000019      beq	0x9860

----------------
IN: iobuf_read
0x000097f8:  e5961020      ldr	r1, [r6, #32]
0x000097fc:  e1a00004      mov	r0, r4

----------------
IN: iobuf_read
0x00009800:  e0855008      add	r5, r5, r8
0x00009804:  e1a02008      mov	r2, r8
0x00009808:  e0811003      add	r1, r1, r3
0x0000980c:  e0844008      add	r4, r4, r8
0x00009810:  eb001a28      bl	0x100b8

----------------
IN: iobuf_read
0x00009814:  e5963018      ldr	r3, [r6, #24]
0x00009818:  e1570005      cmp	r7, r5
0x0000981c:  e0833008      add	r3, r3, r8
0x00009820:  e5863018      str	r3, [r6, #24]
0x00009824:  9affffe9      bls	0x97d0

----------------
IN: iobuf_read
0x00009828:  e3a03000      mov	r3, #0	; 0x0
0x0000982c:  e4c43001      strb	r3, [r4], #1
0x00009830:  e2855001      add	r5, r5, #1	; 0x1
0x00009834:  e1550007      cmp	r5, r7
0x00009838:  2affffe4      bcs	0x97d0

----------------
IN: iobuf_read
0x00009854:  e3540000      cmp	r4, #0	; 0x0
0x00009858:  1afffff2      bne	0x9828

----------------
IN: iobuf_read
0x000097d0:  e5963008      ldr	r3, [r6, #8]
0x000097d4:  e0833005      add	r3, r3, r5
0x000097d8:  e5863008      str	r3, [r6, #8]
0x000097dc:  e1a00005      mov	r0, r5
0x000097e0:  e8bd81f0      pop	{r4, r5, r6, r7, r8, pc}

----------------
IN: block_filter
0x00009ba8:  e15b0000      cmp	fp, r0
0x00009bac:  e08aa000      add	sl, sl, r0
0x00009bb0:  da00001e      ble	0x9c30

----------------
IN: block_filter
0x00009c30:  e5953004      ldr	r3, [r5, #4]
0x00009c34:  e0544000      subs	r4, r4, r0
0x00009c38:  e0432000      sub	r2, r3, r0
0x00009c3c:  e0866000      add	r6, r6, r0
0x00009c40:  e1a03002      mov	r3, r2
0x00009c44:  e5852004      str	r2, [r5, #4]
0x00009c48:  1affffcd      bne	0x9b84

----------------
IN: block_filter
0x00009b84:  e3520000      cmp	r2, #0	; 0x0
0x00009b88:  e1a0100a      mov	r1, sl
0x00009b8c:  e1a00007      mov	r0, r7
0x00009b90:  0a000016      beq	0x9bf0

----------------
IN: block_filter
0x00009c50:  e5973010      ldr	r3, [r7, #16]
0x00009c54:  e3530000      cmp	r3, #0	; 0x0
0x00009c58:  1a000037      bne	0x9d3c

----------------
IN: block_filter
0x00009c5c:  e5973018      ldr	r3, [r7, #24]
0x00009c60:  e597201c      ldr	r2, [r7, #28]
0x00009c64:  e1530002      cmp	r3, r2
0x00009c68:  2a000033      bcs	0x9d3c

----------------
IN: block_filter
0x00009d3c:  e1a00007      mov	r0, r7
0x00009d40:  ebfffdc5      bl	0x945c

----------------
IN: iobuf_readbyte
0x000094d4:  e3e05000      mvn	r5, #0	; 0x0
0x000094d8:  eafffff7      b	0x94bc

----------------
IN: iobuf_readbyte
0x000094bc:  e1a00005      mov	r0, r5
0x000094c0:  e28dd01c      add	sp, sp, #28	; 0x1c
0x000094c4:  e8bd80f0      pop	{r4, r5, r6, r7, pc}

----------------
IN: block_filter
0x00009d44:  e3700001      cmn	r0, #1	; 0x1
0x00009d48:  e1a03000      mov	r3, r0
0x00009d4c:  1affffcd      bne	0x9c88

----------------
IN: block_filter
0x00009d50:  e59f052c      ldr	r0, [pc, #1324]	; 0xa284
0x00009d54:  e3a09059      mov	r9, #89	; 0x59
0x00009d58:  e08f0000      add	r0, pc, r0
0x00009d5c:  eb002261      bl	0x126e8

----------------
IN: block_filter
0x00009d60:  eaffff9f      b	0x9be4

----------------
IN: block_filter
0x00009be4:  e5886000      str	r6, [r8]
0x00009be8:  e1a00009      mov	r0, r9
0x00009bec:  e8bd8ff8      pop	{r3, r4, r5, r6, r7, r8, r9, sl, fp, pc}

----------------
IN: iobuf_readbyte
0x000095e8:  e594201c      ldr	r2, [r4, #28]
0x000095ec:  e3700001      cmn	r0, #1	; 0x1
0x000095f0:  e59d3010      ldr	r3, [sp, #16]
0x000095f4:  e1a05000      mov	r5, r0
0x000095f8:  e0823003      add	r3, r2, r3
0x000095fc:  e584301c      str	r3, [r4, #28]
0x00009600:  1a00002d      bne	0x96bc

----------------
IN: iobuf_readbyte
0x000096bc:  e3500000      cmp	r0, #0	; 0x0
0x000096c0:  0a000002      beq	0x96d0

----------------
IN: iobuf_readbyte
0x000096c4:  e5840028      str	r0, [r4, #40]
0x000096c8:  e3530000      cmp	r3, #0	; 0x0
0x000096cc:  0affff80      beq	0x94d4

----------------
IN: iobuf_readbyte
0x000096d0:  e5942018      ldr	r2, [r4, #24]
0x000096d4:  e1520003      cmp	r2, r3
0x000096d8:  3affff91      bcc	0x9524

----------------
IN: iobuf_readbyte
0x00009524:  e5943020      ldr	r3, [r4, #32]
0x00009528:  e2821001      add	r1, r2, #1	; 0x1
0x0000952c:  e5841018      str	r1, [r4, #24]
0x00009530:  e7d35002      ldrb	r5, [r3, r2]
0x00009534:  eaffffdd      b	0x94b0

----------------
IN: iobuf_readbyte
0x000094b0:  e5943008      ldr	r3, [r4, #8]
0x000094b4:  e2833001      add	r3, r3, #1	; 0x1
0x000094b8:  e5843008      str	r3, [r4, #8]
0x000094bc:  e1a00005      mov	r0, r5
0x000094c0:  e28dd01c      add	sp, sp, #28	; 0x1c
0x000094c4:  e8bd80f0      pop	{r4, r5, r6, r7, pc}

----------------
IN: decrypt_data
0x0000c314:  e3700001      cmn	r0, #1	; 0x1
0x0000c318:  e1a01000      mov	r1, r0
0x0000c31c:  e6ef9070      uxtb	r9, r0
0x0000c320:  15942010      ldrne	r2, [r4, #16]
0x0000c324:  15922018      ldrne	r2, [r2, #24]
0x0000c328:  1affffe9      bne	0xc2d4

----------------
IN: decrypt_data
0x0000c2d4:  e1a0000b      mov	r0, fp
0x0000c2d8:  eb001902      bl	0x126e8

----------------
IN: decrypt_data
0x0000c2dc:  e5e69001      strb	r9, [r6, #1]!
0x0000c2e0:  e15a0006      cmp	sl, r6
0x0000c2e4:  0a000010      beq	0xc32c

----------------
IN: decrypt_data
0x0000c2b8:  e5930008      ldr	r0, [r3, #8]
0x0000c2bc:  e593c020      ldr	ip, [r3, #32]
0x0000c2c0:  e5832018      str	r2, [r3, #24]
0x0000c2c4:  e2800001      add	r0, r0, #1	; 0x1
0x0000c2c8:  e5830008      str	r0, [r3, #8]
0x0000c2cc:  e7dc9001      ldrb	r9, [ip, r1]
0x0000c2d0:  e1a01009      mov	r1, r9
0x0000c2d4:  e1a0000b      mov	r0, fp
0x0000c2d8:  eb001902      bl	0x126e8

----------------
IN: decrypt_data
0x0000c32c:  e59d3014      ldr	r3, [sp, #20]
0x0000c330:  e3a0200a      mov	r2, #10	; 0xa
0x0000c334:  e28d1018      add	r1, sp, #24	; 0x18
0x0000c338:  e5930004      ldr	r0, [r3, #4]
0x0000c33c:  e3a03000      mov	r3, #0	; 0x0
0x0000c340:  e58d3000      str	r3, [sp]
0x0000c344:  eb000a84      bl	0xed5c

----------------
IN: _gcry_cipher_decrypt
0x0000ed5c:  e92d41f0      push	{r4, r5, r6, r7, r8, lr}
0x0000ed60:  e1a07000      mov	r7, r0
0x0000ed64:  e59d6018      ldr	r6, [sp, #24]
0x0000ed68:  e1a04002      mov	r4, r2
0x0000ed6c:  e59f0084      ldr	r0, [pc, #132]	; 0xedf8
0x0000ed70:  e1a08001      mov	r8, r1
0x0000ed74:  e1a02006      mov	r2, r6
0x0000ed78:  e1a01003      mov	r1, r3
0x0000ed7c:  e08f0000      add	r0, pc, r0
0x0000ed80:  e1a05003      mov	r5, r3
0x0000ed84:  eb000e57      bl	0x126e8

----------------
IN: _gcry_cipher_decrypt
0x0000ed88:  e59f006c      ldr	r0, [pc, #108]	; 0xedfc
0x0000ed8c:  e1a02004      mov	r2, r4
0x0000ed90:  e5973020      ldr	r3, [r7, #32]
0x0000ed94:  e1a01006      mov	r1, r6
0x0000ed98:  e08f0000      add	r0, pc, r0
0x0000ed9c:  eb000e51      bl	0x126e8

----------------
IN: _gcry_cipher_decrypt
0x0000eda0:  e3550000      cmp	r5, #0	; 0x0
0x0000eda4:  0a00000d      beq	0xede0

----------------
IN: _gcry_cipher_decrypt
0x0000ede0:  e59f001c      ldr	r0, [pc, #28]	; 0xee04
0x0000ede4:  e1a06004      mov	r6, r4
0x0000ede8:  e1a05008      mov	r5, r8
0x0000edec:  e08f0000      add	r0, pc, r0
0x0000edf0:  eb000e3c      bl	0x126e8

----------------
IN: _gcry_cipher_decrypt
0x0000edf4:  eafffff2      b	0xedc4

----------------
IN: _gcry_cipher_decrypt
0x0000edc4:  e58d6018      str	r6, [sp, #24]
0x0000edc8:  e1a03005      mov	r3, r5
0x0000edcc:  e1a02004      mov	r2, r4
0x0000edd0:  e1a01008      mov	r1, r8
0x0000edd4:  e1a00007      mov	r0, r7
0x0000edd8:  e8bd41f0      pop	{r4, r5, r6, r7, r8, lr}
0x0000eddc:  eafffd82      b	0xe3ec

----------------
IN: _gcry_cipher_cfb_decrypt
0x0000e3ec:  e92d4ff0      push	{r4, r5, r6, r7, r8, r9, sl, fp, lr}
0x0000e3f0:  e1a0b000      mov	fp, r0
0x0000e3f4:  e59f08bc      ldr	r0, [pc, #2236]	; 0xecb8
0x0000e3f8:  e24dd07c      sub	sp, sp, #124	; 0x7c
0x0000e3fc:  e59f68b8      ldr	r6, [pc, #2232]	; 0xecbc

----------------
IN: _gcry_cipher_cfb_decrypt
0x0000e400:  e24b5001      sub	r5, fp, #1	; 0x1
0x0000e404:  e08f0000      add	r0, pc, r0
0x0000e408:  e28b4007      add	r4, fp, #7	; 0x7
0x0000e40c:  e58d1030      str	r1, [sp, #48]
0x0000e410:  e1a07005      mov	r7, r5
0x0000e414:  e59d10a0      ldr	r1, [sp, #160]
0x0000e418:  e58d3034      str	r3, [sp, #52]
0x0000e41c:  e3a03001      mov	r3, #1	; 0x1
0x0000e420:  e58d202c      str	r2, [sp, #44]
0x0000e424:  eb0010af      bl	0x126e8

----------------
IN: _gcry_cipher_cfb_decrypt
0x0000e428:  e59f0890      ldr	r0, [pc, #2192]	; 0xecc0
0x0000e42c:  e08f6006      add	r6, pc, r6
0x0000e430:  e08f0000      add	r0, pc, r0
0x0000e434:  eb0010ab      bl	0x126e8

----------------
IN: _gcry_cipher_cfb_decrypt
0x0000e438:  e5f71001      ldrb	r1, [r7, #1]!
0x0000e43c:  e1a00006      mov	r0, r6
0x0000e440:  eb0010a8      bl	0x126e8

----------------
IN: _gcry_cipher_cfb_decrypt
0x0000e444:  e1570004      cmp	r7, r4
0x0000e448:  1afffffa      bne	0xe438

----------------
IN: _gcry_cipher_cfb_decrypt
0x0000e44c:  e59f0870      ldr	r0, [pc, #2160]	; 0xecc4
0x0000e450:  e08f0000      add	r0, pc, r0
0x0000e454:  eb0010a3      bl	0x126e8

----------------
IN: _gcry_cipher_cfb_decrypt
0x0000e458:  e59d30a0      ldr	r3, [sp, #160]
0x0000e45c:  e59d202c      ldr	r2, [sp, #44]
0x0000e460:  e1530002      cmp	r3, r2
0x0000e464:  83e04000      mvnhi	r4, #0	; 0x0
0x0000e468:  8a00007a      bhi	0xe658

----------------
IN: _gcry_cipher_cfb_decrypt
0x0000e46c:  e59b3020      ldr	r3, [fp, #32]
0x0000e470:  e59d20a0      ldr	r2, [sp, #160]
0x0000e474:  e1530002      cmp	r3, r2
0x0000e478:  2a0001ed      bcs	0xec34

----------------
IN: _gcry_cipher_cfb_decrypt
0x0000e47c:  e3530000      cmp	r3, #0	; 0x0
0x0000e480:  1a0000f5      bne	0xe85c

----------------
IN: _gcry_cipher_cfb_decrypt
0x0000e484:  e59d30a0      ldr	r3, [sp, #160]
0x0000e488:  e353000f      cmp	r3, #15	; 0xf
0x0000e48c:  8a000074      bhi	0xe664

----------------
IN: _gcry_cipher_cfb_decrypt
0x0000e490:  e59d402c      ldr	r4, [sp, #44]
0x0000e494:  e3a03000      mov	r3, #0	; 0x0
0x0000e498:  e59f0828      ldr	r0, [pc, #2088]	; 0xecc8
0x0000e49c:  e59d10a0      ldr	r1, [sp, #160]
0x0000e4a0:  e1a02004      mov	r2, r4
0x0000e4a4:  e08f0000      add	r0, pc, r0
0x0000e4a8:  eb00108e      bl	0x126e8

----------------
IN: _gcry_cipher_cfb_decrypt
0x0000e4ac:  e59d30a0      ldr	r3, [sp, #160]
0x0000e4b0:  e3530007      cmp	r3, #7	; 0x7
0x0000e4b4:  9a0001f2      bls	0xec84

----------------
IN: _gcry_cipher_cfb_decrypt
0x0000e4b8:  e59f080c      ldr	r0, [pc, #2060]	; 0xeccc
0x0000e4bc:  e1a02004      mov	r2, r4
0x0000e4c0:  e59b3020      ldr	r3, [fp, #32]
0x0000e4c4:  e28d5050      add	r5, sp, #80	; 0x50
0x0000e4c8:  e08f0000      add	r0, pc, r0
0x0000e4cc:  e28d6048      add	r6, sp, #72	; 0x48
0x0000e4d0:  e59d10a0      ldr	r1, [sp, #160]
0x0000e4d4:  e59f77f4      ldr	r7, [pc, #2036]	; 0xecd0
0x0000e4d8:  eb001082      bl	0x126e8

----------------
IN: _gcry_cipher_cfb_decrypt
0x0000e4dc:  e59d30a0      ldr	r3, [sp, #160]
0x0000e4e0:  e3a02008      mov	r2, #8	; 0x8
0x0000e4e4:  e08f7007      add	r7, pc, r7
0x0000e4e8:  e1a0100b      mov	r1, fp
0x0000e4ec:  e28b0010      add	r0, fp, #16	; 0x10
0x0000e4f0:  e2434008      sub	r4, r3, #8	; 0x8
0x0000e4f4:  ebfffe0e      bl	0xdd34

----------------
IN: cipher_block_cpy
0x0000dd34:  e3520008      cmp	r2, #8	; 0x8
0x0000dd38:  e92d41f0      push	{r4, r5, r6, r7, r8, lr}
0x0000dd3c:  e1a04000      mov	r4, r0
0x0000dd40:  e1a05001      mov	r5, r1
0x0000dd44:  e1a00001      mov	r0, r1
0x0000dd48:  0a000017      beq	0xddac

----------------
IN: cipher_block_cpy
0x0000ddac:  ebffffa5      bl	0xdc48

----------------
IN: buf_get_le32
0x0000dc48:  e3500000      cmp	r0, #0	; 0x0
0x0000dc4c:  012fff1e      bxeq	lr

----------------
IN: buf_get_le32
0x0000dc50:  e5d01000      ldrb	r1, [r0]
0x0000dc54:  e5d02001      ldrb	r2, [r0, #1]
0x0000dc58:  e5d03002      ldrb	r3, [r0, #2]
0x0000dc5c:  e5d0c003      ldrb	ip, [r0, #3]
0x0000dc60:  e1a00803      lsl	r0, r3, #16
0x0000dc64:  e1800c0c      orr	r0, r0, ip, lsl #24
0x0000dc68:  e1800001      orr	r0, r0, r1
0x0000dc6c:  e1800402      orr	r0, r0, r2, lsl #8
0x0000dc70:  e12fff1e      bx	lr

----------------
IN: cipher_block_cpy
0x0000ddb0:  e1a06000      mov	r6, r0
0x0000ddb4:  e2850004      add	r0, r5, #4	; 0x4
0x0000ddb8:  ebffffa2      bl	0xdc48

----------------
IN: cipher_block_cpy
0x0000ddbc:  e1a05000      mov	r5, r0
0x0000ddc0:  e1a01006      mov	r1, r6
0x0000ddc4:  e1a00004      mov	r0, r4
0x0000ddc8:  ebffffa9      bl	0xdc74

----------------
IN: buf_put_le32
0x0000dc74:  e1a0cc21      lsr	ip, r1, #24
0x0000dc78:  e1a02821      lsr	r2, r1, #16
0x0000dc7c:  e1a03421      lsr	r3, r1, #8
0x0000dc80:  e5c0c003      strb	ip, [r0, #3]
0x0000dc84:  e5c02002      strb	r2, [r0, #2]
0x0000dc88:  e5c03001      strb	r3, [r0, #1]
0x0000dc8c:  e5c01000      strb	r1, [r0]
0x0000dc90:  e12fff1e      bx	lr

----------------
IN: cipher_block_cpy
0x0000ddcc:  e1a01005      mov	r1, r5
0x0000ddd0:  e2840004      add	r0, r4, #4	; 0x4
0x0000ddd4:  e8bd41f0      pop	{r4, r5, r6, r7, r8, lr}
0x0000ddd8:  eaffffa5      b	0xdc74

----------------
IN: _gcry_cipher_cfb_decrypt
0x0000e4f8:  e1a0100b      mov	r1, fp
0x0000e4fc:  e1a00005      mov	r0, r5
0x0000e500:  ebffffa7      bl	0xe3a4

----------------
IN: blockFromBytes
0x0000e3a4:  e3a0c000      mov	ip, #0	; 0x0
0x0000e3a8:  e3a03001      mov	r3, #1	; 0x1
0x0000e3ac:  e52de004      push	{lr}		; (str lr, [sp, #-4]!)
0x0000e3b0:  e1a0e00c      mov	lr, ip
0x0000e3b4:  ea000001      b	0xe3c0

----------------
IN: blockFromBytes
0x0000e3c0:  e2432001      sub	r2, r3, #1	; 0x1
0x0000e3c4:  e3520003      cmp	r2, #3	; 0x3
0x0000e3c8:  e5d12000      ldrb	r2, [r1]
0x0000e3cc:  9182e40e      orrls	lr, r2, lr, lsl #8
0x0000e3d0:  9afffff8      bls	0xe3b8

----------------
IN: blockFromBytes
0x0000e3b8:  e2833001      add	r3, r3, #1	; 0x1
0x0000e3bc:  e2811001      add	r1, r1, #1	; 0x1
0x0000e3c0:  e2432001      sub	r2, r3, #1	; 0x1
0x0000e3c4:  e3520003      cmp	r2, #3	; 0x3
0x0000e3c8:  e5d12000      ldrb	r2, [r1]
0x0000e3cc:  9182e40e      orrls	lr, r2, lr, lsl #8
0x0000e3d0:  9afffff8      bls	0xe3b8

----------------
IN: blockFromBytes
0x0000e3d4:  e182c40c      orr	ip, r2, ip, lsl #8
0x0000e3d8:  e3530008      cmp	r3, #8	; 0x8
0x0000e3dc:  1afffff5      bne	0xe3b8

----------------
IN: blockFromBytes
0x0000e3e0:  e580e000      str	lr, [r0]
0x0000e3e4:  e580c004      str	ip, [r0, #4]
0x0000e3e8:  e49df004      pop	{pc}		; (ldr pc, [sp], #4)

----------------
IN: _gcry_cipher_cfb_decrypt
0x0000e504:  e59d2054      ldr	r2, [sp, #84]
0x0000e508:  e1a00007      mov	r0, r7
0x0000e50c:  e59d1050      ldr	r1, [sp, #80]
0x0000e510:  eb001074      bl	0x126e8

----------------
IN: _gcry_cipher_cfb_decrypt
0x0000e514:  e3a03000      mov	r3, #0	; 0x0
0x0000e518:  e1a00006      mov	r0, r6
0x0000e51c:  e58d3000      str	r3, [sp]
0x0000e520:  e28b1030      add	r1, fp, #48	; 0x30
0x0000e524:  e895000c      ldm	r5, {r2, r3}
0x0000e528:  ebffff73      bl	0xe2fc

----------------
IN: encrypt
0x0000e2fc:  e92d4010      push	{r4, lr}
0x0000e300:  e24dd010      sub	sp, sp, #16	; 0x10
0x0000e304:  e1a04000      mov	r4, r0
0x0000e308:  e59dc018      ldr	ip, [sp, #24]
0x0000e30c:  e58dc004      str	ip, [sp, #4]
0x0000e310:  e28dc008      add	ip, sp, #8	; 0x8
0x0000e314:  e88c000c      stm	ip, {r2, r3}
0x0000e318:  e3a03000      mov	r3, #0	; 0x0
0x0000e31c:  e58d3000      str	r3, [sp]
0x0000e320:  e89c000c      ldm	ip, {r2, r3}
0x0000e324:  ebfff8e8      bl	0xc6cc

----------------
IN: run
0x0000c6cc:  e92d4ff0      push	{r4, r5, r6, r7, r8, r9, sl, fp, lr}
0x0000c6d0:  e24ddf75      sub	sp, sp, #468	; 0x1d4
0x0000c6d4:  e59fcff0      ldr	ip, [pc, #4080]	; 0xd6cc
0x0000c6d8:  e3a05000      mov	r5, #0	; 0x0
0x0000c6dc:  e58d0060      str	r0, [sp, #96]
0x0000c6e0:  e28d00a0      add	r0, sp, #160	; 0xa0
0x0000c6e4:  e08fc00c      add	ip, pc, ip
0x0000c6e8:  e1a04001      mov	r4, r1
0x0000c6ec:  e880000c      stm	r0, {r2, r3}
0x0000c6f0:  e59d30a4      ldr	r3, [sp, #164]
0x0000c6f4:  e28d00a8      add	r0, sp, #168	; 0xa8
0x0000c6f8:  e58d206c      str	r2, [sp, #108]
0x0000c6fc:  e3a02010      mov	r2, #16	; 0x10
0x0000c700:  e58d3070      str	r3, [sp, #112]
0x0000c704:  e58dc064      str	ip, [sp, #100]
0x0000c708:  e58d0074      str	r0, [sp, #116]
0x0000c70c:  e58d50a8      str	r5, [sp, #168]
0x0000c710:  e5805004      str	r5, [r0, #4]
0x0000c714:  e5805008      str	r5, [r0, #8]
0x0000c718:  e580500c      str	r5, [r0, #12]
0x0000c71c:  eb000e65      bl	0x100b8

----------------
IN: run
0x0000c720:  e59d31fc      ldr	r3, [sp, #508]
0x0000c724:  e58d50b8      str	r5, [sp, #184]
0x0000c728:  e1530005      cmp	r3, r5
0x0000c72c:  e28d30b8      add	r3, sp, #184	; 0xb8
0x0000c730:  e58d50bc      str	r5, [sp, #188]
0x0000c734:  e58d50c0      str	r5, [sp, #192]
0x0000c738:  e58d50c4      str	r5, [sp, #196]
0x0000c73c:  e58d3078      str	r3, [sp, #120]
0x0000c740:  1a00042c      bne	0xd7f8

----------------
IN: run
0x0000c744:  e59f4f84      ldr	r4, [pc, #3972]	; 0xd6d0
0x0000c748:  e3a02080      mov	r2, #128	; 0x80
0x0000c74c:  e59f3f80      ldr	r3, [pc, #3968]	; 0xd6d4
0x0000c750:  e3a01000      mov	r1, #0	; 0x0
0x0000c754:  e08f4004      add	r4, pc, r4
0x0000c758:  e28d0e15      add	r0, sp, #336	; 0x150
0x0000c75c:  e08f3003      add	r3, pc, r3
0x0000c760:  e58d307c      str	r3, [sp, #124]
0x0000c764:  e58d4080      str	r4, [sp, #128]
0x0000c768:  eb000e1b      bl	0xffdc

----------------
IN: run
0x0000c76c:  e59d2064      ldr	r2, [sp, #100]
0x0000c770:  e59f3f60      ldr	r3, [pc, #3936]	; 0xd6d8
0x0000c774:  e7929003      ldr	r9, [r2, r3]
0x0000c778:  e59f3f5c      ldr	r3, [pc, #3932]	; 0xd6dc
0x0000c77c:  e792a003      ldr	sl, [r2, r3]
0x0000c780:  e59f3f58      ldr	r3, [pc, #3928]	; 0xd6e0
0x0000c784:  e7928003      ldr	r8, [r2, r3]
0x0000c788:  e59f3f54      ldr	r3, [pc, #3924]	; 0xd6e4
0x0000c78c:  e792b003      ldr	fp, [r2, r3]
0x0000c790:  e3a03000      mov	r3, #0	; 0x0
0x0000c794:  e58d301c      str	r3, [sp, #28]
0x0000c798:  e28d2e16      add	r2, sp, #352	; 0x160
0x0000c79c:  e58d3038      str	r3, [sp, #56]
0x0000c7a0:  e28d30c8      add	r3, sp, #200	; 0xc8
0x0000c7a4:  e58d3068      str	r3, [sp, #104]
0x0000c7a8:  e284300f      add	r3, r4, #15	; 0xf
0x0000c7ac:  e58d3084      str	r3, [sp, #132]
0x0000c7b0:  e1a0300a      mov	r3, sl
0x0000c7b4:  e58d2018      str	r2, [sp, #24]
0x0000c7b8:  e1a0a009      mov	sl, r9
0x0000c7bc:  e1a09003      mov	r9, r3
0x0000c7c0:  e59d31fc      ldr	r3, [sp, #508]
0x0000c7c4:  e3530000      cmp	r3, #0	; 0x0
0x0000c7c8:  1a000383      bne	0xd5dc

----------------
IN: run
0x0000c7cc:  e59d21fc      ldr	r2, [sp, #508]
0x0000c7d0:  e5dd30b6      ldrb	r3, [sp, #182]
0x0000c7d4:  e59d10a8      ldr	r1, [sp, #168]
0x0000c7d8:  e3520000      cmp	r2, #0	; 0x0
0x0000c7dc:  e5dd20b4      ldrb	r2, [sp, #180]
0x0000c7e0:  e79a3103      ldr	r3, [sl, r3, lsl #2]
0x0000c7e4:  e7992102      ldr	r2, [r9, r2, lsl #2]
0x0000c7e8:  e0233002      eor	r3, r3, r2
0x0000c7ec:  e5dd20b7      ldrb	r2, [sp, #183]
0x0000c7f0:  e0233001      eor	r3, r3, r1
0x0000c7f4:  e7982102      ldr	r2, [r8, r2, lsl #2]
0x0000c7f8:  e0233002      eor	r3, r3, r2
0x0000c7fc:  e5dd20b5      ldrb	r2, [sp, #181]

----------------
IN: run
0x0000c800:  e79b2102      ldr	r2, [fp, r2, lsl #2]
0x0000c804:  e0233002      eor	r3, r3, r2
0x0000c808:  e5dd20b3      ldrb	r2, [sp, #179]
0x0000c80c:  e7982102      ldr	r2, [r8, r2, lsl #2]
0x0000c810:  e0236002      eor	r6, r3, r2
0x0000c814:  e5dd30b1      ldrb	r3, [sp, #177]
0x0000c818:  e1a01c26      lsr	r1, r6, #24
0x0000c81c:  e59d20b0      ldr	r2, [sp, #176]
0x0000c820:  e79b3103      ldr	r3, [fp, r3, lsl #2]
0x0000c824:  e7e75456      ubfx	r5, r6, #8, #8
0x0000c828:  e0233002      eor	r3, r3, r2
0x0000c82c:  e79a2101      ldr	r2, [sl, r1, lsl #2]
0x0000c830:  e58d1020      str	r1, [sp, #32]
0x0000c834:  e0233002      eor	r3, r3, r2
0x0000c838:  e7992105      ldr	r2, [r9, r5, lsl #2]
0x0000c83c:  e7e71856      ubfx	r1, r6, #16, #8
0x0000c840:  e0233002      eor	r3, r3, r2
0x0000c844:  e6ef2076      uxtb	r2, r6
0x0000c848:  e58d1030      str	r1, [sp, #48]
0x0000c84c:  e7981101      ldr	r1, [r8, r1, lsl #2]
0x0000c850:  e58d2024      str	r2, [sp, #36]
0x0000c854:  e79b2102      ldr	r2, [fp, r2, lsl #2]
0x0000c858:  e0233001      eor	r3, r3, r1
0x0000c85c:  e0232002      eor	r2, r3, r2
0x0000c860:  e5dd30b2      ldrb	r3, [sp, #178]
0x0000c864:  e6ef0072      uxtb	r0, r2
0x0000c868:  e58d1034      str	r1, [sp, #52]
0x0000c86c:  e79a1103      ldr	r1, [sl, r3, lsl #2]
0x0000c870:  e59d30b4      ldr	r3, [sp, #180]
0x0000c874:  e7e7c452      ubfx	ip, r2, #8, #8
0x0000c878:  e0211003      eor	r1, r1, r3
0x0000c87c:  e79a3100      ldr	r3, [sl, r0, lsl #2]
0x0000c880:  e58d203c      str	r2, [sp, #60]
0x0000c884:  e0211003      eor	r1, r1, r3
0x0000c888:  e1a03002      mov	r3, r2
0x0000c88c:  e58d20bc      str	r2, [sp, #188]
0x0000c890:  e7e72852      ubfx	r2, r2, #16, #8
0x0000c894:  e58d0028      str	r0, [sp, #40]
0x0000c898:  e58dc02c      str	ip, [sp, #44]
0x0000c89c:  e58d60b8      str	r6, [sp, #184]
0x0000c8a0:  e58d2044      str	r2, [sp, #68]
0x0000c8a4:  e799010c      ldr	r0, [r9, ip, lsl #2]
0x0000c8a8:  e0211000      eor	r1, r1, r0
0x0000c8ac:  e58d0040      str	r0, [sp, #64]
0x0000c8b0:  e1a00c23      lsr	r0, r3, #24
0x0000c8b4:  e7983102      ldr	r3, [r8, r2, lsl #2]
0x0000c8b8:  e79b2100      ldr	r2, [fp, r0, lsl #2]
0x0000c8bc:  e0211003      eor	r1, r1, r3
0x0000c8c0:  e58d204c      str	r2, [sp, #76]
0x0000c8c4:  e0212002      eor	r2, r1, r2
0x0000c8c8:  e58d0048      str	r0, [sp, #72]
0x0000c8cc:  e7e70452      ubfx	r0, r2, #8, #8
0x0000c8d0:  e5dd10b0      ldrb	r1, [sp, #176]
0x0000c8d4:  e79a7100      ldr	r7, [sl, r0, lsl #2]
0x0000c8d8:  e7e70852      ubfx	r0, r2, #16, #8
0x0000c8dc:  e7991101      ldr	r1, [r9, r1, lsl #2]
0x0000c8e0:  e799c100      ldr	ip, [r9, r0, lsl #2]
0x0000c8e4:  e58d0054      str	r0, [sp, #84]
0x0000c8e8:  e59d00ac      ldr	r0, [sp, #172]
0x0000c8ec:  e58d2050      str	r2, [sp, #80]
0x0000c8f0:  e0211000      eor	r1, r1, r0
0x0000c8f4:  e1a00002      mov	r0, r2
0x0000c8f8:  e58d20c0      str	r2, [sp, #192]
0x0000c8fc:  e6ef2072      uxtb	r2, r2
0x0000c900:  e0211007      eor	r1, r1, r7
0x0000c904:  e021100c      eor	r1, r1, ip
0x0000c908:  e58dc058      str	ip, [sp, #88]
0x0000c90c:  e1a0cc20      lsr	ip, r0, #24
0x0000c910:  e7980102      ldr	r0, [r8, r2, lsl #2]
0x0000c914:  e58dc05c      str	ip, [sp, #92]
0x0000c918:  e0211000      eor	r1, r1, r0
0x0000c91c:  e79b010c      ldr	r0, [fp, ip, lsl #2]
0x0000c920:  e0214000      eor	r4, r1, r0
0x0000c924:  e58d40c4      str	r4, [sp, #196]
0x0000c928:  1a0003dc      bne	0xd8a0

----------------
IN: run
0x0000c92c:  e59d1040      ldr	r1, [sp, #64]
0x0000c930:  e59de018      ldr	lr, [sp, #24]
0x0000c934:  e0211003      eor	r1, r1, r3
0x0000c938:  e59d005c      ldr	r0, [sp, #92]
0x0000c93c:  e1a03001      mov	r3, r1
0x0000c940:  e59d104c      ldr	r1, [sp, #76]
0x0000c944:  e79a0100      ldr	r0, [sl, r0, lsl #2]
0x0000c948:  e0233001      eor	r3, r3, r1
0x0000c94c:  e0277003      eor	r7, r7, r3
0x0000c950:  e59d302c      ldr	r3, [sp, #44]
0x0000c954:  e59d1054      ldr	r1, [sp, #84]
0x0000c958:  e79b3103      ldr	r3, [fp, r3, lsl #2]
0x0000c95c:  e7981101      ldr	r1, [r8, r1, lsl #2]
0x0000c960:  e58d302c      str	r3, [sp, #44]
0x0000c964:  e7993102      ldr	r3, [r9, r2, lsl #2]
0x0000c968:  e59d21fc      ldr	r2, [sp, #508]
0x0000c96c:  e0277003      eor	r7, r7, r3
0x0000c970:  e7e73454      ubfx	r3, r4, #8, #8
0x0000c974:  e3520000      cmp	r2, #0	; 0x0
0x0000c978:  e50e700c      str	r7, [lr, #-12]
0x0000c97c:  e79ac103      ldr	ip, [sl, r3, lsl #2]
0x0000c980:  e59d3028      ldr	r3, [sp, #40]
0x0000c984:  e59d702c      ldr	r7, [sp, #44]
0x0000c988:  e7983103      ldr	r3, [r8, r3, lsl #2]
0x0000c98c:  e79ae105      ldr	lr, [sl, r5, lsl #2]
0x0000c990:  e0233007      eor	r3, r3, r7
0x0000c994:  e79b7105      ldr	r7, [fp, r5, lsl #2]
0x0000c998:  e59d5058      ldr	r5, [sp, #88]
0x0000c99c:  e023300e      eor	r3, r3, lr
0x0000c9a0:  e0233005      eor	r3, r3, r5
0x0000c9a4:  e59de018      ldr	lr, [sp, #24]
0x0000c9a8:  e0233000      eor	r3, r3, r0
0x0000c9ac:  e50e3010      str	r3, [lr, #-16]
0x0000c9b0:  e59d3024      ldr	r3, [sp, #36]
0x0000c9b4:  e59d0034      ldr	r0, [sp, #52]
0x0000c9b8:  e7983103      ldr	r3, [r8, r3, lsl #2]
0x0000c9bc:  e1a02c24      lsr	r2, r4, #24
0x0000c9c0:  e0233007      eor	r3, r3, r7
0x0000c9c4:  e0211003      eor	r1, r1, r3
0x0000c9c8:  e59d3020      ldr	r3, [sp, #32]
0x0000c9cc:  e58d7040      str	r7, [sp, #64]
0x0000c9d0:  e79b3103      ldr	r3, [fp, r3, lsl #2]
0x0000c9d4:  e0200003      eor	r0, r0, r3
0x0000c9d8:  e6ef3074      uxtb	r3, r4
0x0000c9dc:  e02cc000      eor	ip, ip, r0
0x0000c9e0:  e7993103      ldr	r3, [r9, r3, lsl #2]
0x0000c9e4:  e79a0102      ldr	r0, [sl, r2, lsl #2]
0x0000c9e8:  e02cc003      eor	ip, ip, r3
0x0000c9ec:  e7e73854      ubfx	r3, r4, #16, #8
0x0000c9f0:  e0211000      eor	r1, r1, r0
0x0000c9f4:  e7993103      ldr	r3, [r9, r3, lsl #2]
0x0000c9f8:  e0211003      eor	r1, r1, r3
0x0000c9fc:  e50e1008      str	r1, [lr, #-8]
0x0000ca00:  e79b3102      ldr	r3, [fp, r2, lsl #2]
0x0000ca04:  e02cc003      eor	ip, ip, r3
0x0000ca08:  e59d301c      ldr	r3, [sp, #28]
0x0000ca0c:  e50ec004      str	ip, [lr, #-4]
0x0000ca10:  e2832003      add	r2, r3, #3	; 0x3
0x0000ca14:  1a0003e3      bne	0xd9a8

----------------
IN: run
0x0000ca18:  e59d3040      ldr	r3, [sp, #64]
0x0000ca1c:  e59d202c      ldr	r2, [sp, #44]
0x0000ca20:  e0266003      eor	r6, r6, r3
0x0000ca24:  e59d3044      ldr	r3, [sp, #68]
0x0000ca28:  e79a3103      ldr	r3, [sl, r3, lsl #2]
0x0000ca2c:  e0222003      eor	r2, r2, r3
0x0000ca30:  e1a03002      mov	r3, r2
0x0000ca34:  e59d2020      ldr	r2, [sp, #32]
0x0000ca38:  e7982102      ldr	r2, [r8, r2, lsl #2]
0x0000ca3c:  e0233002      eor	r3, r3, r2
0x0000ca40:  e59d2028      ldr	r2, [sp, #40]
0x0000ca44:  e7992102      ldr	r2, [r9, r2, lsl #2]
0x0000ca48:  e0233002      eor	r3, r3, r2
0x0000ca4c:  e59d2048      ldr	r2, [sp, #72]
0x0000ca50:  e7982102      ldr	r2, [r8, r2, lsl #2]
0x0000ca54:  e0233002      eor	r3, r3, r2
0x0000ca58:  e59d2050      ldr	r2, [sp, #80]
0x0000ca5c:  e0233002      eor	r3, r3, r2
0x0000ca60:  e59d2030      ldr	r2, [sp, #48]
0x0000ca64:  e1a00c23      lsr	r0, r3, #24
0x0000ca68:  e79ae102      ldr	lr, [sl, r2, lsl #2]
0x0000ca6c:  e59d203c      ldr	r2, [sp, #60]
0x0000ca70:  e7e7c853      ubfx	ip, r3, #16, #8
0x0000ca74:  e022200e      eor	r2, r2, lr
0x0000ca78:  e58d30a8      str	r3, [sp, #168]
0x0000ca7c:  e1a0e002      mov	lr, r2
0x0000ca80:  e59d2024      ldr	r2, [sp, #36]
0x0000ca84:  e7991102      ldr	r1, [r9, r2, lsl #2]
0x0000ca88:  e59d21fc      ldr	r2, [sp, #508]
0x0000ca8c:  e0247001      eor	r7, r4, r1
0x0000ca90:  e3520000      cmp	r2, #0	; 0x0
0x0000ca94:  e7e72453      ubfx	r2, r3, #8, #8
0x0000ca98:  e6ef3073      uxtb	r3, r3
0x0000ca9c:  e7991102      ldr	r1, [r9, r2, lsl #2]
0x0000caa0:  e79a2100      ldr	r2, [sl, r0, lsl #2]
0x0000caa4:  e79b3103      ldr	r3, [fp, r3, lsl #2]
0x0000caa8:  e0266002      eor	r6, r6, r2
0x0000caac:  e798210c      ldr	r2, [r8, ip, lsl #2]
0x0000cab0:  e0266001      eor	r6, r6, r1
0x0000cab4:  e0222006      eor	r2, r2, r6
0x0000cab8:  e0222003      eor	r2, r2, r3
0x0000cabc:  e7e75852      ubfx	r5, r2, #16, #8
0x0000cac0:  e6ef3072      uxtb	r3, r2
0x0000cac4:  e58d20ac      str	r2, [sp, #172]
0x0000cac8:  e79a3103      ldr	r3, [sl, r3, lsl #2]
0x0000cacc:  e58d1024      str	r1, [sp, #36]
0x0000cad0:  e02ee003      eor	lr, lr, r3
0x0000cad4:  e7e73452      ubfx	r3, r2, #8, #8
0x0000cad8:  e1a02c22      lsr	r2, r2, #24
0x0000cadc:  e7993103      ldr	r3, [r9, r3, lsl #2]
0x0000cae0:  e79b1102      ldr	r1, [fp, r2, lsl #2]
0x0000cae4:  e02ee003      eor	lr, lr, r3
0x0000cae8:  e58d3028      str	r3, [sp, #40]
0x0000caec:  e7983105      ldr	r3, [r8, r5, lsl #2]
0x0000caf0:  e023300e      eor	r3, r3, lr
0x0000caf4:  e0233001      eor	r3, r3, r1
0x0000caf8:  e7e74453      ubfx	r4, r3, #8, #8
0x0000cafc:  e6ef1073      uxtb	r1, r3
0x0000cb00:  e7e7e853      ubfx	lr, r3, #16, #8
0x0000cb04:  e7986101      ldr	r6, [r8, r1, lsl #2]
0x0000cb08:  e79a1104      ldr	r1, [sl, r4, lsl #2]
0x0000cb0c:  e58d30b0      str	r3, [sp, #176]
0x0000cb10:  e0211007      eor	r1, r1, r7
0x0000cb14:  e799710e      ldr	r7, [r9, lr, lsl #2]
0x0000cb18:  e1a03c23      lsr	r3, r3, #24
0x0000cb1c:  e0211007      eor	r1, r1, r7
0x0000cb20:  e0266001      eor	r6, r6, r1
0x0000cb24:  e79b1103      ldr	r1, [fp, r3, lsl #2]
0x0000cb28:  e0266001      eor	r6, r6, r1
0x0000cb2c:  e58d60b4      str	r6, [sp, #180]
0x0000cb30:  1a00037f      bne	0xd934

----------------
IN: run
0x0000cb34:  e7990100      ldr	r0, [r9, r0, lsl #2]
0x0000cb38:  e79ac10c      ldr	ip, [sl, ip, lsl #2]
0x0000cb3c:  e58d003c      str	r0, [sp, #60]
0x0000cb40:  e5dd00b7      ldrb	r0, [sp, #183]
0x0000cb44:  e79a1105      ldr	r1, [sl, r5, lsl #2]
0x0000cb48:  e58dc034      str	ip, [sp, #52]
0x0000cb4c:  e798c100      ldr	ip, [r8, r0, lsl #2]
0x0000cb50:  e5dd00b4      ldrb	r0, [sp, #180]
0x0000cb54:  e58d1040      str	r1, [sp, #64]
0x0000cb58:  e58d0030      str	r0, [sp, #48]
0x0000cb5c:  e1a06000      mov	r6, r0
0x0000cb60:  e5dd10a8      ldrb	r1, [sp, #168]
0x0000cb64:  e5dd00b0      ldrb	r0, [sp, #176]
0x0000cb68:  e7992102      ldr	r2, [r9, r2, lsl #2]
0x0000cb6c:  e58d0020      str	r0, [sp, #32]
0x0000cb70:  e5dd70b5      ldrb	r7, [sp, #181]
0x0000cb74:  e79a0101      ldr	r0, [sl, r1, lsl #2]
0x0000cb78:  e79b6106      ldr	r6, [fp, r6, lsl #2]
0x0000cb7c:  e58d2044      str	r2, [sp, #68]
0x0000cb80:  e020000c      eor	r0, r0, ip
0x0000cb84:  e5dd20ac      ldrb	r2, [sp, #172]
0x0000cb88:  e58dc02c      str	ip, [sp, #44]
0x0000cb8c:  e798c107      ldr	ip, [r8, r7, lsl #2]
0x0000cb90:  e7981101      ldr	r1, [r8, r1, lsl #2]
0x0000cb94:  e02cc006      eor	ip, ip, r6
0x0000cb98:  e79a6102      ldr	r6, [sl, r2, lsl #2]
0x0000cb9c:  e79b2102      ldr	r2, [fp, r2, lsl #2]
0x0000cba0:  e0211006      eor	r1, r1, r6
0x0000cba4:  e59d6028      ldr	r6, [sp, #40]
0x0000cba8:  e59d51fc      ldr	r5, [sp, #508]
0x0000cbac:  e0211006      eor	r1, r1, r6
0x0000cbb0:  e59d6020      ldr	r6, [sp, #32]
0x0000cbb4:  e3550000      cmp	r5, #0	; 0x0
0x0000cbb8:  e5dd50b6      ldrb	r5, [sp, #182]
0x0000cbbc:  e79b6106      ldr	r6, [fp, r6, lsl #2]
0x0000cbc0:  e0222006      eor	r2, r2, r6
0x0000cbc4:  e59d6040      ldr	r6, [sp, #64]
0x0000cbc8:  e0222006      eor	r2, r2, r6
0x0000cbcc:  e59d6044      ldr	r6, [sp, #68]
0x0000cbd0:  e0226006      eor	r6, r2, r6
0x0000cbd4:  e79b2105      ldr	r2, [fp, r5, lsl #2]
0x0000cbd8:  e0200002      eor	r0, r0, r2
0x0000cbdc:  e59d2024      ldr	r2, [sp, #36]
0x0000cbe0:  e0200002      eor	r0, r0, r2
0x0000cbe4:  e7992105      ldr	r2, [r9, r5, lsl #2]
0x0000cbe8:  e022200c      eor	r2, r2, ip
0x0000cbec:  e59dc034      ldr	ip, [sp, #52]
0x0000cbf0:  e022200c      eor	r2, r2, ip
0x0000cbf4:  e59dc03c      ldr	ip, [sp, #60]
0x0000cbf8:  e022200c      eor	r2, r2, ip
0x0000cbfc:  e59dc018      ldr	ip, [sp, #24]

----------------
IN: run
0x0000cc00:  e58c2004      str	r2, [ip, #4]
0x0000cc04:  e798c103      ldr	ip, [r8, r3, lsl #2]
0x0000cc08:  e79a3103      ldr	r3, [sl, r3, lsl #2]
0x0000cc0c:  e021100c      eor	r1, r1, ip
0x0000cc10:  e0200003      eor	r0, r0, r3
0x0000cc14:  e79b310e      ldr	r3, [fp, lr, lsl #2]
0x0000cc18:  e59d2018      ldr	r2, [sp, #24]
0x0000cc1c:  e0211003      eor	r1, r1, r3
0x0000cc20:  e7983104      ldr	r3, [r8, r4, lsl #2]
0x0000cc24:  e5821008      str	r1, [r2, #8]
0x0000cc28:  e0233006      eor	r3, r3, r6
0x0000cc2c:  e582300c      str	r3, [r2, #12]
0x0000cc30:  e59d301c      ldr	r3, [sp, #28]
0x0000cc34:  e5820000      str	r0, [r2]
0x0000cc38:  e2831004      add	r1, r3, #4	; 0x4
0x0000cc3c:  e2832007      add	r2, r3, #7	; 0x7
0x0000cc40:  1a0003e2      bne	0xdbd0

----------------
IN: run
0x0000cc44:  e59d302c      ldr	r3, [sp, #44]
0x0000cc48:  e79a210e      ldr	r2, [sl, lr, lsl #2]
0x0000cc4c:  e59de1fc      ldr	lr, [sp, #508]
0x0000cc50:  e023300c      eor	r3, r3, ip
0x0000cc54:  e79a0105      ldr	r0, [sl, r5, lsl #2]
0x0000cc58:  e1a0c003      mov	ip, r3
0x0000cc5c:  e59d3030      ldr	r3, [sp, #48]
0x0000cc60:  e35e0000      cmp	lr, #0	; 0x0
0x0000cc64:  e59de0a8      ldr	lr, [sp, #168]
0x0000cc68:  e7995103      ldr	r5, [r9, r3, lsl #2]
0x0000cc6c:  e02cc00e      eor	ip, ip, lr
0x0000cc70:  e79b7107      ldr	r7, [fp, r7, lsl #2]
0x0000cc74:  e02cc000      eor	ip, ip, r0
0x0000cc78:  e02cc005      eor	ip, ip, r5
0x0000cc7c:  e027700c      eor	r7, r7, ip
0x0000cc80:  e79b1104      ldr	r1, [fp, r4, lsl #2]
0x0000cc84:  e1a0ec27      lsr	lr, r7, #24
0x0000cc88:  e59d00b0      ldr	r0, [sp, #176]
0x0000cc8c:  e7e7c457      ubfx	ip, r7, #8, #8
0x0000cc90:  e0211000      eor	r1, r1, r0
0x0000cc94:  e79a010e      ldr	r0, [sl, lr, lsl #2]
0x0000cc98:  e7e74857      ubfx	r4, r7, #16, #8
0x0000cc9c:  e0211000      eor	r1, r1, r0
0x0000cca0:  e799010c      ldr	r0, [r9, ip, lsl #2]
0x0000cca4:  e58dc024      str	ip, [sp, #36]
0x0000cca8:  e6efc077      uxtb	ip, r7
0x0000ccac:  e0211000      eor	r1, r1, r0
0x0000ccb0:  e58d003c      str	r0, [sp, #60]
0x0000ccb4:  e7980104      ldr	r0, [r8, r4, lsl #2]
0x0000ccb8:  e58dc028      str	ip, [sp, #40]
0x0000ccbc:  e0211000      eor	r1, r1, r0
0x0000ccc0:  e79b010c      ldr	r0, [fp, ip, lsl #2]
0x0000ccc4:  e59d3020      ldr	r3, [sp, #32]
0x0000ccc8:  e0210000      eor	r0, r1, r0
0x0000cccc:  e59d10b4      ldr	r1, [sp, #180]
0x0000ccd0:  e6efc070      uxtb	ip, r0
0x0000ccd4:  e58de020      str	lr, [sp, #32]
0x0000ccd8:  e7e7e450      ubfx	lr, r0, #8, #8
0x0000ccdc:  e0211002      eor	r1, r1, r2
0x0000cce0:  e79a210c      ldr	r2, [sl, ip, lsl #2]
0x0000cce4:  e58dc044      str	ip, [sp, #68]
0x0000cce8:  e799c10e      ldr	ip, [r9, lr, lsl #2]
0x0000ccec:  e0211002      eor	r1, r1, r2
0x0000ccf0:  e58d2034      str	r2, [sp, #52]
0x0000ccf4:  e7e72850      ubfx	r2, r0, #16, #8
0x0000ccf8:  e021100c      eor	r1, r1, ip
0x0000ccfc:  e58dc04c      str	ip, [sp, #76]
0x0000cd00:  e1a0cc20      lsr	ip, r0, #24
0x0000cd04:  e7993103      ldr	r3, [r9, r3, lsl #2]
0x0000cd08:  e58d4030      str	r4, [sp, #48]
0x0000cd0c:  e58d0040      str	r0, [sp, #64]
0x0000cd10:  e58d00bc      str	r0, [sp, #188]
0x0000cd14:  e58d2050      str	r2, [sp, #80]
0x0000cd18:  e58d70b8      str	r7, [sp, #184]
0x0000cd1c:  e58de048      str	lr, [sp, #72]
0x0000cd20:  e58dc02c      str	ip, [sp, #44]
0x0000cd24:  e7980102      ldr	r0, [r8, r2, lsl #2]
0x0000cd28:  e59d40ac      ldr	r4, [sp, #172]
0x0000cd2c:  e0211000      eor	r1, r1, r0
0x0000cd30:  e79b010c      ldr	r0, [fp, ip, lsl #2]
0x0000cd34:  e0244003      eor	r4, r4, r3
0x0000cd38:  e0211000      eor	r1, r1, r0
0x0000cd3c:  e7e72451      ubfx	r2, r1, #8, #8
0x0000cd40:  e6ef6071      uxtb	r6, r1
0x0000cd44:  e7e75851      ubfx	r5, r1, #16, #8
0x0000cd48:  e79a3102      ldr	r3, [sl, r2, lsl #2]
0x0000cd4c:  e58d1054      str	r1, [sp, #84]
0x0000cd50:  e0244003      eor	r4, r4, r3
0x0000cd54:  e58d10c0      str	r1, [sp, #192]
0x0000cd58:  e1a03c21      lsr	r3, r1, #24
0x0000cd5c:  e7991105      ldr	r1, [r9, r5, lsl #2]
0x0000cd60:  e0244001      eor	r4, r4, r1
0x0000cd64:  e7981106      ldr	r1, [r8, r6, lsl #2]
0x0000cd68:  e0244001      eor	r4, r4, r1
0x0000cd6c:  e79b1103      ldr	r1, [fp, r3, lsl #2]
0x0000cd70:  e0244001      eor	r4, r4, r1
0x0000cd74:  e58d40c4      str	r4, [sp, #196]
0x0000cd78:  1a00036e      bne	0xdb38

----------------
IN: run
0x0000cd7c:  e59dc050      ldr	ip, [sp, #80]
0x0000cd80:  e59de048      ldr	lr, [sp, #72]
0x0000cd84:  e59d004c      ldr	r0, [sp, #76]
0x0000cd88:  e59d1034      ldr	r1, [sp, #52]
0x0000cd8c:  e79ac10c      ldr	ip, [sl, ip, lsl #2]
0x0000cd90:  e79be10e      ldr	lr, [fp, lr, lsl #2]
0x0000cd94:  e0211000      eor	r1, r1, r0
0x0000cd98:  e58de034      str	lr, [sp, #52]
0x0000cd9c:  e59d0030      ldr	r0, [sp, #48]
0x0000cda0:  e798e102      ldr	lr, [r8, r2, lsl #2]
0x0000cda4:  e58dc030      str	ip, [sp, #48]
0x0000cda8:  e59d21fc      ldr	r2, [sp, #508]
0x0000cdac:  e798c103      ldr	ip, [r8, r3, lsl #2]
0x0000cdb0:  e7e73454      ubfx	r3, r4, #8, #8
0x0000cdb4:  e3520000      cmp	r2, #0	; 0x0
0x0000cdb8:  e58d1058      str	r1, [sp, #88]
0x0000cdbc:  e7982103      ldr	r2, [r8, r3, lsl #2]
0x0000cdc0:  e59d3028      ldr	r3, [sp, #40]
0x0000cdc4:  e79a0100      ldr	r0, [sl, r0, lsl #2]
0x0000cdc8:  e79a1103      ldr	r1, [sl, r3, lsl #2]
0x0000cdcc:  e59d303c      ldr	r3, [sp, #60]
0x0000cdd0:  e58d004c      str	r0, [sp, #76]
0x0000cdd4:  e0233001      eor	r3, r3, r1
0x0000cdd8:  e79b6106      ldr	r6, [fp, r6, lsl #2]
0x0000cddc:  e1a01003      mov	r1, r3
0x0000cde0:  e59d3020      ldr	r3, [sp, #32]
0x0000cde4:  e7993103      ldr	r3, [r9, r3, lsl #2]
0x0000cde8:  e0233000      eor	r3, r3, r0
0x0000cdec:  e0233002      eor	r3, r3, r2
0x0000cdf0:  e6ef2074      uxtb	r2, r4
0x0000cdf4:  e59d0030      ldr	r0, [sp, #48]
0x0000cdf8:  e79b2102      ldr	r2, [fp, r2, lsl #2]
0x0000cdfc:  e0233002      eor	r3, r3, r2
0x0000ce00:  e59d202c      ldr	r2, [sp, #44]
0x0000ce04:  e58d303c      str	r3, [sp, #60]
0x0000ce08:  e7992102      ldr	r2, [r9, r2, lsl #2]
0x0000ce0c:  e0222000      eor	r2, r2, r0
0x0000ce10:  e59d0034      ldr	r0, [sp, #52]
0x0000ce14:  e0222000      eor	r2, r2, r0
0x0000ce18:  e022200e      eor	r2, r2, lr
0x0000ce1c:  e0222006      eor	r2, r2, r6
0x0000ce20:  e59d6018      ldr	r6, [sp, #24]
0x0000ce24:  e1a00c24      lsr	r0, r4, #24
0x0000ce28:  e586201c      str	r2, [r6, #28]
0x0000ce2c:  e79a2105      ldr	r2, [sl, r5, lsl #2]
0x0000ce30:  e79b5105      ldr	r5, [fp, r5, lsl #2]
0x0000ce34:  e0211002      eor	r1, r1, r2
0x0000ce38:  e7e72854      ubfx	r2, r4, #16, #8
0x0000ce3c:  e79be102      ldr	lr, [fp, r2, lsl #2]
0x0000ce40:  e59d2024      ldr	r2, [sp, #36]
0x0000ce44:  e59d3058      ldr	r3, [sp, #88]
0x0000ce48:  e7982102      ldr	r2, [r8, r2, lsl #2]
0x0000ce4c:  e0222003      eor	r2, r2, r3
0x0000ce50:  e022200c      eor	r2, r2, ip
0x0000ce54:  e0222005      eor	r2, r2, r5
0x0000ce58:  e5862018      str	r2, [r6, #24]
0x0000ce5c:  e7982100      ldr	r2, [r8, r0, lsl #2]
0x0000ce60:  e59d303c      ldr	r3, [sp, #60]
0x0000ce64:  e0211002      eor	r1, r1, r2
0x0000ce68:  e7992100      ldr	r2, [r9, r0, lsl #2]
0x0000ce6c:  e02ee001      eor	lr, lr, r1
0x0000ce70:  e0233002      eor	r3, r3, r2
0x0000ce74:  e5863014      str	r3, [r6, #20]
0x0000ce78:  e59d301c      ldr	r3, [sp, #28]
0x0000ce7c:  e586e010      str	lr, [r6, #16]
0x0000ce80:  e2831008      add	r1, r3, #8	; 0x8
0x0000ce84:  e283200b      add	r2, r3, #11	; 0xb
0x0000ce88:  1a000315      bne	0xdae4

----------------
IN: run
0x0000ce8c:  e59d3034      ldr	r3, [sp, #52]
0x0000ce90:  e59d1030      ldr	r1, [sp, #48]
0x0000ce94:  e59d204c      ldr	r2, [sp, #76]
0x0000ce98:  e0211003      eor	r1, r1, r3
0x0000ce9c:  e59d3040      ldr	r3, [sp, #64]
0x0000cea0:  e0233002      eor	r3, r3, r2
0x0000cea4:  e59d2020      ldr	r2, [sp, #32]
0x0000cea8:  e7982102      ldr	r2, [r8, r2, lsl #2]
0x0000ceac:  e0211002      eor	r1, r1, r2
0x0000ceb0:  e59d2044      ldr	r2, [sp, #68]
0x0000ceb4:  e7992102      ldr	r2, [r9, r2, lsl #2]
0x0000ceb8:  e0211002      eor	r1, r1, r2
0x0000cebc:  e59d202c      ldr	r2, [sp, #44]
0x0000cec0:  e7982102      ldr	r2, [r8, r2, lsl #2]
0x0000cec4:  e0211002      eor	r1, r1, r2
0x0000cec8:  e59d2054      ldr	r2, [sp, #84]
0x0000cecc:  e0211002      eor	r1, r1, r2
0x0000ced0:  e59d2024      ldr	r2, [sp, #36]
0x0000ced4:  e7e7c851      ubfx	ip, r1, #16, #8
0x0000ced8:  e79be102      ldr	lr, [fp, r2, lsl #2]
0x0000cedc:  e59d2028      ldr	r2, [sp, #40]
0x0000cee0:  e798510c      ldr	r5, [r8, ip, lsl #2]
0x0000cee4:  e7992102      ldr	r2, [r9, r2, lsl #2]
0x0000cee8:  e7e70451      ubfx	r0, r1, #8, #8
0x0000ceec:  e0244002      eor	r4, r4, r2
0x0000cef0:  e59d21fc      ldr	r2, [sp, #508]
0x0000cef4:  e02ee007      eor	lr, lr, r7
0x0000cef8:  e58d10a8      str	r1, [sp, #168]
0x0000cefc:  e3520000      cmp	r2, #0	; 0x0
0x0000cf00:  e1a02c21      lsr	r2, r1, #24
0x0000cf04:  e6ef1071      uxtb	r1, r1
0x0000cf08:  e58d5020      str	r5, [sp, #32]
0x0000cf0c:  e79ac102      ldr	ip, [sl, r2, lsl #2]
0x0000cf10:  e79b1101      ldr	r1, [fp, r1, lsl #2]
0x0000cf14:  e02ee00c      eor	lr, lr, ip
0x0000cf18:  e799c100      ldr	ip, [r9, r0, lsl #2]
0x0000cf1c:  e02cc00e      eor	ip, ip, lr
0x0000cf20:  e02cc005      eor	ip, ip, r5
0x0000cf24:  e02cc001      eor	ip, ip, r1
0x0000cf28:  e7e7e85c      ubfx	lr, ip, #16, #8
0x0000cf2c:  e6ef107c      uxtb	r1, ip
0x0000cf30:  e58dc0ac      str	ip, [sp, #172]
0x0000cf34:  e79a1101      ldr	r1, [sl, r1, lsl #2]
0x0000cf38:  e798510e      ldr	r5, [r8, lr, lsl #2]
0x0000cf3c:  e0233001      eor	r3, r3, r1
0x0000cf40:  e7e7145c      ubfx	r1, ip, #8, #8
0x0000cf44:  e1a0cc2c      lsr	ip, ip, #24
0x0000cf48:  e58d5024      str	r5, [sp, #36]
0x0000cf4c:  e79be10c      ldr	lr, [fp, ip, lsl #2]
0x0000cf50:  e799c101      ldr	ip, [r9, r1, lsl #2]
0x0000cf54:  e023300c      eor	r3, r3, ip
0x0000cf58:  e0233005      eor	r3, r3, r5
0x0000cf5c:  e023300e      eor	r3, r3, lr
0x0000cf60:  e7e7c453      ubfx	ip, r3, #8, #8
0x0000cf64:  e58d30b0      str	r3, [sp, #176]
0x0000cf68:  e79a510c      ldr	r5, [sl, ip, lsl #2]
0x0000cf6c:  e7e7c853      ubfx	ip, r3, #16, #8
0x0000cf70:  e0244005      eor	r4, r4, r5
0x0000cf74:  e799c10c      ldr	ip, [r9, ip, lsl #2]
0x0000cf78:  e024400c      eor	r4, r4, ip
0x0000cf7c:  e58dc028      str	ip, [sp, #40]
0x0000cf80:  e6efc073      uxtb	ip, r3
0x0000cf84:  e1a03c23      lsr	r3, r3, #24
0x0000cf88:  e798c10c      ldr	ip, [r8, ip, lsl #2]
0x0000cf8c:  e024400c      eor	r4, r4, ip
0x0000cf90:  e79bc103      ldr	ip, [fp, r3, lsl #2]
0x0000cf94:  e024400c      eor	r4, r4, ip
0x0000cf98:  e58d40b4      str	r4, [sp, #180]
0x0000cf9c:  1a0002af      bne	0xda60

----------------
IN: run
0x0000cfa0:  e79bc101      ldr	ip, [fp, r1, lsl #2]
0x0000cfa4:  e79b0100      ldr	r0, [fp, r0, lsl #2]
0x0000cfa8:  e5dd10b5      ldrb	r1, [sp, #181]
0x0000cfac:  e79b2102      ldr	r2, [fp, r2, lsl #2]
0x0000cfb0:  e58d0030      str	r0, [sp, #48]
0x0000cfb4:  e79a0101      ldr	r0, [sl, r1, lsl #2]
0x0000cfb8:  e5dd10b4      ldrb	r1, [sp, #180]
0x0000cfbc:  e5dd70ac      ldrb	r7, [sp, #172]
0x0000cfc0:  e7991101      ldr	r1, [r9, r1, lsl #2]
0x0000cfc4:  e58d2034      str	r2, [sp, #52]
0x0000cfc8:  e5dd20b0      ldrb	r2, [sp, #176]
0x0000cfcc:  e0200001      eor	r0, r0, r1
0x0000cfd0:  e58dc02c      str	ip, [sp, #44]
0x0000cfd4:  e7981107      ldr	r1, [r8, r7, lsl #2]
0x0000cfd8:  e799c102      ldr	ip, [r9, r2, lsl #2]
0x0000cfdc:  e7997107      ldr	r7, [r9, r7, lsl #2]
0x0000cfe0:  e5dd60a8      ldrb	r6, [sp, #168]
0x0000cfe4:  e02cc007      eor	ip, ip, r7
0x0000cfe8:  e02cc005      eor	ip, ip, r5
0x0000cfec:  e59d5024      ldr	r5, [sp, #36]
0x0000cff0:  e59d41fc      ldr	r4, [sp, #508]
0x0000cff4:  e02cc005      eor	ip, ip, r5
0x0000cff8:  e59d5018      ldr	r5, [sp, #24]
0x0000cffc:  e3540000      cmp	r4, #0	; 0x0

----------------
IN: run
0x0000d000:  e02cc00e      eor	ip, ip, lr
0x0000d004:  e585c024      str	ip, [r5, #36]
0x0000d008:  e79ac106      ldr	ip, [sl, r6, lsl #2]
0x0000d00c:  e5dd40b6      ldrb	r4, [sp, #182]
0x0000d010:  e5dd20b7      ldrb	r2, [sp, #183]
0x0000d014:  e021100c      eor	r1, r1, ip
0x0000d018:  e59dc028      ldr	ip, [sp, #40]
0x0000d01c:  e799e104      ldr	lr, [r9, r4, lsl #2]
0x0000d020:  e79a2102      ldr	r2, [sl, r2, lsl #2]
0x0000d024:  e02cc001      eor	ip, ip, r1
0x0000d028:  e7981106      ldr	r1, [r8, r6, lsl #2]
0x0000d02c:  e022200e      eor	r2, r2, lr
0x0000d030:  e0222001      eor	r2, r2, r1
0x0000d034:  e59d1030      ldr	r1, [sp, #48]
0x0000d038:  e59de020      ldr	lr, [sp, #32]
0x0000d03c:  e0222001      eor	r2, r2, r1
0x0000d040:  e79b1104      ldr	r1, [fp, r4, lsl #2]
0x0000d044:  e0211000      eor	r1, r1, r0
0x0000d048:  e59d0034      ldr	r0, [sp, #52]
0x0000d04c:  e021100e      eor	r1, r1, lr
0x0000d050:  e0211000      eor	r1, r1, r0
0x0000d054:  e585102c      str	r1, [r5, #44]
0x0000d058:  e79a1103      ldr	r1, [sl, r3, lsl #2]
0x0000d05c:  e7983103      ldr	r3, [r8, r3, lsl #2]
0x0000d060:  e021100c      eor	r1, r1, ip
0x0000d064:  e59dc02c      ldr	ip, [sp, #44]
0x0000d068:  e0222003      eor	r2, r2, r3
0x0000d06c:  e59d301c      ldr	r3, [sp, #28]
0x0000d070:  e021100c      eor	r1, r1, ip
0x0000d074:  e5851020      str	r1, [r5, #32]
0x0000d078:  e283100c      add	r1, r3, #12	; 0xc
0x0000d07c:  e5852028      str	r2, [r5, #40]
0x0000d080:  e283200f      add	r2, r3, #15	; 0xf
0x0000d084:  1a0001f4      bne	0xd85c

----------------
IN: run
0x0000d088:  e59d3038      ldr	r3, [sp, #56]
0x0000d08c:  e3530001      cmp	r3, #1	; 0x1
0x0000d090:  e59d301c      ldr	r3, [sp, #28]
0x0000d094:  e2833010      add	r3, r3, #16	; 0x10
0x0000d098:  e58d301c      str	r3, [sp, #28]
0x0000d09c:  e59d3018      ldr	r3, [sp, #24]
0x0000d0a0:  e2833040      add	r3, r3, #64	; 0x40
0x0000d0a4:  e58d3018      str	r3, [sp, #24]
0x0000d0a8:  1a000146      bne	0xd5c8

----------------
IN: run
0x0000d5c8:  e3a03001      mov	r3, #1	; 0x1
0x0000d5cc:  e58d3038      str	r3, [sp, #56]
0x0000d5d0:  e59d31fc      ldr	r3, [sp, #508]
0x0000d5d4:  e3530000      cmp	r3, #0	; 0x0
0x0000d5d8:  0afffc7b      beq	0xc7cc

----------------
IN: run
0x0000d0ac:  e3a02040      mov	r2, #64	; 0x40
0x0000d0b0:  e3a01000      mov	r1, #0	; 0x0
0x0000d0b4:  e28d00cc      add	r0, sp, #204	; 0xcc
0x0000d0b8:  eb000bc7      bl	0xffdc

----------------
IN: run
0x0000d0bc:  e59d306c      ldr	r3, [sp, #108]
0x0000d0c0:  e3a02040      mov	r2, #64	; 0x40
0x0000d0c4:  e3a01000      mov	r1, #0	; 0x0
0x0000d0c8:  e28d0e11      add	r0, sp, #272	; 0x110
0x0000d0cc:  e58d30c8      str	r3, [sp, #200]
0x0000d0d0:  eb000bc1      bl	0xffdc

----------------
IN: run
0x0000d0d4:  e59d31fc      ldr	r3, [sp, #508]
0x0000d0d8:  e3530000      cmp	r3, #0	; 0x0
0x0000d0dc:  1a0001c1      bne	0xd7e8

----------------
IN: run
0x0000d0e0:  e59d2064      ldr	r2, [sp, #100]
0x0000d0e4:  e28d7f43      add	r7, sp, #268	; 0x10c
0x0000d0e8:  e59f35f8      ldr	r3, [pc, #1528]	; 0xd6e8
0x0000d0ec:  e3a04001      mov	r4, #1	; 0x1
0x0000d0f0:  e59d5068      ldr	r5, [sp, #104]
0x0000d0f4:  e7923003      ldr	r3, [r2, r3]
0x0000d0f8:  e59d6070      ldr	r6, [sp, #112]
0x0000d0fc:  e58d3020      str	r3, [sp, #32]
0x0000d100:  e59f35e4      ldr	r3, [pc, #1508]	; 0xd6ec
0x0000d104:  e7923003      ldr	r3, [r2, r3]
0x0000d108:  e58d3024      str	r3, [sp, #36]
0x0000d10c:  e59f35dc      ldr	r3, [pc, #1500]	; 0xd6f0
0x0000d110:  e7923003      ldr	r3, [r2, r3]
0x0000d114:  e58d3028      str	r3, [sp, #40]
0x0000d118:  e59f35d4      ldr	r3, [pc, #1492]	; 0xd6f4
0x0000d11c:  e7923003      ldr	r3, [r2, r3]
0x0000d120:  e58d7018      str	r7, [sp, #24]
0x0000d124:  e58d302c      str	r3, [sp, #44]
0x0000d128:  e30a3aab      movw	r3, #43691	; 0xaaab
0x0000d12c:  e34a3aaa      movt	r3, #43690	; 0xaaaa
0x0000d130:  e58d301c      str	r3, [sp, #28]
0x0000d134:  e59f35bc      ldr	r3, [pc, #1468]	; 0xd6f8
0x0000d138:  e08f3003      add	r3, pc, r3
0x0000d13c:  e58d3034      str	r3, [sp, #52]
0x0000d140:  e59f35b4      ldr	r3, [pc, #1460]	; 0xd6fc
0x0000d144:  e08f3003      add	r3, pc, r3
0x0000d148:  e58d3038      str	r3, [sp, #56]
0x0000d14c:  ea000021      b	0xd1d8

----------------
IN: run
0x0000d1d8:  e59d31f8      ldr	r3, [sp, #504]
0x0000d1dc:  e2448001      sub	r8, r4, #1	; 0x1
0x0000d1e0:  e3530000      cmp	r3, #0	; 0x0
0x0000d1e4:  e59d31fc      ldr	r3, [sp, #508]
0x0000d1e8:  12647010      rsbne	r7, r4, #16	; 0x10
0x0000d1ec:  01a07008      moveq	r7, r8
0x0000d1f0:  e3530000      cmp	r3, #0	; 0x0
0x0000d1f4:  e28d3e1d      add	r3, sp, #464	; 0x1d0
0x0000d1f8:  e0833107      add	r3, r3, r7, lsl #2
0x0000d1fc:  e287b010      add	fp, r7, #16	; 0x10
0x0000d200:  e5139080      ldr	r9, [r3, #-128]
0x0000d204:  e28d3e1d      add	r3, sp, #464	; 0x1d0
0x0000d208:  e083310b      add	r3, r3, fp, lsl #2
0x0000d20c:  e5133080      ldr	r3, [r3, #-128]
0x0000d210:  e203a01f      and	sl, r3, #31	; 0x1f
0x0000d214:  1a00001e      bne	0xd294

----------------
IN: run
0x0000d218:  e59d301c      ldr	r3, [sp, #28]
0x0000d21c:  e0832793      umull	r2, r3, r3, r7
0x0000d220:  e3a02003      mov	r2, #3	; 0x3
0x0000d224:  e1a030a3      lsr	r3, r3, #1
0x0000d228:  e0637392      mls	r3, r2, r3, r7
0x0000d22c:  e3530001      cmp	r3, #1	; 0x1
0x0000d230:  0a000076      beq	0xd410

----------------
IN: run
0x0000d234:  e3530002      cmp	r3, #2	; 0x2
0x0000d238:  1affffc4      bne	0xd150

----------------
IN: run
0x0000d150:  e0899006      add	r9, r9, r6
0x0000d154:  e26aa020      rsb	sl, sl, #32	; 0x20
0x0000d158:  e59d2024      ldr	r2, [sp, #36]
0x0000d15c:  e1a09a79      ror	r9, r9, sl
0x0000d160:  e7e73859      ubfx	r3, r9, #16, #8
0x0000d164:  e59d1020      ldr	r1, [sp, #32]
0x0000d168:  e7923103      ldr	r3, [r2, r3, lsl #2]
0x0000d16c:  e1a02c29      lsr	r2, r9, #24
0x0000d170:  e7912102      ldr	r2, [r1, r2, lsl #2]
0x0000d174:  e59d1028      ldr	r1, [sp, #40]
0x0000d178:  e0233002      eor	r3, r3, r2
0x0000d17c:  e7e72459      ubfx	r2, r9, #8, #8
0x0000d180:  e6ef9079      uxtb	r9, r9
0x0000d184:  e7912102      ldr	r2, [r1, r2, lsl #2]
0x0000d188:  e0433002      sub	r3, r3, r2
0x0000d18c:  e59d202c      ldr	r2, [sp, #44]
0x0000d190:  e7922109      ldr	r2, [r2, r9, lsl #2]
0x0000d194:  e0833002      add	r3, r3, r2
0x0000d198:  e5952000      ldr	r2, [r5]
0x0000d19c:  e5856004      str	r6, [r5, #4]
0x0000d1a0:  e1a06004      mov	r6, r4
0x0000d1a4:  e0233002      eor	r3, r3, r2
0x0000d1a8:  e59d2018      ldr	r2, [sp, #24]
0x0000d1ac:  e5823004      str	r3, [r2, #4]
0x0000d1b0:  e59d3018      ldr	r3, [sp, #24]
0x0000d1b4:  e2844001      add	r4, r4, #1	; 0x1
0x0000d1b8:  e3540011      cmp	r4, #17	; 0x11
0x0000d1bc:  e2855004      add	r5, r5, #4	; 0x4
0x0000d1c0:  e2833004      add	r3, r3, #4	; 0x4
0x0000d1c4:  e58d3018      str	r3, [sp, #24]
0x0000d1c8:  0a00012b      beq	0xd67c

----------------
IN: run
0x0000d1cc:  e28d3e1d      add	r3, sp, #464	; 0x1d0
0x0000d1d0:  e0836106      add	r6, r3, r6, lsl #2
0x0000d1d4:  e51660c4      ldr	r6, [r6, #-196]
0x0000d1d8:  e59d31f8      ldr	r3, [sp, #504]
0x0000d1dc:  e2448001      sub	r8, r4, #1	; 0x1
0x0000d1e0:  e3530000      cmp	r3, #0	; 0x0
0x0000d1e4:  e59d31fc      ldr	r3, [sp, #508]
0x0000d1e8:  12647010      rsbne	r7, r4, #16	; 0x10
0x0000d1ec:  01a07008      moveq	r7, r8
0x0000d1f0:  e3530000      cmp	r3, #0	; 0x0
0x0000d1f4:  e28d3e1d      add	r3, sp, #464	; 0x1d0
0x0000d1f8:  e0833107      add	r3, r3, r7, lsl #2
0x0000d1fc:  e287b010      add	fp, r7, #16	; 0x10
0x0000d200:  e5139080      ldr	r9, [r3, #-128]
0x0000d204:  e28d3e1d      add	r3, sp, #464	; 0x1d0
0x0000d208:  e083310b      add	r3, r3, fp, lsl #2
0x0000d20c:  e5133080      ldr	r3, [r3, #-128]
0x0000d210:  e203a01f      and	sl, r3, #31	; 0x1f
0x0000d214:  1a00001e      bne	0xd294

----------------
IN: run
0x0000d410:  e0299006      eor	r9, r9, r6
0x0000d414:  e26aa020      rsb	sl, sl, #32	; 0x20
0x0000d418:  e59d2028      ldr	r2, [sp, #40]
0x0000d41c:  e1a09a79      ror	r9, r9, sl
0x0000d420:  e7e73459      ubfx	r3, r9, #8, #8
0x0000d424:  e59d1020      ldr	r1, [sp, #32]
0x0000d428:  e7923103      ldr	r3, [r2, r3, lsl #2]
0x0000d42c:  e1a02c29      lsr	r2, r9, #24
0x0000d430:  e7912102      ldr	r2, [r1, r2, lsl #2]
0x0000d434:  e59d1024      ldr	r1, [sp, #36]
0x0000d438:  e0833002      add	r3, r3, r2
0x0000d43c:  e7e72859      ubfx	r2, r9, #16, #8
0x0000d440:  e6ef9079      uxtb	r9, r9
0x0000d444:  e7912102      ldr	r2, [r1, r2, lsl #2]
0x0000d448:  e0433002      sub	r3, r3, r2
0x0000d44c:  e59d202c      ldr	r2, [sp, #44]
0x0000d450:  e7922109      ldr	r2, [r2, r9, lsl #2]
0x0000d454:  e0233002      eor	r3, r3, r2
0x0000d458:  eaffff4e      b	0xd198

----------------
IN: run
0x0000d198:  e5952000      ldr	r2, [r5]
0x0000d19c:  e5856004      str	r6, [r5, #4]
0x0000d1a0:  e1a06004      mov	r6, r4
0x0000d1a4:  e0233002      eor	r3, r3, r2
0x0000d1a8:  e59d2018      ldr	r2, [sp, #24]
0x0000d1ac:  e5823004      str	r3, [r2, #4]
0x0000d1b0:  e59d3018      ldr	r3, [sp, #24]
0x0000d1b4:  e2844001      add	r4, r4, #1	; 0x1
0x0000d1b8:  e3540011      cmp	r4, #17	; 0x11
0x0000d1bc:  e2855004      add	r5, r5, #4	; 0x4
0x0000d1c0:  e2833004      add	r3, r3, #4	; 0x4
0x0000d1c4:  e58d3018      str	r3, [sp, #24]
0x0000d1c8:  0a00012b      beq	0xd67c

----------------
IN: run
0x0000d23c:  e59d31fc      ldr	r3, [sp, #508]
0x0000d240:  e0497006      sub	r7, r9, r6
0x0000d244:  e3530000      cmp	r3, #0	; 0x0
0x0000d248:  e26a3020      rsb	r3, sl, #32	; 0x20
0x0000d24c:  e1a07377      ror	r7, r7, r3
0x0000d250:  1a0000b0      bne	0xd518

----------------
IN: run
0x0000d254:  e7e73857      ubfx	r3, r7, #16, #8
0x0000d258:  e59d2024      ldr	r2, [sp, #36]
0x0000d25c:  e59d1020      ldr	r1, [sp, #32]
0x0000d260:  e7923103      ldr	r3, [r2, r3, lsl #2]
0x0000d264:  e1a02c27      lsr	r2, r7, #24
0x0000d268:  e7912102      ldr	r2, [r1, r2, lsl #2]
0x0000d26c:  e59d1028      ldr	r1, [sp, #40]
0x0000d270:  e0833002      add	r3, r3, r2
0x0000d274:  e7e72457      ubfx	r2, r7, #8, #8
0x0000d278:  e6ef7077      uxtb	r7, r7
0x0000d27c:  e7912102      ldr	r2, [r1, r2, lsl #2]
0x0000d280:  e0233002      eor	r3, r3, r2
0x0000d284:  e59d202c      ldr	r2, [sp, #44]
0x0000d288:  e7922107      ldr	r2, [r2, r7, lsl #2]
0x0000d28c:  e0433002      sub	r3, r3, r2
0x0000d290:  eaffffc0      b	0xd198

----------------
IN: run
0x0000d67c:  e59d31fc      ldr	r3, [sp, #508]
0x0000d680:  e59d514c      ldr	r5, [sp, #332]
0x0000d684:  e59d4108      ldr	r4, [sp, #264]
0x0000d688:  e3530000      cmp	r3, #0	; 0x0
0x0000d68c:  1a000005      bne	0xd6a8

----------------
IN: run
0x0000d690:  e59d3060      ldr	r3, [sp, #96]
0x0000d694:  e5835000      str	r5, [r3]
0x0000d698:  e1a00003      mov	r0, r3
0x0000d69c:  e5834004      str	r4, [r3, #4]
0x0000d6a0:  e28ddf75      add	sp, sp, #468	; 0x1d4
0x0000d6a4:  e8bd8ff0      pop	{r4, r5, r6, r7, r8, r9, sl, fp, pc}

----------------
IN: encrypt
0x0000e328:  e1a00004      mov	r0, r4
0x0000e32c:  e28dd010      add	sp, sp, #16	; 0x10
0x0000e330:  e8bd8010      pop	{r4, pc}

----------------
IN: _gcry_cipher_cfb_decrypt
0x0000e52c:  e8960003      ldm	r6, {r0, r1}
0x0000e530:  e1a0200b      mov	r2, fp
0x0000e534:  e1a06000      mov	r6, r0
0x0000e538:  e1a08001      mov	r8, r1
0x0000e53c:  e8850003      stm	r5, {r0, r1}
0x0000e540:  ebffff59      bl	0xe2ac

----------------
IN: bytesFromBlock
0x0000e2ac:  e5c21007      strb	r1, [r2, #7]
0x0000e2b0:  e24dd008      sub	sp, sp, #8	; 0x8
0x0000e2b4:  e1a0c421      lsr	ip, r1, #8
0x0000e2b8:  e28d3008      add	r3, sp, #8	; 0x8
0x0000e2bc:  e5c2c006      strb	ip, [r2, #6]
0x0000e2c0:  e9030003      stmdb	r3, {r0, r1}
0x0000e2c4:  e1a03000      mov	r3, r0
0x0000e2c8:  e1a00821      lsr	r0, r1, #16
0x0000e2cc:  e1a0c423      lsr	ip, r3, #8
0x0000e2d0:  e1a01c21      lsr	r1, r1, #24
0x0000e2d4:  e5c20005      strb	r0, [r2, #5]
0x0000e2d8:  e5c23003      strb	r3, [r2, #3]
0x0000e2dc:  e1a00823      lsr	r0, r3, #16
0x0000e2e0:  e1a03c23      lsr	r3, r3, #24
0x0000e2e4:  e5c21004      strb	r1, [r2, #4]
0x0000e2e8:  e5c2c002      strb	ip, [r2, #2]
0x0000e2ec:  e5c20001      strb	r0, [r2, #1]
0x0000e2f0:  e5c23000      strb	r3, [r2]
0x0000e2f4:  e28dd008      add	sp, sp, #8	; 0x8
0x0000e2f8:  e12fff1e      bx	lr

----------------
IN: _gcry_cipher_cfb_decrypt
0x0000e544:  e1a02008      mov	r2, r8
0x0000e548:  e1a01006      mov	r1, r6
0x0000e54c:  e1a00007      mov	r0, r7
0x0000e550:  eb001064      bl	0x126e8

----------------
IN: _gcry_cipher_cfb_decrypt
0x0000e554:  e59d3034      ldr	r3, [sp, #52]
0x0000e558:  e1a0100b      mov	r1, fp
0x0000e55c:  e1a02003      mov	r2, r3
0x0000e560:  e2833008      add	r3, r3, #8	; 0x8
0x0000e564:  e58d3034      str	r3, [sp, #52]
0x0000e568:  e59d3030      ldr	r3, [sp, #48]
0x0000e56c:  e1a00003      mov	r0, r3
0x0000e570:  e2833008      add	r3, r3, #8	; 0x8
0x0000e574:  e58d3030      str	r3, [sp, #48]
0x0000e578:  e3a03008      mov	r3, #8	; 0x8
0x0000e57c:  ebfffe9a      bl	0xdfec

----------------
IN: cipher_block_xor_n_copy
0x0000dfec:  e52de004      push	{lr}		; (str lr, [sp, #-4]!)
0x0000dff0:  e24dd00c      sub	sp, sp, #12	; 0xc
0x0000dff4:  e58d3000      str	r3, [sp]
0x0000dff8:  e1a03002      mov	r3, r2
0x0000dffc:  e1a02001      mov	r2, r1

----------------
IN: cipher_block_xor_n_copy
0x0000e000:  e1a01003      mov	r1, r3
0x0000e004:  ebffff74      bl	0xdddc

----------------
IN: cipher_block_xor_n_copy_2
0x0000dddc:  e92d4ff8      push	{r3, r4, r5, r6, r7, r8, r9, sl, fp, lr}
0x0000dde0:  e1a08000      mov	r8, r0
0x0000dde4:  e59dc028      ldr	ip, [sp, #40]
0x0000dde8:  e1a09001      mov	r9, r1
0x0000ddec:  e1a07002      mov	r7, r2
0x0000ddf0:  e1a0a003      mov	sl, r3
0x0000ddf4:  e35c0008      cmp	ip, #8	; 0x8
0x0000ddf8:  13a04000      movne	r4, #0	; 0x0
0x0000ddfc:  0a000012      beq	0xde4c

----------------
IN: cipher_block_xor_n_copy_2
0x0000de4c:  e1a00003      mov	r0, r3
0x0000de50:  e287b004      add	fp, r7, #4	; 0x4
0x0000de54:  ebffff7b      bl	0xdc48

----------------
IN: cipher_block_xor_n_copy_2
0x0000de58:  e1a03000      mov	r3, r0
0x0000de5c:  e28a0004      add	r0, sl, #4	; 0x4
0x0000de60:  e1a0a003      mov	sl, r3
0x0000de64:  ebffff77      bl	0xdc48

----------------
IN: cipher_block_xor_n_copy_2
0x0000de68:  e1a06000      mov	r6, r0
0x0000de6c:  e1a00007      mov	r0, r7
0x0000de70:  ebffff74      bl	0xdc48

----------------
IN: cipher_block_xor_n_copy_2
0x0000de74:  e1a05000      mov	r5, r0
0x0000de78:  e1a0000b      mov	r0, fp
0x0000de7c:  ebffff71      bl	0xdc48

----------------
IN: cipher_block_xor_n_copy_2
0x0000de80:  e1a04000      mov	r4, r0
0x0000de84:  e1a00009      mov	r0, r9
0x0000de88:  ebffff6e      bl	0xdc48

----------------
IN: cipher_block_xor_n_copy_2
0x0000de8c:  e0255000      eor	r5, r5, r0
0x0000de90:  e2890004      add	r0, r9, #4	; 0x4
0x0000de94:  ebffff6b      bl	0xdc48

----------------
IN: cipher_block_xor_n_copy_2
0x0000de98:  e0244000      eor	r4, r4, r0
0x0000de9c:  e1a01005      mov	r1, r5
0x0000dea0:  e1a00008      mov	r0, r8
0x0000dea4:  ebffff72      bl	0xdc74

----------------
IN: cipher_block_xor_n_copy_2
0x0000dea8:  e1a01004      mov	r1, r4
0x0000deac:  e2880004      add	r0, r8, #4	; 0x4
0x0000deb0:  ebffff6f      bl	0xdc74

----------------
IN: cipher_block_xor_n_copy_2
0x0000deb4:  e1a0100a      mov	r1, sl
0x0000deb8:  e1a00007      mov	r0, r7
0x0000debc:  ebffff6c      bl	0xdc74

----------------
IN: cipher_block_xor_n_copy_2
0x0000dec0:  e1a01006      mov	r1, r6
0x0000dec4:  e1a0000b      mov	r0, fp
0x0000dec8:  e8bd4ff8      pop	{r3, r4, r5, r6, r7, r8, r9, sl, fp, lr}
0x0000decc:  eaffff68      b	0xdc74

----------------
IN: cipher_block_xor_n_copy
0x0000e008:  e28dd00c      add	sp, sp, #12	; 0xc
0x0000e00c:  e49df004      pop	{pc}		; (ldr pc, [sp], #4)

----------------
IN: _gcry_cipher_cfb_decrypt
0x0000e580:  e3540000      cmp	r4, #0	; 0x0
0x0000e584:  0a000033      beq	0xe658

----------------
IN: _gcry_cipher_cfb_decrypt
0x0000e588:  e59f0744      ldr	r0, [pc, #1860]	; 0xecd4
0x0000e58c:  e1a01004      mov	r1, r4
0x0000e590:  e59b3020      ldr	r3, [fp, #32]
0x0000e594:  e28d5060      add	r5, sp, #96	; 0x60
0x0000e598:  e59d202c      ldr	r2, [sp, #44]
0x0000e59c:  e28d7048      add	r7, sp, #72	; 0x48
0x0000e5a0:  e08f0000      add	r0, pc, r0
0x0000e5a4:  e3a08000      mov	r8, #0	; 0x0
0x0000e5a8:  e59f6728      ldr	r6, [pc, #1832]	; 0xecd8
0x0000e5ac:  eb00104d      bl	0x126e8

----------------
IN: _gcry_cipher_cfb_decrypt
0x0000e5b0:  e3a02008      mov	r2, #8	; 0x8
0x0000e5b4:  e1a0100b      mov	r1, fp
0x0000e5b8:  e08f6006      add	r6, pc, r6
0x0000e5bc:  e28b0010      add	r0, fp, #16	; 0x10
0x0000e5c0:  ebfffddb      bl	0xdd34

----------------
IN: _gcry_cipher_cfb_decrypt
0x0000e5c4:  e1a0100b      mov	r1, fp
0x0000e5c8:  e1a00005      mov	r0, r5
0x0000e5cc:  ebffff74      bl	0xe3a4

----------------
IN: _gcry_cipher_cfb_decrypt
0x0000e5d0:  e59d2064      ldr	r2, [sp, #100]
0x0000e5d4:  e1a00006      mov	r0, r6
0x0000e5d8:  e59d1060      ldr	r1, [sp, #96]
0x0000e5dc:  eb001041      bl	0x126e8

----------------
IN: _gcry_cipher_cfb_decrypt
0x0000e5e0:  e58d8000      str	r8, [sp]
0x0000e5e4:  e1a00007      mov	r0, r7
0x0000e5e8:  e895000c      ldm	r5, {r2, r3}
0x0000e5ec:  e28b1030      add	r1, fp, #48	; 0x30
0x0000e5f0:  ebffff41      bl	0xe2fc

----------------
IN: _gcry_cipher_cfb_decrypt
0x0000e5f4:  e8970003      ldm	r7, {r0, r1}
0x0000e5f8:  e1a0200b      mov	r2, fp
0x0000e5fc:  e1a07000      mov	r7, r0
0x0000e600:  e1a09001      mov	r9, r1
0x0000e604:  e8850003      stm	r5, {r0, r1}
0x0000e608:  ebffff27      bl	0xe2ac

----------------
IN: _gcry_cipher_cfb_decrypt
0x0000e60c:  e1a02009      mov	r2, r9
0x0000e610:  e1a01007      mov	r1, r7
0x0000e614:  e1a00006      mov	r0, r6
0x0000e618:  eb001032      bl	0x126e8

----------------
IN: _gcry_cipher_cfb_decrypt
0x0000e61c:  e59d2034      ldr	r2, [sp, #52]
0x0000e620:  e2643008      rsb	r3, r4, #8	; 0x8
0x0000e624:  e59d0030      ldr	r0, [sp, #48]
0x0000e628:  e1a0100b      mov	r1, fp
0x0000e62c:  e58b3020      str	r3, [fp, #32]
0x0000e630:  e1a03004      mov	r3, r4
0x0000e634:  e1a04008      mov	r4, r8
0x0000e638:  ebfffe62      bl	0xdfc8

----------------
IN: buf_xor_n_copy
0x0000dfc8:  e52de004      push	{lr}		; (str lr, [sp, #-4]!)
0x0000dfcc:  e24dd00c      sub	sp, sp, #12	; 0xc
0x0000dfd0:  e58d3000      str	r3, [sp]
0x0000dfd4:  e1a03002      mov	r3, r2
0x0000dfd8:  e1a02001      mov	r2, r1
0x0000dfdc:  e1a01003      mov	r1, r3
0x0000dfe0:  ebffffba      bl	0xded0

----------------
IN: buf_xor_n_copy_2
0x0000ded0:  e92d4ff0      push	{r4, r5, r6, r7, r8, r9, sl, fp, lr}
0x0000ded4:  e24dd014      sub	sp, sp, #20	; 0x14
0x0000ded8:  e1a05000      mov	r5, r0
0x0000dedc:  e1a06001      mov	r6, r1
0x0000dee0:  e59dc038      ldr	ip, [sp, #56]
0x0000dee4:  e1a07003      mov	r7, r3
0x0000dee8:  e58d2000      str	r2, [sp]
0x0000deec:  e35c0003      cmp	ip, #3	; 0x3
0x0000def0:  9a000032      bls	0xdfc0

----------------
IN: buf_xor_n_copy_2
0x0000dfc0:  e59d3038      ldr	r3, [sp, #56]
0x0000dfc4:  eaffffee      b	0xdf84

----------------
IN: buf_xor_n_copy_2
0x0000df84:  e3530000      cmp	r3, #0	; 0x0
0x0000df88:  0a00000a      beq	0xdfb8

----------------
IN: buf_xor_n_copy_2
0x0000df8c:  e59d2000      ldr	r2, [sp]
0x0000df90:  e0853003      add	r3, r5, r3
0x0000df94:  e2422001      sub	r2, r2, #1	; 0x1
0x0000df98:  e5f21001      ldrb	r1, [r2, #1]!
0x0000df9c:  e4d6c001      ldrb	ip, [r6], #1
0x0000dfa0:  e4d70001      ldrb	r0, [r7], #1
0x0000dfa4:  e021100c      eor	r1, r1, ip
0x0000dfa8:  e4c51001      strb	r1, [r5], #1
0x0000dfac:  e1550003      cmp	r5, r3
0x0000dfb0:  e5c20000      strb	r0, [r2]
0x0000dfb4:  1afffff7      bne	0xdf98

----------------
IN: buf_xor_n_copy_2
0x0000df98:  e5f21001      ldrb	r1, [r2, #1]!
0x0000df9c:  e4d6c001      ldrb	ip, [r6], #1
0x0000dfa0:  e4d70001      ldrb	r0, [r7], #1
0x0000dfa4:  e021100c      eor	r1, r1, ip
0x0000dfa8:  e4c51001      strb	r1, [r5], #1
0x0000dfac:  e1550003      cmp	r5, r3
0x0000dfb0:  e5c20000      strb	r0, [r2]
0x0000dfb4:  1afffff7      bne	0xdf98

----------------
IN: buf_xor_n_copy_2
0x0000dfb8:  e28dd014      add	sp, sp, #20	; 0x14
0x0000dfbc:  e8bd8ff0      pop	{r4, r5, r6, r7, r8, r9, sl, fp, pc}

----------------
IN: buf_xor_n_copy
0x0000dfe4:  e28dd00c      add	sp, sp, #12	; 0xc
0x0000dfe8:  e49df004      pop	{pc}		; (ldr pc, [sp], #4)

----------------
IN: _gcry_cipher_cfb_decrypt
0x0000e63c:  e1a0100b      mov	r1, fp
0x0000e640:  e1a00005      mov	r0, r5
0x0000e644:  ebffff56      bl	0xe3a4

----------------
IN: _gcry_cipher_cfb_decrypt
0x0000e648:  e59d2064      ldr	r2, [sp, #100]
0x0000e64c:  e1a00006      mov	r0, r6
0x0000e650:  e59d1060      ldr	r1, [sp, #96]
0x0000e654:  eb001023      bl	0x126e8

----------------
IN: _gcry_cipher_cfb_decrypt
0x0000e658:  e1a00004      mov	r0, r4
0x0000e65c:  e28dd07c      add	sp, sp, #124	; 0x7c
0x0000e660:  e8bd8ff0      pop	{r4, r5, r6, r7, r8, r9, sl, fp, pc}

----------------
IN: decrypt_data
0x0000c348:  e59d3014      ldr	r3, [sp, #20]
0x0000c34c:  e5930004      ldr	r0, [r3, #4]
0x0000c350:  eb0007bf      bl	0xe254

----------------
IN: cipher_sync
0x0000e254:  e92d4010      push	{r4, lr}
0x0000e258:  e1a04000      mov	r4, r0
0x0000e25c:  e59f0044      ldr	r0, [pc, #68]	; 0xe2a8
0x0000e260:  e5941020      ldr	r1, [r4, #32]
0x0000e264:  e08f0000      add	r0, pc, r0
0x0000e268:  eb00111e      bl	0x126e8

----------------
IN: cipher_sync
0x0000e26c:  e5942020      ldr	r2, [r4, #32]
0x0000e270:  e3520000      cmp	r2, #0	; 0x0
0x0000e274:  08bd8010      popeq	{r4, pc}

----------------
IN: cipher_sync
0x0000e278:  e0840002      add	r0, r4, r2
0x0000e27c:  e1a01004      mov	r1, r4
0x0000e280:  e2622008      rsb	r2, r2, #8	; 0x8
0x0000e284:  eb0007b1      bl	0x10150

----------------
IN: memmove
0x00010158:  e0813002      add	r3, r1, r2
0x0001015c:  e1530000      cmp	r3, r0
0x00010160:  9a000008      bls	0x10188

----------------
IN: memmove
0x00010190:  e081c002      add	ip, r1, r2
0x00010194:  e2403001      sub	r3, r0, #1	; 0x1
0x00010198:  e4d12001      ldrb	r2, [r1], #1
0x0001019c:  e15c0001      cmp	ip, r1
0x000101a0:  e5e32001      strb	r2, [r3, #1]!
0x000101a4:  1afffffb      bne	0x10198

----------------
IN: memmove
0x00010198:  e4d12001      ldrb	r2, [r1], #1
0x0001019c:  e15c0001      cmp	ip, r1
0x000101a0:  e5e32001      strb	r2, [r3, #1]!
0x000101a4:  1afffffb      bne	0x10198

----------------
IN: memmove
0x000101a8:  e12fff1e      bx	lr

----------------
IN: cipher_sync
0x0000e288:  e5942020      ldr	r2, [r4, #32]
0x0000e28c:  e1a00004      mov	r0, r4
0x0000e290:  e0441002      sub	r1, r4, r2
0x0000e294:  e2811018      add	r1, r1, #24	; 0x18
0x0000e298:  eb000786      bl	0x100b8

----------------
IN: cipher_sync
0x0000e29c:  e3a03000      mov	r3, #0	; 0x0
0x0000e2a0:  e5843020      str	r3, [r4, #32]
0x0000e2a4:  e8bd8010      pop	{r4, pc}

----------------
IN: decrypt_data
0x0000c354:  e5d53008      ldrb	r3, [r5, #8]
0x0000c358:  e3130040      tst	r3, #64	; 0x40
0x0000c35c:  0a000015      beq	0xc3b8

----------------
IN: decrypt_data
0x0000c360:  e5dd201e      ldrb	r2, [sp, #30]
0x0000c364:  e5dd3020      ldrb	r3, [sp, #32]
0x0000c368:  e1520003      cmp	r2, r3
0x0000c36c:  1a000003      bne	0xc380

----------------
IN: decrypt_data
0x0000c370:  e5dd201f      ldrb	r2, [sp, #31]
0x0000c374:  e5dd3021      ldrb	r3, [sp, #33]
0x0000c378:  e1520003      cmp	r2, r3
0x0000c37c:  0a00000d      beq	0xc3b8

----------------
IN: decrypt_data
0x0000c3b8:  e59f0154      ldr	r0, [pc, #340]	; 0xc514
0x0000c3bc:  e08f0000      add	r0, pc, r0
0x0000c3c0:  eb0018c8      bl	0x126e8

----------------
IN: decrypt_data
0x0000c3c4:  e59d2014      ldr	r2, [sp, #20]
0x0000c3c8:  e5940010      ldr	r0, [r4, #16]
0x0000c3cc:  e5923000      ldr	r3, [r2]
0x0000c3d0:  e5d2c050      ldrb	ip, [r2, #80]
0x0000c3d4:  e59f113c      ldr	r1, [pc, #316]	; 0xc518
0x0000c3d8:  e2833001      add	r3, r3, #1	; 0x1
0x0000c3dc:  e5823000      str	r3, [r2]
0x0000c3e0:  e5d43009      ldrb	r3, [r4, #9]
0x0000c3e4:  e08f1001      add	r1, pc, r1
0x0000c3e8:  e2533000      subs	r3, r3, #0	; 0x0
0x0000c3ec:  13a03001      movne	r3, #1	; 0x1
0x0000c3f0:  e7c0c013      bfi	ip, r3, #0, #1
0x0000c3f4:  e5c2c050      strb	ip, [r2, #80]
0x0000c3f8:  e5983020      ldr	r3, [r8, #32]
0x0000c3fc:  e5823078      str	r3, [r2, #120]

----------------
IN: decrypt_data
0x0000c400:  ebfff349      bl	0x912c

----------------
IN: decode_filter
0x0000bf60:  e92d47f0      push	{r4, r5, r6, r7, r8, r9, sl, lr}
0x0000bf64:  e24dd008      sub	sp, sp, #8	; 0x8
0x0000bf68:  e1a05000      mov	r5, r0
0x0000bf6c:  e1a04001      mov	r4, r1
0x0000bf70:  e59d9028      ldr	r9, [sp, #40]
0x0000bf74:  e1a07002      mov	r7, r2
0x0000bf78:  e59f01e0      ldr	r0, [pc, #480]	; 0xc160
0x0000bf7c:  e1a06003      mov	r6, r3
0x0000bf80:  e5992000      ldr	r2, [r9]
0x0000bf84:  e08f0000      add	r0, pc, r0
0x0000bf88:  e5953078      ldr	r3, [r5, #120]
0x0000bf8c:  eb0019d5      bl	0x126e8

----------------
IN: decode_filter
0x0000bf90:  e3540003      cmp	r4, #3	; 0x3
0x0000bf94:  0a000004      beq	0xbfac

----------------
IN: decode_filter
0x0000bf98:  e3540002      cmp	r4, #2	; 0x2
0x0000bf9c:  13a00000      movne	r0, #0	; 0x0
0x0000bfa0:  0a000046      beq	0xc0c0

----------------
IN: decode_filter
0x0000bfa4:  e28dd008      add	sp, sp, #8	; 0x8
0x0000bfa8:  e8bd87f0      pop	{r4, r5, r6, r7, r8, r9, sl, pc}

----------------
IN: decrypt_data
0x0000c404:  e5942010      ldr	r2, [r4, #16]
0x0000c408:  e1a00008      mov	r0, r8
0x0000c40c:  e59d100c      ldr	r1, [sp, #12]
0x0000c410:  eb000e5d      bl	0xfd8c

----------------
IN: proc_packets
0x0000fd8c:  e92d41f0      push	{r4, r5, r6, r7, r8, lr}
0x0000fd90:  e1a05000      mov	r5, r0
0x0000fd94:  e59f0044      ldr	r0, [pc, #68]	; 0xfde0
0x0000fd98:  e1a06001      mov	r6, r1
0x0000fd9c:  e1a07002      mov	r7, r2
0x0000fda0:  e08f0000      add	r0, pc, r0
0x0000fda4:  eb000a4f      bl	0x126e8

----------------
IN: proc_packets
0x0000fda8:  e3a00060      mov	r0, #96	; 0x60
0x0000fdac:  eb0000a6      bl	0x1004c

----------------
IN: proc_packets
0x0000fdb0:  e5805000      str	r5, [r0]
0x0000fdb4:  e1a01000      mov	r1, r0
0x0000fdb8:  e5806004      str	r6, [r0, #4]
0x0000fdbc:  e1a04000      mov	r4, r0
0x0000fdc0:  e1a02007      mov	r2, r7
0x0000fdc4:  e1a00005      mov	r0, r5
0x0000fdc8:  ebfffe60      bl	0xf750

----------------
IN: do_proc_packets
0x0000f7e8:  e5966004      ldr	r6, [r6, #4]
0x0000f7ec:  e2833001      add	r3, r3, #1	; 0x1
0x0000f7f0:  e3560000      cmp	r6, #0	; 0x0
0x0000f7f4:  1afffffb      bne	0xf7e8

----------------
IN: parse.constprop.0
0x000105b8:  e1a00004      mov	r0, r4
0x000105bc:  ebffe3a6      bl	0x945c

----------------
IN: parse.constprop.0
0x000105c0:  e3700001      cmn	r0, #1	; 0x1
0x000105c4:  e1a09000      mov	r9, r0
0x000105c8:  1a000002      bne	0x105d8

----------------
IN: parse.constprop.0
0x000105cc:  e3e00000      mvn	r0, #0	; 0x0
0x000105d0:  e28dd09c      add	sp, sp, #156	; 0x9c
0x000105d4:  e8bd8ff0      pop	{r4, r5, r6, r7, r8, r9, sl, fp, pc}

----------------
IN: do_proc_packets
0x0000fb9c:  e3580000      cmp	r8, #0	; 0x0
0x0000fba0:  e1a0a000      mov	sl, r0
0x0000fba4:  13a0a000      movne	sl, #0	; 0x0
0x0000fba8:  1affffbd      bne	0xfaa4

----------------
IN: do_proc_packets
0x0000fbac:  e59f11b0      ldr	r1, [pc, #432]	; 0xfd64
0x0000fbb0:  e3a00011      mov	r0, #17	; 0x11
0x0000fbb4:  e08f1001      add	r1, pc, r1
0x0000fbb8:  eb000aca      bl	0x126e8

----------------
IN: do_proc_packets
0x0000fbbc:  eaffffb8      b	0xfaa4

----------------
IN: do_proc_packets
0x0000faa4:  e594002c      ldr	r0, [r4, #44]
0x0000faa8:  eb000148      bl	0xffd0

----------------
IN: xfree
0x0000ffd0:  e3500000      cmp	r0, #0	; 0x0
0x0000ffd4:  012fff1e      bxeq	lr

----------------
IN: do_proc_packets
0x0000faac:  e1a01006      mov	r1, r6
0x0000fab0:  e1a00005      mov	r0, r5
0x0000fab4:  ebfff2e5      bl	0xc650

----------------
IN: free_packet.localalias
0x0000c660:  e5903004      ldr	r3, [r0, #4]
0x0000c664:  e3530000      cmp	r3, #0	; 0x0
0x0000c668:  0a000004      beq	0xc680

----------------
IN: do_proc_packets
0x0000fab8:  e59d2034      ldr	r2, [sp, #52]
0x0000fabc:  e3520000      cmp	r2, #0	; 0x0
0x0000fac0:  1a000015      bne	0xfb1c

----------------
IN: do_proc_packets
0x0000fac4:  e1a00005      mov	r0, r5
0x0000fac8:  eb000140      bl	0xffd0

----------------
IN: xfree
0x0000ffd8:  eaffffd2      b	0xff28

----------------
IN: free
0x0000ff28:  e3500000      cmp	r0, #0	; 0x0
0x0000ff2c:  012fff1e      bxeq	lr

----------------
IN: free
0x0000ff30:  e5103004      ldr	r3, [r0, #-4]
0x0000ff34:  e3a02001      mov	r2, #1	; 0x1
0x0000ff38:  e52de004      push	{lr}		; (str lr, [sp, #-4]!)
0x0000ff3c:  e3530000      cmp	r3, #0	; 0x0
0x0000ff40:  e5402008      strb	r2, [r0, #-8]
0x0000ff44:  e240e00c      sub	lr, r0, #12	; 0xc
0x0000ff48:  0a000002      beq	0xff58

----------------
IN: free
0x0000ff4c:  e5d32004      ldrb	r2, [r3, #4]
0x0000ff50:  e3520000      cmp	r2, #0	; 0x0
0x0000ff54:  1a000015      bne	0xffb0

----------------
IN: free
0x0000ffb0:  e593c000      ldr	ip, [r3]
0x0000ffb4:  e510200c      ldr	r2, [r0, #-12]
0x0000ffb8:  e5931008      ldr	r1, [r3, #8]
0x0000ffbc:  e082300c      add	r3, r2, ip
0x0000ffc0:  e500300c      str	r3, [r0, #-12]
0x0000ffc4:  e5001004      str	r1, [r0, #-4]
0x0000ffc8:  eaffffe2      b	0xff58

----------------
IN: free
0x0000ff58:  e59f306c      ldr	r3, [pc, #108]	; 0xffcc
0x0000ff5c:  e08f3003      add	r3, pc, r3
0x0000ff60:  e5933004      ldr	r3, [r3, #4]
0x0000ff64:  e3530000      cmp	r3, #0	; 0x0
0x0000ff68:  049df004      popeq	{pc}		; (ldreq pc, [sp], #4)

----------------
IN: free
0x0000ff6c:  e1a02003      mov	r2, r3
0x0000ff70:  e5933008      ldr	r3, [r3, #8]
0x0000ff74:  e3530000      cmp	r3, #0	; 0x0
0x0000ff78:  049df004      popeq	{pc}		; (ldreq pc, [sp], #4)

----------------
IN: free
0x0000ff7c:  e5d21004      ldrb	r1, [r2, #4]
0x0000ff80:  e3510000      cmp	r1, #0	; 0x0
0x0000ff84:  0afffff8      beq	0xff6c

----------------
IN: do_proc_packets
0x0000facc:  e1a0000a      mov	r0, sl
0x0000fad0:  e28dd044      add	sp, sp, #68	; 0x44
0x0000fad4:  e8bd8ff0      pop	{r4, r5, r6, r7, r8, r9, sl, fp, pc}

----------------
IN: proc_packets
0x0000fdcc:  e1a05000      mov	r5, r0
0x0000fdd0:  e1a00004      mov	r0, r4
0x0000fdd4:  eb00007d      bl	0xffd0

----------------
IN: free
0x0000ff88:  e5921000      ldr	r1, [r2]
0x0000ff8c:  e082c001      add	ip, r2, r1
0x0000ff90:  e15e000c      cmp	lr, ip
0x0000ff94:  1afffff4      bne	0xff6c

----------------
IN: proc_packets
0x0000fdd8:  e1a00005      mov	r0, r5
0x0000fddc:  e8bd81f0      pop	{r4, r5, r6, r7, r8, pc}

----------------
IN: decrypt_data
0x0000c414:  e59d0014      ldr	r0, [sp, #20]
0x0000c418:  e3a0200e      mov	r2, #14	; 0xe
0x0000c41c:  e3402200      movt	r2, #512	; 0x200
0x0000c420:  e3a01000      mov	r1, #0	; 0x0
0x0000c424:  e5d03050      ldrb	r3, [r0, #80]
0x0000c428:  e5841010      str	r1, [r4, #16]
0x0000c42c:  e7e130d3      ubfx	r3, r3, #1, #2
0x0000c430:  e3530001      cmp	r3, #1	; 0x1
0x0000c434:  81a07002      movhi	r7, r2
0x0000c438:  eaffffda      b	0xc3a8

----------------
IN: decrypt_data
0x0000c3a8:  ebfffed9      bl	0xbf14

----------------
IN: release_dfx_context
0x0000bf14:  e92d4070      push	{r4, r5, r6, lr}
0x0000bf18:  e2504000      subs	r4, r0, #0	; 0x0
0x0000bf1c:  08bd8070      popeq	{r4, r5, r6, pc}

----------------
IN: decrypt_data
0x0000c3ac:  e1a00007      mov	r0, r7
0x0000c3b0:  e28dd03c      add	sp, sp, #60	; 0x3c
0x0000c3b4:  e8bd8ff0      pop	{r4, r5, r6, r7, r8, r9, sl, fp, pc}

----------------
IN: do_proc_packets
0x0000fa20:  e1a08000      mov	r8, r0
0x0000fa24:  e59f030c      ldr	r0, [pc, #780]	; 0xfd38
0x0000fa28:  e1a01008      mov	r1, r8
0x0000fa2c:  e08f0000      add	r0, pc, r0
0x0000fa30:  eb000b2c      bl	0x126e8

----------------
IN: do_proc_packets
0x0000fa34:  e16f3f18      clz	r3, r8
0x0000fa38:  e35a0000      cmp	sl, #0	; 0x0
0x0000fa3c:  e1a032a3      lsr	r3, r3, #5
0x0000fa40:  03a03000      moveq	r3, #0	; 0x0
0x0000fa44:  e3530000      cmp	r3, #0	; 0x0
0x0000fa48:  0a000026      beq	0xfae8

----------------
IN: do_proc_packets
0x0000fae8:  e3780001      cmn	r8, #1	; 0x1
0x0000faec:  0affffdb      beq	0xfa60

----------------
IN: do_proc_packets
0x0000faf0:  e3580000      cmp	r8, #0	; 0x0
0x0000faf4:  1a000036      bne	0xfbd4

----------------
IN: do_proc_packets
0x0000faf8:  e3a00019      mov	r0, #25	; 0x19
0x0000fafc:  eb000af9      bl	0x126e8

----------------
IN: do_proc_packets
0x0000fb00:  e59f0240      ldr	r0, [pc, #576]	; 0xfd48
0x0000fb04:  e08f0000      add	r0, pc, r0
0x0000fb08:  eb000af6      bl	0x126e8

----------------
IN: do_proc_packets
0x0000fb0c:  e59f0238      ldr	r0, [pc, #568]	; 0xfd4c
0x0000fb10:  e08f0000      add	r0, pc, r0
0x0000fb14:  eb000af3      bl	0x126e8

----------------
IN: do_proc_packets
0x0000fb18:  eaffffd0      b	0xfa60

----------------
IN: do_proc_packets
0x0000fa60:  e594002c      ldr	r0, [r4, #44]
0x0000fa64:  e3a08000      mov	r8, #0	; 0x0
0x0000fa68:  eb000158      bl	0xffd0

----------------
IN: do_proc_packets
0x0000fa6c:  e584802c      str	r8, [r4, #44]
0x0000fa70:  e1a01008      mov	r1, r8
0x0000fa74:  e1a00005      mov	r0, r5
0x0000fa78:  ebfff2f4      bl	0xc650

----------------
IN: free_packet.localalias
0x0000c66c:  e5d01000      ldrb	r1, [r0]
0x0000c670:  e59f0050      ldr	r0, [pc, #80]	; 0xc6c8
0x0000c674:  e8bd4010      pop	{r4, lr}
0x0000c678:  e08f0000      add	r0, pc, r0
0x0000c67c:  ea001819      b	0x126e8

----------------
IN: do_proc_packets
0x0000fa7c:  e5848038      str	r8, [r4, #56]
0x0000fa80:  e3a0002a      mov	r0, #42	; 0x2a
0x0000fa84:  eb000b17      bl	0x126e8

----------------
IN: do_proc_packets
0x0000fa88:  e59f22b0      ldr	r2, [pc, #688]	; 0xfd40
0x0000fa8c:  e08f2002      add	r2, pc, r2
0x0000fa90:  e5923000      ldr	r3, [r2]
0x0000fa94:  e2833001      add	r3, r3, #1	; 0x1
0x0000fa98:  e5823000      str	r3, [r2]
0x0000fa9c:  eaffffa9      b	0xf948

----------------
IN: do_proc_packets
0x0000f948:  e5d53000      ldrb	r3, [r5]
0x0000f94c:  e3530002      cmp	r3, #2	; 0x2
0x0000f950:  13530013      cmpne	r3, #19	; 0x13
0x0000f954:  0a000005      beq	0xf970

----------------
IN: proc_encryption_packets
0x0000fe34:  e1a05000      mov	r5, r0
0x0000fe38:  e1a00004      mov	r0, r4
0x0000fe3c:  eb000063      bl	0xffd0

----------------
IN: proc_encryption_packets
0x0000fe40:  e1a00005      mov	r0, r5
0x0000fe44:  e8bd81f0      pop	{r4, r5, r6, r7, r8, pc}

----------------
IN: decrypt_memory
0x0000be5c:  e28dd014      add	sp, sp, #20	; 0x14
0x0000be60:  e8bd83f0      pop	{r4, r5, r6, r7, r8, r9, pc}

----------------
IN: main
0x00013eb8:  e2501000      subs	r1, r0, #0	; 0x0
0x00013ebc:  1a000013      bne	0x13f10

----------------
IN: main
0x00013ec0:  e59f30b0      ldr	r3, [pc, #176]	; 0x13f78
0x00013ec4:  e3a00000      mov	r0, #0	; 0x0
0x00013ec8:  e7961003      ldr	r1, [r6, r3]
0x00013ecc:  ebfff9ff      bl	0x126d0

----------------
IN: main
0x00013ed0:  e59f00a4      ldr	r0, [pc, #164]	; 0x13f7c
0x00013ed4:  e08f0000      add	r0, pc, r0
0x00013ed8:  ebfffa02      bl	0x126e8

----------------
IN: putc_uart2
0x0000f370:  e1a00001      mov	r0, r1
0x0000f374:  eafffff9      b	0xf360

----------------
IN: uart_putc
0x0000f360:  e3a03a01      mov	r3, #4096	; 0x1000
0x0000f364:  e341301f      movt	r3, #4127	; 0x101f
0x0000f368:  e5830000      str	r0, [r3]
0x0000f36c:  e12fff1e      bx	lr

----------------
IN: main
0x00013edc:  e59f009c      ldr	r0, [pc, #156]	; 0x13f80
0x00013ee0:  e30c2afe      movw	r2, #51966	; 0xcafe
0x00013ee4:  e34b2abe      movt	r2, #47806	; 0xbabe
0x00013ee8:  e30b1eef      movw	r1, #48879	; 0xbeef
0x00013eec:  e34d1ead      movt	r1, #57005	; 0xdead
0x00013ef0:  e08f0000      add	r0, pc, r0
0x00013ef4:  ebfff9fb      bl	0x126e8

----------------
IN: main
0x00013ef8:  e320f003      wfi

