
build/kernel2.img:     file format elf32-littlearm


Disassembly of section .text:

00008000 <__text_start>:
    8000:	e3a0d302 	mov	sp, #134217728	; 0x8000000
    8004:	eb002dac 	bl	136bc <__rodata_start>
    8008:	eafffffe 	b	8008 <__text_start+0x8>

0000800c <gnupg_rl_initialize>:
                            cleanup_after_signal,
                            readline,
                            add_history);
  rl_readline_name = GNUPG_NAME;
#endif
}
    800c:	e12fff1e 	bx	lr

00008010 <fd_cache_strcmp>:
   distinguish between backslash and slash.  */
static int
fd_cache_strcmp (const char *a, const char *b)
{
// #ifdef HAVE_DOSISH_SYSTEM
  for (; *a && *b; a++, b++)
    8010:	e5d03000 	ldrb	r3, [r0]
    8014:	e3530000 	cmp	r3, #0
    {
      if (*a != *b && !((*a == '/' && *b == '\\')
                        || (*a == '\\' && *b == '/')) )
        break;
    }
  return *(const unsigned char *)a - *(const unsigned char *)b;
    8018:	05d12000 	ldrbeq	r2, [r1]
  for (; *a && *b; a++, b++)
    801c:	1a00000c 	bne	8054 <fd_cache_strcmp+0x44>
    8020:	ea00000f 	b	8064 <fd_cache_strcmp+0x54>
      if (*a != *b && !((*a == '/' && *b == '\\')
    8024:	e1520003 	cmp	r2, r3
    8028:	0a000006 	beq	8048 <fd_cache_strcmp+0x38>
    802c:	e353002f 	cmp	r3, #47	; 0x2f
    8030:	0352005c 	cmpeq	r2, #92	; 0x5c
    8034:	0a000003 	beq	8048 <fd_cache_strcmp+0x38>
    8038:	e353005c 	cmp	r3, #92	; 0x5c
    803c:	1a000008 	bne	8064 <fd_cache_strcmp+0x54>
                        || (*a == '\\' && *b == '/')) )
    8040:	e352002f 	cmp	r2, #47	; 0x2f
    8044:	1a000006 	bne	8064 <fd_cache_strcmp+0x54>
  for (; *a && *b; a++, b++)
    8048:	e5f03001 	ldrb	r3, [r0, #1]!
    804c:	e3530000 	cmp	r3, #0
    8050:	0a000005 	beq	806c <fd_cache_strcmp+0x5c>
    8054:	e1a0c001 	mov	ip, r1
    8058:	e4d12001 	ldrb	r2, [r1], #1
    805c:	e3520000 	cmp	r2, #0
    8060:	1affffef 	bne	8024 <fd_cache_strcmp+0x14>
// #else
//  return strcmp (a, b);
// #endif
}
    8064:	e0430002 	sub	r0, r3, r2
    8068:	e12fff1e 	bx	lr
  return *(const unsigned char *)a - *(const unsigned char *)b;
    806c:	e5dc2001 	ldrb	r2, [ip, #1]
}
    8070:	e0430002 	sub	r0, r3, r2
    8074:	e12fff1e 	bx	lr

00008078 <fd_cache_invalidate>:
/*
 * Invalidate (i.e. close) a cached iobuf
 */
static int
fd_cache_invalidate (const char *fname)
{
    8078:	e92d4070 	push	{r4, r5, r6, lr}
    807c:	e1a05000 	mov	r5, r0
    8080:	e59f403c 	ldr	r4, [pc, #60]	; 80c4 <fd_cache_invalidate+0x4c>
  close_cache_t cc;
  int rc = 0;

  printf (fname);
    8084:	eb0024de 	bl	11404 <tfp_printf>
  if (DBG_IOBUF)
    8088:	e59f2038 	ldr	r2, [pc, #56]	; 80c8 <fd_cache_invalidate+0x50>
{
    808c:	e08f4004 	add	r4, pc, r4
    8090:	e1a03004 	mov	r3, r4
  if (DBG_IOBUF)
    8094:	e7943002 	ldr	r3, [r4, r2]
    8098:	e5933000 	ldr	r3, [r3]
    809c:	e3530000 	cmp	r3, #0
    80a0:	1a000001 	bne	80ac <fd_cache_invalidate+0x34>
#endif
	  cc->fp = GNUPG_INVALID_FD;
	}
    }
  return rc;
}
    80a4:	e3a00000 	mov	r0, #0
    80a8:	e8bd8070 	pop	{r4, r5, r6, pc}
    printf ("fd_cache_invalidate (%s)\n", fname);
    80ac:	e59f0018 	ldr	r0, [pc, #24]	; 80cc <fd_cache_invalidate+0x54>
    80b0:	e1a01005 	mov	r1, r5
    80b4:	e08f0000 	add	r0, pc, r0
    80b8:	eb0024d1 	bl	11404 <tfp_printf>
}
    80bc:	e3a00000 	mov	r0, #0
    80c0:	e8bd8070 	pop	{r4, r5, r6, pc}
    80c4:	00033930 	.word	0x00033930
    80c8:	0000001c 	.word	0x0000001c
    80cc:	0000de88 	.word	0x0000de88

000080d0 <file_filter>:


int
file_filter (void *opaque, int control, iobuf_t chain, byte * buf,
	     size_t * ret_len)
{
    80d0:	e92d41f0 	push	{r4, r5, r6, r7, r8, lr}
  size_t nbytes = 0;
  int rc = 0;

  (void)chain; /* Not used.  */

  if (control == IOBUFCTRL_UNDERFLOW)
    80d4:	e3510003 	cmp	r1, #3
{
    80d8:	e59d6018 	ldr	r6, [sp, #24]
    80dc:	e1a04000 	mov	r4, r0
    80e0:	e59fc14c 	ldr	ip, [pc, #332]	; 8234 <file_filter+0x164>
    80e4:	e1a05003 	mov	r5, r3
  size_t size = *ret_len;
    80e8:	e5967000 	ldr	r7, [r6]
{
    80ec:	e08fc00c 	add	ip, pc, ip
  if (control == IOBUFCTRL_UNDERFLOW)
    80f0:	0a00000d 	beq	812c <file_filter+0x5c>
	    }
#endif
	  *ret_len = nbytes;
	}
    }
  else if (control == IOBUFCTRL_FLUSH)
    80f4:	e3510004 	cmp	r1, #4
    80f8:	0a000007 	beq	811c <file_filter+0x4c>
	  nbytes = p - buf;
#endif
	}
      *ret_len = nbytes;
    }
  else if (control == IOBUFCTRL_INIT)
    80fc:	e3510001 	cmp	r1, #1
    8100:	0a000018 	beq	8168 <file_filter+0x98>
      a->keep_open = 0;
      a->no_cache = 0;
      a->npeeked = 0;
      a->upeeked = 0;
    }
  else if (control == IOBUFCTRL_PEEK)
    8104:	e3510007 	cmp	r1, #7
    8108:	0a00003b 	beq	81fc <file_filter+0x12c>
    }
  else if (control == IOBUFCTRL_DESC)
    {
//      mem2str (buf, "file_filter(fd)", *ret_len);
    }
  else if (control == IOBUFCTRL_FREE)
    810c:	e3510002 	cmp	r1, #2
    8110:	0a000029 	beq	81bc <file_filter+0xec>
  int rc = 0;
    8114:	e3a00000 	mov	r0, #0
	}
      xfree (a); /* We can free our context now. */
    }

  return rc;
}
    8118:	e8bd81f0 	pop	{r4, r5, r6, r7, r8, pc}
      *ret_len = nbytes;
    811c:	e3a03000 	mov	r3, #0
    8120:	e5863000 	str	r3, [r6]
	  if (n == -1)
    8124:	e1a00003 	mov	r0, r3
      *ret_len = nbytes;
    8128:	e8bd81f0 	pop	{r4, r5, r6, r7, r8, pc}
      printf (size); /* We need a buffer.  */
    812c:	e1a00007 	mov	r0, r7
    8130:	eb0024b3 	bl	11404 <tfp_printf>
      if (a->npeeked > a->upeeked)
    8134:	e5d43034 	ldrb	r3, [r4, #52]	; 0x34
    8138:	e5d42035 	ldrb	r2, [r4, #53]	; 0x35
    813c:	e1530002 	cmp	r3, r2
    8140:	8a00000f 	bhi	8184 <file_filter+0xb4>
      else if (a->eof_seen)
    8144:	e594000c 	ldr	r0, [r4, #12]
    8148:	e3500000 	cmp	r0, #0
	      rc = -1;
    814c:	e3e00000 	mvn	r0, #0
	  *ret_len = 0;
    8150:	13a03000 	movne	r3, #0
	      a->eof_seen = 1;
    8154:	03a02001 	moveq	r2, #1
    8158:	0584200c 	streq	r2, [r4, #12]
	  *ret_len = nbytes;
    815c:	03a03000 	moveq	r3, #0
    8160:	e5863000 	str	r3, [r6]
    8164:	e8bd81f0 	pop	{r4, r5, r6, r7, r8, pc}
      a->eof_seen = 0;
    8168:	e3a03000 	mov	r3, #0
    816c:	e580300c 	str	r3, [r0, #12]
  int rc = 0;
    8170:	e1a00003 	mov	r0, r3
      a->keep_open = 0;
    8174:	e5843004 	str	r3, [r4, #4]
      a->no_cache = 0;
    8178:	e5843008 	str	r3, [r4, #8]
      a->npeeked = 0;
    817c:	e1c433b4 	strh	r3, [r4, #52]	; 0x34
    8180:	e8bd81f0 	pop	{r4, r5, r6, r7, r8, pc}
          nbytes = a->npeeked - a->upeeked;
    8184:	e0433002 	sub	r3, r3, r2
          memcpy (buf, a->peeked + a->upeeked, nbytes);
    8188:	e2841014 	add	r1, r4, #20
    818c:	e1570003 	cmp	r7, r3
    8190:	e1a00005 	mov	r0, r5
    8194:	e0811002 	add	r1, r1, r2
    8198:	21a07003 	movcs	r7, r3
    819c:	e1a02007 	mov	r2, r7
    81a0:	eb001bcb 	bl	f0d4 <memcpy>
          a->upeeked += nbytes;
    81a4:	e5d43035 	ldrb	r3, [r4, #53]	; 0x35
  int rc = 0;
    81a8:	e3a00000 	mov	r0, #0
          a->upeeked += nbytes;
    81ac:	e0833007 	add	r3, r3, r7
    81b0:	e5c43035 	strb	r3, [r4, #53]	; 0x35
          *ret_len = nbytes;
    81b4:	e5867000 	str	r7, [r6]
    81b8:	e8bd81f0 	pop	{r4, r5, r6, r7, r8, pc}
  gnupg_fd_t f = a->fp;
    81bc:	e5902000 	ldr	r2, [r0]
      if (f != FD_FOR_STDIN && f != FD_FOR_STDOUT)
    81c0:	e3520001 	cmp	r2, #1
    81c4:	9a000008 	bls	81ec <file_filter+0x11c>
	  if (DBG_IOBUF)
    81c8:	e59f3068 	ldr	r3, [pc, #104]	; 8238 <file_filter+0x168>
    81cc:	e79c3003 	ldr	r3, [ip, r3]
    81d0:	e5933000 	ldr	r3, [r3]
    81d4:	e3530000 	cmp	r3, #0
    81d8:	0a000003 	beq	81ec <file_filter+0x11c>
	    printf ("%s: close fd/handle %d\n", a->fname, FD2INT (f));
    81dc:	e59f0058 	ldr	r0, [pc, #88]	; 823c <file_filter+0x16c>
    81e0:	e2841036 	add	r1, r4, #54	; 0x36
    81e4:	e08f0000 	add	r0, pc, r0
    81e8:	eb002485 	bl	11404 <tfp_printf>
      xfree (a); /* We can free our context now. */
    81ec:	e1a00004 	mov	r0, r4
    81f0:	eb001b7d 	bl	efec <xfree>
  int rc = 0;
    81f4:	e3a00000 	mov	r0, #0
    81f8:	e8bd81f0 	pop	{r4, r5, r6, r7, r8, pc}
          a->npeeked += n;
    81fc:	e5d02034 	ldrb	r2, [r0, #52]	; 0x34
      if (n > 0)
    8200:	e3a03000 	mov	r3, #0
    8204:	e1530003 	cmp	r3, r3
      memcpy (buf, a->peeked, size);
    8208:	e2801014 	add	r1, r0, #20
          a->eof_seen = 1;
    820c:	03a03001 	moveq	r3, #1
    8210:	0580300c 	streq	r3, [r0, #12]
      memcpy (buf, a->peeked, size);
    8214:	e1a00005 	mov	r0, r5
      size = a->npeeked < size? a->npeeked : size;
    8218:	e1520007 	cmp	r2, r7
    821c:	31a07002 	movcc	r7, r2
      memcpy (buf, a->peeked, size);
    8220:	e1a02007 	mov	r2, r7
    8224:	eb001baa 	bl	f0d4 <memcpy>
      *ret_len = size;
    8228:	e5867000 	str	r7, [r6]
      rc = 0;  /* Return success - the user needs to check ret_len.  */
    822c:	e3a00000 	mov	r0, #0
    8230:	e8bd81f0 	pop	{r4, r5, r6, r7, r8, pc}
    8234:	000338d0 	.word	0x000338d0
    8238:	0000001c 	.word	0x0000001c
    823c:	0000dd74 	.word	0x0000dd74

00008240 <filter_flush>:
{
    8240:	e92d4030 	push	{r4, r5, lr}
    8244:	e1a04000 	mov	r4, r0
  if (a->use == IOBUF_OUTPUT_TEMP)
    8248:	e5d03000 	ldrb	r3, [r0]
{
    824c:	e24dd014 	sub	sp, sp, #20
    8250:	e59f20f4 	ldr	r2, [pc, #244]	; 834c <filter_flush+0x10c>
  if (a->use == IOBUF_OUTPUT_TEMP)
    8254:	e3530003 	cmp	r3, #3
{
    8258:	e08f2002 	add	r2, pc, r2
  if (a->use == IOBUF_OUTPUT_TEMP)
    825c:	0a000021 	beq	82e8 <filter_flush+0xa8>
  else if (a->use != IOBUF_OUTPUT)
    8260:	e3530002 	cmp	r3, #2
    8264:	1a00001a 	bne	82d4 <filter_flush+0x94>
  else if (!a->filter)
    8268:	e590502c 	ldr	r5, [r0, #44]	; 0x2c
    826c:	e3550000 	cmp	r5, #0
    8270:	0a000030 	beq	8338 <filter_flush+0xf8>
  len = a->d.len;
    8274:	e594101c 	ldr	r1, [r4, #28]
  rc = a->filter (a->filter_ov, IOBUFCTRL_FLUSH, a->chain, a->d.buf, &len);
    8278:	e28d200c 	add	r2, sp, #12
    827c:	e5943020 	ldr	r3, [r4, #32]
  len = a->d.len;
    8280:	e58d100c 	str	r1, [sp, #12]
  rc = a->filter (a->filter_ov, IOBUFCTRL_FLUSH, a->chain, a->d.buf, &len);
    8284:	e3a01004 	mov	r1, #4
    8288:	e58d2000 	str	r2, [sp]
    828c:	e594203c 	ldr	r2, [r4, #60]	; 0x3c
    8290:	e5940030 	ldr	r0, [r4, #48]	; 0x30
    8294:	e12fff35 	blx	r5
  if (!rc && len != a->d.len)
    8298:	e3500000 	cmp	r0, #0
    a->error = rc;
    829c:	15840028 	strne	r0, [r4, #40]	; 0x28
  if (!rc && len != a->d.len)
    82a0:	1a000007 	bne	82c4 <filter_flush+0x84>
    82a4:	e594201c 	ldr	r2, [r4, #28]
    82a8:	e59d300c 	ldr	r3, [sp, #12]
    82ac:	e1520003 	cmp	r2, r3
    82b0:	0a000003 	beq	82c4 <filter_flush+0x84>
      printf ("filter_flush did not write all!\n");
    82b4:	e59f0094 	ldr	r0, [pc, #148]	; 8350 <filter_flush+0x110>
    82b8:	e08f0000 	add	r0, pc, r0
    82bc:	eb002450 	bl	11404 <tfp_printf>
      rc = GPG_ERR_INTERNAL;
    82c0:	e3a0003f 	mov	r0, #63	; 0x3f
  a->d.len = 0;
    82c4:	e3a03000 	mov	r3, #0
    82c8:	e584301c 	str	r3, [r4, #28]
}
    82cc:	e28dd014 	add	sp, sp, #20
    82d0:	e8bd8030 	pop	{r4, r5, pc}
    printf ("flush on non-output iobuf\n");
    82d4:	e59f0078 	ldr	r0, [pc, #120]	; 8354 <filter_flush+0x114>
    82d8:	e08f0000 	add	r0, pc, r0
    82dc:	eb002448 	bl	11404 <tfp_printf>
  rc = a->filter (a->filter_ov, IOBUFCTRL_FLUSH, a->chain, a->d.buf, &len);
    82e0:	e594502c 	ldr	r5, [r4, #44]	; 0x2c
    82e4:	eaffffe2 	b	8274 <filter_flush+0x34>
      if (DBG_IOBUF)
    82e8:	e59f3068 	ldr	r3, [pc, #104]	; 8358 <filter_flush+0x118>
      size_t newsize = a->d.size + IOBUF_BUFFER_SIZE;
    82ec:	e5901014 	ldr	r1, [r0, #20]
      if (DBG_IOBUF)
    82f0:	e7923003 	ldr	r3, [r2, r3]
      size_t newsize = a->d.size + IOBUF_BUFFER_SIZE;
    82f4:	e2815a02 	add	r5, r1, #8192	; 0x2000
      if (DBG_IOBUF)
    82f8:	e5933000 	ldr	r3, [r3]
    82fc:	e3530000 	cmp	r3, #0
    8300:	1a000007 	bne	8324 <filter_flush+0xe4>
      a->d.buf = xrealloc (a->d.buf, newsize);
    8304:	e5940020 	ldr	r0, [r4, #32]
    8308:	e1a01005 	mov	r1, r5
    830c:	eb001b79 	bl	f0f8 <xrealloc>
    8310:	e5840020 	str	r0, [r4, #32]
      return 0;
    8314:	e3a00000 	mov	r0, #0
      a->d.size = newsize;
    8318:	e5845014 	str	r5, [r4, #20]
}
    831c:	e28dd014 	add	sp, sp, #20
    8320:	e8bd8030 	pop	{r4, r5, pc}
	printf ("increasing temp iobuf from %lu to %lu\n",
    8324:	e59f0030 	ldr	r0, [pc, #48]	; 835c <filter_flush+0x11c>
    8328:	e1a02005 	mov	r2, r5
    832c:	e08f0000 	add	r0, pc, r0
    8330:	eb002433 	bl	11404 <tfp_printf>
    8334:	eafffff2 	b	8304 <filter_flush+0xc4>
    printf ("filter_flush: no filter\n");
    8338:	e59f0020 	ldr	r0, [pc, #32]	; 8360 <filter_flush+0x120>
    833c:	e08f0000 	add	r0, pc, r0
    8340:	eb00242f 	bl	11404 <tfp_printf>
  rc = a->filter (a->filter_ov, IOBUFCTRL_FLUSH, a->chain, a->d.buf, &len);
    8344:	e594502c 	ldr	r5, [r4, #44]	; 0x2c
    8348:	eaffffc9 	b	8274 <filter_flush+0x34>
    834c:	00033764 	.word	0x00033764
    8350:	0000dd18 	.word	0x0000dd18
    8354:	0000dcc0 	.word	0x0000dcc0
    8358:	0000001c 	.word	0x0000001c
    835c:	0000dc44 	.word	0x0000dc44
    8360:	0000dc78 	.word	0x0000dc78

00008364 <print_chain.part.0>:
print_chain (iobuf_t a)
    8364:	e92d4ff0 	push	{r4, r5, r6, r7, r8, r9, sl, fp, lr}
  for (; a; a = a->chain)
    8368:	e2504000 	subs	r4, r0, #0
print_chain (iobuf_t a)
    836c:	e24dd03c 	sub	sp, sp, #60	; 0x3c
  for (; a; a = a->chain)
    8370:	0a000026 	beq	8410 <print_chain.part.0+0xac>
    memcpy (buf, "?", 2);
    8374:	e59fb09c 	ldr	fp, [pc, #156]	; 8418 <print_chain.part.0+0xb4>
    8378:	e28d6018 	add	r6, sp, #24
      printf ("iobuf chain: %d.%d '%s' filter_eof=%d start=%d len=%d\n",
    837c:	e59fa098 	ldr	sl, [pc, #152]	; 841c <print_chain.part.0+0xb8>
  size_t len = MAX_IOBUF_DESC;
    8380:	e3a09020 	mov	r9, #32
    memcpy (buf, "?", 2);
    8384:	e08fb00b 	add	fp, pc, fp
      printf ("iobuf chain: %d.%d '%s' filter_eof=%d start=%d len=%d\n",
    8388:	e08fa00a 	add	sl, pc, sl
    838c:	ea000010 	b	83d4 <print_chain.part.0+0x70>
    a->filter (a->filter_ov, IOBUFCTRL_DESC, NULL, buf, &len);
    8390:	e5940030 	ldr	r0, [r4, #48]	; 0x30
    8394:	e58dc000 	str	ip, [sp]
    8398:	e12fff35 	blx	r5
      printf ("iobuf chain: %d.%d '%s' filter_eof=%d start=%d len=%d\n",
    839c:	e594201c 	ldr	r2, [r4, #28]
    83a0:	e1a03006 	mov	r3, r6
    83a4:	e1a01007 	mov	r1, r7
    83a8:	e1a0000a 	mov	r0, sl
    83ac:	e58d2008 	str	r2, [sp, #8]
    83b0:	e5942018 	ldr	r2, [r4, #24]
    83b4:	e58d2004 	str	r2, [sp, #4]
    83b8:	e5942024 	ldr	r2, [r4, #36]	; 0x24
    83bc:	e58d2000 	str	r2, [sp]
    83c0:	e1a02008 	mov	r2, r8
    83c4:	eb00240e 	bl	11404 <tfp_printf>
  for (; a; a = a->chain)
    83c8:	e594403c 	ldr	r4, [r4, #60]	; 0x3c
    83cc:	e3540000 	cmp	r4, #0
    83d0:	0a00000e 	beq	8410 <print_chain.part.0+0xac>
  if (! a || ! a->filter)
    83d4:	e594502c 	ldr	r5, [r4, #44]	; 0x2c
    a->filter (a->filter_ov, IOBUFCTRL_DESC, NULL, buf, &len);
    83d8:	e28dc014 	add	ip, sp, #20
      printf ("iobuf chain: %d.%d '%s' filter_eof=%d start=%d len=%d\n",
    83dc:	e5947040 	ldr	r7, [r4, #64]	; 0x40
    a->filter (a->filter_ov, IOBUFCTRL_DESC, NULL, buf, &len);
    83e0:	e1a03006 	mov	r3, r6
      printf ("iobuf chain: %d.%d '%s' filter_eof=%d start=%d len=%d\n",
    83e4:	e5948044 	ldr	r8, [r4, #68]	; 0x44
  if (! a || ! a->filter)
    83e8:	e3550000 	cmp	r5, #0
  size_t len = MAX_IOBUF_DESC;
    83ec:	e58d9014 	str	r9, [sp, #20]
    a->filter (a->filter_ov, IOBUFCTRL_DESC, NULL, buf, &len);
    83f0:	e3a02000 	mov	r2, #0
    83f4:	e3a01005 	mov	r1, #5
  if (! a || ! a->filter)
    83f8:	1affffe4 	bne	8390 <print_chain.part.0+0x2c>
    memcpy (buf, "?", 2);
    83fc:	e3a02002 	mov	r2, #2
    8400:	e1a0100b 	mov	r1, fp
    8404:	e1a00006 	mov	r0, r6
    8408:	eb001b31 	bl	f0d4 <memcpy>
    840c:	eaffffe2 	b	839c <print_chain.part.0+0x38>
}
    8410:	e28dd03c 	add	sp, sp, #60	; 0x3c
    8414:	e8bd8ff0 	pop	{r4, r5, r6, r7, r8, r9, sl, fp, pc}
    8418:	0000dc70 	.word	0x0000dc70
    841c:	0000dc70 	.word	0x0000dc70

00008420 <fd_cache_open>:
{
    8420:	e92d4070 	push	{r4, r5, r6, lr}
    8424:	e1a04000 	mov	r4, r0
  printf ("fd_cache_open (%s) not cached\n", fname);
    8428:	e59f0090 	ldr	r0, [pc, #144]	; 84c0 <fd_cache_open+0xa0>
{
    842c:	e1a05001 	mov	r5, r1
  printf ("fd_cache_open (%s) not cached\n", fname);
    8430:	e1a01004 	mov	r1, r4
    8434:	e08f0000 	add	r0, pc, r0
    8438:	eb0023f1 	bl	11404 <tfp_printf>
  if (strchr (mode, '+'))
    843c:	e3a0102b 	mov	r1, #43	; 0x2b
    8440:	e1a00005 	mov	r0, r5
    8444:	eb001b83 	bl	f258 <strchr>
    8448:	e3500000 	cmp	r0, #0
    844c:	0a000010 	beq	8494 <fd_cache_open+0x74>
      if (fd_cache_invalidate (fname))
    8450:	e1a00004 	mov	r0, r4
    8454:	ebffff07 	bl	8078 <fd_cache_invalidate>
    8458:	e3500000 	cmp	r0, #0
      oflag = O_RDWR;
    845c:	03a06002 	moveq	r6, #2
      if (fd_cache_invalidate (fname))
    8460:	1a000009 	bne	848c <fd_cache_open+0x6c>
  if (strchr (mode, 'b'))
    8464:	e3a01062 	mov	r1, #98	; 0x62
    8468:	e1a00005 	mov	r0, r5
    846c:	eb001b79 	bl	f258 <strchr>
    8470:	e3500000 	cmp	r0, #0
  return open (fname, oflag, cflag);
    8474:	e30021b6 	movw	r2, #438	; 0x1b6
    oflag |= O_BINARY;
    8478:	13866801 	orrne	r6, r6, #65536	; 0x10000
  return open (fname, oflag, cflag);
    847c:	e1a00004 	mov	r0, r4
    8480:	e1a01006 	mov	r1, r6
}
    8484:	e8bd4070 	pop	{r4, r5, r6, lr}
  return open (fname, oflag, cflag);
    8488:	ea001b8e 	b	f2c8 <open>
}
    848c:	e3e00000 	mvn	r0, #0
    8490:	e8bd8070 	pop	{r4, r5, r6, pc}
  else if (strchr (mode, 'w'))
    8494:	e3a01077 	mov	r1, #119	; 0x77
    8498:	e1a00005 	mov	r0, r5
    849c:	eb001b6d 	bl	f258 <strchr>
    84a0:	e2506000 	subs	r6, r0, #0
    84a4:	0affffee 	beq	8464 <fd_cache_open+0x44>
      if (fd_cache_invalidate (fname))
    84a8:	e1a00004 	mov	r0, r4
    84ac:	ebfffef1 	bl	8078 <fd_cache_invalidate>
    84b0:	e3500000 	cmp	r0, #0
    84b4:	1afffff4 	bne	848c <fd_cache_open+0x6c>
      oflag = O_WRONLY | O_CREAT | O_TRUNC;
    84b8:	e3006601 	movw	r6, #1537	; 0x601
    84bc:	eaffffe8 	b	8464 <fd_cache_open+0x44>
    84c0:	0000dbfc 	.word	0x0000dbfc

000084c4 <iobuf_print_chain>:
{
    84c4:	e59f302c 	ldr	r3, [pc, #44]	; 84f8 <iobuf_print_chain+0x34>
  if (!DBG_IOBUF)
    84c8:	e59f202c 	ldr	r2, [pc, #44]	; 84fc <iobuf_print_chain+0x38>
{
    84cc:	e08f3003 	add	r3, pc, r3
  if (!DBG_IOBUF)
    84d0:	e7933002 	ldr	r3, [r3, r2]
    84d4:	e5933000 	ldr	r3, [r3]
    84d8:	e3530000 	cmp	r3, #0
    84dc:	0a000003 	beq	84f0 <iobuf_print_chain+0x2c>
{
    84e0:	e92d4010 	push	{r4, lr}
    84e4:	ebffff9e 	bl	8364 <print_chain.part.0>
}
    84e8:	e3a00000 	mov	r0, #0
    84ec:	e8bd8010 	pop	{r4, pc}
    84f0:	e3a00000 	mov	r0, #0
    84f4:	e12fff1e 	bx	lr
    84f8:	000334f0 	.word	0x000334f0
    84fc:	0000001c 	.word	0x0000001c

00008500 <iobuf_alloc>:
{
    8500:	e1a03000 	mov	r3, r0
    8504:	e92d4030 	push	{r4, r5, lr}
    8508:	e24dd00c 	sub	sp, sp, #12
  printf ("iobuf_alloc use:%d %d\n",use, use == IOBUF_INPUT || use == IOBUF_INPUT_TEMP || use == IOBUF_OUTPUT || use == IOBUF_OUTPUT_TEMP);
    850c:	e59f0098 	ldr	r0, [pc, #152]	; 85ac <iobuf_alloc+0xac>
    8510:	e3530003 	cmp	r3, #3
{
    8514:	e58d1004 	str	r1, [sp, #4]
  printf ("iobuf_alloc use:%d %d\n",use, use == IOBUF_INPUT || use == IOBUF_INPUT_TEMP || use == IOBUF_OUTPUT || use == IOBUF_OUTPUT_TEMP);
    8518:	83a02000 	movhi	r2, #0
    851c:	e08f0000 	add	r0, pc, r0
    8520:	e1a01003 	mov	r1, r3
    8524:	93a02001 	movls	r2, #1
{
    8528:	e1a05003 	mov	r5, r3
  printf ("iobuf_alloc use:%d %d\n",use, use == IOBUF_INPUT || use == IOBUF_INPUT_TEMP || use == IOBUF_OUTPUT || use == IOBUF_OUTPUT_TEMP);
    852c:	eb0023b4 	bl	11404 <tfp_printf>
  if (bufsize == 0)
    8530:	e59d3004 	ldr	r3, [sp, #4]
    8534:	e3530000 	cmp	r3, #0
    8538:	0a000015 	beq	8594 <iobuf_alloc+0x94>
  a = xcalloc (1, sizeof *a);
    853c:	e3a01048 	mov	r1, #72	; 0x48
    8540:	e3a00001 	mov	r0, #1
    8544:	eb001ad1 	bl	f090 <xcalloc>
    8548:	e1a04000 	mov	r4, r0
  a->d.buf = xmalloc (bufsize);
    854c:	e59d0004 	ldr	r0, [sp, #4]
  a->use = use;
    8550:	e5c45000 	strb	r5, [r4]
  a->d.buf = xmalloc (bufsize);
    8554:	eb001ab0 	bl	f01c <xmalloc>
  a->no = ++number;
    8558:	e59f2050 	ldr	r2, [pc, #80]	; 85b0 <iobuf_alloc+0xb0>
  a->subno = 0;
    855c:	e3a01000 	mov	r1, #0
  a->d.size = bufsize;
    8560:	e59d3004 	ldr	r3, [sp, #4]
  a->no = ++number;
    8564:	e08f2002 	add	r2, pc, r2
  a->d.size = bufsize;
    8568:	e5843014 	str	r3, [r4, #20]
  a->no = ++number;
    856c:	e5923000 	ldr	r3, [r2]
  a->d.buf = xmalloc (bufsize);
    8570:	e5840020 	str	r0, [r4, #32]
}
    8574:	e1a00004 	mov	r0, r4
  a->subno = 0;
    8578:	e5841044 	str	r1, [r4, #68]	; 0x44
  a->no = ++number;
    857c:	e2833001 	add	r3, r3, #1
  a->real_fname = NULL;
    8580:	e5841038 	str	r1, [r4, #56]	; 0x38
  a->no = ++number;
    8584:	e5823000 	str	r3, [r2]
    8588:	e5843040 	str	r3, [r4, #64]	; 0x40
}
    858c:	e28dd00c 	add	sp, sp, #12
    8590:	e8bd8030 	pop	{r4, r5, pc}
      printf ("iobuf_alloc() passed a bufsize of 0!\n");
    8594:	e59f0018 	ldr	r0, [pc, #24]	; 85b4 <iobuf_alloc+0xb4>
      bufsize = IOBUF_BUFFER_SIZE;
    8598:	e3a03a02 	mov	r3, #8192	; 0x2000
    859c:	e58d3004 	str	r3, [sp, #4]
      printf ("iobuf_alloc() passed a bufsize of 0!\n");
    85a0:	e08f0000 	add	r0, pc, r0
    85a4:	eb002396 	bl	11404 <tfp_printf>
      bufsize = IOBUF_BUFFER_SIZE;
    85a8:	eaffffe3 	b	853c <iobuf_alloc+0x3c>
    85ac:	0000db34 	.word	0x0000db34
    85b0:	00033a94 	.word	0x00033a94
    85b4:	0000dac8 	.word	0x0000dac8

000085b8 <do_open.constprop.0>:
do_open (const char *fname, int special_filenames,
    85b8:	e92d47f0 	push	{r4, r5, r6, r7, r8, r9, sl, lr}
    85bc:	e1a04000 	mov	r4, r0
  printf("do_open %s %d %s", fname, use, opentype);
    85c0:	e59f0190 	ldr	r0, [pc, #400]	; 8758 <do_open.constprop.0+0x1a0>
do_open (const char *fname, int special_filenames,
    85c4:	e24dd030 	sub	sp, sp, #48	; 0x30
    85c8:	e59f818c 	ldr	r8, [pc, #396]	; 875c <do_open.constprop.0+0x1a4>
    85cc:	e1a06001 	mov	r6, r1
  printf("do_open %s %d %s", fname, use, opentype);
    85d0:	e08f0000 	add	r0, pc, r0
    85d4:	e1a01004 	mov	r1, r4
do_open (const char *fname, int special_filenames,
    85d8:	e08f8008 	add	r8, pc, r8
    85dc:	e1a05002 	mov	r5, r2
  printf("do_open %s %d %s", fname, use, opentype);
    85e0:	eb002387 	bl	11404 <tfp_printf>
  size_t len = 0;
    85e4:	e3a03000 	mov	r3, #0
  printf (use == IOBUF_INPUT || use == IOBUF_OUTPUT);
    85e8:	e3a00001 	mov	r0, #1
  size_t len = 0;
    85ec:	e58d3008 	str	r3, [sp, #8]
  printf (use == IOBUF_INPUT || use == IOBUF_OUTPUT);
    85f0:	eb002383 	bl	11404 <tfp_printf>
  if (special_filenames
    85f4:	e3560000 	cmp	r6, #0
    85f8:	0a00002c 	beq	86b0 <do_open.constprop.0+0xf8>
      && (!fname || (*fname == '-' && !fname[1])))
    85fc:	e3540000 	cmp	r4, #0
    8600:	0a000024 	beq	8698 <do_open.constprop.0+0xe0>
    8604:	e5d43000 	ldrb	r3, [r4]
    8608:	e353002d 	cmp	r3, #45	; 0x2d
    860c:	0a00001e 	beq	868c <do_open.constprop.0+0xd4>
      if (fp == GNUPG_INVALID_FD)
    8610:	e3a09000 	mov	r9, #0
  int print_only = 0;
    8614:	e1a06009 	mov	r6, r9
  a = iobuf_alloc (use, IOBUF_BUFFER_SIZE);
    8618:	e3a01a02 	mov	r1, #8192	; 0x2000
    861c:	e1a00005 	mov	r0, r5
    8620:	ebffffb6 	bl	8500 <iobuf_alloc>
    8624:	e1a05000 	mov	r5, r0
  fcx = xmalloc (sizeof *fcx + strlen (fname));
    8628:	e1a00004 	mov	r0, r4
    862c:	eb0028f9 	bl	12a18 <strlen>
    8630:	e2800038 	add	r0, r0, #56	; 0x38
    8634:	eb001a78 	bl	f01c <xmalloc>
  a->filter = file_filter;
    8638:	e59f3120 	ldr	r3, [pc, #288]	; 8760 <do_open.constprop.0+0x1a8>
  file_filter (fcx, IOBUFCTRL_INIT, NULL, NULL, &len);
    863c:	e28d2008 	add	r2, sp, #8
  fcx->fp = fp;
    8640:	e5809000 	str	r9, [r0]
  file_filter (fcx, IOBUFCTRL_INIT, NULL, NULL, &len);
    8644:	e3a01001 	mov	r1, #1
  fcx->print_only_name = print_only;
    8648:	e5806010 	str	r6, [r0, #16]
  fcx = xmalloc (sizeof *fcx + strlen (fname));
    864c:	e1a07000 	mov	r7, r0
  a->filter = file_filter;
    8650:	e7983003 	ldr	r3, [r8, r3]
  a->filter_ov = fcx;
    8654:	e5850030 	str	r0, [r5, #48]	; 0x30
  a->filter = file_filter;
    8658:	e585302c 	str	r3, [r5, #44]	; 0x2c
  file_filter (fcx, IOBUFCTRL_INIT, NULL, NULL, &len);
    865c:	e3a03000 	mov	r3, #0
    8660:	e58d2000 	str	r2, [sp]
    8664:	e1a02003 	mov	r2, r3
    8668:	ebfffe98 	bl	80d0 <file_filter>
  if (DBG_IOBUF)
    866c:	e59f30f0 	ldr	r3, [pc, #240]	; 8764 <do_open.constprop.0+0x1ac>
    8670:	e7983003 	ldr	r3, [r8, r3]
    8674:	e5933000 	ldr	r3, [r3]
    8678:	e3530000 	cmp	r3, #0
    867c:	1a00000f 	bne	86c0 <do_open.constprop.0+0x108>
}
    8680:	e1a00005 	mov	r0, r5
    8684:	e28dd030 	add	sp, sp, #48	; 0x30
    8688:	e8bd87f0 	pop	{r4, r5, r6, r7, r8, r9, sl, pc}
      && (!fname || (*fname == '-' && !fname[1])))
    868c:	e5d43001 	ldrb	r3, [r4, #1]
    8690:	e3530000 	cmp	r3, #0
    8694:	1affffdd 	bne	8610 <do_open.constprop.0+0x58>
      if (use == IOBUF_INPUT)
    8698:	e3550000 	cmp	r5, #0
    869c:	1a000022 	bne	872c <do_open.constprop.0+0x174>
	  fname = "[stdin]";
    86a0:	e59f40c0 	ldr	r4, [pc, #192]	; 8768 <do_open.constprop.0+0x1b0>
	  fp = FD_FOR_STDIN;
    86a4:	e1a09005 	mov	r9, r5
	  fname = "[stdin]";
    86a8:	e08f4004 	add	r4, pc, r4
    86ac:	eaffffd9 	b	8618 <do_open.constprop.0+0x60>
  else if (!fname)
    86b0:	e3540000 	cmp	r4, #0
    return NULL;
    86b4:	01a05004 	moveq	r5, r4
  else if (!fname)
    86b8:	1affffd4 	bne	8610 <do_open.constprop.0+0x58>
    86bc:	eaffffef 	b	8680 <do_open.constprop.0+0xc8>
  if (! a || ! a->filter)
    86c0:	e595802c 	ldr	r8, [r5, #44]	; 0x2c
  size_t len = MAX_IOBUF_DESC;
    86c4:	e3a03020 	mov	r3, #32
    printf ("iobuf-%d.%d: open '%s' desc=%s fd=%d\n",
    86c8:	e5959040 	ldr	r9, [r5, #64]	; 0x40
    86cc:	e595a044 	ldr	sl, [r5, #68]	; 0x44
  if (! a || ! a->filter)
    86d0:	e3580000 	cmp	r8, #0
  size_t len = MAX_IOBUF_DESC;
    86d4:	e58d300c 	str	r3, [sp, #12]
  if (! a || ! a->filter)
    86d8:	0a000017 	beq	873c <do_open.constprop.0+0x184>
    a->filter (a->filter_ov, IOBUFCTRL_DESC, NULL, buf, &len);
    86dc:	e5950030 	ldr	r0, [r5, #48]	; 0x30
    86e0:	e28d300c 	add	r3, sp, #12
    86e4:	e58d3000 	str	r3, [sp]
    86e8:	e28d6010 	add	r6, sp, #16
    86ec:	e1a03006 	mov	r3, r6
    86f0:	e3a02000 	mov	r2, #0
    86f4:	e3a01005 	mov	r1, #5
    86f8:	e12fff38 	blx	r8
    printf ("iobuf-%d.%d: open '%s' desc=%s fd=%d\n",
    86fc:	e5973000 	ldr	r3, [r7]
    8700:	e1a0200a 	mov	r2, sl
    8704:	e59f0060 	ldr	r0, [pc, #96]	; 876c <do_open.constprop.0+0x1b4>
    8708:	e1a01009 	mov	r1, r9
    870c:	e58d3004 	str	r3, [sp, #4]
    8710:	e1a03004 	mov	r3, r4
    8714:	e08f0000 	add	r0, pc, r0
    8718:	e58d6000 	str	r6, [sp]
    871c:	eb002338 	bl	11404 <tfp_printf>
}
    8720:	e1a00005 	mov	r0, r5
    8724:	e28dd030 	add	sp, sp, #48	; 0x30
    8728:	e8bd87f0 	pop	{r4, r5, r6, r7, r8, r9, sl, pc}
	  fname = "[stdout]";
    872c:	e59f403c 	ldr	r4, [pc, #60]	; 8770 <do_open.constprop.0+0x1b8>
	  fp = FD_FOR_STDOUT;
    8730:	e1a09006 	mov	r9, r6
	  fname = "[stdout]";
    8734:	e08f4004 	add	r4, pc, r4
    8738:	eaffffb6 	b	8618 <do_open.constprop.0+0x60>
    memcpy (buf, "?", 2);
    873c:	e59f1030 	ldr	r1, [pc, #48]	; 8774 <do_open.constprop.0+0x1bc>
    8740:	e28d6010 	add	r6, sp, #16
    8744:	e3a02002 	mov	r2, #2
    8748:	e1a00006 	mov	r0, r6
    874c:	e08f1001 	add	r1, pc, r1
    8750:	eb001a5f 	bl	f0d4 <memcpy>
    8754:	eaffffe8 	b	86fc <do_open.constprop.0+0x144>
    8758:	0000dad4 	.word	0x0000dad4
    875c:	000333e4 	.word	0x000333e4
    8760:	00000044 	.word	0x00000044
    8764:	0000001c 	.word	0x0000001c
    8768:	0000d9e8 	.word	0x0000d9e8
    876c:	0000d9a4 	.word	0x0000d9a4
    8770:	0000d964 	.word	0x0000d964
    8774:	0000d8a8 	.word	0x0000d8a8

00008778 <iobuf_close>:
{
    8778:	e92d4ff0 	push	{r4, r5, r6, r7, r8, r9, sl, fp, lr}
  for (; a; a = a_chain)
    877c:	e2505000 	subs	r5, r0, #0
{
    8780:	e59f2138 	ldr	r2, [pc, #312]	; 88c0 <iobuf_close+0x148>
    8784:	e24dd03c 	sub	sp, sp, #60	; 0x3c
  size_t dummy_len = 0;
    8788:	e3a06000 	mov	r6, #0
{
    878c:	e08f2002 	add	r2, pc, r2
  size_t dummy_len = 0;
    8790:	e58d6010 	str	r6, [sp, #16]
  for (; a; a = a_chain)
    8794:	0a000045 	beq	88b0 <iobuf_close+0x138>
	printf ("iobuf-%d.%d: close '%s'\n",
    8798:	e59f1124 	ldr	r1, [pc, #292]	; 88c4 <iobuf_close+0x14c>
    879c:	e59f3124 	ldr	r3, [pc, #292]	; 88c8 <iobuf_close+0x150>
    87a0:	e08f1001 	add	r1, pc, r1
    87a4:	e58d1008 	str	r1, [sp, #8]
    87a8:	e7928003 	ldr	r8, [r2, r3]
    memcpy (buf, "?", 2);
    87ac:	e59f3118 	ldr	r3, [pc, #280]	; 88cc <iobuf_close+0x154>
    87b0:	e08f3003 	add	r3, pc, r3
    87b4:	e58d300c 	str	r3, [sp, #12]
    87b8:	ea00001d 	b	8834 <iobuf_close+0xbc>
      if (a->filter && (rc2 = a->filter (a->filter_ov, IOBUFCTRL_FREE,
    87bc:	e594702c 	ldr	r7, [r4, #44]	; 0x2c
    87c0:	e3a03000 	mov	r3, #0
    87c4:	e28dc010 	add	ip, sp, #16
    87c8:	e3a01002 	mov	r1, #2
    87cc:	e1570003 	cmp	r7, r3
    87d0:	0a000009 	beq	87fc <iobuf_close+0x84>
    87d4:	e594203c 	ldr	r2, [r4, #60]	; 0x3c
    87d8:	e5940030 	ldr	r0, [r4, #48]	; 0x30
    87dc:	e58dc000 	str	ip, [sp]
    87e0:	e12fff37 	blx	r7
      if (! rc && rc2)
    87e4:	e16f3f16 	clz	r3, r6
    87e8:	e3500000 	cmp	r0, #0
    87ec:	e1a032a3 	lsr	r3, r3, #5
    87f0:	03a03000 	moveq	r3, #0
    87f4:	e3530000 	cmp	r3, #0
    87f8:	11a06000 	movne	r6, r0
      xfree (a->real_fname);
    87fc:	e5940038 	ldr	r0, [r4, #56]	; 0x38
    8800:	eb0019f9 	bl	efec <xfree>
      if (a->d.buf)
    8804:	e5940020 	ldr	r0, [r4, #32]
	  memset (a->d.buf, 0, a->d.size);	/* erase the buffer */
    8808:	e3a01000 	mov	r1, #0
      if (a->d.buf)
    880c:	e1500001 	cmp	r0, r1
    8810:	0a000003 	beq	8824 <iobuf_close+0xac>
	  memset (a->d.buf, 0, a->d.size);	/* erase the buffer */
    8814:	e5942014 	ldr	r2, [r4, #20]
    8818:	eb0019f6 	bl	eff8 <memset>
	  xfree (a->d.buf);
    881c:	e5940020 	ldr	r0, [r4, #32]
    8820:	eb0019f1 	bl	efec <xfree>
      xfree (a);
    8824:	e1a00004 	mov	r0, r4
    8828:	eb0019ef 	bl	efec <xfree>
  for (; a; a = a_chain)
    882c:	e3550000 	cmp	r5, #0
    8830:	0a00001f 	beq	88b4 <iobuf_close+0x13c>
      if (DBG_IOBUF)
    8834:	e5983000 	ldr	r3, [r8]
    8838:	e1a04005 	mov	r4, r5
      a_chain = a->chain;
    883c:	e595503c 	ldr	r5, [r5, #60]	; 0x3c
      if (DBG_IOBUF)
    8840:	e3530000 	cmp	r3, #0
    8844:	0affffdc 	beq	87bc <iobuf_close+0x44>
  if (! a || ! a->filter)
    8848:	e594902c 	ldr	r9, [r4, #44]	; 0x2c
  size_t len = MAX_IOBUF_DESC;
    884c:	e3a03020 	mov	r3, #32
    8850:	e58d3014 	str	r3, [sp, #20]
    a->filter (a->filter_ov, IOBUFCTRL_DESC, NULL, buf, &len);
    8854:	e28d7018 	add	r7, sp, #24
	printf ("iobuf-%d.%d: close '%s'\n",
    8858:	e594a040 	ldr	sl, [r4, #64]	; 0x40
  if (! a || ! a->filter)
    885c:	e3590000 	cmp	r9, #0
	printf ("iobuf-%d.%d: close '%s'\n",
    8860:	e594b044 	ldr	fp, [r4, #68]	; 0x44
    a->filter (a->filter_ov, IOBUFCTRL_DESC, NULL, buf, &len);
    8864:	e28d2014 	add	r2, sp, #20
    8868:	e1a03007 	mov	r3, r7
  if (! a || ! a->filter)
    886c:	0a00000a 	beq	889c <iobuf_close+0x124>
    a->filter (a->filter_ov, IOBUFCTRL_DESC, NULL, buf, &len);
    8870:	e5940030 	ldr	r0, [r4, #48]	; 0x30
    8874:	e3a01005 	mov	r1, #5
    8878:	e58d2000 	str	r2, [sp]
    887c:	e3a02000 	mov	r2, #0
    8880:	e12fff39 	blx	r9
	printf ("iobuf-%d.%d: close '%s'\n",
    8884:	e59d0008 	ldr	r0, [sp, #8]
    8888:	e1a03007 	mov	r3, r7
    888c:	e1a0200b 	mov	r2, fp
    8890:	e1a0100a 	mov	r1, sl
    8894:	eb0022da 	bl	11404 <tfp_printf>
    8898:	eaffffc7 	b	87bc <iobuf_close+0x44>
    memcpy (buf, "?", 2);
    889c:	e59d100c 	ldr	r1, [sp, #12]
    88a0:	e3a02002 	mov	r2, #2
    88a4:	e1a00007 	mov	r0, r7
    88a8:	eb001a09 	bl	f0d4 <memcpy>
    88ac:	eafffff4 	b	8884 <iobuf_close+0x10c>
  int rc = 0;
    88b0:	e1a06005 	mov	r6, r5
}
    88b4:	e1a00006 	mov	r0, r6
    88b8:	e28dd03c 	add	sp, sp, #60	; 0x3c
    88bc:	e8bd8ff0 	pop	{r4, r5, r6, r7, r8, r9, sl, fp, pc}
    88c0:	00033230 	.word	0x00033230
    88c4:	0000d940 	.word	0x0000d940
    88c8:	0000001c 	.word	0x0000001c
    88cc:	0000d844 	.word	0x0000d844

000088d0 <iobuf_temp>:
  return iobuf_alloc (IOBUF_OUTPUT_TEMP, IOBUF_BUFFER_SIZE);
    88d0:	e3a01a02 	mov	r1, #8192	; 0x2000
    88d4:	e3a00003 	mov	r0, #3
    88d8:	eaffff08 	b	8500 <iobuf_alloc>

000088dc <iobuf_temp_with_content>:
{
    88dc:	e92d4070 	push	{r4, r5, r6, lr}
    88e0:	e1a04000 	mov	r4, r0
  a = iobuf_alloc (IOBUF_INPUT_TEMP, length);
    88e4:	e3a00001 	mov	r0, #1
{
    88e8:	e1a06001 	mov	r6, r1
  a = iobuf_alloc (IOBUF_INPUT_TEMP, length);
    88ec:	ebffff03 	bl	8500 <iobuf_alloc>
    88f0:	e1a05000 	mov	r5, r0
  printf ("iobuf_temp_with_content: %d bytes\n", a->d.size);
    88f4:	e59f0044 	ldr	r0, [pc, #68]	; 8940 <iobuf_temp_with_content+0x64>
    88f8:	e5951014 	ldr	r1, [r5, #20]
    88fc:	e08f0000 	add	r0, pc, r0
    8900:	eb0022bf 	bl	11404 <tfp_printf>
  for (i=0; i < length; i++)
    8904:	e3560000 	cmp	r6, #0
    8908:	0a000009 	beq	8934 <iobuf_temp_with_content+0x58>
    890c:	e0841006 	add	r1, r4, r6
    8910:	e2443001 	sub	r3, r4, #1
    8914:	e2411001 	sub	r1, r1, #1
    8918:	e2644001 	rsb	r4, r4, #1
    a->d.buf[i] = buffer[i];
    891c:	e0842003 	add	r2, r4, r3
    8920:	e5f3e001 	ldrb	lr, [r3, #1]!
    8924:	e595c020 	ldr	ip, [r5, #32]
  for (i=0; i < length; i++)
    8928:	e1530001 	cmp	r3, r1
    a->d.buf[i] = buffer[i];
    892c:	e7cce002 	strb	lr, [ip, r2]
  for (i=0; i < length; i++)
    8930:	1afffff9 	bne	891c <iobuf_temp_with_content+0x40>
  a->d.len = length;
    8934:	e585601c 	str	r6, [r5, #28]
}
    8938:	e1a00005 	mov	r0, r5
    893c:	e8bd8070 	pop	{r4, r5, r6, pc}
    8940:	0000d800 	.word	0x0000d800

00008944 <iobuf_is_pipe_filename>:
}
    8944:	e3a00001 	mov	r0, #1
    8948:	e12fff1e 	bx	lr

0000894c <iobuf_open>:
  return do_open (fname, 1, IOBUF_INPUT, "rb", 0);
    894c:	e59f300c 	ldr	r3, [pc, #12]	; 8960 <iobuf_open+0x14>
    8950:	e3a02000 	mov	r2, #0
    8954:	e3a01001 	mov	r1, #1
    8958:	e08f3003 	add	r3, pc, r3
    895c:	eaffff15 	b	85b8 <do_open.constprop.0>
    8960:	0000d7c8 	.word	0x0000d7c8

00008964 <iobuf_create>:
  return do_open (fname, 1, IOBUF_OUTPUT, "wb", mode700);
    8964:	e59f300c 	ldr	r3, [pc, #12]	; 8978 <iobuf_create+0x14>
    8968:	e3a02002 	mov	r2, #2
    896c:	e3a01001 	mov	r1, #1
    8970:	e08f3003 	add	r3, pc, r3
    8974:	eaffff0f 	b	85b8 <do_open.constprop.0>
    8978:	0000d7b4 	.word	0x0000d7b4

0000897c <iobuf_openrw>:
  return do_open (fname, 0, IOBUF_OUTPUT, "r+b", 0);
    897c:	e59f300c 	ldr	r3, [pc, #12]	; 8990 <iobuf_openrw+0x14>
    8980:	e3a02002 	mov	r2, #2
    8984:	e3a01000 	mov	r1, #0
    8988:	e08f3003 	add	r3, pc, r3
    898c:	eaffff09 	b	85b8 <do_open.constprop.0>
    8990:	0000d7a0 	.word	0x0000d7a0

00008994 <iobuf_ioctl>:
{
    8994:	e92d4ff0 	push	{r4, r5, r6, r7, r8, r9, sl, fp, lr}
    8998:	e1a04000 	mov	r4, r0
  printf("iobuf_ioctl %d %d %d\n",cmd,intval, ptrval);
    899c:	e59f0418 	ldr	r0, [pc, #1048]	; 8dbc <iobuf_ioctl+0x428>
{
    89a0:	e1a05001 	mov	r5, r1
    89a4:	e59f8414 	ldr	r8, [pc, #1044]	; 8dc0 <iobuf_ioctl+0x42c>
    89a8:	e24dd034 	sub	sp, sp, #52	; 0x34
  printf("iobuf_ioctl %d %d %d\n",cmd,intval, ptrval);
    89ac:	e08f0000 	add	r0, pc, r0
{
    89b0:	e1a06002 	mov	r6, r2
    89b4:	e08f8008 	add	r8, pc, r8
    89b8:	e1a07003 	mov	r7, r3
  printf("iobuf_ioctl %d %d %d\n",cmd,intval, ptrval);
    89bc:	eb002290 	bl	11404 <tfp_printf>
  if (cmd == IOBUF_IOCTL_KEEP_OPEN)
    89c0:	e3550001 	cmp	r5, #1
    89c4:	0a000057 	beq	8b28 <iobuf_ioctl+0x194>
  else if (cmd == IOBUF_IOCTL_INVALIDATE_CACHE)
    89c8:	e3550002 	cmp	r5, #2
    89cc:	0a000039 	beq	8ab8 <iobuf_ioctl+0x124>
  else if (cmd == IOBUF_IOCTL_NO_CACHE)
    89d0:	e3550003 	cmp	r5, #3
    89d4:	0a000097 	beq	8c38 <iobuf_ioctl+0x2a4>
  else if (cmd == IOBUF_IOCTL_FSYNC)
    89d8:	e3550004 	cmp	r5, #4
    89dc:	0a00007f 	beq	8be0 <iobuf_ioctl+0x24c>
  else if (cmd == IOBUF_IOCTL_PEEK)
    89e0:	e3550005 	cmp	r5, #5
    89e4:	1a00004c 	bne	8b1c <iobuf_ioctl+0x188>
      if (DBG_IOBUF)
    89e8:	e59f33d4 	ldr	r3, [pc, #980]	; 8dc4 <iobuf_ioctl+0x430>
    89ec:	e7983003 	ldr	r3, [r8, r3]
    89f0:	e5933000 	ldr	r3, [r3]
    89f4:	e3530000 	cmp	r3, #0
    89f8:	0a000016 	beq	8a58 <iobuf_ioctl+0xc4>
	printf ("iobuf-%d.%d: ioctl '%s' peek\n",
    89fc:	e3540000 	cmp	r4, #0
    8a00:	0a0000d9 	beq	8d6c <iobuf_ioctl+0x3d8>
  if (! a || ! a->filter)
    8a04:	e594a02c 	ldr	sl, [r4, #44]	; 0x2c
  size_t len = MAX_IOBUF_DESC;
    8a08:	e3a03020 	mov	r3, #32
	printf ("iobuf-%d.%d: ioctl '%s' peek\n",
    8a0c:	e594b040 	ldr	fp, [r4, #64]	; 0x40
    8a10:	e5949044 	ldr	r9, [r4, #68]	; 0x44
  if (! a || ! a->filter)
    8a14:	e35a0000 	cmp	sl, #0
  size_t len = MAX_IOBUF_DESC;
    8a18:	e58d300c 	str	r3, [sp, #12]
  if (! a || ! a->filter)
    8a1c:	0a0000d6 	beq	8d7c <iobuf_ioctl+0x3e8>
    a->filter (a->filter_ov, IOBUFCTRL_DESC, NULL, buf, &len);
    8a20:	e5940030 	ldr	r0, [r4, #48]	; 0x30
    8a24:	e28d300c 	add	r3, sp, #12
    8a28:	e58d3000 	str	r3, [sp]
    8a2c:	e1a01005 	mov	r1, r5
    8a30:	e28d5010 	add	r5, sp, #16
    8a34:	e3a02000 	mov	r2, #0
    8a38:	e1a03005 	mov	r3, r5
    8a3c:	e12fff3a 	blx	sl
	printf ("iobuf-%d.%d: ioctl '%s' peek\n",
    8a40:	e59f0380 	ldr	r0, [pc, #896]	; 8dc8 <iobuf_ioctl+0x434>
    8a44:	e1a03005 	mov	r3, r5
    8a48:	e1a02009 	mov	r2, r9
    8a4c:	e1a0100b 	mov	r1, fp
    8a50:	e08f0000 	add	r0, pc, r0
    8a54:	eb00226a 	bl	11404 <tfp_printf>
      if (a->filter == file_filter && ptrval && intval)
    8a58:	e59f336c 	ldr	r3, [pc, #876]	; 8dcc <iobuf_ioctl+0x438>
    8a5c:	e594202c 	ldr	r2, [r4, #44]	; 0x2c
    8a60:	e7983003 	ldr	r3, [r8, r3]
    8a64:	e1520003 	cmp	r2, r3
    8a68:	1a00002b 	bne	8b1c <iobuf_ioctl+0x188>
    8a6c:	e3570000 	cmp	r7, #0
    8a70:	13560000 	cmpne	r6, #0
    8a74:	0a000028 	beq	8b1c <iobuf_ioctl+0x188>
          printf("iobuf_ioctl file_filter\n");
    8a78:	e59f0350 	ldr	r0, [pc, #848]	; 8dd0 <iobuf_ioctl+0x43c>
    8a7c:	e08f0000 	add	r0, pc, r0
    8a80:	eb00225f 	bl	11404 <tfp_printf>
          file_filter_ctx_t *fcx = a->filter_ov;
    8a84:	e5940030 	ldr	r0, [r4, #48]	; 0x30
          if (!file_filter (fcx, IOBUFCTRL_PEEK, NULL, ptrval, &len))
    8a88:	e28d300c 	add	r3, sp, #12
    8a8c:	e58d3000 	str	r3, [sp]
    8a90:	e3a02000 	mov	r2, #0
          size_t len = intval;
    8a94:	e58d600c 	str	r6, [sp, #12]
          if (!file_filter (fcx, IOBUFCTRL_PEEK, NULL, ptrval, &len))
    8a98:	e1a03007 	mov	r3, r7
    8a9c:	e3a01007 	mov	r1, #7
    8aa0:	ebfffd8a 	bl	80d0 <file_filter>
    8aa4:	e3500000 	cmp	r0, #0
    8aa8:	1a00001b 	bne	8b1c <iobuf_ioctl+0x188>
            return (int)len;
    8aac:	e59d000c 	ldr	r0, [sp, #12]
}
    8ab0:	e28dd034 	add	sp, sp, #52	; 0x34
    8ab4:	e8bd8ff0 	pop	{r4, r5, r6, r7, r8, r9, sl, fp, pc}
      if (DBG_IOBUF)
    8ab8:	e59f3304 	ldr	r3, [pc, #772]	; 8dc4 <iobuf_ioctl+0x430>
    8abc:	e7983003 	ldr	r3, [r8, r3]
    8ac0:	e5933000 	ldr	r3, [r3]
    8ac4:	e3530000 	cmp	r3, #0
    8ac8:	1a00003d 	bne	8bc4 <iobuf_ioctl+0x230>
      if (!a && !intval && ptrval)
    8acc:	e2573000 	subs	r3, r7, #0
    8ad0:	e1844006 	orr	r4, r4, r6
    8ad4:	13a03001 	movne	r3, #1
    8ad8:	e3540000 	cmp	r4, #0
    8adc:	13a03000 	movne	r3, #0
    8ae0:	e3530000 	cmp	r3, #0
    8ae4:	0a00000c 	beq	8b1c <iobuf_ioctl+0x188>
	  if (fd_cache_invalidate (ptrval))
    8ae8:	e1a00007 	mov	r0, r7
    8aec:	ebfffd61 	bl	8078 <fd_cache_invalidate>
    8af0:	e2500000 	subs	r0, r0, #0
    8af4:	13a00001 	movne	r0, #1
    8af8:	e2600000 	rsb	r0, r0, #0
}
    8afc:	e28dd034 	add	sp, sp, #52	; 0x34
    8b00:	e8bd8ff0 	pop	{r4, r5, r6, r7, r8, r9, sl, fp, pc}
	if (!a->chain && a->filter == file_filter)
    8b04:	e594003c 	ldr	r0, [r4, #60]	; 0x3c
    8b08:	e3500000 	cmp	r0, #0
    8b0c:	0a000023 	beq	8ba0 <iobuf_ioctl+0x20c>
    8b10:	e1a04000 	mov	r4, r0
      for (; a; a = a->chain)
    8b14:	e3540000 	cmp	r4, #0
    8b18:	1afffff9 	bne	8b04 <iobuf_ioctl+0x170>
  return -1;
    8b1c:	e3e00000 	mvn	r0, #0
}
    8b20:	e28dd034 	add	sp, sp, #52	; 0x34
    8b24:	e8bd8ff0 	pop	{r4, r5, r6, r7, r8, r9, sl, fp, pc}
      if (DBG_IOBUF)
    8b28:	e59f3294 	ldr	r3, [pc, #660]	; 8dc4 <iobuf_ioctl+0x430>
    8b2c:	e7983003 	ldr	r3, [r8, r3]
    8b30:	e5933000 	ldr	r3, [r3]
    8b34:	e3530000 	cmp	r3, #0
    8b38:	0afffff5 	beq	8b14 <iobuf_ioctl+0x180>
	printf ("iobuf-%d.%d: ioctl '%s' keep_open=%d\n",
    8b3c:	e3540000 	cmp	r4, #0
    8b40:	0a00006b 	beq	8cf4 <iobuf_ioctl+0x360>
  if (! a || ! a->filter)
    8b44:	e594902c 	ldr	r9, [r4, #44]	; 0x2c
  size_t len = MAX_IOBUF_DESC;
    8b48:	e3a03020 	mov	r3, #32
	printf ("iobuf-%d.%d: ioctl '%s' keep_open=%d\n",
    8b4c:	e594a040 	ldr	sl, [r4, #64]	; 0x40
    8b50:	e5947044 	ldr	r7, [r4, #68]	; 0x44
  if (! a || ! a->filter)
    8b54:	e3590000 	cmp	r9, #0
  size_t len = MAX_IOBUF_DESC;
    8b58:	e58d300c 	str	r3, [sp, #12]
  if (! a || ! a->filter)
    8b5c:	0a000068 	beq	8d04 <iobuf_ioctl+0x370>
    a->filter (a->filter_ov, IOBUFCTRL_DESC, NULL, buf, &len);
    8b60:	e5940030 	ldr	r0, [r4, #48]	; 0x30
    8b64:	e28d300c 	add	r3, sp, #12
    8b68:	e58d3000 	str	r3, [sp]
    8b6c:	e28d5010 	add	r5, sp, #16
    8b70:	e1a03005 	mov	r3, r5
    8b74:	e3a02000 	mov	r2, #0
    8b78:	e3a01005 	mov	r1, #5
    8b7c:	e12fff39 	blx	r9
	printf ("iobuf-%d.%d: ioctl '%s' keep_open=%d\n",
    8b80:	e59f024c 	ldr	r0, [pc, #588]	; 8dd4 <iobuf_ioctl+0x440>
    8b84:	e1a03005 	mov	r3, r5
    8b88:	e58d6000 	str	r6, [sp]
    8b8c:	e1a02007 	mov	r2, r7
    8b90:	e08f0000 	add	r0, pc, r0
    8b94:	e1a0100a 	mov	r1, sl
    8b98:	eb002219 	bl	11404 <tfp_printf>
    8b9c:	eaffffdc 	b	8b14 <iobuf_ioctl+0x180>
	if (!a->chain && a->filter == file_filter)
    8ba0:	e59f3224 	ldr	r3, [pc, #548]	; 8dcc <iobuf_ioctl+0x438>
    8ba4:	e594202c 	ldr	r2, [r4, #44]	; 0x2c
    8ba8:	e7983003 	ldr	r3, [r8, r3]
    8bac:	e1520003 	cmp	r2, r3
	    b->keep_open = intval;
    8bb0:	05943030 	ldreq	r3, [r4, #48]	; 0x30
    8bb4:	05836004 	streq	r6, [r3, #4]
	if (!a->chain && a->filter == file_filter)
    8bb8:	0affffcf 	beq	8afc <iobuf_ioctl+0x168>
  return -1;
    8bbc:	e3e00000 	mvn	r0, #0
    8bc0:	eaffffd6 	b	8b20 <iobuf_ioctl+0x18c>
	printf ("iobuf-*.*: ioctl '%s' invalidate\n",
    8bc4:	e3570000 	cmp	r7, #0
    8bc8:	11a01007 	movne	r1, r7
    8bcc:	0a000071 	beq	8d98 <iobuf_ioctl+0x404>
    8bd0:	e59f0200 	ldr	r0, [pc, #512]	; 8dd8 <iobuf_ioctl+0x444>
    8bd4:	e08f0000 	add	r0, pc, r0
    8bd8:	eb002209 	bl	11404 <tfp_printf>
    8bdc:	eaffffba 	b	8acc <iobuf_ioctl+0x138>
      if (DBG_IOBUF)
    8be0:	e59f31dc 	ldr	r3, [pc, #476]	; 8dc4 <iobuf_ioctl+0x430>
    8be4:	e7985003 	ldr	r5, [r8, r3]
    8be8:	e5950000 	ldr	r0, [r5]
    8bec:	e3500000 	cmp	r0, #0
    8bf0:	0a00004a 	beq	8d20 <iobuf_ioctl+0x38c>
        printf ("iobuf-*.*: ioctl '%s' fsync\n",
    8bf4:	e3570000 	cmp	r7, #0
    8bf8:	0a000069 	beq	8da4 <iobuf_ioctl+0x410>
    8bfc:	e59f01d8 	ldr	r0, [pc, #472]	; 8ddc <iobuf_ioctl+0x448>
    8c00:	e1a01007 	mov	r1, r7
    8c04:	e08f0000 	add	r0, pc, r0
    8c08:	eb0021fd 	bl	11404 <tfp_printf>
      if (!a && !intval && ptrval)
    8c0c:	e1943006 	orrs	r3, r4, r6
    8c10:	1affffc1 	bne	8b1c <iobuf_ioctl+0x188>
  if (DBG_IOBUF)
    8c14:	e5950000 	ldr	r0, [r5]
    8c18:	e3500000 	cmp	r0, #0
    8c1c:	0affffb6 	beq	8afc <iobuf_ioctl+0x168>
    printf ("fd_cache_synchronize (%s)\n", fname);
    8c20:	e59f01b8 	ldr	r0, [pc, #440]	; 8de0 <iobuf_ioctl+0x44c>
    8c24:	e1a01007 	mov	r1, r7
    8c28:	e08f0000 	add	r0, pc, r0
    8c2c:	eb0021f4 	bl	11404 <tfp_printf>
          return fd_cache_synchronize (ptrval);
    8c30:	e3a00000 	mov	r0, #0
    8c34:	eaffffb0 	b	8afc <iobuf_ioctl+0x168>
      if (DBG_IOBUF)
    8c38:	e59f3184 	ldr	r3, [pc, #388]	; 8dc4 <iobuf_ioctl+0x430>
    8c3c:	e7983003 	ldr	r3, [r8, r3]
    8c40:	e5933000 	ldr	r3, [r3]
    8c44:	e3530000 	cmp	r3, #0
    8c48:	0a00001c 	beq	8cc0 <iobuf_ioctl+0x32c>
	printf ("iobuf-%d.%d: ioctl '%s' no_cache=%d\n",
    8c4c:	e3540000 	cmp	r4, #0
    8c50:	0a00003a 	beq	8d40 <iobuf_ioctl+0x3ac>
  if (! a || ! a->filter)
    8c54:	e594902c 	ldr	r9, [r4, #44]	; 0x2c
  size_t len = MAX_IOBUF_DESC;
    8c58:	e3a03020 	mov	r3, #32
	printf ("iobuf-%d.%d: ioctl '%s' no_cache=%d\n",
    8c5c:	e594a040 	ldr	sl, [r4, #64]	; 0x40
    8c60:	e5947044 	ldr	r7, [r4, #68]	; 0x44
  if (! a || ! a->filter)
    8c64:	e3590000 	cmp	r9, #0
  size_t len = MAX_IOBUF_DESC;
    8c68:	e58d300c 	str	r3, [sp, #12]
  if (! a || ! a->filter)
    8c6c:	0a000037 	beq	8d50 <iobuf_ioctl+0x3bc>
    a->filter (a->filter_ov, IOBUFCTRL_DESC, NULL, buf, &len);
    8c70:	e5940030 	ldr	r0, [r4, #48]	; 0x30
    8c74:	e28d300c 	add	r3, sp, #12
    8c78:	e58d3000 	str	r3, [sp]
    8c7c:	e28d5010 	add	r5, sp, #16
    8c80:	e1a03005 	mov	r3, r5
    8c84:	e3a02000 	mov	r2, #0
    8c88:	e3a01005 	mov	r1, #5
    8c8c:	e12fff39 	blx	r9
	printf ("iobuf-%d.%d: ioctl '%s' no_cache=%d\n",
    8c90:	e59f014c 	ldr	r0, [pc, #332]	; 8de4 <iobuf_ioctl+0x450>
    8c94:	e1a03005 	mov	r3, r5
    8c98:	e58d6000 	str	r6, [sp]
    8c9c:	e1a02007 	mov	r2, r7
    8ca0:	e08f0000 	add	r0, pc, r0
    8ca4:	e1a0100a 	mov	r1, sl
    8ca8:	eb0021d5 	bl	11404 <tfp_printf>
    8cac:	ea000003 	b	8cc0 <iobuf_ioctl+0x32c>
	if (!a->chain && a->filter == file_filter)
    8cb0:	e594303c 	ldr	r3, [r4, #60]	; 0x3c
    8cb4:	e3530000 	cmp	r3, #0
    8cb8:	0a000003 	beq	8ccc <iobuf_ioctl+0x338>
    8cbc:	e1a04003 	mov	r4, r3
      for (; a; a = a->chain)
    8cc0:	e3540000 	cmp	r4, #0
    8cc4:	1afffff9 	bne	8cb0 <iobuf_ioctl+0x31c>
    8cc8:	eaffff93 	b	8b1c <iobuf_ioctl+0x188>
	if (!a->chain && a->filter == file_filter)
    8ccc:	e59f20f8 	ldr	r2, [pc, #248]	; 8dcc <iobuf_ioctl+0x438>
    8cd0:	e594102c 	ldr	r1, [r4, #44]	; 0x2c
    8cd4:	e7982002 	ldr	r2, [r8, r2]
    8cd8:	e1510002 	cmp	r1, r2
	    return 0;
    8cdc:	01a00003 	moveq	r0, r3
	    b->no_cache = intval;
    8ce0:	05942030 	ldreq	r2, [r4, #48]	; 0x30
    8ce4:	05826008 	streq	r6, [r2, #8]
	if (!a->chain && a->filter == file_filter)
    8ce8:	0affff83 	beq	8afc <iobuf_ioctl+0x168>
  return -1;
    8cec:	e3e00000 	mvn	r0, #0
    8cf0:	eaffff8a 	b	8b20 <iobuf_ioctl+0x18c>
	printf ("iobuf-%d.%d: ioctl '%s' keep_open=%d\n",
    8cf4:	e3e07000 	mvn	r7, #0
  size_t len = MAX_IOBUF_DESC;
    8cf8:	e3a03020 	mov	r3, #32
    8cfc:	e58d300c 	str	r3, [sp, #12]
	printf ("iobuf-%d.%d: ioctl '%s' keep_open=%d\n",
    8d00:	e1a0a007 	mov	sl, r7
    memcpy (buf, "?", 2);
    8d04:	e59f10dc 	ldr	r1, [pc, #220]	; 8de8 <iobuf_ioctl+0x454>
    8d08:	e28d5010 	add	r5, sp, #16
    8d0c:	e3a02002 	mov	r2, #2
    8d10:	e1a00005 	mov	r0, r5
    8d14:	e08f1001 	add	r1, pc, r1
    8d18:	eb0018ed 	bl	f0d4 <memcpy>
    8d1c:	eaffff97 	b	8b80 <iobuf_ioctl+0x1ec>
      if (!a && !intval && ptrval)
    8d20:	e2577000 	subs	r7, r7, #0
    8d24:	e1844006 	orr	r4, r4, r6
    8d28:	13a07001 	movne	r7, #1
    8d2c:	e3540000 	cmp	r4, #0
    8d30:	13a07000 	movne	r7, #0
    8d34:	e3570000 	cmp	r7, #0
    8d38:	1affff6f 	bne	8afc <iobuf_ioctl+0x168>
    8d3c:	eaffff76 	b	8b1c <iobuf_ioctl+0x188>
	printf ("iobuf-%d.%d: ioctl '%s' no_cache=%d\n",
    8d40:	e3e07000 	mvn	r7, #0
  size_t len = MAX_IOBUF_DESC;
    8d44:	e3a03020 	mov	r3, #32
    8d48:	e58d300c 	str	r3, [sp, #12]
	printf ("iobuf-%d.%d: ioctl '%s' no_cache=%d\n",
    8d4c:	e1a0a007 	mov	sl, r7
    memcpy (buf, "?", 2);
    8d50:	e59f1094 	ldr	r1, [pc, #148]	; 8dec <iobuf_ioctl+0x458>
    8d54:	e28d5010 	add	r5, sp, #16
    8d58:	e3a02002 	mov	r2, #2
    8d5c:	e1a00005 	mov	r0, r5
    8d60:	e08f1001 	add	r1, pc, r1
    8d64:	eb0018da 	bl	f0d4 <memcpy>
    8d68:	eaffffc8 	b	8c90 <iobuf_ioctl+0x2fc>
	printf ("iobuf-%d.%d: ioctl '%s' peek\n",
    8d6c:	e3e09000 	mvn	r9, #0
  size_t len = MAX_IOBUF_DESC;
    8d70:	e3a03020 	mov	r3, #32
    8d74:	e58d300c 	str	r3, [sp, #12]
	printf ("iobuf-%d.%d: ioctl '%s' peek\n",
    8d78:	e1a0b009 	mov	fp, r9
    memcpy (buf, "?", 2);
    8d7c:	e59f106c 	ldr	r1, [pc, #108]	; 8df0 <iobuf_ioctl+0x45c>
    8d80:	e28d5010 	add	r5, sp, #16
    8d84:	e3a02002 	mov	r2, #2
    8d88:	e1a00005 	mov	r0, r5
    8d8c:	e08f1001 	add	r1, pc, r1
    8d90:	eb0018cf 	bl	f0d4 <memcpy>
    8d94:	eaffff29 	b	8a40 <iobuf_ioctl+0xac>
	printf ("iobuf-*.*: ioctl '%s' invalidate\n",
    8d98:	e59f1054 	ldr	r1, [pc, #84]	; 8df4 <iobuf_ioctl+0x460>
    8d9c:	e08f1001 	add	r1, pc, r1
    8da0:	eaffff8a 	b	8bd0 <iobuf_ioctl+0x23c>
        printf ("iobuf-*.*: ioctl '%s' fsync\n",
    8da4:	e59f104c 	ldr	r1, [pc, #76]	; 8df8 <iobuf_ioctl+0x464>
    8da8:	e59f004c 	ldr	r0, [pc, #76]	; 8dfc <iobuf_ioctl+0x468>
    8dac:	e08f1001 	add	r1, pc, r1
    8db0:	e08f0000 	add	r0, pc, r0
    8db4:	eb002192 	bl	11404 <tfp_printf>
      if (!a && !intval && ptrval)
    8db8:	eaffff57 	b	8b1c <iobuf_ioctl+0x188>
    8dbc:	0000d780 	.word	0x0000d780
    8dc0:	00033008 	.word	0x00033008
    8dc4:	0000001c 	.word	0x0000001c
    8dc8:	0000d7a4 	.word	0x0000d7a4
    8dcc:	00000044 	.word	0x00000044
    8dd0:	0000d798 	.word	0x0000d798
    8dd4:	0000d5b4 	.word	0x0000d5b4
    8dd8:	0000d598 	.word	0x0000d598
    8ddc:	0000d5b4 	.word	0x0000d5b4
    8de0:	0000d5b0 	.word	0x0000d5b0
    8de4:	0000d4f0 	.word	0x0000d4f0
    8de8:	0000d2e0 	.word	0x0000d2e0
    8dec:	0000d294 	.word	0x0000d294
    8df0:	0000d268 	.word	0x0000d268
    8df4:	0000d258 	.word	0x0000d258
    8df8:	0000d484 	.word	0x0000d484
    8dfc:	0000d408 	.word	0x0000d408

00008e00 <iobuf_fdopen>:
{
    8e00:	e1a03001 	mov	r3, r1
  a = iobuf_alloc (strchr (mode, 'w') ? IOBUF_OUTPUT : IOBUF_INPUT,
    8e04:	e3a01077 	mov	r1, #119	; 0x77
{
    8e08:	e92d43f0 	push	{r4, r5, r6, r7, r8, r9, lr}
    8e0c:	e1a07000 	mov	r7, r0
    8e10:	e59f60dc 	ldr	r6, [pc, #220]	; 8ef4 <iobuf_fdopen+0xf4>
    8e14:	e24dd014 	sub	sp, sp, #20
  a = iobuf_alloc (strchr (mode, 'w') ? IOBUF_OUTPUT : IOBUF_INPUT,
    8e18:	e1a00003 	mov	r0, r3
  fcx->keep_open = keep_open;
    8e1c:	e3a08000 	mov	r8, #0
{
    8e20:	e08f6006 	add	r6, pc, r6
  a = iobuf_alloc (strchr (mode, 'w') ? IOBUF_OUTPUT : IOBUF_INPUT,
    8e24:	eb00190b 	bl	f258 <strchr>
    8e28:	e3500000 	cmp	r0, #0
    8e2c:	e3a01a02 	mov	r1, #8192	; 0x2000
    8e30:	13a00002 	movne	r0, #2
    8e34:	01a00008 	moveq	r0, r8
  fcx->print_only_name = 1;
    8e38:	e3a09001 	mov	r9, #1
  a = iobuf_alloc (strchr (mode, 'w') ? IOBUF_OUTPUT : IOBUF_INPUT,
    8e3c:	ebfffdaf 	bl	8500 <iobuf_alloc>
    8e40:	e1a05000 	mov	r5, r0
  fcx = xmalloc (sizeof *fcx + 20);
    8e44:	e3a0004c 	mov	r0, #76	; 0x4c
    8e48:	eb001873 	bl	f01c <xmalloc>
  sprintf (fcx->fname, "[fd %d]", fd);
    8e4c:	e59f10a4 	ldr	r1, [pc, #164]	; 8ef8 <iobuf_fdopen+0xf8>
    8e50:	e1a02007 	mov	r2, r7
  fcx->fp = fp;
    8e54:	e5807000 	str	r7, [r0]
  sprintf (fcx->fname, "[fd %d]", fd);
    8e58:	e2807036 	add	r7, r0, #54	; 0x36
    8e5c:	e08f1001 	add	r1, pc, r1
  fcx = xmalloc (sizeof *fcx + 20);
    8e60:	e1a04000 	mov	r4, r0
  fcx->print_only_name = 1;
    8e64:	e5809010 	str	r9, [r0, #16]
  fcx->keep_open = keep_open;
    8e68:	e5808004 	str	r8, [r0, #4]
  sprintf (fcx->fname, "[fd %d]", fd);
    8e6c:	e1a00007 	mov	r0, r7
    8e70:	eb002173 	bl	11444 <tfp_sprintf>
  a->filter = file_filter;
    8e74:	e59f3080 	ldr	r3, [pc, #128]	; 8efc <iobuf_fdopen+0xfc>
  file_filter (fcx, IOBUFCTRL_INIT, NULL, NULL, &len);
    8e78:	e1a01009 	mov	r1, r9
    8e7c:	e1a00004 	mov	r0, r4
    8e80:	e1a02008 	mov	r2, r8
  a->filter = file_filter;
    8e84:	e7963003 	ldr	r3, [r6, r3]
  a->filter_ov = fcx;
    8e88:	e5854030 	str	r4, [r5, #48]	; 0x30
  a->filter = file_filter;
    8e8c:	e585302c 	str	r3, [r5, #44]	; 0x2c
  file_filter (fcx, IOBUFCTRL_INIT, NULL, NULL, &len);
    8e90:	e28d300c 	add	r3, sp, #12
    8e94:	e58d3000 	str	r3, [sp]
    8e98:	e1a03008 	mov	r3, r8
    8e9c:	ebfffc8b 	bl	80d0 <file_filter>
  if (DBG_IOBUF)
    8ea0:	e59f3058 	ldr	r3, [pc, #88]	; 8f00 <iobuf_fdopen+0x100>
    8ea4:	e7963003 	ldr	r3, [r6, r3]
    8ea8:	e5933000 	ldr	r3, [r3]
    8eac:	e1530008 	cmp	r3, r8
    8eb0:	0a000007 	beq	8ed4 <iobuf_fdopen+0xd4>
    printf ("iobuf-%d.%d: fdopen%s '%s'\n",
    8eb4:	e59f3048 	ldr	r3, [pc, #72]	; 8f04 <iobuf_fdopen+0x104>
    8eb8:	e59f0048 	ldr	r0, [pc, #72]	; 8f08 <iobuf_fdopen+0x108>
    8ebc:	e5952044 	ldr	r2, [r5, #68]	; 0x44
    8ec0:	e5951040 	ldr	r1, [r5, #64]	; 0x40
    8ec4:	e08f3003 	add	r3, pc, r3
    8ec8:	e08f0000 	add	r0, pc, r0
    8ecc:	e58d7000 	str	r7, [sp]
    8ed0:	eb00214b 	bl	11404 <tfp_printf>
  iobuf_ioctl (a, IOBUF_IOCTL_NO_CACHE, 1, NULL);
    8ed4:	e3a03000 	mov	r3, #0
    8ed8:	e3a02001 	mov	r2, #1
    8edc:	e3a01003 	mov	r1, #3
    8ee0:	e1a00005 	mov	r0, r5
    8ee4:	ebfffeaa 	bl	8994 <iobuf_ioctl>
}
    8ee8:	e1a00005 	mov	r0, r5
    8eec:	e28dd014 	add	sp, sp, #20
    8ef0:	e8bd83f0 	pop	{r4, r5, r6, r7, r8, r9, pc}
    8ef4:	00032b9c 	.word	0x00032b9c
    8ef8:	0000d3dc 	.word	0x0000d3dc
    8efc:	00000044 	.word	0x00000044
    8f00:	0000001c 	.word	0x0000001c
    8f04:	0000e35c 	.word	0x0000e35c
    8f08:	0000d378 	.word	0x0000d378

00008f0c <iobuf_push_filter2>:
{
    8f0c:	e92d43f0 	push	{r4, r5, r6, r7, r8, r9, lr}
    8f10:	e24dd034 	sub	sp, sp, #52	; 0x34
  if (a->use == IOBUF_OUTPUT && (rc = filter_flush (a)))
    8f14:	e5d0c000 	ldrb	ip, [r0]
{
    8f18:	e1a09003 	mov	r9, r3
    8f1c:	e59f81bc 	ldr	r8, [pc, #444]	; 90e0 <iobuf_push_filter2+0x1d4>
  size_t dummy_len = 0;
    8f20:	e3a03000 	mov	r3, #0
    8f24:	e58d3008 	str	r3, [sp, #8]
  if (a->use == IOBUF_OUTPUT && (rc = filter_flush (a)))
    8f28:	e35c0002 	cmp	ip, #2
{
    8f2c:	e08f8008 	add	r8, pc, r8
    8f30:	e1a04000 	mov	r4, r0
    8f34:	e1a05001 	mov	r5, r1
    8f38:	e1a07002 	mov	r7, r2
  if (a->use == IOBUF_OUTPUT && (rc = filter_flush (a)))
    8f3c:	0a00005c 	beq	90b4 <iobuf_push_filter2+0x1a8>
  if (a->subno >= MAX_NESTING_FILTER)
    8f40:	e5943044 	ldr	r3, [r4, #68]	; 0x44
    8f44:	e353003f 	cmp	r3, #63	; 0x3f
    8f48:	ca000039 	bgt	9034 <iobuf_push_filter2+0x128>
  b = xmalloc (sizeof *b);
    8f4c:	e3a00048 	mov	r0, #72	; 0x48
    8f50:	eb001831 	bl	f01c <xmalloc>
  memcpy (b, a, sizeof *b);
    8f54:	e3a02048 	mov	r2, #72	; 0x48
    8f58:	e1a01004 	mov	r1, r4
  b = xmalloc (sizeof *b);
    8f5c:	e1a06000 	mov	r6, r0
  memcpy (b, a, sizeof *b);
    8f60:	eb00185b 	bl	f0d4 <memcpy>
  if (a->use == IOBUF_OUTPUT_TEMP)
    8f64:	e5d42000 	ldrb	r2, [r4]
  a->filter = NULL;
    8f68:	e3a03000 	mov	r3, #0
    8f6c:	e584302c 	str	r3, [r4, #44]	; 0x2c
  a->filter_ov = NULL;
    8f70:	e5843030 	str	r3, [r4, #48]	; 0x30
  if (a->use == IOBUF_OUTPUT_TEMP)
    8f74:	e3520003 	cmp	r2, #3
  a->filter_ov_owner = 0;
    8f78:	e5843034 	str	r3, [r4, #52]	; 0x34
  a->filter_eof = 0;
    8f7c:	e5843024 	str	r3, [r4, #36]	; 0x24
  if (a->use == IOBUF_OUTPUT_TEMP)
    8f80:	0a000026 	beq	9020 <iobuf_push_filter2+0x114>
  else if (a->use == IOBUF_INPUT_TEMP)
    8f84:	e3520001 	cmp	r2, #1
      a->use = IOBUF_INPUT;
    8f88:	05c43000 	strbeq	r3, [r4]
      a->d.size = IOBUF_BUFFER_SIZE;
    8f8c:	03a00a02 	moveq	r0, #8192	; 0x2000
  a->d.buf = xmalloc (a->d.size);
    8f90:	15940014 	ldrne	r0, [r4, #20]
      a->d.size = IOBUF_BUFFER_SIZE;
    8f94:	05840014 	streq	r0, [r4, #20]
  a->d.buf = xmalloc (a->d.size);
    8f98:	eb00181f 	bl	f01c <xmalloc>
  a->ntotal = b->ntotal + b->nbytes;
    8f9c:	e1c620d8 	ldrd	r2, [r6, #8]
  a->chain = b;
    8fa0:	e584603c 	str	r6, [r4, #60]	; 0x3c
  a->subno = b->subno + 1;
    8fa4:	e5966044 	ldr	r6, [r6, #68]	; 0x44
  a->ntotal = b->ntotal + b->nbytes;
    8fa8:	e0833002 	add	r3, r3, r2
  if (DBG_IOBUF)
    8fac:	e59f2130 	ldr	r2, [pc, #304]	; 90e4 <iobuf_push_filter2+0x1d8>
  a->subno = b->subno + 1;
    8fb0:	e2866001 	add	r6, r6, #1
  a->ntotal = b->ntotal + b->nbytes;
    8fb4:	e584300c 	str	r3, [r4, #12]
  a->d.len = 0;
    8fb8:	e3a03000 	mov	r3, #0
  a->d.buf = xmalloc (a->d.size);
    8fbc:	e5840020 	str	r0, [r4, #32]
  a->filter_ov_owner = rel_ov;
    8fc0:	e5849034 	str	r9, [r4, #52]	; 0x34
  a->filter = f;
    8fc4:	e584502c 	str	r5, [r4, #44]	; 0x2c
  a->filter_ov = ov;
    8fc8:	e5847030 	str	r7, [r4, #48]	; 0x30
  a->subno = b->subno + 1;
    8fcc:	e5846044 	str	r6, [r4, #68]	; 0x44
  a->d.len = 0;
    8fd0:	e584301c 	str	r3, [r4, #28]
  a->d.start = 0;
    8fd4:	e5843018 	str	r3, [r4, #24]
  a->nlimit = a->nbytes = 0;
    8fd8:	e5843008 	str	r3, [r4, #8]
    8fdc:	e5843004 	str	r3, [r4, #4]
  a->nofast = 0;
    8fe0:	e5843010 	str	r3, [r4, #16]
  if (DBG_IOBUF)
    8fe4:	e7988002 	ldr	r8, [r8, r2]
    8fe8:	e5982000 	ldr	r2, [r8]
    8fec:	e1520003 	cmp	r2, r3
    8ff0:	1a000015 	bne	904c <iobuf_push_filter2+0x140>
  if (a->filter && (rc = a->filter (a->filter_ov, IOBUFCTRL_INIT, a->chain,
    8ff4:	e3550000 	cmp	r5, #0
    8ff8:	0a000006 	beq	9018 <iobuf_push_filter2+0x10c>
    8ffc:	e594203c 	ldr	r2, [r4, #60]	; 0x3c
    9000:	e28d1008 	add	r1, sp, #8
    9004:	e5940030 	ldr	r0, [r4, #48]	; 0x30
    9008:	e3a03000 	mov	r3, #0
    900c:	e58d1000 	str	r1, [sp]
    9010:	e3a01001 	mov	r1, #1
    9014:	e12fff35 	blx	r5
}
    9018:	e28dd034 	add	sp, sp, #52	; 0x34
    901c:	e8bd83f0 	pop	{r4, r5, r6, r7, r8, r9, pc}
      a->d.size = IOBUF_BUFFER_SIZE;
    9020:	e3a00a02 	mov	r0, #8192	; 0x2000
      a->use = IOBUF_OUTPUT;
    9024:	e3a03002 	mov	r3, #2
      a->d.size = IOBUF_BUFFER_SIZE;
    9028:	e5840014 	str	r0, [r4, #20]
      a->use = IOBUF_OUTPUT;
    902c:	e5c43000 	strb	r3, [r4]
      a->d.size = IOBUF_BUFFER_SIZE;
    9030:	eaffffd8 	b	8f98 <iobuf_push_filter2+0x8c>
      printf ("i/o filter too deeply nested - corrupted data?\n");
    9034:	e59f00ac 	ldr	r0, [pc, #172]	; 90e8 <iobuf_push_filter2+0x1dc>
    9038:	e08f0000 	add	r0, pc, r0
    903c:	eb0020f0 	bl	11404 <tfp_printf>
      return GPG_ERR_BAD_DATA;
    9040:	e3a00059 	mov	r0, #89	; 0x59
}
    9044:	e28dd034 	add	sp, sp, #52	; 0x34
    9048:	e8bd83f0 	pop	{r4, r5, r6, r7, r8, r9, pc}
  if (! a || ! a->filter)
    904c:	e1550003 	cmp	r5, r3
  size_t len = MAX_IOBUF_DESC;
    9050:	e3a02020 	mov	r2, #32
      printf ("iobuf-%d.%d: push '%s'\n",
    9054:	e5949040 	ldr	r9, [r4, #64]	; 0x40
  size_t len = MAX_IOBUF_DESC;
    9058:	e58d200c 	str	r2, [sp, #12]
  if (! a || ! a->filter)
    905c:	0a000018 	beq	90c4 <iobuf_push_filter2+0x1b8>
    a->filter (a->filter_ov, IOBUFCTRL_DESC, NULL, buf, &len);
    9060:	e1a02003 	mov	r2, r3
    9064:	e1a00007 	mov	r0, r7
    9068:	e28d300c 	add	r3, sp, #12
    906c:	e28d7010 	add	r7, sp, #16
    9070:	e58d3000 	str	r3, [sp]
    9074:	e3a01005 	mov	r1, #5
    9078:	e1a03007 	mov	r3, r7
    907c:	e12fff35 	blx	r5
      printf ("iobuf-%d.%d: push '%s'\n",
    9080:	e59f0064 	ldr	r0, [pc, #100]	; 90ec <iobuf_push_filter2+0x1e0>
    9084:	e1a03007 	mov	r3, r7
    9088:	e1a02006 	mov	r2, r6
    908c:	e1a01009 	mov	r1, r9
    9090:	e08f0000 	add	r0, pc, r0
    9094:	eb0020da 	bl	11404 <tfp_printf>
  if (!DBG_IOBUF)
    9098:	e5983000 	ldr	r3, [r8]
    909c:	e3530000 	cmp	r3, #0
    90a0:	0a000001 	beq	90ac <iobuf_push_filter2+0x1a0>
    90a4:	e1a00004 	mov	r0, r4
    90a8:	ebfffcad 	bl	8364 <print_chain.part.0>
  if (a->filter && (rc = a->filter (a->filter_ov, IOBUFCTRL_INIT, a->chain,
    90ac:	e594502c 	ldr	r5, [r4, #44]	; 0x2c
    90b0:	eaffffcf 	b	8ff4 <iobuf_push_filter2+0xe8>
  if (a->use == IOBUF_OUTPUT && (rc = filter_flush (a)))
    90b4:	ebfffc61 	bl	8240 <filter_flush>
    90b8:	e3500000 	cmp	r0, #0
    90bc:	0affff9f 	beq	8f40 <iobuf_push_filter2+0x34>
    90c0:	eaffffd4 	b	9018 <iobuf_push_filter2+0x10c>
    memcpy (buf, "?", 2);
    90c4:	e59f1024 	ldr	r1, [pc, #36]	; 90f0 <iobuf_push_filter2+0x1e4>
    90c8:	e28d7010 	add	r7, sp, #16
    90cc:	e3a02002 	mov	r2, #2
    90d0:	e1a00007 	mov	r0, r7
    90d4:	e08f1001 	add	r1, pc, r1
    90d8:	eb0017fd 	bl	f0d4 <memcpy>
    90dc:	eaffffe7 	b	9080 <iobuf_push_filter2+0x174>
    90e0:	00032a90 	.word	0x00032a90
    90e4:	0000001c 	.word	0x0000001c
    90e8:	0000d224 	.word	0x0000d224
    90ec:	0000d1fc 	.word	0x0000d1fc
    90f0:	0000cf20 	.word	0x0000cf20

000090f4 <iobuf_push_filter>:
  return iobuf_push_filter2 (a, f, ov, 0);
    90f4:	e3a03000 	mov	r3, #0
    90f8:	eaffff83 	b	8f0c <iobuf_push_filter2>

000090fc <iobuf_pop_filter>:
{
    90fc:	e92d4ff0 	push	{r4, r5, r6, r7, r8, r9, sl, fp, lr}
    9100:	e1a06000 	mov	r6, r0
  printf("iobuf_pop_filter %d %d",a->nbytes);
    9104:	e59f02b4 	ldr	r0, [pc, #692]	; 93c0 <iobuf_pop_filter+0x2c4>
{
    9108:	e24dd034 	sub	sp, sp, #52	; 0x34
    910c:	e59f42b0 	ldr	r4, [pc, #688]	; 93c4 <iobuf_pop_filter+0x2c8>
    9110:	e1a08001 	mov	r8, r1
  printf("iobuf_pop_filter %d %d",a->nbytes);
    9114:	e08f0000 	add	r0, pc, r0
{
    9118:	e1a09002 	mov	r9, r2
  printf("iobuf_pop_filter %d %d",a->nbytes);
    911c:	e5961008 	ldr	r1, [r6, #8]
{
    9120:	e08f4004 	add	r4, pc, r4
  printf("iobuf_pop_filter %d %d",a->nbytes);
    9124:	eb0020b6 	bl	11404 <tfp_printf>
  if (DBG_IOBUF)
    9128:	e59f1298 	ldr	r1, [pc, #664]	; 93c8 <iobuf_pop_filter+0x2cc>
  size_t dummy_len = 0;
    912c:	e3a02000 	mov	r2, #0
    9130:	e58d2008 	str	r2, [sp, #8]
{
    9134:	e1a03004 	mov	r3, r4
  if (DBG_IOBUF)
    9138:	e7947001 	ldr	r7, [r4, r1]
    913c:	e5973000 	ldr	r3, [r7]
    9140:	e1530002 	cmp	r3, r2
    9144:	1a000039 	bne	9230 <iobuf_pop_filter+0x134>
  if (a->use == IOBUF_INPUT_TEMP || a->use == IOBUF_OUTPUT_TEMP)
    9148:	e5d62000 	ldrb	r2, [r6]
    914c:	e20230fd 	and	r3, r2, #253	; 0xfd
    9150:	e3530001 	cmp	r3, #1
    9154:	0a00002e 	beq	9214 <iobuf_pop_filter+0x118>
  if (!a->filter)
    9158:	e596502c 	ldr	r5, [r6, #44]	; 0x2c
    915c:	e3550000 	cmp	r5, #0
    9160:	11a04006 	movne	r4, r6
    9164:	1a000004 	bne	917c <iobuf_pop_filter+0x80>
    9168:	ea00007c 	b	9360 <iobuf_pop_filter+0x264>
  for (b = a; b; b = b->chain)
    916c:	e594403c 	ldr	r4, [r4, #60]	; 0x3c
    9170:	e3540000 	cmp	r4, #0
    9174:	0a00006d 	beq	9330 <iobuf_pop_filter+0x234>
    if (b->filter == f && (!ov || b->filter_ov == ov))
    9178:	e594502c 	ldr	r5, [r4, #44]	; 0x2c
    917c:	e1580005 	cmp	r8, r5
    9180:	1afffff9 	bne	916c <iobuf_pop_filter+0x70>
    9184:	e3590000 	cmp	r9, #0
    9188:	0a000002 	beq	9198 <iobuf_pop_filter+0x9c>
    918c:	e5943030 	ldr	r3, [r4, #48]	; 0x30
    9190:	e1530009 	cmp	r3, r9
    9194:	1afffff4 	bne	916c <iobuf_pop_filter+0x70>
  if (a->use == IOBUF_OUTPUT && (rc = filter_flush (b)))
    9198:	e3520002 	cmp	r2, #2
    919c:	0a000038 	beq	9284 <iobuf_pop_filter+0x188>
  if (b->filter && (rc = b->filter (b->filter_ov, IOBUFCTRL_FREE, b->chain,
    91a0:	e594502c 	ldr	r5, [r4, #44]	; 0x2c
    91a4:	e3550000 	cmp	r5, #0
    91a8:	0a000008 	beq	91d0 <iobuf_pop_filter+0xd4>
    91ac:	e594203c 	ldr	r2, [r4, #60]	; 0x3c
    91b0:	e28d3008 	add	r3, sp, #8
    91b4:	e5940030 	ldr	r0, [r4, #48]	; 0x30
    91b8:	e3a01002 	mov	r1, #2
    91bc:	e58d3000 	str	r3, [sp]
    91c0:	e3a03000 	mov	r3, #0
    91c4:	e12fff35 	blx	r5
    91c8:	e3500000 	cmp	r0, #0
    91cc:	1a00000e 	bne	920c <iobuf_pop_filter+0x110>
  if (b->filter_ov && b->filter_ov_owner)
    91d0:	e5940030 	ldr	r0, [r4, #48]	; 0x30
    91d4:	e3500000 	cmp	r0, #0
    91d8:	0a000002 	beq	91e8 <iobuf_pop_filter+0xec>
    91dc:	e5943034 	ldr	r3, [r4, #52]	; 0x34
    91e0:	e3530000 	cmp	r3, #0
    91e4:	1a00002b 	bne	9298 <iobuf_pop_filter+0x19c>
  if (a == b && !b->chain)
    91e8:	e1560004 	cmp	r6, r4
    91ec:	0a000034 	beq	92c4 <iobuf_pop_filter+0x1c8>
  else if (!b->chain)
    91f0:	e594503c 	ldr	r5, [r4, #60]	; 0x3c
    91f4:	e3550000 	cmp	r5, #0
    91f8:	0a000053 	beq	934c <iobuf_pop_filter+0x250>
      printf ("Ohh jeee, trying to remove an intermediate filter\n");
    91fc:	e59f01c8 	ldr	r0, [pc, #456]	; 93cc <iobuf_pop_filter+0x2d0>
    9200:	e08f0000 	add	r0, pc, r0
    9204:	eb00207e 	bl	11404 <tfp_printf>
  return rc;
    9208:	e3a00000 	mov	r0, #0
}
    920c:	e28dd034 	add	sp, sp, #52	; 0x34
    9210:	e8bd8ff0 	pop	{r4, r5, r6, r7, r8, r9, sl, fp, pc}
      printf (! a->chain);
    9214:	e596003c 	ldr	r0, [r6, #60]	; 0x3c
    9218:	e16f0f10 	clz	r0, r0
    921c:	e1a002a0 	lsr	r0, r0, #5
    9220:	eb002077 	bl	11404 <tfp_printf>
      return 0;
    9224:	e3a00000 	mov	r0, #0
}
    9228:	e28dd034 	add	sp, sp, #52	; 0x34
    922c:	e8bd8ff0 	pop	{r4, r5, r6, r7, r8, r9, sl, fp, pc}
  if (! a || ! a->filter)
    9230:	e596402c 	ldr	r4, [r6, #44]	; 0x2c
  size_t len = MAX_IOBUF_DESC;
    9234:	e3a03020 	mov	r3, #32
    printf ("iobuf-%d.%d: pop '%s'\n",
    9238:	e5965040 	ldr	r5, [r6, #64]	; 0x40
  if (! a || ! a->filter)
    923c:	e1540002 	cmp	r4, r2
    printf ("iobuf-%d.%d: pop '%s'\n",
    9240:	e596a044 	ldr	sl, [r6, #68]	; 0x44
  size_t len = MAX_IOBUF_DESC;
    9244:	e58d300c 	str	r3, [sp, #12]
  if (! a || ! a->filter)
    9248:	0a000016 	beq	92a8 <iobuf_pop_filter+0x1ac>
    a->filter (a->filter_ov, IOBUFCTRL_DESC, NULL, buf, &len);
    924c:	e5960030 	ldr	r0, [r6, #48]	; 0x30
    9250:	e28d300c 	add	r3, sp, #12
    9254:	e58d3000 	str	r3, [sp]
    9258:	e28db010 	add	fp, sp, #16
    925c:	e1a0300b 	mov	r3, fp
    9260:	e3a01005 	mov	r1, #5
    9264:	e12fff34 	blx	r4
    printf ("iobuf-%d.%d: pop '%s'\n",
    9268:	e59f0160 	ldr	r0, [pc, #352]	; 93d0 <iobuf_pop_filter+0x2d4>
    926c:	e1a0300b 	mov	r3, fp
    9270:	e1a0200a 	mov	r2, sl
    9274:	e1a01005 	mov	r1, r5
    9278:	e08f0000 	add	r0, pc, r0
    927c:	eb002060 	bl	11404 <tfp_printf>
    9280:	eaffffb0 	b	9148 <iobuf_pop_filter+0x4c>
  if (a->use == IOBUF_OUTPUT && (rc = filter_flush (b)))
    9284:	e1a00004 	mov	r0, r4
    9288:	ebfffbec 	bl	8240 <filter_flush>
    928c:	e3500000 	cmp	r0, #0
    9290:	0affffc2 	beq	91a0 <iobuf_pop_filter+0xa4>
    9294:	eaffffdc 	b	920c <iobuf_pop_filter+0x110>
      xfree (b->filter_ov);
    9298:	eb001753 	bl	efec <xfree>
      b->filter_ov = NULL;
    929c:	e3a03000 	mov	r3, #0
    92a0:	e5843030 	str	r3, [r4, #48]	; 0x30
    92a4:	eaffffcf 	b	91e8 <iobuf_pop_filter+0xec>
    memcpy (buf, "?", 2);
    92a8:	e59f1124 	ldr	r1, [pc, #292]	; 93d4 <iobuf_pop_filter+0x2d8>
    92ac:	e28db010 	add	fp, sp, #16
    92b0:	e3a02002 	mov	r2, #2
    92b4:	e1a0000b 	mov	r0, fp
    92b8:	e08f1001 	add	r1, pc, r1
    92bc:	eb001784 	bl	f0d4 <memcpy>
    92c0:	eaffffe8 	b	9268 <iobuf_pop_filter+0x16c>
  if (a == b && !b->chain)
    92c4:	e596503c 	ldr	r5, [r6, #60]	; 0x3c
    92c8:	e3550000 	cmp	r5, #0
    92cc:	0a000036 	beq	93ac <iobuf_pop_filter+0x2b0>
      xfree (a->d.buf);
    92d0:	e5960020 	ldr	r0, [r6, #32]
    92d4:	eb001744 	bl	efec <xfree>
      xfree (a->real_fname);
    92d8:	e5960038 	ldr	r0, [r6, #56]	; 0x38
    92dc:	eb001742 	bl	efec <xfree>
      memcpy (a, b, sizeof *a);
    92e0:	e3a02048 	mov	r2, #72	; 0x48
    92e4:	e1a01005 	mov	r1, r5
    92e8:	e1a00006 	mov	r0, r6
    92ec:	eb001778 	bl	f0d4 <memcpy>
      xfree (b);
    92f0:	e1a00005 	mov	r0, r5
    92f4:	eb00173c 	bl	efec <xfree>
      printf ("iobuf_pop_filter: removed first filter %d\n",sizeof *a);
    92f8:	e59f00d8 	ldr	r0, [pc, #216]	; 93d8 <iobuf_pop_filter+0x2dc>
    92fc:	e3a01048 	mov	r1, #72	; 0x48
    9300:	e08f0000 	add	r0, pc, r0
    9304:	eb00203e 	bl	11404 <tfp_printf>
      if (DBG_IOBUF)
    9308:	e5970000 	ldr	r0, [r7]
    930c:	e3500000 	cmp	r0, #0
    9310:	0affffbd 	beq	920c <iobuf_pop_filter+0x110>
	printf ("iobuf-%d.%d: popped filter\n", a->no, a->subno);
    9314:	e59f00c0 	ldr	r0, [pc, #192]	; 93dc <iobuf_pop_filter+0x2e0>
    9318:	e5962044 	ldr	r2, [r6, #68]	; 0x44
    931c:	e08f0000 	add	r0, pc, r0
    9320:	e5961040 	ldr	r1, [r6, #64]	; 0x40
    9324:	eb002036 	bl	11404 <tfp_printf>
  return rc;
    9328:	e3a00000 	mov	r0, #0
    932c:	eaffffb6 	b	920c <iobuf_pop_filter+0x110>
    printf ("iobuf_pop_filter(): filter function not found\n");
    9330:	e59f00a8 	ldr	r0, [pc, #168]	; 93e0 <iobuf_pop_filter+0x2e4>
    9334:	e08f0000 	add	r0, pc, r0
    9338:	eb002031 	bl	11404 <tfp_printf>
  if (a->use == IOBUF_OUTPUT && (rc = filter_flush (b)))
    933c:	e5d62000 	ldrb	r2, [r6]
    9340:	e3520002 	cmp	r2, #2
    9344:	1affff95 	bne	91a0 <iobuf_pop_filter+0xa4>
    9348:	eaffffcd 	b	9284 <iobuf_pop_filter+0x188>
      printf ("Ohh jeee, trying to remove a head filter\n");
    934c:	e59f0090 	ldr	r0, [pc, #144]	; 93e4 <iobuf_pop_filter+0x2e8>
    9350:	e08f0000 	add	r0, pc, r0
    9354:	eb00202a 	bl	11404 <tfp_printf>
  return rc;
    9358:	e1a00005 	mov	r0, r5
    935c:	eaffffaa 	b	920c <iobuf_pop_filter+0x110>
      b = a->chain;
    9360:	e596403c 	ldr	r4, [r6, #60]	; 0x3c
      printf (b);
    9364:	e1a00004 	mov	r0, r4
    9368:	eb002025 	bl	11404 <tfp_printf>
      xfree (a->d.buf);
    936c:	e5960020 	ldr	r0, [r6, #32]
    9370:	eb00171d 	bl	efec <xfree>
      xfree (a->real_fname);
    9374:	e5960038 	ldr	r0, [r6, #56]	; 0x38
    9378:	eb00171b 	bl	efec <xfree>
      printf ("iobuf_pop_filter: no filter %d\n",sizeof *a);
    937c:	e59f0064 	ldr	r0, [pc, #100]	; 93e8 <iobuf_pop_filter+0x2ec>
    9380:	e3a01048 	mov	r1, #72	; 0x48
    9384:	e08f0000 	add	r0, pc, r0
    9388:	eb00201d 	bl	11404 <tfp_printf>
      memcpy (a, b, sizeof *a);
    938c:	e3a02048 	mov	r2, #72	; 0x48
    9390:	e1a01004 	mov	r1, r4
    9394:	e1a00006 	mov	r0, r6
    9398:	eb00174d 	bl	f0d4 <memcpy>
      xfree (b);
    939c:	e1a00004 	mov	r0, r4
    93a0:	eb001711 	bl	efec <xfree>
      return 0;
    93a4:	e1a00005 	mov	r0, r5
    93a8:	eaffff97 	b	920c <iobuf_pop_filter+0x110>
    printf ("can't remove the last filter from the chain\n");
    93ac:	e59f0038 	ldr	r0, [pc, #56]	; 93ec <iobuf_pop_filter+0x2f0>
    93b0:	e08f0000 	add	r0, pc, r0
    93b4:	eb002012 	bl	11404 <tfp_printf>
  return rc;
    93b8:	e1a00005 	mov	r0, r5
    printf ("can't remove the last filter from the chain\n");
    93bc:	eaffff92 	b	920c <iobuf_pop_filter+0x110>
    93c0:	0000d190 	.word	0x0000d190
    93c4:	0003289c 	.word	0x0003289c
    93c8:	0000001c 	.word	0x0000001c
    93cc:	0000d198 	.word	0x0000d198
    93d0:	0000d044 	.word	0x0000d044
    93d4:	0000cd3c 	.word	0x0000cd3c
    93d8:	0000d024 	.word	0x0000d024
    93dc:	0000d034 	.word	0x0000d034
    93e0:	0000d098 	.word	0x0000d098
    93e4:	0000d01c 	.word	0x0000d01c
    93e8:	0000cf50 	.word	0x0000cf50
    93ec:	0000cf44 	.word	0x0000cf44

000093f0 <iobuf_readbyte>:
{
    93f0:	e92d40f0 	push	{r4, r5, r6, r7, lr}
    93f4:	e24dd01c 	sub	sp, sp, #28
    93f8:	e59f62c4 	ldr	r6, [pc, #708]	; 96c4 <iobuf_readbyte+0x2d4>
    93fc:	e1a04000 	mov	r4, r0
    9400:	e58d000c 	str	r0, [sp, #12]
  if (a->use == IOBUF_OUTPUT || a->use == IOBUF_OUTPUT_TEMP)
    9404:	e5d00000 	ldrb	r0, [r0]
{
    9408:	e08f6006 	add	r6, pc, r6
  if (a->use == IOBUF_OUTPUT || a->use == IOBUF_OUTPUT_TEMP)
    940c:	e2403002 	sub	r3, r0, #2
    9410:	e3530001 	cmp	r3, #1
    9414:	9a00009e 	bls	9694 <iobuf_readbyte+0x2a4>
  if (a->nlimit && a->nbytes >= a->nlimit)
    9418:	e5943004 	ldr	r3, [r4, #4]
    941c:	e3530000 	cmp	r3, #0
    9420:	1a00000d 	bne	945c <iobuf_readbyte+0x6c>
  if (a->d.start < a->d.len)
    9424:	e5941018 	ldr	r1, [r4, #24]
    9428:	e594201c 	ldr	r2, [r4, #28]
    942c:	e1510002 	cmp	r1, r2
    9430:	2a00000e 	bcs	9470 <iobuf_readbyte+0x80>
      c = a->d.buf[a->d.start++];
    9434:	e5943020 	ldr	r3, [r4, #32]
    9438:	e2812001 	add	r2, r1, #1
    943c:	e5842018 	str	r2, [r4, #24]
    9440:	e7d35001 	ldrb	r5, [r3, r1]
  a->nbytes++;
    9444:	e5943008 	ldr	r3, [r4, #8]
    9448:	e2833001 	add	r3, r3, #1
    944c:	e5843008 	str	r3, [r4, #8]
}
    9450:	e1a00005 	mov	r0, r5
    9454:	e28dd01c 	add	sp, sp, #28
    9458:	e8bd80f0 	pop	{r4, r5, r6, r7, pc}
  if (a->nlimit && a->nbytes >= a->nlimit)
    945c:	e5942008 	ldr	r2, [r4, #8]
    9460:	e1530002 	cmp	r3, r2
    9464:	caffffee 	bgt	9424 <iobuf_readbyte+0x34>
    return -1;			/* EOF */
    9468:	e3e05000 	mvn	r5, #0
    946c:	eafffff7 	b	9450 <iobuf_readbyte+0x60>
  if (a->use == IOBUF_INPUT_TEMP)
    9470:	e3500001 	cmp	r0, #1
    9474:	0afffffb 	beq	9468 <iobuf_readbyte+0x78>
  memmove (a->d.buf, &a->d.buf[a->d.start], a->d.len);
    9478:	e5940020 	ldr	r0, [r4, #32]
  a->d.len -= a->d.start;
    947c:	e0422001 	sub	r2, r2, r1
    9480:	e584201c 	str	r2, [r4, #28]
  memmove (a->d.buf, &a->d.buf[a->d.start], a->d.len);
    9484:	e0801001 	add	r1, r0, r1
    9488:	eb001737 	bl	f16c <memmove>
  if (a->d.len < target && a->filter_eof)
    948c:	e594301c 	ldr	r3, [r4, #28]
  a->d.start = 0;
    9490:	e3a02000 	mov	r2, #0
    9494:	e5842018 	str	r2, [r4, #24]
  if (a->d.len < target && a->filter_eof)
    9498:	e1530002 	cmp	r3, r2
    949c:	0a00000a 	beq	94cc <iobuf_readbyte+0xdc>
  if (a->filter && ! a->filter_eof && ! a->error)
    94a0:	e594502c 	ldr	r5, [r4, #44]	; 0x2c
    94a4:	e3550000 	cmp	r5, #0
    94a8:	0a000073 	beq	967c <iobuf_readbyte+0x28c>
    94ac:	e5941024 	ldr	r1, [r4, #36]	; 0x24
    94b0:	e3510000 	cmp	r1, #0
    94b4:	0a00007d 	beq	96b0 <iobuf_readbyte+0x2c0>
    return a->d.buf[a->d.start++];
    94b8:	e5943020 	ldr	r3, [r4, #32]
    94bc:	e2821001 	add	r1, r2, #1
    94c0:	e5841018 	str	r1, [r4, #24]
    94c4:	e7d35002 	ldrb	r5, [r3, r2]
    94c8:	eaffffdd 	b	9444 <iobuf_readbyte+0x54>
  if (a->d.len < target && a->filter_eof)
    94cc:	e5942024 	ldr	r2, [r4, #36]	; 0x24
    94d0:	e3520000 	cmp	r2, #0
    94d4:	0a000015 	beq	9530 <iobuf_readbyte+0x140>
      if (a->chain)
    94d8:	e594503c 	ldr	r5, [r4, #60]	; 0x3c
    94dc:	e3550000 	cmp	r5, #0
    94e0:	0a000063 	beq	9674 <iobuf_readbyte+0x284>
	  xfree (a->d.buf);
    94e4:	e5940020 	ldr	r0, [r4, #32]
    94e8:	eb0016bf 	bl	efec <xfree>
	  xfree (a->real_fname);
    94ec:	e5940038 	ldr	r0, [r4, #56]	; 0x38
    94f0:	eb0016bd 	bl	efec <xfree>
	  memcpy (a, b, sizeof *a);
    94f4:	e3a02048 	mov	r2, #72	; 0x48
    94f8:	e1a01005 	mov	r1, r5
    94fc:	e1a00004 	mov	r0, r4
    9500:	eb0016f3 	bl	f0d4 <memcpy>
	  xfree (b);
    9504:	e1a00005 	mov	r0, r5
    9508:	eb0016b7 	bl	efec <xfree>
  if (!DBG_IOBUF)
    950c:	e59f31b4 	ldr	r3, [pc, #436]	; 96c8 <iobuf_readbyte+0x2d8>
    9510:	e7963003 	ldr	r3, [r6, r3]
    9514:	e5933000 	ldr	r3, [r3]
    9518:	e3530000 	cmp	r3, #0
    951c:	0affffd1 	beq	9468 <iobuf_readbyte+0x78>
    9520:	e1a00004 	mov	r0, r4
    return -1;			/* EOF */
    9524:	e3e05000 	mvn	r5, #0
    9528:	ebfffb8d 	bl	8364 <print_chain.part.0>
    952c:	eaffffc7 	b	9450 <iobuf_readbyte+0x60>
  if (a->d.len == 0 && a->error)
    9530:	e5942028 	ldr	r2, [r4, #40]	; 0x28
    9534:	e3520000 	cmp	r2, #0
    9538:	1affffca 	bne	9468 <iobuf_readbyte+0x78>
  if (a->filter && ! a->filter_eof && ! a->error)
    953c:	e594502c 	ldr	r5, [r4, #44]	; 0x2c
    9540:	e3550000 	cmp	r5, #0
    9544:	0affffc7 	beq	9468 <iobuf_readbyte+0x78>
      len = a->d.size - a->d.len;
    9548:	e5942014 	ldr	r2, [r4, #20]
    954c:	e0422003 	sub	r2, r2, r3
    9550:	e58d2010 	str	r2, [sp, #16]
      if (len == 0)
    9554:	e3520000 	cmp	r2, #0
    9558:	0a000042 	beq	9668 <iobuf_readbyte+0x278>
	rc = a->filter (a->filter_ov, IOBUFCTRL_UNDERFLOW, a->chain,
    955c:	e5942020 	ldr	r2, [r4, #32]
    9560:	e28d1010 	add	r1, sp, #16
    9564:	e5940030 	ldr	r0, [r4, #48]	; 0x30
    9568:	e0823003 	add	r3, r2, r3
    956c:	e594203c 	ldr	r2, [r4, #60]	; 0x3c
    9570:	e58d1000 	str	r1, [sp]
    9574:	e3a01003 	mov	r1, #3
    9578:	e12fff35 	blx	r5
      a->d.len += len;
    957c:	e594201c 	ldr	r2, [r4, #28]
      if (rc == -1)
    9580:	e3700001 	cmn	r0, #1
      a->d.len += len;
    9584:	e59d3010 	ldr	r3, [sp, #16]
	rc = a->filter (a->filter_ov, IOBUFCTRL_UNDERFLOW, a->chain,
    9588:	e1a05000 	mov	r5, r0
      a->d.len += len;
    958c:	e0823003 	add	r3, r2, r3
    9590:	e584301c 	str	r3, [r4, #28]
      if (rc == -1)
    9594:	1a00002d 	bne	9650 <iobuf_readbyte+0x260>
	  if ((rc = a->filter (a->filter_ov, IOBUFCTRL_FREE, a->chain,
    9598:	e594702c 	ldr	r7, [r4, #44]	; 0x2c
	  size_t dummy_len = 0;
    959c:	e3a03000 	mov	r3, #0
	  if ((rc = a->filter (a->filter_ov, IOBUFCTRL_FREE, a->chain,
    95a0:	e594203c 	ldr	r2, [r4, #60]	; 0x3c
    95a4:	e28d1014 	add	r1, sp, #20
    95a8:	e58d1000 	str	r1, [sp]
    95ac:	e3a01002 	mov	r1, #2
    95b0:	e5940030 	ldr	r0, [r4, #48]	; 0x30
	  size_t dummy_len = 0;
    95b4:	e58d3014 	str	r3, [sp, #20]
	  if ((rc = a->filter (a->filter_ov, IOBUFCTRL_FREE, a->chain,
    95b8:	e12fff37 	blx	r7
    95bc:	e3500000 	cmp	r0, #0
    95c0:	1a00002f 	bne	9684 <iobuf_readbyte+0x294>
	  if (a->filter_ov && a->filter_ov_owner)
    95c4:	e5940030 	ldr	r0, [r4, #48]	; 0x30
    95c8:	e3500000 	cmp	r0, #0
    95cc:	0a000002 	beq	95dc <iobuf_readbyte+0x1ec>
    95d0:	e5943034 	ldr	r3, [r4, #52]	; 0x34
    95d4:	e3530000 	cmp	r3, #0
    95d8:	1a000032 	bne	96a8 <iobuf_readbyte+0x2b8>
	  if (clear_pending_eof && a->d.len == 0 && a->chain)
    95dc:	e594301c 	ldr	r3, [r4, #28]
	  a->filter_ov = NULL;
    95e0:	e3a02000 	mov	r2, #0
    95e4:	e5842030 	str	r2, [r4, #48]	; 0x30
	  if (clear_pending_eof && a->d.len == 0 && a->chain)
    95e8:	e1530002 	cmp	r3, r2
	  a->filter = NULL;
    95ec:	e584202c 	str	r2, [r4, #44]	; 0x2c
	  a->filter_eof = 1;
    95f0:	e3a02001 	mov	r2, #1
    95f4:	e5842024 	str	r2, [r4, #36]	; 0x24
	  if (clear_pending_eof && a->d.len == 0 && a->chain)
    95f8:	1a000019 	bne	9664 <iobuf_readbyte+0x274>
    95fc:	e594703c 	ldr	r7, [r4, #60]	; 0x3c
    9600:	e3570000 	cmp	r7, #0
    9604:	0affff91 	beq	9450 <iobuf_readbyte+0x60>
	      xfree (a->d.buf);
    9608:	e5940020 	ldr	r0, [r4, #32]
    960c:	eb001676 	bl	efec <xfree>
	      xfree (a->real_fname);
    9610:	e5940038 	ldr	r0, [r4, #56]	; 0x38
    9614:	eb001674 	bl	efec <xfree>
	      memcpy (a, b, sizeof *a);
    9618:	e3a02048 	mov	r2, #72	; 0x48
    961c:	e1a01007 	mov	r1, r7
    9620:	e1a00004 	mov	r0, r4
    9624:	eb0016aa 	bl	f0d4 <memcpy>
	      xfree (b);
    9628:	e1a00007 	mov	r0, r7
    962c:	eb00166e 	bl	efec <xfree>
  if (!DBG_IOBUF)
    9630:	e59f3090 	ldr	r3, [pc, #144]	; 96c8 <iobuf_readbyte+0x2d8>
    9634:	e7963003 	ldr	r3, [r6, r3]
    9638:	e5933000 	ldr	r3, [r3]
    963c:	e3530000 	cmp	r3, #0
    9640:	0affff82 	beq	9450 <iobuf_readbyte+0x60>
    9644:	e1a00004 	mov	r0, r4
    9648:	ebfffb45 	bl	8364 <print_chain.part.0>
    964c:	eaffff7f 	b	9450 <iobuf_readbyte+0x60>
      else if (rc)
    9650:	e3500000 	cmp	r0, #0
    9654:	0a000002 	beq	9664 <iobuf_readbyte+0x274>
	  a->error = rc;
    9658:	e5840028 	str	r0, [r4, #40]	; 0x28
	  if (a->d.len == 0)
    965c:	e3530000 	cmp	r3, #0
    9660:	0affff80 	beq	9468 <iobuf_readbyte+0x78>
  if (a->d.start < a->d.len)
    9664:	e5942018 	ldr	r2, [r4, #24]
    9668:	e1520003 	cmp	r2, r3
    966c:	3affff91 	bcc	94b8 <iobuf_readbyte+0xc8>
    9670:	eaffff7c 	b	9468 <iobuf_readbyte+0x78>
	a->filter_eof = 0;	/* for the top level filter */
    9674:	e5845024 	str	r5, [r4, #36]	; 0x24
    9678:	eaffff7a 	b	9468 <iobuf_readbyte+0x78>
    967c:	e1a02005 	mov	r2, r5
    9680:	eaffff8c 	b	94b8 <iobuf_readbyte+0xc8>
	    printf ("IOBUFCTRL_FREE failed: %s\n");//, gpg_strerror (rc));
    9684:	e59f0040 	ldr	r0, [pc, #64]	; 96cc <iobuf_readbyte+0x2dc>
    9688:	e08f0000 	add	r0, pc, r0
    968c:	eb001f5c 	bl	11404 <tfp_printf>
    9690:	eaffffcb 	b	95c4 <iobuf_readbyte+0x1d4>
      printf ("iobuf_readbyte called on a non-INPUT pipeline!\n");
    9694:	e59f0034 	ldr	r0, [pc, #52]	; 96d0 <iobuf_readbyte+0x2e0>
      return -1;
    9698:	e3e05000 	mvn	r5, #0
      printf ("iobuf_readbyte called on a non-INPUT pipeline!\n");
    969c:	e08f0000 	add	r0, pc, r0
    96a0:	eb001f57 	bl	11404 <tfp_printf>
      return -1;
    96a4:	eaffff69 	b	9450 <iobuf_readbyte+0x60>
	    xfree (a->filter_ov);
    96a8:	eb00164f 	bl	efec <xfree>
    96ac:	eaffffca 	b	95dc <iobuf_readbyte+0x1ec>
  if (a->filter && ! a->filter_eof && ! a->error)
    96b0:	e5942028 	ldr	r2, [r4, #40]	; 0x28
    96b4:	e3520000 	cmp	r2, #0
    96b8:	11a02001 	movne	r2, r1
    96bc:	1affff7d 	bne	94b8 <iobuf_readbyte+0xc8>
    96c0:	eaffffa0 	b	9548 <iobuf_readbyte+0x158>
    96c4:	000325b4 	.word	0x000325b4
    96c8:	0000001c 	.word	0x0000001c
    96cc:	0000cda4 	.word	0x0000cda4
    96d0:	0000cd60 	.word	0x0000cd60

000096d4 <iobuf_read>:
{
    96d4:	e92d41f0 	push	{r4, r5, r6, r7, r8, lr}
    96d8:	e1a06000 	mov	r6, r0
  printf("iobuf_read %d a->nlimit %d\n",buflen,a->nlimit);
    96dc:	e59f0138 	ldr	r0, [pc, #312]	; 981c <iobuf_read+0x148>
{
    96e0:	e1a07002 	mov	r7, r2
  printf("iobuf_read %d a->nlimit %d\n",buflen,a->nlimit);
    96e4:	e5962004 	ldr	r2, [r6, #4]
{
    96e8:	e1a04001 	mov	r4, r1
  printf("iobuf_read %d a->nlimit %d\n",buflen,a->nlimit);
    96ec:	e08f0000 	add	r0, pc, r0
    96f0:	e1a01007 	mov	r1, r7
    96f4:	eb001f42 	bl	11404 <tfp_printf>
  if (a->use == IOBUF_OUTPUT || a->use == IOBUF_OUTPUT_TEMP)
    96f8:	e5d63000 	ldrb	r3, [r6]
    96fc:	e2433002 	sub	r3, r3, #2
    9700:	e3530001 	cmp	r3, #1
    9704:	9a00003f 	bls	9808 <iobuf_read+0x134>
  if (a->nlimit)
    9708:	e5965004 	ldr	r5, [r6, #4]
    970c:	e3550000 	cmp	r5, #0
    9710:	0a000011 	beq	975c <iobuf_read+0x88>
      for (n = 0; n < buflen; n++)
    9714:	e2575000 	subs	r5, r7, #0
    9718:	0a000014 	beq	9770 <iobuf_read+0x9c>
    971c:	e3a08000 	mov	r8, #0
    9720:	ea000004 	b	9738 <iobuf_read+0x64>
	  if (buf)
    9724:	e3540000 	cmp	r4, #0
      for (n = 0; n < buflen; n++)
    9728:	e2888001 	add	r8, r8, #1
	      *buf = c;
    972c:	14c40001 	strbne	r0, [r4], #1
      for (n = 0; n < buflen; n++)
    9730:	e1580007 	cmp	r8, r7
    9734:	0a00000d 	beq	9770 <iobuf_read+0x9c>
	  if ((c = iobuf_readbyte (a)) == -1)
    9738:	e1a00006 	mov	r0, r6
    973c:	ebffff2b 	bl	93f0 <iobuf_readbyte>
    9740:	e3700001 	cmn	r0, #1
    9744:	1afffff6 	bne	9724 <iobuf_read+0x50>
	      if (!n)
    9748:	e3580000 	cmp	r8, #0
    974c:	11a05008 	movne	r5, r8
    9750:	03e05000 	mvneq	r5, #0
}
    9754:	e1a00005 	mov	r0, r5
    9758:	e8bd81f0 	pop	{r4, r5, r6, r7, r8, pc}
      if (n < buflen && a->d.start < a->d.len)
    975c:	e1550007 	cmp	r5, r7
    9760:	3a00001a 	bcc	97d0 <iobuf_read+0xfc>
  a->nbytes += n;
    9764:	e5963008 	ldr	r3, [r6, #8]
    9768:	e0833005 	add	r3, r3, r5
    976c:	e5863008 	str	r3, [r6, #8]
}
    9770:	e1a00005 	mov	r0, r5
    9774:	e8bd81f0 	pop	{r4, r5, r6, r7, r8, pc}
	  n += size;
    9778:	e1580001 	cmp	r8, r1
    977c:	21a08001 	movcs	r8, r1
	  if (buf)
    9780:	e3540000 	cmp	r4, #0
	  a->d.start += size;
    9784:	e0832008 	add	r2, r3, r8
	  if (buf)
    9788:	0a000019 	beq	97f4 <iobuf_read+0x120>
	    memcpy (buf, a->d.buf + a->d.start, size);
    978c:	e5961020 	ldr	r1, [r6, #32]
    9790:	e1a00004 	mov	r0, r4
	  n += size;
    9794:	e0855008 	add	r5, r5, r8
	    memcpy (buf, a->d.buf + a->d.start, size);
    9798:	e1a02008 	mov	r2, r8
    979c:	e0811003 	add	r1, r1, r3
	    buf += size;
    97a0:	e0844008 	add	r4, r4, r8
	    memcpy (buf, a->d.buf + a->d.start, size);
    97a4:	eb00164a 	bl	f0d4 <memcpy>
	  a->d.start += size;
    97a8:	e5963018 	ldr	r3, [r6, #24]
      if (n < buflen)
    97ac:	e1570005 	cmp	r7, r5
	  a->d.start += size;
    97b0:	e0833008 	add	r3, r3, r8
    97b4:	e5863018 	str	r3, [r6, #24]
      if (n < buflen)
    97b8:	9affffe9 	bls	9764 <iobuf_read+0x90>
	    *buf++ = c;
    97bc:	e3a03000 	mov	r3, #0
    97c0:	e4c43001 	strb	r3, [r4], #1
	  n++;
    97c4:	e2855001 	add	r5, r5, #1
  while (n < buflen);
    97c8:	e1550007 	cmp	r5, r7
    97cc:	2affffe4 	bcs	9764 <iobuf_read+0x90>
      if (n < buflen && a->d.start < a->d.len)
    97d0:	e5963018 	ldr	r3, [r6, #24]
    97d4:	e596201c 	ldr	r2, [r6, #28]
	  if (size > buflen - n)
    97d8:	e0478005 	sub	r8, r7, r5
      if (n < buflen && a->d.start < a->d.len)
    97dc:	e1530002 	cmp	r3, r2
	  unsigned size = a->d.len - a->d.start;
    97e0:	e0421003 	sub	r1, r2, r3
      if (n < buflen && a->d.start < a->d.len)
    97e4:	3affffe3 	bcc	9778 <iobuf_read+0xa4>
	  if (buf)
    97e8:	e3540000 	cmp	r4, #0
    97ec:	1afffff2 	bne	97bc <iobuf_read+0xe8>
    97f0:	eafffff3 	b	97c4 <iobuf_read+0xf0>
	  n += size;
    97f4:	e0855008 	add	r5, r5, r8
      if (n < buflen)
    97f8:	e1570005 	cmp	r7, r5
	  a->d.start += size;
    97fc:	e5862018 	str	r2, [r6, #24]
      if (n < buflen)
    9800:	8affffef 	bhi	97c4 <iobuf_read+0xf0>
    9804:	eaffffd6 	b	9764 <iobuf_read+0x90>
      printf ("iobuf_read called on a non-INPUT pipeline!\n");
    9808:	e59f0010 	ldr	r0, [pc, #16]	; 9820 <iobuf_read+0x14c>
      return -1;
    980c:	e3e05000 	mvn	r5, #0
      printf ("iobuf_read called on a non-INPUT pipeline!\n");
    9810:	e08f0000 	add	r0, pc, r0
    9814:	eb001efa 	bl	11404 <tfp_printf>
      return -1;
    9818:	eaffffd4 	b	9770 <iobuf_read+0x9c>
    981c:	0000cd5c 	.word	0x0000cd5c
    9820:	0000cc54 	.word	0x0000cc54

00009824 <iobuf_peek>:
  if (buflen > a->d.size)
    9824:	e590c014 	ldr	ip, [r0, #20]
{
    9828:	e1a03000 	mov	r3, r0
    982c:	e92d4010 	push	{r4, lr}
    9830:	e1a00001 	mov	r0, r1
    9834:	e152000c 	cmp	r2, ip
  while (buflen > a->d.len - a->d.start)
    9838:	e593401c 	ldr	r4, [r3, #28]
    983c:	21a0200c 	movcs	r2, ip
    9840:	e593c018 	ldr	ip, [r3, #24]
    9844:	e044100c 	sub	r1, r4, ip
    9848:	e1520001 	cmp	r2, r1
    984c:	9a00000d 	bls	9888 <iobuf_peek+0x64>
    9850:	e1520004 	cmp	r2, r4
    9854:	8afffffd 	bhi	9850 <iobuf_peek+0x2c>
    9858:	e3a0c000 	mov	ip, #0
    985c:	e583c018 	str	ip, [r3, #24]
  if (n > buflen)
    9860:	e1520004 	cmp	r2, r4
    9864:	31a04002 	movcc	r4, r2
  if (n == 0)
    9868:	e3540000 	cmp	r4, #0
    986c:	0a000007 	beq	9890 <iobuf_peek+0x6c>
  memcpy (buf, &a->d.buf[a->d.start], n);
    9870:	e5931020 	ldr	r1, [r3, #32]
    9874:	e1a02004 	mov	r2, r4
    9878:	e081100c 	add	r1, r1, ip
    987c:	eb001614 	bl	f0d4 <memcpy>
}
    9880:	e1a00004 	mov	r0, r4
    9884:	e8bd8010 	pop	{r4, pc}
  while (buflen > a->d.len - a->d.start)
    9888:	e1a04001 	mov	r4, r1
    988c:	eafffff3 	b	9860 <iobuf_peek+0x3c>
    return -1;
    9890:	e3e04000 	mvn	r4, #0
    9894:	eafffff9 	b	9880 <iobuf_peek+0x5c>

00009898 <iobuf_writebyte>:
{
    9898:	e92d4070 	push	{r4, r5, r6, lr}
    989c:	e1a04000 	mov	r4, r0
  printf("iobuf_writebyte %02X",c);
    98a0:	e59f0090 	ldr	r0, [pc, #144]	; 9938 <iobuf_writebyte+0xa0>
{
    98a4:	e1a06001 	mov	r6, r1
  printf("iobuf_writebyte %02X",c);
    98a8:	e08f0000 	add	r0, pc, r0
    98ac:	eb001ed4 	bl	11404 <tfp_printf>
  if (a->use == IOBUF_INPUT || a->use == IOBUF_INPUT_TEMP)
    98b0:	e5d43000 	ldrb	r3, [r4]
    98b4:	e3530001 	cmp	r3, #1
    98b8:	9a000019 	bls	9924 <iobuf_writebyte+0x8c>
  if (a->d.len == a->d.size)
    98bc:	e594001c 	ldr	r0, [r4, #28]
    98c0:	e5943014 	ldr	r3, [r4, #20]
    98c4:	e1500003 	cmp	r0, r3
    98c8:	0a00000b 	beq	98fc <iobuf_writebyte+0x64>
  printf (a->d.len < a->d.size);
    98cc:	e1500003 	cmp	r0, r3
  return 0;
    98d0:	e3a05000 	mov	r5, #0
  printf (a->d.len < a->d.size);
    98d4:	23a00000 	movcs	r0, #0
    98d8:	33a00001 	movcc	r0, #1
    98dc:	eb001ec8 	bl	11404 <tfp_printf>
  a->d.buf[a->d.len++] = c;
    98e0:	e594301c 	ldr	r3, [r4, #28]
    98e4:	e5942020 	ldr	r2, [r4, #32]
    98e8:	e2831001 	add	r1, r3, #1
    98ec:	e584101c 	str	r1, [r4, #28]
    98f0:	e7c26003 	strb	r6, [r2, r3]
}
    98f4:	e1a00005 	mov	r0, r5
    98f8:	e8bd8070 	pop	{r4, r5, r6, pc}
    if ((rc=filter_flush (a))){
    98fc:	e1a00004 	mov	r0, r4
    9900:	ebfffa4e 	bl	8240 <filter_flush>
    9904:	e2505000 	subs	r5, r0, #0
  printf (a->d.len < a->d.size);
    9908:	0594001c 	ldreq	r0, [r4, #28]
    990c:	05943014 	ldreq	r3, [r4, #20]
    9910:	0affffed 	beq	98cc <iobuf_writebyte+0x34>
      printf("filter_flush\n");
    9914:	e59f0020 	ldr	r0, [pc, #32]	; 993c <iobuf_writebyte+0xa4>
    9918:	e08f0000 	add	r0, pc, r0
    991c:	eb001eb8 	bl	11404 <tfp_printf>
      return rc;
    9920:	eafffff3 	b	98f4 <iobuf_writebyte+0x5c>
      printf ("iobuf_writebyte called on an input pipeline!\n");
    9924:	e59f0014 	ldr	r0, [pc, #20]	; 9940 <iobuf_writebyte+0xa8>
      return -1;
    9928:	e3e05000 	mvn	r5, #0
      printf ("iobuf_writebyte called on an input pipeline!\n");
    992c:	e08f0000 	add	r0, pc, r0
    9930:	eb001eb3 	bl	11404 <tfp_printf>
      return -1;
    9934:	eaffffee 	b	98f4 <iobuf_writebyte+0x5c>
    9938:	0000cbe8 	.word	0x0000cbe8
    993c:	0000cbc0 	.word	0x0000cbc0
    9940:	0000cb7c 	.word	0x0000cb7c

00009944 <iobuf_write>:
{
    9944:	e92d41f0 	push	{r4, r5, r6, r7, r8, lr}
    9948:	e1a06000 	mov	r6, r0
  printf("iobuf_write %d",buflen);
    994c:	e59f00bc 	ldr	r0, [pc, #188]	; 9a10 <iobuf_write+0xcc>
{
    9950:	e1a07001 	mov	r7, r1
  printf("iobuf_write %d",buflen);
    9954:	e1a01002 	mov	r1, r2
{
    9958:	e1a05002 	mov	r5, r2
  printf("iobuf_write %d",buflen);
    995c:	e08f0000 	add	r0, pc, r0
    9960:	eb001ea7 	bl	11404 <tfp_printf>
  if (a->use == IOBUF_INPUT || a->use == IOBUF_INPUT_TEMP)
    9964:	e5d63000 	ldrb	r3, [r6]
    9968:	e3530001 	cmp	r3, #1
    996c:	9a000022 	bls	99fc <iobuf_write+0xb8>
  printf("iobuf_WROTE: %d bytes\n", size);
    9970:	e59f809c 	ldr	r8, [pc, #156]	; 9a14 <iobuf_write+0xd0>
      if (buflen && a->d.len < a->d.size)
    9974:	e3550000 	cmp	r5, #0
  printf("iobuf_WROTE: %d bytes\n", size);
    9978:	e08f8008 	add	r8, pc, r8
      if (buflen && a->d.len < a->d.size)
    997c:	0a000009 	beq	99a8 <iobuf_write+0x64>
    9980:	e596201c 	ldr	r2, [r6, #28]
    9984:	e5963014 	ldr	r3, [r6, #20]
    9988:	e1520003 	cmp	r2, r3
    998c:	3a000007 	bcc	99b0 <iobuf_write+0x6c>
	  rc = filter_flush (a);
    9990:	e1a00006 	mov	r0, r6
    9994:	ebfffa29 	bl	8240 <filter_flush>
          if (rc)
    9998:	e3500000 	cmp	r0, #0
    999c:	18bd81f0 	popne	{r4, r5, r6, r7, r8, pc}
      if (buflen && a->d.len < a->d.size)
    99a0:	e3550000 	cmp	r5, #0
    99a4:	1afffff5 	bne	9980 <iobuf_write+0x3c>
  return 0;
    99a8:	e3a00000 	mov	r0, #0
}
    99ac:	e8bd81f0 	pop	{r4, r5, r6, r7, r8, pc}
	  unsigned size = a->d.size - a->d.len;
    99b0:	e0433002 	sub	r3, r3, r2
	  memcpy (a->d.buf + a->d.len, buf, size);
    99b4:	e1a01007 	mov	r1, r7
    99b8:	e1550003 	cmp	r5, r3
    99bc:	e5960020 	ldr	r0, [r6, #32]
    99c0:	21a04003 	movcs	r4, r3
    99c4:	31a04005 	movcc	r4, r5
    99c8:	e0800002 	add	r0, r0, r2
    99cc:	e1a02004 	mov	r2, r4
    99d0:	eb0015bf 	bl	f0d4 <memcpy>
  printf("iobuf_WROTE: %d bytes\n", size);
    99d4:	e1a01004 	mov	r1, r4
    99d8:	e1a00008 	mov	r0, r8
    99dc:	eb001e88 	bl	11404 <tfp_printf>
	  a->d.len += size;
    99e0:	e596301c 	ldr	r3, [r6, #28]
      if (buflen)
    99e4:	e0555004 	subs	r5, r5, r4
	  a->d.len += size;
    99e8:	e0833004 	add	r3, r3, r4
    99ec:	e586301c 	str	r3, [r6, #28]
      if (buflen)
    99f0:	0affffec 	beq	99a8 <iobuf_write+0x64>
	  buf += size;
    99f4:	e0877004 	add	r7, r7, r4
    99f8:	eaffffe4 	b	9990 <iobuf_write+0x4c>
      printf ("iobuf_write called on an input pipeline!\n");
    99fc:	e59f0014 	ldr	r0, [pc, #20]	; 9a18 <iobuf_write+0xd4>
    9a00:	e08f0000 	add	r0, pc, r0
    9a04:	eb001e7e 	bl	11404 <tfp_printf>
      return -1;
    9a08:	e3e00000 	mvn	r0, #0
    9a0c:	e8bd81f0 	pop	{r4, r5, r6, r7, r8, pc}
    9a10:	0000cb8c 	.word	0x0000cb8c
    9a14:	0000cbac 	.word	0x0000cbac
    9a18:	0000caf8 	.word	0x0000caf8

00009a1c <block_filter>:
{
    9a1c:	e59fc7ec 	ldr	ip, [pc, #2028]	; a210 <block_filter+0x7f4>
    9a20:	e92d4ff8 	push	{r3, r4, r5, r6, r7, r8, r9, sl, fp, lr}
    9a24:	e1a06001 	mov	r6, r1
    9a28:	e08fc00c 	add	ip, pc, ip
    9a2c:	e1a05000 	mov	r5, r0
printf("block_filter %s\n", control_mode_str[control]);
    9a30:	e59fe7dc 	ldr	lr, [pc, #2012]	; a214 <block_filter+0x7f8>
    9a34:	e1a0100c 	mov	r1, ip
{
    9a38:	e59d8028 	ldr	r8, [sp, #40]	; 0x28
    9a3c:	e1a07002 	mov	r7, r2
printf("block_filter %s\n", control_mode_str[control]);
    9a40:	e79c000e 	ldr	r0, [ip, lr]
{
    9a44:	e1a0a003 	mov	sl, r3
printf("block_filter %s\n", control_mode_str[control]);
    9a48:	e7901106 	ldr	r1, [r0, r6, lsl #2]
    9a4c:	e59f07c4 	ldr	r0, [pc, #1988]	; a218 <block_filter+0x7fc>
    9a50:	e08f0000 	add	r0, pc, r0
    9a54:	eb001e6a 	bl	11404 <tfp_printf>
  size_t size = *ret_len;
    9a58:	e5984000 	ldr	r4, [r8]
  if (control == IOBUFCTRL_UNDERFLOW)
    9a5c:	e3560003 	cmp	r6, #3
    9a60:	0a000019 	beq	9acc <block_filter+0xb0>
  else if (control == IOBUFCTRL_FLUSH)
    9a64:	e3560004 	cmp	r6, #4
    9a68:	0a0000ac 	beq	9d20 <block_filter+0x304>
  else if (control == IOBUFCTRL_INIT)
    9a6c:	e3560001 	cmp	r6, #1
    9a70:	0a000004 	beq	9a88 <block_filter+0x6c>
  else if (control == IOBUFCTRL_FREE)
    9a74:	e3560002 	cmp	r6, #2
    9a78:	0a0000fe 	beq	9e78 <block_filter+0x45c>
  int c, needed, rc = 0;
    9a7c:	e3a09000 	mov	r9, #0
}
    9a80:	e1a00009 	mov	r0, r9
    9a84:	e8bd8ff8 	pop	{r3, r4, r5, r6, r7, r8, r9, sl, fp, pc}
      if (a->partial)
    9a88:	e595300c 	ldr	r3, [r5, #12]
    9a8c:	e3530000 	cmp	r3, #0
	a->count = 0;
    9a90:	13a03000 	movne	r3, #0
    9a94:	15853008 	strne	r3, [r5, #8]
      if (a->partial)
    9a98:	1a000004 	bne	9ab0 <block_filter+0x94>
      else if (a->use == IOBUF_INPUT)
    9a9c:	e5953000 	ldr	r3, [r5]
    9aa0:	e3530000 	cmp	r3, #0
	a->count = a->size = 0;
    9aa4:	05853004 	streq	r3, [r5, #4]
	a->count = a->size;	/* force first length bytes */
    9aa8:	15953004 	ldrne	r3, [r5, #4]
    9aac:	e5853008 	str	r3, [r5, #8]
      a->eof = 0;
    9ab0:	e3a03000 	mov	r3, #0
    9ab4:	e585301c 	str	r3, [r5, #28]
  int c, needed, rc = 0;
    9ab8:	e1a09003 	mov	r9, r3
      a->buffer = NULL;
    9abc:	e5853010 	str	r3, [r5, #16]
}
    9ac0:	e1a00009 	mov	r0, r9
      a->buflen = 0;
    9ac4:	e5853014 	str	r3, [r5, #20]
}
    9ac8:	e8bd8ff8 	pop	{r3, r4, r5, r6, r7, r8, r9, sl, fp, pc}
      printf ("IOBUFCTRL_UNDERFLOW %d\n", size);
    9acc:	e59f0748 	ldr	r0, [pc, #1864]	; a21c <block_filter+0x800>
    9ad0:	e1a01004 	mov	r1, r4
    9ad4:	e08f0000 	add	r0, pc, r0
    9ad8:	eb001e49 	bl	11404 <tfp_printf>
      printf (size);	/* need a buffer */
    9adc:	e1a00004 	mov	r0, r4
    9ae0:	eb001e47 	bl	11404 <tfp_printf>
      if (a->eof)		/* don't read any further */
    9ae4:	e595901c 	ldr	r9, [r5, #28]
    9ae8:	e3590000 	cmp	r9, #0
    9aec:	13a06000 	movne	r6, #0
	rc = -1;
    9af0:	13e09000 	mvnne	r9, #0
      if (a->eof)		/* don't read any further */
    9af4:	1a00001f 	bne	9b78 <block_filter+0x15c>
      while (!rc && size)
    9af8:	e3540000 	cmp	r4, #0
    9afc:	0a0001bc 	beq	a1f4 <block_filter+0x7d8>
	  if (!a->size)
    9b00:	e5953004 	ldr	r3, [r5, #4]
    9b04:	e3530000 	cmp	r3, #0
    9b08:	e1a06003 	mov	r6, r3
    9b0c:	11a06009 	movne	r6, r9
    9b10:	0a00001b 	beq	9b84 <block_filter+0x168>
	  while (!rc && size && a->size)
    9b14:	e1a02003 	mov	r2, r3
    9b18:	e3520000 	cmp	r2, #0
	      c = iobuf_read (chain, p, needed);
    9b1c:	e1a0100a 	mov	r1, sl
    9b20:	e1a00007 	mov	r0, r7
	  while (!rc && size && a->size)
    9b24:	0a000016 	beq	9b84 <block_filter+0x168>
	      needed = size < a->size ? size : a->size;
    9b28:	e1520004 	cmp	r2, r4
    9b2c:	31a0b002 	movcc	fp, r2
    9b30:	21a0b004 	movcs	fp, r4
	      c = iobuf_read (chain, p, needed);
    9b34:	e1a0200b 	mov	r2, fp
    9b38:	ebfffee5 	bl	96d4 <iobuf_read>
	      if (c < needed)
    9b3c:	e15b0000 	cmp	fp, r0
		  p += c;
    9b40:	e08aa000 	add	sl, sl, r0
	      if (c < needed)
    9b44:	da000021 	ble	9bd0 <block_filter+0x1b4>
		  printf
    9b48:	e595c004 	ldr	ip, [r5, #4]
		  if (c == -1)
    9b4c:	e3700001 	cmn	r0, #1
		  printf
    9b50:	11a03000 	movne	r3, r0
    9b54:	03a03000 	moveq	r3, #0
    9b58:	e59f06c0 	ldr	r0, [pc, #1728]	; a220 <block_filter+0x804>
    9b5c:	e1a01005 	mov	r1, r5
    9b60:	10844003 	addne	r4, r4, r3
		  rc = GPG_ERR_BAD_DATA;
    9b64:	e3a09059 	mov	r9, #89	; 0x59
		  printf
    9b68:	e08f0000 	add	r0, pc, r0
    9b6c:	e1a02004 	mov	r2, r4
    9b70:	e083300c 	add	r3, r3, ip
    9b74:	eb001e22 	bl	11404 <tfp_printf>
      *ret_len = n;
    9b78:	e5886000 	str	r6, [r8]
}
    9b7c:	e1a00009 	mov	r0, r9
    9b80:	e8bd8ff8 	pop	{r3, r4, r5, r6, r7, r8, r9, sl, fp, pc}
	      if (a->partial == 2)
    9b84:	e595200c 	ldr	r2, [r5, #12]
    9b88:	e3520002 	cmp	r2, #2
    9b8c:	0a00004c 	beq	9cc4 <block_filter+0x2a8>
	      else if (a->partial)
    9b90:	e3520000 	cmp	r2, #0
    9b94:	0affffde 	beq	9b14 <block_filter+0xf8>
      printf("These OpenPGP introduced huffman like encoded length bytes are really a mess :-(\n" );
    9b98:	e59f0684 	ldr	r0, [pc, #1668]	; a224 <block_filter+0x808>
    9b9c:	e08f0000 	add	r0, pc, r0
    9ba0:	eb001e17 	bl	11404 <tfp_printf>
		  if (a->first_c)
    9ba4:	e5953018 	ldr	r3, [r5, #24]
    9ba8:	e3530000 	cmp	r3, #0
    9bac:	0a00000f 	beq	9bf0 <block_filter+0x1d4>
		  if (c < 192)
    9bb0:	e35300bf 	cmp	r3, #191	; 0xbf
		      a->first_c = 0;
    9bb4:	e3a02000 	mov	r2, #0
    9bb8:	e5852018 	str	r2, [r5, #24]
		  if (c < 192)
    9bbc:	ca00001b 	bgt	9c30 <block_filter+0x214>
		      a->size = c;
    9bc0:	e5853004 	str	r3, [r5, #4]
		      a->partial = 2;
    9bc4:	e3a02002 	mov	r2, #2
    9bc8:	e585200c 	str	r2, [r5, #12]
		      if (!a->size)
    9bcc:	eaffffd0 	b	9b14 <block_filter+0xf8>
		  a->size -= c;
    9bd0:	e5953004 	ldr	r3, [r5, #4]
	  while (!rc && size && a->size)
    9bd4:	e0544000 	subs	r4, r4, r0
		  a->size -= c;
    9bd8:	e0432000 	sub	r2, r3, r0
		  n += c;
    9bdc:	e0866000 	add	r6, r6, r0
		  a->size -= c;
    9be0:	e1a03002 	mov	r3, r2
    9be4:	e5852004 	str	r2, [r5, #4]
	  while (!rc && size && a->size)
    9be8:	1affffca 	bne	9b18 <block_filter+0xfc>
    9bec:	eaffffe1 	b	9b78 <block_filter+0x15c>
		  else if ((c = iobuf_get (chain)) == -1)
    9bf0:	e5973010 	ldr	r3, [r7, #16]
    9bf4:	e3530000 	cmp	r3, #0
    9bf8:	1a000037 	bne	9cdc <block_filter+0x2c0>
    9bfc:	e5973018 	ldr	r3, [r7, #24]
    9c00:	e597201c 	ldr	r2, [r7, #28]
    9c04:	e1530002 	cmp	r3, r2
    9c08:	2a000033 	bcs	9cdc <block_filter+0x2c0>
    9c0c:	e5972008 	ldr	r2, [r7, #8]
    9c10:	e5971020 	ldr	r1, [r7, #32]
    9c14:	e2822001 	add	r2, r2, #1
    9c18:	e5872008 	str	r2, [r7, #8]
    9c1c:	e2832001 	add	r2, r3, #1
    9c20:	e5872018 	str	r2, [r7, #24]
    9c24:	e7d13003 	ldrb	r3, [r1, r3]
		  if (c < 192)
    9c28:	e35300bf 	cmp	r3, #191	; 0xbf
    9c2c:	da00001f 	ble	9cb0 <block_filter+0x294>
		  else if (c < 224)
    9c30:	e35300df 	cmp	r3, #223	; 0xdf
    9c34:	ca000032 	bgt	9d04 <block_filter+0x2e8>
		      if ((c = iobuf_get (chain)) == -1)
    9c38:	e5972010 	ldr	r2, [r7, #16]
		      a->size = (c - 192) * 256;
    9c3c:	e24330c0 	sub	r3, r3, #192	; 0xc0
    9c40:	e1a03403 	lsl	r3, r3, #8
		      if ((c = iobuf_get (chain)) == -1)
    9c44:	e3520000 	cmp	r2, #0
		      a->size = (c - 192) * 256;
    9c48:	e5853004 	str	r3, [r5, #4]
		      if ((c = iobuf_get (chain)) == -1)
    9c4c:	1a000010 	bne	9c94 <block_filter+0x278>
    9c50:	e5972018 	ldr	r2, [r7, #24]
    9c54:	e597101c 	ldr	r1, [r7, #28]
    9c58:	e1520001 	cmp	r2, r1
    9c5c:	2a00000c 	bcs	9c94 <block_filter+0x278>
    9c60:	e5971008 	ldr	r1, [r7, #8]
		      a->size += c + 192;
    9c64:	e28330c0 	add	r3, r3, #192	; 0xc0
		      if ((c = iobuf_get (chain)) == -1)
    9c68:	e5970020 	ldr	r0, [r7, #32]
    9c6c:	e2811001 	add	r1, r1, #1
    9c70:	e5871008 	str	r1, [r7, #8]
    9c74:	e2821001 	add	r1, r2, #1
    9c78:	e5871018 	str	r1, [r7, #24]
		      a->size += c + 192;
    9c7c:	e7d02002 	ldrb	r2, [r0, r2]
    9c80:	e0823003 	add	r3, r2, r3
		      a->partial = 2;
    9c84:	e3a02002 	mov	r2, #2
		      a->size += c + 192;
    9c88:	e5853004 	str	r3, [r5, #4]
		      a->partial = 2;
    9c8c:	e585200c 	str	r2, [r5, #12]
		      if (!a->size)
    9c90:	eaffff9f 	b	9b14 <block_filter+0xf8>
		      if ((c = iobuf_get (chain)) == -1)
    9c94:	e1a00007 	mov	r0, r7
    9c98:	ebfffdd4 	bl	93f0 <iobuf_readbyte>
    9c9c:	e3700001 	cmn	r0, #1
		      a->size += c + 192;
    9ca0:	15953004 	ldrne	r3, [r5, #4]
    9ca4:	128330c0 	addne	r3, r3, #192	; 0xc0
    9ca8:	10833000 	addne	r3, r3, r0
		      if ((c = iobuf_get (chain)) == -1)
    9cac:	0a0000e7 	beq	a050 <block_filter+0x634>
		      a->size |= c;
    9cb0:	e5853004 	str	r3, [r5, #4]
                      if (!a->size)
    9cb4:	e3530000 	cmp	r3, #0
                      a->partial = 2;
    9cb8:	e3a02002 	mov	r2, #2
    9cbc:	e585200c 	str	r2, [r5, #12]
                      if (!a->size)
    9cc0:	1affff93 	bne	9b14 <block_filter+0xf8>
                          if (!n)
    9cc4:	e16f9f16 	clz	r9, r6
                          a->eof = 1;
    9cc8:	e3a03001 	mov	r3, #1
    9ccc:	e585301c 	str	r3, [r5, #28]
                          if (!n)
    9cd0:	e1a092a9 	lsr	r9, r9, #5
    9cd4:	e2699000 	rsb	r9, r9, #0
    9cd8:	eaffffa6 	b	9b78 <block_filter+0x15c>
		  else if ((c = iobuf_get (chain)) == -1)
    9cdc:	e1a00007 	mov	r0, r7
    9ce0:	ebfffdc2 	bl	93f0 <iobuf_readbyte>
    9ce4:	e3700001 	cmn	r0, #1
    9ce8:	e1a03000 	mov	r3, r0
    9cec:	1affffcd 	bne	9c28 <block_filter+0x20c>
		      printf ("block_filter: 1st length byte missing\n");
    9cf0:	e59f0530 	ldr	r0, [pc, #1328]	; a228 <block_filter+0x80c>
		      rc = GPG_ERR_BAD_DATA;
    9cf4:	e3a09059 	mov	r9, #89	; 0x59
		      printf ("block_filter: 1st length byte missing\n");
    9cf8:	e08f0000 	add	r0, pc, r0
    9cfc:	eb001dc0 	bl	11404 <tfp_printf>
		      break;
    9d00:	eaffff9c 	b	9b78 <block_filter+0x15c>
		  else if (c == 255)
    9d04:	e35300ff 	cmp	r3, #255	; 0xff
    9d08:	0a000063 	beq	9e9c <block_filter+0x480>
		      a->size = 1 << (c & 0x1f);
    9d0c:	e203301f 	and	r3, r3, #31
    9d10:	e3a02001 	mov	r2, #1
    9d14:	e1a03312 	lsl	r3, r2, r3
    9d18:	e5853004 	str	r3, [r5, #4]
    9d1c:	eaffff7c 	b	9b14 <block_filter+0xf8>
            printf ("IOBUFCTRL_FLUSH %d\n", a->partial);
    9d20:	e59f0504 	ldr	r0, [pc, #1284]	; a22c <block_filter+0x810>
    9d24:	e595100c 	ldr	r1, [r5, #12]
    9d28:	e08f0000 	add	r0, pc, r0
    9d2c:	eb001db4 	bl	11404 <tfp_printf>
      if (a->partial)
    9d30:	e595300c 	ldr	r3, [r5, #12]
    9d34:	e3530000 	cmp	r3, #0
    9d38:	0affff4f 	beq	9a7c <block_filter+0x60>
	  size_t blen, n, nbytes = size + a->buflen;
    9d3c:	e5950014 	ldr	r0, [r5, #20]
    9d40:	e0806004 	add	r6, r0, r4
	  if (nbytes < OP_MIN_PARTIAL_CHUNK)
    9d44:	e3560c02 	cmp	r6, #512	; 0x200
    9d48:	3a000089 	bcc	9f74 <block_filter+0x558>
		  for (blen = OP_MIN_PARTIAL_CHUNK * 2,
    9d4c:	e3560b01 	cmp	r6, #1024	; 0x400
    9d50:	3a0000c3 	bcc	a064 <block_filter+0x648>
    9d54:	e3a03b01 	mov	r3, #1024	; 0x400
		       c = OP_MIN_PARTIAL_CHUNK_2POW + 1; blen <= nbytes;
    9d58:	e3a0200a 	mov	r2, #10
		       blen *= 2, c++)
    9d5c:	e1a03083 	lsl	r3, r3, #1
    9d60:	e1a00002 	mov	r0, r2
		  for (blen = OP_MIN_PARTIAL_CHUNK * 2,
    9d64:	e1560003 	cmp	r6, r3
		       blen *= 2, c++)
    9d68:	e2822001 	add	r2, r2, #1
		  for (blen = OP_MIN_PARTIAL_CHUNK * 2,
    9d6c:	2afffffa 	bcs	9d5c <block_filter+0x340>
		  printf (c <= 0x1f);	/*;-) */
    9d70:	e350001f 	cmp	r0, #31
		  c |= 0xe0;
    9d74:	e38080e0 	orr	r8, r0, #224	; 0xe0
		  blen /= 2;
    9d78:	e1a040a3 	lsr	r4, r3, #1
		  printf (c <= 0x1f);	/*;-) */
    9d7c:	c3a00000 	movgt	r0, #0
    9d80:	d3a00001 	movle	r0, #1
    9d84:	eb001d9e 	bl	11404 <tfp_printf>
		  iobuf_put (chain, c);
    9d88:	e1a01008 	mov	r1, r8
    9d8c:	e1a00007 	mov	r0, r7
    9d90:	ebfffec0 	bl	9898 <iobuf_writebyte>
		  if ((n = a->buflen))
    9d94:	e5959014 	ldr	r9, [r5, #20]
    9d98:	e3590000 	cmp	r9, #0
    9d9c:	1a000009 	bne	9dc8 <block_filter+0x3ac>
		  if ((n = nbytes) > blen)
    9da0:	e1540006 	cmp	r4, r6
    9da4:	21a04006 	movcs	r4, r6
		  if (n && iobuf_write (chain, p, n))
    9da8:	e1a02004 	mov	r2, r4
    9dac:	e1a0100a 	mov	r1, sl
    9db0:	e1a00007 	mov	r0, r7
    9db4:	ebfffee2 	bl	9944 <iobuf_write>
    9db8:	e3500000 	cmp	r0, #0
    9dbc:	0a000013 	beq	9e10 <block_filter+0x3f4>
		    rc = gpg_error_from_syserror ();
    9dc0:	e3e09000 	mvn	r9, #0
  return rc;
    9dc4:	eaffff2d 	b	9a80 <block_filter+0x64>
		      nbytes -= n;
    9dc8:	e0466009 	sub	r6, r6, r9
		      printf (n == OP_MIN_PARTIAL_CHUNK);
    9dcc:	e2490c02 	sub	r0, r9, #512	; 0x200
    9dd0:	e16f0f10 	clz	r0, r0
    9dd4:	e1a002a0 	lsr	r0, r0, #5
    9dd8:	eb001d89 	bl	11404 <tfp_printf>
		      if (iobuf_write (chain, a->buffer, n))
    9ddc:	e5951010 	ldr	r1, [r5, #16]
    9de0:	e1a02009 	mov	r2, r9
    9de4:	e1a00007 	mov	r0, r7
    9de8:	ebfffed5 	bl	9944 <iobuf_write>
    9dec:	e2509000 	subs	r9, r0, #0
		      a->buflen = 0;
    9df0:	e3a03000 	mov	r3, #0
    9df4:	e5853014 	str	r3, [r5, #20]
		      if (iobuf_write (chain, a->buffer, n))
    9df8:	13a09001 	movne	r9, #1
    9dfc:	e1540006 	cmp	r4, r6
    9e00:	e2699000 	rsb	r9, r9, #0
		  if ((n = nbytes) > blen)
    9e04:	21a04006 	movcs	r4, r6
		  if (n && iobuf_write (chain, p, n))
    9e08:	e3540000 	cmp	r4, #0
    9e0c:	1affffe5 	bne	9da8 <block_filter+0x38c>
	      while (!rc && nbytes >= OP_MIN_PARTIAL_CHUNK);
    9e10:	e16f3f19 	clz	r3, r9
		  nbytes -= n;
    9e14:	e0466004 	sub	r6, r6, r4
	      while (!rc && nbytes >= OP_MIN_PARTIAL_CHUNK);
    9e18:	e1a032a3 	lsr	r3, r3, #5
		  p += n;
    9e1c:	e08aa004 	add	sl, sl, r4
	      while (!rc && nbytes >= OP_MIN_PARTIAL_CHUNK);
    9e20:	e3560c02 	cmp	r6, #512	; 0x200
    9e24:	33a02000 	movcc	r2, #0
    9e28:	22032001 	andcs	r2, r3, #1
    9e2c:	e3520000 	cmp	r2, #0
    9e30:	1affffc5 	bne	9d4c <block_filter+0x330>
	      if (!rc && nbytes)
    9e34:	e3560000 	cmp	r6, #0
    9e38:	03a03000 	moveq	r3, #0
    9e3c:	12033001 	andne	r3, r3, #1
    9e40:	e3530000 	cmp	r3, #0
    9e44:	0affff0d 	beq	9a80 <block_filter+0x64>
      	      printf("store the rest in the buffer" );
    9e48:	e59f03e0 	ldr	r0, [pc, #992]	; a230 <block_filter+0x814>
    9e4c:	e08f0000 	add	r0, pc, r0
    9e50:	eb001d6b 	bl	11404 <tfp_printf>
		  if (!a->buffer)
    9e54:	e5950010 	ldr	r0, [r5, #16]
    9e58:	e3500000 	cmp	r0, #0
    9e5c:	0a0000e0 	beq	a1e4 <block_filter+0x7c8>
		  memcpy (a->buffer, p, nbytes);
    9e60:	e1a02006 	mov	r2, r6
    9e64:	e1a0100a 	mov	r1, sl
		  a->buflen = nbytes;
    9e68:	e3a09000 	mov	r9, #0
		  memcpy (a->buffer, p, nbytes);
    9e6c:	eb001498 	bl	f0d4 <memcpy>
		  a->buflen = nbytes;
    9e70:	e5856014 	str	r6, [r5, #20]
    9e74:	eaffff01 	b	9a80 <block_filter+0x64>
      if (a->use == IOBUF_OUTPUT)
    9e78:	e5953000 	ldr	r3, [r5]
    9e7c:	e3530002 	cmp	r3, #2
    9e80:	0a00007b 	beq	a074 <block_filter+0x658>
      else if (a->size)
    9e84:	e5959004 	ldr	r9, [r5, #4]
    9e88:	e3590000 	cmp	r9, #0
    9e8c:	1a00006a 	bne	a03c <block_filter+0x620>
      xfree (a);		/* we can free our context now */
    9e90:	e1a00005 	mov	r0, r5
    9e94:	eb001454 	bl	efec <xfree>
    9e98:	eafffef8 	b	9a80 <block_filter+0x64>
		      a->size = iobuf_get_noeof (chain) << 24;
    9e9c:	e5973010 	ldr	r3, [r7, #16]
    9ea0:	e3530000 	cmp	r3, #0
    9ea4:	1a000003 	bne	9eb8 <block_filter+0x49c>
    9ea8:	e5973018 	ldr	r3, [r7, #24]
    9eac:	e597201c 	ldr	r2, [r7, #28]
    9eb0:	e1530002 	cmp	r3, r2
    9eb4:	3a000056 	bcc	a014 <block_filter+0x5f8>
    9eb8:	e1a00007 	mov	r0, r7
    9ebc:	ebfffd4b 	bl	93f0 <iobuf_readbyte>
		      a->size |= iobuf_get_noeof (chain) << 16;
    9ec0:	e5972010 	ldr	r2, [r7, #16]
		      a->size = iobuf_get_noeof (chain) << 24;
    9ec4:	e1a03c00 	lsl	r3, r0, #24
    9ec8:	e5853004 	str	r3, [r5, #4]
		      a->size |= iobuf_get_noeof (chain) << 16;
    9ecc:	e3520000 	cmp	r2, #0
    9ed0:	0597201c 	ldreq	r2, [r7, #28]
    9ed4:	1a000002 	bne	9ee4 <block_filter+0x4c8>
    9ed8:	e5971018 	ldr	r1, [r7, #24]
    9edc:	e1510002 	cmp	r1, r2
    9ee0:	3a00002f 	bcc	9fa4 <block_filter+0x588>
    9ee4:	e1a00007 	mov	r0, r7
    9ee8:	ebfffd40 	bl	93f0 <iobuf_readbyte>
		      a->size |= iobuf_get_noeof (chain) << 8;
    9eec:	e5971010 	ldr	r1, [r7, #16]
		      a->size |= iobuf_get_noeof (chain) << 16;
    9ef0:	e5952004 	ldr	r2, [r5, #4]
    9ef4:	e1a03800 	lsl	r3, r0, #16
		      a->size |= iobuf_get_noeof (chain) << 8;
    9ef8:	e3510000 	cmp	r1, #0
		      a->size |= iobuf_get_noeof (chain) << 16;
    9efc:	e20338ff 	and	r3, r3, #16711680	; 0xff0000
    9f00:	e1833002 	orr	r3, r3, r2
    9f04:	e5853004 	str	r3, [r5, #4]
		      a->size |= iobuf_get_noeof (chain) << 8;
    9f08:	0597201c 	ldreq	r2, [r7, #28]
    9f0c:	1a000002 	bne	9f1c <block_filter+0x500>
    9f10:	e5971018 	ldr	r1, [r7, #24]
    9f14:	e1510002 	cmp	r1, r2
    9f18:	3a00002b 	bcc	9fcc <block_filter+0x5b0>
    9f1c:	e1a00007 	mov	r0, r7
    9f20:	ebfffd32 	bl	93f0 <iobuf_readbyte>
		      if ((c = iobuf_get (chain)) == -1)
    9f24:	e5971010 	ldr	r1, [r7, #16]
		      a->size |= iobuf_get_noeof (chain) << 8;
    9f28:	e5952004 	ldr	r2, [r5, #4]
    9f2c:	e1a03400 	lsl	r3, r0, #8
		      if ((c = iobuf_get (chain)) == -1)
    9f30:	e3510000 	cmp	r1, #0
		      a->size |= iobuf_get_noeof (chain) << 8;
    9f34:	e6ff3073 	uxth	r3, r3
    9f38:	e1833002 	orr	r3, r3, r2
    9f3c:	e5853004 	str	r3, [r5, #4]
		      if ((c = iobuf_get (chain)) == -1)
    9f40:	0597201c 	ldreq	r2, [r7, #28]
    9f44:	1a000002 	bne	9f54 <block_filter+0x538>
    9f48:	e5971018 	ldr	r1, [r7, #24]
    9f4c:	e1510002 	cmp	r1, r2
    9f50:	3a000027 	bcc	9ff4 <block_filter+0x5d8>
    9f54:	e1a00007 	mov	r0, r7
    9f58:	ebfffd24 	bl	93f0 <iobuf_readbyte>
    9f5c:	e3700001 	cmn	r0, #1
    9f60:	e1a02000 	mov	r2, r0
		      a->size |= c;
    9f64:	15953004 	ldrne	r3, [r5, #4]
		      if ((c = iobuf_get (chain)) == -1)
    9f68:	0a000098 	beq	a1d0 <block_filter+0x7b4>
		      a->size |= c;
    9f6c:	e1823003 	orr	r3, r2, r3
    9f70:	eaffff4e 	b	9cb0 <block_filter+0x294>
	      if (!a->buffer)
    9f74:	e5953010 	ldr	r3, [r5, #16]
    9f78:	e3530000 	cmp	r3, #0
    9f7c:	0a000058 	beq	a0e4 <block_filter+0x6c8>
	      memcpy (a->buffer + a->buflen, buf, size);
    9f80:	e0830000 	add	r0, r3, r0
    9f84:	e1a02004 	mov	r2, r4
    9f88:	e1a0100a 	mov	r1, sl
  int c, needed, rc = 0;
    9f8c:	e3a09000 	mov	r9, #0
	      memcpy (a->buffer + a->buflen, buf, size);
    9f90:	eb00144f 	bl	f0d4 <memcpy>
	      a->buflen += size;
    9f94:	e5953014 	ldr	r3, [r5, #20]
    9f98:	e0834004 	add	r4, r3, r4
    9f9c:	e5854014 	str	r4, [r5, #20]
    9fa0:	eafffeb6 	b	9a80 <block_filter+0x64>
		      a->size |= iobuf_get_noeof (chain) << 16;
    9fa4:	e5970008 	ldr	r0, [r7, #8]
    9fa8:	e597c020 	ldr	ip, [r7, #32]
    9fac:	e2800001 	add	r0, r0, #1
    9fb0:	e5870008 	str	r0, [r7, #8]
    9fb4:	e2810001 	add	r0, r1, #1
    9fb8:	e5870018 	str	r0, [r7, #24]
    9fbc:	e7dc1001 	ldrb	r1, [ip, r1]
    9fc0:	e1833801 	orr	r3, r3, r1, lsl #16
    9fc4:	e5853004 	str	r3, [r5, #4]
		      a->size |= iobuf_get_noeof (chain) << 8;
    9fc8:	eaffffd0 	b	9f10 <block_filter+0x4f4>
    9fcc:	e5970008 	ldr	r0, [r7, #8]
    9fd0:	e597c020 	ldr	ip, [r7, #32]
    9fd4:	e2800001 	add	r0, r0, #1
    9fd8:	e5870008 	str	r0, [r7, #8]
    9fdc:	e2810001 	add	r0, r1, #1
    9fe0:	e5870018 	str	r0, [r7, #24]
    9fe4:	e7dc1001 	ldrb	r1, [ip, r1]
    9fe8:	e1833401 	orr	r3, r3, r1, lsl #8
    9fec:	e5853004 	str	r3, [r5, #4]
		      if ((c = iobuf_get (chain)) == -1)
    9ff0:	eaffffd4 	b	9f48 <block_filter+0x52c>
    9ff4:	e5972008 	ldr	r2, [r7, #8]
    9ff8:	e5970020 	ldr	r0, [r7, #32]
    9ffc:	e2822001 	add	r2, r2, #1
    a000:	e5872008 	str	r2, [r7, #8]
    a004:	e2812001 	add	r2, r1, #1
    a008:	e5872018 	str	r2, [r7, #24]
    a00c:	e7d02001 	ldrb	r2, [r0, r1]
    a010:	eaffffd5 	b	9f6c <block_filter+0x550>
		      a->size = iobuf_get_noeof (chain) << 24;
    a014:	e5971008 	ldr	r1, [r7, #8]
    a018:	e5970020 	ldr	r0, [r7, #32]
    a01c:	e2811001 	add	r1, r1, #1
    a020:	e5871008 	str	r1, [r7, #8]
    a024:	e2831001 	add	r1, r3, #1
    a028:	e5871018 	str	r1, [r7, #24]
    a02c:	e7d03003 	ldrb	r3, [r0, r3]
    a030:	e1a03c03 	lsl	r3, r3, #24
    a034:	e5853004 	str	r3, [r5, #4]
		      a->size |= iobuf_get_noeof (chain) << 16;
    a038:	eaffffa6 	b	9ed8 <block_filter+0x4bc>
	  printf ("block_filter: pending bytes!\n");
    a03c:	e59f01f0 	ldr	r0, [pc, #496]	; a234 <block_filter+0x818>
  int c, needed, rc = 0;
    a040:	e3a09000 	mov	r9, #0
	  printf ("block_filter: pending bytes!\n");
    a044:	e08f0000 	add	r0, pc, r0
    a048:	eb001ced 	bl	11404 <tfp_printf>
    a04c:	eaffff8f 	b	9e90 <block_filter+0x474>
			  printf
    a050:	e59f01e0 	ldr	r0, [pc, #480]	; a238 <block_filter+0x81c>
			  rc = GPG_ERR_BAD_DATA;
    a054:	e3a09059 	mov	r9, #89	; 0x59
			  printf
    a058:	e08f0000 	add	r0, pc, r0
    a05c:	eb001ce8 	bl	11404 <tfp_printf>
			  break;
    a060:	eafffec4 	b	9b78 <block_filter+0x15c>
		  for (blen = OP_MIN_PARTIAL_CHUNK * 2,
    a064:	e3a00001 	mov	r0, #1
    a068:	e3a04c02 	mov	r4, #512	; 0x200
    a06c:	e3a080e9 	mov	r8, #233	; 0xe9
    a070:	eaffff43 	b	9d84 <block_filter+0x368>
	  if (a->partial)
    a074:	e595900c 	ldr	r9, [r5, #12]
    a078:	e3590000 	cmp	r9, #0
    a07c:	0affff83 	beq	9e90 <block_filter+0x474>
	      len = a->buflen;
    a080:	e5956014 	ldr	r6, [r5, #20]
	      if (len < 192){
    a084:	e35600bf 	cmp	r6, #191	; 0xbf
    a088:	9a000047 	bls	a1ac <block_filter+0x790>
	      else if (len < 8384)
    a08c:	e3560d83 	cmp	r6, #8384	; 0x20c0
    a090:	2a000019 	bcs	a0fc <block_filter+0x6e0>
      printf("2 byte header partial: remaining length=%u\n", len );
    a094:	e59f01a0 	ldr	r0, [pc, #416]	; a23c <block_filter+0x820>
		  if (!(rc = iobuf_put (chain, ((len - 192) / 256) + 192)))
    a098:	e24680c0 	sub	r8, r6, #192	; 0xc0
      printf("2 byte header partial: remaining length=%u\n", len );
    a09c:	e1a01006 	mov	r1, r6
    a0a0:	e08f0000 	add	r0, pc, r0
    a0a4:	eb001cd6 	bl	11404 <tfp_printf>
		  if (!(rc = iobuf_put (chain, ((len - 192) / 256) + 192)))
    a0a8:	e1a01428 	lsr	r1, r8, #8
    a0ac:	e1a00007 	mov	r0, r7
    a0b0:	e28110c0 	add	r1, r1, #192	; 0xc0
    a0b4:	ebfffdf7 	bl	9898 <iobuf_writebyte>
    a0b8:	e2504000 	subs	r4, r0, #0
    a0bc:	0a00004e 	beq	a1fc <block_filter+0x7e0>
	      if (rc)
    a0c0:	e2544000 	subs	r4, r4, #0
	      xfree (a->buffer);
    a0c4:	e5950010 	ldr	r0, [r5, #16]
	      if (rc)
    a0c8:	13a04001 	movne	r4, #1
    a0cc:	e2649000 	rsb	r9, r4, #0
	      xfree (a->buffer);
    a0d0:	eb0013c5 	bl	efec <xfree>
	      a->buffer = NULL;
    a0d4:	e3a03000 	mov	r3, #0
    a0d8:	e5853010 	str	r3, [r5, #16]
	      a->buflen = 0;
    a0dc:	e5853014 	str	r3, [r5, #20]
    a0e0:	eaffff6a 	b	9e90 <block_filter+0x474>
		a->buffer = xmalloc (OP_MIN_PARTIAL_CHUNK);
    a0e4:	e3a00c02 	mov	r0, #512	; 0x200
    a0e8:	eb0013cb 	bl	f01c <xmalloc>
    a0ec:	e1a03000 	mov	r3, r0
    a0f0:	e5853010 	str	r3, [r5, #16]
	      memcpy (a->buffer + a->buflen, buf, size);
    a0f4:	e5950014 	ldr	r0, [r5, #20]
    a0f8:	eaffffa0 	b	9f80 <block_filter+0x564>
      printf("4 byte header partial: remaining length=%u\n", len );
    a0fc:	e59f013c 	ldr	r0, [pc, #316]	; a240 <block_filter+0x824>
    a100:	e1a01006 	mov	r1, r6
    a104:	e08f0000 	add	r0, pc, r0
    a108:	eb001cbd 	bl	11404 <tfp_printf>
		  if (!(rc = iobuf_put (chain, 0xff)))
    a10c:	e3a010ff 	mov	r1, #255	; 0xff
    a110:	e1a00007 	mov	r0, r7
    a114:	ebfffddf 	bl	9898 <iobuf_writebyte>
    a118:	e2504000 	subs	r4, r0, #0
    a11c:	1affffe7 	bne	a0c0 <block_filter+0x6a4>
		    if (!(rc = iobuf_put (chain, (len >> 24) & 0xff)))
    a120:	e1a01c26 	lsr	r1, r6, #24
    a124:	e1a00007 	mov	r0, r7
    a128:	ebfffdda 	bl	9898 <iobuf_writebyte>
    a12c:	e2504000 	subs	r4, r0, #0
    a130:	1affffe2 	bne	a0c0 <block_filter+0x6a4>
		      if (!(rc = iobuf_put (chain, (len >> 16) & 0xff)))
    a134:	e7e71856 	ubfx	r1, r6, #16, #8
    a138:	e1a00007 	mov	r0, r7
    a13c:	ebfffdd5 	bl	9898 <iobuf_writebyte>
    a140:	e2504000 	subs	r4, r0, #0
    a144:	1affffdd 	bne	a0c0 <block_filter+0x6a4>
			if (!(rc = iobuf_put (chain, (len >> 8) & 0xff)))
    a148:	e7e71456 	ubfx	r1, r6, #8, #8
    a14c:	e1a00007 	mov	r0, r7
    a150:	ebfffdd0 	bl	9898 <iobuf_writebyte>
    a154:	e2504000 	subs	r4, r0, #0
    a158:	1affffd8 	bne	a0c0 <block_filter+0x6a4>
			  rc = iobuf_put (chain, len & 0xff);
    a15c:	e6ef1076 	uxtb	r1, r6
    a160:	e1a00007 	mov	r0, r7
    a164:	ebfffdcb 	bl	9898 <iobuf_writebyte>
    a168:	e1a04000 	mov	r4, r0
	      if (!rc && len){
    a16c:	e16f3f14 	clz	r3, r4
    a170:	e3560000 	cmp	r6, #0
    a174:	e1a032a3 	lsr	r3, r3, #5
    a178:	03a03000 	moveq	r3, #0
    a17c:	e3530000 	cmp	r3, #0
    a180:	0affffce 	beq	a0c0 <block_filter+0x6a4>
    printf("1 byte header partial: remaining length=%u\n", len );
    a184:	e59f00b8 	ldr	r0, [pc, #184]	; a244 <block_filter+0x828>
    a188:	e1a01006 	mov	r1, r6
    a18c:	e08f0000 	add	r0, pc, r0
    a190:	eb001c9b 	bl	11404 <tfp_printf>
		rc = iobuf_write (chain, a->buffer, len);
    a194:	e5951010 	ldr	r1, [r5, #16]
    a198:	e1a02006 	mov	r2, r6
    a19c:	e1a00007 	mov	r0, r7
    a1a0:	ebfffde7 	bl	9944 <iobuf_write>
    a1a4:	e1a04000 	mov	r4, r0
    a1a8:	eaffffc4 	b	a0c0 <block_filter+0x6a4>
		      rc = iobuf_put (chain, len);
    a1ac:	e1a01006 	mov	r1, r6
    a1b0:	e1a00007 	mov	r0, r7
    a1b4:	ebfffdb7 	bl	9898 <iobuf_writebyte>
    a1b8:	e1a04000 	mov	r4, r0
          printf("1 byte <192 partial: remaining length=%u\n", len );
    a1bc:	e1a01006 	mov	r1, r6
    a1c0:	e59f0080 	ldr	r0, [pc, #128]	; a248 <block_filter+0x82c>
    a1c4:	e08f0000 	add	r0, pc, r0
    a1c8:	eb001c8d 	bl	11404 <tfp_printf>
    a1cc:	eaffffe6 	b	a16c <block_filter+0x750>
			  printf ("block_filter: invalid 4 byte length\n");
    a1d0:	e59f0074 	ldr	r0, [pc, #116]	; a24c <block_filter+0x830>
			  rc = GPG_ERR_BAD_DATA;
    a1d4:	e3a09059 	mov	r9, #89	; 0x59
			  printf ("block_filter: invalid 4 byte length\n");
    a1d8:	e08f0000 	add	r0, pc, r0
    a1dc:	eb001c88 	bl	11404 <tfp_printf>
			  break;
    a1e0:	eafffe64 	b	9b78 <block_filter+0x15c>
		    a->buffer = xmalloc (OP_MIN_PARTIAL_CHUNK);
    a1e4:	e3a00c02 	mov	r0, #512	; 0x200
    a1e8:	eb00138b 	bl	f01c <xmalloc>
    a1ec:	e5850010 	str	r0, [r5, #16]
    a1f0:	eaffff1a 	b	9e60 <block_filter+0x444>
      while (!rc && size)
    a1f4:	e1a06009 	mov	r6, r9
    a1f8:	eafffe5e 	b	9b78 <block_filter+0x15c>
		    rc = iobuf_put (chain, ((len - 192) % 256));
    a1fc:	e6ef1078 	uxtb	r1, r8
    a200:	e1a00007 	mov	r0, r7
    a204:	ebfffda3 	bl	9898 <iobuf_writebyte>
    a208:	e1a04000 	mov	r4, r0
    a20c:	eaffffd6 	b	a16c <block_filter+0x750>
    a210:	00031f94 	.word	0x00031f94
    a214:	00000004 	.word	0x00000004
    a218:	0000caec 	.word	0x0000caec
    a21c:	0000ca7c 	.word	0x0000ca7c
    a220:	0000cacc 	.word	0x0000cacc
    a224:	0000c9cc 	.word	0x0000c9cc
    a228:	0000c8c4 	.word	0x0000c8c4
    a22c:	0000c940 	.word	0x0000c940
    a230:	0000c830 	.word	0x0000c830
    a234:	0000c708 	.word	0x0000c708
    a238:	0000c58c 	.word	0x0000c58c
    a23c:	0000c628 	.word	0x0000c628
    a240:	0000c5f0 	.word	0x0000c5f0
    a244:	0000c594 	.word	0x0000c594
    a248:	0000c4d8 	.word	0x0000c4d8
    a24c:	0000c434 	.word	0x0000c434

0000a250 <iobuf_writestr>:
{
    a250:	e92d4070 	push	{r4, r5, r6, lr}
  if (a->use == IOBUF_INPUT || a->use == IOBUF_INPUT_TEMP)
    a254:	e5d03000 	ldrb	r3, [r0]
    a258:	e3530001 	cmp	r3, #1
    a25c:	9a000008 	bls	a284 <iobuf_writestr+0x34>
  return iobuf_write (a, buf, strlen (buf));
    a260:	e1a04000 	mov	r4, r0
    a264:	e1a00001 	mov	r0, r1
    a268:	e1a05001 	mov	r5, r1
    a26c:	eb0021e9 	bl	12a18 <strlen>
    a270:	e1a02000 	mov	r2, r0
    a274:	e1a01005 	mov	r1, r5
    a278:	e1a00004 	mov	r0, r4
}
    a27c:	e8bd4070 	pop	{r4, r5, r6, lr}
  return iobuf_write (a, buf, strlen (buf));
    a280:	eafffdaf 	b	9944 <iobuf_write>
      printf ("iobuf_writestr called on an input pipeline!\n");
    a284:	e59f000c 	ldr	r0, [pc, #12]	; a298 <iobuf_writestr+0x48>
    a288:	e08f0000 	add	r0, pc, r0
    a28c:	eb001c5c 	bl	11404 <tfp_printf>
}
    a290:	e3e00000 	mvn	r0, #0
    a294:	e8bd8070 	pop	{r4, r5, r6, pc}
    a298:	0000c4e4 	.word	0x0000c4e4

0000a29c <iobuf_temp_to_buffer>:
{
    a29c:	e92d4ff0 	push	{r4, r5, r6, r7, r8, r9, sl, fp, lr}
    a2a0:	e24dd03c 	sub	sp, sp, #60	; 0x3c
	printf ("Flushing iobuf %d.%d (%s) from iobuf_temp_to_buffer failed.  Ignoring.\n",
    a2a4:	e59fa0d8 	ldr	sl, [pc, #216]	; a384 <iobuf_temp_to_buffer+0xe8>
{
    a2a8:	e1a04000 	mov	r4, r0
    memcpy (buf, "?", 2);
    a2ac:	e59fb0d4 	ldr	fp, [pc, #212]	; a388 <iobuf_temp_to_buffer+0xec>
  size_t len = MAX_IOBUF_DESC;
    a2b0:	e3a09020 	mov	r9, #32
	printf ("Flushing iobuf %d.%d (%s) from iobuf_temp_to_buffer failed.  Ignoring.\n",
    a2b4:	e08fa00a 	add	sl, pc, sl
    memcpy (buf, "?", 2);
    a2b8:	e08fb00b 	add	fp, pc, fp
{
    a2bc:	e58d1008 	str	r1, [sp, #8]
    a2c0:	e58d200c 	str	r2, [sp, #12]
    a2c4:	ea000003 	b	a2d8 <iobuf_temp_to_buffer+0x3c>
      if (! a->chain)
    a2c8:	e594303c 	ldr	r3, [r4, #60]	; 0x3c
    a2cc:	e3530000 	cmp	r3, #0
    a2d0:	0a00001a 	beq	a340 <iobuf_temp_to_buffer+0xa4>
    a2d4:	e1a04003 	mov	r4, r3
      int rc = filter_flush (a);
    a2d8:	e1a00004 	mov	r0, r4
    a2dc:	ebfff7d7 	bl	8240 <filter_flush>
      if (rc)
    a2e0:	e3500000 	cmp	r0, #0
    a2e4:	0afffff7 	beq	a2c8 <iobuf_temp_to_buffer+0x2c>
  if (! a || ! a->filter)
    a2e8:	e594602c 	ldr	r6, [r4, #44]	; 0x2c
    a->filter (a->filter_ov, IOBUFCTRL_DESC, NULL, buf, &len);
    a2ec:	e28d5018 	add	r5, sp, #24
	printf ("Flushing iobuf %d.%d (%s) from iobuf_temp_to_buffer failed.  Ignoring.\n",
    a2f0:	e5947040 	ldr	r7, [r4, #64]	; 0x40
    a->filter (a->filter_ov, IOBUFCTRL_DESC, NULL, buf, &len);
    a2f4:	e28dc014 	add	ip, sp, #20
	printf ("Flushing iobuf %d.%d (%s) from iobuf_temp_to_buffer failed.  Ignoring.\n",
    a2f8:	e5948044 	ldr	r8, [r4, #68]	; 0x44
  if (! a || ! a->filter)
    a2fc:	e3560000 	cmp	r6, #0
  size_t len = MAX_IOBUF_DESC;
    a300:	e58d9014 	str	r9, [sp, #20]
    a->filter (a->filter_ov, IOBUFCTRL_DESC, NULL, buf, &len);
    a304:	e1a03005 	mov	r3, r5
    a308:	e3a02000 	mov	r2, #0
    a30c:	e3a01005 	mov	r1, #5
  if (! a || ! a->filter)
    a310:	0a000016 	beq	a370 <iobuf_temp_to_buffer+0xd4>
    a->filter (a->filter_ov, IOBUFCTRL_DESC, NULL, buf, &len);
    a314:	e5940030 	ldr	r0, [r4, #48]	; 0x30
    a318:	e58dc000 	str	ip, [sp]
    a31c:	e12fff36 	blx	r6
	printf ("Flushing iobuf %d.%d (%s) from iobuf_temp_to_buffer failed.  Ignoring.\n",
    a320:	e1a03005 	mov	r3, r5
    a324:	e1a02008 	mov	r2, r8
    a328:	e1a01007 	mov	r1, r7
    a32c:	e1a0000a 	mov	r0, sl
    a330:	eb001c33 	bl	11404 <tfp_printf>
      if (! a->chain)
    a334:	e594303c 	ldr	r3, [r4, #60]	; 0x3c
    a338:	e3530000 	cmp	r3, #0
    a33c:	1affffe4 	bne	a2d4 <iobuf_temp_to_buffer+0x38>
  n = a->d.len;
    a340:	e594201c 	ldr	r2, [r4, #28]
  if (n > buflen)
    a344:	e59d300c 	ldr	r3, [sp, #12]
  memcpy (buffer, a->d.buf, n);
    a348:	e5941020 	ldr	r1, [r4, #32]
    a34c:	e1520003 	cmp	r2, r3
    a350:	e59d0008 	ldr	r0, [sp, #8]
    a354:	31a04002 	movcc	r4, r2
    a358:	21a04003 	movcs	r4, r3
    a35c:	e1a02004 	mov	r2, r4
    a360:	eb00135b 	bl	f0d4 <memcpy>
}
    a364:	e1a00004 	mov	r0, r4
    a368:	e28dd03c 	add	sp, sp, #60	; 0x3c
    a36c:	e8bd8ff0 	pop	{r4, r5, r6, r7, r8, r9, sl, fp, pc}
    memcpy (buf, "?", 2);
    a370:	e3a02002 	mov	r2, #2
    a374:	e1a0100b 	mov	r1, fp
    a378:	e1a00005 	mov	r0, r5
    a37c:	eb001354 	bl	f0d4 <memcpy>
    a380:	eaffffe6 	b	a320 <iobuf_temp_to_buffer+0x84>
    a384:	0000c4e8 	.word	0x0000c4e8
    a388:	0000bd3c 	.word	0x0000bd3c

0000a38c <iobuf_copy>:
{
    a38c:	e92d47f0 	push	{r4, r5, r6, r7, r8, r9, sl, lr}
    a390:	e1a08000 	mov	r8, r0
  printf("iobuf_copy\n");
    a394:	e59f0094 	ldr	r0, [pc, #148]	; a430 <iobuf_copy+0xa4>
{
    a398:	e1a09001 	mov	r9, r1
  printf("iobuf_copy\n");
    a39c:	e08f0000 	add	r0, pc, r0
    a3a0:	eb001c17 	bl	11404 <tfp_printf>
  if (iobuf_error (dest))
    a3a4:	e5985028 	ldr	r5, [r8, #40]	; 0x28
    a3a8:	e3550000 	cmp	r5, #0
    return (size_t)(-1);
    a3ac:	13e07000 	mvnne	r7, #0
  if (iobuf_error (dest))
    a3b0:	1a000018 	bne	a418 <iobuf_copy+0x8c>
  temp = xmalloc (temp_size);
    a3b4:	e3a00902 	mov	r0, #32768	; 0x8000
  size_t nwrote = 0;
    a3b8:	e1a07005 	mov	r7, r5
  temp = xmalloc (temp_size);
    a3bc:	eb001316 	bl	f01c <xmalloc>
    a3c0:	e1a06000 	mov	r6, r0
    a3c4:	ea000005 	b	a3e0 <iobuf_copy+0x54>
    a3c8:	e1550004 	cmp	r5, r4
    a3cc:	31a05004 	movcc	r5, r4
      err = iobuf_write (dest, temp, nread);
    a3d0:	ebfffd5b 	bl	9944 <iobuf_write>
      if (err)
    a3d4:	e3500000 	cmp	r0, #0
    a3d8:	1a00000a 	bne	a408 <iobuf_copy+0x7c>
      nwrote += nread;
    a3dc:	e0877004 	add	r7, r7, r4
      nread = iobuf_read (source, temp, temp_size);
    a3e0:	e1a01006 	mov	r1, r6
    a3e4:	e3a02902 	mov	r2, #32768	; 0x8000
    a3e8:	e1a00009 	mov	r0, r9
    a3ec:	ebfffcb8 	bl	96d4 <iobuf_read>
    a3f0:	e1a04000 	mov	r4, r0
      err = iobuf_write (dest, temp, nread);
    a3f4:	e1a01006 	mov	r1, r6
      if (nread == -1)
    a3f8:	e3740001 	cmn	r4, #1
      err = iobuf_write (dest, temp, nread);
    a3fc:	e1a00008 	mov	r0, r8
    a400:	e1a02004 	mov	r2, r4
      if (nread == -1)
    a404:	1affffef 	bne	a3c8 <iobuf_copy+0x3c>
  if (max_read)
    a408:	e3550000 	cmp	r5, #0
    a40c:	1a000003 	bne	a420 <iobuf_copy+0x94>
  xfree (temp);
    a410:	e1a00006 	mov	r0, r6
    a414:	eb0012f4 	bl	efec <xfree>
}
    a418:	e1a00007 	mov	r0, r7
    a41c:	e8bd87f0 	pop	{r4, r5, r6, r7, r8, r9, sl, pc}
    wipememory (temp, max_read);
    a420:	e1a01005 	mov	r1, r5
    a424:	e1a00006 	mov	r0, r6
    a428:	eb001366 	bl	f1c8 <wipememory>
    a42c:	eafffff7 	b	a410 <iobuf_copy+0x84>
    a430:	0000c448 	.word	0x0000c448

0000a434 <iobuf_flush_temp>:
{
    a434:	e92d4010 	push	{r4, lr}
    a438:	e1a04000 	mov	r4, r0
  if (temp->use == IOBUF_INPUT || temp->use == IOBUF_INPUT_TEMP)
    a43c:	e5d03000 	ldrb	r3, [r0]
    a440:	e3530001 	cmp	r3, #1
    a444:	9a00000a 	bls	a474 <iobuf_flush_temp+0x40>
  while (temp->chain)
    a448:	e594303c 	ldr	r3, [r4, #60]	; 0x3c
    a44c:	e3530000 	cmp	r3, #0
    a450:	08bd8010 	popeq	{r4, pc}
    iobuf_pop_filter (temp, temp->filter, NULL);
    a454:	e594102c 	ldr	r1, [r4, #44]	; 0x2c
    a458:	e3a02000 	mov	r2, #0
    a45c:	e1a00004 	mov	r0, r4
    a460:	ebfffb25 	bl	90fc <iobuf_pop_filter>
  while (temp->chain)
    a464:	e594303c 	ldr	r3, [r4, #60]	; 0x3c
    a468:	e3530000 	cmp	r3, #0
    a46c:	1afffff8 	bne	a454 <iobuf_flush_temp+0x20>
    a470:	e8bd8010 	pop	{r4, pc}
    printf ("iobuf_flush_temp called on an input pipeline!\n");
    a474:	e59f0008 	ldr	r0, [pc, #8]	; a484 <iobuf_flush_temp+0x50>
    a478:	e08f0000 	add	r0, pc, r0
    a47c:	eb001be0 	bl	11404 <tfp_printf>
    a480:	eafffff0 	b	a448 <iobuf_flush_temp+0x14>
    a484:	0000c378 	.word	0x0000c378

0000a488 <iobuf_write_temp>:
{
    a488:	e92d4070 	push	{r4, r5, r6, lr}
    a48c:	e1a04001 	mov	r4, r1
    a490:	e1a05000 	mov	r5, r0
  iobuf_flush_temp (source);
    a494:	e1a00001 	mov	r0, r1
    a498:	ebffffe5 	bl	a434 <iobuf_flush_temp>
  return iobuf_write (dest, source->d.buf, source->d.len);
    a49c:	e594201c 	ldr	r2, [r4, #28]
    a4a0:	e1a00005 	mov	r0, r5
    a4a4:	e5941020 	ldr	r1, [r4, #32]
}
    a4a8:	e8bd4070 	pop	{r4, r5, r6, lr}
  return iobuf_write (dest, source->d.buf, source->d.len);
    a4ac:	eafffd24 	b	9944 <iobuf_write>

0000a4b0 <iobuf_set_limit>:
  a->ntotal += a->nbytes;
    a4b0:	e590300c 	ldr	r3, [r0, #12]
  a->nbytes = 0;
    a4b4:	e3a0c000 	mov	ip, #0
  if (nlimit)
    a4b8:	e051200c 	subs	r2, r1, ip
  a->nlimit = nlimit;
    a4bc:	e5801004 	str	r1, [r0, #4]
  if (nlimit)
    a4c0:	13a02001 	movne	r2, #1
    a4c4:	e5802010 	str	r2, [r0, #16]
  a->ntotal += a->nbytes;
    a4c8:	e5902008 	ldr	r2, [r0, #8]
  a->nbytes = 0;
    a4cc:	e580c008 	str	ip, [r0, #8]
  a->ntotal += a->nbytes;
    a4d0:	e0833002 	add	r3, r3, r2
    a4d4:	e580300c 	str	r3, [r0, #12]
}
    a4d8:	e12fff1e 	bx	lr

0000a4dc <iobuf_get_filelength>:
{
    a4dc:	e59f104c 	ldr	r1, [pc, #76]	; a530 <iobuf_get_filelength+0x54>
    a4e0:	e08f1001 	add	r1, pc, r1
  for ( ; a->chain; a = a->chain )
    a4e4:	e1a03000 	mov	r3, r0
    a4e8:	e590003c 	ldr	r0, [r0, #60]	; 0x3c
    a4ec:	e3500000 	cmp	r0, #0
    a4f0:	1afffffb 	bne	a4e4 <iobuf_get_filelength+0x8>
  if (a->filter != file_filter)
    a4f4:	e59f2038 	ldr	r2, [pc, #56]	; a534 <iobuf_get_filelength+0x58>
    a4f8:	e593002c 	ldr	r0, [r3, #44]	; 0x2c
    a4fc:	e7913002 	ldr	r3, [r1, r2]
    a500:	e1500003 	cmp	r0, r3
    a504:	0a000002 	beq	a514 <iobuf_get_filelength+0x38>
}
    a508:	e3a00000 	mov	r0, #0
    a50c:	e3a01000 	mov	r1, #0
    a510:	e12fff1e 	bx	lr
    printf("fstat() failed: %s\n");//, strerror(errno) );
    a514:	e59f001c 	ldr	r0, [pc, #28]	; a538 <iobuf_get_filelength+0x5c>
{
    a518:	e92d4010 	push	{r4, lr}
    printf("fstat() failed: %s\n");//, strerror(errno) );
    a51c:	e08f0000 	add	r0, pc, r0
    a520:	eb001bb7 	bl	11404 <tfp_printf>
}
    a524:	e3a00000 	mov	r0, #0
    a528:	e3a01000 	mov	r1, #0
    a52c:	e8bd8010 	pop	{r4, pc}
    a530:	000314dc 	.word	0x000314dc
    a534:	00000044 	.word	0x00000044
    a538:	0000c304 	.word	0x0000c304

0000a53c <iobuf_get_fd>:
{
    a53c:	e92d4030 	push	{r4, r5, lr}
    a540:	e24dd00c 	sub	sp, sp, #12
    a544:	e59f5048 	ldr	r5, [pc, #72]	; a594 <iobuf_get_fd+0x58>
    a548:	e58d0004 	str	r0, [sp, #4]
  printf("iobuf_get_fd\n");
    a54c:	e59f0044 	ldr	r0, [pc, #68]	; a598 <iobuf_get_fd+0x5c>
{
    a550:	e59d4004 	ldr	r4, [sp, #4]
  printf("iobuf_get_fd\n");
    a554:	e08f0000 	add	r0, pc, r0
{
    a558:	e08f5005 	add	r5, pc, r5
  printf("iobuf_get_fd\n");
    a55c:	eb001ba8 	bl	11404 <tfp_printf>
  for (; a->chain; a = a->chain)
    a560:	e1a03004 	mov	r3, r4
    a564:	e594403c 	ldr	r4, [r4, #60]	; 0x3c
    a568:	e3540000 	cmp	r4, #0
    a56c:	1afffffb 	bne	a560 <iobuf_get_fd+0x24>
  if (a->filter != file_filter)
    a570:	e59f2024 	ldr	r2, [pc, #36]	; a59c <iobuf_get_fd+0x60>
    a574:	e593102c 	ldr	r1, [r3, #44]	; 0x2c
    a578:	e7952002 	ldr	r2, [r5, r2]
    a57c:	e1510002 	cmp	r1, r2
    return -1;
    a580:	13e00000 	mvnne	r0, #0
    gnupg_fd_t fp = b->fp;
    a584:	05933030 	ldreq	r3, [r3, #48]	; 0x30
    a588:	05930000 	ldreq	r0, [r3]
}
    a58c:	e28dd00c 	add	sp, sp, #12
    a590:	e8bd8030 	pop	{r4, r5, pc}
    a594:	00031464 	.word	0x00031464
    a598:	0000c2e0 	.word	0x0000c2e0
    a59c:	00000044 	.word	0x00000044

0000a5a0 <iobuf_tell>:
  return a->ntotal + a->nbytes;
    a5a0:	e590200c 	ldr	r2, [r0, #12]
    a5a4:	e5900008 	ldr	r0, [r0, #8]
}
    a5a8:	e0820000 	add	r0, r2, r0
    a5ac:	e12fff1e 	bx	lr

0000a5b0 <iobuf_seek>:
{
    a5b0:	e92d4010 	push	{r4, lr}
    a5b4:	e1a04000 	mov	r4, r0
  if (a->use == IOBUF_OUTPUT || a->use == IOBUF_INPUT)
    a5b8:	e5d03000 	ldrb	r3, [r0]
{
    a5bc:	e59f20bc 	ldr	r2, [pc, #188]	; a680 <iobuf_seek+0xd0>
  if (a->use == IOBUF_OUTPUT || a->use == IOBUF_INPUT)
    a5c0:	e31300fd 	tst	r3, #253	; 0xfd
{
    a5c4:	e08f2002 	add	r2, pc, r2
  if (a->use == IOBUF_OUTPUT || a->use == IOBUF_INPUT)
    a5c8:	0a000018 	beq	a630 <iobuf_seek+0x80>
  if (a->chain)
    a5cc:	e590203c 	ldr	r2, [r0, #60]	; 0x3c
  a->d.start = 0;
    a5d0:	e3a03000 	mov	r3, #0
    a5d4:	e5803018 	str	r3, [r0, #24]
  if (a->chain)
    a5d8:	e1520003 	cmp	r2, r3
  a->nbytes = 0;
    a5dc:	e5803008 	str	r3, [r0, #8]
  a->nlimit = 0;
    a5e0:	e5803004 	str	r3, [r0, #4]
  a->nofast = 0;
    a5e4:	e5803010 	str	r3, [r0, #16]
  a->ntotal = newpos;
    a5e8:	e580100c 	str	r1, [r0, #12]
  a->error = 0;
    a5ec:	e5803028 	str	r3, [r0, #40]	; 0x28
  if (a->chain)
    a5f0:	0a00000c 	beq	a628 <iobuf_seek+0x78>
    printf ("iobuf_pop_filter called in iobuf_seek - please report\n");
    a5f4:	e59f0088 	ldr	r0, [pc, #136]	; a684 <iobuf_seek+0xd4>
    a5f8:	e08f0000 	add	r0, pc, r0
    a5fc:	eb001b80 	bl	11404 <tfp_printf>
  while (a->chain)
    a600:	e594303c 	ldr	r3, [r4, #60]	; 0x3c
    a604:	e3530000 	cmp	r3, #0
    a608:	0a000006 	beq	a628 <iobuf_seek+0x78>
    iobuf_pop_filter (a, a->filter, NULL);
    a60c:	e594102c 	ldr	r1, [r4, #44]	; 0x2c
    a610:	e3a02000 	mov	r2, #0
    a614:	e1a00004 	mov	r0, r4
    a618:	ebfffab7 	bl	90fc <iobuf_pop_filter>
  while (a->chain)
    a61c:	e594303c 	ldr	r3, [r4, #60]	; 0x3c
    a620:	e3530000 	cmp	r3, #0
    a624:	1afffff8 	bne	a60c <iobuf_seek+0x5c>
  return 0;
    a628:	e3a00000 	mov	r0, #0
}
    a62c:	e8bd8010 	pop	{r4, pc}
      for (; a->chain; a = a->chain)
    a630:	e1a03004 	mov	r3, r4
    a634:	e594403c 	ldr	r4, [r4, #60]	; 0x3c
    a638:	e3540000 	cmp	r4, #0
    a63c:	1afffffb 	bne	a630 <iobuf_seek+0x80>
      if (a->filter != file_filter)
    a640:	e59f0040 	ldr	r0, [pc, #64]	; a688 <iobuf_seek+0xd8>
    a644:	e7922000 	ldr	r2, [r2, r0]
    a648:	e593002c 	ldr	r0, [r3, #44]	; 0x2c
    a64c:	e1500002 	cmp	r0, r2
    a650:	1a000008 	bne	a678 <iobuf_seek+0xc8>
      a->d.len = 0;
    a654:	e583401c 	str	r4, [r3, #28]
  return 0;
    a658:	e3a00000 	mov	r0, #0
  a->d.start = 0;
    a65c:	e5834018 	str	r4, [r3, #24]
  a->nbytes = 0;
    a660:	e5834008 	str	r4, [r3, #8]
  a->nlimit = 0;
    a664:	e5834004 	str	r4, [r3, #4]
  a->nofast = 0;
    a668:	e5834010 	str	r4, [r3, #16]
  a->ntotal = newpos;
    a66c:	e583100c 	str	r1, [r3, #12]
  a->error = 0;
    a670:	e5834028 	str	r4, [r3, #40]	; 0x28
}
    a674:	e8bd8010 	pop	{r4, pc}
	return -1;
    a678:	e3e00000 	mvn	r0, #0
    a67c:	e8bd8010 	pop	{r4, pc}
    a680:	000313f8 	.word	0x000313f8
    a684:	0000c24c 	.word	0x0000c24c
    a688:	00000044 	.word	0x00000044

0000a68c <iobuf_get_real_fname>:
{
    a68c:	e59f2058 	ldr	r2, [pc, #88]	; a6ec <iobuf_get_real_fname+0x60>
    a690:	e1a03000 	mov	r3, r0
  if (a->real_fname)
    a694:	e5900038 	ldr	r0, [r0, #56]	; 0x38
{
    a698:	e08f2002 	add	r2, pc, r2
  if (a->real_fname)
    a69c:	e3500000 	cmp	r0, #0
    a6a0:	112fff1e 	bxne	lr
  for (; a; a = a->chain)
    a6a4:	e2530000 	subs	r0, r3, #0
    a6a8:	012fff1e 	bxeq	lr
    if (!a->chain && a->filter == file_filter)
    a6ac:	e593303c 	ldr	r3, [r3, #60]	; 0x3c
    a6b0:	e3530000 	cmp	r3, #0
    a6b4:	1afffffa 	bne	a6a4 <iobuf_get_real_fname+0x18>
    a6b8:	e59f1030 	ldr	r1, [pc, #48]	; a6f0 <iobuf_get_real_fname+0x64>
    a6bc:	e590c02c 	ldr	ip, [r0, #44]	; 0x2c
    a6c0:	e7921001 	ldr	r1, [r2, r1]
    a6c4:	e15c0001 	cmp	ip, r1
    a6c8:	1afffff5 	bne	a6a4 <iobuf_get_real_fname+0x18>
	file_filter_ctx_t *b = a->filter_ov;
    a6cc:	e5900030 	ldr	r0, [r0, #48]	; 0x30
	return b->print_only_name ? NULL : b->fname;
    a6d0:	e5902010 	ldr	r2, [r0, #16]
    a6d4:	e3520000 	cmp	r2, #0
    a6d8:	1a000001 	bne	a6e4 <iobuf_get_real_fname+0x58>
    a6dc:	e2800036 	add	r0, r0, #54	; 0x36
    a6e0:	e12fff1e 	bx	lr
    a6e4:	e1a00003 	mov	r0, r3
}
    a6e8:	e12fff1e 	bx	lr
    a6ec:	00031324 	.word	0x00031324
    a6f0:	00000044 	.word	0x00000044

0000a6f4 <iobuf_cancel>:
{
    a6f4:	e92d40f0 	push	{r4, r5, r6, r7, lr}
  if (a && a->use == IOBUF_OUTPUT)
    a6f8:	e2506000 	subs	r6, r0, #0
{
    a6fc:	e24dd014 	sub	sp, sp, #20
  if (a && a->use == IOBUF_OUTPUT)
    a700:	0a000010 	beq	a748 <iobuf_cancel+0x54>
    a704:	e5d63000 	ldrb	r3, [r6]
    a708:	e3530002 	cmp	r3, #2
    a70c:	0a000011 	beq	a758 <iobuf_cancel+0x64>
{
    a710:	e1a04006 	mov	r4, r6
	a2->filter (a2->filter_ov, IOBUFCTRL_CANCEL, a2->chain, NULL, &dummy);
    a714:	e28d700c 	add	r7, sp, #12
      if (a2->filter)
    a718:	e594502c 	ldr	r5, [r4, #44]	; 0x2c
	a2->filter (a2->filter_ov, IOBUFCTRL_CANCEL, a2->chain, NULL, &dummy);
    a71c:	e3a03000 	mov	r3, #0
    a720:	e3a01006 	mov	r1, #6
      if (a2->filter)
    a724:	e1550003 	cmp	r5, r3
    a728:	0a000003 	beq	a73c <iobuf_cancel+0x48>
	a2->filter (a2->filter_ov, IOBUFCTRL_CANCEL, a2->chain, NULL, &dummy);
    a72c:	e594203c 	ldr	r2, [r4, #60]	; 0x3c
    a730:	e5940030 	ldr	r0, [r4, #48]	; 0x30
    a734:	e58d7000 	str	r7, [sp]
    a738:	e12fff35 	blx	r5
  for (a2 = a; a2; a2 = a2->chain)
    a73c:	e594403c 	ldr	r4, [r4, #60]	; 0x3c
    a740:	e3540000 	cmp	r4, #0
    a744:	1afffff3 	bne	a718 <iobuf_cancel+0x24>
  rc = iobuf_close (a);
    a748:	e1a00006 	mov	r0, r6
}
    a74c:	e28dd014 	add	sp, sp, #20
    a750:	e8bd40f0 	pop	{r4, r5, r6, r7, lr}
  rc = iobuf_close (a);
    a754:	eafff807 	b	8778 <iobuf_close>
      s = iobuf_get_real_fname (a);
    a758:	ebffffcb 	bl	a68c <iobuf_get_real_fname>
      if (s && *s)
    a75c:	eaffffeb 	b	a710 <iobuf_cancel+0x1c>

0000a760 <iobuf_get_fname>:
{
    a760:	e59f103c 	ldr	r1, [pc, #60]	; a7a4 <iobuf_get_fname+0x44>
    a764:	e08f1001 	add	r1, pc, r1
  for (; a; a = a->chain)
    a768:	ea000000 	b	a770 <iobuf_get_fname+0x10>
    a76c:	e1a00003 	mov	r0, r3
    a770:	e3500000 	cmp	r0, #0
    a774:	012fff1e 	bxeq	lr
    if (!a->chain && a->filter == file_filter)
    a778:	e590303c 	ldr	r3, [r0, #60]	; 0x3c
    a77c:	e3530000 	cmp	r3, #0
    a780:	1afffff9 	bne	a76c <iobuf_get_fname+0xc>
    a784:	e59f201c 	ldr	r2, [pc, #28]	; a7a8 <iobuf_get_fname+0x48>
    a788:	e590c02c 	ldr	ip, [r0, #44]	; 0x2c
    a78c:	e7912002 	ldr	r2, [r1, r2]
    a790:	e15c0002 	cmp	ip, r2
	return b->fname;
    a794:	05900030 	ldreq	r0, [r0, #48]	; 0x30
    a798:	02800036 	addeq	r0, r0, #54	; 0x36
  for (; a; a = a->chain)
    a79c:	11a00003 	movne	r0, r3
    a7a0:	e12fff1e 	bx	lr
    a7a4:	00031258 	.word	0x00031258
    a7a8:	00000044 	.word	0x00000044

0000a7ac <iobuf_get_fname_nonnull>:
{
    a7ac:	e92d4010 	push	{r4, lr}
  fname = iobuf_get_fname (a);
    a7b0:	ebffffea 	bl	a760 <iobuf_get_fname>
  return fname? fname : "[?]";
    a7b4:	e3500000 	cmp	r0, #0
    a7b8:	18bd8010 	popne	{r4, pc}
    a7bc:	e59f0004 	ldr	r0, [pc, #4]	; a7c8 <iobuf_get_fname_nonnull+0x1c>
    a7c0:	e08f0000 	add	r0, pc, r0
}
    a7c4:	e8bd8010 	pop	{r4, pc}
    a7c8:	0000c0bc 	.word	0x0000c0bc

0000a7cc <iobuf_set_partial_body_length_mode>:
{
    a7cc:	e92d4070 	push	{r4, r5, r6, lr}
    a7d0:	e1a04000 	mov	r4, r0
  printf ("iobuf_set_partial_body_length_mode %d\n", len);
    a7d4:	e59f00b8 	ldr	r0, [pc, #184]	; a894 <iobuf_set_partial_body_length_mode+0xc8>
{
    a7d8:	e1a05001 	mov	r5, r1
  printf ("iobuf_set_partial_body_length_mode %d\n", len);
    a7dc:	e08f0000 	add	r0, pc, r0
    a7e0:	eb001b07 	bl	11404 <tfp_printf>
  if (!len)
    a7e4:	e3550000 	cmp	r5, #0
    a7e8:	1a000015 	bne	a844 <iobuf_set_partial_body_length_mode+0x78>
      if (a->use == IOBUF_INPUT)
    a7ec:	e5d43000 	ldrb	r3, [r4]
    a7f0:	e3530000 	cmp	r3, #0
    a7f4:	0a00000e 	beq	a834 <iobuf_set_partial_body_length_mode+0x68>
      printf ("iobuf_pop_filter called in set_partial_block_mode");
    a7f8:	e59f0098 	ldr	r0, [pc, #152]	; a898 <iobuf_set_partial_body_length_mode+0xcc>
      printf (a->filter == block_filter);
    a7fc:	e59f5098 	ldr	r5, [pc, #152]	; a89c <iobuf_set_partial_body_length_mode+0xd0>
      printf ("iobuf_pop_filter called in set_partial_block_mode");
    a800:	e08f0000 	add	r0, pc, r0
      printf (a->filter == block_filter);
    a804:	e08f5005 	add	r5, pc, r5
      printf ("iobuf_pop_filter called in set_partial_block_mode");
    a808:	eb001afd 	bl	11404 <tfp_printf>
      printf (a->filter == block_filter);
    a80c:	e594002c 	ldr	r0, [r4, #44]	; 0x2c
    a810:	e0400005 	sub	r0, r0, r5
    a814:	e16f0f10 	clz	r0, r0
    a818:	e1a002a0 	lsr	r0, r0, #5
    a81c:	eb001af8 	bl	11404 <tfp_printf>
      iobuf_pop_filter (a, block_filter, NULL);
    a820:	e1a01005 	mov	r1, r5
    a824:	e1a00004 	mov	r0, r4
    a828:	e3a02000 	mov	r2, #0
}
    a82c:	e8bd4070 	pop	{r4, r5, r6, lr}
      iobuf_pop_filter (a, block_filter, NULL);
    a830:	eafffa31 	b	90fc <iobuf_pop_filter>
	printf ("iobuf_pop_filter called in set_partial_block_mode"
    a834:	e59f0064 	ldr	r0, [pc, #100]	; a8a0 <iobuf_set_partial_body_length_mode+0xd4>
    a838:	e08f0000 	add	r0, pc, r0
    a83c:	eb001af0 	bl	11404 <tfp_printf>
    a840:	eaffffec 	b	a7f8 <iobuf_set_partial_body_length_mode+0x2c>
      block_filter_ctx_t *ctx = xcalloc (1, sizeof *ctx);
    a844:	e3a01020 	mov	r1, #32
    a848:	e3a00001 	mov	r0, #1
    a84c:	eb00120f 	bl	f090 <xcalloc>
      ctx->use = a->use;
    a850:	e5d41000 	ldrb	r1, [r4]
      ctx->partial = 1;
    a854:	e3a03001 	mov	r3, #1
    a858:	e580300c 	str	r3, [r0, #12]
      ctx->size = 0;
    a85c:	e3a03000 	mov	r3, #0
      ctx->use = a->use;
    a860:	e5801000 	str	r1, [r0]
      block_filter_ctx_t *ctx = xcalloc (1, sizeof *ctx);
    a864:	e1a06000 	mov	r6, r0
      ctx->size = 0;
    a868:	e5803004 	str	r3, [r0, #4]
      printf ("pushing partial block filter %d\n", ctx->use);
    a86c:	e59f0030 	ldr	r0, [pc, #48]	; a8a4 <iobuf_set_partial_body_length_mode+0xd8>
      ctx->first_c = len;
    a870:	e5865018 	str	r5, [r6, #24]
      printf ("pushing partial block filter %d\n", ctx->use);
    a874:	e08f0000 	add	r0, pc, r0
    a878:	eb001ae1 	bl	11404 <tfp_printf>
      iobuf_push_filter (a, block_filter, ctx);
    a87c:	e59f1024 	ldr	r1, [pc, #36]	; a8a8 <iobuf_set_partial_body_length_mode+0xdc>
    a880:	e1a02006 	mov	r2, r6
    a884:	e1a00004 	mov	r0, r4
    a888:	e08f1001 	add	r1, pc, r1
}
    a88c:	e8bd4070 	pop	{r4, r5, r6, lr}
      iobuf_push_filter (a, block_filter, ctx);
    a890:	eafffa17 	b	90f4 <iobuf_push_filter>
    a894:	0000c0a4 	.word	0x0000c0a4
    a898:	0000c0ec 	.word	0x0000c0ec
    a89c:	fffff210 	.word	0xfffff210
    a8a0:	0000c070 	.word	0x0000c070
    a8a4:	0000c0ac 	.word	0x0000c0ac
    a8a8:	fffff18c 	.word	0xfffff18c

0000a8ac <iobuf_read_line>:
{
    a8ac:	e92d4ff0 	push	{r4, r5, r6, r7, r8, r9, sl, fp, lr}
    a8b0:	e24dd00c 	sub	sp, sp, #12
  char *buffer = (char *)*addr_of_buffer;
    a8b4:	e591b000 	ldr	fp, [r1]
{
    a8b8:	e1a07001 	mov	r7, r1
  unsigned length = *length_of_buffer;
    a8bc:	e592a000 	ldr	sl, [r2]
{
    a8c0:	e1a08002 	mov	r8, r2
  unsigned maxlen = *max_length;
    a8c4:	e5936000 	ldr	r6, [r3]
{
    a8c8:	e1a04000 	mov	r4, r0
  if (!buffer || length <= 1)
    a8cc:	e35b0000 	cmp	fp, #0
    a8d0:	135a0001 	cmpne	sl, #1
{
    a8d4:	e58d3004 	str	r3, [sp, #4]
  if (!buffer || length <= 1)
    a8d8:	9a00004c 	bls	aa10 <iobuf_read_line+0x164>
  p = buffer;
    a8dc:	e1a0900b 	mov	r9, fp
  unsigned nbytes = 0;
    a8e0:	e3a05000 	mov	r5, #0
  while ((c = iobuf_get (a)) != -1)
    a8e4:	ea00000f 	b	a928 <iobuf_read_line+0x7c>
    a8e8:	e5941008 	ldr	r1, [r4, #8]
    a8ec:	e5940020 	ldr	r0, [r4, #32]
    a8f0:	e584c018 	str	ip, [r4, #24]
    a8f4:	e2811001 	add	r1, r1, #1
    a8f8:	e5841008 	str	r1, [r4, #8]
    a8fc:	e7d01002 	ldrb	r1, [r0, r2]
    a900:	e1a00001 	mov	r0, r1
      *p++ = c;
    a904:	e1a02009 	mov	r2, r9
      if (c == '\n')
    a908:	e350000a 	cmp	r0, #10
      if (nbytes == length - 1)
    a90c:	e24ac001 	sub	ip, sl, #1
      nbytes++;
    a910:	e2855001 	add	r5, r5, #1
      *p++ = c;
    a914:	e4c21001 	strb	r1, [r2], #1
      if (c == '\n')
    a918:	0a000010 	beq	a960 <iobuf_read_line+0xb4>
      if (nbytes == length - 1)
    a91c:	e15c0005 	cmp	ip, r5
    a920:	0a000013 	beq	a974 <iobuf_read_line+0xc8>
	  length += length < 1024 ? 256 : 1024;
    a924:	e1a09002 	mov	r9, r2
  while ((c = iobuf_get (a)) != -1)
    a928:	e5942010 	ldr	r2, [r4, #16]
    a92c:	e1a00004 	mov	r0, r4
    a930:	e3520000 	cmp	r2, #0
    a934:	1a000004 	bne	a94c <iobuf_read_line+0xa0>
    a938:	e5942018 	ldr	r2, [r4, #24]
    a93c:	e594101c 	ldr	r1, [r4, #28]
    a940:	e282c001 	add	ip, r2, #1
    a944:	e1520001 	cmp	r2, r1
    a948:	3affffe6 	bcc	a8e8 <iobuf_read_line+0x3c>
    a94c:	ebfffaa7 	bl	93f0 <iobuf_readbyte>
    a950:	e3700001 	cmn	r0, #1
      *p++ = c;
    a954:	e6ef1070 	uxtb	r1, r0
  while ((c = iobuf_get (a)) != -1)
    a958:	1affffe9 	bne	a904 <iobuf_read_line+0x58>
    a95c:	e1a02009 	mov	r2, r9
  *p = 0;
    a960:	e3a03000 	mov	r3, #0
}
    a964:	e1a00005 	mov	r0, r5
  *p = 0;
    a968:	e5c23000 	strb	r3, [r2]
}
    a96c:	e28dd00c 	add	sp, sp, #12
    a970:	e8bd8ff0 	pop	{r4, r5, r6, r7, r8, r9, sl, fp, pc}
	  if (length == maxlen)
    a974:	e15a0006 	cmp	sl, r6
	  buffer = xrealloc (buffer, length);
    a978:	e1a0000b 	mov	r0, fp
	  if (length == maxlen)
    a97c:	0a000013 	beq	a9d0 <iobuf_read_line+0x124>
	  length += length < 1024 ? 256 : 1024;
    a980:	e35a0b01 	cmp	sl, #1024	; 0x400
    a984:	33a01c01 	movcc	r1, #256	; 0x100
    a988:	23a01b01 	movcs	r1, #1024	; 0x400
    a98c:	e08aa001 	add	sl, sl, r1
	  if (length > maxlen)
    a990:	e156000a 	cmp	r6, sl
    a994:	31a0a006 	movcc	sl, r6
	  buffer = xrealloc (buffer, length);
    a998:	e1a0100a 	mov	r1, sl
    a99c:	eb0011d5 	bl	f0f8 <xrealloc>
	  *addr_of_buffer = (unsigned char *)buffer;
    a9a0:	e5870000 	str	r0, [r7]
	  buffer = xrealloc (buffer, length);
    a9a4:	e1a0b000 	mov	fp, r0
	  p = buffer + nbytes;
    a9a8:	e0802005 	add	r2, r0, r5
	  *length_of_buffer = length;
    a9ac:	e588a000 	str	sl, [r8]
	  p = buffer + nbytes;
    a9b0:	eaffffdb 	b	a924 <iobuf_read_line+0x78>
    a9b4:	e58d2000 	str	r2, [sp]
	      while (c != '\n' && (c = iobuf_get (a)) != -1)
    a9b8:	ebfffa8c 	bl	93f0 <iobuf_readbyte>
    a9bc:	e59d2000 	ldr	r2, [sp]
    a9c0:	e3700001 	cmn	r0, #1
    a9c4:	0a00001b 	beq	aa38 <iobuf_read_line+0x18c>
    a9c8:	e350000a 	cmp	r0, #10
    a9cc:	0a000019 	beq	aa38 <iobuf_read_line+0x18c>
    a9d0:	e5941010 	ldr	r1, [r4, #16]
    a9d4:	e1a00004 	mov	r0, r4
    a9d8:	e3510000 	cmp	r1, #0
    a9dc:	1afffff4 	bne	a9b4 <iobuf_read_line+0x108>
    a9e0:	e5941018 	ldr	r1, [r4, #24]
    a9e4:	e594c01c 	ldr	ip, [r4, #28]
    a9e8:	e151000c 	cmp	r1, ip
    a9ec:	e281c001 	add	ip, r1, #1
    a9f0:	2affffef 	bcs	a9b4 <iobuf_read_line+0x108>
    a9f4:	e5940008 	ldr	r0, [r4, #8]
    a9f8:	e594e020 	ldr	lr, [r4, #32]
    a9fc:	e584c018 	str	ip, [r4, #24]
    aa00:	e2800001 	add	r0, r0, #1
    aa04:	e5840008 	str	r0, [r4, #8]
    aa08:	e7de0001 	ldrb	r0, [lr, r1]
    aa0c:	eaffffed 	b	a9c8 <iobuf_read_line+0x11c>
      length = 256 <= maxlen ? 256 : maxlen;
    aa10:	e3560c01 	cmp	r6, #256	; 0x100
      buffer = xrealloc (buffer, length);
    aa14:	e1a0000b 	mov	r0, fp
      length = 256 <= maxlen ? 256 : maxlen;
    aa18:	31a0a006 	movcc	sl, r6
    aa1c:	23a0ac01 	movcs	sl, #256	; 0x100
      buffer = xrealloc (buffer, length);
    aa20:	e1a0100a 	mov	r1, sl
    aa24:	eb0011b3 	bl	f0f8 <xrealloc>
      *addr_of_buffer = (unsigned char *)buffer;
    aa28:	e5870000 	str	r0, [r7]
      buffer = xrealloc (buffer, length);
    aa2c:	e1a0b000 	mov	fp, r0
      *length_of_buffer = length;
    aa30:	e588a000 	str	sl, [r8]
    aa34:	eaffffa8 	b	a8dc <iobuf_read_line+0x30>
	      p[-1] = '\n';
    aa38:	e3a0100a 	mov	r1, #10
	      *max_length = 0;
    aa3c:	e3a03000 	mov	r3, #0
	      p[-1] = '\n';
    aa40:	e5c91000 	strb	r1, [r9]
	      *max_length = 0;
    aa44:	e59d1004 	ldr	r1, [sp, #4]
    aa48:	e5813000 	str	r3, [r1]
	      break;
    aa4c:	eaffffc3 	b	a960 <iobuf_read_line+0xb4>

0000aa50 <translate_file_handle>:
}
    aa50:	e12fff1e 	bx	lr

0000aa54 <iobuf_skip_rest>:
  if ( partial )
    aa54:	e3520000 	cmp	r2, #0
{
    aa58:	e92d4070 	push	{r4, r5, r6, lr}
    aa5c:	e1a04000 	mov	r4, r0
  if ( partial )
    aa60:	1a000031 	bne	ab2c <iobuf_skip_rest+0xd8>
      while (remaining > 0)
    aa64:	e3510000 	cmp	r1, #0
    aa68:	e1a05001 	mov	r5, r1
    aa6c:	08bd8070 	popeq	{r4, r5, r6, pc}
          if (a->nofast || a->d.start >= a->d.len)
    aa70:	e5943010 	ldr	r3, [r4, #16]
              if (iobuf_readbyte (a) == -1)
    aa74:	e1a00004 	mov	r0, r4
          if (a->nofast || a->d.start >= a->d.len)
    aa78:	e3530000 	cmp	r3, #0
    aa7c:	0a000014 	beq	aad4 <iobuf_skip_rest+0x80>
              --remaining;
    aa80:	e2455001 	sub	r5, r5, #1
              if (iobuf_readbyte (a) == -1)
    aa84:	ebfffa59 	bl	93f0 <iobuf_readbyte>
    aa88:	e3700001 	cmn	r0, #1
    aa8c:	08bd8070 	popeq	{r4, r5, r6, pc}
      while (remaining > 0)
    aa90:	e3550000 	cmp	r5, #0
    aa94:	1a00000a 	bne	aac4 <iobuf_skip_rest+0x70>
    aa98:	e8bd8070 	pop	{r4, r5, r6, pc}
    aa9c:	e1530005 	cmp	r3, r5
              a->nbytes += count;
    aaa0:	e5941008 	ldr	r1, [r4, #8]
    aaa4:	21a03005 	movcs	r3, r5
              remaining -= count;
    aaa8:	e0455003 	sub	r5, r5, r3
              a->nbytes += count;
    aaac:	e0811003 	add	r1, r1, r3
      while (remaining > 0)
    aab0:	e3550000 	cmp	r5, #0
              a->d.start += count;
    aab4:	e0833002 	add	r3, r3, r2
              a->nbytes += count;
    aab8:	e5841008 	str	r1, [r4, #8]
              a->d.start += count;
    aabc:	e5843018 	str	r3, [r4, #24]
      while (remaining > 0)
    aac0:	08bd8070 	popeq	{r4, r5, r6, pc}
          if (a->nofast || a->d.start >= a->d.len)
    aac4:	e5943010 	ldr	r3, [r4, #16]
              if (iobuf_readbyte (a) == -1)
    aac8:	e1a00004 	mov	r0, r4
          if (a->nofast || a->d.start >= a->d.len)
    aacc:	e3530000 	cmp	r3, #0
    aad0:	1affffea 	bne	aa80 <iobuf_skip_rest+0x2c>
    aad4:	e5942018 	ldr	r2, [r4, #24]
    aad8:	e594101c 	ldr	r1, [r4, #28]
    aadc:	e1520001 	cmp	r2, r1
              unsigned long count = a->d.len - a->d.start;
    aae0:	e0413002 	sub	r3, r1, r2
          if (a->nofast || a->d.start >= a->d.len)
    aae4:	3affffec 	bcc	aa9c <iobuf_skip_rest+0x48>
    aae8:	eaffffe4 	b	aa80 <iobuf_skip_rest+0x2c>
    aaec:	e594101c 	ldr	r1, [r4, #28]
          if (a->nofast || a->d.start >= a->d.len)
    aaf0:	e5942018 	ldr	r2, [r4, #24]
    aaf4:	e1520001 	cmp	r2, r1
    aaf8:	2a000007 	bcs	ab1c <iobuf_skip_rest+0xc8>
              a->nbytes += count;
    aafc:	e5943008 	ldr	r3, [r4, #8]
              a->d.start = a->d.len;
    ab00:	e5841018 	str	r1, [r4, #24]
              a->nbytes += count;
    ab04:	e0433002 	sub	r3, r3, r2
          if (a->nofast || a->d.start >= a->d.len)
    ab08:	e5942018 	ldr	r2, [r4, #24]
              a->nbytes += count;
    ab0c:	e0833001 	add	r3, r3, r1
          if (a->nofast || a->d.start >= a->d.len)
    ab10:	e1520001 	cmp	r2, r1
              a->nbytes += count;
    ab14:	e5843008 	str	r3, [r4, #8]
          if (a->nofast || a->d.start >= a->d.len)
    ab18:	3afffff7 	bcc	aafc <iobuf_skip_rest+0xa8>
              if (iobuf_readbyte (a) == -1)
    ab1c:	e1a00004 	mov	r0, r4
    ab20:	ebfffa32 	bl	93f0 <iobuf_readbyte>
    ab24:	e3700001 	cmn	r0, #1
    ab28:	08bd8070 	popeq	{r4, r5, r6, pc}
          if (a->nofast || a->d.start >= a->d.len)
    ab2c:	e5943010 	ldr	r3, [r4, #16]
    ab30:	e3530000 	cmp	r3, #0
    ab34:	1afffff8 	bne	ab1c <iobuf_skip_rest+0xc8>
    ab38:	eaffffeb 	b	aaec <iobuf_skip_rest+0x98>

0000ab3c <get_status_string>:

/* Return the status string for code NO. */
const char *
get_status_string ( int no )
{
  int idx = statusstr_msgidxof (no);
    ab3c:	e3500065 	cmp	r0, #101	; 0x65
    ab40:	8a000005 	bhi	ab5c <get_status_string+0x20>
  if (idx == -1)
    return "?";
  else
    return statusstr_msgstr + statusstr_msgidx[idx];
    ab44:	e59f301c 	ldr	r3, [pc, #28]	; ab68 <get_status_string+0x2c>
    ab48:	e08f3003 	add	r3, pc, r3
    ab4c:	e0830100 	add	r0, r3, r0, lsl #2
    ab50:	e59004ec 	ldr	r0, [r0, #1260]	; 0x4ec
    ab54:	e0830000 	add	r0, r3, r0
    ab58:	e12fff1e 	bx	lr
    return "?";
    ab5c:	e59f0008 	ldr	r0, [pc, #8]	; ab6c <get_status_string+0x30>
    ab60:	e08f0000 	add	r0, pc, r0
}
    ab64:	e12fff1e 	bx	lr
    ab68:	00008cb0 	.word	0x00008cb0
    ab6c:	0000b494 	.word	0x0000b494

0000ab70 <get_inv_recpsgnr_code>:

/* Retrieve the error code from an error value.  */
static GPG_ERR_INLINE gpg_err_code_t
gpg_err_code (gpg_error_t err)
{
  return (gpg_err_code_t) (err & GPG_ERR_CODE_MASK);
    ab70:	e6ff0070 	uxth	r0, r0
const char *
get_inv_recpsgnr_code (gpg_error_t err)
{
  const char *errstr;

  switch (gpg_err_code (err))
    ab74:	e350007d 	cmp	r0, #125	; 0x7d
    ab78:	8a000057 	bhi	acdc <get_inv_recpsgnr_code+0x16c>
    ab7c:	e3500035 	cmp	r0, #53	; 0x35
    ab80:	9a00004e 	bls	acc0 <get_inv_recpsgnr_code+0x150>
    ab84:	e2400036 	sub	r0, r0, #54	; 0x36
    ab88:	e3500047 	cmp	r0, #71	; 0x47
    ab8c:	908ff100 	addls	pc, pc, r0, lsl #2
    ab90:	ea000047 	b	acb4 <get_inv_recpsgnr_code+0x144>
    ab94:	ea000073 	b	ad68 <get_inv_recpsgnr_code+0x1f8>
    ab98:	ea000045 	b	acb4 <get_inv_recpsgnr_code+0x144>
    ab9c:	ea000044 	b	acb4 <get_inv_recpsgnr_code+0x144>
    aba0:	ea00005b 	b	ad14 <get_inv_recpsgnr_code+0x1a4>
    aba4:	ea000042 	b	acb4 <get_inv_recpsgnr_code+0x144>
    aba8:	ea000041 	b	acb4 <get_inv_recpsgnr_code+0x144>
    abac:	ea000040 	b	acb4 <get_inv_recpsgnr_code+0x144>
    abb0:	ea00003f 	b	acb4 <get_inv_recpsgnr_code+0x144>
    abb4:	ea00003e 	b	acb4 <get_inv_recpsgnr_code+0x144>
    abb8:	ea00003d 	b	acb4 <get_inv_recpsgnr_code+0x144>
    abbc:	ea00003c 	b	acb4 <get_inv_recpsgnr_code+0x144>
    abc0:	ea00003b 	b	acb4 <get_inv_recpsgnr_code+0x144>
    abc4:	ea00003a 	b	acb4 <get_inv_recpsgnr_code+0x144>
    abc8:	ea000039 	b	acb4 <get_inv_recpsgnr_code+0x144>
    abcc:	ea000038 	b	acb4 <get_inv_recpsgnr_code+0x144>
    abd0:	ea000037 	b	acb4 <get_inv_recpsgnr_code+0x144>
    abd4:	ea000036 	b	acb4 <get_inv_recpsgnr_code+0x144>
    abd8:	ea000035 	b	acb4 <get_inv_recpsgnr_code+0x144>
    abdc:	ea000034 	b	acb4 <get_inv_recpsgnr_code+0x144>
    abe0:	ea000033 	b	acb4 <get_inv_recpsgnr_code+0x144>
    abe4:	ea000032 	b	acb4 <get_inv_recpsgnr_code+0x144>
    abe8:	ea000031 	b	acb4 <get_inv_recpsgnr_code+0x144>
    abec:	ea000030 	b	acb4 <get_inv_recpsgnr_code+0x144>
    abf0:	ea00002f 	b	acb4 <get_inv_recpsgnr_code+0x144>
    abf4:	ea00002e 	b	acb4 <get_inv_recpsgnr_code+0x144>
    abf8:	ea00002d 	b	acb4 <get_inv_recpsgnr_code+0x144>
    abfc:	ea00002c 	b	acb4 <get_inv_recpsgnr_code+0x144>
    ac00:	ea00002b 	b	acb4 <get_inv_recpsgnr_code+0x144>
    ac04:	ea00002a 	b	acb4 <get_inv_recpsgnr_code+0x144>
    ac08:	ea000029 	b	acb4 <get_inv_recpsgnr_code+0x144>
    ac0c:	ea000028 	b	acb4 <get_inv_recpsgnr_code+0x144>
    ac10:	ea000027 	b	acb4 <get_inv_recpsgnr_code+0x144>
    ac14:	ea000026 	b	acb4 <get_inv_recpsgnr_code+0x144>
    ac18:	ea000025 	b	acb4 <get_inv_recpsgnr_code+0x144>
    ac1c:	ea000024 	b	acb4 <get_inv_recpsgnr_code+0x144>
    ac20:	ea000023 	b	acb4 <get_inv_recpsgnr_code+0x144>
    ac24:	ea000022 	b	acb4 <get_inv_recpsgnr_code+0x144>
    ac28:	ea000021 	b	acb4 <get_inv_recpsgnr_code+0x144>
    ac2c:	ea000020 	b	acb4 <get_inv_recpsgnr_code+0x144>
    ac30:	ea00001f 	b	acb4 <get_inv_recpsgnr_code+0x144>
    ac34:	ea000039 	b	ad20 <get_inv_recpsgnr_code+0x1b0>
    ac38:	ea00003b 	b	ad2c <get_inv_recpsgnr_code+0x1bc>
    ac3c:	ea00003d 	b	ad38 <get_inv_recpsgnr_code+0x1c8>
    ac40:	ea00001b 	b	acb4 <get_inv_recpsgnr_code+0x144>
    ac44:	ea00003e 	b	ad44 <get_inv_recpsgnr_code+0x1d4>
    ac48:	ea000019 	b	acb4 <get_inv_recpsgnr_code+0x144>
    ac4c:	ea000018 	b	acb4 <get_inv_recpsgnr_code+0x144>
    ac50:	ea00003e 	b	ad50 <get_inv_recpsgnr_code+0x1e0>
    ac54:	ea000016 	b	acb4 <get_inv_recpsgnr_code+0x144>
    ac58:	ea000015 	b	acb4 <get_inv_recpsgnr_code+0x144>
    ac5c:	ea000014 	b	acb4 <get_inv_recpsgnr_code+0x144>
    ac60:	ea000013 	b	acb4 <get_inv_recpsgnr_code+0x144>
    ac64:	ea000012 	b	acb4 <get_inv_recpsgnr_code+0x144>
    ac68:	ea000041 	b	ad74 <get_inv_recpsgnr_code+0x204>
    ac6c:	ea000010 	b	acb4 <get_inv_recpsgnr_code+0x144>
    ac70:	ea00000f 	b	acb4 <get_inv_recpsgnr_code+0x144>
    ac74:	ea00000e 	b	acb4 <get_inv_recpsgnr_code+0x144>
    ac78:	ea00000d 	b	acb4 <get_inv_recpsgnr_code+0x144>
    ac7c:	ea00000c 	b	acb4 <get_inv_recpsgnr_code+0x144>
    ac80:	ea00000b 	b	acb4 <get_inv_recpsgnr_code+0x144>
    ac84:	ea00000a 	b	acb4 <get_inv_recpsgnr_code+0x144>
    ac88:	ea000009 	b	acb4 <get_inv_recpsgnr_code+0x144>
    ac8c:	ea00001d 	b	ad08 <get_inv_recpsgnr_code+0x198>
    ac90:	ea000007 	b	acb4 <get_inv_recpsgnr_code+0x144>
    ac94:	ea000006 	b	acb4 <get_inv_recpsgnr_code+0x144>
    ac98:	ea000005 	b	acb4 <get_inv_recpsgnr_code+0x144>
    ac9c:	ea000004 	b	acb4 <get_inv_recpsgnr_code+0x144>
    aca0:	ea000003 	b	acb4 <get_inv_recpsgnr_code+0x144>
    aca4:	ea000002 	b	acb4 <get_inv_recpsgnr_code+0x144>
    aca8:	ea000001 	b	acb4 <get_inv_recpsgnr_code+0x144>
    acac:	ea000000 	b	acb4 <get_inv_recpsgnr_code+0x144>
    acb0:	ea000029 	b	ad5c <get_inv_recpsgnr_code+0x1ec>
    case GPG_ERR_NO_SECKEY:       errstr = "9"; break;

    case GPG_ERR_NOT_TRUSTED:     errstr = "10"; break;
    case GPG_ERR_MISSING_CERT:    errstr = "11"; break;
    case GPG_ERR_MISSING_ISSUER_CERT: errstr = "12"; break;
    default:                      errstr = "0"; break;
    acb4:	e59f00d0 	ldr	r0, [pc, #208]	; ad8c <get_inv_recpsgnr_code+0x21c>
    acb8:	e08f0000 	add	r0, pc, r0
    acbc:	e12fff1e 	bx	lr
  switch (gpg_err_code (err))
    acc0:	e3500009 	cmp	r0, #9
    acc4:	0a000009 	beq	acf0 <get_inv_recpsgnr_code+0x180>
    acc8:	e3500011 	cmp	r0, #17
    accc:	1a00002b 	bne	ad80 <get_inv_recpsgnr_code+0x210>
    case GPG_ERR_NO_SECKEY:       errstr = "9"; break;
    acd0:	e59f00b8 	ldr	r0, [pc, #184]	; ad90 <get_inv_recpsgnr_code+0x220>
    acd4:	e08f0000 	add	r0, pc, r0
    acd8:	e12fff1e 	bx	lr
  switch (gpg_err_code (err))
    acdc:	e35000b9 	cmp	r0, #185	; 0xb9
    ace0:	1a000005 	bne	acfc <get_inv_recpsgnr_code+0x18c>
    case GPG_ERR_MISSING_ISSUER_CERT: errstr = "12"; break;
    ace4:	e59f00a8 	ldr	r0, [pc, #168]	; ad94 <get_inv_recpsgnr_code+0x224>
    ace8:	e08f0000 	add	r0, pc, r0
    acec:	e12fff1e 	bx	lr
    case GPG_ERR_NO_PUBKEY:       errstr = "1"; break;
    acf0:	e59f00a0 	ldr	r0, [pc, #160]	; ad98 <get_inv_recpsgnr_code+0x228>
    acf4:	e08f0000 	add	r0, pc, r0
    acf8:	e12fff1e 	bx	lr
    default:                      errstr = "0"; break;
    acfc:	e59f0098 	ldr	r0, [pc, #152]	; ad9c <get_inv_recpsgnr_code+0x22c>
    ad00:	e08f0000 	add	r0, pc, r0
    }

  return errstr;
}
    ad04:	e12fff1e 	bx	lr
    case GPG_ERR_NO_POLICY_MATCH: errstr = "8"; break;
    ad08:	e59f0090 	ldr	r0, [pc, #144]	; ada0 <get_inv_recpsgnr_code+0x230>
    ad0c:	e08f0000 	add	r0, pc, r0
    ad10:	e12fff1e 	bx	lr
    case GPG_ERR_MISSING_CERT:    errstr = "11"; break;
    ad14:	e59f0088 	ldr	r0, [pc, #136]	; ada4 <get_inv_recpsgnr_code+0x234>
    ad18:	e08f0000 	add	r0, pc, r0
    ad1c:	e12fff1e 	bx	lr
    case GPG_ERR_CERT_REVOKED:    errstr = "4"; break;
    ad20:	e59f0080 	ldr	r0, [pc, #128]	; ada8 <get_inv_recpsgnr_code+0x238>
    ad24:	e08f0000 	add	r0, pc, r0
    ad28:	e12fff1e 	bx	lr
    case GPG_ERR_NO_CRL_KNOWN:    errstr = "6"; break;
    ad2c:	e59f0078 	ldr	r0, [pc, #120]	; adac <get_inv_recpsgnr_code+0x23c>
    ad30:	e08f0000 	add	r0, pc, r0
    ad34:	e12fff1e 	bx	lr
    case GPG_ERR_CRL_TOO_OLD:     errstr = "7"; break;
    ad38:	e59f0070 	ldr	r0, [pc, #112]	; adb0 <get_inv_recpsgnr_code+0x240>
    ad3c:	e08f0000 	add	r0, pc, r0
    ad40:	e12fff1e 	bx	lr
    case GPG_ERR_NOT_TRUSTED:     errstr = "10"; break;
    ad44:	e59f0068 	ldr	r0, [pc, #104]	; adb4 <get_inv_recpsgnr_code+0x244>
    ad48:	e08f0000 	add	r0, pc, r0
    ad4c:	e12fff1e 	bx	lr
    case GPG_ERR_CERT_EXPIRED:    errstr = "5"; break;
    ad50:	e59f0060 	ldr	r0, [pc, #96]	; adb8 <get_inv_recpsgnr_code+0x248>
    ad54:	e08f0000 	add	r0, pc, r0
    ad58:	e12fff1e 	bx	lr
    case GPG_ERR_WRONG_KEY_USAGE: errstr = "3"; break;
    ad5c:	e59f0058 	ldr	r0, [pc, #88]	; adbc <get_inv_recpsgnr_code+0x24c>
    ad60:	e08f0000 	add	r0, pc, r0
    ad64:	e12fff1e 	bx	lr
    case GPG_ERR_NO_SECKEY:       errstr = "9"; break;
    ad68:	e59f0050 	ldr	r0, [pc, #80]	; adc0 <get_inv_recpsgnr_code+0x250>
    ad6c:	e08f0000 	add	r0, pc, r0
    ad70:	e12fff1e 	bx	lr
  switch (gpg_err_code (err))
    ad74:	e59f0048 	ldr	r0, [pc, #72]	; adc4 <get_inv_recpsgnr_code+0x254>
    ad78:	e08f0000 	add	r0, pc, r0
    ad7c:	e12fff1e 	bx	lr
    default:                      errstr = "0"; break;
    ad80:	e59f0040 	ldr	r0, [pc, #64]	; adc8 <get_inv_recpsgnr_code+0x258>
    ad84:	e08f0000 	add	r0, pc, r0
    ad88:	e12fff1e 	bx	lr
    ad8c:	0000bd1c 	.word	0x0000bd1c
    ad90:	0000bd1c 	.word	0x0000bd1c
    ad94:	0000bd18 	.word	0x0000bd18
    ad98:	0000bce4 	.word	0x0000bce4
    ad9c:	0000bcd4 	.word	0x0000bcd4
    ada0:	0000bce0 	.word	0x0000bce0
    ada4:	0000bce0 	.word	0x0000bce0
    ada8:	0000bcbc 	.word	0x0000bcbc
    adac:	0000bcb4 	.word	0x0000bcb4
    adb0:	0000bcac 	.word	0x0000bcac
    adb4:	0000bcac 	.word	0x0000bcac
    adb8:	0000d430 	.word	0x0000d430
    adbc:	0000bc7c 	.word	0x0000bc7c
    adc0:	0000bc84 	.word	0x0000bc84
    adc4:	0000bc84 	.word	0x0000bc84
    adc8:	0000bc50 	.word	0x0000bc50

0000adcc <get_pkttype_name>:
    /* Bits 2 through 5 are the packet type.  */
    return (ctb & ((1 << 6) - 1)) >> 2;
}

const char* get_pkttype_name(pkttype_t pkttype) {
    switch (pkttype) {
    adcc:	e3500009 	cmp	r0, #9
    add0:	0a00000c 	beq	ae08 <get_pkttype_name+0x3c>
    add4:	e350000b 	cmp	r0, #11
    add8:	0a000004 	beq	adf0 <get_pkttype_name+0x24>
    addc:	e3500003 	cmp	r0, #3
    ade0:	0a000005 	beq	adfc <get_pkttype_name+0x30>
        // case PKT_ENCRYPTED_MDC: return "PKT_ENCRYPTED_MDC";
        // case PKT_MDC: return "PKT_MDC";
        // case PKT_ENCRYPTED_AEAD: return "PKT_ENCRYPTED_AEAD";
        // case PKT_COMMENT: return "PKT_COMMENT";
        // case PKT_GPG_CONTROL: return "PKT_GPG_CONTROL";
        default: return "UNKNOWN";
    ade4:	e59f0028 	ldr	r0, [pc, #40]	; ae14 <get_pkttype_name+0x48>
    ade8:	e08f0000 	add	r0, pc, r0
    }
}
    adec:	e12fff1e 	bx	lr
        case PKT_PLAINTEXT: return "PKT_PLAINTEXT";
    adf0:	e59f0020 	ldr	r0, [pc, #32]	; ae18 <get_pkttype_name+0x4c>
    adf4:	e08f0000 	add	r0, pc, r0
    adf8:	e12fff1e 	bx	lr
        case PKT_SYMKEY_ENC: return "PKT_SYMKEY_ENC";
    adfc:	e59f0018 	ldr	r0, [pc, #24]	; ae1c <get_pkttype_name+0x50>
    ae00:	e08f0000 	add	r0, pc, r0
    ae04:	e12fff1e 	bx	lr
    switch (pkttype) {
    ae08:	e59f0010 	ldr	r0, [pc, #16]	; ae20 <get_pkttype_name+0x54>
    ae0c:	e08f0000 	add	r0, pc, r0
    ae10:	e12fff1e 	bx	lr
    ae14:	0000bb5c 	.word	0x0000bb5c
    ae18:	0000bc10 	.word	0x0000bc10
    ae1c:	0000bc24 	.word	0x0000bc24
    ae20:	0000bc08 	.word	0x0000bc08

0000ae24 <calc_packet_length>:


/* Calculate the length of a packet described by PKT.  */
u32
calc_packet_length( PACKET *pkt )
{
    ae24:	e92d4070 	push	{r4, r5, r6, lr}
  u32 n = 0;
  int new_ctb = 0;

  // log_assert (pkt->pkt.generic);
  switch (pkt->pkttype)
    ae28:	e5d03000 	ldrb	r3, [r0]
    ae2c:	e353000b 	cmp	r3, #11
    ae30:	0a000004 	beq	ae48 <calc_packet_length+0x24>
    // case PKT_SIGNATURE:
    // case PKT_ONEPASS_SIG:
    // case PKT_RING_TRUST:
    // case PKT_COMPRESSED:
    default:
      printf ("invalid packet type in calc_packet_length()");
    ae34:	e59f00b0 	ldr	r0, [pc, #176]	; aeec <calc_packet_length+0xc8>
    ae38:	e08f0000 	add	r0, pc, r0
    ae3c:	eb001970 	bl	11404 <tfp_printf>
    ae40:	e3a00002 	mov	r0, #2
    ae44:	e8bd8070 	pop	{r4, r5, r6, pc}
      n = calc_plaintext (pkt->pkt.plaintext);
    ae48:	e5903004 	ldr	r3, [r0, #4]
    ae4c:	e1a05000 	mov	r5, r0
{
  /* Truncate namelen to the maximum 255 characters.  Note this means
     that a function that calls build_packet with an illegal literal
     packet will get it back legalized. */

  if(pt->namelen>255)
    ae50:	e5932014 	ldr	r2, [r3, #20]
    pt->namelen=255;
  u32 res = pt->len? (1 + 1 + pt->namelen + 4 + pt->len) : 0;
    ae54:	e5931000 	ldr	r1, [r3]
  if(pt->namelen>255)
    ae58:	e35200ff 	cmp	r2, #255	; 0xff
    pt->namelen=255;
    ae5c:	c3a020ff 	movgt	r2, #255	; 0xff
    ae60:	c5832014 	strgt	r2, [r3, #20]
  u32 res = pt->len? (1 + 1 + pt->namelen + 4 + pt->len) : 0;
    ae64:	e3510000 	cmp	r1, #0
    ae68:	0a000010 	beq	aeb0 <calc_packet_length+0x8c>
    ae6c:	e5934014 	ldr	r4, [r3, #20]
    ae70:	e2811006 	add	r1, r1, #6
  printf("calc_plaintext write_32 %08x",res);
    ae74:	e59f0074 	ldr	r0, [pc, #116]	; aef0 <calc_packet_length+0xcc>
  u32 res = pt->len? (1 + 1 + pt->namelen + 4 + pt->len) : 0;
    ae78:	e0814004 	add	r4, r1, r4
  printf("calc_plaintext write_32 %08x",res);
    ae7c:	e08f0000 	add	r0, pc, r0
    ae80:	e1a01004 	mov	r1, r4
    ae84:	eb00195e 	bl	11404 <tfp_printf>
      new_ctb = pkt->pkt.plaintext->new_ctb;
    ae88:	e5953004 	ldr	r3, [r5, #4]
 * really mean an empty body.)
 */
static int
calc_header_length( u32 len, int new_ctb )
{
    if( new_ctb ) {
    ae8c:	e5d33008 	ldrb	r3, [r3, #8]
    ae90:	e3530000 	cmp	r3, #0
    ae94:	0a00000c 	beq	aecc <calc_packet_length+0xa8>
	if( len < 192 )
    ae98:	e35400bf 	cmp	r4, #191	; 0xbf
    ae9c:	9a000010 	bls	aee4 <calc_packet_length+0xc0>
	    return 2;
	if( len < 8384 )
    aea0:	e3540d83 	cmp	r4, #8384	; 0x20c0
    aea4:	3a000006 	bcc	aec4 <calc_packet_length+0xa0>
  n += calc_header_length (n, new_ctb);
    aea8:	e2840006 	add	r0, r4, #6
    aeac:	e8bd8070 	pop	{r4, r5, r6, pc}
  printf("calc_plaintext write_32 %08x",res);
    aeb0:	e59f003c 	ldr	r0, [pc, #60]	; aef4 <calc_packet_length+0xd0>
    aeb4:	e08f0000 	add	r0, pc, r0
    aeb8:	eb001951 	bl	11404 <tfp_printf>
    aebc:	e3a00002 	mov	r0, #2
    aec0:	e8bd8070 	pop	{r4, r5, r6, pc}
  n += calc_header_length (n, new_ctb);
    aec4:	e2840003 	add	r0, r4, #3
}
    aec8:	e8bd8070 	pop	{r4, r5, r6, pc}
	    return 3;
	else
	    return 6;
    }
    if( len < 256 )
    aecc:	e35400ff 	cmp	r4, #255	; 0xff
    aed0:	9a000003 	bls	aee4 <calc_packet_length+0xc0>
	return 2;
    if( len < 65536 )
    aed4:	e3540801 	cmp	r4, #65536	; 0x10000
    aed8:	3afffff9 	bcc	aec4 <calc_packet_length+0xa0>
  n += calc_header_length (n, new_ctb);
    aedc:	e2840005 	add	r0, r4, #5
    aee0:	e8bd8070 	pop	{r4, r5, r6, pc}
    aee4:	e2840002 	add	r0, r4, #2
    aee8:	e8bd8070 	pop	{r4, r5, r6, pc}
    aeec:	0000bc1c 	.word	0x0000bc1c
    aef0:	0000bbb8 	.word	0x0000bbb8
    aef4:	0000bb80 	.word	0x0000bb80

0000aef8 <log_hexdump>:
void log_hexdump(const uint8_t *buffer, int length) {
    aef8:	e92d4ff0 	push	{r4, r5, r6, r7, r8, r9, sl, fp, lr}
    aefc:	e1a06000 	mov	r6, r0
    printf("%d bytes:\n", length);
    af00:	e59f013c 	ldr	r0, [pc, #316]	; b044 <log_hexdump+0x14c>
void log_hexdump(const uint8_t *buffer, int length) {
    af04:	e1a07001 	mov	r7, r1
    af08:	e24dd02c 	sub	sp, sp, #44	; 0x2c
    printf("%d bytes:\n", length);
    af0c:	e08f0000 	add	r0, pc, r0
    af10:	eb00193b 	bl	11404 <tfp_printf>
    while (length > 0) {
    af14:	e3570000 	cmp	r7, #0
    af18:	da000041 	ble	b024 <log_hexdump+0x12c>
        printf("%-8d ", written);
    af1c:	e59f3124 	ldr	r3, [pc, #292]	; b048 <log_hexdump+0x150>
    int written = 0;
    af20:	e3a0a000 	mov	sl, #0
            if (i % 2 == 0) printf(" ");
    af24:	e59f9120 	ldr	r9, [pc, #288]	; b04c <log_hexdump+0x154>
            if (i % 8 == 0) printf(" ");
    af28:	e59f8120 	ldr	r8, [pc, #288]	; b050 <log_hexdump+0x158>
                printf("  ");
    af2c:	e59f5120 	ldr	r5, [pc, #288]	; b054 <log_hexdump+0x15c>
        printf("%-8d ", written);
    af30:	e08f3003 	add	r3, pc, r3
    af34:	e58d3004 	str	r3, [sp, #4]
    af38:	e28d3013 	add	r3, sp, #19
            if (i % 2 == 0) printf(" ");
    af3c:	e08f9009 	add	r9, pc, r9
            if (i % 8 == 0) printf(" ");
    af40:	e08f8008 	add	r8, pc, r8
                printf("  ");
    af44:	e08f5005 	add	r5, pc, r5
    af48:	e58d3008 	str	r3, [sp, #8]
    af4c:	e28d3014 	add	r3, sp, #20
    af50:	e58d300c 	str	r3, [sp, #12]
        printf("%-8d ", written);
    af54:	e59d0004 	ldr	r0, [sp, #4]
        int have = (length > 16) ? 16 : length;
    af58:	e3570010 	cmp	r7, #16
        printf("%-8d ", written);
    af5c:	e1a0100a 	mov	r1, sl
        for (int i = 0; i < 16; i++) {
    af60:	e3a0b000 	mov	fp, #0
        int have = (length > 16) ? 16 : length;
    af64:	b1a04007 	movlt	r4, r7
    af68:	a3a04010 	movge	r4, #16
        printf("%-8d ", written);
    af6c:	eb001924 	bl	11404 <tfp_printf>
        for (int i = 0; i < 16; i++) {
    af70:	ea000006 	b	af90 <log_hexdump+0x98>
                printf("%02x", buffer[i]);
    af74:	e59f00dc 	ldr	r0, [pc, #220]	; b058 <log_hexdump+0x160>
    af78:	e7d6100b 	ldrb	r1, [r6, fp]
        for (int i = 0; i < 16; i++) {
    af7c:	e28bb001 	add	fp, fp, #1
                printf("%02x", buffer[i]);
    af80:	e08f0000 	add	r0, pc, r0
    af84:	eb00191e 	bl	11404 <tfp_printf>
        for (int i = 0; i < 16; i++) {
    af88:	e35b0010 	cmp	fp, #16
    af8c:	0a00000a 	beq	afbc <log_hexdump+0xc4>
            if (i % 2 == 0) printf(" ");
    af90:	e31b0001 	tst	fp, #1
    af94:	0a000027 	beq	b038 <log_hexdump+0x140>
            if (i % 8 == 0) printf(" ");
    af98:	e31b0007 	tst	fp, #7
    af9c:	0a000022 	beq	b02c <log_hexdump+0x134>
            if (i < have) {
    afa0:	e154000b 	cmp	r4, fp
                printf("  ");
    afa4:	e1a00005 	mov	r0, r5
            if (i < have) {
    afa8:	cafffff1 	bgt	af74 <log_hexdump+0x7c>
        for (int i = 0; i < 16; i++) {
    afac:	e28bb001 	add	fp, fp, #1
                printf("  ");
    afb0:	eb001913 	bl	11404 <tfp_printf>
        for (int i = 0; i < 16; i++) {
    afb4:	e35b0010 	cmp	fp, #16
    afb8:	1afffff4 	bne	af90 <log_hexdump+0x98>
        printf("  ");
    afbc:	e59f0098 	ldr	r0, [pc, #152]	; b05c <log_hexdump+0x164>
    afc0:	e08f0000 	add	r0, pc, r0
    afc4:	eb00190e 	bl	11404 <tfp_printf>
        for (int i = 0; i < have; i++) {
    afc8:	e59d1008 	ldr	r1, [sp, #8]
    afcc:	e2462001 	sub	r2, r6, #1
    afd0:	e082c004 	add	ip, r2, r4
            text[i] = (buffer[i] >= 32 && buffer[i] <= 126) ? buffer[i] : '.';
    afd4:	e5f23001 	ldrb	r3, [r2, #1]!
    afd8:	e2430020 	sub	r0, r3, #32
    afdc:	e350005e 	cmp	r0, #94	; 0x5e
    afe0:	83a0302e 	movhi	r3, #46	; 0x2e
        for (int i = 0; i < have; i++) {
    afe4:	e152000c 	cmp	r2, ip
            text[i] = (buffer[i] >= 32 && buffer[i] <= 126) ? buffer[i] : '.';
    afe8:	e5e13001 	strb	r3, [r1, #1]!
        for (int i = 0; i < have; i++) {
    afec:	1afffff8 	bne	afd4 <log_hexdump+0xdc>
        printf("%s\n", text);
    aff0:	e59f0068 	ldr	r0, [pc, #104]	; b060 <log_hexdump+0x168>
        text[have] = '\0';
    aff4:	e2843028 	add	r3, r4, #40	; 0x28
    aff8:	e08d3003 	add	r3, sp, r3
    affc:	e3a02000 	mov	r2, #0
        printf("%s\n", text);
    b000:	e08f0000 	add	r0, pc, r0
    b004:	e59d100c 	ldr	r1, [sp, #12]
        length -= have;
    b008:	e0477004 	sub	r7, r7, r4
        text[have] = '\0';
    b00c:	e5432014 	strb	r2, [r3, #-20]	; 0xffffffec
        buffer += have;
    b010:	e0866004 	add	r6, r6, r4
        printf("%s\n", text);
    b014:	eb0018fa 	bl	11404 <tfp_printf>
        written += have;
    b018:	e08aa004 	add	sl, sl, r4
    while (length > 0) {
    b01c:	e3570000 	cmp	r7, #0
    b020:	caffffcb 	bgt	af54 <log_hexdump+0x5c>
}
    b024:	e28dd02c 	add	sp, sp, #44	; 0x2c
    b028:	e8bd8ff0 	pop	{r4, r5, r6, r7, r8, r9, sl, fp, pc}
            if (i % 8 == 0) printf(" ");
    b02c:	e1a00008 	mov	r0, r8
    b030:	eb0018f3 	bl	11404 <tfp_printf>
    b034:	eaffffd9 	b	afa0 <log_hexdump+0xa8>
            if (i % 2 == 0) printf(" ");
    b038:	e1a00009 	mov	r0, r9
    b03c:	eb0018f0 	bl	11404 <tfp_printf>
    b040:	eaffffd4 	b	af98 <log_hexdump+0xa0>
    b044:	0000bb74 	.word	0x0000bb74
    b048:	0000bb5c 	.word	0x0000bb5c
    b04c:	0000c3c0 	.word	0x0000c3c0
    b050:	0000c3bc 	.word	0x0000c3bc
    b054:	0000bb58 	.word	0x0000bb58
    b058:	0000bb14 	.word	0x0000bb14
    b05c:	0000badc 	.word	0x0000badc
    b060:	0000d068 	.word	0x0000d068

0000b064 <write_header2.constprop.0.isra.0>:
{
    return write_header2( out, ctb, len, 0 );
}

static int
write_header2( IOBUF out, int ctb, u32 len, int hdrlen )
    b064:	e92d40f0 	push	{r4, r5, r6, r7, lr}
    b068:	e1a07000 	mov	r7, r0
{

  printf("write_header2  %08X %d %02X %d",len,hdrlen,ctb, out->use);
    b06c:	e59f0260 	ldr	r0, [pc, #608]	; b2d4 <write_header2.constprop.0.isra.0+0x270>
write_header2( IOBUF out, int ctb, u32 len, int hdrlen )
    b070:	e24dd00c 	sub	sp, sp, #12
  printf("write_header2  %08X %d %02X %d",len,hdrlen,ctb, out->use);
    b074:	e5d73000 	ldrb	r3, [r7]
write_header2( IOBUF out, int ctb, u32 len, int hdrlen )
    b078:	e1a05002 	mov	r5, r2
  printf("write_header2  %08X %d %02X %d",len,hdrlen,ctb, out->use);
    b07c:	e08f0000 	add	r0, pc, r0
  int res = (ctb & (1 << 6));
    b080:	e2016040 	and	r6, r1, #64	; 0x40
  printf("write_header2  %08X %d %02X %d",len,hdrlen,ctb, out->use);
    b084:	e58d3000 	str	r3, [sp]
    b088:	e3a02000 	mov	r2, #0
    b08c:	e1a03001 	mov	r3, r1
write_header2( IOBUF out, int ctb, u32 len, int hdrlen )
    b090:	e1a04001 	mov	r4, r1
  printf("write_header2  %08X %d %02X %d",len,hdrlen,ctb, out->use);
    b094:	e1a01005 	mov	r1, r5
    b098:	eb0018d9 	bl	11404 <tfp_printf>
  printf("ctb new format: %d\n", res);
    b09c:	e59f0234 	ldr	r0, [pc, #564]	; b2d8 <write_header2.constprop.0.isra.0+0x274>
    b0a0:	e1a01006 	mov	r1, r6
    b0a4:	e08f0000 	add	r0, pc, r0
    b0a8:	eb0018d5 	bl	11404 <tfp_printf>
  if (ctb_new_format_p (ctb)){
    b0ac:	e3560000 	cmp	r6, #0
    b0b0:	1a00002b 	bne	b164 <write_header2.constprop.0.isra.0+0x100>
        printf ("Can't encode length=%d in a %d byte header!\n",
                 len, hdrlen);
    }
  else
    {
      printf("len=%d\n",len);
    b0b4:	e59f0220 	ldr	r0, [pc, #544]	; b2dc <write_header2.constprop.0.isra.0+0x278>
    b0b8:	e1a01005 	mov	r1, r5
    b0bc:	e08f0000 	add	r0, pc, r0
    b0c0:	eb0018cf 	bl	11404 <tfp_printf>
      if( !len )
    b0c4:	e3550000 	cmp	r5, #0
    b0c8:	1a00000f 	bne	b10c <write_header2.constprop.0.isra.0+0xa8>
        /* 11 => Indeterminate length.  */
	ctb |= 3;
    b0cc:	e3844003 	orr	r4, r4, #3
      else
        /* 10 => 4 byte length.  */
	ctb |= 2;
    }

  if( iobuf_put(out, ctb ) ){
    b0d0:	e1a00007 	mov	r0, r7
    b0d4:	e1a01004 	mov	r1, r4
    b0d8:	ebfff9ee 	bl	9898 <iobuf_writebyte>
    b0dc:	e3500000 	cmp	r0, #0
    b0e0:	1a00006d 	bne	b29c <write_header2.constprop.0.isra.0+0x238>

      }
      if( iobuf_put(out, len ) )
	return -1;
    }
    printf("WRITE HEADER:     ctb=%02x, len=%d\n", ctb, len);
    b0e4:	e59f01f4 	ldr	r0, [pc, #500]	; b2e0 <write_header2.constprop.0.isra.0+0x27c>
    b0e8:	e1a01004 	mov	r1, r4
    b0ec:	e1a02005 	mov	r2, r5
    b0f0:	e08f0000 	add	r0, pc, r0
    b0f4:	eb0018c2 	bl	11404 <tfp_printf>
    log_hexdump(out->d.buf, out->d.len);
    b0f8:	e597101c 	ldr	r1, [r7, #28]
    b0fc:	e5970020 	ldr	r0, [r7, #32]
  return 0;
}
    b100:	e28dd00c 	add	sp, sp, #12
    b104:	e8bd40f0 	pop	{r4, r5, r6, r7, lr}
    log_hexdump(out->d.buf, out->d.len);
    b108:	eaffff7a 	b	aef8 <log_hexdump>
      else if( len < 256 )
    b10c:	e35500ff 	cmp	r5, #255	; 0xff
    b110:	8a000045 	bhi	b22c <write_header2.constprop.0.isra.0+0x1c8>
  if( iobuf_put(out, ctb ) ){
    b114:	e1a01004 	mov	r1, r4
    b118:	e1a00007 	mov	r0, r7
    b11c:	ebfff9dd 	bl	9898 <iobuf_writebyte>
    b120:	e3500000 	cmp	r0, #0
    b124:	1a00005c 	bne	b29c <write_header2.constprop.0.isra.0+0x238>
      if( ctb & 2 )
    b128:	e3140002 	tst	r4, #2
    b12c:	1a000047 	bne	b250 <write_header2.constprop.0.isra.0+0x1ec>
      if( ctb & 3 ){
    b130:	e3140003 	tst	r4, #3
    b134:	0a000004 	beq	b14c <write_header2.constprop.0.isra.0+0xe8>
	if(iobuf_put(out, len >> 8 ))
    b138:	e1a01425 	lsr	r1, r5, #8
    b13c:	e1a00007 	mov	r0, r7
    b140:	ebfff9d4 	bl	9898 <iobuf_writebyte>
    b144:	e3500000 	cmp	r0, #0
    b148:	1a00005f 	bne	b2cc <write_header2.constprop.0.isra.0+0x268>
      if( iobuf_put(out, len ) )
    b14c:	e1a01005 	mov	r1, r5
    b150:	e1a00007 	mov	r0, r7
    b154:	ebfff9cf 	bl	9898 <iobuf_writebyte>
    b158:	e3500000 	cmp	r0, #0
    b15c:	0affffe0 	beq	b0e4 <write_header2.constprop.0.isra.0+0x80>
    b160:	ea000059 	b	b2cc <write_header2.constprop.0.isra.0+0x268>
    printf("writing_new_header\n");
    b164:	e59f0178 	ldr	r0, [pc, #376]	; b2e4 <write_header2.constprop.0.isra.0+0x280>
    b168:	e08f0000 	add	r0, pc, r0
    b16c:	eb0018a4 	bl	11404 <tfp_printf>

   Returns 0 on success.  */
static int
write_new_header( IOBUF out, int ctb, u32 len, int hdrlen )
{
  printf("write_new_header %02X %08X %d\n",ctb,len,hdrlen);
    b170:	e59f0170 	ldr	r0, [pc, #368]	; b2e8 <write_header2.constprop.0.isra.0+0x284>
    b174:	e3a03000 	mov	r3, #0
    b178:	e1a02005 	mov	r2, r5
    b17c:	e1a01004 	mov	r1, r4
    b180:	e08f0000 	add	r0, pc, r0
    b184:	eb00189e 	bl	11404 <tfp_printf>
    if( hdrlen )
	printf("can't cope with hdrlen yet\n");

    if( iobuf_put(out, ctb ) )
    b188:	e1a01004 	mov	r1, r4
    b18c:	e1a00007 	mov	r0, r7
    b190:	ebfff9c0 	bl	9898 <iobuf_writebyte>
    b194:	e3500000 	cmp	r0, #0
    b198:	1a00004b 	bne	b2cc <write_header2.constprop.0.isra.0+0x268>
	return -1;
    if( !len ) {
    b19c:	e3550000 	cmp	r5, #0
    b1a0:	0a000035 	beq	b27c <write_header2.constprop.0.isra.0+0x218>
  printf("enable partial body length mode\n");
	iobuf_set_partial_body_length_mode(out, 512 );
    }
    else {
      printf("len=%d\n",len);
    b1a4:	e59f0140 	ldr	r0, [pc, #320]	; b2ec <write_header2.constprop.0.isra.0+0x288>
    b1a8:	e1a01005 	mov	r1, r5
    b1ac:	e08f0000 	add	r0, pc, r0
    b1b0:	eb001893 	bl	11404 <tfp_printf>
	if( len < 192 ) {
    b1b4:	e35500bf 	cmp	r5, #191	; 0xbf
	    if( iobuf_put(out, len ) )
    b1b8:	91a01005 	movls	r1, r5
	if( len < 192 ) {
    b1bc:	9a000016 	bls	b21c <write_header2.constprop.0.isra.0+0x1b8>
		return -1;
	}
	else if( len < 8384 ) {
    b1c0:	e3550d83 	cmp	r5, #8384	; 0x20c0
    b1c4:	3a000039 	bcc	b2b0 <write_header2.constprop.0.isra.0+0x24c>
		return -1;
	    if( iobuf_put( out, (len % 256) )  )
		return -1;
	}
	else {
	    if( iobuf_put( out, 0xff ) )
    b1c8:	e3a010ff 	mov	r1, #255	; 0xff
    b1cc:	e1a00007 	mov	r0, r7
    b1d0:	ebfff9b0 	bl	9898 <iobuf_writebyte>
    b1d4:	e3500000 	cmp	r0, #0
    b1d8:	1a00003b 	bne	b2cc <write_header2.constprop.0.isra.0+0x268>
		return -1;
	    if( iobuf_put( out, (len >> 24)&0xff ) )
    b1dc:	e1a01c25 	lsr	r1, r5, #24
    b1e0:	e1a00007 	mov	r0, r7
    b1e4:	ebfff9ab 	bl	9898 <iobuf_writebyte>
    b1e8:	e3500000 	cmp	r0, #0
    b1ec:	1a000036 	bne	b2cc <write_header2.constprop.0.isra.0+0x268>
		return -1;
	    if( iobuf_put( out, (len >> 16)&0xff ) )
    b1f0:	e7e71855 	ubfx	r1, r5, #16, #8
    b1f4:	e1a00007 	mov	r0, r7
    b1f8:	ebfff9a6 	bl	9898 <iobuf_writebyte>
    b1fc:	e3500000 	cmp	r0, #0
    b200:	1a000031 	bne	b2cc <write_header2.constprop.0.isra.0+0x268>
		return -1;
	    if( iobuf_put( out, (len >> 8)&0xff )  )
    b204:	e7e71455 	ubfx	r1, r5, #8, #8
    b208:	e1a00007 	mov	r0, r7
    b20c:	ebfff9a1 	bl	9898 <iobuf_writebyte>
    b210:	e3500000 	cmp	r0, #0
    b214:	1a00002c 	bne	b2cc <write_header2.constprop.0.isra.0+0x268>
	    if( iobuf_put( out, (len % 256) )  )
    b218:	e6ef1075 	uxtb	r1, r5
    b21c:	e1a00007 	mov	r0, r7
}
    b220:	e28dd00c 	add	sp, sp, #12
    b224:	e8bd40f0 	pop	{r4, r5, r6, r7, lr}
	    if( iobuf_put( out, (len % 256) )  )
    b228:	eafff99a 	b	9898 <iobuf_writebyte>
      else if( len < 65536 )
    b22c:	e3550801 	cmp	r5, #65536	; 0x10000
	ctb |= 1;
    b230:	33844001 	orrcc	r4, r4, #1
      else if( len < 65536 )
    b234:	3affffb6 	bcc	b114 <write_header2.constprop.0.isra.0+0xb0>
	ctb |= 2;
    b238:	e3844002 	orr	r4, r4, #2
  if( iobuf_put(out, ctb ) ){
    b23c:	e1a00007 	mov	r0, r7
    b240:	e1a01004 	mov	r1, r4
    b244:	ebfff993 	bl	9898 <iobuf_writebyte>
    b248:	e3500000 	cmp	r0, #0
    b24c:	1a000012 	bne	b29c <write_header2.constprop.0.isra.0+0x238>
	  if(iobuf_put(out, len >> 24 ))
    b250:	e1a01c25 	lsr	r1, r5, #24
    b254:	e1a00007 	mov	r0, r7
    b258:	ebfff98e 	bl	9898 <iobuf_writebyte>
    b25c:	e3500000 	cmp	r0, #0
    b260:	1a000019 	bne	b2cc <write_header2.constprop.0.isra.0+0x268>
	  if(iobuf_put(out, len >> 16 ))
    b264:	e1a01825 	lsr	r1, r5, #16
    b268:	e1a00007 	mov	r0, r7
    b26c:	ebfff989 	bl	9898 <iobuf_writebyte>
    b270:	e3500000 	cmp	r0, #0
    b274:	0affffad 	beq	b130 <write_header2.constprop.0.isra.0+0xcc>
    b278:	ea000013 	b	b2cc <write_header2.constprop.0.isra.0+0x268>
  printf("enable partial body length mode\n");
    b27c:	e59f006c 	ldr	r0, [pc, #108]	; b2f0 <write_header2.constprop.0.isra.0+0x28c>
    b280:	e08f0000 	add	r0, pc, r0
    b284:	eb00185e 	bl	11404 <tfp_printf>
	iobuf_set_partial_body_length_mode(out, 512 );
    b288:	e3a01c02 	mov	r1, #512	; 0x200
    b28c:	e1a00007 	mov	r0, r7
}
    b290:	e28dd00c 	add	sp, sp, #12
    b294:	e8bd40f0 	pop	{r4, r5, r6, r7, lr}
	iobuf_set_partial_body_length_mode(out, 512 );
    b298:	eafffd4b 	b	a7cc <iobuf_set_partial_body_length_mode>
    printf("Failing here\n");
    b29c:	e59f0050 	ldr	r0, [pc, #80]	; b2f4 <write_header2.constprop.0.isra.0+0x290>
    b2a0:	e08f0000 	add	r0, pc, r0
}
    b2a4:	e28dd00c 	add	sp, sp, #12
    b2a8:	e8bd40f0 	pop	{r4, r5, r6, r7, lr}
    printf("Failing here\n");
    b2ac:	ea001854 	b	11404 <tfp_printf>
	    len -= 192;
    b2b0:	e24550c0 	sub	r5, r5, #192	; 0xc0
	    if( iobuf_put( out, (len / 256) + 192) )
    b2b4:	e1a00007 	mov	r0, r7
    b2b8:	e1a01425 	lsr	r1, r5, #8
    b2bc:	e28110c0 	add	r1, r1, #192	; 0xc0
    b2c0:	ebfff974 	bl	9898 <iobuf_writebyte>
    b2c4:	e3500000 	cmp	r0, #0
    b2c8:	0affffd2 	beq	b218 <write_header2.constprop.0.isra.0+0x1b4>
}
    b2cc:	e28dd00c 	add	sp, sp, #12
    b2d0:	e8bd80f0 	pop	{r4, r5, r6, r7, pc}
    b2d4:	0000ba24 	.word	0x0000ba24
    b2d8:	0000ba1c 	.word	0x0000ba1c
    b2dc:	0000ba9c 	.word	0x0000ba9c
    b2e0:	0000ba4c 	.word	0x0000ba4c
    b2e4:	0000b96c 	.word	0x0000b96c
    b2e8:	0000b968 	.word	0x0000b968
    b2ec:	0000b9ac 	.word	0x0000b9ac
    b2f0:	0000b888 	.word	0x0000b888
    b2f4:	0000b88c 	.word	0x0000b88c

0000b2f8 <build_packet>:
{
    b2f8:	e92d41f0 	push	{r4, r5, r6, r7, r8, lr}
    b2fc:	e1a05000 	mov	r5, r0
    printf("        BUILD PACKET: %s out->use %d\n",get_pkttype_name(pkt->pkttype), out->use);
    b300:	e5d10000 	ldrb	r0, [r1]
{
    b304:	e1a06001 	mov	r6, r1
    printf("        BUILD PACKET: %s out->use %d\n",get_pkttype_name(pkt->pkttype), out->use);
    b308:	ebfffeaf 	bl	adcc <get_pkttype_name>
    b30c:	e5d52000 	ldrb	r2, [r5]
    b310:	e1a01000 	mov	r1, r0
    b314:	e59f04b8 	ldr	r0, [pc, #1208]	; b7d4 <build_packet+0x4dc>
    b318:	e08f0000 	add	r0, pc, r0
    b31c:	eb001838 	bl	11404 <tfp_printf>
  switch ((pkttype = pkt->pkttype))
    b320:	e5d64000 	ldrb	r4, [r6]
    b324:	e3540009 	cmp	r4, #9
    b328:	0a000002 	beq	b338 <build_packet+0x40>
    b32c:	e354000b 	cmp	r4, #11
    b330:	13a03000 	movne	r3, #0
    b334:	1a000003 	bne	b348 <build_packet+0x50>
      new_ctb = pkt->pkt.encrypted->new_ctb;
    b338:	e5963004 	ldr	r3, [r6, #4]
  if (new_ctb || pkttype > 15) /* new format */
    b33c:	e5d33008 	ldrb	r3, [r3, #8]
    b340:	e2533000 	subs	r3, r3, #0
    b344:	13a03001 	movne	r3, #1
    b348:	e354000f 	cmp	r4, #15
    b34c:	c3833001 	orrgt	r3, r3, #1
  printf("CTB: pkttype %02x %d\n", ctb, pkttype);
    b350:	e1a02004 	mov	r2, r4
    b354:	e59f047c 	ldr	r0, [pc, #1148]	; b7d8 <build_packet+0x4e0>
  if (new_ctb || pkttype > 15) /* new format */
    b358:	e3530000 	cmp	r3, #0
    ctb = (0x80 | ((pkttype & 15)<<2));
    b35c:	01a07104 	lsleq	r7, r4, #2
    ctb = (0xc0 | (pkttype & 0x3f));
    b360:	138470c0 	orrne	r7, r4, #192	; 0xc0
  printf("CTB: pkttype %02x %d\n", ctb, pkttype);
    b364:	e08f0000 	add	r0, pc, r0
    ctb = (0x80 | ((pkttype & 15)<<2));
    b368:	03877080 	orreq	r7, r7, #128	; 0x80
  printf("CTB: pkttype %02x %d\n", ctb, pkttype);
    b36c:	e1a01007 	mov	r1, r7
    b370:	eb001823 	bl	11404 <tfp_printf>
  switch (pkttype)
    b374:	e3540009 	cmp	r4, #9
    b378:	0a000009 	beq	b3a4 <build_packet+0xac>
    b37c:	e354000b 	cmp	r4, #11
    b380:	0a00006f 	beq	b544 <build_packet+0x24c>
    b384:	e3540003 	cmp	r4, #3
    b388:	0a000010 	beq	b3d0 <build_packet+0xd8>
      printf ("invalid packet type in build_packet()\n");
    b38c:	e59f0448 	ldr	r0, [pc, #1096]	; b7dc <build_packet+0x4e4>
  int rc = 0;
    b390:	e3a06000 	mov	r6, #0
      printf ("invalid packet type in build_packet()\n");
    b394:	e08f0000 	add	r0, pc, r0
    b398:	eb001819 	bl	11404 <tfp_printf>
}
    b39c:	e1a00006 	mov	r0, r6
    b3a0:	e8bd81f0 	pop	{r4, r5, r6, r7, r8, pc}
      rc = do_encrypted (out, ctb, pkt->pkt.encrypted);
    b3a4:	e5963004 	ldr	r3, [r6, #4]
    return write_header2( out, ctb, len, 0 );
    b3a8:	e1a00005 	mov	r0, r5
    b3ac:	e1a01007 	mov	r1, r7
      rc = do_encrypted (out, ctb, pkt->pkt.encrypted);
    b3b0:	e3a06000 	mov	r6, #0
    n = ed->len ? (ed->len + ed->extralen) : 0;
    b3b4:	e5932000 	ldr	r2, [r3]
    b3b8:	e3520000 	cmp	r2, #0
    b3bc:	15933004 	ldrne	r3, [r3, #4]
    b3c0:	10822003 	addne	r2, r2, r3
    return write_header2( out, ctb, len, 0 );
    b3c4:	ebffff26 	bl	b064 <write_header2.constprop.0.isra.0>
}
    b3c8:	e1a00006 	mov	r0, r6
    b3cc:	e8bd81f0 	pop	{r4, r5, r6, r7, r8, pc}
 printf("do_symkey_enc out->use %d\n", out->use);
    b3d0:	e59f0408 	ldr	r0, [pc, #1032]	; b7e0 <build_packet+0x4e8>
    b3d4:	e5d51000 	ldrb	r1, [r5]
    b3d8:	e08f0000 	add	r0, pc, r0
      rc = do_symkey_enc (out, ctb, pkt->pkt.symkey_enc);
    b3dc:	e5964004 	ldr	r4, [r6, #4]
 printf("do_symkey_enc out->use %d\n", out->use);
    b3e0:	eb001807 	bl	11404 <tfp_printf>
   printf("PKT_symkey_enc:\n");
    b3e4:	e59f03f8 	ldr	r0, [pc, #1016]	; b7e4 <build_packet+0x4ec>
    log_hexdump(enc->s2k.salt, 8);
    b3e8:	e2846009 	add	r6, r4, #9
   printf("PKT_symkey_enc:\n");
    b3ec:	e08f0000 	add	r0, pc, r0
    b3f0:	eb001803 	bl	11404 <tfp_printf>
    printf("  version: %u\n", enc->version);
    b3f4:	e59f03ec 	ldr	r0, [pc, #1004]	; b7e8 <build_packet+0x4f0>
    b3f8:	e5d41000 	ldrb	r1, [r4]
    b3fc:	e08f0000 	add	r0, pc, r0
    b400:	eb0017ff 	bl	11404 <tfp_printf>
    printf("  cipher_algo: %u\n", enc->cipher_algo);
    b404:	e59f03e0 	ldr	r0, [pc, #992]	; b7ec <build_packet+0x4f4>
    b408:	e5d41001 	ldrb	r1, [r4, #1]
    b40c:	e08f0000 	add	r0, pc, r0
    b410:	eb0017fb 	bl	11404 <tfp_printf>
    printf("  aead_algo: %u\n", enc->aead_algo);
    b414:	e59f03d4 	ldr	r0, [pc, #980]	; b7f0 <build_packet+0x4f8>
    b418:	e5d41002 	ldrb	r1, [r4, #2]
    b41c:	e08f0000 	add	r0, pc, r0
    b420:	eb0017f7 	bl	11404 <tfp_printf>
     printf("  s2k:\n");
    b424:	e59f03c8 	ldr	r0, [pc, #968]	; b7f4 <build_packet+0x4fc>
    b428:	e08f0000 	add	r0, pc, r0
    b42c:	eb0017f4 	bl	11404 <tfp_printf>
    printf("    mode: %d\n", enc->s2k.mode);
    b430:	e59f03c0 	ldr	r0, [pc, #960]	; b7f8 <build_packet+0x500>
    b434:	e5941004 	ldr	r1, [r4, #4]
    b438:	e08f0000 	add	r0, pc, r0
    b43c:	eb0017f0 	bl	11404 <tfp_printf>
    printf("    hash_algo: %u\n", enc->s2k.hash_algo);
    b440:	e59f03b4 	ldr	r0, [pc, #948]	; b7fc <build_packet+0x504>
    b444:	e5d41008 	ldrb	r1, [r4, #8]
    b448:	e08f0000 	add	r0, pc, r0
    b44c:	eb0017ec 	bl	11404 <tfp_printf>
    printf("    salt: ");
    b450:	e59f03a8 	ldr	r0, [pc, #936]	; b800 <build_packet+0x508>
    b454:	e08f0000 	add	r0, pc, r0
    b458:	eb0017e9 	bl	11404 <tfp_printf>
    log_hexdump(enc->s2k.salt, 8);
    b45c:	e3a01008 	mov	r1, #8
    b460:	e1a00006 	mov	r0, r6
    b464:	ebfffea3 	bl	aef8 <log_hexdump>
    printf("    count: %08x\n", enc->s2k.count);
    b468:	e59f0394 	ldr	r0, [pc, #916]	; b804 <build_packet+0x50c>
    b46c:	e5941014 	ldr	r1, [r4, #20]
    b470:	e08f0000 	add	r0, pc, r0
    b474:	eb0017e2 	bl	11404 <tfp_printf>
    printf("  seskeylen: %u\n", enc->seskeylen);
    b478:	e59f0388 	ldr	r0, [pc, #904]	; b808 <build_packet+0x510>
    b47c:	e5d41018 	ldrb	r1, [r4, #24]
    b480:	e08f0000 	add	r0, pc, r0
    b484:	eb0017de 	bl	11404 <tfp_printf>
  IOBUF a = iobuf_temp();
    b488:	ebfff510 	bl	88d0 <iobuf_temp>
  switch (enc->s2k.mode)
    b48c:	e5941004 	ldr	r1, [r4, #4]
  IOBUF a = iobuf_temp();
    b490:	e1a08000 	mov	r8, r0
  switch (enc->s2k.mode)
    b494:	e3510001 	cmp	r1, #1
    b498:	ca000026 	bgt	b538 <build_packet+0x240>
    b49c:	e3510000 	cmp	r1, #0
    b4a0:	aa000002 	bge	b4b0 <build_packet+0x1b8>
      printf ("do_symkey_enc: s2k=%d\n", enc->s2k.mode);
    b4a4:	e59f0360 	ldr	r0, [pc, #864]	; b80c <build_packet+0x514>
    b4a8:	e08f0000 	add	r0, pc, r0
    b4ac:	eb0017d4 	bl	11404 <tfp_printf>
    iobuf_put( a, enc->version );
    b4b0:	e5d41000 	ldrb	r1, [r4]
    b4b4:	e1a00008 	mov	r0, r8
    b4b8:	ebfff8f6 	bl	9898 <iobuf_writebyte>
    iobuf_put( a, enc->cipher_algo );
    b4bc:	e5d41001 	ldrb	r1, [r4, #1]
    b4c0:	e1a00008 	mov	r0, r8
    b4c4:	ebfff8f3 	bl	9898 <iobuf_writebyte>
    if (enc->version == 5)
    b4c8:	e5d43000 	ldrb	r3, [r4]
    b4cc:	e3530005 	cmp	r3, #5
    b4d0:	0a0000bb 	beq	b7c4 <build_packet+0x4cc>
    iobuf_put( a, enc->s2k.mode );
    b4d4:	e5941004 	ldr	r1, [r4, #4]
    b4d8:	e1a00008 	mov	r0, r8
    b4dc:	ebfff8ed 	bl	9898 <iobuf_writebyte>
    iobuf_put( a, enc->s2k.hash_algo );
    b4e0:	e5d41008 	ldrb	r1, [r4, #8]
    b4e4:	e1a00008 	mov	r0, r8
    b4e8:	ebfff8ea 	bl	9898 <iobuf_writebyte>
    if( enc->s2k.mode == 1 || enc->s2k.mode == 3 ) {
    b4ec:	e5943004 	ldr	r3, [r4, #4]
    b4f0:	e3c33002 	bic	r3, r3, #2
    b4f4:	e3530001 	cmp	r3, #1
    b4f8:	0a0000a6 	beq	b798 <build_packet+0x4a0>
    if( enc->seskeylen )
    b4fc:	e5d42018 	ldrb	r2, [r4, #24]
    b500:	e3520000 	cmp	r2, #0
    b504:	1a00009f 	bne	b788 <build_packet+0x490>
    return write_header2( out, ctb, len, 0 );
    b508:	e598201c 	ldr	r2, [r8, #28]
    b50c:	e1a01007 	mov	r1, r7
    b510:	e1a00005 	mov	r0, r5
    b514:	ebfffed2 	bl	b064 <write_header2.constprop.0.isra.0>
    rc = iobuf_write_temp( out, a );
    b518:	e1a01008 	mov	r1, r8
    b51c:	e1a00005 	mov	r0, r5
    b520:	ebfffbd8 	bl	a488 <iobuf_write_temp>
    b524:	e1a06000 	mov	r6, r0
    iobuf_close(a);
    b528:	e1a00008 	mov	r0, r8
    b52c:	ebfff491 	bl	8778 <iobuf_close>
}
    b530:	e1a00006 	mov	r0, r6
    b534:	e8bd81f0 	pop	{r4, r5, r6, r7, r8, pc}
  switch (enc->s2k.mode)
    b538:	e3510003 	cmp	r1, #3
    b53c:	0affffdb 	beq	b4b0 <build_packet+0x1b8>
    b540:	eaffffd7 	b	b4a4 <build_packet+0x1ac>
      rc = do_plaintext (out, ctb, pkt->pkt.plaintext);
    b544:	e5964004 	ldr	r4, [r6, #4]
  printf("do_plaintext pt->buf: %d\n", pt->buf);
    b548:	e59f02c0 	ldr	r0, [pc, #704]	; b810 <build_packet+0x518>
    b54c:	e5941004 	ldr	r1, [r4, #4]
    b550:	e08f0000 	add	r0, pc, r0
    b554:	eb0017aa 	bl	11404 <tfp_printf>
printf("Checking packet type\n");
    b558:	e59f02b4 	ldr	r0, [pc, #692]	; b814 <build_packet+0x51c>
    b55c:	e08f0000 	add	r0, pc, r0
    b560:	eb0017a7 	bl	11404 <tfp_printf>
    printf("Writing header\n");
    b564:	e59f02ac 	ldr	r0, [pc, #684]	; b818 <build_packet+0x520>
    b568:	e08f0000 	add	r0, pc, r0
    b56c:	eb0017a4 	bl	11404 <tfp_printf>
  if(pt->namelen>255)
    b570:	e5943014 	ldr	r3, [r4, #20]
  u32 res = pt->len? (1 + 1 + pt->namelen + 4 + pt->len) : 0;
    b574:	e5946000 	ldr	r6, [r4]
  printf("calc_plaintext write_32 %08x",res);
    b578:	e59f029c 	ldr	r0, [pc, #668]	; b81c <build_packet+0x524>
  if(pt->namelen>255)
    b57c:	e35300ff 	cmp	r3, #255	; 0xff
    pt->namelen=255;
    b580:	c3a030ff 	movgt	r3, #255	; 0xff
    b584:	c5843014 	strgt	r3, [r4, #20]
  u32 res = pt->len? (1 + 1 + pt->namelen + 4 + pt->len) : 0;
    b588:	e3560000 	cmp	r6, #0
  printf("calc_plaintext write_32 %08x",res);
    b58c:	e08f0000 	add	r0, pc, r0
  u32 res = pt->len? (1 + 1 + pt->namelen + 4 + pt->len) : 0;
    b590:	12866006 	addne	r6, r6, #6
    b594:	15943014 	ldrne	r3, [r4, #20]
    b598:	10866003 	addne	r6, r6, r3
  printf("calc_plaintext write_32 %08x",res);
    b59c:	e1a01006 	mov	r1, r6
    b5a0:	eb001797 	bl	11404 <tfp_printf>
    return write_header2( out, ctb, len, 0 );
    b5a4:	e1a02006 	mov	r2, r6
    b5a8:	e1a01007 	mov	r1, r7
    b5ac:	e1a00005 	mov	r0, r5
    printf("Writing name: %.*s\n", (int)pt->namelen, pt->name);
    b5b0:	e2846018 	add	r6, r4, #24
    return write_header2( out, ctb, len, 0 );
    b5b4:	ebfffeaa 	bl	b064 <write_header2.constprop.0.isra.0>
    printf("CTB: %d\n", ctb);
    b5b8:	e59f0260 	ldr	r0, [pc, #608]	; b820 <build_packet+0x528>
    b5bc:	e1a01007 	mov	r1, r7
    b5c0:	e08f0000 	add	r0, pc, r0
    b5c4:	eb00178e 	bl	11404 <tfp_printf>
    printf("Checking mode validity: mode = %c\n", pt->mode);
    b5c8:	e59f0254 	ldr	r0, [pc, #596]	; b824 <build_packet+0x52c>
    b5cc:	e594100c 	ldr	r1, [r4, #12]
    b5d0:	e08f0000 	add	r0, pc, r0
    b5d4:	eb00178a 	bl	11404 <tfp_printf>
    printf("Writing mode: %c\n", pt->mode);
    b5d8:	e59f0248 	ldr	r0, [pc, #584]	; b828 <build_packet+0x530>
    b5dc:	e594100c 	ldr	r1, [r4, #12]
    b5e0:	e08f0000 	add	r0, pc, r0
    b5e4:	eb001786 	bl	11404 <tfp_printf>
    iobuf_put(out, pt->mode);
    b5e8:	e594100c 	ldr	r1, [r4, #12]
    b5ec:	e1a00005 	mov	r0, r5
    b5f0:	ebfff8a8 	bl	9898 <iobuf_writebyte>
    printf("Writing namelen: %zu\n", pt->namelen);
    b5f4:	e59f0230 	ldr	r0, [pc, #560]	; b82c <build_packet+0x534>
    b5f8:	e5941014 	ldr	r1, [r4, #20]
    b5fc:	e08f0000 	add	r0, pc, r0
    b600:	eb00177f 	bl	11404 <tfp_printf>
    iobuf_put(out, pt->namelen);
    b604:	e5941014 	ldr	r1, [r4, #20]
    b608:	e1a00005 	mov	r0, r5
    b60c:	ebfff8a1 	bl	9898 <iobuf_writebyte>
    printf("Writing name: %.*s\n", (int)pt->namelen, pt->name);
    b610:	e59f0218 	ldr	r0, [pc, #536]	; b830 <build_packet+0x538>
    b614:	e1a02006 	mov	r2, r6
    b618:	e5941014 	ldr	r1, [r4, #20]
    b61c:	e08f0000 	add	r0, pc, r0
    b620:	eb001777 	bl	11404 <tfp_printf>
    iobuf_write(out, pt->name, pt->namelen);
    b624:	e5942014 	ldr	r2, [r4, #20]
    b628:	e1a01006 	mov	r1, r6
    b62c:	e1a00005 	mov	r0, r5
    b630:	ebfff8c3 	bl	9944 <iobuf_write>
    printf("Writing timestamp: %u\n", pt->timestamp);
    b634:	e59f01f8 	ldr	r0, [pc, #504]	; b834 <build_packet+0x53c>
    pt->timestamp = 1624780800;
    b638:	e3a01a03 	mov	r1, #12288	; 0x3000
    b63c:	e34610d8 	movt	r1, #24792	; 0x60d8
    printf("Writing timestamp: %u\n", pt->timestamp);
    b640:	e08f0000 	add	r0, pc, r0
    pt->timestamp = 1624780800;
    b644:	e5841010 	str	r1, [r4, #16]
    printf("Writing timestamp: %u\n", pt->timestamp);
    b648:	eb00176d 	bl	11404 <tfp_printf>
    rc = write_32(out, pt->timestamp);
    b64c:	e5946010 	ldr	r6, [r4, #16]
  printf("write_32 %08x\n",a);
    b650:	e59f01e0 	ldr	r0, [pc, #480]	; b838 <build_packet+0x540>
    b654:	e1a01006 	mov	r1, r6
    b658:	e08f0000 	add	r0, pc, r0
    b65c:	eb001768 	bl	11404 <tfp_printf>
    iobuf_put(out, a>> 24);
    b660:	e1a01c26 	lsr	r1, r6, #24
    b664:	e1a00005 	mov	r0, r5
    b668:	ebfff88a 	bl	9898 <iobuf_writebyte>
    iobuf_put(out, a>> 16);
    b66c:	e1a01826 	lsr	r1, r6, #16
    b670:	e1a00005 	mov	r0, r5
    b674:	ebfff887 	bl	9898 <iobuf_writebyte>
    iobuf_put(out, a>> 8);
    b678:	e1a01426 	lsr	r1, r6, #8
    b67c:	e1a00005 	mov	r0, r5
    b680:	ebfff884 	bl	9898 <iobuf_writebyte>
    return iobuf_put(out, a);
    b684:	e1a01006 	mov	r1, r6
    b688:	e1a00005 	mov	r0, r5
    b68c:	ebfff881 	bl	9898 <iobuf_writebyte>
    b690:	e1a06000 	mov	r6, r0
    printf("rc: %d\n", rc);
    b694:	e59f01a0 	ldr	r0, [pc, #416]	; b83c <build_packet+0x544>
    b698:	e1a01006 	mov	r1, r6
    b69c:	e08f0000 	add	r0, pc, r0
    b6a0:	eb001757 	bl	11404 <tfp_printf>
    printf("pt->buf: %d\n", pt->buf->nbytes);
    b6a4:	e5943004 	ldr	r3, [r4, #4]
    b6a8:	e59f0190 	ldr	r0, [pc, #400]	; b840 <build_packet+0x548>
    b6ac:	e5931008 	ldr	r1, [r3, #8]
    b6b0:	e08f0000 	add	r0, pc, r0
    b6b4:	eb001752 	bl	11404 <tfp_printf>
    if (rc)
    b6b8:	e3560000 	cmp	r6, #0
    b6bc:	1affff36 	bne	b39c <build_packet+0xa4>
    if (pt->buf)
    b6c0:	e5941004 	ldr	r1, [r4, #4]
    b6c4:	e3510000 	cmp	r1, #0
    b6c8:	0a000028 	beq	b770 <build_packet+0x478>
        nbytes = iobuf_copy (out, pt->buf);
    b6cc:	e1a00005 	mov	r0, r5
    b6d0:	ebfffb2d 	bl	a38c <iobuf_copy>
    b6d4:	e1a08000 	mov	r8, r0
        printf("!!!!! Wrote buf %d bytes", nbytes);
    b6d8:	e59f0164 	ldr	r0, [pc, #356]	; b844 <build_packet+0x54c>
    b6dc:	e1a01008 	mov	r1, r8
    b6e0:	e08f0000 	add	r0, pc, r0
    b6e4:	eb001746 	bl	11404 <tfp_printf>
            && (iobuf_error (out) || iobuf_error (pt->buf)))
    b6e8:	e5956028 	ldr	r6, [r5, #40]	; 0x28
        if (nbytes == (size_t)(-1)
    b6ec:	e3780001 	cmn	r8, #1
    b6f0:	1a000005 	bne	b70c <build_packet+0x414>
            && (iobuf_error (out) || iobuf_error (pt->buf)))
    b6f4:	e3560000 	cmp	r6, #0
    b6f8:	1affff27 	bne	b39c <build_packet+0xa4>
    b6fc:	e5943004 	ldr	r3, [r4, #4]
    b700:	e5936028 	ldr	r6, [r3, #40]	; 0x28
    b704:	e3560000 	cmp	r6, #0
    b708:	1affff23 	bne	b39c <build_packet+0xa4>
  printf("ctb new format: %d\n", res);
    b70c:	e59f0134 	ldr	r0, [pc, #308]	; b848 <build_packet+0x550>
  int res = (ctb & (1 << 6));
    b710:	e2077040 	and	r7, r7, #64	; 0x40
  printf("ctb new format: %d\n", res);
    b714:	e1a01007 	mov	r1, r7
    b718:	e08f0000 	add	r0, pc, r0
    b71c:	eb001738 	bl	11404 <tfp_printf>
        if(ctb_new_format_p (ctb) && !pt->len){
    b720:	e5941000 	ldr	r1, [r4]
    b724:	e3570000 	cmp	r7, #0
    b728:	0a000007 	beq	b74c <build_packet+0x454>
    b72c:	e3510000 	cmp	r1, #0
    b730:	1a000005 	bne	b74c <build_packet+0x454>
          iobuf_set_partial_body_length_mode (out, 0);
    b734:	e1a00005 	mov	r0, r5
    b738:	ebfffc23 	bl	a7cc <iobuf_set_partial_body_length_mode>
          printf("Turned off partial body length mode\n");
    b73c:	e59f0108 	ldr	r0, [pc, #264]	; b84c <build_packet+0x554>
    b740:	e08f0000 	add	r0, pc, r0
    b744:	eb00172e 	bl	11404 <tfp_printf>
        if (pt->len && nbytes != pt->len)
    b748:	e5941000 	ldr	r1, [r4]
            if (!rc) /* Just in case no error was set  */
    b74c:	e3510000 	cmp	r1, #0
    b750:	11580001 	cmpne	r8, r1
    b754:	13a01001 	movne	r1, #1
    b758:	03a01000 	moveq	r1, #0
    b75c:	e3560000 	cmp	r6, #0
    b760:	13a01000 	movne	r1, #0
    b764:	02011001 	andeq	r1, r1, #1
              rc = -1;//gpg_error (GPG_ERR_EIO);
    b768:	e3510000 	cmp	r1, #0
    b76c:	13e06000 	mvnne	r6, #0
    printf("do_plaintext done %d\n", rc);
    b770:	e59f00d8 	ldr	r0, [pc, #216]	; b850 <build_packet+0x558>
    b774:	e1a01006 	mov	r1, r6
    b778:	e08f0000 	add	r0, pc, r0
    b77c:	eb001720 	bl	11404 <tfp_printf>
}
    b780:	e1a00006 	mov	r0, r6
    b784:	e8bd81f0 	pop	{r4, r5, r6, r7, r8, pc}
	iobuf_write(a, enc->seskey, enc->seskeylen );
    b788:	e2841019 	add	r1, r4, #25
    b78c:	e1a00008 	mov	r0, r8
    b790:	ebfff86b 	bl	9944 <iobuf_write>
    b794:	eaffff5b 	b	b508 <build_packet+0x210>
	iobuf_write(a, enc->s2k.salt, 8 );
    b798:	e1a01006 	mov	r1, r6
    b79c:	e3a02008 	mov	r2, #8
    b7a0:	e1a00008 	mov	r0, r8
    b7a4:	ebfff866 	bl	9944 <iobuf_write>
	if( enc->s2k.mode == 3 )
    b7a8:	e5943004 	ldr	r3, [r4, #4]
    b7ac:	e3530003 	cmp	r3, #3
    b7b0:	1affff51 	bne	b4fc <build_packet+0x204>
	    iobuf_put(a, enc->s2k.count);
    b7b4:	e5941014 	ldr	r1, [r4, #20]
    b7b8:	e1a00008 	mov	r0, r8
    b7bc:	ebfff835 	bl	9898 <iobuf_writebyte>
    b7c0:	eaffff4d 	b	b4fc <build_packet+0x204>
      iobuf_put (a, enc->aead_algo);
    b7c4:	e5d41002 	ldrb	r1, [r4, #2]
    b7c8:	e1a00008 	mov	r0, r8
    b7cc:	ebfff831 	bl	9898 <iobuf_writebyte>
    b7d0:	eaffff3f 	b	b4d4 <build_packet+0x1dc>
    b7d4:	0000b848 	.word	0x0000b848
    b7d8:	0000b824 	.word	0x0000b824
    b7dc:	0000ba3c 	.word	0x0000ba3c
    b7e0:	0000b7c8 	.word	0x0000b7c8
    b7e4:	0000b7d0 	.word	0x0000b7d0
    b7e8:	0000b7d4 	.word	0x0000b7d4
    b7ec:	0000b7d4 	.word	0x0000b7d4
    b7f0:	0000b7d8 	.word	0x0000b7d8
    b7f4:	0000b7e0 	.word	0x0000b7e0
    b7f8:	0000b7d8 	.word	0x0000b7d8
    b7fc:	0000b7d8 	.word	0x0000b7d8
    b800:	0000b7e0 	.word	0x0000b7e0
    b804:	0000b7d0 	.word	0x0000b7d0
    b808:	0000b7d4 	.word	0x0000b7d4
    b80c:	0000b7c0 	.word	0x0000b7c0
    b810:	0000b730 	.word	0x0000b730
    b814:	0000b740 	.word	0x0000b740
    b818:	0000b74c 	.word	0x0000b74c
    b81c:	0000b4a8 	.word	0x0000b4a8
    b820:	0000b704 	.word	0x0000b704
    b824:	0000b700 	.word	0x0000b700
    b828:	0000b714 	.word	0x0000b714
    b82c:	0000b70c 	.word	0x0000b70c
    b830:	0000b704 	.word	0x0000b704
    b834:	0000b6f4 	.word	0x0000b6f4
    b838:	0000b6f4 	.word	0x0000b6f4
    b83c:	0000b6c0 	.word	0x0000b6c0
    b840:	0000b6b4 	.word	0x0000b6b4
    b844:	0000b694 	.word	0x0000b694
    b848:	0000b3a8 	.word	0x0000b3a8
    b84c:	0000b650 	.word	0x0000b650
    b850:	0000b640 	.word	0x0000b640

0000b854 <print_iobuf_info2>:
void print_iobuf_info2(const struct iobuf_struct *iobuf) {
    b854:	e92d41f0 	push	{r4, r5, r6, r7, r8, lr}
    b858:	e1a04000 	mov	r4, r0
    printf("print_iobuf_info2\n");
    b85c:	e59f6118 	ldr	r6, [pc, #280]	; b97c <print_iobuf_info2+0x128>
    printf("  Use: %d\n", iobuf->use);
    b860:	e59f5118 	ldr	r5, [pc, #280]	; b980 <print_iobuf_info2+0x12c>
    printf("  nlimit: %ld\n", (long)iobuf->nlimit);
    b864:	e59f7118 	ldr	r7, [pc, #280]	; b984 <print_iobuf_info2+0x130>
    printf("print_iobuf_info2\n");
    b868:	e08f6006 	add	r6, pc, r6
    printf("  Use: %d\n", iobuf->use);
    b86c:	e08f5005 	add	r5, pc, r5
    printf("  nlimit: %ld\n", (long)iobuf->nlimit);
    b870:	e08f7007 	add	r7, pc, r7
    b874:	ea000037 	b	b958 <print_iobuf_info2+0x104>
    printf("  Use: %d\n", iobuf->use);
    b878:	e5d41000 	ldrb	r1, [r4]
    b87c:	eb0016e0 	bl	11404 <tfp_printf>
    printf("  nlimit: %ld\n", (long)iobuf->nlimit);
    b880:	e5941004 	ldr	r1, [r4, #4]
    b884:	e1a00007 	mov	r0, r7
    b888:	eb0016dd 	bl	11404 <tfp_printf>
    printf("  nbytes: %ld\n", (long)iobuf->nbytes);
    b88c:	e59f00f4 	ldr	r0, [pc, #244]	; b988 <print_iobuf_info2+0x134>
    b890:	e5941008 	ldr	r1, [r4, #8]
    b894:	e08f0000 	add	r0, pc, r0
    b898:	eb0016d9 	bl	11404 <tfp_printf>
    printf("  ntotal: %ld\n", (long)iobuf->ntotal);
    b89c:	e59f00e8 	ldr	r0, [pc, #232]	; b98c <print_iobuf_info2+0x138>
    b8a0:	e594100c 	ldr	r1, [r4, #12]
    b8a4:	e08f0000 	add	r0, pc, r0
    b8a8:	eb0016d5 	bl	11404 <tfp_printf>
    printf("  nofast: %d\n", iobuf->nofast);
    b8ac:	e59f00dc 	ldr	r0, [pc, #220]	; b990 <print_iobuf_info2+0x13c>
    b8b0:	e5941010 	ldr	r1, [r4, #16]
    b8b4:	e08f0000 	add	r0, pc, r0
    b8b8:	eb0016d1 	bl	11404 <tfp_printf>
    printf("  Buffer size: %zu\n", iobuf->d.size);
    b8bc:	e59f00d0 	ldr	r0, [pc, #208]	; b994 <print_iobuf_info2+0x140>
    b8c0:	e5941014 	ldr	r1, [r4, #20]
    b8c4:	e08f0000 	add	r0, pc, r0
    b8c8:	eb0016cd 	bl	11404 <tfp_printf>
    printf("  Buffer start: %zu\n", iobuf->d.start);
    b8cc:	e59f00c4 	ldr	r0, [pc, #196]	; b998 <print_iobuf_info2+0x144>
    b8d0:	e5941018 	ldr	r1, [r4, #24]
    b8d4:	e08f0000 	add	r0, pc, r0
    b8d8:	eb0016c9 	bl	11404 <tfp_printf>
    printf("  Buffer length: %zu\n", iobuf->d.len);
    b8dc:	e59f00b8 	ldr	r0, [pc, #184]	; b99c <print_iobuf_info2+0x148>
    b8e0:	e594101c 	ldr	r1, [r4, #28]
    b8e4:	e08f0000 	add	r0, pc, r0
    b8e8:	eb0016c5 	bl	11404 <tfp_printf>
    printf("  Filter EOF: %d\n", iobuf->filter_eof);
    b8ec:	e59f00ac 	ldr	r0, [pc, #172]	; b9a0 <print_iobuf_info2+0x14c>
    b8f0:	e5941024 	ldr	r1, [r4, #36]	; 0x24
    b8f4:	e08f0000 	add	r0, pc, r0
    b8f8:	eb0016c1 	bl	11404 <tfp_printf>
    printf("  Error: %d\n", iobuf->error);
    b8fc:	e59f00a0 	ldr	r0, [pc, #160]	; b9a4 <print_iobuf_info2+0x150>
    b900:	e5941028 	ldr	r1, [r4, #40]	; 0x28
    b904:	e08f0000 	add	r0, pc, r0
    b908:	eb0016bd 	bl	11404 <tfp_printf>
    printf("  Filter owner: %d\n", iobuf->filter_ov_owner);
    b90c:	e59f0094 	ldr	r0, [pc, #148]	; b9a8 <print_iobuf_info2+0x154>
    b910:	e5941034 	ldr	r1, [r4, #52]	; 0x34
    b914:	e08f0000 	add	r0, pc, r0
    b918:	eb0016b9 	bl	11404 <tfp_printf>
    printf("  Filter number: %d\n", iobuf->no);
    b91c:	e59f0088 	ldr	r0, [pc, #136]	; b9ac <print_iobuf_info2+0x158>
    b920:	e5941040 	ldr	r1, [r4, #64]	; 0x40
    b924:	e08f0000 	add	r0, pc, r0
    b928:	eb0016b5 	bl	11404 <tfp_printf>
    printf("  Sub filters count: %d\n", iobuf->subno);
    b92c:	e59f007c 	ldr	r0, [pc, #124]	; b9b0 <print_iobuf_info2+0x15c>
    b930:	e5941044 	ldr	r1, [r4, #68]	; 0x44
    b934:	e08f0000 	add	r0, pc, r0
    b938:	eb0016b1 	bl	11404 <tfp_printf>
    if (iobuf->chain) {
    b93c:	e594303c 	ldr	r3, [r4, #60]	; 0x3c
        printf("  Chain:\n");
    b940:	e59f006c 	ldr	r0, [pc, #108]	; b9b4 <print_iobuf_info2+0x160>
    if (iobuf->chain) {
    b944:	e3530000 	cmp	r3, #0
        printf("  Chain:\n");
    b948:	e08f0000 	add	r0, pc, r0
    if (iobuf->chain) {
    b94c:	08bd81f0 	popeq	{r4, r5, r6, r7, r8, pc}
        printf("  Chain:\n");
    b950:	eb0016ab 	bl	11404 <tfp_printf>
        print_iobuf_info2(iobuf->chain);
    b954:	e594403c 	ldr	r4, [r4, #60]	; 0x3c
    printf("print_iobuf_info2\n");
    b958:	e1a00006 	mov	r0, r6
    b95c:	eb0016a8 	bl	11404 <tfp_printf>
    if (!iobuf) {
    b960:	e3540000 	cmp	r4, #0
    printf("  Use: %d\n", iobuf->use);
    b964:	e1a00005 	mov	r0, r5
    if (!iobuf) {
    b968:	1affffc2 	bne	b878 <print_iobuf_info2+0x24>
        printf("iobuf is NULL\n");
    b96c:	e59f0044 	ldr	r0, [pc, #68]	; b9b8 <print_iobuf_info2+0x164>
}
    b970:	e8bd41f0 	pop	{r4, r5, r6, r7, r8, lr}
        printf("iobuf is NULL\n");
    b974:	e08f0000 	add	r0, pc, r0
    b978:	ea0016a1 	b	11404 <tfp_printf>
    b97c:	0000b590 	.word	0x0000b590
    b980:	0000b5b0 	.word	0x0000b5b0
    b984:	0000b5b8 	.word	0x0000b5b8
    b988:	0000b5a4 	.word	0x0000b5a4
    b98c:	0000b5a4 	.word	0x0000b5a4
    b990:	0000b5a4 	.word	0x0000b5a4
    b994:	0000b5a4 	.word	0x0000b5a4
    b998:	0000b5a8 	.word	0x0000b5a8
    b99c:	0000b5b0 	.word	0x0000b5b0
    b9a0:	0000b5b8 	.word	0x0000b5b8
    b9a4:	0000b5bc 	.word	0x0000b5bc
    b9a8:	0000b5bc 	.word	0x0000b5bc
    b9ac:	0000b5c0 	.word	0x0000b5c0
    b9b0:	0000b5c8 	.word	0x0000b5c8
    b9b4:	0000b5d0 	.word	0x0000b5d0
    b9b8:	0000b498 	.word	0x0000b498

0000b9bc <_gcry_cipher_encrypt>:
}

int
_gcry_cipher_encrypt (gcry_cipher_hd_t h, void *out, size_t outsize,
                      const void *in, size_t inlen)
{
    b9bc:	e92d41f0 	push	{r4, r5, r6, r7, r8, lr}
    b9c0:	e24dd008 	sub	sp, sp, #8
    b9c4:	e1a08000 	mov	r8, r0
    b9c8:	e1a04001 	mov	r4, r1
    b9cc:	e59d6020 	ldr	r6, [sp, #32]
    b9d0:	e1a07003 	mov	r7, r3
  printf("_gcry_cipher_encrypt inlen: %d, outSize: %d, unused: %d\n", inlen, outsize, h->unused);
    b9d4:	e59f006c 	ldr	r0, [pc, #108]	; ba48 <_gcry_cipher_encrypt+0x8c>
{
    b9d8:	e1a05002 	mov	r5, r2
  printf("_gcry_cipher_encrypt inlen: %d, outSize: %d, unused: %d\n", inlen, outsize, h->unused);
    b9dc:	e5983020 	ldr	r3, [r8, #32]
    b9e0:	e1a01006 	mov	r1, r6
    b9e4:	e08f0000 	add	r0, pc, r0
    b9e8:	eb001685 	bl	11404 <tfp_printf>
  int rc;

  if (!in)  /* Caller requested in-place encryption.  */
    b9ec:	e3570000 	cmp	r7, #0
  //   {
  //     log_error ("cipher_encrypt: key not set\n");
  //     return GPG_ERR_MISSING_KEY;
  //   }

  rc = _gcry_cipher_cfb_encrypt (h, out, outsize, in, inlen);
    b9f0:	e1a00008 	mov	r0, r8
  if (!in)  /* Caller requested in-place encryption.  */
    b9f4:	01a06005 	moveq	r6, r5
  rc = _gcry_cipher_cfb_encrypt (h, out, outsize, in, inlen);
    b9f8:	11a03007 	movne	r3, r7
    b9fc:	e58d6000 	str	r6, [sp]
    ba00:	01a03004 	moveq	r3, r4
    ba04:	e1a02005 	mov	r2, r5
    ba08:	e1a01004 	mov	r1, r4
    ba0c:	eb000bfc 	bl	ea04 <_gcry_cipher_cfb_encrypt>

  /* Failsafe: Make sure that the plaintext will never make it into
     OUT if the encryption returned an error.  */
  if (rc && out)
    ba10:	e3500000 	cmp	r0, #0
    ba14:	13540000 	cmpne	r4, #0
    ba18:	e1a06000 	mov	r6, r0
    ba1c:	1a000002 	bne	ba2c <_gcry_cipher_encrypt+0x70>
    memset (out, 0x42, outsize);

  return rc;
}
    ba20:	e1a00006 	mov	r0, r6
    ba24:	e28dd008 	add	sp, sp, #8
    ba28:	e8bd81f0 	pop	{r4, r5, r6, r7, r8, pc}
    memset (out, 0x42, outsize);
    ba2c:	e1a02005 	mov	r2, r5
    ba30:	e3a01042 	mov	r1, #66	; 0x42
    ba34:	e1a00004 	mov	r0, r4
    ba38:	eb000d6e 	bl	eff8 <memset>
}
    ba3c:	e1a00006 	mov	r0, r6
    ba40:	e28dd008 	add	sp, sp, #8
    ba44:	e8bd81f0 	pop	{r4, r5, r6, r7, r8, pc}
    ba48:	0000b540 	.word	0x0000b540

0000ba4c <cipher_filter_cfb>:

int
cipher_filter_cfb (void *opaque, int control,
                   iobuf_t chain, byte *buf, size_t *len)
{
    ba4c:	e92d43f0 	push	{r4, r5, r6, r7, r8, r9, lr}
    ba50:	e1a05000 	mov	r5, r0
  printf("cipher_filter_cfb\n");
    ba54:	e59f0278 	ldr	r0, [pc, #632]	; bcd4 <cipher_filter_cfb+0x288>
{
    ba58:	e24dd044 	sub	sp, sp, #68	; 0x44
    ba5c:	e1a04001 	mov	r4, r1
    ba60:	e1a07002 	mov	r7, r2
  printf("cipher_filter_cfb\n");
    ba64:	e08f0000 	add	r0, pc, r0
{
    ba68:	e1a06003 	mov	r6, r3
  printf("cipher_filter_cfb\n");
    ba6c:	eb001664 	bl	11404 <tfp_printf>
  cipher_filter_context_t *cfx = opaque;

  size_t size = *len;
  int rc = 0;
  printf("cipher_filter_cfb %d %d\n",control, cfx->wrote_header);
    ba70:	e5d5200c 	ldrb	r2, [r5, #12]
    ba74:	e1a01004 	mov	r1, r4
    ba78:	e59f0258 	ldr	r0, [pc, #600]	; bcd8 <cipher_filter_cfb+0x28c>
  size_t size = *len;
    ba7c:	e59d3060 	ldr	r3, [sp, #96]	; 0x60
  printf("cipher_filter_cfb %d %d\n",control, cfx->wrote_header);
    ba80:	e2022001 	and	r2, r2, #1
    ba84:	e08f0000 	add	r0, pc, r0
  size_t size = *len;
    ba88:	e5938000 	ldr	r8, [r3]
  printf("cipher_filter_cfb %d %d\n",control, cfx->wrote_header);
    ba8c:	eb00165c 	bl	11404 <tfp_printf>
  // log_hexdump(buf, size);
  if (control == IOBUFCTRL_UNDERFLOW) /* decrypt */
    ba90:	e3540003 	cmp	r4, #3
    ba94:	0a00008c 	beq	bccc <cipher_filter_cfb+0x280>
    {
      // printf("IOBUFCTRL_UNDERFLOW\n");
      rc = -1; /* not used */
    }
  else if (control == IOBUFCTRL_FLUSH) /* encrypt */
    ba98:	e3540004 	cmp	r4, #4
    ba9c:	0a000009 	beq	bac8 <cipher_filter_cfb+0x7c>
        }
      printf("short_blklen_count: %d\n", cfx->short_blklen_count);

      rc = iobuf_write (chain, buf, size);
    }
  else if (control == IOBUFCTRL_FREE)
    baa0:	e3540002 	cmp	r4, #2
  int rc = 0;
    baa4:	13a04000 	movne	r4, #0
  else if (control == IOBUFCTRL_FREE)
    baa8:	0a00007c 	beq	bca0 <cipher_filter_cfb+0x254>
  else if (control == IOBUFCTRL_DESC)
    {
      // printf("IOBUFCTRL_DESC\n");
     // mem2str (buf, "cipher_filter_cfb", *ret_len);
    }
    printf("cipher_filter_cfb RETURNING %d\n",rc);
    baac:	e59f0228 	ldr	r0, [pc, #552]	; bcdc <cipher_filter_cfb+0x290>
    bab0:	e1a01004 	mov	r1, r4
    bab4:	e08f0000 	add	r0, pc, r0
    bab8:	eb001651 	bl	11404 <tfp_printf>

  return rc;
}
    babc:	e1a00004 	mov	r0, r4
    bac0:	e28dd044 	add	sp, sp, #68	; 0x44
    bac4:	e8bd83f0 	pop	{r4, r5, r6, r7, r8, r9, pc}
      printf("IOBUFCTRL_FLUSH\n");
    bac8:	e59f0210 	ldr	r0, [pc, #528]	; bce0 <cipher_filter_cfb+0x294>
    bacc:	e08f0000 	add	r0, pc, r0
    bad0:	eb00164b 	bl	11404 <tfp_printf>
      if (!cfx->wrote_header){
    bad4:	e5d5100c 	ldrb	r1, [r5, #12]
    bad8:	e2114001 	ands	r4, r1, #1
    badc:	0a000017 	beq	bb40 <cipher_filter_cfb+0xf4>
      printf("Encrypting2: %d bytes\n", size);
    bae0:	e59f01fc 	ldr	r0, [pc, #508]	; bce4 <cipher_filter_cfb+0x298>
    bae4:	e1a01008 	mov	r1, r8
    bae8:	e08f0000 	add	r0, pc, r0
    baec:	eb001644 	bl	11404 <tfp_printf>
      _gcry_cipher_encrypt (cfx->cipher_hd, buf, size, NULL, 0);
    baf0:	e3a03000 	mov	r3, #0
    baf4:	e1a02008 	mov	r2, r8
    baf8:	e58d3000 	str	r3, [sp]
    bafc:	e1a01006 	mov	r1, r6
    bb00:	e5950008 	ldr	r0, [r5, #8]
    bb04:	ebffffac 	bl	b9bc <_gcry_cipher_encrypt>
      if (cfx->short_blklen_warn)
    bb08:	e5d5300c 	ldrb	r3, [r5, #12]
          cfx->short_blklen_count += size;
    bb0c:	e5951010 	ldr	r1, [r5, #16]
      printf("short_blklen_count: %d\n", cfx->short_blklen_count);
    bb10:	e59f01d0 	ldr	r0, [pc, #464]	; bce8 <cipher_filter_cfb+0x29c>
      if (cfx->short_blklen_warn)
    bb14:	e3130002 	tst	r3, #2
          cfx->short_blklen_count += size;
    bb18:	10881001 	addne	r1, r8, r1
    bb1c:	15851010 	strne	r1, [r5, #16]
      printf("short_blklen_count: %d\n", cfx->short_blklen_count);
    bb20:	e08f0000 	add	r0, pc, r0
    bb24:	eb001636 	bl	11404 <tfp_printf>
      rc = iobuf_write (chain, buf, size);
    bb28:	e1a02008 	mov	r2, r8
    bb2c:	e1a01006 	mov	r1, r6
    bb30:	e1a00007 	mov	r0, r7
    bb34:	ebfff782 	bl	9944 <iobuf_write>
    bb38:	e1a04000 	mov	r4, r0
    bb3c:	eaffffda 	b	baac <cipher_filter_cfb+0x60>
  printf ("write_cfb_header\n");
    bb40:	e59f01a4 	ldr	r0, [pc, #420]	; bcec <cipher_filter_cfb+0x2a0>
  memset (&ed, 0, sizeof ed);
    bb44:	e28d902c 	add	r9, sp, #44	; 0x2c
  printf ("write_cfb_header\n");
    bb48:	e08f0000 	add	r0, pc, r0
    bb4c:	eb00162c 	bl	11404 <tfp_printf>
  memset (&ed, 0, sizeof ed);
    bb50:	e3a02014 	mov	r2, #20
    bb54:	e1a01004 	mov	r1, r4
    bb58:	e1a00009 	mov	r0, r9
    bb5c:	eb000d25 	bl	eff8 <memset>
  ed.len = cfx->datalen;
    bb60:	e5953004 	ldr	r3, [r5, #4]
  printf("use_mdc %d\n", cfx->dek->use_mdc);
    bb64:	e59f0184 	ldr	r0, [pc, #388]	; bcf0 <cipher_filter_cfb+0x2a4>
  ed.len = cfx->datalen;
    bb68:	e58d302c 	str	r3, [sp, #44]	; 0x2c
  ed.new_ctb = !ed.len;
    bb6c:	e16f3f13 	clz	r3, r3
  printf("use_mdc %d\n", cfx->dek->use_mdc);
    bb70:	e08f0000 	add	r0, pc, r0
  ed.new_ctb = !ed.len;
    bb74:	e1a032a3 	lsr	r3, r3, #5
    bb78:	e5cd3034 	strb	r3, [sp, #52]	; 0x34
  printf("use_mdc %d\n", cfx->dek->use_mdc);
    bb7c:	e5953000 	ldr	r3, [r5]
  init_packet (&pkt);
    bb80:	e5cd4008 	strb	r4, [sp, #8]
  printf("use_mdc %d\n", cfx->dek->use_mdc);
    bb84:	e5d31008 	ldrb	r1, [r3, #8]
  ed.extralen = blocksize + 2;
    bb88:	e3a0300a 	mov	r3, #10
    bb8c:	e58d3030 	str	r3, [sp, #48]	; 0x30
  printf("use_mdc %d\n", cfx->dek->use_mdc);
    bb90:	e7e012d1 	ubfx	r1, r1, #5, #1
  init_packet (&pkt);
    bb94:	e58d400c 	str	r4, [sp, #12]
  printf("use_mdc %d\n", cfx->dek->use_mdc);
    bb98:	eb001619 	bl	11404 <tfp_printf>
  pkt.pkt.encrypted = &ed;
    bb9c:	e58d900c 	str	r9, [sp, #12]
  pkt.pkttype = //cfx->dek->use_mdc? PKT_ENCRYPTED_MDC :
    bba0:	e3a03009 	mov	r3, #9
    bba4:	e5cd3008 	strb	r3, [sp, #8]
  if (build_packet( a, &pkt))
    bba8:	e28d1008 	add	r1, sp, #8
    bbac:	e1a00007 	mov	r0, r7
    bbb0:	ebfffdd0 	bl	b2f8 <build_packet>
    bbb4:	e3500000 	cmp	r0, #0
    bbb8:	1a00003f 	bne	bcbc <cipher_filter_cfb+0x270>
  printf("Fixing random %d bytes\n", nprefix);
    bbbc:	e59f0130 	ldr	r0, [pc, #304]	; bcf4 <cipher_filter_cfb+0x2a8>
    bbc0:	e3a01008 	mov	r1, #8
memcpy(temp, fixed_random, nprefix);
    bbc4:	e28d4018 	add	r4, sp, #24
  printf("Fixing random %d bytes\n", nprefix);
    bbc8:	e08f0000 	add	r0, pc, r0
    bbcc:	eb00160c 	bl	11404 <tfp_printf>
  const unsigned char fixed_random[] = {0x01, 0x23, 0x45, 0x67, 0x89, 0xAB, 0xCD, 0xEF}; // Example fixed bytes
    bbd0:	e59f3120 	ldr	r3, [pc, #288]	; bcf8 <cipher_filter_cfb+0x2ac>
memcpy(temp, fixed_random, nprefix);
    bbd4:	e3a02008 	mov	r2, #8
  const unsigned char fixed_random[] = {0x01, 0x23, 0x45, 0x67, 0x89, 0xAB, 0xCD, 0xEF}; // Example fixed bytes
    bbd8:	e08f3003 	add	r3, pc, r3
    bbdc:	e8930003 	ldm	r3, {r0, r1}
    bbe0:	e28d3010 	add	r3, sp, #16
    bbe4:	e8830003 	stm	r3, {r0, r1}
memcpy(temp, fixed_random, nprefix);
    bbe8:	e1a01003 	mov	r1, r3
    bbec:	e1a00004 	mov	r0, r4
    bbf0:	eb000d37 	bl	f0d4 <memcpy>
  temp[nprefix] = temp[nprefix-2];
    bbf4:	e5dd201e 	ldrb	r2, [sp, #30]
  _gcry_cipher_setkey (cfx->cipher_hd, cfx->dek->key, cfx->dek->keylen);
    bbf8:	e5953000 	ldr	r3, [r5]
  temp[nprefix] = temp[nprefix-2];
    bbfc:	e5cd2020 	strb	r2, [sp, #32]
  temp[nprefix+1] = temp[nprefix-1];
    bc00:	e5dd201f 	ldrb	r2, [sp, #31]
  _gcry_cipher_setkey (cfx->cipher_hd, cfx->dek->key, cfx->dek->keylen);
    bc04:	e2831009 	add	r1, r3, #9
    bc08:	e5950008 	ldr	r0, [r5, #8]
  temp[nprefix+1] = temp[nprefix-1];
    bc0c:	e5cd2021 	strb	r2, [sp, #33]	; 0x21
  _gcry_cipher_setkey (cfx->cipher_hd, cfx->dek->key, cfx->dek->keylen);
    bc10:	e5932004 	ldr	r2, [r3, #4]
    bc14:	eb000938 	bl	e0fc <_gcry_cipher_setkey>
  log_hexdump(&cfx->cipher_hd->key, 16);
    bc18:	e5950008 	ldr	r0, [r5, #8]
    bc1c:	e3a01010 	mov	r1, #16
    bc20:	e2800030 	add	r0, r0, #48	; 0x30
    bc24:	ebfffcb3 	bl	aef8 <log_hexdump>
  _gcry_cipher_setiv (cfx->cipher_hd, NULL, 8);
    bc28:	e5950008 	ldr	r0, [r5, #8]
    bc2c:	e3a02008 	mov	r2, #8
    bc30:	e3a01000 	mov	r1, #0
    bc34:	eb000944 	bl	e14c <_gcry_cipher_setiv>
  log_hexdump(&cfx->cipher_hd->u_iv, 8);
    bc38:	e5950008 	ldr	r0, [r5, #8]
    bc3c:	e3a01008 	mov	r1, #8
    bc40:	ebfffcac 	bl	aef8 <log_hexdump>
      printf("Encrypting: %d bytes\n", nprefix+2);
    bc44:	e59f00b0 	ldr	r0, [pc, #176]	; bcfc <cipher_filter_cfb+0x2b0>
    bc48:	e3a0100a 	mov	r1, #10
    bc4c:	e08f0000 	add	r0, pc, r0
    bc50:	eb0015eb 	bl	11404 <tfp_printf>
  _gcry_cipher_encrypt (cfx->cipher_hd, temp, nprefix+2, NULL, 0);
    bc54:	e3a03000 	mov	r3, #0
    bc58:	e3a0200a 	mov	r2, #10
    bc5c:	e58d3000 	str	r3, [sp]
    bc60:	e1a01004 	mov	r1, r4
    bc64:	e5950008 	ldr	r0, [r5, #8]
    bc68:	ebffff53 	bl	b9bc <_gcry_cipher_encrypt>
  cipher_sync (cfx->cipher_hd);
    bc6c:	e5950008 	ldr	r0, [r5, #8]
    bc70:	eb000940 	bl	e178 <cipher_sync>
  iobuf_write (a, temp, nprefix+2);
    bc74:	e1a01004 	mov	r1, r4
    bc78:	e3a0200a 	mov	r2, #10
    bc7c:	e1a00007 	mov	r0, r7
    bc80:	ebfff72f 	bl	9944 <iobuf_write>
  cfx->short_blklen_count = nprefix+2;
    bc84:	e3a0300a 	mov	r3, #10
    bc88:	e5853010 	str	r3, [r5, #16]
  cfx->wrote_header = 1;
    bc8c:	e5d5300c 	ldrb	r3, [r5, #12]
    bc90:	e3c33003 	bic	r3, r3, #3
    bc94:	e3833003 	orr	r3, r3, #3
    bc98:	e5c5300c 	strb	r3, [r5, #12]
}
    bc9c:	eaffff8f 	b	bae0 <cipher_filter_cfb+0x94>
      printf("IOBUFCTRL_FREE\n");
    bca0:	e59f0058 	ldr	r0, [pc, #88]	; bd00 <cipher_filter_cfb+0x2b4>
  int rc = 0;
    bca4:	e3a04000 	mov	r4, #0
      printf("IOBUFCTRL_FREE\n");
    bca8:	e08f0000 	add	r0, pc, r0
    bcac:	eb0015d4 	bl	11404 <tfp_printf>
      _gcry_cipher_close (cfx->cipher_hd);
    bcb0:	e5950008 	ldr	r0, [r5, #8]
    bcb4:	eb000921 	bl	e140 <_gcry_cipher_close>
    bcb8:	eaffff7b 	b	baac <cipher_filter_cfb+0x60>
    printf ("build_packet(ENCR_DATA) failed\n");
    bcbc:	e59f0040 	ldr	r0, [pc, #64]	; bd04 <cipher_filter_cfb+0x2b8>
    bcc0:	e08f0000 	add	r0, pc, r0
    bcc4:	eb0015ce 	bl	11404 <tfp_printf>
    bcc8:	eaffffbb 	b	bbbc <cipher_filter_cfb+0x170>
      rc = -1; /* not used */
    bccc:	e3e04000 	mvn	r4, #0
    bcd0:	eaffff75 	b	baac <cipher_filter_cfb+0x60>
    bcd4:	0000b4fc 	.word	0x0000b4fc
    bcd8:	0000b4f0 	.word	0x0000b4f0
    bcdc:	0000b5a0 	.word	0x0000b5a0
    bce0:	0000b4c4 	.word	0x0000b4c4
    bce4:	0000b52c 	.word	0x0000b52c
    bce8:	0000b50c 	.word	0x0000b50c
    bcec:	0000b45c 	.word	0x0000b45c
    bcf0:	0000b448 	.word	0x0000b448
    bcf4:	0000b41c 	.word	0x0000b41c
    bcf8:	0000b49c 	.word	0x0000b49c
    bcfc:	0000b3b0 	.word	0x0000b3b0
    bd00:	0000b39c 	.word	0x0000b39c
    bd04:	0000b304 	.word	0x0000b304

0000bd08 <decrypt_memory>:
#include "fwddecl.h"
#include "printf.h"
#include "memory.h"


int decrypt_memory(ctrl_t ctrl, const unsigned char* data, size_t length) {
    bd08:	e92d43f0 	push	{r4, r5, r6, r7, r8, r9, lr}
    bd0c:	e1a07000 	mov	r7, r0
    printf("decrypt_memory\n");
    bd10:	e59f010c 	ldr	r0, [pc, #268]	; be24 <decrypt_memory+0x11c>
int decrypt_memory(ctrl_t ctrl, const unsigned char* data, size_t length) {
    bd14:	e24dd014 	sub	sp, sp, #20
    bd18:	e59f8108 	ldr	r8, [pc, #264]	; be28 <decrypt_memory+0x120>
    bd1c:	e1a05002 	mov	r5, r2
    printf("decrypt_memory\n");
    bd20:	e08f0000 	add	r0, pc, r0
int decrypt_memory(ctrl_t ctrl, const unsigned char* data, size_t length) {
    bd24:	e1a06001 	mov	r6, r1
    bd28:	e08f8008 	add	r8, pc, r8
    printf("decrypt_memory\n");
    bd2c:	eb0015b4 	bl	11404 <tfp_printf>
    // printf("Decrypt params:\n");
    // printf("Data ptr: %p\n", (void*)data);
    printf("Session key: %s\n", ctrl->session_key);
    bd30:	e59f00f4 	ldr	r0, [pc, #244]	; be2c <decrypt_memory+0x124>
    // printf("Decrypt params: %d\n",ctrl->enc_length);
    iobuf_t a;
    int rc;
    gnupg_fd_t fp;
    file_filter_ctx_t *fcx;
    size_t len = 0;
    bd34:	e3a04000 	mov	r4, #0
    printf("Session key: %s\n", ctrl->session_key);
    bd38:	e597101c 	ldr	r1, [r7, #28]
    bd3c:	e08f0000 	add	r0, pc, r0
    bd40:	eb0015af 	bl	11404 <tfp_printf>
    ctrl->enc_length=length;
    bd44:	e5875020 	str	r5, [r7, #32]
    const char *opentype = "rb";
    const char *fname = NULL;
    int fd = 0;
    int use = 0;
    /* Create input iobuf from memory */
    a = iobuf_temp_with_content((const char*)data, length);
    bd48:	e1a00006 	mov	r0, r6
    size_t len = 0;
    bd4c:	e58d400c 	str	r4, [sp, #12]
    a = iobuf_temp_with_content((const char*)data, length);
    bd50:	e1a01005 	mov	r1, r5
    bd54:	ebfff2e0 	bl	88dc <iobuf_temp_with_content>
    
    if (!a) {
    bd58:	e2506000 	subs	r6, r0, #0
    bd5c:	0a00002e 	beq	be1c <decrypt_memory+0x114>
        return gpg_error_from_syserror();
    }
    iobuf_fdopen (translate_file_handle (fd, use == IOBUF_INPUT ? 0 : 1),
    bd60:	e59f50c8 	ldr	r5, [pc, #200]	; be30 <decrypt_memory+0x128>
    bd64:	e1a01004 	mov	r1, r4
    bd68:	e1a00004 	mov	r0, r4
    bd6c:	e08f5005 	add	r5, pc, r5
    bd70:	ebfffb36 	bl	aa50 <translate_file_handle>
    bd74:	e1a01005 	mov	r1, r5
    bd78:	ebfff420 	bl	8e00 <iobuf_fdopen>
			 opentype);

	  fp = fd_cache_open (NULL, opentype);
    bd7c:	e1a01005 	mov	r1, r5
    bd80:	e1a00004 	mov	r0, r4
    bd84:	ebfff1a5 	bl	8420 <fd_cache_open>
    bd88:	e1a09000 	mov	r9, r0
    fcx = xmalloc (sizeof *fcx + strlen (fname));
    bd8c:	e1a00004 	mov	r0, r4
    bd90:	eb001b20 	bl	12a18 <strlen>
    bd94:	e2800038 	add	r0, r0, #56	; 0x38
    bd98:	eb000c9f 	bl	f01c <xmalloc>
    fcx->fp = fp;
    fcx->print_only_name = print_only;
    bd9c:	e5804010 	str	r4, [r0, #16]
    fcx = xmalloc (sizeof *fcx + strlen (fname));
    bda0:	e1a05000 	mov	r5, r0
    fcx->fp = fp;
    bda4:	e5809000 	str	r9, [r0]
    strcpy (fcx->fname, fname);
    bda8:	e1a01004 	mov	r1, r4
    bdac:	e2800036 	add	r0, r0, #54	; 0x36
    bdb0:	eb000d0e 	bl	f1f0 <strcpy>
    if (!print_only)
      a->real_fname = xstrdup (fname);
    bdb4:	e1a00004 	mov	r0, r4
    bdb8:	eb000d64 	bl	f350 <xstrdup>
    a->filter = file_filter;
    bdbc:	e59f3070 	ldr	r3, [pc, #112]	; be34 <decrypt_memory+0x12c>
    fcx->no_cache = 1;
    bdc0:	e3a01001 	mov	r1, #1
      a->real_fname = xstrdup (fname);
    bdc4:	e5860038 	str	r0, [r6, #56]	; 0x38
    a->filter_ov = fcx;

    // printf("Added\n");
    file_filter (fcx, IOBUFCTRL_INIT, NULL, NULL, &len);
    bdc8:	e1a02004 	mov	r2, r4
    a->filter = file_filter;
    bdcc:	e7983003 	ldr	r3, [r8, r3]
    file_filter (fcx, IOBUFCTRL_INIT, NULL, NULL, &len);
    bdd0:	e1a00005 	mov	r0, r5
    a->filter = file_filter;
    bdd4:	e586302c 	str	r3, [r6, #44]	; 0x2c
    file_filter (fcx, IOBUFCTRL_INIT, NULL, NULL, &len);
    bdd8:	e28d300c 	add	r3, sp, #12
    fcx->no_cache = 1;
    bddc:	e5851008 	str	r1, [r5, #8]
    a->filter_ov = fcx;
    bde0:	e5865030 	str	r5, [r6, #48]	; 0x30
    file_filter (fcx, IOBUFCTRL_INIT, NULL, NULL, &len);
    bde4:	e58d3000 	str	r3, [sp]
    bde8:	e1a03004 	mov	r3, r4
    bdec:	ebfff0b7 	bl	80d0 <file_filter>
    //     iobuf_close(a);
    //     return rc;
    // }

    /* Process encryption packets */
    rc = proc_encryption_packets(ctrl, NULL, a);
    bdf0:	e1a01004 	mov	r1, r4
    bdf4:	e1a02006 	mov	r2, r6
    bdf8:	e1a00007 	mov	r0, r7
    bdfc:	eb001e14 	bl	13654 <proc_encryption_packets>
    be00:	e1a04000 	mov	r4, r0
    // return -1;
    printf("\n\nEND decrypt_memory\n\n");
    be04:	e59f002c 	ldr	r0, [pc, #44]	; be38 <decrypt_memory+0x130>
    be08:	e08f0000 	add	r0, pc, r0
    be0c:	eb00157c 	bl	11404 <tfp_printf>
    /* Clean up */
    // iobuf_close(a);
    return rc;
}
    be10:	e1a00004 	mov	r0, r4
    be14:	e28dd014 	add	sp, sp, #20
    be18:	e8bd83f0 	pop	{r4, r5, r6, r7, r8, r9, pc}
        return gpg_error_from_syserror();
    be1c:	e3e04000 	mvn	r4, #0
    be20:	eafffffa 	b	be10 <decrypt_memory+0x108>
    be24:	0000b360 	.word	0x0000b360
    be28:	0002fc94 	.word	0x0002fc94
    be2c:	0000b354 	.word	0x0000b354
    be30:	0000a3b4 	.word	0x0000a3b4
    be34:	00000044 	.word	0x00000044
    be38:	0000b29c 	.word	0x0000b29c

0000be3c <decrypt_message>:
 * writes to the filename which is included in the file and it
 * rejects files which don't begin with an encrypted message.
 */
int
decrypt_message (ctrl_t ctrl, const char *filename)
{
    be3c:	e92d4070 	push	{r4, r5, r6, lr}
    be40:	e1a05000 	mov	r5, r0
  printf("decrypt_message filename:%s\n",filename);
    be44:	e59f0070 	ldr	r0, [pc, #112]	; bebc <decrypt_message+0x80>
{
    be48:	e1a04001 	mov	r4, r1
    be4c:	e59f606c 	ldr	r6, [pc, #108]	; bec0 <decrypt_message+0x84>
  printf("decrypt_message filename:%s\n",filename);
    be50:	e08f0000 	add	r0, pc, r0
{
    be54:	e08f6006 	add	r6, pc, r6
  printf("decrypt_message filename:%s\n",filename);
    be58:	eb001569 	bl	11404 <tfp_printf>
  int rc;

//   pfx = new_progress_context ();

  /* Open the message file.  */
  fp = iobuf_open (filename);
    be5c:	e1a00004 	mov	r0, r4
    be60:	ebfff2b9 	bl	894c <iobuf_open>
    be64:	e1a04000 	mov	r4, r0
//     }else{
//       printf("ELSE\n");
//     }

// instead:
iobuf_get_fd (fp);
    be68:	ebfff9b3 	bl	a53c <iobuf_get_fd>
  if ( !fp )
    be6c:	e3540000 	cmp	r4, #0
    be70:	0a00000f 	beq	beb4 <decrypt_message+0x78>
//       opt.outfile = "-";
//       opt.flags.dummy_outfile = 1;
//     }
//   else
//     opt.flags.dummy_outfile = 0;
  printf("opt.outfile:%s\n",opt.outfile);
    be74:	e59f3048 	ldr	r3, [pc, #72]	; bec4 <decrypt_message+0x88>
    be78:	e59f0048 	ldr	r0, [pc, #72]	; bec8 <decrypt_message+0x8c>
    be7c:	e7963003 	ldr	r3, [r6, r3]
    be80:	e08f0000 	add	r0, pc, r0
    be84:	e5931010 	ldr	r1, [r3, #16]
    be88:	eb00155d 	bl	11404 <tfp_printf>
  rc = proc_encryption_packets (ctrl, NULL, fp );
    be8c:	e1a02004 	mov	r2, r4
    be90:	e3a01000 	mov	r1, #0
    be94:	e1a00005 	mov	r0, r5
    be98:	eb001ded 	bl	13654 <proc_encryption_packets>
    be9c:	e1a03000 	mov	r3, r0
//   if (opt.flags.dummy_outfile)
//     opt.outfile = NULL;

  iobuf_close (fp);
    bea0:	e1a00004 	mov	r0, r4
  rc = proc_encryption_packets (ctrl, NULL, fp );
    bea4:	e1a04003 	mov	r4, r3
  iobuf_close (fp);
    bea8:	ebfff232 	bl	8778 <iobuf_close>
//   release_armor_context (afx);
//   release_progress_context (pfx);
  return rc;
}
    beac:	e1a00004 	mov	r0, r4
    beb0:	e8bd8070 	pop	{r4, r5, r6, pc}
      return rc;
    beb4:	e3e04000 	mvn	r4, #0
    beb8:	eafffffb 	b	beac <decrypt_message+0x70>
    bebc:	0000b26c 	.word	0x0000b26c
    bec0:	0002fb68 	.word	0x0002fb68
    bec4:	0000002c 	.word	0x0000002c
    bec8:	0000b25c 	.word	0x0000b25c

0000becc <release_dfx_context>:
typedef struct decode_filter_context_s *decode_filter_ctx_t;

/* Helper to release the decode context.  */
static void
release_dfx_context(decode_filter_ctx_t dfx)
{
    becc:	e92d4070 	push	{r4, r5, r6, lr}
  if (!dfx)
    bed0:	e2504000 	subs	r4, r0, #0
    bed4:	08bd8070 	popeq	{r4, r5, r6, pc}
    return;

  printf(dfx->refcount);
    bed8:	e5940000 	ldr	r0, [r4]
    bedc:	eb001548 	bl	11404 <tfp_printf>
  if (!--dfx->refcount)
    bee0:	e5945000 	ldr	r5, [r4]
    bee4:	e2455001 	sub	r5, r5, #1
    bee8:	e5845000 	str	r5, [r4]
    beec:	e3550000 	cmp	r5, #0
    bef0:	18bd8070 	popne	{r4, r5, r6, pc}
  {
    // gcry_cipher_close (dfx->cipher_hd);
    xfree(dfx->cipher_hd);
    bef4:	e5940004 	ldr	r0, [r4, #4]
    bef8:	eb000c3b 	bl	efec <xfree>
    dfx->cipher_hd = NULL;
    // gcry_md_close (dfx->mdc_hash);
    xfree(dfx->mdc_hash);
    befc:	e5940008 	ldr	r0, [r4, #8]
    dfx->cipher_hd = NULL;
    bf00:	e5845004 	str	r5, [r4, #4]
    xfree(dfx->mdc_hash);
    bf04:	eb000c38 	bl	efec <xfree>
    dfx->mdc_hash = NULL;
    bf08:	e5845008 	str	r5, [r4, #8]
    xfree(dfx);
    bf0c:	e1a00004 	mov	r0, r4
  }
}
    bf10:	e8bd4070 	pop	{r4, r5, r6, lr}
    xfree(dfx);
    bf14:	ea000c34 	b	efec <xfree>

0000bf18 <decode_filter>:
//   return rc;
// }

static int
decode_filter(void *opaque, int control, IOBUF a, byte *buf, size_t *ret_len)
{
    bf18:	e92d47f0 	push	{r4, r5, r6, r7, r8, r9, sl, lr}
    bf1c:	e24dd008 	sub	sp, sp, #8
    bf20:	e1a05000 	mov	r5, r0
    bf24:	e1a04001 	mov	r4, r1
    bf28:	e59d9028 	ldr	r9, [sp, #40]	; 0x28
    bf2c:	e1a07002 	mov	r7, r2
    decode_filter_ctx_t fc = opaque;

  printf("decode_filter control %d, ret_len=%d len=%d\n",control,*ret_len, fc->length);
    bf30:	e59f01e4 	ldr	r0, [pc, #484]	; c11c <decode_filter+0x204>
{
    bf34:	e1a06003 	mov	r6, r3
  printf("decode_filter control %d, ret_len=%d len=%d\n",control,*ret_len, fc->length);
    bf38:	e5992000 	ldr	r2, [r9]
    bf3c:	e08f0000 	add	r0, pc, r0
    bf40:	e5953078 	ldr	r3, [r5, #120]	; 0x78
    bf44:	eb00152e 	bl	11404 <tfp_printf>
  size_t size = *ret_len;
  // size_t size = fc->length;//*ret_len;
  size_t n;
  int rc = 0;

  if (control == IOBUFCTRL_UNDERFLOW && fc->eof_seen)
    bf48:	e3540003 	cmp	r4, #3
    bf4c:	0a000004 	beq	bf64 <decode_filter+0x4c>
        fc->eof_seen = 1;
      rc = -1; /* Return EOF. */
    }
    *ret_len = n;
  }
  else if (control == IOBUFCTRL_FREE)
    bf50:	e3540002 	cmp	r4, #2
  int rc = 0;
    bf54:	13a00000 	movne	r0, #0
  else if (control == IOBUFCTRL_FREE)
    bf58:	0a000046 	beq	c078 <decode_filter+0x160>
  else if (control == IOBUFCTRL_DESC)
  {
    //      mem2str (buf, "decode_filter", *ret_len);
  }
  return rc;
}
    bf5c:	e28dd008 	add	sp, sp, #8
    bf60:	e8bd87f0 	pop	{r4, r5, r6, r7, r8, r9, sl, pc}
  if (control == IOBUFCTRL_UNDERFLOW && fc->eof_seen)
    bf64:	e5d54050 	ldrb	r4, [r5, #80]	; 0x50
    bf68:	e214a006 	ands	sl, r4, #6
    bf6c:	1a000063 	bne	c100 <decode_filter+0x1e8>
    printf("control == IOBUFCTRL_UNDERFLOW\n");
    bf70:	e59f01a8 	ldr	r0, [pc, #424]	; c120 <decode_filter+0x208>
  size_t size = *ret_len;
    bf74:	e5998000 	ldr	r8, [r9]
    printf("control == IOBUFCTRL_UNDERFLOW\n");
    bf78:	e08f0000 	add	r0, pc, r0
    bf7c:	eb001520 	bl	11404 <tfp_printf>
  printf("fill_buffer\n");
    bf80:	e59f019c 	ldr	r0, [pc, #412]	; c124 <decode_filter+0x20c>
    bf84:	e08f0000 	add	r0, pc, r0
    bf88:	eb00151d 	bl	11404 <tfp_printf>
  if (dfx->partial)
    bf8c:	e5d53050 	ldrb	r3, [r5, #80]	; 0x50
    bf90:	e2134001 	ands	r4, r3, #1
    bf94:	1a000024 	bne	c02c <decode_filter+0x114>
    while (nread < nbytes && dfx->length)
    bf98:	e3580000 	cmp	r8, #0
    bf9c:	0a000050 	beq	c0e4 <decode_filter+0x1cc>
    bfa0:	e595c078 	ldr	ip, [r5, #120]	; 0x78
    bfa4:	ea00000b 	b	bfd8 <decode_filter+0xc0>
      ret = iobuf_read(stream, &buffer[nread], curr);
    bfa8:	e152000c 	cmp	r2, ip
    bfac:	e1a00007 	mov	r0, r7
    bfb0:	21a0200c 	movcs	r2, ip
    bfb4:	ebfff5c6 	bl	96d4 <iobuf_read>
      if (ret == -1)
    bfb8:	e3700001 	cmn	r0, #1
    bfbc:	0a000041 	beq	c0c8 <decode_filter+0x1b0>
      dfx->length -= ret;
    bfc0:	e595c078 	ldr	ip, [r5, #120]	; 0x78
      nread += ret;
    bfc4:	e0844000 	add	r4, r4, r0
    while (nread < nbytes && dfx->length)
    bfc8:	e1580004 	cmp	r8, r4
      dfx->length -= ret;
    bfcc:	e04cc000 	sub	ip, ip, r0
    bfd0:	e585c078 	str	ip, [r5, #120]	; 0x78
    while (nread < nbytes && dfx->length)
    bfd4:	9a00003f 	bls	c0d8 <decode_filter+0x1c0>
      curr = nbytes - nread;
    bfd8:	e0482004 	sub	r2, r8, r4
    while (nread < nbytes && dfx->length)
    bfdc:	e35c0000 	cmp	ip, #0
      ret = iobuf_read(stream, &buffer[nread], curr);
    bfe0:	e0861004 	add	r1, r6, r4
    while (nread < nbytes && dfx->length)
    bfe4:	1affffef 	bne	bfa8 <decode_filter+0x90>
      dfx->eof_seen = 1; /* Normal EOF.  */
    bfe8:	e5d53050 	ldrb	r3, [r5, #80]	; 0x50
    bfec:	e3a02001 	mov	r2, #1
    bff0:	e7c23092 	bfi	r3, r2, #1, #2
    bff4:	e5c53050 	strb	r3, [r5, #80]	; 0x50
    if (n)
    bff8:	e3540000 	cmp	r4, #0
    bffc:	1a000022 	bne	c08c <decode_filter+0x174>
      if (!fc->eof_seen)
    c000:	e5d53050 	ldrb	r3, [r5, #80]	; 0x50
    c004:	e2134006 	ands	r4, r3, #6
      rc = -1; /* Return EOF. */
    c008:	e3e00000 	mvn	r0, #0
        fc->eof_seen = 1;
    c00c:	03a02001 	moveq	r2, #1
    c010:	13a04000 	movne	r4, #0
    c014:	05d53050 	ldrbeq	r3, [r5, #80]	; 0x50
    c018:	07c23092 	bfieq	r3, r2, #1, #2
    c01c:	05c53050 	strbeq	r3, [r5, #80]	; 0x50
    *ret_len = n;
    c020:	e5894000 	str	r4, [r9]
}
    c024:	e28dd008 	add	sp, sp, #8
    c028:	e8bd87f0 	pop	{r4, r5, r6, r7, r8, r9, sl, pc}
      printf("dfx->partial nread=%zu nbytes=%zu\n", nread, nbytes);
    c02c:	e59f00f4 	ldr	r0, [pc, #244]	; c128 <decode_filter+0x210>
    c030:	e1a02008 	mov	r2, r8
    c034:	e1a0100a 	mov	r1, sl
    c038:	e08f0000 	add	r0, pc, r0
    c03c:	eb0014f0 	bl	11404 <tfp_printf>
    while (nread < nbytes)
    c040:	e3580000 	cmp	r8, #0
  size_t nread = offset;
    c044:	11a0400a 	movne	r4, sl
    while (nread < nbytes)
    c048:	1a000003 	bne	c05c <decode_filter+0x144>
    c04c:	eaffffeb 	b	c000 <decode_filter+0xe8>
      nread += ret;
    c050:	e0844000 	add	r4, r4, r0
    while (nread < nbytes)
    c054:	e1580004 	cmp	r8, r4
    c058:	9a00000b 	bls	c08c <decode_filter+0x174>
      ret = iobuf_read(stream, &buffer[nread], curr);
    c05c:	e0482004 	sub	r2, r8, r4
    c060:	e1a00007 	mov	r0, r7
    c064:	e0861004 	add	r1, r6, r4
    c068:	ebfff599 	bl	96d4 <iobuf_read>
      if (ret == -1)
    c06c:	e3700001 	cmn	r0, #1
    c070:	1afffff6 	bne	c050 <decode_filter+0x138>
    c074:	eaffffdb 	b	bfe8 <decode_filter+0xd0>
    release_dfx_context(fc);
    c078:	e1a00005 	mov	r0, r5
    c07c:	ebffff92 	bl	becc <release_dfx_context>
  int rc = 0;
    c080:	e3a00000 	mov	r0, #0
}
    c084:	e28dd008 	add	sp, sp, #8
    c088:	e8bd87f0 	pop	{r4, r5, r6, r7, r8, r9, sl, pc}
      if (fc->cipher_hd)
    c08c:	e5950004 	ldr	r0, [r5, #4]
    c090:	e3500000 	cmp	r0, #0
    c094:	0a000003 	beq	c0a8 <decode_filter+0x190>
          printf("cipher_hd is allocated\n");
    c098:	e59f008c 	ldr	r0, [pc, #140]	; c12c <decode_filter+0x214>
    c09c:	e08f0000 	add	r0, pc, r0
    c0a0:	eb0014d7 	bl	11404 <tfp_printf>
        _gcry_cipher_decrypt (fc->cipher_hd, buf, n, NULL, 0);
    c0a4:	e5950004 	ldr	r0, [r5, #4]
    c0a8:	e3a05000 	mov	r5, #0
    c0ac:	e1a01006 	mov	r1, r6
    c0b0:	e58d5000 	str	r5, [sp]
    c0b4:	e1a03005 	mov	r3, r5
    c0b8:	e1a02004 	mov	r2, r4
    c0bc:	eb000a25 	bl	e958 <_gcry_cipher_decrypt>
  int rc = 0;
    c0c0:	e1a00005 	mov	r0, r5
    c0c4:	eaffffd5 	b	c020 <decode_filter+0x108>
        dfx->eof_seen = 3; /* Premature EOF. */
    c0c8:	e5d53050 	ldrb	r3, [r5, #80]	; 0x50
    if (!dfx->length)
    c0cc:	e595c078 	ldr	ip, [r5, #120]	; 0x78
        dfx->eof_seen = 3; /* Premature EOF. */
    c0d0:	e3833006 	orr	r3, r3, #6
    c0d4:	e5c53050 	strb	r3, [r5, #80]	; 0x50
    if (!dfx->length)
    c0d8:	e35c0000 	cmp	ip, #0
    c0dc:	1affffc5 	bne	bff8 <decode_filter+0xe0>
    c0e0:	eaffffc0 	b	bfe8 <decode_filter+0xd0>
    c0e4:	e5952078 	ldr	r2, [r5, #120]	; 0x78
    c0e8:	e3520000 	cmp	r2, #0
      dfx->eof_seen = 1; /* Normal EOF.  */
    c0ec:	03a02001 	moveq	r2, #1
    c0f0:	07c23092 	bfieq	r3, r2, #1, #2
    c0f4:	05c53050 	strbeq	r3, [r5, #80]	; 0x50
      if (!fc->eof_seen)
    c0f8:	06ef3073 	uxtbeq	r3, r3
    c0fc:	eaffffc0 	b	c004 <decode_filter+0xec>
    printf("IOBUFCTRL_UNDERFLOW && fc->eof_seen\n");;
    c100:	e59f0028 	ldr	r0, [pc, #40]	; c130 <decode_filter+0x218>
    c104:	e08f0000 	add	r0, pc, r0
    c108:	eb0014bd 	bl	11404 <tfp_printf>
    *ret_len = 0;
    c10c:	e3a03000 	mov	r3, #0
    rc = -1;
    c110:	e3e00000 	mvn	r0, #0
    *ret_len = 0;
    c114:	e5893000 	str	r3, [r9]
    rc = -1;
    c118:	eaffff8f 	b	bf5c <decode_filter+0x44>
    c11c:	0000b1b0 	.word	0x0000b1b0
    c120:	0000b1cc 	.word	0x0000b1cc
    c124:	0000b1e0 	.word	0x0000b1e0
    c128:	0000b13c 	.word	0x0000b13c
    c12c:	0000b0fc 	.word	0x0000b0fc
    c130:	0000b018 	.word	0x0000b018

0000c134 <decrypt_data>:
{
    c134:	e92d47f0 	push	{r4, r5, r6, r7, r8, r9, sl, lr}
    c138:	e24dd030 	sub	sp, sp, #48	; 0x30
    c13c:	e1a07000 	mov	r7, r0
  *compliance_error = 0;
    c140:	e3a06000 	mov	r6, #0
  printf("decrypt_data\n");
    c144:	e59f033c 	ldr	r0, [pc, #828]	; c488 <decrypt_data+0x354>
{
    c148:	e1a08001 	mov	r8, r1
    c14c:	e59d9050 	ldr	r9, [sp, #80]	; 0x50
    c150:	e1a04002 	mov	r4, r2
  printf("decrypt_data\n");
    c154:	e08f0000 	add	r0, pc, r0
{
    c158:	e1a05003 	mov	r5, r3
  printf("decrypt_data\n");
    c15c:	eb0014a8 	bl	11404 <tfp_printf>
  *compliance_error = 0;
    c160:	e5896000 	str	r6, [r9]
  dfx = xtrycalloc(1, sizeof *dfx);
    c164:	e3a01080 	mov	r1, #128	; 0x80
    c168:	e3a00001 	mov	r0, #1
    c16c:	eb000c25 	bl	f208 <xtrycalloc>
  if (!dfx)
    c170:	e1500006 	cmp	r0, r6
  dfx = xtrycalloc(1, sizeof *dfx);
    c174:	e58d000c 	str	r0, [sp, #12]
  if (!dfx)
    c178:	0a0000c0 	beq	c480 <decrypt_data+0x34c>
  printf("decrypt_data %d\n",dfx->length);
    c17c:	e5901078 	ldr	r1, [r0, #120]	; 0x78
  dfx->refcount = 1;
    c180:	e3a03001 	mov	r3, #1
    c184:	e5803000 	str	r3, [r0]
  printf("decrypt_data %d\n",dfx->length);
    c188:	e59f02fc 	ldr	r0, [pc, #764]	; c48c <decrypt_data+0x358>
    c18c:	e08f0000 	add	r0, pc, r0
    c190:	eb00149b 	bl	11404 <tfp_printf>
  printf(STATUS_DECRYPTION_INFO, "%d %d %d",
    c194:	e59f12f4 	ldr	r1, [pc, #756]	; c490 <decrypt_data+0x35c>
    c198:	e3a00017 	mov	r0, #23
    c19c:	e58d6000 	str	r6, [sp]
    c1a0:	e08f1001 	add	r1, pc, r1
    c1a4:	e5953000 	ldr	r3, [r5]
    c1a8:	e5d4200a 	ldrb	r2, [r4, #10]
    c1ac:	eb001494 	bl	11404 <tfp_printf>
  if (ed->aead_algo)
    c1b0:	e5d4900b 	ldrb	r9, [r4, #11]
    c1b4:	e3590000 	cmp	r9, #0
    c1b8:	1a000059 	bne	c324 <decrypt_data+0x1f0>
    if (ed->len && ed->len < (nprefix + 2))
    c1bc:	e5943000 	ldr	r3, [r4]
    c1c0:	e2433001 	sub	r3, r3, #1
    c1c4:	e3530008 	cmp	r3, #8
    c1c8:	9a000084 	bls	c3e0 <decrypt_data+0x2ac>
    memset(&dfx, 0, sizeof dfx);
    c1cc:	e3a02004 	mov	r2, #4
    c1d0:	e1a01009 	mov	r1, r9
    c1d4:	e28d000c 	add	r0, sp, #12
    c1d8:	eb000b86 	bl	eff8 <memset>
    dfx->cipher_hd = malloc(sizeof(struct gcry_cipher_handle));
    c1dc:	e59d600c 	ldr	r6, [sp, #12]
    c1e0:	e3a00040 	mov	r0, #64	; 0x40
    c1e4:	eb000b1f 	bl	ee68 <malloc>
    if (!dfx->cipher_hd)
    c1e8:	e59d300c 	ldr	r3, [sp, #12]
    dfx->cipher_hd = malloc(sizeof(struct gcry_cipher_handle));
    c1ec:	e5860004 	str	r0, [r6, #4]
    if (!dfx->cipher_hd)
    c1f0:	e5930004 	ldr	r0, [r3, #4]
    c1f4:	e3500000 	cmp	r0, #0
    c1f8:	0a0000a0 	beq	c480 <decrypt_data+0x34c>
    memset(dfx->cipher_hd, 0, sizeof(struct gcry_cipher_handle));
    c1fc:	e3a02040 	mov	r2, #64	; 0x40
    c200:	e1a01009 	mov	r1, r9
    c204:	eb000b7b 	bl	eff8 <memset>
    rc = _gcry_cipher_setkey(dfx->cipher_hd, dek->key, dek->keylen);
    c208:	e59d300c 	ldr	r3, [sp, #12]
    c20c:	e2851009 	add	r1, r5, #9
    c210:	e5952004 	ldr	r2, [r5, #4]
    c214:	e5930004 	ldr	r0, [r3, #4]
    c218:	eb0007b7 	bl	e0fc <_gcry_cipher_setkey>
    if (!ed->buf)
    c21c:	e5943010 	ldr	r3, [r4, #16]
    rc = _gcry_cipher_setkey(dfx->cipher_hd, dek->key, dek->keylen);
    c220:	e1a06000 	mov	r6, r0
    if (!ed->buf)
    c224:	e3530000 	cmp	r3, #0
    c228:	0a000065 	beq	c3c4 <decrypt_data+0x290>
    _gcry_cipher_setiv(dfx->cipher_hd, NULL, 8);
    c22c:	e59d300c 	ldr	r3, [sp, #12]
    c230:	e1a01009 	mov	r1, r9
    c234:	e3a02008 	mov	r2, #8
    c238:	e5930004 	ldr	r0, [r3, #4]
    c23c:	eb0007c2 	bl	e14c <_gcry_cipher_setiv>
    if (ed->len)
    c240:	e5941000 	ldr	r1, [r4]
    c244:	e3510000 	cmp	r1, #0
    c248:	028da00f 	addeq	sl, sp, #15
    c24c:	028d9019 	addeq	r9, sp, #25
    c250:	0a000009 	beq	c27c <decrypt_data+0x148>
    c254:	ea000065 	b	c3f0 <decrypt_data+0x2bc>
          if ((c = iobuf_get(ed->buf)) == -1) {
    c258:	e5821018 	str	r1, [r2, #24]
    c25c:	e5921008 	ldr	r1, [r2, #8]
    c260:	e5920020 	ldr	r0, [r2, #32]
    c264:	e2811001 	add	r1, r1, #1
    c268:	e5821008 	str	r1, [r2, #8]
    c26c:	e7d00003 	ldrb	r0, [r0, r3]
              temp[i] = c;
    c270:	e5ea0001 	strb	r0, [sl, #1]!
      for (i = 0; i < (nprefix + 2); i++) {
    c274:	e15a0009 	cmp	sl, r9
    c278:	0a00000d 	beq	c2b4 <decrypt_data+0x180>
          if ((c = iobuf_get(ed->buf)) == -1) {
    c27c:	e5942010 	ldr	r2, [r4, #16]
    c280:	e5923010 	ldr	r3, [r2, #16]
    c284:	e1a00002 	mov	r0, r2
    c288:	e3530000 	cmp	r3, #0
    c28c:	1a000004 	bne	c2a4 <decrypt_data+0x170>
    c290:	e5923018 	ldr	r3, [r2, #24]
    c294:	e592101c 	ldr	r1, [r2, #28]
    c298:	e1530001 	cmp	r3, r1
    c29c:	e2831001 	add	r1, r3, #1
    c2a0:	3affffec 	bcc	c258 <decrypt_data+0x124>
    c2a4:	ebfff451 	bl	93f0 <iobuf_readbyte>
    c2a8:	e3700001 	cmn	r0, #1
              temp[i] = c;
    c2ac:	e6ef0070 	uxtb	r0, r0
          if ((c = iobuf_get(ed->buf)) == -1) {
    c2b0:	1affffee 	bne	c270 <decrypt_data+0x13c>
    _gcry_cipher_decrypt(dfx->cipher_hd, temp, nprefix + 2, NULL, 0);
    c2b4:	e59d300c 	ldr	r3, [sp, #12]
    c2b8:	e3a0200a 	mov	r2, #10
    c2bc:	e28d1010 	add	r1, sp, #16
    c2c0:	e5930004 	ldr	r0, [r3, #4]
    c2c4:	e3a03000 	mov	r3, #0
    c2c8:	e58d3000 	str	r3, [sp]
    c2cc:	eb0009a1 	bl	e958 <_gcry_cipher_decrypt>
    cipher_sync(dfx->cipher_hd);
    c2d0:	e59d300c 	ldr	r3, [sp, #12]
    c2d4:	e5930004 	ldr	r0, [r3, #4]
    c2d8:	eb0007a6 	bl	e178 <cipher_sync>
    if (dek->symmetric && (p[nprefix - 2] != p[nprefix] || p[nprefix - 1] != p[nprefix + 1]))
    c2dc:	e5d53008 	ldrb	r3, [r5, #8]
    c2e0:	e3130040 	tst	r3, #64	; 0x40
    c2e4:	0a000015 	beq	c340 <decrypt_data+0x20c>
    c2e8:	e5dd2016 	ldrb	r2, [sp, #22]
    c2ec:	e5dd3018 	ldrb	r3, [sp, #24]
    c2f0:	e1520003 	cmp	r2, r3
    c2f4:	1a000003 	bne	c308 <decrypt_data+0x1d4>
    c2f8:	e5dd2017 	ldrb	r2, [sp, #23]
    c2fc:	e5dd3019 	ldrb	r3, [sp, #25]
    c300:	e1520003 	cmp	r2, r3
    c304:	0a00000d 	beq	c340 <decrypt_data+0x20c>
      printf("\n\nBAD KEY!\n\n");
    c308:	e59f0184 	ldr	r0, [pc, #388]	; c494 <decrypt_data+0x360>
      rc = gpg_error(GPG_ERR_BAD_KEY);
    c30c:	e3a06013 	mov	r6, #19
    c310:	e3406200 	movt	r6, #512	; 0x200
      printf("\n\nBAD KEY!\n\n");
    c314:	e08f0000 	add	r0, pc, r0
    c318:	eb001439 	bl	11404 <tfp_printf>
  release_dfx_context(dfx);
    c31c:	e59d000c 	ldr	r0, [sp, #12]
      goto leave;
    c320:	ea000002 	b	c330 <decrypt_data+0x1fc>
  release_dfx_context(dfx);
    c324:	e59d000c 	ldr	r0, [sp, #12]
      rc = gpg_error(GPG_ERR_CIPHER_ALGO);
    c328:	e3a0600c 	mov	r6, #12
    c32c:	e3406200 	movt	r6, #512	; 0x200
  release_dfx_context(dfx);
    c330:	ebfffee5 	bl	becc <release_dfx_context>
}
    c334:	e1a00006 	mov	r0, r6
    c338:	e28dd030 	add	sp, sp, #48	; 0x30
    c33c:	e8bd87f0 	pop	{r4, r5, r6, r7, r8, r9, sl, pc}
      printf("\n\nGOOD KEY!\n\n");
    c340:	e59f0150 	ldr	r0, [pc, #336]	; c498 <decrypt_data+0x364>
    c344:	e08f0000 	add	r0, pc, r0
    c348:	eb00142d 	bl	11404 <tfp_printf>
  dfx->refcount++;
    c34c:	e59d200c 	ldr	r2, [sp, #12]
  iobuf_push_filter(ed->buf, decode_filter, dfx);
    c350:	e5940010 	ldr	r0, [r4, #16]
  dfx->refcount++;
    c354:	e5923000 	ldr	r3, [r2]
  dfx->partial = !!ed->is_partial;
    c358:	e5d2c050 	ldrb	ip, [r2, #80]	; 0x50
  iobuf_push_filter(ed->buf, decode_filter, dfx);
    c35c:	e59f1138 	ldr	r1, [pc, #312]	; c49c <decrypt_data+0x368>
  dfx->refcount++;
    c360:	e2833001 	add	r3, r3, #1
    c364:	e5823000 	str	r3, [r2]
  dfx->partial = !!ed->is_partial;
    c368:	e5d43009 	ldrb	r3, [r4, #9]
  iobuf_push_filter(ed->buf, decode_filter, dfx);
    c36c:	e08f1001 	add	r1, pc, r1
  dfx->partial = !!ed->is_partial;
    c370:	e2533000 	subs	r3, r3, #0
    c374:	13a03001 	movne	r3, #1
    c378:	e7c0c013 	bfi	ip, r3, #0, #1
    c37c:	e5c2c050 	strb	ip, [r2, #80]	; 0x50
  dfx->length = ed->len;
    c380:	e5943000 	ldr	r3, [r4]
    c384:	e5823078 	str	r3, [r2, #120]	; 0x78
  iobuf_push_filter(ed->buf, decode_filter, dfx);
    c388:	ebfff359 	bl	90f4 <iobuf_push_filter>
  proc_packets(ctrl, procctx, ed->buf);
    c38c:	e5942010 	ldr	r2, [r4, #16]
    c390:	e1a01008 	mov	r1, r8
    c394:	e1a00007 	mov	r0, r7
    c398:	eb001c97 	bl	135fc <proc_packets>
  if (dfx->eof_seen > 1)
    c39c:	e59d000c 	ldr	r0, [sp, #12]
    rc = gpg_error(GPG_ERR_INV_PACKET);
    c3a0:	e3a0200e 	mov	r2, #14
    c3a4:	e3402200 	movt	r2, #512	; 0x200
  ed->buf = NULL;
    c3a8:	e3a01000 	mov	r1, #0
  if (dfx->eof_seen > 1)
    c3ac:	e5d03050 	ldrb	r3, [r0, #80]	; 0x50
  ed->buf = NULL;
    c3b0:	e5841010 	str	r1, [r4, #16]
  if (dfx->eof_seen > 1)
    c3b4:	e7e130d3 	ubfx	r3, r3, #1, #2
    rc = gpg_error(GPG_ERR_INV_PACKET);
    c3b8:	e3530001 	cmp	r3, #1
    c3bc:	81a06002 	movhi	r6, r2
    c3c0:	eaffffda 	b	c330 <decrypt_data+0x1fc>
      printf(("problem handling encrypted packet\n"));
    c3c4:	e59f00d4 	ldr	r0, [pc, #212]	; c4a0 <decrypt_data+0x36c>
      rc = gpg_error(GPG_ERR_INV_PACKET);
    c3c8:	e3a0600e 	mov	r6, #14
    c3cc:	e3406200 	movt	r6, #512	; 0x200
      printf(("problem handling encrypted packet\n"));
    c3d0:	e08f0000 	add	r0, pc, r0
    c3d4:	eb00140a 	bl	11404 <tfp_printf>
  release_dfx_context(dfx);
    c3d8:	e59d000c 	ldr	r0, [sp, #12]
      goto leave;
    c3dc:	eaffffd3 	b	c330 <decrypt_data+0x1fc>
  release_dfx_context(dfx);
    c3e0:	e59d000c 	ldr	r0, [sp, #12]
      rc = gpg_error(GPG_ERR_INV_PACKET);
    c3e4:	e3a0600e 	mov	r6, #14
    c3e8:	e3406200 	movt	r6, #512	; 0x200
    c3ec:	eaffffcf 	b	c330 <decrypt_data+0x1fc>
      printf("ed->len: %d\n", ed->len);
    c3f0:	e59f00ac 	ldr	r0, [pc, #172]	; c4a4 <decrypt_data+0x370>
    c3f4:	e28da00f 	add	sl, sp, #15
    c3f8:	e28d9019 	add	r9, sp, #25
    c3fc:	e08f0000 	add	r0, pc, r0
    c400:	eb0013ff 	bl	11404 <tfp_printf>
      for (i = 0; i < (nprefix + 2) && ed->len; i++, ed->len--)
    c404:	e5942000 	ldr	r2, [r4]
    c408:	ea00000a 	b	c438 <decrypt_data+0x304>
        if ((c = iobuf_get(ed->buf)) == -1)
    c40c:	e5930008 	ldr	r0, [r3, #8]
    c410:	e583c018 	str	ip, [r3, #24]
    c414:	e593c020 	ldr	ip, [r3, #32]
    c418:	e2800001 	add	r0, r0, #1
    c41c:	e5830008 	str	r0, [r3, #8]
    c420:	e7dc0001 	ldrb	r0, [ip, r1]
          temp[i] = c;
    c424:	e5ea0001 	strb	r0, [sl, #1]!
      for (i = 0; i < (nprefix + 2) && ed->len; i++, ed->len--)
    c428:	e2422001 	sub	r2, r2, #1
    c42c:	e159000a 	cmp	r9, sl
    c430:	e5842000 	str	r2, [r4]
    c434:	0affff9e 	beq	c2b4 <decrypt_data+0x180>
    c438:	e3520000 	cmp	r2, #0
    c43c:	0affff9c 	beq	c2b4 <decrypt_data+0x180>
        if ((c = iobuf_get(ed->buf)) == -1)
    c440:	e5943010 	ldr	r3, [r4, #16]
    c444:	e5931010 	ldr	r1, [r3, #16]
    c448:	e1a00003 	mov	r0, r3
    c44c:	e3510000 	cmp	r1, #0
    c450:	1a000004 	bne	c468 <decrypt_data+0x334>
    c454:	e5931018 	ldr	r1, [r3, #24]
    c458:	e593c01c 	ldr	ip, [r3, #28]
    c45c:	e151000c 	cmp	r1, ip
    c460:	e281c001 	add	ip, r1, #1
    c464:	3affffe8 	bcc	c40c <decrypt_data+0x2d8>
    c468:	ebfff3e0 	bl	93f0 <iobuf_readbyte>
    c46c:	e3700001 	cmn	r0, #1
          temp[i] = c;
    c470:	e6ef0070 	uxtb	r0, r0
        if ((c = iobuf_get(ed->buf)) == -1)
    c474:	0affff8e 	beq	c2b4 <decrypt_data+0x180>
      for (i = 0; i < (nprefix + 2) && ed->len; i++, ed->len--)
    c478:	e5942000 	ldr	r2, [r4]
    c47c:	eaffffe8 	b	c424 <decrypt_data+0x2f0>
    return gpg_error_from_syserror();
    c480:	e3e06000 	mvn	r6, #0
    c484:	eaffffaa 	b	c334 <decrypt_data+0x200>
    c488:	0000b05c 	.word	0x0000b05c
    c48c:	0000b034 	.word	0x0000b034
    c490:	0000b034 	.word	0x0000b034
    c494:	0000af00 	.word	0x0000af00
    c498:	0000aee0 	.word	0x0000aee0
    c49c:	fffffba4 	.word	0xfffffba4
    c4a0:	0000ae10 	.word	0x0000ae10
    c4a4:	0000ae08 	.word	0x0000ae08

0000c4a8 <free_symkey_enc>:


void
free_symkey_enc( PKT_symkey_enc *enc )
{
    xfree(enc);
    c4a8:	ea000acf 	b	efec <xfree>

0000c4ac <free_encrypted>:
//   xfree(zd);
// }

void
free_encrypted( PKT_encrypted *ed )
{
    c4ac:	e92d4010 	push	{r4, lr}
  if (!ed)
    c4b0:	e2504000 	subs	r4, r0, #0
    c4b4:	08bd8010 	popeq	{r4, pc}
    return;

  if (ed->buf)
    c4b8:	e5940010 	ldr	r0, [r4, #16]
    c4bc:	e3500000 	cmp	r0, #0
    c4c0:	0a000012 	beq	c510 <free_encrypted+0x64>
    {
      /* We need to skip some bytes. */
      if (ed->is_partial)
    c4c4:	e5d43009 	ldrb	r3, [r4, #9]
    c4c8:	e3530000 	cmp	r3, #0
    c4cc:	1a000013 	bne	c520 <free_encrypted+0x74>
          while (iobuf_read( ed->buf, NULL, 1<<30 ) != -1)
            ;
	}
      else
        {
          while (ed->len)
    c4d0:	e5942000 	ldr	r2, [r4]
    c4d4:	e3520000 	cmp	r2, #0
    c4d8:	1a000006 	bne	c4f8 <free_encrypted+0x4c>
    c4dc:	ea00000b 	b	c510 <free_encrypted+0x64>
              /* Skip the packet. */
              int n = iobuf_read( ed->buf, NULL, ed->len );
              if (n == -1)
                ed->len = 0;
              else
                ed->len -= n;
    c4e0:	e5942000 	ldr	r2, [r4]
    c4e4:	e0422000 	sub	r2, r2, r0
    c4e8:	e5842000 	str	r2, [r4]
          while (ed->len)
    c4ec:	e3520000 	cmp	r2, #0
    c4f0:	0a000006 	beq	c510 <free_encrypted+0x64>
              int n = iobuf_read( ed->buf, NULL, ed->len );
    c4f4:	e5940010 	ldr	r0, [r4, #16]
    c4f8:	e3a01000 	mov	r1, #0
    c4fc:	ebfff474 	bl	96d4 <iobuf_read>
              if (n == -1)
    c500:	e3700001 	cmn	r0, #1
    c504:	1afffff5 	bne	c4e0 <free_encrypted+0x34>
    c508:	e3a03000 	mov	r3, #0
    c50c:	e5843000 	str	r3, [r4]
            }
	}
    }
  xfree (ed);
    c510:	e1a00004 	mov	r0, r4
}
    c514:	e8bd4010 	pop	{r4, lr}
  xfree (ed);
    c518:	ea000ab3 	b	efec <xfree>
          while (iobuf_read( ed->buf, NULL, 1<<30 ) != -1)
    c51c:	e5940010 	ldr	r0, [r4, #16]
    c520:	e3a02101 	mov	r2, #1073741824	; 0x40000000
    c524:	e3a01000 	mov	r1, #0
    c528:	ebfff469 	bl	96d4 <iobuf_read>
    c52c:	e3700001 	cmn	r0, #1
    c530:	1afffff9 	bne	c51c <free_encrypted+0x70>
  xfree (ed);
    c534:	e1a00004 	mov	r0, r4
}
    c538:	e8bd4010 	pop	{r4, lr}
  xfree (ed);
    c53c:	ea000aaa 	b	efec <xfree>

0000c540 <free_plaintext>:


void
free_plaintext( PKT_plaintext *pt )
{
    c540:	e92d4010 	push	{r4, lr}
  if (!pt)
    c544:	e2504000 	subs	r4, r0, #0
    c548:	08bd8010 	popeq	{r4, pc}
    return;

  if (pt->buf)
    c54c:	e5940004 	ldr	r0, [r4, #4]
    c550:	e3500000 	cmp	r0, #0
    c554:	0a000012 	beq	c5a4 <free_plaintext+0x64>
    { /* We need to skip some bytes.  */
      if (pt->is_partial)
    c558:	e5d43009 	ldrb	r3, [r4, #9]
    c55c:	e3530000 	cmp	r3, #0
    c560:	1a000013 	bne	c5b4 <free_plaintext+0x74>
          while (iobuf_read( pt->buf, NULL, 1<<30 ) != -1)
            ;
        }
      else
        {
          while( pt->len )
    c564:	e5942000 	ldr	r2, [r4]
    c568:	e3520000 	cmp	r2, #0
    c56c:	1a000006 	bne	c58c <free_plaintext+0x4c>
    c570:	ea00000b 	b	c5a4 <free_plaintext+0x64>
            { /* Skip the packet.  */
              int n = iobuf_read( pt->buf, NULL, pt->len );
              if (n == -1)
                pt->len = 0;
              else
                pt->len -= n;
    c574:	e5942000 	ldr	r2, [r4]
    c578:	e0422000 	sub	r2, r2, r0
    c57c:	e5842000 	str	r2, [r4]
          while( pt->len )
    c580:	e3520000 	cmp	r2, #0
    c584:	0a000006 	beq	c5a4 <free_plaintext+0x64>
              int n = iobuf_read( pt->buf, NULL, pt->len );
    c588:	e5940004 	ldr	r0, [r4, #4]
