
build/patchedKernel.img:     file format elf32-littlearm


Disassembly of section .text:

00008000 <__text_start>:
    8000:	e3a0d302 	mov	sp, #134217728	; 0x8000000
    8004:	eb000000 	bl	800c <main>
    8008:	eafffffe 	b	8008 <__text_start+0x8>

0000800c <main>:
    800c:	e30e13fc 	movw	r1, #58364	; 0xe3fc
    8010:	e3a00000 	mov	r0, #0
    8014:	e92d4030 	push	{r4, r5, lr}
    8018:	e24dd014 	sub	sp, sp, #20
    801c:	e3401000 	movt	r1, #0
    8020:	eb000022 	bl	80b0 <init_printf>
    8024:	e3a00024 	mov	r0, #36	; 0x24
    8028:	eb001137 	bl	c50c <malloc>
    802c:	e2504000 	subs	r4, r0, #0
    8030:	1a000001 	bne	803c <main+0x30>
    8034:	e320f003 	wfi
    8038:	eafffffd 	b	8034 <main+0x28>
    803c:	e3a02024 	mov	r2, #36	; 0x24
    8040:	e3a01000 	mov	r1, #0
    8044:	e1a0500d 	mov	r5, sp
    8048:	eb0011f2 	bl	c818 <memset>
    804c:	e30134cc 	movw	r3, #5324	; 0x14cc
    8050:	e3403001 	movt	r3, #1
    8054:	e893000f 	ldm	r3, {r0, r1, r2, r3}
    8058:	e885000f 	stm	r5, {r0, r1, r2, r3}
    805c:	e3a00010 	mov	r0, #16
    8060:	eb001129 	bl	c50c <malloc>
    8064:	e584001c 	str	r0, [r4, #28]
    8068:	e3500000 	cmp	r0, #0
    806c:	0afffff0 	beq	8034 <main+0x28>
    8070:	e3a02010 	mov	r2, #16
    8074:	e1a01005 	mov	r1, r5
    8078:	eb0011ef 	bl	c83c <memcpy>
    807c:	e3063a9c 	movw	r3, #27292	; 0x6a9c
    8080:	e30115a8 	movw	r1, #5544	; 0x15a8
    8084:	e3403002 	movt	r3, #2
    8088:	e1a00004 	mov	r0, r4
    808c:	e3401001 	movt	r1, #1
    8090:	e5932000 	ldr	r2, [r3]
    8094:	eb00074a 	bl	9dc4 <decrypt_memory>
    8098:	e2501000 	subs	r1, r0, #0
    809c:	0affffe4 	beq	8034 <main+0x28>
    80a0:	e30104a8 	movw	r0, #5288	; 0x14a8
    80a4:	e3400001 	movt	r0, #1
    80a8:	eb0018c2 	bl	e3b8 <tfp_printf>
    80ac:	eaffffe0 	b	8034 <main+0x28>

000080b0 <init_printf>:
    80b0:	e307200c 	movw	r2, #28684	; 0x700c
    80b4:	e3073010 	movw	r3, #28688	; 0x7010
    80b8:	e3402004 	movt	r2, #4
    80bc:	e3403004 	movt	r3, #4
    80c0:	e5821000 	str	r1, [r2]
    80c4:	e5830000 	str	r0, [r3]
    80c8:	e12fff1e 	bx	lr

000080cc <fd_cache_invalidate>:
    80cc:	e92d4010 	push	{r4, lr}
    80d0:	e1a04000 	mov	r4, r0
    80d4:	eb0018b7 	bl	e3b8 <tfp_printf>
    80d8:	e3073000 	movw	r3, #28672	; 0x7000
    80dc:	e3403004 	movt	r3, #4
    80e0:	e5933000 	ldr	r3, [r3]
    80e4:	e3530000 	cmp	r3, #0
    80e8:	1a000001 	bne	80f4 <fd_cache_invalidate+0x28>
    80ec:	e3a00000 	mov	r0, #0
    80f0:	e8bd8010 	pop	{r4, pc}
    80f4:	e30e0858 	movw	r0, #59480	; 0xe858
    80f8:	e1a01004 	mov	r1, r4
    80fc:	e3400000 	movt	r0, #0
    8100:	eb0018ac 	bl	e3b8 <tfp_printf>
    8104:	e3a00000 	mov	r0, #0
    8108:	e8bd8010 	pop	{r4, pc}

0000810c <file_filter>:
    810c:	e92d4070 	push	{r4, r5, r6, lr}
    8110:	e3510003 	cmp	r1, #3
    8114:	e59d5010 	ldr	r5, [sp, #16]
    8118:	e1a04000 	mov	r4, r0
    811c:	e5952000 	ldr	r2, [r5]
    8120:	0a00000d 	beq	815c <file_filter+0x50>
    8124:	e3510004 	cmp	r1, #4
    8128:	0a000007 	beq	814c <file_filter+0x40>
    812c:	e3510001 	cmp	r1, #1
    8130:	0a000024 	beq	81c8 <file_filter+0xbc>
    8134:	e3510007 	cmp	r1, #7
    8138:	0a000014 	beq	8190 <file_filter+0x84>
    813c:	e3510002 	cmp	r1, #2
    8140:	0a000035 	beq	821c <file_filter+0x110>
    8144:	e3a00000 	mov	r0, #0
    8148:	e8bd8070 	pop	{r4, r5, r6, pc}
    814c:	e3a03000 	mov	r3, #0
    8150:	e5853000 	str	r3, [r5]
    8154:	e1a00003 	mov	r0, r3
    8158:	e8bd8070 	pop	{r4, r5, r6, pc}
    815c:	e5d00034 	ldrb	r0, [r0, #52]	; 0x34
    8160:	e5d41035 	ldrb	r1, [r4, #53]	; 0x35
    8164:	e1500001 	cmp	r0, r1
    8168:	8a00001d 	bhi	81e4 <file_filter+0xd8>
    816c:	e594000c 	ldr	r0, [r4, #12]
    8170:	e3500000 	cmp	r0, #0
    8174:	e3e00000 	mvn	r0, #0
    8178:	13a03000 	movne	r3, #0
    817c:	03a02001 	moveq	r2, #1
    8180:	0584200c 	streq	r2, [r4, #12]
    8184:	03a03000 	moveq	r3, #0
    8188:	e5853000 	str	r3, [r5]
    818c:	e8bd8070 	pop	{r4, r5, r6, pc}
    8190:	e5d06034 	ldrb	r6, [r0, #52]	; 0x34
    8194:	e3a01000 	mov	r1, #0
    8198:	e1510001 	cmp	r1, r1
    819c:	03a01001 	moveq	r1, #1
    81a0:	0580100c 	streq	r1, [r0, #12]
    81a4:	e2801014 	add	r1, r0, #20
    81a8:	e1560002 	cmp	r6, r2
    81ac:	e1a00003 	mov	r0, r3
    81b0:	21a06002 	movcs	r6, r2
    81b4:	e1a02006 	mov	r2, r6
    81b8:	eb00119f 	bl	c83c <memcpy>
    81bc:	e5856000 	str	r6, [r5]
    81c0:	e3a00000 	mov	r0, #0
    81c4:	e8bd8070 	pop	{r4, r5, r6, pc}
    81c8:	e3a03000 	mov	r3, #0
    81cc:	e580300c 	str	r3, [r0, #12]
    81d0:	e1a00003 	mov	r0, r3
    81d4:	e5843004 	str	r3, [r4, #4]
    81d8:	e5843008 	str	r3, [r4, #8]
    81dc:	e1c433b4 	strh	r3, [r4, #52]	; 0x34
    81e0:	e8bd8070 	pop	{r4, r5, r6, pc}
    81e4:	e0406001 	sub	r6, r0, r1
    81e8:	e1a00003 	mov	r0, r3
    81ec:	e1520006 	cmp	r2, r6
    81f0:	e2843014 	add	r3, r4, #20
    81f4:	e0831001 	add	r1, r3, r1
    81f8:	31a06002 	movcc	r6, r2
    81fc:	e1a02006 	mov	r2, r6
    8200:	eb00118d 	bl	c83c <memcpy>
    8204:	e5d43035 	ldrb	r3, [r4, #53]	; 0x35
    8208:	e3a00000 	mov	r0, #0
    820c:	e0833006 	add	r3, r3, r6
    8210:	e5c43035 	strb	r3, [r4, #53]	; 0x35
    8214:	e5856000 	str	r6, [r5]
    8218:	e8bd8070 	pop	{r4, r5, r6, pc}
    821c:	eb001157 	bl	c780 <xfree>
    8220:	e3a00000 	mov	r0, #0
    8224:	e8bd8070 	pop	{r4, r5, r6, pc}

00008228 <filter_flush>:
    8228:	e92d4030 	push	{r4, r5, lr}
    822c:	e1a04000 	mov	r4, r0
    8230:	e5d03000 	ldrb	r3, [r0]
    8234:	e24dd014 	sub	sp, sp, #20
    8238:	e3530003 	cmp	r3, #3
    823c:	0a000021 	beq	82c8 <filter_flush+0xa0>
    8240:	e3530002 	cmp	r3, #2
    8244:	1a00001a 	bne	82b4 <filter_flush+0x8c>
    8248:	e590502c 	ldr	r5, [r0, #44]	; 0x2c
    824c:	e3550000 	cmp	r5, #0
    8250:	0a000030 	beq	8318 <filter_flush+0xf0>
    8254:	e594201c 	ldr	r2, [r4, #28]
    8258:	e28d100c 	add	r1, sp, #12
    825c:	e5943020 	ldr	r3, [r4, #32]
    8260:	e58d200c 	str	r2, [sp, #12]
    8264:	e58d1000 	str	r1, [sp]
    8268:	e3a01004 	mov	r1, #4
    826c:	e594203c 	ldr	r2, [r4, #60]	; 0x3c
    8270:	e5940030 	ldr	r0, [r4, #48]	; 0x30
    8274:	e12fff35 	blx	r5
    8278:	e3500000 	cmp	r0, #0
    827c:	15840028 	strne	r0, [r4, #40]	; 0x28
    8280:	1a000007 	bne	82a4 <filter_flush+0x7c>
    8284:	e594201c 	ldr	r2, [r4, #28]
    8288:	e59d300c 	ldr	r3, [sp, #12]
    828c:	e1520003 	cmp	r2, r3
    8290:	0a000003 	beq	82a4 <filter_flush+0x7c>
    8294:	e30e08d4 	movw	r0, #59604	; 0xe8d4
    8298:	e3400000 	movt	r0, #0
    829c:	eb001845 	bl	e3b8 <tfp_printf>
    82a0:	e3a0003f 	mov	r0, #63	; 0x3f
    82a4:	e3a03000 	mov	r3, #0
    82a8:	e584301c 	str	r3, [r4, #28]
    82ac:	e28dd014 	add	sp, sp, #20
    82b0:	e8bd8030 	pop	{r4, r5, pc}
    82b4:	e30e089c 	movw	r0, #59548	; 0xe89c
    82b8:	e3400000 	movt	r0, #0
    82bc:	eb00183d 	bl	e3b8 <tfp_printf>
    82c0:	e594502c 	ldr	r5, [r4, #44]	; 0x2c
    82c4:	eaffffe2 	b	8254 <filter_flush+0x2c>
    82c8:	e5901014 	ldr	r1, [r0, #20]
    82cc:	e3073000 	movw	r3, #28672	; 0x7000
    82d0:	e3403004 	movt	r3, #4
    82d4:	e2815a02 	add	r5, r1, #8192	; 0x2000
    82d8:	e5933000 	ldr	r3, [r3]
    82dc:	e3530000 	cmp	r3, #0
    82e0:	1a000007 	bne	8304 <filter_flush+0xdc>
    82e4:	e5940020 	ldr	r0, [r4, #32]
    82e8:	e1a01005 	mov	r1, r5
    82ec:	eb001126 	bl	c78c <xrealloc>
    82f0:	e5840020 	str	r0, [r4, #32]
    82f4:	e3a00000 	mov	r0, #0
    82f8:	e5845014 	str	r5, [r4, #20]
    82fc:	e28dd014 	add	sp, sp, #20
    8300:	e8bd8030 	pop	{r4, r5, pc}
    8304:	e30e0874 	movw	r0, #59508	; 0xe874
    8308:	e1a02005 	mov	r2, r5
    830c:	e3400000 	movt	r0, #0
    8310:	eb001828 	bl	e3b8 <tfp_printf>
    8314:	eafffff2 	b	82e4 <filter_flush+0xbc>
    8318:	e30e08b8 	movw	r0, #59576	; 0xe8b8
    831c:	e3400000 	movt	r0, #0
    8320:	eb001824 	bl	e3b8 <tfp_printf>
    8324:	e594502c 	ldr	r5, [r4, #44]	; 0x2c
    8328:	eaffffc9 	b	8254 <filter_flush+0x2c>

0000832c <print_chain.part.0>:
    832c:	e92d47f0 	push	{r4, r5, r6, r7, r8, r9, sl, lr}
    8330:	e2504000 	subs	r4, r0, #0
    8334:	e24dd038 	sub	sp, sp, #56	; 0x38
    8338:	0a000025 	beq	83d4 <print_chain.part.0+0xa8>
    833c:	e30ea8f8 	movw	sl, #59640	; 0xe8f8
    8340:	e30e88fc 	movw	r8, #59644	; 0xe8fc
    8344:	e340a000 	movt	sl, #0
    8348:	e3a09020 	mov	r9, #32
    834c:	e3408000 	movt	r8, #0
    8350:	ea000011 	b	839c <print_chain.part.0+0x70>
    8354:	e5940030 	ldr	r0, [r4, #48]	; 0x30
    8358:	e28dc014 	add	ip, sp, #20
    835c:	e58dc000 	str	ip, [sp]
    8360:	e12fff35 	blx	r5
    8364:	e594201c 	ldr	r2, [r4, #28]
    8368:	e28d3018 	add	r3, sp, #24
    836c:	e1a01006 	mov	r1, r6
    8370:	e1a00008 	mov	r0, r8
    8374:	e58d2008 	str	r2, [sp, #8]
    8378:	e5942018 	ldr	r2, [r4, #24]
    837c:	e58d2004 	str	r2, [sp, #4]
    8380:	e5942024 	ldr	r2, [r4, #36]	; 0x24
    8384:	e58d2000 	str	r2, [sp]
    8388:	e1a02007 	mov	r2, r7
    838c:	eb001809 	bl	e3b8 <tfp_printf>
    8390:	e594403c 	ldr	r4, [r4, #60]	; 0x3c
    8394:	e3540000 	cmp	r4, #0
    8398:	0a00000d 	beq	83d4 <print_chain.part.0+0xa8>
    839c:	e594502c 	ldr	r5, [r4, #44]	; 0x2c
    83a0:	e28d3018 	add	r3, sp, #24
    83a4:	e5946040 	ldr	r6, [r4, #64]	; 0x40
    83a8:	e3a02000 	mov	r2, #0
    83ac:	e5947044 	ldr	r7, [r4, #68]	; 0x44
    83b0:	e3550000 	cmp	r5, #0
    83b4:	e58d9014 	str	r9, [sp, #20]
    83b8:	e3a01005 	mov	r1, #5
    83bc:	1affffe4 	bne	8354 <print_chain.part.0+0x28>
    83c0:	e3a02002 	mov	r2, #2
    83c4:	e1a0100a 	mov	r1, sl
    83c8:	e1a00003 	mov	r0, r3
    83cc:	eb00111a 	bl	c83c <memcpy>
    83d0:	eaffffe3 	b	8364 <print_chain.part.0+0x38>
    83d4:	e28dd038 	add	sp, sp, #56	; 0x38
    83d8:	e8bd87f0 	pop	{r4, r5, r6, r7, r8, r9, sl, pc}

000083dc <underflow_target.constprop.0>:
    83dc:	e92d4070 	push	{r4, r5, r6, lr}
    83e0:	e24dd010 	sub	sp, sp, #16
    83e4:	e5d03000 	ldrb	r3, [r0]
    83e8:	e3530001 	cmp	r3, #1
    83ec:	0a00007e 	beq	85ec <underflow_target.constprop.0+0x210>
    83f0:	e5901018 	ldr	r1, [r0, #24]
    83f4:	e1a04000 	mov	r4, r0
    83f8:	e590201c 	ldr	r2, [r0, #28]
    83fc:	e5900020 	ldr	r0, [r0, #32]
    8400:	e0422001 	sub	r2, r2, r1
    8404:	e584201c 	str	r2, [r4, #28]
    8408:	e0801001 	add	r1, r0, r1
    840c:	eb001113 	bl	c860 <memmove>
    8410:	e594301c 	ldr	r3, [r4, #28]
    8414:	e3a02000 	mov	r2, #0
    8418:	e5842018 	str	r2, [r4, #24]
    841c:	e1530002 	cmp	r3, r2
    8420:	0a00000c 	beq	8458 <underflow_target.constprop.0+0x7c>
    8424:	e594502c 	ldr	r5, [r4, #44]	; 0x2c
    8428:	e3550000 	cmp	r5, #0
    842c:	0a000072 	beq	85fc <underflow_target.constprop.0+0x220>
    8430:	e5941024 	ldr	r1, [r4, #36]	; 0x24
    8434:	e3510000 	cmp	r1, #0
    8438:	0a00007e 	beq	8638 <underflow_target.constprop.0+0x25c>
    843c:	e5943020 	ldr	r3, [r4, #32]
    8440:	e2821001 	add	r1, r2, #1
    8444:	e5841018 	str	r1, [r4, #24]
    8448:	e7d35002 	ldrb	r5, [r3, r2]
    844c:	e1a00005 	mov	r0, r5
    8450:	e28dd010 	add	sp, sp, #16
    8454:	e8bd8070 	pop	{r4, r5, r6, pc}
    8458:	e5942024 	ldr	r2, [r4, #36]	; 0x24
    845c:	e3520000 	cmp	r2, #0
    8460:	0a000015 	beq	84bc <underflow_target.constprop.0+0xe0>
    8464:	e594503c 	ldr	r5, [r4, #60]	; 0x3c
    8468:	e3550000 	cmp	r5, #0
    846c:	0a00005d 	beq	85e8 <underflow_target.constprop.0+0x20c>
    8470:	e5940020 	ldr	r0, [r4, #32]
    8474:	eb0010c1 	bl	c780 <xfree>
    8478:	e5940038 	ldr	r0, [r4, #56]	; 0x38
    847c:	eb0010bf 	bl	c780 <xfree>
    8480:	e3a02048 	mov	r2, #72	; 0x48
    8484:	e1a01005 	mov	r1, r5
    8488:	e1a00004 	mov	r0, r4
    848c:	eb0010ea 	bl	c83c <memcpy>
    8490:	e1a00005 	mov	r0, r5
    8494:	eb0010b9 	bl	c780 <xfree>
    8498:	e3073000 	movw	r3, #28672	; 0x7000
    849c:	e3403004 	movt	r3, #4
    84a0:	e5933000 	ldr	r3, [r3]
    84a4:	e3530000 	cmp	r3, #0
    84a8:	0a00004f 	beq	85ec <underflow_target.constprop.0+0x210>
    84ac:	e1a00004 	mov	r0, r4
    84b0:	e3e05000 	mvn	r5, #0
    84b4:	ebffff9c 	bl	832c <print_chain.part.0>
    84b8:	eaffffe3 	b	844c <underflow_target.constprop.0+0x70>
    84bc:	e5942028 	ldr	r2, [r4, #40]	; 0x28
    84c0:	e3520000 	cmp	r2, #0
    84c4:	1a000048 	bne	85ec <underflow_target.constprop.0+0x210>
    84c8:	e594502c 	ldr	r5, [r4, #44]	; 0x2c
    84cc:	e3550000 	cmp	r5, #0
    84d0:	0a000045 	beq	85ec <underflow_target.constprop.0+0x210>
    84d4:	e5942014 	ldr	r2, [r4, #20]
    84d8:	e0422003 	sub	r2, r2, r3
    84dc:	e58d2008 	str	r2, [sp, #8]
    84e0:	e3520000 	cmp	r2, #0
    84e4:	1a000002 	bne	84f4 <underflow_target.constprop.0+0x118>
    84e8:	e1520003 	cmp	r2, r3
    84ec:	3affffd2 	bcc	843c <underflow_target.constprop.0+0x60>
    84f0:	ea00003d 	b	85ec <underflow_target.constprop.0+0x210>
    84f4:	e5941020 	ldr	r1, [r4, #32]
    84f8:	e28d2008 	add	r2, sp, #8
    84fc:	e58d2000 	str	r2, [sp]
    8500:	e0813003 	add	r3, r1, r3
    8504:	e3a01003 	mov	r1, #3
    8508:	e594203c 	ldr	r2, [r4, #60]	; 0x3c
    850c:	e5940030 	ldr	r0, [r4, #48]	; 0x30
    8510:	e12fff35 	blx	r5
    8514:	e594201c 	ldr	r2, [r4, #28]
    8518:	e3700001 	cmn	r0, #1
    851c:	e59d3008 	ldr	r3, [sp, #8]
    8520:	e1a05000 	mov	r5, r0
    8524:	e0823003 	add	r3, r2, r3
    8528:	e584301c 	str	r3, [r4, #28]
    852c:	1a000034 	bne	8604 <underflow_target.constprop.0+0x228>
    8530:	e594602c 	ldr	r6, [r4, #44]	; 0x2c
    8534:	e3a03000 	mov	r3, #0
    8538:	e58d300c 	str	r3, [sp, #12]
    853c:	e28d200c 	add	r2, sp, #12
    8540:	e58d2000 	str	r2, [sp]
    8544:	e3a01002 	mov	r1, #2
    8548:	e594203c 	ldr	r2, [r4, #60]	; 0x3c
    854c:	e5940030 	ldr	r0, [r4, #48]	; 0x30
    8550:	e12fff36 	blx	r6
    8554:	e3500000 	cmp	r0, #0
    8558:	1a000030 	bne	8620 <underflow_target.constprop.0+0x244>
    855c:	e5940030 	ldr	r0, [r4, #48]	; 0x30
    8560:	e3500000 	cmp	r0, #0
    8564:	0a000002 	beq	8574 <underflow_target.constprop.0+0x198>
    8568:	e5943034 	ldr	r3, [r4, #52]	; 0x34
    856c:	e3530000 	cmp	r3, #0
    8570:	1a00002e 	bne	8630 <underflow_target.constprop.0+0x254>
    8574:	e594301c 	ldr	r3, [r4, #28]
    8578:	e3a02000 	mov	r2, #0
    857c:	e5842030 	str	r2, [r4, #48]	; 0x30
    8580:	e3a01001 	mov	r1, #1
    8584:	e1530002 	cmp	r3, r2
    8588:	e584202c 	str	r2, [r4, #44]	; 0x2c
    858c:	e5841024 	str	r1, [r4, #36]	; 0x24
    8590:	1a000020 	bne	8618 <underflow_target.constprop.0+0x23c>
    8594:	e594603c 	ldr	r6, [r4, #60]	; 0x3c
    8598:	e1560002 	cmp	r6, r2
    859c:	0affffaa 	beq	844c <underflow_target.constprop.0+0x70>
    85a0:	e5940020 	ldr	r0, [r4, #32]
    85a4:	eb001075 	bl	c780 <xfree>
    85a8:	e5940038 	ldr	r0, [r4, #56]	; 0x38
    85ac:	eb001073 	bl	c780 <xfree>
    85b0:	e3a02048 	mov	r2, #72	; 0x48
    85b4:	e1a01006 	mov	r1, r6
    85b8:	e1a00004 	mov	r0, r4
    85bc:	eb00109e 	bl	c83c <memcpy>
    85c0:	e1a00006 	mov	r0, r6
    85c4:	eb00106d 	bl	c780 <xfree>
    85c8:	e3073000 	movw	r3, #28672	; 0x7000
    85cc:	e3403004 	movt	r3, #4
    85d0:	e5933000 	ldr	r3, [r3]
    85d4:	e3530000 	cmp	r3, #0
    85d8:	0affff9b 	beq	844c <underflow_target.constprop.0+0x70>
    85dc:	e1a00004 	mov	r0, r4
    85e0:	ebffff51 	bl	832c <print_chain.part.0>
    85e4:	eaffff98 	b	844c <underflow_target.constprop.0+0x70>
    85e8:	e5845024 	str	r5, [r4, #36]	; 0x24
    85ec:	e3e05000 	mvn	r5, #0
    85f0:	e1a00005 	mov	r0, r5
    85f4:	e28dd010 	add	sp, sp, #16
    85f8:	e8bd8070 	pop	{r4, r5, r6, pc}
    85fc:	e1a02005 	mov	r2, r5
    8600:	eaffff8d 	b	843c <underflow_target.constprop.0+0x60>
    8604:	e3500000 	cmp	r0, #0
    8608:	0a000002 	beq	8618 <underflow_target.constprop.0+0x23c>
    860c:	e5840028 	str	r0, [r4, #40]	; 0x28
    8610:	e3530000 	cmp	r3, #0
    8614:	0afffff4 	beq	85ec <underflow_target.constprop.0+0x210>
    8618:	e5942018 	ldr	r2, [r4, #24]
    861c:	eaffffb1 	b	84e8 <underflow_target.constprop.0+0x10c>
    8620:	e30e0934 	movw	r0, #59700	; 0xe934
    8624:	e3400000 	movt	r0, #0
    8628:	eb001762 	bl	e3b8 <tfp_printf>
    862c:	eaffffca 	b	855c <underflow_target.constprop.0+0x180>
    8630:	eb001052 	bl	c780 <xfree>
    8634:	eaffffce 	b	8574 <underflow_target.constprop.0+0x198>
    8638:	e5942028 	ldr	r2, [r4, #40]	; 0x28
    863c:	e3520000 	cmp	r2, #0
    8640:	11a02001 	movne	r2, r1
    8644:	1affff7c 	bne	843c <underflow_target.constprop.0+0x60>
    8648:	eaffffa1 	b	84d4 <underflow_target.constprop.0+0xf8>

0000864c <fd_cache_open>:
    864c:	e92d4070 	push	{r4, r5, r6, lr}
    8650:	e1a04001 	mov	r4, r1
    8654:	e1a05000 	mov	r5, r0
    8658:	e3a0102b 	mov	r1, #43	; 0x2b
    865c:	e1a00004 	mov	r0, r4
    8660:	eb0010e9 	bl	ca0c <strchr>
    8664:	e3500000 	cmp	r0, #0
    8668:	0a000010 	beq	86b0 <fd_cache_open+0x64>
    866c:	e1a00005 	mov	r0, r5
    8670:	ebfffe95 	bl	80cc <fd_cache_invalidate>
    8674:	e3500000 	cmp	r0, #0
    8678:	03a06002 	moveq	r6, #2
    867c:	1a000009 	bne	86a8 <fd_cache_open+0x5c>
    8680:	e3a01062 	mov	r1, #98	; 0x62
    8684:	e1a00004 	mov	r0, r4
    8688:	eb0010df 	bl	ca0c <strchr>
    868c:	e3500000 	cmp	r0, #0
    8690:	e30021b6 	movw	r2, #438	; 0x1b6
    8694:	13866801 	orrne	r6, r6, #65536	; 0x10000
    8698:	e1a00005 	mov	r0, r5
    869c:	e1a01006 	mov	r1, r6
    86a0:	e8bd4070 	pop	{r4, r5, r6, lr}
    86a4:	ea0010ab 	b	c958 <open>
    86a8:	e3e00000 	mvn	r0, #0
    86ac:	e8bd8070 	pop	{r4, r5, r6, pc}
    86b0:	e3a01077 	mov	r1, #119	; 0x77
    86b4:	e1a00004 	mov	r0, r4
    86b8:	eb0010d3 	bl	ca0c <strchr>
    86bc:	e2506000 	subs	r6, r0, #0
    86c0:	0affffee 	beq	8680 <fd_cache_open+0x34>
    86c4:	e1a00005 	mov	r0, r5
    86c8:	ebfffe7f 	bl	80cc <fd_cache_invalidate>
    86cc:	e3500000 	cmp	r0, #0
    86d0:	1afffff4 	bne	86a8 <fd_cache_open+0x5c>
    86d4:	e3006601 	movw	r6, #1537	; 0x601
    86d8:	eaffffe8 	b	8680 <fd_cache_open+0x34>

000086dc <iobuf_temp_with_content>:
    86dc:	e92d4070 	push	{r4, r5, r6, lr}
    86e0:	e2516000 	subs	r6, r1, #0
    86e4:	1a000015 	bne	8740 <iobuf_temp_with_content+0x64>
    86e8:	e3a01048 	mov	r1, #72	; 0x48
    86ec:	e3a00001 	mov	r0, #1
    86f0:	eb00100a 	bl	c720 <xcalloc>
    86f4:	e3a03001 	mov	r3, #1
    86f8:	e1a04000 	mov	r4, r0
    86fc:	e5c03000 	strb	r3, [r0]
    8700:	e3a00a02 	mov	r0, #8192	; 0x2000
    8704:	eb000fe2 	bl	c694 <xmalloc>
    8708:	e5840020 	str	r0, [r4, #32]
    870c:	e3072004 	movw	r2, #28676	; 0x7004
    8710:	e3402004 	movt	r2, #4
    8714:	e3a03a02 	mov	r3, #8192	; 0x2000
    8718:	e5843014 	str	r3, [r4, #20]
    871c:	e5923000 	ldr	r3, [r2]
    8720:	e5846044 	str	r6, [r4, #68]	; 0x44
    8724:	e5846038 	str	r6, [r4, #56]	; 0x38
    8728:	e2833001 	add	r3, r3, #1
    872c:	e5823000 	str	r3, [r2]
    8730:	e5843040 	str	r3, [r4, #64]	; 0x40
    8734:	e584601c 	str	r6, [r4, #28]
    8738:	e1a00004 	mov	r0, r4
    873c:	e8bd8070 	pop	{r4, r5, r6, pc}
    8740:	e1a05000 	mov	r5, r0
    8744:	e3a01048 	mov	r1, #72	; 0x48
    8748:	e3a00001 	mov	r0, #1
    874c:	eb000ff3 	bl	c720 <xcalloc>
    8750:	e3a03001 	mov	r3, #1
    8754:	e1a04000 	mov	r4, r0
    8758:	e5c03000 	strb	r3, [r0]
    875c:	e1a00006 	mov	r0, r6
    8760:	eb000fcb 	bl	c694 <xmalloc>
    8764:	e0851006 	add	r1, r5, r6
    8768:	e307c004 	movw	ip, #28676	; 0x7004
    876c:	e340c004 	movt	ip, #4
    8770:	e3a03000 	mov	r3, #0
    8774:	e5843044 	str	r3, [r4, #68]	; 0x44
    8778:	e1a02000 	mov	r2, r0
    877c:	e5843038 	str	r3, [r4, #56]	; 0x38
    8780:	e2411001 	sub	r1, r1, #1
    8784:	e59c3000 	ldr	r3, [ip]
    8788:	e265e001 	rsb	lr, r5, #1
    878c:	e5846014 	str	r6, [r4, #20]
    8790:	e5840020 	str	r0, [r4, #32]
    8794:	e2833001 	add	r3, r3, #1
    8798:	e58c3000 	str	r3, [ip]
    879c:	e5843040 	str	r3, [r4, #64]	; 0x40
    87a0:	e2453001 	sub	r3, r5, #1
    87a4:	ea000000 	b	87ac <iobuf_temp_with_content+0xd0>
    87a8:	e5942020 	ldr	r2, [r4, #32]
    87ac:	e08e0003 	add	r0, lr, r3
    87b0:	e5f3c001 	ldrb	ip, [r3, #1]!
    87b4:	e1510003 	cmp	r1, r3
    87b8:	e7c2c000 	strb	ip, [r2, r0]
    87bc:	1afffff9 	bne	87a8 <iobuf_temp_with_content+0xcc>
    87c0:	eaffffdb 	b	8734 <iobuf_temp_with_content+0x58>

000087c4 <iobuf_ioctl>:
    87c4:	e3510001 	cmp	r1, #1
    87c8:	e92d47f0 	push	{r4, r5, r6, r7, r8, r9, sl, lr}
    87cc:	e1a04000 	mov	r4, r0
    87d0:	e24dd030 	sub	sp, sp, #48	; 0x30
    87d4:	e1a06002 	mov	r6, r2
    87d8:	0a000050 	beq	8920 <iobuf_ioctl+0x15c>
    87dc:	e3510002 	cmp	r1, #2
    87e0:	e1a05003 	mov	r5, r3
    87e4:	0a00003a 	beq	88d4 <iobuf_ioctl+0x110>
    87e8:	e3510003 	cmp	r1, #3
    87ec:	0a000099 	beq	8a58 <iobuf_ioctl+0x294>
    87f0:	e3510004 	cmp	r1, #4
    87f4:	0a000081 	beq	8a00 <iobuf_ioctl+0x23c>
    87f8:	e3510005 	cmp	r1, #5
    87fc:	1a00006d 	bne	89b8 <iobuf_ioctl+0x1f4>
    8800:	e3073000 	movw	r3, #28672	; 0x7000
    8804:	e3403004 	movt	r3, #4
    8808:	e5933000 	ldr	r3, [r3]
    880c:	e3530000 	cmp	r3, #0
    8810:	0a000015 	beq	886c <iobuf_ioctl+0xa8>
    8814:	e3500000 	cmp	r0, #0
    8818:	0a0000db 	beq	8b8c <iobuf_ioctl+0x3c8>
    881c:	e590902c 	ldr	r9, [r0, #44]	; 0x2c
    8820:	e3a03020 	mov	r3, #32
    8824:	e590a040 	ldr	sl, [r0, #64]	; 0x40
    8828:	e5908044 	ldr	r8, [r0, #68]	; 0x44
    882c:	e3590000 	cmp	r9, #0
    8830:	e58d300c 	str	r3, [sp, #12]
    8834:	0a0000d8 	beq	8b9c <iobuf_ioctl+0x3d8>
    8838:	e5900030 	ldr	r0, [r0, #48]	; 0x30
    883c:	e28d300c 	add	r3, sp, #12
    8840:	e58d3000 	str	r3, [sp]
    8844:	e28d7010 	add	r7, sp, #16
    8848:	e1a03007 	mov	r3, r7
    884c:	e3a02000 	mov	r2, #0
    8850:	e12fff39 	blx	r9
    8854:	e30e0a00 	movw	r0, #59904	; 0xea00
    8858:	e1a03007 	mov	r3, r7
    885c:	e3400000 	movt	r0, #0
    8860:	e1a02008 	mov	r2, r8
    8864:	e1a0100a 	mov	r1, sl
    8868:	eb0016d2 	bl	e3b8 <tfp_printf>
    886c:	e594202c 	ldr	r2, [r4, #44]	; 0x2c
    8870:	e308310c 	movw	r3, #33036	; 0x810c
    8874:	e3403000 	movt	r3, #0
    8878:	e1520003 	cmp	r2, r3
    887c:	1a00004d 	bne	89b8 <iobuf_ioctl+0x1f4>
    8880:	e3550000 	cmp	r5, #0
    8884:	13560000 	cmpne	r6, #0
    8888:	0a00004a 	beq	89b8 <iobuf_ioctl+0x1f4>
    888c:	e30e0a20 	movw	r0, #59936	; 0xea20
    8890:	e3400000 	movt	r0, #0
    8894:	eb0016c7 	bl	e3b8 <tfp_printf>
    8898:	e5941030 	ldr	r1, [r4, #48]	; 0x30
    889c:	e3a03000 	mov	r3, #0
    88a0:	e1530003 	cmp	r3, r3
    88a4:	e1a00005 	mov	r0, r5
    88a8:	e5d1c034 	ldrb	ip, [r1, #52]	; 0x34
    88ac:	03a03001 	moveq	r3, #1
    88b0:	0581300c 	streq	r3, [r1, #12]
    88b4:	e2811014 	add	r1, r1, #20
    88b8:	e15c0006 	cmp	ip, r6
    88bc:	31a0600c 	movcc	r6, ip
    88c0:	e1a02006 	mov	r2, r6
    88c4:	eb000fdc 	bl	c83c <memcpy>
    88c8:	e1a00006 	mov	r0, r6
    88cc:	e28dd030 	add	sp, sp, #48	; 0x30
    88d0:	e8bd87f0 	pop	{r4, r5, r6, r7, r8, r9, sl, pc}
    88d4:	e3073000 	movw	r3, #28672	; 0x7000
    88d8:	e3403004 	movt	r3, #4
    88dc:	e5933000 	ldr	r3, [r3]
    88e0:	e3530000 	cmp	r3, #0
    88e4:	1a00003d 	bne	89e0 <iobuf_ioctl+0x21c>
    88e8:	e2553000 	subs	r3, r5, #0
    88ec:	e1844006 	orr	r4, r4, r6
    88f0:	13a03001 	movne	r3, #1
    88f4:	e3540000 	cmp	r4, #0
    88f8:	13a03000 	movne	r3, #0
    88fc:	e3530000 	cmp	r3, #0
    8900:	0a00002c 	beq	89b8 <iobuf_ioctl+0x1f4>
    8904:	e1a00005 	mov	r0, r5
    8908:	ebfffdef 	bl	80cc <fd_cache_invalidate>
    890c:	e2500000 	subs	r0, r0, #0
    8910:	13a00001 	movne	r0, #1
    8914:	e2600000 	rsb	r0, r0, #0
    8918:	e28dd030 	add	sp, sp, #48	; 0x30
    891c:	e8bd87f0 	pop	{r4, r5, r6, r7, r8, r9, sl, pc}
    8920:	e3073000 	movw	r3, #28672	; 0x7000
    8924:	e3403004 	movt	r3, #4
    8928:	e5933000 	ldr	r3, [r3]
    892c:	e3530000 	cmp	r3, #0
    8930:	0a000017 	beq	8994 <iobuf_ioctl+0x1d0>
    8934:	e3500000 	cmp	r0, #0
    8938:	0a000075 	beq	8b14 <iobuf_ioctl+0x350>
    893c:	e590802c 	ldr	r8, [r0, #44]	; 0x2c
    8940:	e3a03020 	mov	r3, #32
    8944:	e5909040 	ldr	r9, [r0, #64]	; 0x40
    8948:	e5905044 	ldr	r5, [r0, #68]	; 0x44
    894c:	e3580000 	cmp	r8, #0
    8950:	e58d300c 	str	r3, [sp, #12]
    8954:	0a000072 	beq	8b24 <iobuf_ioctl+0x360>
    8958:	e5900030 	ldr	r0, [r0, #48]	; 0x30
    895c:	e28d300c 	add	r3, sp, #12
    8960:	e58d3000 	str	r3, [sp]
    8964:	e28d7010 	add	r7, sp, #16
    8968:	e1a03007 	mov	r3, r7
    896c:	e3a02000 	mov	r2, #0
    8970:	e3a01005 	mov	r1, #5
    8974:	e12fff38 	blx	r8
    8978:	e58d6000 	str	r6, [sp]
    897c:	e30e0950 	movw	r0, #59728	; 0xe950
    8980:	e3400000 	movt	r0, #0
    8984:	e1a03007 	mov	r3, r7
    8988:	e1a02005 	mov	r2, r5
    898c:	e1a01009 	mov	r1, r9
    8990:	eb001688 	bl	e3b8 <tfp_printf>
    8994:	e308310c 	movw	r3, #33036	; 0x810c
    8998:	e3403000 	movt	r3, #0
    899c:	ea000003 	b	89b0 <iobuf_ioctl+0x1ec>
    89a0:	e594003c 	ldr	r0, [r4, #60]	; 0x3c
    89a4:	e3500000 	cmp	r0, #0
    89a8:	0a000005 	beq	89c4 <iobuf_ioctl+0x200>
    89ac:	e1a04000 	mov	r4, r0
    89b0:	e3540000 	cmp	r4, #0
    89b4:	1afffff9 	bne	89a0 <iobuf_ioctl+0x1dc>
    89b8:	e3e00000 	mvn	r0, #0
    89bc:	e28dd030 	add	sp, sp, #48	; 0x30
    89c0:	e8bd87f0 	pop	{r4, r5, r6, r7, r8, r9, sl, pc}
    89c4:	e594202c 	ldr	r2, [r4, #44]	; 0x2c
    89c8:	e1520003 	cmp	r2, r3
    89cc:	05943030 	ldreq	r3, [r4, #48]	; 0x30
    89d0:	05836004 	streq	r6, [r3, #4]
    89d4:	0affffcf 	beq	8918 <iobuf_ioctl+0x154>
    89d8:	e3e00000 	mvn	r0, #0
    89dc:	eafffff6 	b	89bc <iobuf_ioctl+0x1f8>
    89e0:	e3550000 	cmp	r5, #0
    89e4:	e30e18f8 	movw	r1, #59640	; 0xe8f8
    89e8:	e3401000 	movt	r1, #0
    89ec:	e30e0978 	movw	r0, #59768	; 0xe978
    89f0:	e3400000 	movt	r0, #0
    89f4:	11a01005 	movne	r1, r5
    89f8:	eb00166e 	bl	e3b8 <tfp_printf>
    89fc:	eaffffb9 	b	88e8 <iobuf_ioctl+0x124>
    8a00:	e3077000 	movw	r7, #28672	; 0x7000
    8a04:	e3407004 	movt	r7, #4
    8a08:	e5970000 	ldr	r0, [r7]
    8a0c:	e3500000 	cmp	r0, #0
    8a10:	0a00004a 	beq	8b40 <iobuf_ioctl+0x37c>
    8a14:	e3530000 	cmp	r3, #0
    8a18:	0a000066 	beq	8bb8 <iobuf_ioctl+0x3f4>
    8a1c:	e30e09c4 	movw	r0, #59844	; 0xe9c4
    8a20:	e1a01003 	mov	r1, r3
    8a24:	e3400000 	movt	r0, #0
    8a28:	eb001662 	bl	e3b8 <tfp_printf>
    8a2c:	e1943006 	orrs	r3, r4, r6
    8a30:	1affffe0 	bne	89b8 <iobuf_ioctl+0x1f4>
    8a34:	e5970000 	ldr	r0, [r7]
    8a38:	e3500000 	cmp	r0, #0
    8a3c:	0affffb5 	beq	8918 <iobuf_ioctl+0x154>
    8a40:	e30e09e4 	movw	r0, #59876	; 0xe9e4
    8a44:	e1a01005 	mov	r1, r5
    8a48:	e3400000 	movt	r0, #0
    8a4c:	eb001659 	bl	e3b8 <tfp_printf>
    8a50:	e3a00000 	mov	r0, #0
    8a54:	eaffffaf 	b	8918 <iobuf_ioctl+0x154>
    8a58:	e3073000 	movw	r3, #28672	; 0x7000
    8a5c:	e3403004 	movt	r3, #4
    8a60:	e5933000 	ldr	r3, [r3]
    8a64:	e3530000 	cmp	r3, #0
    8a68:	0a000017 	beq	8acc <iobuf_ioctl+0x308>
    8a6c:	e3500000 	cmp	r0, #0
    8a70:	0a00003a 	beq	8b60 <iobuf_ioctl+0x39c>
    8a74:	e590802c 	ldr	r8, [r0, #44]	; 0x2c
    8a78:	e3a03020 	mov	r3, #32
    8a7c:	e5909040 	ldr	r9, [r0, #64]	; 0x40
    8a80:	e5905044 	ldr	r5, [r0, #68]	; 0x44
    8a84:	e3580000 	cmp	r8, #0
    8a88:	e58d300c 	str	r3, [sp, #12]
    8a8c:	0a000037 	beq	8b70 <iobuf_ioctl+0x3ac>
    8a90:	e5900030 	ldr	r0, [r0, #48]	; 0x30
    8a94:	e28d300c 	add	r3, sp, #12
    8a98:	e58d3000 	str	r3, [sp]
    8a9c:	e28d7010 	add	r7, sp, #16
    8aa0:	e1a03007 	mov	r3, r7
    8aa4:	e3a02000 	mov	r2, #0
    8aa8:	e3a01005 	mov	r1, #5
    8aac:	e12fff38 	blx	r8
    8ab0:	e58d6000 	str	r6, [sp]
    8ab4:	e30e099c 	movw	r0, #59804	; 0xe99c
    8ab8:	e3400000 	movt	r0, #0
    8abc:	e1a03007 	mov	r3, r7
    8ac0:	e1a02005 	mov	r2, r5
    8ac4:	e1a01009 	mov	r1, r9
    8ac8:	eb00163a 	bl	e3b8 <tfp_printf>
    8acc:	e308210c 	movw	r2, #33036	; 0x810c
    8ad0:	e3402000 	movt	r2, #0
    8ad4:	ea000003 	b	8ae8 <iobuf_ioctl+0x324>
    8ad8:	e594303c 	ldr	r3, [r4, #60]	; 0x3c
    8adc:	e3530000 	cmp	r3, #0
    8ae0:	0a000003 	beq	8af4 <iobuf_ioctl+0x330>
    8ae4:	e1a04003 	mov	r4, r3
    8ae8:	e3540000 	cmp	r4, #0
    8aec:	1afffff9 	bne	8ad8 <iobuf_ioctl+0x314>
    8af0:	eaffffb0 	b	89b8 <iobuf_ioctl+0x1f4>
    8af4:	e594102c 	ldr	r1, [r4, #44]	; 0x2c
    8af8:	e1510002 	cmp	r1, r2
    8afc:	01a00003 	moveq	r0, r3
    8b00:	05942030 	ldreq	r2, [r4, #48]	; 0x30
    8b04:	05826008 	streq	r6, [r2, #8]
    8b08:	0affff82 	beq	8918 <iobuf_ioctl+0x154>
    8b0c:	e3e00000 	mvn	r0, #0
    8b10:	eaffffa9 	b	89bc <iobuf_ioctl+0x1f8>
    8b14:	e3e05000 	mvn	r5, #0
    8b18:	e3a03020 	mov	r3, #32
    8b1c:	e58d300c 	str	r3, [sp, #12]
    8b20:	e1a09005 	mov	r9, r5
    8b24:	e28d7010 	add	r7, sp, #16
    8b28:	e30e18f8 	movw	r1, #59640	; 0xe8f8
    8b2c:	e3401000 	movt	r1, #0
    8b30:	e3a02002 	mov	r2, #2
    8b34:	e1a00007 	mov	r0, r7
    8b38:	eb000f3f 	bl	c83c <memcpy>
    8b3c:	eaffff8d 	b	8978 <iobuf_ioctl+0x1b4>
    8b40:	e2535000 	subs	r5, r3, #0
    8b44:	e1844002 	orr	r4, r4, r2
    8b48:	13a05001 	movne	r5, #1
    8b4c:	e3540000 	cmp	r4, #0
    8b50:	13a05000 	movne	r5, #0
    8b54:	e3550000 	cmp	r5, #0
    8b58:	1affff6e 	bne	8918 <iobuf_ioctl+0x154>
    8b5c:	eaffff95 	b	89b8 <iobuf_ioctl+0x1f4>
    8b60:	e3e05000 	mvn	r5, #0
    8b64:	e3a03020 	mov	r3, #32
    8b68:	e58d300c 	str	r3, [sp, #12]
    8b6c:	e1a09005 	mov	r9, r5
    8b70:	e28d7010 	add	r7, sp, #16
    8b74:	e30e18f8 	movw	r1, #59640	; 0xe8f8
    8b78:	e3401000 	movt	r1, #0
    8b7c:	e3a02002 	mov	r2, #2
    8b80:	e1a00007 	mov	r0, r7
    8b84:	eb000f2c 	bl	c83c <memcpy>
    8b88:	eaffffc8 	b	8ab0 <iobuf_ioctl+0x2ec>
    8b8c:	e3e08000 	mvn	r8, #0
    8b90:	e3a03020 	mov	r3, #32
    8b94:	e58d300c 	str	r3, [sp, #12]
    8b98:	e1a0a008 	mov	sl, r8
    8b9c:	e28d7010 	add	r7, sp, #16
    8ba0:	e30e18f8 	movw	r1, #59640	; 0xe8f8
    8ba4:	e3401000 	movt	r1, #0
    8ba8:	e3a02002 	mov	r2, #2
    8bac:	e1a00007 	mov	r0, r7
    8bb0:	eb000f21 	bl	c83c <memcpy>
    8bb4:	eaffff26 	b	8854 <iobuf_ioctl+0x90>
    8bb8:	e30e1a3c 	movw	r1, #59964	; 0xea3c
    8bbc:	e30e09c4 	movw	r0, #59844	; 0xe9c4
    8bc0:	e3401000 	movt	r1, #0
    8bc4:	e3400000 	movt	r0, #0
    8bc8:	eb0015fa 	bl	e3b8 <tfp_printf>
    8bcc:	eaffff79 	b	89b8 <iobuf_ioctl+0x1f4>

00008bd0 <iobuf_fdopen>:
    8bd0:	e1a03001 	mov	r3, r1
    8bd4:	e3a01077 	mov	r1, #119	; 0x77
    8bd8:	e92d41f0 	push	{r4, r5, r6, r7, r8, lr}
    8bdc:	e1a06000 	mov	r6, r0
    8be0:	e1a00003 	mov	r0, r3
    8be4:	e3a05000 	mov	r5, #0
    8be8:	eb000f87 	bl	ca0c <strchr>
    8bec:	e3500000 	cmp	r0, #0
    8bf0:	e3a01048 	mov	r1, #72	; 0x48
    8bf4:	e3a00001 	mov	r0, #1
    8bf8:	13a07002 	movne	r7, #2
    8bfc:	01a07005 	moveq	r7, r5
    8c00:	eb000ec6 	bl	c720 <xcalloc>
    8c04:	e1a04000 	mov	r4, r0
    8c08:	e3a00a02 	mov	r0, #8192	; 0x2000
    8c0c:	e5c47000 	strb	r7, [r4]
    8c10:	eb000e9f 	bl	c694 <xmalloc>
    8c14:	e5840020 	str	r0, [r4, #32]
    8c18:	e3073004 	movw	r3, #28676	; 0x7004
    8c1c:	e3403004 	movt	r3, #4
    8c20:	e3a02a02 	mov	r2, #8192	; 0x2000
    8c24:	e5842014 	str	r2, [r4, #20]
    8c28:	e3a0004c 	mov	r0, #76	; 0x4c
    8c2c:	e5932000 	ldr	r2, [r3]
    8c30:	e5845044 	str	r5, [r4, #68]	; 0x44
    8c34:	e5845038 	str	r5, [r4, #56]	; 0x38
    8c38:	e2822001 	add	r2, r2, #1
    8c3c:	e5842040 	str	r2, [r4, #64]	; 0x40
    8c40:	e5832000 	str	r2, [r3]
    8c44:	eb000e92 	bl	c694 <xmalloc>
    8c48:	e5806000 	str	r6, [r0]
    8c4c:	e308310c 	movw	r3, #33036	; 0x810c
    8c50:	e3403000 	movt	r3, #0
    8c54:	e3a02001 	mov	r2, #1
    8c58:	e5802010 	str	r2, [r0, #16]
    8c5c:	e3a01003 	mov	r1, #3
    8c60:	e584302c 	str	r3, [r4, #44]	; 0x2c
    8c64:	e1a03005 	mov	r3, r5
    8c68:	e5840030 	str	r0, [r4, #48]	; 0x30
    8c6c:	e580500c 	str	r5, [r0, #12]
    8c70:	e5805004 	str	r5, [r0, #4]
    8c74:	e5805008 	str	r5, [r0, #8]
    8c78:	e1c053b4 	strh	r5, [r0, #52]	; 0x34
    8c7c:	e1a00004 	mov	r0, r4
    8c80:	ebfffecf 	bl	87c4 <iobuf_ioctl>
    8c84:	e1a00004 	mov	r0, r4
    8c88:	e8bd81f0 	pop	{r4, r5, r6, r7, r8, pc}

00008c8c <iobuf_push_filter2>:
    8c8c:	e92d41f0 	push	{r4, r5, r6, r7, r8, lr}
    8c90:	e24dd010 	sub	sp, sp, #16
    8c94:	e5d0c000 	ldrb	ip, [r0]
    8c98:	e1a07003 	mov	r7, r3
    8c9c:	e3a03000 	mov	r3, #0
    8ca0:	e1a04000 	mov	r4, r0
    8ca4:	e58d300c 	str	r3, [sp, #12]
    8ca8:	e35c0002 	cmp	ip, #2
    8cac:	e1a05001 	mov	r5, r1
    8cb0:	e1a08002 	mov	r8, r2
    8cb4:	0a000047 	beq	8dd8 <iobuf_push_filter2+0x14c>
    8cb8:	e5943044 	ldr	r3, [r4, #68]	; 0x44
    8cbc:	e353003f 	cmp	r3, #63	; 0x3f
    8cc0:	ca00003a 	bgt	8db0 <iobuf_push_filter2+0x124>
    8cc4:	e3a00048 	mov	r0, #72	; 0x48
    8cc8:	eb000e71 	bl	c694 <xmalloc>
    8ccc:	e3a02048 	mov	r2, #72	; 0x48
    8cd0:	e1a01004 	mov	r1, r4
    8cd4:	e1a06000 	mov	r6, r0
    8cd8:	eb000ed7 	bl	c83c <memcpy>
    8cdc:	e5d42000 	ldrb	r2, [r4]
    8ce0:	e3a03000 	mov	r3, #0
    8ce4:	e584302c 	str	r3, [r4, #44]	; 0x2c
    8ce8:	e5843030 	str	r3, [r4, #48]	; 0x30
    8cec:	e3520003 	cmp	r2, #3
    8cf0:	e5843034 	str	r3, [r4, #52]	; 0x34
    8cf4:	e5843024 	str	r3, [r4, #36]	; 0x24
    8cf8:	0a000027 	beq	8d9c <iobuf_push_filter2+0x110>
    8cfc:	e3520001 	cmp	r2, #1
    8d00:	05c43000 	strbeq	r3, [r4]
    8d04:	03a00a02 	moveq	r0, #8192	; 0x2000
    8d08:	15940014 	ldrne	r0, [r4, #20]
    8d0c:	05840014 	streq	r0, [r4, #20]
    8d10:	eb000e5f 	bl	c694 <xmalloc>
    8d14:	e596200c 	ldr	r2, [r6, #12]
    8d18:	e3073000 	movw	r3, #28672	; 0x7000
    8d1c:	e3403004 	movt	r3, #4
    8d20:	e5840020 	str	r0, [r4, #32]
    8d24:	e5931000 	ldr	r1, [r3]
    8d28:	e5963008 	ldr	r3, [r6, #8]
    8d2c:	e5848030 	str	r8, [r4, #48]	; 0x30
    8d30:	e3510000 	cmp	r1, #0
    8d34:	e0822003 	add	r2, r2, r3
    8d38:	e5963044 	ldr	r3, [r6, #68]	; 0x44
    8d3c:	e5847034 	str	r7, [r4, #52]	; 0x34
    8d40:	e584200c 	str	r2, [r4, #12]
    8d44:	e2833001 	add	r3, r3, #1
    8d48:	e5843044 	str	r3, [r4, #68]	; 0x44
    8d4c:	e3a03000 	mov	r3, #0
    8d50:	e584603c 	str	r6, [r4, #60]	; 0x3c
    8d54:	e584502c 	str	r5, [r4, #44]	; 0x2c
    8d58:	e584301c 	str	r3, [r4, #28]
    8d5c:	e5843018 	str	r3, [r4, #24]
    8d60:	e5843008 	str	r3, [r4, #8]
    8d64:	e5843004 	str	r3, [r4, #4]
    8d68:	e5843010 	str	r3, [r4, #16]
    8d6c:	1a000015 	bne	8dc8 <iobuf_push_filter2+0x13c>
    8d70:	e3550000 	cmp	r5, #0
    8d74:	0a000006 	beq	8d94 <iobuf_push_filter2+0x108>
    8d78:	e594203c 	ldr	r2, [r4, #60]	; 0x3c
    8d7c:	e28d100c 	add	r1, sp, #12
    8d80:	e5940030 	ldr	r0, [r4, #48]	; 0x30
    8d84:	e3a03000 	mov	r3, #0
    8d88:	e58d1000 	str	r1, [sp]
    8d8c:	e3a01001 	mov	r1, #1
    8d90:	e12fff35 	blx	r5
    8d94:	e28dd010 	add	sp, sp, #16
    8d98:	e8bd81f0 	pop	{r4, r5, r6, r7, r8, pc}
    8d9c:	e3a00a02 	mov	r0, #8192	; 0x2000
    8da0:	e3a03002 	mov	r3, #2
    8da4:	e5840014 	str	r0, [r4, #20]
    8da8:	e5c43000 	strb	r3, [r4]
    8dac:	eaffffd7 	b	8d10 <iobuf_push_filter2+0x84>
    8db0:	e30e0a44 	movw	r0, #59972	; 0xea44
    8db4:	e3400000 	movt	r0, #0
    8db8:	eb00157e 	bl	e3b8 <tfp_printf>
    8dbc:	e3a00059 	mov	r0, #89	; 0x59
    8dc0:	e28dd010 	add	sp, sp, #16
    8dc4:	e8bd81f0 	pop	{r4, r5, r6, r7, r8, pc}
    8dc8:	e1a00004 	mov	r0, r4
    8dcc:	ebfffd56 	bl	832c <print_chain.part.0>
    8dd0:	e594502c 	ldr	r5, [r4, #44]	; 0x2c
    8dd4:	eaffffe5 	b	8d70 <iobuf_push_filter2+0xe4>
    8dd8:	ebfffd12 	bl	8228 <filter_flush>
    8ddc:	e3500000 	cmp	r0, #0
    8de0:	0affffb4 	beq	8cb8 <iobuf_push_filter2+0x2c>
    8de4:	eaffffea 	b	8d94 <iobuf_push_filter2+0x108>

00008de8 <iobuf_push_filter>:
    8de8:	e3a03000 	mov	r3, #0
    8dec:	eaffffa6 	b	8c8c <iobuf_push_filter2>

00008df0 <iobuf_pop_filter>:
    8df0:	e92d4ff0 	push	{r4, r5, r6, r7, r8, r9, sl, fp, lr}
    8df4:	e1a06000 	mov	r6, r0
    8df8:	e3077000 	movw	r7, #28672	; 0x7000
    8dfc:	e30e0a74 	movw	r0, #60020	; 0xea74
    8e00:	e3407004 	movt	r7, #4
    8e04:	e24dd034 	sub	sp, sp, #52	; 0x34
    8e08:	e3400000 	movt	r0, #0
    8e0c:	e1a08001 	mov	r8, r1
    8e10:	e5961008 	ldr	r1, [r6, #8]
    8e14:	e1a09002 	mov	r9, r2
    8e18:	eb001566 	bl	e3b8 <tfp_printf>
    8e1c:	e5973000 	ldr	r3, [r7]
    8e20:	e3a02000 	mov	r2, #0
    8e24:	e58d2008 	str	r2, [sp, #8]
    8e28:	e1530002 	cmp	r3, r2
    8e2c:	1a000039 	bne	8f18 <iobuf_pop_filter+0x128>
    8e30:	e5d62000 	ldrb	r2, [r6]
    8e34:	e20230fd 	and	r3, r2, #253	; 0xfd
    8e38:	e3530001 	cmp	r3, #1
    8e3c:	0a00002e 	beq	8efc <iobuf_pop_filter+0x10c>
    8e40:	e596502c 	ldr	r5, [r6, #44]	; 0x2c
    8e44:	e3550000 	cmp	r5, #0
    8e48:	11a04006 	movne	r4, r6
    8e4c:	1a000004 	bne	8e64 <iobuf_pop_filter+0x74>
    8e50:	ea00007c 	b	9048 <iobuf_pop_filter+0x258>
    8e54:	e594403c 	ldr	r4, [r4, #60]	; 0x3c
    8e58:	e3540000 	cmp	r4, #0
    8e5c:	0a00006d 	beq	9018 <iobuf_pop_filter+0x228>
    8e60:	e594502c 	ldr	r5, [r4, #44]	; 0x2c
    8e64:	e1580005 	cmp	r8, r5
    8e68:	1afffff9 	bne	8e54 <iobuf_pop_filter+0x64>
    8e6c:	e3590000 	cmp	r9, #0
    8e70:	0a000002 	beq	8e80 <iobuf_pop_filter+0x90>
    8e74:	e5943030 	ldr	r3, [r4, #48]	; 0x30
    8e78:	e1530009 	cmp	r3, r9
    8e7c:	1afffff4 	bne	8e54 <iobuf_pop_filter+0x64>
    8e80:	e3520002 	cmp	r2, #2
    8e84:	0a000038 	beq	8f6c <iobuf_pop_filter+0x17c>
    8e88:	e594502c 	ldr	r5, [r4, #44]	; 0x2c
    8e8c:	e3550000 	cmp	r5, #0
    8e90:	0a000008 	beq	8eb8 <iobuf_pop_filter+0xc8>
    8e94:	e594203c 	ldr	r2, [r4, #60]	; 0x3c
    8e98:	e28d3008 	add	r3, sp, #8
    8e9c:	e5940030 	ldr	r0, [r4, #48]	; 0x30
    8ea0:	e3a01002 	mov	r1, #2
    8ea4:	e58d3000 	str	r3, [sp]
    8ea8:	e3a03000 	mov	r3, #0
    8eac:	e12fff35 	blx	r5
    8eb0:	e3500000 	cmp	r0, #0
    8eb4:	1a00000e 	bne	8ef4 <iobuf_pop_filter+0x104>
    8eb8:	e5940030 	ldr	r0, [r4, #48]	; 0x30
    8ebc:	e3500000 	cmp	r0, #0
    8ec0:	0a000002 	beq	8ed0 <iobuf_pop_filter+0xe0>
    8ec4:	e5943034 	ldr	r3, [r4, #52]	; 0x34
    8ec8:	e3530000 	cmp	r3, #0
    8ecc:	1a00002b 	bne	8f80 <iobuf_pop_filter+0x190>
    8ed0:	e1560004 	cmp	r6, r4
    8ed4:	0a000034 	beq	8fac <iobuf_pop_filter+0x1bc>
    8ed8:	e594503c 	ldr	r5, [r4, #60]	; 0x3c
    8edc:	e3550000 	cmp	r5, #0
    8ee0:	0a000053 	beq	9034 <iobuf_pop_filter+0x244>
    8ee4:	e30e0b68 	movw	r0, #60264	; 0xeb68
    8ee8:	e3400000 	movt	r0, #0
    8eec:	eb001531 	bl	e3b8 <tfp_printf>
    8ef0:	e3a00000 	mov	r0, #0
    8ef4:	e28dd034 	add	sp, sp, #52	; 0x34
    8ef8:	e8bd8ff0 	pop	{r4, r5, r6, r7, r8, r9, sl, fp, pc}
    8efc:	e596003c 	ldr	r0, [r6, #60]	; 0x3c
    8f00:	e16f0f10 	clz	r0, r0
    8f04:	e1a002a0 	lsr	r0, r0, #5
    8f08:	eb00152a 	bl	e3b8 <tfp_printf>
    8f0c:	e3a00000 	mov	r0, #0
    8f10:	e28dd034 	add	sp, sp, #52	; 0x34
    8f14:	e8bd8ff0 	pop	{r4, r5, r6, r7, r8, r9, sl, fp, pc}
    8f18:	e596402c 	ldr	r4, [r6, #44]	; 0x2c
    8f1c:	e3a03020 	mov	r3, #32
    8f20:	e5965040 	ldr	r5, [r6, #64]	; 0x40
    8f24:	e1540002 	cmp	r4, r2
    8f28:	e596a044 	ldr	sl, [r6, #68]	; 0x44
    8f2c:	e58d300c 	str	r3, [sp, #12]
    8f30:	0a000016 	beq	8f90 <iobuf_pop_filter+0x1a0>
    8f34:	e5960030 	ldr	r0, [r6, #48]	; 0x30
    8f38:	e28d300c 	add	r3, sp, #12
    8f3c:	e58d3000 	str	r3, [sp]
    8f40:	e28db010 	add	fp, sp, #16
    8f44:	e1a0300b 	mov	r3, fp
    8f48:	e3a01005 	mov	r1, #5
    8f4c:	e12fff34 	blx	r4
    8f50:	e30e0a8c 	movw	r0, #60044	; 0xea8c
    8f54:	e1a0300b 	mov	r3, fp
    8f58:	e3400000 	movt	r0, #0
    8f5c:	e1a0200a 	mov	r2, sl
    8f60:	e1a01005 	mov	r1, r5
    8f64:	eb001513 	bl	e3b8 <tfp_printf>
    8f68:	eaffffb0 	b	8e30 <iobuf_pop_filter+0x40>
    8f6c:	e1a00004 	mov	r0, r4
    8f70:	ebfffcac 	bl	8228 <filter_flush>
    8f74:	e3500000 	cmp	r0, #0
    8f78:	0affffc2 	beq	8e88 <iobuf_pop_filter+0x98>
    8f7c:	eaffffdc 	b	8ef4 <iobuf_pop_filter+0x104>
    8f80:	eb000dfe 	bl	c780 <xfree>
    8f84:	e3a03000 	mov	r3, #0
    8f88:	e5843030 	str	r3, [r4, #48]	; 0x30
    8f8c:	eaffffcf 	b	8ed0 <iobuf_pop_filter+0xe0>
    8f90:	e28db010 	add	fp, sp, #16
    8f94:	e30e18f8 	movw	r1, #59640	; 0xe8f8
    8f98:	e3401000 	movt	r1, #0
    8f9c:	e3a02002 	mov	r2, #2
    8fa0:	e1a0000b 	mov	r0, fp
    8fa4:	eb000e24 	bl	c83c <memcpy>
    8fa8:	eaffffe8 	b	8f50 <iobuf_pop_filter+0x160>
    8fac:	e596503c 	ldr	r5, [r6, #60]	; 0x3c
    8fb0:	e3550000 	cmp	r5, #0
    8fb4:	0a000036 	beq	9094 <iobuf_pop_filter+0x2a4>
    8fb8:	e5960020 	ldr	r0, [r6, #32]
    8fbc:	eb000def 	bl	c780 <xfree>
    8fc0:	e5960038 	ldr	r0, [r6, #56]	; 0x38
    8fc4:	eb000ded 	bl	c780 <xfree>
    8fc8:	e3a02048 	mov	r2, #72	; 0x48
    8fcc:	e1a01005 	mov	r1, r5
    8fd0:	e1a00006 	mov	r0, r6
    8fd4:	eb000e18 	bl	c83c <memcpy>
    8fd8:	e1a00005 	mov	r0, r5
    8fdc:	eb000de7 	bl	c780 <xfree>
    8fe0:	e30e0af4 	movw	r0, #60148	; 0xeaf4
    8fe4:	e3a01048 	mov	r1, #72	; 0x48
    8fe8:	e3400000 	movt	r0, #0
    8fec:	eb0014f1 	bl	e3b8 <tfp_printf>
    8ff0:	e5970000 	ldr	r0, [r7]
    8ff4:	e3500000 	cmp	r0, #0
    8ff8:	0affffbd 	beq	8ef4 <iobuf_pop_filter+0x104>
    8ffc:	e5962044 	ldr	r2, [r6, #68]	; 0x44
    9000:	e30e0b20 	movw	r0, #60192	; 0xeb20
    9004:	e3400000 	movt	r0, #0
    9008:	e5961040 	ldr	r1, [r6, #64]	; 0x40
    900c:	eb0014e9 	bl	e3b8 <tfp_printf>
    9010:	e3a00000 	mov	r0, #0
    9014:	eaffffb6 	b	8ef4 <iobuf_pop_filter+0x104>
    9018:	e30e0b9c 	movw	r0, #60316	; 0xeb9c
    901c:	e3400000 	movt	r0, #0
    9020:	eb0014e4 	bl	e3b8 <tfp_printf>
    9024:	e5d62000 	ldrb	r2, [r6]
    9028:	e3520002 	cmp	r2, #2
    902c:	1affff95 	bne	8e88 <iobuf_pop_filter+0x98>
    9030:	eaffffcd 	b	8f6c <iobuf_pop_filter+0x17c>
    9034:	e30e0b3c 	movw	r0, #60220	; 0xeb3c
    9038:	e3400000 	movt	r0, #0
    903c:	eb0014dd 	bl	e3b8 <tfp_printf>
    9040:	e1a00005 	mov	r0, r5
    9044:	eaffffaa 	b	8ef4 <iobuf_pop_filter+0x104>
    9048:	e596403c 	ldr	r4, [r6, #60]	; 0x3c
    904c:	e1a00004 	mov	r0, r4
    9050:	eb0014d8 	bl	e3b8 <tfp_printf>
    9054:	e5960020 	ldr	r0, [r6, #32]
    9058:	eb000dc8 	bl	c780 <xfree>
    905c:	e5960038 	ldr	r0, [r6, #56]	; 0x38
    9060:	eb000dc6 	bl	c780 <xfree>
    9064:	e30e0aa4 	movw	r0, #60068	; 0xeaa4
    9068:	e3a01048 	mov	r1, #72	; 0x48
    906c:	e3400000 	movt	r0, #0
    9070:	eb0014d0 	bl	e3b8 <tfp_printf>
    9074:	e3a02048 	mov	r2, #72	; 0x48
    9078:	e1a01004 	mov	r1, r4
    907c:	e1a00006 	mov	r0, r6
    9080:	eb000ded 	bl	c83c <memcpy>
    9084:	e1a00004 	mov	r0, r4
    9088:	eb000dbc 	bl	c780 <xfree>
    908c:	e1a00005 	mov	r0, r5
    9090:	eaffff97 	b	8ef4 <iobuf_pop_filter+0x104>
    9094:	e30e0ac4 	movw	r0, #60100	; 0xeac4
    9098:	e3400000 	movt	r0, #0
    909c:	eb0014c5 	bl	e3b8 <tfp_printf>
    90a0:	e1a00005 	mov	r0, r5
    90a4:	eaffff92 	b	8ef4 <iobuf_pop_filter+0x104>

000090a8 <iobuf_readbyte>:
    90a8:	e92d4010 	push	{r4, lr}
    90ac:	e5d03000 	ldrb	r3, [r0]
    90b0:	e2433002 	sub	r3, r3, #2
    90b4:	e3530001 	cmp	r3, #1
    90b8:	9a000019 	bls	9124 <iobuf_readbyte+0x7c>
    90bc:	e5903004 	ldr	r3, [r0, #4]
    90c0:	e1a04000 	mov	r4, r0
    90c4:	e3530000 	cmp	r3, #0
    90c8:	1a00000b 	bne	90fc <iobuf_readbyte+0x54>
    90cc:	e5943018 	ldr	r3, [r4, #24]
    90d0:	e594201c 	ldr	r2, [r4, #28]
    90d4:	e1530002 	cmp	r3, r2
    90d8:	2a00000c 	bcs	9110 <iobuf_readbyte+0x68>
    90dc:	e5942020 	ldr	r2, [r4, #32]
    90e0:	e2831001 	add	r1, r3, #1
    90e4:	e5841018 	str	r1, [r4, #24]
    90e8:	e7d20003 	ldrb	r0, [r2, r3]
    90ec:	e5943008 	ldr	r3, [r4, #8]
    90f0:	e2833001 	add	r3, r3, #1
    90f4:	e5843008 	str	r3, [r4, #8]
    90f8:	e8bd8010 	pop	{r4, pc}
    90fc:	e5902008 	ldr	r2, [r0, #8]
    9100:	e1530002 	cmp	r3, r2
    9104:	cafffff0 	bgt	90cc <iobuf_readbyte+0x24>
    9108:	e3e00000 	mvn	r0, #0
    910c:	e8bd8010 	pop	{r4, pc}
    9110:	e1a00004 	mov	r0, r4
    9114:	ebfffcb0 	bl	83dc <underflow_target.constprop.0>
    9118:	e3700001 	cmn	r0, #1
    911c:	1afffff2 	bne	90ec <iobuf_readbyte+0x44>
    9120:	eafffff8 	b	9108 <iobuf_readbyte+0x60>
    9124:	e30e0bcc 	movw	r0, #60364	; 0xebcc
    9128:	e3400000 	movt	r0, #0
    912c:	eb0014a1 	bl	e3b8 <tfp_printf>
    9130:	e3e00000 	mvn	r0, #0
    9134:	e8bd8010 	pop	{r4, pc}

00009138 <iobuf_read>:
    9138:	e92d41f0 	push	{r4, r5, r6, r7, r8, lr}
    913c:	e5d03000 	ldrb	r3, [r0]
    9140:	e2433002 	sub	r3, r3, #2
    9144:	e3530001 	cmp	r3, #1
    9148:	9a000061 	bls	92d4 <iobuf_read+0x19c>
    914c:	e5905004 	ldr	r5, [r0, #4]
    9150:	e1a04000 	mov	r4, r0
    9154:	e1a06001 	mov	r6, r1
    9158:	e1a07002 	mov	r7, r2
    915c:	e3550000 	cmp	r5, #0
    9160:	0a00002d 	beq	921c <iobuf_read+0xe4>
    9164:	e3520000 	cmp	r2, #0
    9168:	0a000052 	beq	92b8 <iobuf_read+0x180>
    916c:	e3a08000 	mov	r8, #0
    9170:	ea000010 	b	91b8 <iobuf_read+0x80>
    9174:	e5942020 	ldr	r2, [r4, #32]
    9178:	e2831001 	add	r1, r3, #1
    917c:	e5841018 	str	r1, [r4, #24]
    9180:	e7d20003 	ldrb	r0, [r2, r3]
    9184:	e5943008 	ldr	r3, [r4, #8]
    9188:	e3560000 	cmp	r6, #0
    918c:	e2888001 	add	r8, r8, #1
    9190:	e2833001 	add	r3, r3, #1
    9194:	e5843008 	str	r3, [r4, #8]
    9198:	14c60001 	strbne	r0, [r6], #1
    919c:	e1580007 	cmp	r8, r7
    91a0:	0a000041 	beq	92ac <iobuf_read+0x174>
    91a4:	e5d43000 	ldrb	r3, [r4]
    91a8:	e2433002 	sub	r3, r3, #2
    91ac:	e3530001 	cmp	r3, #1
    91b0:	9a000042 	bls	92c0 <iobuf_read+0x188>
    91b4:	e5945004 	ldr	r5, [r4, #4]
    91b8:	e3550000 	cmp	r5, #0
    91bc:	0a000002 	beq	91cc <iobuf_read+0x94>
    91c0:	e5943008 	ldr	r3, [r4, #8]
    91c4:	e1550003 	cmp	r5, r3
    91c8:	da000007 	ble	91ec <iobuf_read+0xb4>
    91cc:	e5943018 	ldr	r3, [r4, #24]
    91d0:	e594201c 	ldr	r2, [r4, #28]
    91d4:	e1530002 	cmp	r3, r2
    91d8:	3affffe5 	bcc	9174 <iobuf_read+0x3c>
    91dc:	e1a00004 	mov	r0, r4
    91e0:	ebfffc7d 	bl	83dc <underflow_target.constprop.0>
    91e4:	e3700001 	cmn	r0, #1
    91e8:	1affffe5 	bne	9184 <iobuf_read+0x4c>
    91ec:	e3580000 	cmp	r8, #0
    91f0:	11a05008 	movne	r5, r8
    91f4:	03e05000 	mvneq	r5, #0
    91f8:	e1a00005 	mov	r0, r5
    91fc:	e8bd81f0 	pop	{r4, r5, r6, r7, r8, pc}
    9200:	e3560000 	cmp	r6, #0
    9204:	0a000001 	beq	9210 <iobuf_read+0xd8>
    9208:	e3a03000 	mov	r3, #0
    920c:	e4c63001 	strb	r3, [r6], #1
    9210:	e2855001 	add	r5, r5, #1
    9214:	e1570005 	cmp	r7, r5
    9218:	9a000001 	bls	9224 <iobuf_read+0xec>
    921c:	e1550007 	cmp	r5, r7
    9220:	3a000004 	bcc	9238 <iobuf_read+0x100>
    9224:	e5943008 	ldr	r3, [r4, #8]
    9228:	e1a00005 	mov	r0, r5
    922c:	e0833005 	add	r3, r3, r5
    9230:	e5843008 	str	r3, [r4, #8]
    9234:	e8bd81f0 	pop	{r4, r5, r6, r7, r8, pc}
    9238:	e5943018 	ldr	r3, [r4, #24]
    923c:	e594201c 	ldr	r2, [r4, #28]
    9240:	e0478005 	sub	r8, r7, r5
    9244:	e1530002 	cmp	r3, r2
    9248:	e0421003 	sub	r1, r2, r3
    924c:	2affffeb 	bcs	9200 <iobuf_read+0xc8>
    9250:	e1580001 	cmp	r8, r1
    9254:	21a08001 	movcs	r8, r1
    9258:	e3560000 	cmp	r6, #0
    925c:	e0832008 	add	r2, r3, r8
    9260:	0a00000c 	beq	9298 <iobuf_read+0x160>
    9264:	e5941020 	ldr	r1, [r4, #32]
    9268:	e1a00006 	mov	r0, r6
    926c:	e0855008 	add	r5, r5, r8
    9270:	e1a02008 	mov	r2, r8
    9274:	e0811003 	add	r1, r1, r3
    9278:	e0866008 	add	r6, r6, r8
    927c:	eb000d6e 	bl	c83c <memcpy>
    9280:	e5943018 	ldr	r3, [r4, #24]
    9284:	e1570005 	cmp	r7, r5
    9288:	e0833008 	add	r3, r3, r8
    928c:	e5843018 	str	r3, [r4, #24]
    9290:	9affffe3 	bls	9224 <iobuf_read+0xec>
    9294:	eaffffdb 	b	9208 <iobuf_read+0xd0>
    9298:	e0855008 	add	r5, r5, r8
    929c:	e1570005 	cmp	r7, r5
    92a0:	e5842018 	str	r2, [r4, #24]
    92a4:	8affffd9 	bhi	9210 <iobuf_read+0xd8>
    92a8:	eaffffdd 	b	9224 <iobuf_read+0xec>
    92ac:	e1a05008 	mov	r5, r8
    92b0:	e1a00005 	mov	r0, r5
    92b4:	e8bd81f0 	pop	{r4, r5, r6, r7, r8, pc}
    92b8:	e1a05002 	mov	r5, r2
    92bc:	eaffffcd 	b	91f8 <iobuf_read+0xc0>
    92c0:	e30e0bcc 	movw	r0, #60364	; 0xebcc
    92c4:	e1a05008 	mov	r5, r8
    92c8:	e3400000 	movt	r0, #0
    92cc:	eb001439 	bl	e3b8 <tfp_printf>
    92d0:	eaffffc8 	b	91f8 <iobuf_read+0xc0>
    92d4:	e30e0bfc 	movw	r0, #60412	; 0xebfc
    92d8:	e3e05000 	mvn	r5, #0
    92dc:	e3400000 	movt	r0, #0
    92e0:	eb001434 	bl	e3b8 <tfp_printf>
    92e4:	eaffffc3 	b	91f8 <iobuf_read+0xc0>

000092e8 <iobuf_writebyte>:
    92e8:	e92d4070 	push	{r4, r5, r6, lr}
    92ec:	e1a04000 	mov	r4, r0
    92f0:	e30e0c28 	movw	r0, #60456	; 0xec28
    92f4:	e1a06001 	mov	r6, r1
    92f8:	e3400000 	movt	r0, #0
    92fc:	eb00142d 	bl	e3b8 <tfp_printf>
    9300:	e5d43000 	ldrb	r3, [r4]
    9304:	e3530001 	cmp	r3, #1
    9308:	9a000019 	bls	9374 <iobuf_writebyte+0x8c>
    930c:	e594001c 	ldr	r0, [r4, #28]
    9310:	e5943014 	ldr	r3, [r4, #20]
    9314:	e1500003 	cmp	r0, r3
    9318:	0a00000b 	beq	934c <iobuf_writebyte+0x64>
    931c:	e1500003 	cmp	r0, r3
    9320:	e3a05000 	mov	r5, #0
    9324:	23a00000 	movcs	r0, #0
    9328:	33a00001 	movcc	r0, #1
    932c:	eb001421 	bl	e3b8 <tfp_printf>
    9330:	e594301c 	ldr	r3, [r4, #28]
    9334:	e5942020 	ldr	r2, [r4, #32]
    9338:	e2831001 	add	r1, r3, #1
    933c:	e584101c 	str	r1, [r4, #28]
    9340:	e7c26003 	strb	r6, [r2, r3]
    9344:	e1a00005 	mov	r0, r5
    9348:	e8bd8070 	pop	{r4, r5, r6, pc}
    934c:	e1a00004 	mov	r0, r4
    9350:	ebfffbb4 	bl	8228 <filter_flush>
    9354:	e2505000 	subs	r5, r0, #0
    9358:	0594001c 	ldreq	r0, [r4, #28]
    935c:	05943014 	ldreq	r3, [r4, #20]
    9360:	0affffed 	beq	931c <iobuf_writebyte+0x34>
    9364:	e30e0c70 	movw	r0, #60528	; 0xec70
    9368:	e3400000 	movt	r0, #0
    936c:	eb001411 	bl	e3b8 <tfp_printf>
    9370:	eafffff3 	b	9344 <iobuf_writebyte+0x5c>
    9374:	e30e0c40 	movw	r0, #60480	; 0xec40
    9378:	e3e05000 	mvn	r5, #0
    937c:	e3400000 	movt	r0, #0
    9380:	eb00140c 	bl	e3b8 <tfp_printf>
    9384:	eaffffee 	b	9344 <iobuf_writebyte+0x5c>

00009388 <iobuf_write>:
    9388:	e92d41f0 	push	{r4, r5, r6, r7, r8, lr}
    938c:	e1a06000 	mov	r6, r0
    9390:	e30e0c80 	movw	r0, #60544	; 0xec80
    9394:	e1a07001 	mov	r7, r1
    9398:	e3400000 	movt	r0, #0
    939c:	e1a01002 	mov	r1, r2
    93a0:	e1a05002 	mov	r5, r2
    93a4:	eb001403 	bl	e3b8 <tfp_printf>
    93a8:	e5d63000 	ldrb	r3, [r6]
    93ac:	e3530001 	cmp	r3, #1
    93b0:	9a000022 	bls	9440 <iobuf_write+0xb8>
    93b4:	e3550000 	cmp	r5, #0
    93b8:	e30e8cbc 	movw	r8, #60604	; 0xecbc
    93bc:	e3408000 	movt	r8, #0
    93c0:	0a000009 	beq	93ec <iobuf_write+0x64>
    93c4:	e596201c 	ldr	r2, [r6, #28]
    93c8:	e5963014 	ldr	r3, [r6, #20]
    93cc:	e1520003 	cmp	r2, r3
    93d0:	3a000007 	bcc	93f4 <iobuf_write+0x6c>
    93d4:	e1a00006 	mov	r0, r6
    93d8:	ebfffb92 	bl	8228 <filter_flush>
    93dc:	e3500000 	cmp	r0, #0
    93e0:	18bd81f0 	popne	{r4, r5, r6, r7, r8, pc}
    93e4:	e3550000 	cmp	r5, #0
    93e8:	1afffff5 	bne	93c4 <iobuf_write+0x3c>
    93ec:	e3a00000 	mov	r0, #0
    93f0:	e8bd81f0 	pop	{r4, r5, r6, r7, r8, pc}
    93f4:	e0433002 	sub	r3, r3, r2
    93f8:	e1a01007 	mov	r1, r7
    93fc:	e1550003 	cmp	r5, r3
    9400:	e5960020 	ldr	r0, [r6, #32]
    9404:	21a04003 	movcs	r4, r3
    9408:	31a04005 	movcc	r4, r5
    940c:	e0800002 	add	r0, r0, r2
    9410:	e1a02004 	mov	r2, r4
    9414:	eb000d08 	bl	c83c <memcpy>
    9418:	e1a01004 	mov	r1, r4
    941c:	e1a00008 	mov	r0, r8
    9420:	eb0013e4 	bl	e3b8 <tfp_printf>
    9424:	e596301c 	ldr	r3, [r6, #28]
    9428:	e0555004 	subs	r5, r5, r4
    942c:	e0833004 	add	r3, r3, r4
    9430:	e586301c 	str	r3, [r6, #28]
    9434:	0affffec 	beq	93ec <iobuf_write+0x64>
    9438:	e0877004 	add	r7, r7, r4
    943c:	eaffffe4 	b	93d4 <iobuf_write+0x4c>
    9440:	e30e0c90 	movw	r0, #60560	; 0xec90
    9444:	e3400000 	movt	r0, #0
    9448:	eb0013da 	bl	e3b8 <tfp_printf>
    944c:	e3e00000 	mvn	r0, #0
    9450:	e8bd81f0 	pop	{r4, r5, r6, r7, r8, pc}

00009454 <block_filter>:
    9454:	e92d4ff8 	push	{r3, r4, r5, r6, r7, r8, r9, sl, fp, lr}
    9458:	e3510003 	cmp	r1, #3
    945c:	e59dc028 	ldr	ip, [sp, #40]	; 0x28
    9460:	e1a06000 	mov	r6, r0
    9464:	e1a0b002 	mov	fp, r2
    9468:	e1a07003 	mov	r7, r3
    946c:	e59c5000 	ldr	r5, [ip]
    9470:	0a00001b 	beq	94e4 <block_filter+0x90>
    9474:	e3510004 	cmp	r1, #4
    9478:	0a000006 	beq	9498 <block_filter+0x44>
    947c:	e3510001 	cmp	r1, #1
    9480:	0a00003e 	beq	9580 <block_filter+0x12c>
    9484:	e3510002 	cmp	r1, #2
    9488:	13a04000 	movne	r4, #0
    948c:	0a000122 	beq	991c <block_filter+0x4c8>
    9490:	e1a00004 	mov	r0, r4
    9494:	e8bd8ff8 	pop	{r3, r4, r5, r6, r7, r8, r9, sl, fp, pc}
    9498:	e590400c 	ldr	r4, [r0, #12]
    949c:	e3540000 	cmp	r4, #0
    94a0:	0afffffa 	beq	9490 <block_filter+0x3c>
    94a4:	e5900014 	ldr	r0, [r0, #20]
    94a8:	e0808005 	add	r8, r0, r5
    94ac:	e3580c02 	cmp	r8, #512	; 0x200
    94b0:	2a00005e 	bcs	9630 <block_filter+0x1dc>
    94b4:	e5963010 	ldr	r3, [r6, #16]
    94b8:	e3530000 	cmp	r3, #0
    94bc:	0a00016d 	beq	9a78 <block_filter+0x624>
    94c0:	e0830000 	add	r0, r3, r0
    94c4:	e1a02005 	mov	r2, r5
    94c8:	e1a01007 	mov	r1, r7
    94cc:	e3a04000 	mov	r4, #0
    94d0:	eb000cd9 	bl	c83c <memcpy>
    94d4:	e5963014 	ldr	r3, [r6, #20]
    94d8:	e0835005 	add	r5, r3, r5
    94dc:	e5865014 	str	r5, [r6, #20]
    94e0:	eaffffea 	b	9490 <block_filter+0x3c>
    94e4:	e1a00005 	mov	r0, r5
    94e8:	eb0013b2 	bl	e3b8 <tfp_printf>
    94ec:	e596301c 	ldr	r3, [r6, #28]
    94f0:	e3530000 	cmp	r3, #0
    94f4:	13a09000 	movne	r9, #0
    94f8:	13e04000 	mvnne	r4, #0
    94fc:	1a00001b 	bne	9570 <block_filter+0x11c>
    9500:	e3550000 	cmp	r5, #0
    9504:	0a00018e 	beq	9b44 <block_filter+0x6f0>
    9508:	e5969004 	ldr	r9, [r6, #4]
    950c:	e3590000 	cmp	r9, #0
    9510:	11a09003 	movne	r9, r3
    9514:	0a000065 	beq	96b0 <block_filter+0x25c>
    9518:	e2558000 	subs	r8, r5, #0
    951c:	e3a04000 	mov	r4, #0
    9520:	13a08001 	movne	r8, #1
    9524:	ea00000a 	b	9554 <block_filter+0x100>
    9528:	e5962004 	ldr	r2, [r6, #4]
    952c:	e3a04059 	mov	r4, #89	; 0x59
    9530:	e3520000 	cmp	r2, #0
    9534:	0a00005d 	beq	96b0 <block_filter+0x25c>
    9538:	e1520005 	cmp	r2, r5
    953c:	31a0a002 	movcc	sl, r2
    9540:	21a0a005 	movcs	sl, r5
    9544:	e1a0200a 	mov	r2, sl
    9548:	ebfffefa 	bl	9138 <iobuf_read>
    954c:	e15a0000 	cmp	sl, r0
    9550:	da000066 	ble	96f0 <block_filter+0x29c>
    9554:	e3540000 	cmp	r4, #0
    9558:	13a03000 	movne	r3, #0
    955c:	02083001 	andeq	r3, r8, #1
    9560:	e1a01007 	mov	r1, r7
    9564:	e3530000 	cmp	r3, #0
    9568:	e1a0000b 	mov	r0, fp
    956c:	1affffed 	bne	9528 <block_filter+0xd4>
    9570:	e59d3028 	ldr	r3, [sp, #40]	; 0x28
    9574:	e1a00004 	mov	r0, r4
    9578:	e5839000 	str	r9, [r3]
    957c:	e8bd8ff8 	pop	{r3, r4, r5, r6, r7, r8, r9, sl, fp, pc}
    9580:	e590300c 	ldr	r3, [r0, #12]
    9584:	e3530000 	cmp	r3, #0
    9588:	13a03000 	movne	r3, #0
    958c:	15803008 	strne	r3, [r0, #8]
    9590:	1a000004 	bne	95a8 <block_filter+0x154>
    9594:	e5903000 	ldr	r3, [r0]
    9598:	e3530000 	cmp	r3, #0
    959c:	05803004 	streq	r3, [r0, #4]
    95a0:	15903004 	ldrne	r3, [r0, #4]
    95a4:	e5803008 	str	r3, [r0, #8]
    95a8:	e3a03000 	mov	r3, #0
    95ac:	e586301c 	str	r3, [r6, #28]
    95b0:	e1a04003 	mov	r4, r3
    95b4:	e5863010 	str	r3, [r6, #16]
    95b8:	e1a00004 	mov	r0, r4
    95bc:	e5863014 	str	r3, [r6, #20]
    95c0:	e8bd8ff8 	pop	{r3, r4, r5, r6, r7, r8, r9, sl, fp, pc}
    95c4:	e0488004 	sub	r8, r8, r4
    95c8:	e2440c02 	sub	r0, r4, #512	; 0x200
    95cc:	e16f0f10 	clz	r0, r0
    95d0:	e1a002a0 	lsr	r0, r0, #5
    95d4:	eb001377 	bl	e3b8 <tfp_printf>
    95d8:	e5961010 	ldr	r1, [r6, #16]
    95dc:	e1a02004 	mov	r2, r4
    95e0:	e1a0000b 	mov	r0, fp
    95e4:	ebffff67 	bl	9388 <iobuf_write>
    95e8:	e2504000 	subs	r4, r0, #0
    95ec:	e3a03000 	mov	r3, #0
    95f0:	e5863014 	str	r3, [r6, #20]
    95f4:	13a04001 	movne	r4, #1
    95f8:	e1580005 	cmp	r8, r5
    95fc:	e2644000 	rsb	r4, r4, #0
    9600:	31a05008 	movcc	r5, r8
    9604:	e3550000 	cmp	r5, #0
    9608:	1a00001f 	bne	968c <block_filter+0x238>
    960c:	e16f3f14 	clz	r3, r4
    9610:	e0488005 	sub	r8, r8, r5
    9614:	e1a032a3 	lsr	r3, r3, #5
    9618:	e0877005 	add	r7, r7, r5
    961c:	e3580c02 	cmp	r8, #512	; 0x200
    9620:	33a02000 	movcc	r2, #0
    9624:	22032001 	andcs	r2, r3, #1
    9628:	e3520000 	cmp	r2, #0
    962c:	0a0000eb 	beq	99e0 <block_filter+0x58c>
    9630:	e3580b01 	cmp	r8, #1024	; 0x400
    9634:	3a0000bf 	bcc	9938 <block_filter+0x4e4>
    9638:	e3a03b01 	mov	r3, #1024	; 0x400
    963c:	e3a0200a 	mov	r2, #10
    9640:	e1a03083 	lsl	r3, r3, #1
    9644:	e1a00002 	mov	r0, r2
    9648:	e1580003 	cmp	r8, r3
    964c:	e2822001 	add	r2, r2, #1
    9650:	2afffffa 	bcs	9640 <block_filter+0x1ec>
    9654:	e350001f 	cmp	r0, #31
    9658:	e38040e0 	orr	r4, r0, #224	; 0xe0
    965c:	e1a050a3 	lsr	r5, r3, #1
    9660:	c3a00000 	movgt	r0, #0
    9664:	d3a00001 	movle	r0, #1
    9668:	eb001352 	bl	e3b8 <tfp_printf>
    966c:	e1a01004 	mov	r1, r4
    9670:	e1a0000b 	mov	r0, fp
    9674:	ebffff1b 	bl	92e8 <iobuf_writebyte>
    9678:	e5964014 	ldr	r4, [r6, #20]
    967c:	e3540000 	cmp	r4, #0
    9680:	1affffcf 	bne	95c4 <block_filter+0x170>
    9684:	e1580005 	cmp	r8, r5
    9688:	31a05008 	movcc	r5, r8
    968c:	e1a02005 	mov	r2, r5
    9690:	e1a01007 	mov	r1, r7
    9694:	e1a0000b 	mov	r0, fp
    9698:	ebffff3a 	bl	9388 <iobuf_write>
    969c:	e3500000 	cmp	r0, #0
    96a0:	0affffd9 	beq	960c <block_filter+0x1b8>
    96a4:	e3e04000 	mvn	r4, #0
    96a8:	e1a00004 	mov	r0, r4
    96ac:	e8bd8ff8 	pop	{r3, r4, r5, r6, r7, r8, r9, sl, fp, pc}
    96b0:	e596300c 	ldr	r3, [r6, #12]
    96b4:	e3530002 	cmp	r3, #2
    96b8:	0a000028 	beq	9760 <block_filter+0x30c>
    96bc:	e3530000 	cmp	r3, #0
    96c0:	0affff94 	beq	9518 <block_filter+0xc4>
    96c4:	e5960018 	ldr	r0, [r6, #24]
    96c8:	e3500000 	cmp	r0, #0
    96cc:	0a00000e 	beq	970c <block_filter+0x2b8>
    96d0:	e35000bf 	cmp	r0, #191	; 0xbf
    96d4:	e3a03000 	mov	r3, #0
    96d8:	e5863018 	str	r3, [r6, #24]
    96dc:	ca000025 	bgt	9778 <block_filter+0x324>
    96e0:	e5860004 	str	r0, [r6, #4]
    96e4:	e3a03002 	mov	r3, #2
    96e8:	e586300c 	str	r3, [r6, #12]
    96ec:	eaffff89 	b	9518 <block_filter+0xc4>
    96f0:	e5963004 	ldr	r3, [r6, #4]
    96f4:	e0455000 	sub	r5, r5, r0
    96f8:	e0877000 	add	r7, r7, r0
    96fc:	e0899000 	add	r9, r9, r0
    9700:	e0430000 	sub	r0, r3, r0
    9704:	e5860004 	str	r0, [r6, #4]
    9708:	eaffff82 	b	9518 <block_filter+0xc4>
    970c:	e59b3010 	ldr	r3, [fp, #16]
    9710:	e3530000 	cmp	r3, #0
    9714:	1a000030 	bne	97dc <block_filter+0x388>
    9718:	e59b3018 	ldr	r3, [fp, #24]
    971c:	e59b201c 	ldr	r2, [fp, #28]
    9720:	e1530002 	cmp	r3, r2
    9724:	2a00002c 	bcs	97dc <block_filter+0x388>
    9728:	e59b2008 	ldr	r2, [fp, #8]
    972c:	e59b1020 	ldr	r1, [fp, #32]
    9730:	e2822001 	add	r2, r2, #1
    9734:	e58b2008 	str	r2, [fp, #8]
    9738:	e2832001 	add	r2, r3, #1
    973c:	e58b2018 	str	r2, [fp, #24]
    9740:	e7d10003 	ldrb	r0, [r1, r3]
    9744:	e35000bf 	cmp	r0, #191	; 0xbf
    9748:	ca00000a 	bgt	9778 <block_filter+0x324>
    974c:	e5860004 	str	r0, [r6, #4]
    9750:	e3500000 	cmp	r0, #0
    9754:	e3a03002 	mov	r3, #2
    9758:	e586300c 	str	r3, [r6, #12]
    975c:	1affff6d 	bne	9518 <block_filter+0xc4>
    9760:	e16f4f19 	clz	r4, r9
    9764:	e3a03001 	mov	r3, #1
    9768:	e586301c 	str	r3, [r6, #28]
    976c:	e1a042a4 	lsr	r4, r4, #5
    9770:	e2644000 	rsb	r4, r4, #0
    9774:	eaffff7d 	b	9570 <block_filter+0x11c>
    9778:	e35000df 	cmp	r0, #223	; 0xdf
    977c:	ca00001c 	bgt	97f4 <block_filter+0x3a0>
    9780:	e59b3010 	ldr	r3, [fp, #16]
    9784:	e3530000 	cmp	r3, #0
    9788:	e24030c0 	sub	r3, r0, #192	; 0xc0
    978c:	e1a03403 	lsl	r3, r3, #8
    9790:	e5863004 	str	r3, [r6, #4]
    9794:	1a00001d 	bne	9810 <block_filter+0x3bc>
    9798:	e59b2018 	ldr	r2, [fp, #24]
    979c:	e59b101c 	ldr	r1, [fp, #28]
    97a0:	e1520001 	cmp	r2, r1
    97a4:	2a000019 	bcs	9810 <block_filter+0x3bc>
    97a8:	e59b1008 	ldr	r1, [fp, #8]
    97ac:	e28330c0 	add	r3, r3, #192	; 0xc0
    97b0:	e59b0020 	ldr	r0, [fp, #32]
    97b4:	e2811001 	add	r1, r1, #1
    97b8:	e58b1008 	str	r1, [fp, #8]
    97bc:	e2821001 	add	r1, r2, #1
    97c0:	e58b1018 	str	r1, [fp, #24]
    97c4:	e7d02002 	ldrb	r2, [r0, r2]
    97c8:	e0823003 	add	r3, r2, r3
    97cc:	e5863004 	str	r3, [r6, #4]
    97d0:	e3a03002 	mov	r3, #2
    97d4:	e586300c 	str	r3, [r6, #12]
    97d8:	eaffff4e 	b	9518 <block_filter+0xc4>
    97dc:	e1a0000b 	mov	r0, fp
    97e0:	ebfffe30 	bl	90a8 <iobuf_readbyte>
    97e4:	e3700001 	cmn	r0, #1
    97e8:	1affffd5 	bne	9744 <block_filter+0x2f0>
    97ec:	e3a04059 	mov	r4, #89	; 0x59
    97f0:	eaffff5e 	b	9570 <block_filter+0x11c>
    97f4:	e35000ff 	cmp	r0, #255	; 0xff
    97f8:	0a000011 	beq	9844 <block_filter+0x3f0>
    97fc:	e200001f 	and	r0, r0, #31
    9800:	e3a03001 	mov	r3, #1
    9804:	e1a00013 	lsl	r0, r3, r0
    9808:	e5860004 	str	r0, [r6, #4]
    980c:	eaffff41 	b	9518 <block_filter+0xc4>
    9810:	e1a0000b 	mov	r0, fp
    9814:	ebfffe23 	bl	90a8 <iobuf_readbyte>
    9818:	e3700001 	cmn	r0, #1
    981c:	0afffff2 	beq	97ec <block_filter+0x398>
    9820:	e5963004 	ldr	r3, [r6, #4]
    9824:	e28330c0 	add	r3, r3, #192	; 0xc0
    9828:	e0833000 	add	r3, r3, r0
    982c:	e5863004 	str	r3, [r6, #4]
    9830:	e3530000 	cmp	r3, #0
    9834:	e3a03002 	mov	r3, #2
    9838:	e586300c 	str	r3, [r6, #12]
    983c:	1affff35 	bne	9518 <block_filter+0xc4>
    9840:	eaffffc6 	b	9760 <block_filter+0x30c>
    9844:	e59b3010 	ldr	r3, [fp, #16]
    9848:	e3530000 	cmp	r3, #0
    984c:	1a000003 	bne	9860 <block_filter+0x40c>
    9850:	e59b3018 	ldr	r3, [fp, #24]
    9854:	e59b201c 	ldr	r2, [fp, #28]
    9858:	e1530002 	cmp	r3, r2
    985c:	3a000055 	bcc	99b8 <block_filter+0x564>
    9860:	e1a0000b 	mov	r0, fp
    9864:	ebfffe0f 	bl	90a8 <iobuf_readbyte>
    9868:	e59b2010 	ldr	r2, [fp, #16]
    986c:	e1a03c00 	lsl	r3, r0, #24
    9870:	e5863004 	str	r3, [r6, #4]
    9874:	e3520000 	cmp	r2, #0
    9878:	059b201c 	ldreq	r2, [fp, #28]
    987c:	1a000002 	bne	988c <block_filter+0x438>
    9880:	e59b1018 	ldr	r1, [fp, #24]
    9884:	e1510002 	cmp	r1, r2
    9888:	3a00002e 	bcc	9948 <block_filter+0x4f4>
    988c:	e1a0000b 	mov	r0, fp
    9890:	ebfffe04 	bl	90a8 <iobuf_readbyte>
    9894:	e59b1010 	ldr	r1, [fp, #16]
    9898:	e5962004 	ldr	r2, [r6, #4]
    989c:	e1a03800 	lsl	r3, r0, #16
    98a0:	e3510000 	cmp	r1, #0
    98a4:	e20338ff 	and	r3, r3, #16711680	; 0xff0000
    98a8:	e1833002 	orr	r3, r3, r2
    98ac:	e5863004 	str	r3, [r6, #4]
    98b0:	059b201c 	ldreq	r2, [fp, #28]
    98b4:	1a000002 	bne	98c4 <block_filter+0x470>
    98b8:	e59b1018 	ldr	r1, [fp, #24]
    98bc:	e1510002 	cmp	r1, r2
    98c0:	3a00002a 	bcc	9970 <block_filter+0x51c>
    98c4:	e1a0000b 	mov	r0, fp
    98c8:	ebfffdf6 	bl	90a8 <iobuf_readbyte>
    98cc:	e59b1010 	ldr	r1, [fp, #16]
    98d0:	e5962004 	ldr	r2, [r6, #4]
    98d4:	e1a03400 	lsl	r3, r0, #8
    98d8:	e3510000 	cmp	r1, #0
    98dc:	e6ff3073 	uxth	r3, r3
    98e0:	e1833002 	orr	r3, r3, r2
    98e4:	e5863004 	str	r3, [r6, #4]
    98e8:	059b201c 	ldreq	r2, [fp, #28]
    98ec:	1a000002 	bne	98fc <block_filter+0x4a8>
    98f0:	e59b1018 	ldr	r1, [fp, #24]
    98f4:	e1510002 	cmp	r1, r2
    98f8:	3a000026 	bcc	9998 <block_filter+0x544>
    98fc:	e1a0000b 	mov	r0, fp
    9900:	ebfffde8 	bl	90a8 <iobuf_readbyte>
    9904:	e3700001 	cmn	r0, #1
    9908:	e1a02000 	mov	r2, r0
    990c:	0affffb6 	beq	97ec <block_filter+0x398>
    9910:	e5963004 	ldr	r3, [r6, #4]
    9914:	e1823003 	orr	r3, r2, r3
    9918:	eaffffc3 	b	982c <block_filter+0x3d8>
    991c:	e5903000 	ldr	r3, [r0]
    9920:	e3530002 	cmp	r3, #2
    9924:	13a04000 	movne	r4, #0
    9928:	0a00003a 	beq	9a18 <block_filter+0x5c4>
    992c:	e1a00006 	mov	r0, r6
    9930:	eb000b92 	bl	c780 <xfree>
    9934:	eafffed5 	b	9490 <block_filter+0x3c>
    9938:	e3a05c02 	mov	r5, #512	; 0x200
    993c:	e3a00001 	mov	r0, #1
    9940:	e3a040e9 	mov	r4, #233	; 0xe9
    9944:	eaffff47 	b	9668 <block_filter+0x214>
    9948:	e59b0008 	ldr	r0, [fp, #8]
    994c:	e59bc020 	ldr	ip, [fp, #32]
    9950:	e2800001 	add	r0, r0, #1
    9954:	e58b0008 	str	r0, [fp, #8]
    9958:	e2810001 	add	r0, r1, #1
    995c:	e58b0018 	str	r0, [fp, #24]
    9960:	e7dc1001 	ldrb	r1, [ip, r1]
    9964:	e1833801 	orr	r3, r3, r1, lsl #16
    9968:	e5863004 	str	r3, [r6, #4]
    996c:	eaffffd1 	b	98b8 <block_filter+0x464>
    9970:	e59b0008 	ldr	r0, [fp, #8]
    9974:	e59bc020 	ldr	ip, [fp, #32]
    9978:	e2800001 	add	r0, r0, #1
    997c:	e58b0008 	str	r0, [fp, #8]
    9980:	e2810001 	add	r0, r1, #1
    9984:	e58b0018 	str	r0, [fp, #24]
    9988:	e7dc1001 	ldrb	r1, [ip, r1]
    998c:	e1833401 	orr	r3, r3, r1, lsl #8
    9990:	e5863004 	str	r3, [r6, #4]
    9994:	eaffffd5 	b	98f0 <block_filter+0x49c>
    9998:	e59b2008 	ldr	r2, [fp, #8]
    999c:	e59b0020 	ldr	r0, [fp, #32]
    99a0:	e2822001 	add	r2, r2, #1
    99a4:	e58b2008 	str	r2, [fp, #8]
    99a8:	e2812001 	add	r2, r1, #1
    99ac:	e58b2018 	str	r2, [fp, #24]
    99b0:	e7d02001 	ldrb	r2, [r0, r1]
    99b4:	eaffffd6 	b	9914 <block_filter+0x4c0>
    99b8:	e59b1008 	ldr	r1, [fp, #8]
    99bc:	e59b0020 	ldr	r0, [fp, #32]
    99c0:	e2811001 	add	r1, r1, #1
    99c4:	e58b1008 	str	r1, [fp, #8]
    99c8:	e2831001 	add	r1, r3, #1
    99cc:	e58b1018 	str	r1, [fp, #24]
    99d0:	e7d03003 	ldrb	r3, [r0, r3]
    99d4:	e1a03c03 	lsl	r3, r3, #24
    99d8:	e5863004 	str	r3, [r6, #4]
    99dc:	eaffffa7 	b	9880 <block_filter+0x42c>
    99e0:	e3580000 	cmp	r8, #0
    99e4:	03a03000 	moveq	r3, #0
    99e8:	12033001 	andne	r3, r3, #1
    99ec:	e3530000 	cmp	r3, #0
    99f0:	0afffea6 	beq	9490 <block_filter+0x3c>
    99f4:	e5960010 	ldr	r0, [r6, #16]
    99f8:	e3500000 	cmp	r0, #0
    99fc:	0a000023 	beq	9a90 <block_filter+0x63c>
    9a00:	e1a02008 	mov	r2, r8
    9a04:	e1a01007 	mov	r1, r7
    9a08:	e3a04000 	mov	r4, #0
    9a0c:	eb000b8a 	bl	c83c <memcpy>
    9a10:	e5868014 	str	r8, [r6, #20]
    9a14:	eafffe9d 	b	9490 <block_filter+0x3c>
    9a18:	e590400c 	ldr	r4, [r0, #12]
    9a1c:	e3540000 	cmp	r4, #0
    9a20:	0affffc1 	beq	992c <block_filter+0x4d8>
    9a24:	e5904014 	ldr	r4, [r0, #20]
    9a28:	e35400bf 	cmp	r4, #191	; 0xbf
    9a2c:	9a00003f 	bls	9b30 <block_filter+0x6dc>
    9a30:	e3540d83 	cmp	r4, #8384	; 0x20c0
    9a34:	2a000019 	bcs	9aa0 <block_filter+0x64c>
    9a38:	e24450c0 	sub	r5, r4, #192	; 0xc0
    9a3c:	e1a00002 	mov	r0, r2
    9a40:	e1a01425 	lsr	r1, r5, #8
    9a44:	e28110c0 	add	r1, r1, #192	; 0xc0
    9a48:	ebfffe26 	bl	92e8 <iobuf_writebyte>
    9a4c:	e2503000 	subs	r3, r0, #0
    9a50:	0a00003e 	beq	9b50 <block_filter+0x6fc>
    9a54:	e2533000 	subs	r3, r3, #0
    9a58:	e5960010 	ldr	r0, [r6, #16]
    9a5c:	13a03001 	movne	r3, #1
    9a60:	e2634000 	rsb	r4, r3, #0
    9a64:	eb000b45 	bl	c780 <xfree>
    9a68:	e3a03000 	mov	r3, #0
    9a6c:	e5863010 	str	r3, [r6, #16]
    9a70:	e5863014 	str	r3, [r6, #20]
    9a74:	eaffffac 	b	992c <block_filter+0x4d8>
    9a78:	e3a00c02 	mov	r0, #512	; 0x200
    9a7c:	eb000b04 	bl	c694 <xmalloc>
    9a80:	e1a03000 	mov	r3, r0
    9a84:	e5863010 	str	r3, [r6, #16]
    9a88:	e5960014 	ldr	r0, [r6, #20]
    9a8c:	eafffe8b 	b	94c0 <block_filter+0x6c>
    9a90:	e3a00c02 	mov	r0, #512	; 0x200
    9a94:	eb000afe 	bl	c694 <xmalloc>
    9a98:	e5860010 	str	r0, [r6, #16]
    9a9c:	eaffffd7 	b	9a00 <block_filter+0x5ac>
    9aa0:	e3a010ff 	mov	r1, #255	; 0xff
    9aa4:	e1a00002 	mov	r0, r2
    9aa8:	ebfffe0e 	bl	92e8 <iobuf_writebyte>
    9aac:	e2503000 	subs	r3, r0, #0
    9ab0:	1affffe7 	bne	9a54 <block_filter+0x600>
    9ab4:	e1a01c24 	lsr	r1, r4, #24
    9ab8:	e1a0000b 	mov	r0, fp
    9abc:	ebfffe09 	bl	92e8 <iobuf_writebyte>
    9ac0:	e2503000 	subs	r3, r0, #0
    9ac4:	1affffe2 	bne	9a54 <block_filter+0x600>
    9ac8:	e7e71854 	ubfx	r1, r4, #16, #8
    9acc:	e1a0000b 	mov	r0, fp
    9ad0:	ebfffe04 	bl	92e8 <iobuf_writebyte>
    9ad4:	e2503000 	subs	r3, r0, #0
    9ad8:	1affffdd 	bne	9a54 <block_filter+0x600>
    9adc:	e7e71454 	ubfx	r1, r4, #8, #8
    9ae0:	e1a0000b 	mov	r0, fp
    9ae4:	ebfffdff 	bl	92e8 <iobuf_writebyte>
    9ae8:	e2503000 	subs	r3, r0, #0
    9aec:	1affffd8 	bne	9a54 <block_filter+0x600>
    9af0:	e6ef1074 	uxtb	r1, r4
    9af4:	e1a0000b 	mov	r0, fp
    9af8:	ebfffdfa 	bl	92e8 <iobuf_writebyte>
    9afc:	e1a03000 	mov	r3, r0
    9b00:	e16f2f13 	clz	r2, r3
    9b04:	e3540000 	cmp	r4, #0
    9b08:	e1a022a2 	lsr	r2, r2, #5
    9b0c:	03a02000 	moveq	r2, #0
    9b10:	e3520000 	cmp	r2, #0
    9b14:	0affffce 	beq	9a54 <block_filter+0x600>
    9b18:	e5961010 	ldr	r1, [r6, #16]
    9b1c:	e1a02004 	mov	r2, r4
    9b20:	e1a0000b 	mov	r0, fp
    9b24:	ebfffe17 	bl	9388 <iobuf_write>
    9b28:	e1a03000 	mov	r3, r0
    9b2c:	eaffffc8 	b	9a54 <block_filter+0x600>
    9b30:	e1a01004 	mov	r1, r4
    9b34:	e1a00002 	mov	r0, r2
    9b38:	ebfffdea 	bl	92e8 <iobuf_writebyte>
    9b3c:	e1a03000 	mov	r3, r0
    9b40:	eaffffee 	b	9b00 <block_filter+0x6ac>
    9b44:	e1a09005 	mov	r9, r5
    9b48:	e1a04005 	mov	r4, r5
    9b4c:	eafffe87 	b	9570 <block_filter+0x11c>
    9b50:	e6ef1075 	uxtb	r1, r5
    9b54:	e1a0000b 	mov	r0, fp
    9b58:	ebfffde2 	bl	92e8 <iobuf_writebyte>
    9b5c:	e1a03000 	mov	r3, r0
    9b60:	eaffffe6 	b	9b00 <block_filter+0x6ac>

00009b64 <iobuf_tell>:
    9b64:	e590200c 	ldr	r2, [r0, #12]
    9b68:	e5900008 	ldr	r0, [r0, #8]
    9b6c:	e0820000 	add	r0, r2, r0
    9b70:	e12fff1e 	bx	lr

00009b74 <iobuf_set_partial_body_length_mode>:
    9b74:	e92d4070 	push	{r4, r5, r6, lr}
    9b78:	e2515000 	subs	r5, r1, #0
    9b7c:	e1a04000 	mov	r4, r0
    9b80:	1a000015 	bne	9bdc <iobuf_set_partial_body_length_mode+0x68>
    9b84:	e5d03000 	ldrb	r3, [r0]
    9b88:	e3530000 	cmp	r3, #0
    9b8c:	0a00000e 	beq	9bcc <iobuf_set_partial_body_length_mode+0x58>
    9b90:	e30e0d18 	movw	r0, #60696	; 0xed18
    9b94:	e3095454 	movw	r5, #37972	; 0x9454
    9b98:	e3400000 	movt	r0, #0
    9b9c:	e3405000 	movt	r5, #0
    9ba0:	eb001204 	bl	e3b8 <tfp_printf>
    9ba4:	e594002c 	ldr	r0, [r4, #44]	; 0x2c
    9ba8:	e0400005 	sub	r0, r0, r5
    9bac:	e16f0f10 	clz	r0, r0
    9bb0:	e1a002a0 	lsr	r0, r0, #5
    9bb4:	eb0011ff 	bl	e3b8 <tfp_printf>
    9bb8:	e1a01005 	mov	r1, r5
    9bbc:	e1a00004 	mov	r0, r4
    9bc0:	e3a02000 	mov	r2, #0
    9bc4:	e8bd4070 	pop	{r4, r5, r6, lr}
    9bc8:	eafffc88 	b	8df0 <iobuf_pop_filter>
    9bcc:	e30e0cd4 	movw	r0, #60628	; 0xecd4
    9bd0:	e3400000 	movt	r0, #0
    9bd4:	eb0011f7 	bl	e3b8 <tfp_printf>
    9bd8:	eaffffec 	b	9b90 <iobuf_set_partial_body_length_mode+0x1c>
    9bdc:	e3a01020 	mov	r1, #32
    9be0:	e3a00001 	mov	r0, #1
    9be4:	eb000acd 	bl	c720 <xcalloc>
    9be8:	e5d43000 	ldrb	r3, [r4]
    9bec:	e3a01001 	mov	r1, #1
    9bf0:	e580100c 	str	r1, [r0, #12]
    9bf4:	e3091454 	movw	r1, #37972	; 0x9454
    9bf8:	e5803000 	str	r3, [r0]
    9bfc:	e3a03000 	mov	r3, #0
    9c00:	e5805018 	str	r5, [r0, #24]
    9c04:	e1a02000 	mov	r2, r0
    9c08:	e5803004 	str	r3, [r0, #4]
    9c0c:	e1a00004 	mov	r0, r4
    9c10:	e3401000 	movt	r1, #0
    9c14:	e8bd4070 	pop	{r4, r5, r6, lr}
    9c18:	eafffc1b 	b	8c8c <iobuf_push_filter2>

00009c1c <translate_file_handle>:
    9c1c:	e12fff1e 	bx	lr

00009c20 <iobuf_skip_rest>:
    9c20:	e3520000 	cmp	r2, #0
    9c24:	e92d4070 	push	{r4, r5, r6, lr}
    9c28:	e1a04000 	mov	r4, r0
    9c2c:	0a00002c 	beq	9ce4 <iobuf_skip_rest+0xc4>
    9c30:	e5d01000 	ldrb	r1, [r0]
    9c34:	e590c010 	ldr	ip, [r0, #16]
    9c38:	e2411002 	sub	r1, r1, #2
    9c3c:	ea000004 	b	9c54 <iobuf_skip_rest+0x34>
    9c40:	e2833001 	add	r3, r3, #1
    9c44:	e5843018 	str	r3, [r4, #24]
    9c48:	e5943008 	ldr	r3, [r4, #8]
    9c4c:	e2833001 	add	r3, r3, #1
    9c50:	e5843008 	str	r3, [r4, #8]
    9c54:	e35c0000 	cmp	ip, #0
    9c58:	0a000014 	beq	9cb0 <iobuf_skip_rest+0x90>
    9c5c:	e6ef3071 	uxtb	r3, r1
    9c60:	e3530001 	cmp	r3, #1
    9c64:	9a000052 	bls	9db4 <iobuf_skip_rest+0x194>
    9c68:	e5943004 	ldr	r3, [r4, #4]
    9c6c:	e3530000 	cmp	r3, #0
    9c70:	0a000002 	beq	9c80 <iobuf_skip_rest+0x60>
    9c74:	e5942008 	ldr	r2, [r4, #8]
    9c78:	e1530002 	cmp	r3, r2
    9c7c:	d8bd8070 	pople	{r4, r5, r6, pc}
    9c80:	e5943018 	ldr	r3, [r4, #24]
    9c84:	e594201c 	ldr	r2, [r4, #28]
    9c88:	e1530002 	cmp	r3, r2
    9c8c:	3affffeb 	bcc	9c40 <iobuf_skip_rest+0x20>
    9c90:	e1a00004 	mov	r0, r4
    9c94:	ebfff9d0 	bl	83dc <underflow_target.constprop.0>
    9c98:	e3700001 	cmn	r0, #1
    9c9c:	08bd8070 	popeq	{r4, r5, r6, pc}
    9ca0:	e5d41000 	ldrb	r1, [r4]
    9ca4:	e594c010 	ldr	ip, [r4, #16]
    9ca8:	e2411002 	sub	r1, r1, #2
    9cac:	eaffffe5 	b	9c48 <iobuf_skip_rest+0x28>
    9cb0:	e594201c 	ldr	r2, [r4, #28]
    9cb4:	e5940018 	ldr	r0, [r4, #24]
    9cb8:	e1500002 	cmp	r0, r2
    9cbc:	2affffe6 	bcs	9c5c <iobuf_skip_rest+0x3c>
    9cc0:	e5943008 	ldr	r3, [r4, #8]
    9cc4:	e5842018 	str	r2, [r4, #24]
    9cc8:	e0433000 	sub	r3, r3, r0
    9ccc:	e5940018 	ldr	r0, [r4, #24]
    9cd0:	e0833002 	add	r3, r3, r2
    9cd4:	e1500002 	cmp	r0, r2
    9cd8:	e5843008 	str	r3, [r4, #8]
    9cdc:	3afffff7 	bcc	9cc0 <iobuf_skip_rest+0xa0>
    9ce0:	eaffffdd 	b	9c5c <iobuf_skip_rest+0x3c>
    9ce4:	e3510000 	cmp	r1, #0
    9ce8:	e1a05001 	mov	r5, r1
    9cec:	08bd8070 	popeq	{r4, r5, r6, pc}
    9cf0:	e5943010 	ldr	r3, [r4, #16]
    9cf4:	e3530000 	cmp	r3, #0
    9cf8:	0a000024 	beq	9d90 <iobuf_skip_rest+0x170>
    9cfc:	e5d43000 	ldrb	r3, [r4]
    9d00:	e2433002 	sub	r3, r3, #2
    9d04:	e3530001 	cmp	r3, #1
    9d08:	9a000029 	bls	9db4 <iobuf_skip_rest+0x194>
    9d0c:	e5943004 	ldr	r3, [r4, #4]
    9d10:	e3530000 	cmp	r3, #0
    9d14:	0a000002 	beq	9d24 <iobuf_skip_rest+0x104>
    9d18:	e5942008 	ldr	r2, [r4, #8]
    9d1c:	e1530002 	cmp	r3, r2
    9d20:	d8bd8070 	pople	{r4, r5, r6, pc}
    9d24:	e5943018 	ldr	r3, [r4, #24]
    9d28:	e594201c 	ldr	r2, [r4, #28]
    9d2c:	e1530002 	cmp	r3, r2
    9d30:	2a00001a 	bcs	9da0 <iobuf_skip_rest+0x180>
    9d34:	e2833001 	add	r3, r3, #1
    9d38:	e5843018 	str	r3, [r4, #24]
    9d3c:	e5943008 	ldr	r3, [r4, #8]
    9d40:	e2455001 	sub	r5, r5, #1
    9d44:	e3550000 	cmp	r5, #0
    9d48:	e2833001 	add	r3, r3, #1
    9d4c:	e5843008 	str	r3, [r4, #8]
    9d50:	1a00000b 	bne	9d84 <iobuf_skip_rest+0x164>
    9d54:	e8bd8070 	pop	{r4, r5, r6, pc}
    9d58:	e0433002 	sub	r3, r3, r2
    9d5c:	e1530005 	cmp	r3, r5
    9d60:	e5941008 	ldr	r1, [r4, #8]
    9d64:	21a03005 	movcs	r3, r5
    9d68:	e0455003 	sub	r5, r5, r3
    9d6c:	e0811003 	add	r1, r1, r3
    9d70:	e3550000 	cmp	r5, #0
    9d74:	e0833002 	add	r3, r3, r2
    9d78:	e5841008 	str	r1, [r4, #8]
    9d7c:	e5843018 	str	r3, [r4, #24]
    9d80:	08bd8070 	popeq	{r4, r5, r6, pc}
    9d84:	e5943010 	ldr	r3, [r4, #16]
    9d88:	e3530000 	cmp	r3, #0
    9d8c:	1affffda 	bne	9cfc <iobuf_skip_rest+0xdc>
    9d90:	e1c421d8 	ldrd	r2, [r4, #24]
    9d94:	e1520003 	cmp	r2, r3
    9d98:	3affffee 	bcc	9d58 <iobuf_skip_rest+0x138>
    9d9c:	eaffffd6 	b	9cfc <iobuf_skip_rest+0xdc>
    9da0:	e1a00004 	mov	r0, r4
    9da4:	ebfff98c 	bl	83dc <underflow_target.constprop.0>
    9da8:	e3700001 	cmn	r0, #1
    9dac:	1affffe2 	bne	9d3c <iobuf_skip_rest+0x11c>
    9db0:	e8bd8070 	pop	{r4, r5, r6, pc}
    9db4:	e30e0bcc 	movw	r0, #60364	; 0xebcc
    9db8:	e8bd4070 	pop	{r4, r5, r6, lr}
    9dbc:	e3400000 	movt	r0, #0
    9dc0:	ea00117c 	b	e3b8 <tfp_printf>

00009dc4 <decrypt_memory>:
    9dc4:	e92d41f0 	push	{r4, r5, r6, r7, r8, lr}
    9dc8:	e24dd010 	sub	sp, sp, #16
    9dcc:	e5802020 	str	r2, [r0, #32]
    9dd0:	e1a07000 	mov	r7, r0
    9dd4:	e3a04000 	mov	r4, #0
    9dd8:	e1a00001 	mov	r0, r1
    9ddc:	e58d400c 	str	r4, [sp, #12]
    9de0:	e1a01002 	mov	r1, r2
    9de4:	ebfffa3c 	bl	86dc <iobuf_temp_with_content>
    9de8:	e2506000 	subs	r6, r0, #0
    9dec:	0a000029 	beq	9e98 <decrypt_memory+0xd4>
    9df0:	e1a01004 	mov	r1, r4
    9df4:	e1a00004 	mov	r0, r4
    9df8:	ebffff87 	bl	9c1c <translate_file_handle>
    9dfc:	e30e1d4c 	movw	r1, #60748	; 0xed4c
    9e00:	e3401000 	movt	r1, #0
    9e04:	ebfffb71 	bl	8bd0 <iobuf_fdopen>
    9e08:	e30e1d4c 	movw	r1, #60748	; 0xed4c
    9e0c:	e1a00004 	mov	r0, r4
    9e10:	e3401000 	movt	r1, #0
    9e14:	ebfffa0c 	bl	864c <fd_cache_open>
    9e18:	e1a08000 	mov	r8, r0
    9e1c:	e1a00004 	mov	r0, r4
    9e20:	eb001179 	bl	e40c <strlen>
    9e24:	e2800038 	add	r0, r0, #56	; 0x38
    9e28:	eb000a19 	bl	c694 <xmalloc>
    9e2c:	e5808000 	str	r8, [r0]
    9e30:	e1a05000 	mov	r5, r0
    9e34:	e5804010 	str	r4, [r0, #16]
    9e38:	e1a01004 	mov	r1, r4
    9e3c:	e2800036 	add	r0, r0, #54	; 0x36
    9e40:	eb000aa7 	bl	c8e4 <strcpy>
    9e44:	e1a00004 	mov	r0, r4
    9e48:	eb000afa 	bl	ca38 <xstrdup>
    9e4c:	e5860038 	str	r0, [r6, #56]	; 0x38
    9e50:	e308310c 	movw	r3, #33036	; 0x810c
    9e54:	e3403000 	movt	r3, #0
    9e58:	e3a01001 	mov	r1, #1
    9e5c:	e586302c 	str	r3, [r6, #44]	; 0x2c
    9e60:	e28d300c 	add	r3, sp, #12
    9e64:	e5851008 	str	r1, [r5, #8]
    9e68:	e1a02004 	mov	r2, r4
    9e6c:	e5865030 	str	r5, [r6, #48]	; 0x30
    9e70:	e1a00005 	mov	r0, r5
    9e74:	e58d3000 	str	r3, [sp]
    9e78:	e1a03004 	mov	r3, r4
    9e7c:	ebfff8a2 	bl	810c <file_filter>
    9e80:	e1a02006 	mov	r2, r6
    9e84:	e1a01004 	mov	r1, r4
    9e88:	e1a00007 	mov	r0, r7
    9e8c:	eb001262 	bl	e81c <proc_encryption_packets>
    9e90:	e28dd010 	add	sp, sp, #16
    9e94:	e8bd81f0 	pop	{r4, r5, r6, r7, r8, pc}
    9e98:	e3e00000 	mvn	r0, #0
    9e9c:	eafffffb 	b	9e90 <decrypt_memory+0xcc>

00009ea0 <release_dfx_context>:
    9ea0:	e92d4070 	push	{r4, r5, r6, lr}
    9ea4:	e2504000 	subs	r4, r0, #0
    9ea8:	08bd8070 	popeq	{r4, r5, r6, pc}
    9eac:	e5940000 	ldr	r0, [r4]
    9eb0:	eb001140 	bl	e3b8 <tfp_printf>
    9eb4:	e5945000 	ldr	r5, [r4]
    9eb8:	e2455001 	sub	r5, r5, #1
    9ebc:	e5845000 	str	r5, [r4]
    9ec0:	e3550000 	cmp	r5, #0
    9ec4:	18bd8070 	popne	{r4, r5, r6, pc}
    9ec8:	e5940004 	ldr	r0, [r4, #4]
    9ecc:	eb000a2b 	bl	c780 <xfree>
    9ed0:	e5940008 	ldr	r0, [r4, #8]
    9ed4:	e5845004 	str	r5, [r4, #4]
    9ed8:	eb000a28 	bl	c780 <xfree>
    9edc:	e5845008 	str	r5, [r4, #8]
    9ee0:	e1a00004 	mov	r0, r4
    9ee4:	e8bd4070 	pop	{r4, r5, r6, lr}
    9ee8:	ea000a24 	b	c780 <xfree>

00009eec <decode_filter>:
    9eec:	e3510003 	cmp	r1, #3
    9ef0:	e92d41f0 	push	{r4, r5, r6, r7, r8, lr}
    9ef4:	e24dd008 	sub	sp, sp, #8
    9ef8:	0a000004 	beq	9f10 <decode_filter+0x24>
    9efc:	e3510002 	cmp	r1, #2
    9f00:	13a00000 	movne	r0, #0
    9f04:	0a000041 	beq	a010 <decode_filter+0x124>
    9f08:	e28dd008 	add	sp, sp, #8
    9f0c:	e8bd81f0 	pop	{r4, r5, r6, r7, r8, pc}
    9f10:	e1a06003 	mov	r6, r3
    9f14:	e1a07002 	mov	r7, r2
    9f18:	e5d03050 	ldrb	r3, [r0, #80]	; 0x50
    9f1c:	e1a05000 	mov	r5, r0
    9f20:	e2132006 	ands	r2, r3, #6
    9f24:	1a00004d 	bne	a060 <decode_filter+0x174>
    9f28:	e59d1020 	ldr	r1, [sp, #32]
    9f2c:	e2134001 	ands	r4, r3, #1
    9f30:	e5918000 	ldr	r8, [r1]
    9f34:	1a000027 	bne	9fd8 <decode_filter+0xec>
    9f38:	e3580000 	cmp	r8, #0
    9f3c:	0a00004c 	beq	a074 <decode_filter+0x188>
    9f40:	e590c078 	ldr	ip, [r0, #120]	; 0x78
    9f44:	ea00000b 	b	9f78 <decode_filter+0x8c>
    9f48:	e152000c 	cmp	r2, ip
    9f4c:	e1a00007 	mov	r0, r7
    9f50:	21a0200c 	movcs	r2, ip
    9f54:	ebfffc77 	bl	9138 <iobuf_read>
    9f58:	e3700001 	cmn	r0, #1
    9f5c:	0a000038 	beq	a044 <decode_filter+0x158>
    9f60:	e595c078 	ldr	ip, [r5, #120]	; 0x78
    9f64:	e0844000 	add	r4, r4, r0
    9f68:	e1580004 	cmp	r8, r4
    9f6c:	e04cc000 	sub	ip, ip, r0
    9f70:	e585c078 	str	ip, [r5, #120]	; 0x78
    9f74:	9a000036 	bls	a054 <decode_filter+0x168>
    9f78:	e0482004 	sub	r2, r8, r4
    9f7c:	e35c0000 	cmp	ip, #0
    9f80:	e0861004 	add	r1, r6, r4
    9f84:	1affffef 	bne	9f48 <decode_filter+0x5c>
    9f88:	e5d53050 	ldrb	r3, [r5, #80]	; 0x50
    9f8c:	e3a02001 	mov	r2, #1
    9f90:	e7c23092 	bfi	r3, r2, #1, #2
    9f94:	e5c53050 	strb	r3, [r5, #80]	; 0x50
    9f98:	e3540000 	cmp	r4, #0
    9f9c:	1a00001f 	bne	a020 <decode_filter+0x134>
    9fa0:	e5d53050 	ldrb	r3, [r5, #80]	; 0x50
    9fa4:	e3130006 	tst	r3, #6
    9fa8:	13e00000 	mvnne	r0, #0
    9fac:	1a000005 	bne	9fc8 <decode_filter+0xdc>
    9fb0:	e5d53050 	ldrb	r3, [r5, #80]	; 0x50
    9fb4:	e3a02001 	mov	r2, #1
    9fb8:	e3a04000 	mov	r4, #0
    9fbc:	e3e00000 	mvn	r0, #0
    9fc0:	e7c23092 	bfi	r3, r2, #1, #2
    9fc4:	e5c53050 	strb	r3, [r5, #80]	; 0x50
    9fc8:	e59d3020 	ldr	r3, [sp, #32]
    9fcc:	e5834000 	str	r4, [r3]
    9fd0:	e28dd008 	add	sp, sp, #8
    9fd4:	e8bd81f0 	pop	{r4, r5, r6, r7, r8, pc}
    9fd8:	e3580000 	cmp	r8, #0
    9fdc:	11a04002 	movne	r4, r2
    9fe0:	1a000003 	bne	9ff4 <decode_filter+0x108>
    9fe4:	eafffff1 	b	9fb0 <decode_filter+0xc4>
    9fe8:	e0844000 	add	r4, r4, r0
    9fec:	e1580004 	cmp	r8, r4
    9ff0:	9a00000a 	bls	a020 <decode_filter+0x134>
    9ff4:	e0482004 	sub	r2, r8, r4
    9ff8:	e1a00007 	mov	r0, r7
    9ffc:	e0861004 	add	r1, r6, r4
    a000:	ebfffc4c 	bl	9138 <iobuf_read>
    a004:	e3700001 	cmn	r0, #1
    a008:	1afffff6 	bne	9fe8 <decode_filter+0xfc>
    a00c:	eaffffdd 	b	9f88 <decode_filter+0x9c>
    a010:	ebffffa2 	bl	9ea0 <release_dfx_context>
    a014:	e3a00000 	mov	r0, #0
    a018:	e28dd008 	add	sp, sp, #8
    a01c:	e8bd81f0 	pop	{r4, r5, r6, r7, r8, pc}
    a020:	e5950004 	ldr	r0, [r5, #4]
    a024:	e3a05000 	mov	r5, #0
    a028:	e58d5000 	str	r5, [sp]
    a02c:	e1a03005 	mov	r3, r5
    a030:	e1a01006 	mov	r1, r6
    a034:	e1a02004 	mov	r2, r4
    a038:	eb00092d 	bl	c4f4 <_gcry_cipher_decrypt>
    a03c:	e1a00005 	mov	r0, r5
    a040:	eaffffe0 	b	9fc8 <decode_filter+0xdc>
    a044:	e5d53050 	ldrb	r3, [r5, #80]	; 0x50
    a048:	e595c078 	ldr	ip, [r5, #120]	; 0x78
    a04c:	e3833006 	orr	r3, r3, #6
    a050:	e5c53050 	strb	r3, [r5, #80]	; 0x50
    a054:	e35c0000 	cmp	ip, #0
    a058:	1affffce 	bne	9f98 <decode_filter+0xac>
    a05c:	eaffffc9 	b	9f88 <decode_filter+0x9c>
    a060:	e59d2020 	ldr	r2, [sp, #32]
    a064:	e3a03000 	mov	r3, #0
    a068:	e3e00000 	mvn	r0, #0
    a06c:	e5823000 	str	r3, [r2]
    a070:	eaffffa4 	b	9f08 <decode_filter+0x1c>
    a074:	e5904078 	ldr	r4, [r0, #120]	; 0x78
    a078:	e3540000 	cmp	r4, #0
    a07c:	1affffcb 	bne	9fb0 <decode_filter+0xc4>
    a080:	e3a02001 	mov	r2, #1
    a084:	e3e00000 	mvn	r0, #0
    a088:	e7c23092 	bfi	r3, r2, #1, #2
    a08c:	e5c53050 	strb	r3, [r5, #80]	; 0x50
    a090:	eaffffcc 	b	9fc8 <decode_filter+0xdc>

0000a094 <decrypt_data>:
    a094:	e92d4ff0 	push	{r4, r5, r6, r7, r8, r9, sl, fp, lr}
    a098:	e24dd034 	sub	sp, sp, #52	; 0x34
    a09c:	e3a06000 	mov	r6, #0
    a0a0:	e1a07000 	mov	r7, r0
    a0a4:	e59dc058 	ldr	ip, [sp, #88]	; 0x58
    a0a8:	e1a08001 	mov	r8, r1
    a0ac:	e3a00001 	mov	r0, #1
    a0b0:	e3a01080 	mov	r1, #128	; 0x80
    a0b4:	e58c6000 	str	r6, [ip]
    a0b8:	e1a04002 	mov	r4, r2
    a0bc:	e1a05003 	mov	r5, r3
    a0c0:	eb000a0d 	bl	c8fc <xtrycalloc>
    a0c4:	e1500006 	cmp	r0, r6
    a0c8:	e58d000c 	str	r0, [sp, #12]
    a0cc:	0a0000bf 	beq	a3d0 <decrypt_data+0x33c>
    a0d0:	e5953000 	ldr	r3, [r5]
    a0d4:	e3a02001 	mov	r2, #1
    a0d8:	e5802000 	str	r2, [r0]
    a0dc:	e30e1d50 	movw	r1, #60752	; 0xed50
    a0e0:	e58d6000 	str	r6, [sp]
    a0e4:	e3a00017 	mov	r0, #23
    a0e8:	e5d4200a 	ldrb	r2, [r4, #10]
    a0ec:	e3401000 	movt	r1, #0
    a0f0:	eb0010b0 	bl	e3b8 <tfp_printf>
    a0f4:	e5d4900b 	ldrb	r9, [r4, #11]
    a0f8:	e3590000 	cmp	r9, #0
    a0fc:	1a000077 	bne	a2e0 <decrypt_data+0x24c>
    a100:	e5943000 	ldr	r3, [r4]
    a104:	e2433001 	sub	r3, r3, #1
    a108:	e3530008 	cmp	r3, #8
    a10c:	9a000086 	bls	a32c <decrypt_data+0x298>
    a110:	e3a02004 	mov	r2, #4
    a114:	e1a01009 	mov	r1, r9
    a118:	e28d000c 	add	r0, sp, #12
    a11c:	eb0009bd 	bl	c818 <memset>
    a120:	e59d600c 	ldr	r6, [sp, #12]
    a124:	e3a00040 	mov	r0, #64	; 0x40
    a128:	eb0008f7 	bl	c50c <malloc>
    a12c:	e59d300c 	ldr	r3, [sp, #12]
    a130:	e5860004 	str	r0, [r6, #4]
    a134:	e5930004 	ldr	r0, [r3, #4]
    a138:	e3500000 	cmp	r0, #0
    a13c:	0a0000a3 	beq	a3d0 <decrypt_data+0x33c>
    a140:	e3a02040 	mov	r2, #64	; 0x40
    a144:	e1a01009 	mov	r1, r9
    a148:	eb0009b2 	bl	c818 <memset>
    a14c:	e59d300c 	ldr	r3, [sp, #12]
    a150:	e5952004 	ldr	r2, [r5, #4]
    a154:	e5930004 	ldr	r0, [r3, #4]
    a158:	e595100c 	ldr	r1, [r5, #12]
    a15c:	eb0006da 	bl	bccc <_gcry_cipher_setkey>
    a160:	e5943010 	ldr	r3, [r4, #16]
    a164:	e1a06000 	mov	r6, r0
    a168:	e3530000 	cmp	r3, #0
    a16c:	0a00005f 	beq	a2f0 <decrypt_data+0x25c>
    a170:	e59d300c 	ldr	r3, [sp, #12]
    a174:	e1a01009 	mov	r1, r9
    a178:	e3a02008 	mov	r2, #8
    a17c:	e5930004 	ldr	r0, [r3, #4]
    a180:	eb0006e2 	bl	bd10 <_gcry_cipher_setiv>
    a184:	e5941000 	ldr	r1, [r4]
    a188:	e3510000 	cmp	r1, #0
    a18c:	028da010 	addeq	sl, sp, #16
    a190:	028d901a 	addeq	r9, sp, #26
    a194:	01a0b00a 	moveq	fp, sl
    a198:	0a000009 	beq	a1c4 <decrypt_data+0x130>
    a19c:	ea000066 	b	a33c <decrypt_data+0x2a8>
    a1a0:	e5821018 	str	r1, [r2, #24]
    a1a4:	e5921008 	ldr	r1, [r2, #8]
    a1a8:	e5920020 	ldr	r0, [r2, #32]
    a1ac:	e2811001 	add	r1, r1, #1
    a1b0:	e5821008 	str	r1, [r2, #8]
    a1b4:	e7d00003 	ldrb	r0, [r0, r3]
    a1b8:	e4cb0001 	strb	r0, [fp], #1
    a1bc:	e159000b 	cmp	r9, fp
    a1c0:	0a00000d 	beq	a1fc <decrypt_data+0x168>
    a1c4:	e5942010 	ldr	r2, [r4, #16]
    a1c8:	e5923010 	ldr	r3, [r2, #16]
    a1cc:	e1a00002 	mov	r0, r2
    a1d0:	e3530000 	cmp	r3, #0
    a1d4:	1a000004 	bne	a1ec <decrypt_data+0x158>
    a1d8:	e5923018 	ldr	r3, [r2, #24]
    a1dc:	e592101c 	ldr	r1, [r2, #28]
    a1e0:	e1530001 	cmp	r3, r1
    a1e4:	e2831001 	add	r1, r3, #1
    a1e8:	3affffec 	bcc	a1a0 <decrypt_data+0x10c>
    a1ec:	ebfffbad 	bl	90a8 <iobuf_readbyte>
    a1f0:	e3700001 	cmn	r0, #1
    a1f4:	e6ef0070 	uxtb	r0, r0
    a1f8:	1affffee 	bne	a1b8 <decrypt_data+0x124>
    a1fc:	e59d300c 	ldr	r3, [sp, #12]
    a200:	e1a0100a 	mov	r1, sl
    a204:	e3a0200a 	mov	r2, #10
    a208:	e5930004 	ldr	r0, [r3, #4]
    a20c:	e3a03000 	mov	r3, #0
    a210:	e58d3000 	str	r3, [sp]
    a214:	eb0008b6 	bl	c4f4 <_gcry_cipher_decrypt>
    a218:	e59d300c 	ldr	r3, [sp, #12]
    a21c:	e5930004 	ldr	r0, [r3, #4]
    a220:	eb0006c5 	bl	bd3c <cipher_sync>
    a224:	e5d53008 	ldrb	r3, [r5, #8]
    a228:	e3130040 	tst	r3, #64	; 0x40
    a22c:	0a000036 	beq	a30c <decrypt_data+0x278>
    a230:	e5dd2016 	ldrb	r2, [sp, #22]
    a234:	e5dd3018 	ldrb	r3, [sp, #24]
    a238:	e1520003 	cmp	r2, r3
    a23c:	1a000003 	bne	a250 <decrypt_data+0x1bc>
    a240:	e5dd2017 	ldrb	r2, [sp, #23]
    a244:	e5dd3019 	ldrb	r3, [sp, #25]
    a248:	e1520003 	cmp	r2, r3
    a24c:	0a00002e 	beq	a30c <decrypt_data+0x278>
    a250:	e30e0d90 	movw	r0, #60816	; 0xed90
    a254:	e3400000 	movt	r0, #0
    a258:	eb001056 	bl	e3b8 <tfp_printf>
    a25c:	e59d200c 	ldr	r2, [sp, #12]
    a260:	e3091eec 	movw	r1, #40684	; 0x9eec
    a264:	e5940010 	ldr	r0, [r4, #16]
    a268:	e5923000 	ldr	r3, [r2]
    a26c:	e5d2c050 	ldrb	ip, [r2, #80]	; 0x50
    a270:	e3401000 	movt	r1, #0
    a274:	e2833001 	add	r3, r3, #1
    a278:	e5823000 	str	r3, [r2]
    a27c:	e5d43009 	ldrb	r3, [r4, #9]
    a280:	e2533000 	subs	r3, r3, #0
    a284:	13a03001 	movne	r3, #1
    a288:	e7c0c013 	bfi	ip, r3, #0, #1
    a28c:	e5c2c050 	strb	ip, [r2, #80]	; 0x50
    a290:	e5943000 	ldr	r3, [r4]
    a294:	e5823078 	str	r3, [r2, #120]	; 0x78
    a298:	ebfffad2 	bl	8de8 <iobuf_push_filter>
    a29c:	e5942010 	ldr	r2, [r4, #16]
    a2a0:	e1a01008 	mov	r1, r8
    a2a4:	e1a00007 	mov	r0, r7
    a2a8:	eb001146 	bl	e7c8 <proc_packets>
    a2ac:	e59d000c 	ldr	r0, [sp, #12]
    a2b0:	e3a0200e 	mov	r2, #14
    a2b4:	e3402200 	movt	r2, #512	; 0x200
    a2b8:	e3a01000 	mov	r1, #0
    a2bc:	e5d03050 	ldrb	r3, [r0, #80]	; 0x50
    a2c0:	e5841010 	str	r1, [r4, #16]
    a2c4:	e7e130d3 	ubfx	r3, r3, #1, #2
    a2c8:	e3530001 	cmp	r3, #1
    a2cc:	81a06002 	movhi	r6, r2
    a2d0:	ebfffef2 	bl	9ea0 <release_dfx_context>
    a2d4:	e1a00006 	mov	r0, r6
    a2d8:	e28dd034 	add	sp, sp, #52	; 0x34
    a2dc:	e8bd8ff0 	pop	{r4, r5, r6, r7, r8, r9, sl, fp, pc}
    a2e0:	e59d000c 	ldr	r0, [sp, #12]
    a2e4:	e3a0600c 	mov	r6, #12
    a2e8:	e3406200 	movt	r6, #512	; 0x200
    a2ec:	eafffff7 	b	a2d0 <decrypt_data+0x23c>
    a2f0:	e30e0d5c 	movw	r0, #60764	; 0xed5c
    a2f4:	e3a0600e 	mov	r6, #14
    a2f8:	e3400000 	movt	r0, #0
    a2fc:	e3406200 	movt	r6, #512	; 0x200
    a300:	eb00102c 	bl	e3b8 <tfp_printf>
    a304:	e59d000c 	ldr	r0, [sp, #12]
    a308:	eafffff0 	b	a2d0 <decrypt_data+0x23c>
    a30c:	e30e0da0 	movw	r0, #60832	; 0xeda0
    a310:	e3400000 	movt	r0, #0
    a314:	eb001027 	bl	e3b8 <tfp_printf>
    a318:	e30e0db0 	movw	r0, #60848	; 0xedb0
    a31c:	e3400000 	movt	r0, #0
    a320:	eb001024 	bl	e3b8 <tfp_printf>
    a324:	e59d000c 	ldr	r0, [sp, #12]
    a328:	eaffffe8 	b	a2d0 <decrypt_data+0x23c>
    a32c:	e59d000c 	ldr	r0, [sp, #12]
    a330:	e3a0600e 	mov	r6, #14
    a334:	e3406200 	movt	r6, #512	; 0x200
    a338:	eaffffe4 	b	a2d0 <decrypt_data+0x23c>
    a33c:	e30e0d80 	movw	r0, #60800	; 0xed80
    a340:	e28da010 	add	sl, sp, #16
    a344:	e3400000 	movt	r0, #0
    a348:	e1a0b00a 	mov	fp, sl
    a34c:	e28d901a 	add	r9, sp, #26
    a350:	eb001018 	bl	e3b8 <tfp_printf>
    a354:	e5942000 	ldr	r2, [r4]
    a358:	ea00000a 	b	a388 <decrypt_data+0x2f4>
    a35c:	e5930008 	ldr	r0, [r3, #8]
    a360:	e583c018 	str	ip, [r3, #24]
    a364:	e593c020 	ldr	ip, [r3, #32]
    a368:	e2800001 	add	r0, r0, #1
    a36c:	e5830008 	str	r0, [r3, #8]
    a370:	e7dc0001 	ldrb	r0, [ip, r1]
    a374:	e4cb0001 	strb	r0, [fp], #1
    a378:	e2422001 	sub	r2, r2, #1
    a37c:	e159000b 	cmp	r9, fp
    a380:	e5842000 	str	r2, [r4]
    a384:	0affff9c 	beq	a1fc <decrypt_data+0x168>
    a388:	e3520000 	cmp	r2, #0
    a38c:	0affff9a 	beq	a1fc <decrypt_data+0x168>
    a390:	e5943010 	ldr	r3, [r4, #16]
    a394:	e5931010 	ldr	r1, [r3, #16]
    a398:	e1a00003 	mov	r0, r3
    a39c:	e3510000 	cmp	r1, #0
    a3a0:	1a000004 	bne	a3b8 <decrypt_data+0x324>
    a3a4:	e5931018 	ldr	r1, [r3, #24]
    a3a8:	e593c01c 	ldr	ip, [r3, #28]
    a3ac:	e151000c 	cmp	r1, ip
    a3b0:	e281c001 	add	ip, r1, #1
    a3b4:	3affffe8 	bcc	a35c <decrypt_data+0x2c8>
    a3b8:	ebfffb3a 	bl	90a8 <iobuf_readbyte>
    a3bc:	e3700001 	cmn	r0, #1
    a3c0:	e6ef0070 	uxtb	r0, r0
    a3c4:	0affff8c 	beq	a1fc <decrypt_data+0x168>
    a3c8:	e5942000 	ldr	r2, [r4]
    a3cc:	eaffffe8 	b	a374 <decrypt_data+0x2e0>
    a3d0:	e3e06000 	mvn	r6, #0
    a3d4:	eaffffbe 	b	a2d4 <decrypt_data+0x240>

0000a3d8 <free_packet>:
    a3d8:	e3500000 	cmp	r0, #0
    a3dc:	e92d4010 	push	{r4, lr}
    a3e0:	e1a04001 	mov	r4, r1
    a3e4:	0a000002 	beq	a3f4 <free_packet+0x1c>
    a3e8:	e5903004 	ldr	r3, [r0, #4]
    a3ec:	e3530000 	cmp	r3, #0
    a3f0:	18bd8010 	popne	{r4, pc}
    a3f4:	e3540000 	cmp	r4, #0
    a3f8:	08bd8010 	popeq	{r4, pc}
    a3fc:	e5943008 	ldr	r3, [r4, #8]
    a400:	e3530000 	cmp	r3, #0
    a404:	08bd8010 	popeq	{r4, pc}
    a408:	e594300c 	ldr	r3, [r4, #12]
    a40c:	e3530000 	cmp	r3, #0
    a410:	1a000003 	bne	a424 <free_packet+0x4c>
    a414:	e3a03000 	mov	r3, #0
    a418:	e5c43004 	strb	r3, [r4, #4]
    a41c:	e5843008 	str	r3, [r4, #8]
    a420:	e8bd8010 	pop	{r4, pc}
    a424:	e3a01000 	mov	r1, #0
    a428:	e2840004 	add	r0, r4, #4
    a42c:	ebffffe9 	bl	a3d8 <free_packet>
    a430:	e3a03000 	mov	r3, #0
    a434:	e584300c 	str	r3, [r4, #12]
    a438:	eafffff5 	b	a414 <free_packet+0x3c>

0000a43c <run>:
    a43c:	e92d4ff0 	push	{r4, r5, r6, r7, r8, r9, sl, fp, lr}
    a440:	e24ddf6f 	sub	sp, sp, #444	; 0x1bc
    a444:	e3a04000 	mov	r4, #0
    a448:	e1a05001 	mov	r5, r1
    a44c:	e58d0064 	str	r0, [sp, #100]	; 0x64
    a450:	e28d0088 	add	r0, sp, #136	; 0x88
    a454:	e58d2068 	str	r2, [sp, #104]	; 0x68
    a458:	e880000c 	stm	r0, {r2, r3}
    a45c:	e59d308c 	ldr	r3, [sp, #140]	; 0x8c
    a460:	e3a02010 	mov	r2, #16
    a464:	e58d4090 	str	r4, [sp, #144]	; 0x90
    a468:	e28d0090 	add	r0, sp, #144	; 0x90
    a46c:	e58d306c 	str	r3, [sp, #108]	; 0x6c
    a470:	e58d4094 	str	r4, [sp, #148]	; 0x94
    a474:	e58d4098 	str	r4, [sp, #152]	; 0x98
    a478:	e58d409c 	str	r4, [sp, #156]	; 0x9c
    a47c:	eb0008ee 	bl	c83c <memcpy>
    a480:	e59d31e4 	ldr	r3, [sp, #484]	; 0x1e4
    a484:	e58d40a0 	str	r4, [sp, #160]	; 0xa0
    a488:	e1530004 	cmp	r3, r4
    a48c:	e58d40a4 	str	r4, [sp, #164]	; 0xa4
    a490:	e58d40a8 	str	r4, [sp, #168]	; 0xa8
    a494:	e58d40ac 	str	r4, [sp, #172]	; 0xac
    a498:	1a0003ca 	bne	b3c8 <run+0xf8c>
    a49c:	e3a02080 	mov	r2, #128	; 0x80
    a4a0:	e3a01000 	mov	r1, #0
    a4a4:	e28d0f4e 	add	r0, sp, #312	; 0x138
    a4a8:	e300bd48 	movw	fp, #3400	; 0xd48
    a4ac:	e340b001 	movt	fp, #1
    a4b0:	eb0008d8 	bl	c818 <memset>
    a4b4:	e30e2e2c 	movw	r2, #60972	; 0xee2c
    a4b8:	e3a03000 	mov	r3, #0
    a4bc:	e3402000 	movt	r2, #0
    a4c0:	e3009148 	movw	r9, #328	; 0x148
    a4c4:	e3409001 	movt	r9, #1
    a4c8:	e300a548 	movw	sl, #1352	; 0x548
    a4cc:	e340a001 	movt	sl, #1
    a4d0:	e3008948 	movw	r8, #2376	; 0x948
    a4d4:	e58d301c 	str	r3, [sp, #28]
    a4d8:	e58d2070 	str	r2, [sp, #112]	; 0x70
    a4dc:	e30e2e4c 	movw	r2, #61004	; 0xee4c
    a4e0:	e58d3038 	str	r3, [sp, #56]	; 0x38
    a4e4:	e1a0300b 	mov	r3, fp
    a4e8:	e3402000 	movt	r2, #0
    a4ec:	e1a0b00a 	mov	fp, sl
    a4f0:	e58d2074 	str	r2, [sp, #116]	; 0x74
    a4f4:	e1a0a009 	mov	sl, r9
    a4f8:	e3408001 	movt	r8, #1
    a4fc:	e1a09003 	mov	r9, r3
    a500:	e59d31e4 	ldr	r3, [sp, #484]	; 0x1e4
    a504:	e30e2e60 	movw	r2, #61024	; 0xee60
    a508:	e3402000 	movt	r2, #0
    a50c:	e58d203c 	str	r2, [sp, #60]	; 0x3c
    a510:	e3530000 	cmp	r3, #0
    a514:	e28d2f52 	add	r2, sp, #328	; 0x148
    a518:	e58d2018 	str	r2, [sp, #24]
    a51c:	1a00036c 	bne	b2d4 <run+0xe98>
    a520:	e59d21e4 	ldr	r2, [sp, #484]	; 0x1e4
    a524:	e5dd309e 	ldrb	r3, [sp, #158]	; 0x9e
    a528:	e59d1090 	ldr	r1, [sp, #144]	; 0x90
    a52c:	e3520000 	cmp	r2, #0
    a530:	e5dd209c 	ldrb	r2, [sp, #156]	; 0x9c
    a534:	e79a3103 	ldr	r3, [sl, r3, lsl #2]
    a538:	e79b2102 	ldr	r2, [fp, r2, lsl #2]
    a53c:	e0233002 	eor	r3, r3, r2
    a540:	e5dd209f 	ldrb	r2, [sp, #159]	; 0x9f
    a544:	e0233001 	eor	r3, r3, r1
    a548:	e7982102 	ldr	r2, [r8, r2, lsl #2]
    a54c:	e0233002 	eor	r3, r3, r2
    a550:	e5dd209d 	ldrb	r2, [sp, #157]	; 0x9d
    a554:	e7992102 	ldr	r2, [r9, r2, lsl #2]
    a558:	e0233002 	eor	r3, r3, r2
    a55c:	e5dd209b 	ldrb	r2, [sp, #155]	; 0x9b
    a560:	e7982102 	ldr	r2, [r8, r2, lsl #2]
    a564:	e0235002 	eor	r5, r3, r2
    a568:	e5dd3099 	ldrb	r3, [sp, #153]	; 0x99
    a56c:	e59d2098 	ldr	r2, [sp, #152]	; 0x98
    a570:	e7993103 	ldr	r3, [r9, r3, lsl #2]
    a574:	e1a01c25 	lsr	r1, r5, #24
    a578:	e0233002 	eor	r3, r3, r2
    a57c:	e58d1020 	str	r1, [sp, #32]
    a580:	e7e72455 	ubfx	r2, r5, #8, #8
    a584:	e79a1101 	ldr	r1, [sl, r1, lsl #2]
    a588:	e7e70855 	ubfx	r0, r5, #16, #8
    a58c:	e0233001 	eor	r3, r3, r1
    a590:	e79b1102 	ldr	r1, [fp, r2, lsl #2]
    a594:	e58d0030 	str	r0, [sp, #48]	; 0x30
    a598:	e0233001 	eor	r3, r3, r1
    a59c:	e6ef1075 	uxtb	r1, r5
    a5a0:	e7980100 	ldr	r0, [r8, r0, lsl #2]
    a5a4:	e58d1024 	str	r1, [sp, #36]	; 0x24
    a5a8:	e7991101 	ldr	r1, [r9, r1, lsl #2]
    a5ac:	e0233000 	eor	r3, r3, r0
    a5b0:	e0236001 	eor	r6, r3, r1
    a5b4:	e5dd309a 	ldrb	r3, [sp, #154]	; 0x9a
    a5b8:	e59d109c 	ldr	r1, [sp, #156]	; 0x9c
    a5bc:	e79a3103 	ldr	r3, [sl, r3, lsl #2]
    a5c0:	e58d0034 	str	r0, [sp, #52]	; 0x34
    a5c4:	e6ef0076 	uxtb	r0, r6
    a5c8:	e0233001 	eor	r3, r3, r1
    a5cc:	e79a1100 	ldr	r1, [sl, r0, lsl #2]
    a5d0:	e7e7c456 	ubfx	ip, r6, #8, #8
    a5d4:	e0233001 	eor	r3, r3, r1
    a5d8:	e7e71856 	ubfx	r1, r6, #16, #8
    a5dc:	e58dc02c 	str	ip, [sp, #44]	; 0x2c
    a5e0:	e58d1044 	str	r1, [sp, #68]	; 0x44
    a5e4:	e58d50a0 	str	r5, [sp, #160]	; 0xa0
    a5e8:	e58d60a4 	str	r6, [sp, #164]	; 0xa4
    a5ec:	e58d0028 	str	r0, [sp, #40]	; 0x28
    a5f0:	e79b010c 	ldr	r0, [fp, ip, lsl #2]
    a5f4:	e7981101 	ldr	r1, [r8, r1, lsl #2]
    a5f8:	e0233000 	eor	r3, r3, r0
    a5fc:	e58d0040 	str	r0, [sp, #64]	; 0x40
    a600:	e1a00c26 	lsr	r0, r6, #24
    a604:	e0233001 	eor	r3, r3, r1
    a608:	e58d1048 	str	r1, [sp, #72]	; 0x48
    a60c:	e7991100 	ldr	r1, [r9, r0, lsl #2]
    a610:	e58d004c 	str	r0, [sp, #76]	; 0x4c
    a614:	e0230001 	eor	r0, r3, r1
    a618:	e58d1050 	str	r1, [sp, #80]	; 0x50
    a61c:	e6ef4070 	uxtb	r4, r0
    a620:	e7e71450 	ubfx	r1, r0, #8, #8
    a624:	e5dd3098 	ldrb	r3, [sp, #152]	; 0x98
    a628:	e79a7101 	ldr	r7, [sl, r1, lsl #2]
    a62c:	e7e71850 	ubfx	r1, r0, #16, #8
    a630:	e79b3103 	ldr	r3, [fp, r3, lsl #2]
    a634:	e79bc101 	ldr	ip, [fp, r1, lsl #2]
    a638:	e58d1058 	str	r1, [sp, #88]	; 0x58
    a63c:	e59d1094 	ldr	r1, [sp, #148]	; 0x94
    a640:	e58d0054 	str	r0, [sp, #84]	; 0x54
    a644:	e0233001 	eor	r3, r3, r1
    a648:	e0233007 	eor	r3, r3, r7
    a64c:	e7981104 	ldr	r1, [r8, r4, lsl #2]
    a650:	e58d00a8 	str	r0, [sp, #168]	; 0xa8
    a654:	e1a00c20 	lsr	r0, r0, #24
    a658:	e023300c 	eor	r3, r3, ip
    a65c:	e0233001 	eor	r3, r3, r1
    a660:	e7991100 	ldr	r1, [r9, r0, lsl #2]
    a664:	e58dc05c 	str	ip, [sp, #92]	; 0x5c
    a668:	e0233001 	eor	r3, r3, r1
    a66c:	e58d0060 	str	r0, [sp, #96]	; 0x60
    a670:	e58d30ac 	str	r3, [sp, #172]	; 0xac
    a674:	1a00037c 	bne	b46c <run+0x1030>
    a678:	e59d1040 	ldr	r1, [sp, #64]	; 0x40
    a67c:	e59d0048 	ldr	r0, [sp, #72]	; 0x48
    a680:	e0211000 	eor	r1, r1, r0
    a684:	e59d0050 	ldr	r0, [sp, #80]	; 0x50
    a688:	e0211000 	eor	r1, r1, r0
    a68c:	e0277001 	eor	r7, r7, r1
    a690:	e59d102c 	ldr	r1, [sp, #44]	; 0x2c
    a694:	e59d0058 	ldr	r0, [sp, #88]	; 0x58
    a698:	e7991101 	ldr	r1, [r9, r1, lsl #2]
    a69c:	e798c100 	ldr	ip, [r8, r0, lsl #2]
    a6a0:	e58d102c 	str	r1, [sp, #44]	; 0x2c
    a6a4:	e79b1104 	ldr	r1, [fp, r4, lsl #2]
    a6a8:	e59d0060 	ldr	r0, [sp, #96]	; 0x60
    a6ac:	e0277001 	eor	r7, r7, r1
    a6b0:	e59d1018 	ldr	r1, [sp, #24]
    a6b4:	e79ae100 	ldr	lr, [sl, r0, lsl #2]
    a6b8:	e501700c 	str	r7, [r1, #-12]
    a6bc:	e59d7028 	ldr	r7, [sp, #40]	; 0x28
    a6c0:	e7e71453 	ubfx	r1, r3, #8, #8
    a6c4:	e59d01e4 	ldr	r0, [sp, #484]	; 0x1e4
    a6c8:	e79a4101 	ldr	r4, [sl, r1, lsl #2]
    a6cc:	e7981107 	ldr	r1, [r8, r7, lsl #2]
    a6d0:	e3500000 	cmp	r0, #0
    a6d4:	e59d702c 	ldr	r7, [sp, #44]	; 0x2c
    a6d8:	e1a00c23 	lsr	r0, r3, #24
    a6dc:	e0211007 	eor	r1, r1, r7
    a6e0:	e7997102 	ldr	r7, [r9, r2, lsl #2]
    a6e4:	e79a2102 	ldr	r2, [sl, r2, lsl #2]
    a6e8:	e58d7040 	str	r7, [sp, #64]	; 0x40
    a6ec:	e0222001 	eor	r2, r2, r1
    a6f0:	e59d105c 	ldr	r1, [sp, #92]	; 0x5c
    a6f4:	e0222001 	eor	r2, r2, r1
    a6f8:	e022200e 	eor	r2, r2, lr
    a6fc:	e59de018 	ldr	lr, [sp, #24]
    a700:	e59d1034 	ldr	r1, [sp, #52]	; 0x34
    a704:	e50e2010 	str	r2, [lr, #-16]
    a708:	e59d2024 	ldr	r2, [sp, #36]	; 0x24
    a70c:	e7982102 	ldr	r2, [r8, r2, lsl #2]
    a710:	e0222007 	eor	r2, r2, r7
    a714:	e02cc002 	eor	ip, ip, r2
    a718:	e59d2020 	ldr	r2, [sp, #32]
    a71c:	e7992102 	ldr	r2, [r9, r2, lsl #2]
    a720:	e0211002 	eor	r1, r1, r2
    a724:	e6ef2073 	uxtb	r2, r3
    a728:	e0244001 	eor	r4, r4, r1
    a72c:	e79b2102 	ldr	r2, [fp, r2, lsl #2]
    a730:	e79a1100 	ldr	r1, [sl, r0, lsl #2]
    a734:	e0244002 	eor	r4, r4, r2
    a738:	e7e72853 	ubfx	r2, r3, #16, #8
    a73c:	e02cc001 	eor	ip, ip, r1
    a740:	e79b2102 	ldr	r2, [fp, r2, lsl #2]
    a744:	e02cc002 	eor	ip, ip, r2
    a748:	e50ec008 	str	ip, [lr, #-8]
    a74c:	e7992100 	ldr	r2, [r9, r0, lsl #2]
    a750:	e0244002 	eor	r4, r4, r2
    a754:	e59d201c 	ldr	r2, [sp, #28]
    a758:	e50e4004 	str	r4, [lr, #-4]
    a75c:	e2822003 	add	r2, r2, #3
    a760:	1a00036f 	bne	b524 <run+0x10e8>
    a764:	e59d2040 	ldr	r2, [sp, #64]	; 0x40
    a768:	e59d102c 	ldr	r1, [sp, #44]	; 0x2c
    a76c:	e0255002 	eor	r5, r5, r2
    a770:	e59d2044 	ldr	r2, [sp, #68]	; 0x44
    a774:	e79a2102 	ldr	r2, [sl, r2, lsl #2]
    a778:	e0211002 	eor	r1, r1, r2
    a77c:	e1a02001 	mov	r2, r1
    a780:	e59d1020 	ldr	r1, [sp, #32]
    a784:	e7981101 	ldr	r1, [r8, r1, lsl #2]
    a788:	e0222001 	eor	r2, r2, r1
    a78c:	e59d1028 	ldr	r1, [sp, #40]	; 0x28
    a790:	e79b1101 	ldr	r1, [fp, r1, lsl #2]
    a794:	e0222001 	eor	r2, r2, r1
    a798:	e59d104c 	ldr	r1, [sp, #76]	; 0x4c
    a79c:	e7981101 	ldr	r1, [r8, r1, lsl #2]
    a7a0:	e0222001 	eor	r2, r2, r1
    a7a4:	e59d1054 	ldr	r1, [sp, #84]	; 0x54
    a7a8:	e0222001 	eor	r2, r2, r1
    a7ac:	e59d1030 	ldr	r1, [sp, #48]	; 0x30
    a7b0:	e1a00c22 	lsr	r0, r2, #24
    a7b4:	e79ae101 	ldr	lr, [sl, r1, lsl #2]
    a7b8:	e59d1024 	ldr	r1, [sp, #36]	; 0x24
    a7bc:	e7e7c852 	ubfx	ip, r2, #16, #8
    a7c0:	e79b1101 	ldr	r1, [fp, r1, lsl #2]
    a7c4:	e58d2090 	str	r2, [sp, #144]	; 0x90
    a7c8:	e0237001 	eor	r7, r3, r1
    a7cc:	e59d31e4 	ldr	r3, [sp, #484]	; 0x1e4
    a7d0:	e02ee006 	eor	lr, lr, r6
    a7d4:	e3530000 	cmp	r3, #0
    a7d8:	e7e73452 	ubfx	r3, r2, #8, #8
    a7dc:	e6ef2072 	uxtb	r2, r2
    a7e0:	e79b1103 	ldr	r1, [fp, r3, lsl #2]
    a7e4:	e79a3100 	ldr	r3, [sl, r0, lsl #2]
    a7e8:	e58d1024 	str	r1, [sp, #36]	; 0x24
    a7ec:	e0255003 	eor	r5, r5, r3
    a7f0:	e7993102 	ldr	r3, [r9, r2, lsl #2]
    a7f4:	e798210c 	ldr	r2, [r8, ip, lsl #2]
    a7f8:	e0255001 	eor	r5, r5, r1
    a7fc:	e0222005 	eor	r2, r2, r5
    a800:	e0222003 	eor	r2, r2, r3
    a804:	e7e75852 	ubfx	r5, r2, #16, #8
    a808:	e6ef3072 	uxtb	r3, r2
    a80c:	e58d2094 	str	r2, [sp, #148]	; 0x94
    a810:	e79a3103 	ldr	r3, [sl, r3, lsl #2]
    a814:	e02ee003 	eor	lr, lr, r3
    a818:	e7e73452 	ubfx	r3, r2, #8, #8
    a81c:	e1a02c22 	lsr	r2, r2, #24
    a820:	e79b3103 	ldr	r3, [fp, r3, lsl #2]
    a824:	e7991102 	ldr	r1, [r9, r2, lsl #2]
    a828:	e02ee003 	eor	lr, lr, r3
    a82c:	e58d3028 	str	r3, [sp, #40]	; 0x28
    a830:	e7983105 	ldr	r3, [r8, r5, lsl #2]
    a834:	e023300e 	eor	r3, r3, lr
    a838:	e0233001 	eor	r3, r3, r1
    a83c:	e7e74453 	ubfx	r4, r3, #8, #8
    a840:	e6ef1073 	uxtb	r1, r3
    a844:	e7e7e853 	ubfx	lr, r3, #16, #8
    a848:	e7986101 	ldr	r6, [r8, r1, lsl #2]
    a84c:	e79a1104 	ldr	r1, [sl, r4, lsl #2]
    a850:	e58d3098 	str	r3, [sp, #152]	; 0x98
    a854:	e0211007 	eor	r1, r1, r7
    a858:	e79b710e 	ldr	r7, [fp, lr, lsl #2]
    a85c:	e1a03c23 	lsr	r3, r3, #24
    a860:	e0211007 	eor	r1, r1, r7
    a864:	e0266001 	eor	r6, r6, r1
    a868:	e7991103 	ldr	r1, [r9, r3, lsl #2]
    a86c:	e0266001 	eor	r6, r6, r1
    a870:	e58d609c 	str	r6, [sp, #156]	; 0x9c
    a874:	1a00030e 	bne	b4b4 <run+0x1078>
    a878:	e79b0100 	ldr	r0, [fp, r0, lsl #2]
    a87c:	e79ac10c 	ldr	ip, [sl, ip, lsl #2]
    a880:	e58d0040 	str	r0, [sp, #64]	; 0x40
    a884:	e5dd009f 	ldrb	r0, [sp, #159]	; 0x9f
    a888:	e79a1105 	ldr	r1, [sl, r5, lsl #2]
    a88c:	e58dc034 	str	ip, [sp, #52]	; 0x34
    a890:	e798c100 	ldr	ip, [r8, r0, lsl #2]
    a894:	e5dd009c 	ldrb	r0, [sp, #156]	; 0x9c
    a898:	e58d1044 	str	r1, [sp, #68]	; 0x44
    a89c:	e58d0030 	str	r0, [sp, #48]	; 0x30
    a8a0:	e1a06000 	mov	r6, r0
    a8a4:	e5dd1090 	ldrb	r1, [sp, #144]	; 0x90
    a8a8:	e5dd0098 	ldrb	r0, [sp, #152]	; 0x98
    a8ac:	e79b2102 	ldr	r2, [fp, r2, lsl #2]
    a8b0:	e58d0020 	str	r0, [sp, #32]
    a8b4:	e5dd709d 	ldrb	r7, [sp, #157]	; 0x9d
    a8b8:	e79a0101 	ldr	r0, [sl, r1, lsl #2]
    a8bc:	e7996106 	ldr	r6, [r9, r6, lsl #2]
    a8c0:	e58d2048 	str	r2, [sp, #72]	; 0x48
    a8c4:	e020000c 	eor	r0, r0, ip
    a8c8:	e5dd2094 	ldrb	r2, [sp, #148]	; 0x94
    a8cc:	e58dc02c 	str	ip, [sp, #44]	; 0x2c
    a8d0:	e798c107 	ldr	ip, [r8, r7, lsl #2]
    a8d4:	e7981101 	ldr	r1, [r8, r1, lsl #2]
    a8d8:	e02cc006 	eor	ip, ip, r6
    a8dc:	e79a6102 	ldr	r6, [sl, r2, lsl #2]
    a8e0:	e7992102 	ldr	r2, [r9, r2, lsl #2]
    a8e4:	e0211006 	eor	r1, r1, r6
    a8e8:	e59d6028 	ldr	r6, [sp, #40]	; 0x28
    a8ec:	e59d51e4 	ldr	r5, [sp, #484]	; 0x1e4
    a8f0:	e0211006 	eor	r1, r1, r6
    a8f4:	e59d6020 	ldr	r6, [sp, #32]
    a8f8:	e3550000 	cmp	r5, #0
    a8fc:	e5dd509e 	ldrb	r5, [sp, #158]	; 0x9e
    a900:	e7996106 	ldr	r6, [r9, r6, lsl #2]
    a904:	e0222006 	eor	r2, r2, r6
    a908:	e59d6044 	ldr	r6, [sp, #68]	; 0x44
    a90c:	e0222006 	eor	r2, r2, r6
    a910:	e59d6048 	ldr	r6, [sp, #72]	; 0x48
    a914:	e0226006 	eor	r6, r2, r6
    a918:	e7992105 	ldr	r2, [r9, r5, lsl #2]
    a91c:	e0200002 	eor	r0, r0, r2
    a920:	e59d2024 	ldr	r2, [sp, #36]	; 0x24
    a924:	e0200002 	eor	r0, r0, r2
    a928:	e79b2105 	ldr	r2, [fp, r5, lsl #2]
    a92c:	e022200c 	eor	r2, r2, ip
    a930:	e59dc034 	ldr	ip, [sp, #52]	; 0x34
    a934:	e022200c 	eor	r2, r2, ip
    a938:	e59dc040 	ldr	ip, [sp, #64]	; 0x40
    a93c:	e022200c 	eor	r2, r2, ip
    a940:	e59dc018 	ldr	ip, [sp, #24]
    a944:	e58c2004 	str	r2, [ip, #4]
    a948:	e798c103 	ldr	ip, [r8, r3, lsl #2]
    a94c:	e79a3103 	ldr	r3, [sl, r3, lsl #2]
    a950:	e021100c 	eor	r1, r1, ip
    a954:	e0200003 	eor	r0, r0, r3
    a958:	e799310e 	ldr	r3, [r9, lr, lsl #2]
    a95c:	e59d2018 	ldr	r2, [sp, #24]
    a960:	e0211003 	eor	r1, r1, r3
    a964:	e7983104 	ldr	r3, [r8, r4, lsl #2]
    a968:	e5821008 	str	r1, [r2, #8]
    a96c:	e0233006 	eor	r3, r3, r6
    a970:	e582300c 	str	r3, [r2, #12]
    a974:	e59d301c 	ldr	r3, [sp, #28]
    a978:	e5820000 	str	r0, [r2]
    a97c:	e2831004 	add	r1, r3, #4
    a980:	e2832007 	add	r2, r3, #7
    a984:	1a000361 	bne	b710 <run+0x12d4>
    a988:	e59d302c 	ldr	r3, [sp, #44]	; 0x2c
    a98c:	e79a0105 	ldr	r0, [sl, r5, lsl #2]
    a990:	e023300c 	eor	r3, r3, ip
    a994:	e7997107 	ldr	r7, [r9, r7, lsl #2]
    a998:	e1a0c003 	mov	ip, r3
    a99c:	e59d3030 	ldr	r3, [sp, #48]	; 0x30
    a9a0:	e7992104 	ldr	r2, [r9, r4, lsl #2]
    a9a4:	e79b5103 	ldr	r5, [fp, r3, lsl #2]
    a9a8:	e79a310e 	ldr	r3, [sl, lr, lsl #2]
    a9ac:	e59de1e4 	ldr	lr, [sp, #484]	; 0x1e4
    a9b0:	e59d1020 	ldr	r1, [sp, #32]
    a9b4:	e35e0000 	cmp	lr, #0
    a9b8:	e59de090 	ldr	lr, [sp, #144]	; 0x90
    a9bc:	e79b1101 	ldr	r1, [fp, r1, lsl #2]
    a9c0:	e02cc00e 	eor	ip, ip, lr
    a9c4:	e02cc000 	eor	ip, ip, r0
    a9c8:	e02cc005 	eor	ip, ip, r5
    a9cc:	e027700c 	eor	r7, r7, ip
    a9d0:	e59d0098 	ldr	r0, [sp, #152]	; 0x98
    a9d4:	e1a0cc27 	lsr	ip, r7, #24
    a9d8:	e7e7e457 	ubfx	lr, r7, #8, #8
    a9dc:	e58dc020 	str	ip, [sp, #32]
    a9e0:	e79ac10c 	ldr	ip, [sl, ip, lsl #2]
    a9e4:	e0200002 	eor	r0, r0, r2
    a9e8:	e020000c 	eor	r0, r0, ip
    a9ec:	e7e72857 	ubfx	r2, r7, #16, #8
    a9f0:	e79bc10e 	ldr	ip, [fp, lr, lsl #2]
    a9f4:	e58de024 	str	lr, [sp, #36]	; 0x24
    a9f8:	e6efe077 	uxtb	lr, r7
    a9fc:	e020000c 	eor	r0, r0, ip
    aa00:	e58dc040 	str	ip, [sp, #64]	; 0x40
    aa04:	e798c102 	ldr	ip, [r8, r2, lsl #2]
    aa08:	e58de028 	str	lr, [sp, #40]	; 0x28
    aa0c:	e020000c 	eor	r0, r0, ip
    aa10:	e799c10e 	ldr	ip, [r9, lr, lsl #2]
    aa14:	e58d70a0 	str	r7, [sp, #160]	; 0xa0
    aa18:	e020c00c 	eor	ip, r0, ip
    aa1c:	e59d009c 	ldr	r0, [sp, #156]	; 0x9c
    aa20:	e6efe07c 	uxtb	lr, ip
    aa24:	e7e7445c 	ubfx	r4, ip, #8, #8
    aa28:	e0200003 	eor	r0, r0, r3
    aa2c:	e79a310e 	ldr	r3, [sl, lr, lsl #2]
    aa30:	e58de048 	str	lr, [sp, #72]	; 0x48
    aa34:	e79be104 	ldr	lr, [fp, r4, lsl #2]
    aa38:	e0200003 	eor	r0, r0, r3
    aa3c:	e58d3030 	str	r3, [sp, #48]	; 0x30
    aa40:	e7e7385c 	ubfx	r3, ip, #16, #8
    aa44:	e020000e 	eor	r0, r0, lr
    aa48:	e58de04c 	str	lr, [sp, #76]	; 0x4c
    aa4c:	e1a0ec2c 	lsr	lr, ip, #24
    aa50:	e58d4034 	str	r4, [sp, #52]	; 0x34
    aa54:	e58d3050 	str	r3, [sp, #80]	; 0x50
    aa58:	e58dc044 	str	ip, [sp, #68]	; 0x44
    aa5c:	e58dc0a4 	str	ip, [sp, #164]	; 0xa4
    aa60:	e58de02c 	str	lr, [sp, #44]	; 0x2c
    aa64:	e798c103 	ldr	ip, [r8, r3, lsl #2]
    aa68:	e59d4094 	ldr	r4, [sp, #148]	; 0x94
    aa6c:	e020000c 	eor	r0, r0, ip
    aa70:	e799c10e 	ldr	ip, [r9, lr, lsl #2]
    aa74:	e0244001 	eor	r4, r4, r1
    aa78:	e020000c 	eor	r0, r0, ip
    aa7c:	e7e73450 	ubfx	r3, r0, #8, #8
    aa80:	e6ef6070 	uxtb	r6, r0
    aa84:	e7e75850 	ubfx	r5, r0, #16, #8
    aa88:	e79a1103 	ldr	r1, [sl, r3, lsl #2]
    aa8c:	e58d0054 	str	r0, [sp, #84]	; 0x54
    aa90:	e0244001 	eor	r4, r4, r1
    aa94:	e79b1105 	ldr	r1, [fp, r5, lsl #2]
    aa98:	e58d00a8 	str	r0, [sp, #168]	; 0xa8
    aa9c:	e0244001 	eor	r4, r4, r1
    aaa0:	e1a00c20 	lsr	r0, r0, #24
    aaa4:	e7981106 	ldr	r1, [r8, r6, lsl #2]
    aaa8:	e58d0058 	str	r0, [sp, #88]	; 0x58
    aaac:	e0244001 	eor	r4, r4, r1
    aab0:	e7991100 	ldr	r1, [r9, r0, lsl #2]
    aab4:	e0244001 	eor	r4, r4, r1
    aab8:	e58d40ac 	str	r4, [sp, #172]	; 0xac
    aabc:	1a000302 	bne	b6cc <run+0x1290>
    aac0:	e59d004c 	ldr	r0, [sp, #76]	; 0x4c
    aac4:	e59d1030 	ldr	r1, [sp, #48]	; 0x30
    aac8:	e59dc050 	ldr	ip, [sp, #80]	; 0x50
    aacc:	e0211000 	eor	r1, r1, r0
    aad0:	e79ac10c 	ldr	ip, [sl, ip, lsl #2]
    aad4:	e79a0102 	ldr	r0, [sl, r2, lsl #2]
    aad8:	e59d2058 	ldr	r2, [sp, #88]	; 0x58
    aadc:	e59de034 	ldr	lr, [sp, #52]	; 0x34
    aae0:	e58dc030 	str	ip, [sp, #48]	; 0x30
    aae4:	e798c102 	ldr	ip, [r8, r2, lsl #2]
    aae8:	e59d2028 	ldr	r2, [sp, #40]	; 0x28
    aaec:	e799e10e 	ldr	lr, [r9, lr, lsl #2]
    aaf0:	e58d105c 	str	r1, [sp, #92]	; 0x5c
    aaf4:	e79a1102 	ldr	r1, [sl, r2, lsl #2]
    aaf8:	e59d2040 	ldr	r2, [sp, #64]	; 0x40
    aafc:	e58de034 	str	lr, [sp, #52]	; 0x34
    ab00:	e0222001 	eor	r2, r2, r1
    ab04:	e798e103 	ldr	lr, [r8, r3, lsl #2]
    ab08:	e1a01002 	mov	r1, r2
    ab0c:	e59d31e4 	ldr	r3, [sp, #484]	; 0x1e4
    ab10:	e59d2020 	ldr	r2, [sp, #32]
    ab14:	e58d004c 	str	r0, [sp, #76]	; 0x4c
    ab18:	e3530000 	cmp	r3, #0
    ab1c:	e7e73454 	ubfx	r3, r4, #8, #8
    ab20:	e79b2102 	ldr	r2, [fp, r2, lsl #2]
    ab24:	e7983103 	ldr	r3, [r8, r3, lsl #2]
    ab28:	e0222000 	eor	r2, r2, r0
    ab2c:	e0222003 	eor	r2, r2, r3
    ab30:	e6ef3074 	uxtb	r3, r4
    ab34:	e59d0030 	ldr	r0, [sp, #48]	; 0x30
    ab38:	e7993103 	ldr	r3, [r9, r3, lsl #2]
    ab3c:	e7996106 	ldr	r6, [r9, r6, lsl #2]
    ab40:	e0222003 	eor	r2, r2, r3
    ab44:	e59d302c 	ldr	r3, [sp, #44]	; 0x2c
    ab48:	e58d2040 	str	r2, [sp, #64]	; 0x40
    ab4c:	e79b3103 	ldr	r3, [fp, r3, lsl #2]
    ab50:	e0233000 	eor	r3, r3, r0
    ab54:	e59d0034 	ldr	r0, [sp, #52]	; 0x34
    ab58:	e0233000 	eor	r3, r3, r0
    ab5c:	e023300e 	eor	r3, r3, lr
    ab60:	e0233006 	eor	r3, r3, r6
    ab64:	e59d6018 	ldr	r6, [sp, #24]
    ab68:	e1a00c24 	lsr	r0, r4, #24
    ab6c:	e586301c 	str	r3, [r6, #28]
    ab70:	e79a3105 	ldr	r3, [sl, r5, lsl #2]
    ab74:	e7995105 	ldr	r5, [r9, r5, lsl #2]
    ab78:	e0211003 	eor	r1, r1, r3
    ab7c:	e7e73854 	ubfx	r3, r4, #16, #8
    ab80:	e799e103 	ldr	lr, [r9, r3, lsl #2]
    ab84:	e59d3024 	ldr	r3, [sp, #36]	; 0x24
    ab88:	e59d205c 	ldr	r2, [sp, #92]	; 0x5c
    ab8c:	e7983103 	ldr	r3, [r8, r3, lsl #2]
    ab90:	e0233002 	eor	r3, r3, r2
    ab94:	e023300c 	eor	r3, r3, ip
    ab98:	e0233005 	eor	r3, r3, r5
    ab9c:	e5863018 	str	r3, [r6, #24]
    aba0:	e7983100 	ldr	r3, [r8, r0, lsl #2]
    aba4:	e59d2040 	ldr	r2, [sp, #64]	; 0x40
    aba8:	e0211003 	eor	r1, r1, r3
    abac:	e79b3100 	ldr	r3, [fp, r0, lsl #2]
    abb0:	e02ee001 	eor	lr, lr, r1
    abb4:	e0222003 	eor	r2, r2, r3
    abb8:	e59d301c 	ldr	r3, [sp, #28]
    abbc:	e5862014 	str	r2, [r6, #20]
    abc0:	e586e010 	str	lr, [r6, #16]
    abc4:	e2831008 	add	r1, r3, #8
    abc8:	e283200b 	add	r2, r3, #11
    abcc:	1a0002ab 	bne	b680 <run+0x1244>
    abd0:	e59d3034 	ldr	r3, [sp, #52]	; 0x34
    abd4:	e59d1030 	ldr	r1, [sp, #48]	; 0x30
    abd8:	e59d204c 	ldr	r2, [sp, #76]	; 0x4c
    abdc:	e0211003 	eor	r1, r1, r3
    abe0:	e59d3044 	ldr	r3, [sp, #68]	; 0x44
    abe4:	e0233002 	eor	r3, r3, r2
    abe8:	e59d2020 	ldr	r2, [sp, #32]
    abec:	e7982102 	ldr	r2, [r8, r2, lsl #2]
    abf0:	e0211002 	eor	r1, r1, r2
    abf4:	e59d2048 	ldr	r2, [sp, #72]	; 0x48
    abf8:	e79b2102 	ldr	r2, [fp, r2, lsl #2]
    abfc:	e0211002 	eor	r1, r1, r2
    ac00:	e59d202c 	ldr	r2, [sp, #44]	; 0x2c
    ac04:	e7982102 	ldr	r2, [r8, r2, lsl #2]
    ac08:	e0211002 	eor	r1, r1, r2
    ac0c:	e59d2054 	ldr	r2, [sp, #84]	; 0x54
    ac10:	e0211002 	eor	r1, r1, r2
    ac14:	e59d2024 	ldr	r2, [sp, #36]	; 0x24
    ac18:	e7e7c851 	ubfx	ip, r1, #16, #8
    ac1c:	e799e102 	ldr	lr, [r9, r2, lsl #2]
    ac20:	e59d2028 	ldr	r2, [sp, #40]	; 0x28
    ac24:	e798510c 	ldr	r5, [r8, ip, lsl #2]
    ac28:	e79b2102 	ldr	r2, [fp, r2, lsl #2]
    ac2c:	e7e70451 	ubfx	r0, r1, #8, #8
    ac30:	e0244002 	eor	r4, r4, r2
    ac34:	e59d21e4 	ldr	r2, [sp, #484]	; 0x1e4
    ac38:	e02ee007 	eor	lr, lr, r7
    ac3c:	e58d1090 	str	r1, [sp, #144]	; 0x90
    ac40:	e3520000 	cmp	r2, #0
    ac44:	e1a02c21 	lsr	r2, r1, #24
    ac48:	e6ef1071 	uxtb	r1, r1
    ac4c:	e58d5020 	str	r5, [sp, #32]
    ac50:	e79ac102 	ldr	ip, [sl, r2, lsl #2]
    ac54:	e7991101 	ldr	r1, [r9, r1, lsl #2]
    ac58:	e02ee00c 	eor	lr, lr, ip
    ac5c:	e79bc100 	ldr	ip, [fp, r0, lsl #2]
    ac60:	e02cc00e 	eor	ip, ip, lr
    ac64:	e02cc005 	eor	ip, ip, r5
    ac68:	e02cc001 	eor	ip, ip, r1
    ac6c:	e7e7e85c 	ubfx	lr, ip, #16, #8
    ac70:	e6ef107c 	uxtb	r1, ip
    ac74:	e58dc094 	str	ip, [sp, #148]	; 0x94
    ac78:	e79a1101 	ldr	r1, [sl, r1, lsl #2]
    ac7c:	e798510e 	ldr	r5, [r8, lr, lsl #2]
    ac80:	e0233001 	eor	r3, r3, r1
    ac84:	e7e7145c 	ubfx	r1, ip, #8, #8
    ac88:	e1a0cc2c 	lsr	ip, ip, #24
    ac8c:	e58d5024 	str	r5, [sp, #36]	; 0x24
    ac90:	e799e10c 	ldr	lr, [r9, ip, lsl #2]
    ac94:	e79bc101 	ldr	ip, [fp, r1, lsl #2]
    ac98:	e023300c 	eor	r3, r3, ip
    ac9c:	e0233005 	eor	r3, r3, r5
    aca0:	e023300e 	eor	r3, r3, lr
    aca4:	e7e7c453 	ubfx	ip, r3, #8, #8
    aca8:	e58d3098 	str	r3, [sp, #152]	; 0x98
    acac:	e79a510c 	ldr	r5, [sl, ip, lsl #2]
    acb0:	e7e7c853 	ubfx	ip, r3, #16, #8
    acb4:	e0244005 	eor	r4, r4, r5
    acb8:	e79bc10c 	ldr	ip, [fp, ip, lsl #2]
    acbc:	e024400c 	eor	r4, r4, ip
    acc0:	e58dc028 	str	ip, [sp, #40]	; 0x28
    acc4:	e6efc073 	uxtb	ip, r3
    acc8:	e1a03c23 	lsr	r3, r3, #24
    accc:	e798c10c 	ldr	ip, [r8, ip, lsl #2]
    acd0:	e024400c 	eor	r4, r4, ip
    acd4:	e799c103 	ldr	ip, [r9, r3, lsl #2]
    acd8:	e024400c 	eor	r4, r4, ip
    acdc:	e58d409c 	str	r4, [sp, #156]	; 0x9c
    ace0:	1a000246 	bne	b600 <run+0x11c4>
    ace4:	e799c101 	ldr	ip, [r9, r1, lsl #2]
    ace8:	e7990100 	ldr	r0, [r9, r0, lsl #2]
    acec:	e5dd109d 	ldrb	r1, [sp, #157]	; 0x9d
    acf0:	e7992102 	ldr	r2, [r9, r2, lsl #2]
    acf4:	e58d0030 	str	r0, [sp, #48]	; 0x30
    acf8:	e79a0101 	ldr	r0, [sl, r1, lsl #2]
    acfc:	e5dd109c 	ldrb	r1, [sp, #156]	; 0x9c
    ad00:	e5dd7094 	ldrb	r7, [sp, #148]	; 0x94
    ad04:	e79b1101 	ldr	r1, [fp, r1, lsl #2]
    ad08:	e58d2034 	str	r2, [sp, #52]	; 0x34
    ad0c:	e5dd2098 	ldrb	r2, [sp, #152]	; 0x98
    ad10:	e0200001 	eor	r0, r0, r1
    ad14:	e58dc02c 	str	ip, [sp, #44]	; 0x2c
    ad18:	e7981107 	ldr	r1, [r8, r7, lsl #2]
    ad1c:	e79bc102 	ldr	ip, [fp, r2, lsl #2]
    ad20:	e79b7107 	ldr	r7, [fp, r7, lsl #2]
    ad24:	e5dd6090 	ldrb	r6, [sp, #144]	; 0x90
    ad28:	e02cc007 	eor	ip, ip, r7
    ad2c:	e02cc005 	eor	ip, ip, r5
    ad30:	e59d5024 	ldr	r5, [sp, #36]	; 0x24
    ad34:	e59d41e4 	ldr	r4, [sp, #484]	; 0x1e4
    ad38:	e02cc005 	eor	ip, ip, r5
    ad3c:	e59d5018 	ldr	r5, [sp, #24]
    ad40:	e3540000 	cmp	r4, #0
    ad44:	e02cc00e 	eor	ip, ip, lr
    ad48:	e585c024 	str	ip, [r5, #36]	; 0x24
    ad4c:	e79ac106 	ldr	ip, [sl, r6, lsl #2]
    ad50:	e5dd409e 	ldrb	r4, [sp, #158]	; 0x9e
    ad54:	e5dd209f 	ldrb	r2, [sp, #159]	; 0x9f
    ad58:	e021100c 	eor	r1, r1, ip
    ad5c:	e59dc028 	ldr	ip, [sp, #40]	; 0x28
    ad60:	e79be104 	ldr	lr, [fp, r4, lsl #2]
    ad64:	e79a2102 	ldr	r2, [sl, r2, lsl #2]
    ad68:	e02cc001 	eor	ip, ip, r1
    ad6c:	e7981106 	ldr	r1, [r8, r6, lsl #2]
    ad70:	e022200e 	eor	r2, r2, lr
    ad74:	e0222001 	eor	r2, r2, r1
    ad78:	e59d1030 	ldr	r1, [sp, #48]	; 0x30
    ad7c:	e59de020 	ldr	lr, [sp, #32]
    ad80:	e0222001 	eor	r2, r2, r1
    ad84:	e7991104 	ldr	r1, [r9, r4, lsl #2]
    ad88:	e0211000 	eor	r1, r1, r0
    ad8c:	e59d0034 	ldr	r0, [sp, #52]	; 0x34
    ad90:	e021100e 	eor	r1, r1, lr
    ad94:	e0211000 	eor	r1, r1, r0
    ad98:	e585102c 	str	r1, [r5, #44]	; 0x2c
    ad9c:	e79a1103 	ldr	r1, [sl, r3, lsl #2]
    ada0:	e7983103 	ldr	r3, [r8, r3, lsl #2]
    ada4:	e021100c 	eor	r1, r1, ip
    ada8:	e59dc02c 	ldr	ip, [sp, #44]	; 0x2c
    adac:	e0222003 	eor	r2, r2, r3
    adb0:	e59d301c 	ldr	r3, [sp, #28]
    adb4:	e021100c 	eor	r1, r1, ip
    adb8:	e5851020 	str	r1, [r5, #32]
    adbc:	e283100c 	add	r1, r3, #12
    adc0:	e5852028 	str	r2, [r5, #40]	; 0x28
    adc4:	e283200f 	add	r2, r3, #15
    adc8:	1a000197 	bne	b42c <run+0xff0>
    adcc:	e59d3038 	ldr	r3, [sp, #56]	; 0x38
    add0:	e3530001 	cmp	r3, #1
    add4:	e59d301c 	ldr	r3, [sp, #28]
    add8:	e2833010 	add	r3, r3, #16
    addc:	e58d301c 	str	r3, [sp, #28]
    ade0:	e59d3018 	ldr	r3, [sp, #24]
    ade4:	e2833040 	add	r3, r3, #64	; 0x40
    ade8:	e58d3018 	str	r3, [sp, #24]
    adec:	1a000133 	bne	b2c0 <run+0xe84>
    adf0:	e3a02040 	mov	r2, #64	; 0x40
    adf4:	e3a01000 	mov	r1, #0
    adf8:	e28d00b4 	add	r0, sp, #180	; 0xb4
    adfc:	eb000685 	bl	c818 <memset>
    ae00:	e59d3068 	ldr	r3, [sp, #104]	; 0x68
    ae04:	e3a02040 	mov	r2, #64	; 0x40
    ae08:	e3a01000 	mov	r1, #0
    ae0c:	e28d00f8 	add	r0, sp, #248	; 0xf8
    ae10:	e58d30b0 	str	r3, [sp, #176]	; 0xb0
    ae14:	eb00067f 	bl	c818 <memset>
    ae18:	e59d31e4 	ldr	r3, [sp, #484]	; 0x1e4
    ae1c:	e3530000 	cmp	r3, #0
    ae20:	1a000164 	bne	b3b8 <run+0xf7c>
    ae24:	e59d906c 	ldr	r9, [sp, #108]	; 0x6c
    ae28:	e30f3548 	movw	r3, #62792	; 0xf548
    ae2c:	e3403000 	movt	r3, #0
    ae30:	e30fa148 	movw	sl, #61768	; 0xf148
    ae34:	e58d301c 	str	r3, [sp, #28]
    ae38:	e30f3948 	movw	r3, #63816	; 0xf948
    ae3c:	e3403000 	movt	r3, #0
    ae40:	e28d70b0 	add	r7, sp, #176	; 0xb0
    ae44:	e58d3020 	str	r3, [sp, #32]
    ae48:	e30f3d48 	movw	r3, #64840	; 0xfd48
    ae4c:	e3403000 	movt	r3, #0
    ae50:	e28d80f8 	add	r8, sp, #248	; 0xf8
    ae54:	e58d3024 	str	r3, [sp, #36]	; 0x24
    ae58:	e30a3aab 	movw	r3, #43691	; 0xaaab
    ae5c:	e34a3aaa 	movt	r3, #43690	; 0xaaaa
    ae60:	e3a05001 	mov	r5, #1
    ae64:	e58d3018 	str	r3, [sp, #24]
    ae68:	e30f3068 	movw	r3, #61544	; 0xf068
    ae6c:	e3403000 	movt	r3, #0
    ae70:	e58d3034 	str	r3, [sp, #52]	; 0x34
    ae74:	e30f307c 	movw	r3, #61564	; 0xf07c
    ae78:	e340a000 	movt	sl, #0
    ae7c:	e3403000 	movt	r3, #0
    ae80:	e58d3038 	str	r3, [sp, #56]	; 0x38
    ae84:	e58da028 	str	sl, [sp, #40]	; 0x28
    ae88:	ea00001e 	b	af08 <run+0xacc>
    ae8c:	e0844009 	add	r4, r4, r9
    ae90:	e26bb020 	rsb	fp, fp, #32
    ae94:	e59d201c 	ldr	r2, [sp, #28]
    ae98:	e1a04b74 	ror	r4, r4, fp
    ae9c:	e7e73854 	ubfx	r3, r4, #16, #8
    aea0:	e59d1028 	ldr	r1, [sp, #40]	; 0x28
    aea4:	e7923103 	ldr	r3, [r2, r3, lsl #2]
    aea8:	e1a02c24 	lsr	r2, r4, #24
    aeac:	e7912102 	ldr	r2, [r1, r2, lsl #2]
    aeb0:	e59d1020 	ldr	r1, [sp, #32]
    aeb4:	e0233002 	eor	r3, r3, r2
    aeb8:	e7e72454 	ubfx	r2, r4, #8, #8
    aebc:	e6ef4074 	uxtb	r4, r4
    aec0:	e7912102 	ldr	r2, [r1, r2, lsl #2]
    aec4:	e0433002 	sub	r3, r3, r2
    aec8:	e59d2024 	ldr	r2, [sp, #36]	; 0x24
    aecc:	e7922104 	ldr	r2, [r2, r4, lsl #2]
    aed0:	e0833002 	add	r3, r3, r2
    aed4:	e5972000 	ldr	r2, [r7]
    aed8:	e1a04005 	mov	r4, r5
    aedc:	e5879004 	str	r9, [r7, #4]
    aee0:	e0233002 	eor	r3, r3, r2
    aee4:	e5883000 	str	r3, [r8]
    aee8:	e2855001 	add	r5, r5, #1
    aeec:	e2877004 	add	r7, r7, #4
    aef0:	e3550011 	cmp	r5, #17
    aef4:	e2888004 	add	r8, r8, #4
    aef8:	0a00011a 	beq	b368 <run+0xf2c>
    aefc:	e28d3f6e 	add	r3, sp, #440	; 0x1b8
    af00:	e0834104 	add	r4, r3, r4, lsl #2
    af04:	e51490c4 	ldr	r9, [r4, #-196]	; 0xffffff3c
    af08:	e59d31e0 	ldr	r3, [sp, #480]	; 0x1e0
    af0c:	e245a001 	sub	sl, r5, #1
    af10:	e28d2f6e 	add	r2, sp, #440	; 0x1b8
    af14:	e3530000 	cmp	r3, #0
    af18:	e59d31e4 	ldr	r3, [sp, #484]	; 0x1e4
    af1c:	12656010 	rsbne	r6, r5, #16
    af20:	01a0600a 	moveq	r6, sl
    af24:	e3530000 	cmp	r3, #0
    af28:	e2863010 	add	r3, r6, #16
    af2c:	e0822106 	add	r2, r2, r6, lsl #2
    af30:	e5124080 	ldr	r4, [r2, #-128]	; 0xffffff80
    af34:	e28d2f6e 	add	r2, sp, #440	; 0x1b8
    af38:	e0822103 	add	r2, r2, r3, lsl #2
    af3c:	e5122080 	ldr	r2, [r2, #-128]	; 0xffffff80
    af40:	e202b01f 	and	fp, r2, #31
    af44:	1a00001e 	bne	afc4 <run+0xb88>
    af48:	e59d3018 	ldr	r3, [sp, #24]
    af4c:	e0832693 	umull	r2, r3, r3, r6
    af50:	e3a02003 	mov	r2, #3
    af54:	e1a030a3 	lsr	r3, r3, #1
    af58:	e0636392 	mls	r3, r2, r3, r6
    af5c:	e3530001 	cmp	r3, #1
    af60:	0a000076 	beq	b140 <run+0xd04>
    af64:	e3530002 	cmp	r3, #2
    af68:	1affffc7 	bne	ae8c <run+0xa50>
    af6c:	e59d31e4 	ldr	r3, [sp, #484]	; 0x1e4
    af70:	e0446009 	sub	r6, r4, r9
    af74:	e3530000 	cmp	r3, #0
    af78:	e26b3020 	rsb	r3, fp, #32
    af7c:	e1a06376 	ror	r6, r6, r3
    af80:	1a0000a9 	bne	b22c <run+0xdf0>
    af84:	e7e73856 	ubfx	r3, r6, #16, #8
    af88:	e59d201c 	ldr	r2, [sp, #28]
    af8c:	e59d1028 	ldr	r1, [sp, #40]	; 0x28
    af90:	e7923103 	ldr	r3, [r2, r3, lsl #2]
    af94:	e1a02c26 	lsr	r2, r6, #24
    af98:	e7912102 	ldr	r2, [r1, r2, lsl #2]
    af9c:	e59d1020 	ldr	r1, [sp, #32]
    afa0:	e0833002 	add	r3, r3, r2
    afa4:	e7e72456 	ubfx	r2, r6, #8, #8
    afa8:	e6ef6076 	uxtb	r6, r6
    afac:	e7912102 	ldr	r2, [r1, r2, lsl #2]
    afb0:	e0233002 	eor	r3, r3, r2
    afb4:	e59d2024 	ldr	r2, [sp, #36]	; 0x24
    afb8:	e7922106 	ldr	r2, [r2, r6, lsl #2]
    afbc:	e0433002 	sub	r3, r3, r2
    afc0:	eaffffc3 	b	aed4 <run+0xa98>
    afc4:	e58d2030 	str	r2, [sp, #48]	; 0x30
    afc8:	e30e0f1c 	movw	r0, #61212	; 0xef1c
    afcc:	e3400000 	movt	r0, #0
    afd0:	e1a0100a 	mov	r1, sl
    afd4:	e58d302c 	str	r3, [sp, #44]	; 0x2c
    afd8:	eb000cf6 	bl	e3b8 <tfp_printf>
    afdc:	e59d2030 	ldr	r2, [sp, #48]	; 0x30
    afe0:	e30e0f2c 	movw	r0, #61228	; 0xef2c
    afe4:	e59d302c 	ldr	r3, [sp, #44]	; 0x2c
    afe8:	e1a01006 	mov	r1, r6
    afec:	e3400000 	movt	r0, #0
    aff0:	e88d0804 	stm	sp, {r2, fp}
    aff4:	e1a02004 	mov	r2, r4
    aff8:	eb000cee 	bl	e3b8 <tfp_printf>
    affc:	e5971000 	ldr	r1, [r7]
    b000:	e30e0f5c 	movw	r0, #61276	; 0xef5c
    b004:	e3400000 	movt	r0, #0
    b008:	e1a02009 	mov	r2, r9
    b00c:	eb000ce9 	bl	e3b8 <tfp_printf>
    b010:	e59d3018 	ldr	r3, [sp, #24]
    b014:	e0832693 	umull	r2, r3, r3, r6
    b018:	e3a02003 	mov	r2, #3
    b01c:	e1a030a3 	lsr	r3, r3, #1
    b020:	e0636392 	mls	r3, r2, r3, r6
    b024:	e3530001 	cmp	r3, #1
    b028:	0a000057 	beq	b18c <run+0xd50>
    b02c:	e3530002 	cmp	r3, #2
    b030:	0affffcd 	beq	af6c <run+0xb30>
    b034:	e0842009 	add	r2, r4, r9
    b038:	e26b3020 	rsb	r3, fp, #32
    b03c:	e1a01004 	mov	r1, r4
    b040:	e30f00c0 	movw	r0, #61632	; 0xf0c0
    b044:	e1a04372 	ror	r4, r2, r3
    b048:	e1a0300b 	mov	r3, fp
    b04c:	e3400000 	movt	r0, #0
    b050:	e1a02009 	mov	r2, r9
    b054:	e58d4000 	str	r4, [sp]
    b058:	e7e76854 	ubfx	r6, r4, #16, #8
    b05c:	eb000cd5 	bl	e3b8 <tfp_printf>
    b060:	e7e7b454 	ubfx	fp, r4, #8, #8
    b064:	e30e0fb8 	movw	r0, #61368	; 0xefb8
    b068:	e1a01c24 	lsr	r1, r4, #24
    b06c:	e6ef4074 	uxtb	r4, r4
    b070:	e3400000 	movt	r0, #0
    b074:	e1a0300b 	mov	r3, fp
    b078:	e58d4000 	str	r4, [sp]
    b07c:	e1a02006 	mov	r2, r6
    b080:	e58d102c 	str	r1, [sp, #44]	; 0x2c
    b084:	eb000ccb 	bl	e3b8 <tfp_printf>
    b088:	e59d3024 	ldr	r3, [sp, #36]	; 0x24
    b08c:	e59d102c 	ldr	r1, [sp, #44]	; 0x2c
    b090:	e793c104 	ldr	ip, [r3, r4, lsl #2]
    b094:	e59d3020 	ldr	r3, [sp, #32]
    b098:	e58d400c 	str	r4, [sp, #12]
    b09c:	e793e10b 	ldr	lr, [r3, fp, lsl #2]
    b0a0:	e59d3028 	ldr	r3, [sp, #40]	; 0x28
    b0a4:	e58db004 	str	fp, [sp, #4]
    b0a8:	e7932101 	ldr	r2, [r3, r1, lsl #2]
    b0ac:	e59d301c 	ldr	r3, [sp, #28]
    b0b0:	e58dc010 	str	ip, [sp, #16]
    b0b4:	e7930106 	ldr	r0, [r3, r6, lsl #2]
    b0b8:	e1a03006 	mov	r3, r6
    b0bc:	e58de008 	str	lr, [sp, #8]
    b0c0:	e0224000 	eor	r4, r2, r0
    b0c4:	e044400e 	sub	r4, r4, lr
    b0c8:	e084400c 	add	r4, r4, ip
    b0cc:	e58d0000 	str	r0, [sp]
    b0d0:	e30e0fd8 	movw	r0, #61400	; 0xefd8
    b0d4:	e3400000 	movt	r0, #0
    b0d8:	eb000cb6 	bl	e3b8 <tfp_printf>
    b0dc:	e30f0020 	movw	r0, #61472	; 0xf020
    b0e0:	e1a01004 	mov	r1, r4
    b0e4:	e3400000 	movt	r0, #0
    b0e8:	eb000cb2 	bl	e3b8 <tfp_printf>
    b0ec:	e5976000 	ldr	r6, [r7]
    b0f0:	e1a0100a 	mov	r1, sl
    b0f4:	e59d0034 	ldr	r0, [sp, #52]	; 0x34
    b0f8:	e024b006 	eor	fp, r4, r6
    b0fc:	e5879004 	str	r9, [r7, #4]
    b100:	e588b000 	str	fp, [r8]
    b104:	eb000cab 	bl	e3b8 <tfp_printf>
    b108:	e59d0038 	ldr	r0, [sp, #56]	; 0x38
    b10c:	e1a03009 	mov	r3, r9
    b110:	e1a0200a 	mov	r2, sl
    b114:	e1a01005 	mov	r1, r5
    b118:	eb000ca6 	bl	e3b8 <tfp_printf>
    b11c:	e30f0094 	movw	r0, #61588	; 0xf094
    b120:	e1a03006 	mov	r3, r6
    b124:	e88d0810 	stm	sp, {r4, fp}
    b128:	e3400000 	movt	r0, #0
    b12c:	e1a0200a 	mov	r2, sl
    b130:	e1a01005 	mov	r1, r5
    b134:	e1a04005 	mov	r4, r5
    b138:	eb000c9e 	bl	e3b8 <tfp_printf>
    b13c:	eaffff69 	b	aee8 <run+0xaac>
    b140:	e0244009 	eor	r4, r4, r9
    b144:	e26bb020 	rsb	fp, fp, #32
    b148:	e59d2020 	ldr	r2, [sp, #32]
    b14c:	e1a04b74 	ror	r4, r4, fp
    b150:	e7e73454 	ubfx	r3, r4, #8, #8
    b154:	e59d1028 	ldr	r1, [sp, #40]	; 0x28
    b158:	e7923103 	ldr	r3, [r2, r3, lsl #2]
    b15c:	e1a02c24 	lsr	r2, r4, #24
    b160:	e7912102 	ldr	r2, [r1, r2, lsl #2]
    b164:	e59d101c 	ldr	r1, [sp, #28]
    b168:	e0833002 	add	r3, r3, r2
    b16c:	e7e72854 	ubfx	r2, r4, #16, #8
    b170:	e6ef4074 	uxtb	r4, r4
    b174:	e7912102 	ldr	r2, [r1, r2, lsl #2]
    b178:	e0433002 	sub	r3, r3, r2
    b17c:	e59d2024 	ldr	r2, [sp, #36]	; 0x24
    b180:	e7922104 	ldr	r2, [r2, r4, lsl #2]
    b184:	e0233002 	eor	r3, r3, r2
    b188:	eaffff51 	b	aed4 <run+0xa98>
    b18c:	e0242009 	eor	r2, r4, r9
    b190:	e26b3020 	rsb	r3, fp, #32
    b194:	e1a01004 	mov	r1, r4
    b198:	e30f0100 	movw	r0, #61696	; 0xf100
    b19c:	e1a04372 	ror	r4, r2, r3
    b1a0:	e1a0300b 	mov	r3, fp
    b1a4:	e3400000 	movt	r0, #0
    b1a8:	e1a02009 	mov	r2, r9
    b1ac:	e58d4000 	str	r4, [sp]
    b1b0:	e7e76854 	ubfx	r6, r4, #16, #8
    b1b4:	eb000c7f 	bl	e3b8 <tfp_printf>
    b1b8:	e7e7b454 	ubfx	fp, r4, #8, #8
    b1bc:	e30e0fb8 	movw	r0, #61368	; 0xefb8
    b1c0:	e1a01c24 	lsr	r1, r4, #24
    b1c4:	e6ef4074 	uxtb	r4, r4
    b1c8:	e3400000 	movt	r0, #0
    b1cc:	e1a0300b 	mov	r3, fp
    b1d0:	e58d4000 	str	r4, [sp]
    b1d4:	e1a02006 	mov	r2, r6
    b1d8:	e58d102c 	str	r1, [sp, #44]	; 0x2c
    b1dc:	eb000c75 	bl	e3b8 <tfp_printf>
    b1e0:	e59d3024 	ldr	r3, [sp, #36]	; 0x24
    b1e4:	e59d102c 	ldr	r1, [sp, #44]	; 0x2c
    b1e8:	e7930104 	ldr	r0, [r3, r4, lsl #2]
    b1ec:	e59d3020 	ldr	r3, [sp, #32]
    b1f0:	e58d400c 	str	r4, [sp, #12]
    b1f4:	e793410b 	ldr	r4, [r3, fp, lsl #2]
    b1f8:	e59d3028 	ldr	r3, [sp, #40]	; 0x28
    b1fc:	e58d4008 	str	r4, [sp, #8]
    b200:	e7932101 	ldr	r2, [r3, r1, lsl #2]
    b204:	e59d301c 	ldr	r3, [sp, #28]
    b208:	e0824004 	add	r4, r2, r4
    b20c:	e793c106 	ldr	ip, [r3, r6, lsl #2]
    b210:	e1a03006 	mov	r3, r6
    b214:	e58db004 	str	fp, [sp, #4]
    b218:	e044400c 	sub	r4, r4, ip
    b21c:	e0244000 	eor	r4, r4, r0
    b220:	e58d0010 	str	r0, [sp, #16]
    b224:	e58dc000 	str	ip, [sp]
    b228:	eaffffa8 	b	b0d0 <run+0xc94>
    b22c:	e58d6000 	str	r6, [sp]
    b230:	e30e0f74 	movw	r0, #61300	; 0xef74
    b234:	e3400000 	movt	r0, #0
    b238:	e1a0300b 	mov	r3, fp
    b23c:	e7e7b856 	ubfx	fp, r6, #16, #8
    b240:	e1a01004 	mov	r1, r4
    b244:	e7e74456 	ubfx	r4, r6, #8, #8
    b248:	e1a02009 	mov	r2, r9
    b24c:	eb000c59 	bl	e3b8 <tfp_printf>
    b250:	e1a01c26 	lsr	r1, r6, #24
    b254:	e30e0fb8 	movw	r0, #61368	; 0xefb8
    b258:	e3400000 	movt	r0, #0
    b25c:	e6ef6076 	uxtb	r6, r6
    b260:	e58d6000 	str	r6, [sp]
    b264:	e1a03004 	mov	r3, r4
    b268:	e58d102c 	str	r1, [sp, #44]	; 0x2c
    b26c:	e1a0200b 	mov	r2, fp
    b270:	eb000c50 	bl	e3b8 <tfp_printf>
    b274:	e59d3024 	ldr	r3, [sp, #36]	; 0x24
    b278:	e59d102c 	ldr	r1, [sp, #44]	; 0x2c
    b27c:	e793c106 	ldr	ip, [r3, r6, lsl #2]
    b280:	e59d3020 	ldr	r3, [sp, #32]
    b284:	e58d4004 	str	r4, [sp, #4]
    b288:	e793e104 	ldr	lr, [r3, r4, lsl #2]
    b28c:	e59d3028 	ldr	r3, [sp, #40]	; 0x28
    b290:	e58d600c 	str	r6, [sp, #12]
    b294:	e7932101 	ldr	r2, [r3, r1, lsl #2]
    b298:	e59d301c 	ldr	r3, [sp, #28]
    b29c:	e58dc010 	str	ip, [sp, #16]
    b2a0:	e793010b 	ldr	r0, [r3, fp, lsl #2]
    b2a4:	e1a0300b 	mov	r3, fp
    b2a8:	e58de008 	str	lr, [sp, #8]
    b2ac:	e0824000 	add	r4, r2, r0
    b2b0:	e024400e 	eor	r4, r4, lr
    b2b4:	e044400c 	sub	r4, r4, ip
    b2b8:	e58d0000 	str	r0, [sp]
    b2bc:	eaffff83 	b	b0d0 <run+0xc94>
    b2c0:	e3a03001 	mov	r3, #1
    b2c4:	e58d3038 	str	r3, [sp, #56]	; 0x38
    b2c8:	e59d31e4 	ldr	r3, [sp, #484]	; 0x1e4
    b2cc:	e3530000 	cmp	r3, #0
    b2d0:	0afffc92 	beq	a520 <run+0xe4>
    b2d4:	e59d1038 	ldr	r1, [sp, #56]	; 0x38
    b2d8:	e28d4090 	add	r4, sp, #144	; 0x90
    b2dc:	e59d0070 	ldr	r0, [sp, #112]	; 0x70
    b2e0:	eb000c34 	bl	e3b8 <tfp_printf>
    b2e4:	e59d0074 	ldr	r0, [sp, #116]	; 0x74
    b2e8:	eb000c32 	bl	e3b8 <tfp_printf>
    b2ec:	e59d503c 	ldr	r5, [sp, #60]	; 0x3c
    b2f0:	e4941004 	ldr	r1, [r4], #4
    b2f4:	e1a00005 	mov	r0, r5
    b2f8:	eb000c2e 	bl	e3b8 <tfp_printf>
    b2fc:	e28d30a0 	add	r3, sp, #160	; 0xa0
    b300:	e1530004 	cmp	r3, r4
    b304:	1afffff9 	bne	b2f0 <run+0xeb4>
    b308:	e59f54a4 	ldr	r5, [pc, #1188]	; b7b4 <run+0x1378>
    b30c:	e30e0dac 	movw	r0, #60844	; 0xedac
    b310:	e3400000 	movt	r0, #0
    b314:	e30e6e78 	movw	r6, #61048	; 0xee78
    b318:	e3406000 	movt	r6, #0
    b31c:	eb000c25 	bl	e3b8 <tfp_printf>
    b320:	e30e0e68 	movw	r0, #61032	; 0xee68
    b324:	e2854007 	add	r4, r5, #7
    b328:	e3400000 	movt	r0, #0
    b32c:	eb000c21 	bl	e3b8 <tfp_printf>
    b330:	e3a0300b 	mov	r3, #11
    b334:	ea000000 	b	b33c <run+0xf00>
    b338:	e4d53001 	ldrb	r3, [r5], #1
    b33c:	e2833f6e 	add	r3, r3, #440	; 0x1b8
    b340:	e1a00006 	mov	r0, r6
    b344:	e08d3003 	add	r3, sp, r3
    b348:	e5531128 	ldrb	r1, [r3, #-296]	; 0xfffffed8
    b34c:	eb000c19 	bl	e3b8 <tfp_printf>
    b350:	e1540005 	cmp	r4, r5
    b354:	1afffff7 	bne	b338 <run+0xefc>
    b358:	e30e0dac 	movw	r0, #60844	; 0xedac
    b35c:	e3400000 	movt	r0, #0
    b360:	eb000c14 	bl	e3b8 <tfp_printf>
    b364:	eafffc6d 	b	a520 <run+0xe4>
    b368:	e59d31e4 	ldr	r3, [sp, #484]	; 0x1e4
    b36c:	e59d5134 	ldr	r5, [sp, #308]	; 0x134
    b370:	e59d40f0 	ldr	r4, [sp, #240]	; 0xf0
    b374:	e3530000 	cmp	r3, #0
    b378:	1a000005 	bne	b394 <run+0xf58>
    b37c:	e59d3064 	ldr	r3, [sp, #100]	; 0x64
    b380:	e5835000 	str	r5, [r3]
    b384:	e1a00003 	mov	r0, r3
    b388:	e5834004 	str	r4, [r3, #4]
    b38c:	e28ddf6f 	add	sp, sp, #444	; 0x1bc
    b390:	e8bd8ff0 	pop	{r4, r5, r6, r7, r8, r9, sl, fp, pc}
    b394:	e30f0038 	movw	r0, #61496	; 0xf038
    b398:	e3400000 	movt	r0, #0
    b39c:	eb000c05 	bl	e3b8 <tfp_printf>
    b3a0:	e30f0050 	movw	r0, #61520	; 0xf050
    b3a4:	e1a02004 	mov	r2, r4
    b3a8:	e3400000 	movt	r0, #0
    b3ac:	e1a01005 	mov	r1, r5
    b3b0:	eb000c00 	bl	e3b8 <tfp_printf>
    b3b4:	eafffff0 	b	b37c <run+0xf40>
    b3b8:	e30e0f00 	movw	r0, #61184	; 0xef00
    b3bc:	e3400000 	movt	r0, #0
    b3c0:	eb000bfc 	bl	e3b8 <tfp_printf>
    b3c4:	eafffe96 	b	ae24 <run+0x9e8>
    b3c8:	e30e0dc4 	movw	r0, #60868	; 0xedc4
    b3cc:	e30e6dec 	movw	r6, #60908	; 0xedec
    b3d0:	e3400000 	movt	r0, #0
    b3d4:	e2454004 	sub	r4, r5, #4
    b3d8:	e3406000 	movt	r6, #0
    b3dc:	eb000bf5 	bl	e3b8 <tfp_printf>
    b3e0:	e30e0de0 	movw	r0, #60896	; 0xede0
    b3e4:	e285500c 	add	r5, r5, #12
    b3e8:	e3400000 	movt	r0, #0
    b3ec:	eb000bf1 	bl	e3b8 <tfp_printf>
    b3f0:	e5b41004 	ldr	r1, [r4, #4]!
    b3f4:	e1a00006 	mov	r0, r6
    b3f8:	eb000bee 	bl	e3b8 <tfp_printf>
    b3fc:	e1550004 	cmp	r5, r4
    b400:	1afffffa 	bne	b3f0 <run+0xfb4>
    b404:	e59d1068 	ldr	r1, [sp, #104]	; 0x68
    b408:	e30e0df4 	movw	r0, #60916	; 0xedf4
    b40c:	e3400000 	movt	r0, #0
    b410:	e59d206c 	ldr	r2, [sp, #108]	; 0x6c
    b414:	eb000be7 	bl	e3b8 <tfp_printf>
    b418:	e59d11e0 	ldr	r1, [sp, #480]	; 0x1e0
    b41c:	e30e0e18 	movw	r0, #60952	; 0xee18
    b420:	e3400000 	movt	r0, #0
    b424:	eb000be3 	bl	e3b8 <tfp_printf>
    b428:	eafffc1b 	b	a49c <run+0x60>
    b42c:	e30e0e94 	movw	r0, #61076	; 0xee94
    b430:	e3400000 	movt	r0, #0
    b434:	eb000bdf 	bl	e3b8 <tfp_printf>
    b438:	e59d3018 	ldr	r3, [sp, #24]
    b43c:	e59d603c 	ldr	r6, [sp, #60]	; 0x3c
    b440:	e2835020 	add	r5, r3, #32
    b444:	e2834030 	add	r4, r3, #48	; 0x30
    b448:	e4951004 	ldr	r1, [r5], #4
    b44c:	e1a00006 	mov	r0, r6
    b450:	eb000bd8 	bl	e3b8 <tfp_printf>
    b454:	e1540005 	cmp	r4, r5
    b458:	1afffffa 	bne	b448 <run+0x100c>
    b45c:	e30e0dac 	movw	r0, #60844	; 0xedac
    b460:	e3400000 	movt	r0, #0
    b464:	eb000bd3 	bl	e3b8 <tfp_printf>
    b468:	eafffe57 	b	adcc <run+0x990>
    b46c:	e58d3084 	str	r3, [sp, #132]	; 0x84
    b470:	e30e0e80 	movw	r0, #61056	; 0xee80
    b474:	e3400000 	movt	r0, #0
    b478:	e58d207c 	str	r2, [sp, #124]	; 0x7c
    b47c:	eb000bcd 	bl	e3b8 <tfp_printf>
    b480:	e58d5078 	str	r5, [sp, #120]	; 0x78
    b484:	e28d00a4 	add	r0, sp, #164	; 0xa4
    b488:	e58d4080 	str	r4, [sp, #128]	; 0x80
    b48c:	e1a01005 	mov	r1, r5
    b490:	e59d503c 	ldr	r5, [sp, #60]	; 0x3c
    b494:	e1a04000 	mov	r4, r0
    b498:	e1a00005 	mov	r0, r5
    b49c:	eb000bc5 	bl	e3b8 <tfp_printf>
    b4a0:	e28d30b0 	add	r3, sp, #176	; 0xb0
    b4a4:	e1530004 	cmp	r3, r4
    b4a8:	0a00004a 	beq	b5d8 <run+0x119c>
    b4ac:	e4941004 	ldr	r1, [r4], #4
    b4b0:	eafffff8 	b	b498 <run+0x105c>
    b4b4:	e30e0ebc 	movw	r0, #61116	; 0xeebc
    b4b8:	e28d4090 	add	r4, sp, #144	; 0x90
    b4bc:	e3400000 	movt	r0, #0
    b4c0:	eb000bbc 	bl	e3b8 <tfp_printf>
    b4c4:	e59d503c 	ldr	r5, [sp, #60]	; 0x3c
    b4c8:	e4941004 	ldr	r1, [r4], #4
    b4cc:	e1a00005 	mov	r0, r5
    b4d0:	eb000bb8 	bl	e3b8 <tfp_printf>
    b4d4:	e28d30a0 	add	r3, sp, #160	; 0xa0
    b4d8:	e1530004 	cmp	r3, r4
    b4dc:	1afffff9 	bne	b4c8 <run+0x108c>
    b4e0:	e30e0dac 	movw	r0, #60844	; 0xedac
    b4e4:	e3400000 	movt	r0, #0
    b4e8:	eb000bb2 	bl	e3b8 <tfp_printf>
    b4ec:	e5dd3091 	ldrb	r3, [sp, #145]	; 0x91
    b4f0:	e5ddc092 	ldrb	ip, [sp, #146]	; 0x92
    b4f4:	e79b3103 	ldr	r3, [fp, r3, lsl #2]
    b4f8:	e5dd0093 	ldrb	r0, [sp, #147]	; 0x93
    b4fc:	e58d3024 	str	r3, [sp, #36]	; 0x24
    b500:	e5dd3095 	ldrb	r3, [sp, #149]	; 0x95
    b504:	e5dde09a 	ldrb	lr, [sp, #154]	; 0x9a
    b508:	e79b3103 	ldr	r3, [fp, r3, lsl #2]
    b50c:	e5dd5096 	ldrb	r5, [sp, #150]	; 0x96
    b510:	e58d3028 	str	r3, [sp, #40]	; 0x28
    b514:	e5dd2097 	ldrb	r2, [sp, #151]	; 0x97
    b518:	e5dd309b 	ldrb	r3, [sp, #155]	; 0x9b
    b51c:	e5dd4099 	ldrb	r4, [sp, #153]	; 0x99
    b520:	eafffcd4 	b	a878 <run+0x43c>
    b524:	e59d101c 	ldr	r1, [sp, #28]
    b528:	e30e0e94 	movw	r0, #61076	; 0xee94
    b52c:	e3400000 	movt	r0, #0
    b530:	e58d3048 	str	r3, [sp, #72]	; 0x48
    b534:	eb000b9f 	bl	e3b8 <tfp_printf>
    b538:	e59d7018 	ldr	r7, [sp, #24]
    b53c:	e58d5034 	str	r5, [sp, #52]	; 0x34
    b540:	e59d503c 	ldr	r5, [sp, #60]	; 0x3c
    b544:	e2474010 	sub	r4, r7, #16
    b548:	e4941004 	ldr	r1, [r4], #4
    b54c:	e1a00005 	mov	r0, r5
    b550:	eb000b98 	bl	e3b8 <tfp_printf>
    b554:	e1570004 	cmp	r7, r4
    b558:	1afffffa 	bne	b548 <run+0x110c>
    b55c:	e59d3048 	ldr	r3, [sp, #72]	; 0x48
    b560:	e30e0dac 	movw	r0, #60844	; 0xedac
    b564:	e3400000 	movt	r0, #0
    b568:	e30e7e78 	movw	r7, #61048	; 0xee78
    b56c:	e59d5034 	ldr	r5, [sp, #52]	; 0x34
    b570:	e58d3034 	str	r3, [sp, #52]	; 0x34
    b574:	eb000b8f 	bl	e3b8 <tfp_printf>
    b578:	e59f4238 	ldr	r4, [pc, #568]	; b7b8 <run+0x137c>
    b57c:	e30e0ea0 	movw	r0, #61088	; 0xeea0
    b580:	e3407000 	movt	r7, #0
    b584:	e3400000 	movt	r0, #0
    b588:	eb000b8a 	bl	e3b8 <tfp_printf>
    b58c:	e1a03007 	mov	r3, r7
    b590:	e3a02003 	mov	r2, #3
    b594:	e1a07004 	mov	r7, r4
    b598:	e1a04003 	mov	r4, r3
    b59c:	ea000000 	b	b5a4 <run+0x1168>
    b5a0:	e4d72001 	ldrb	r2, [r7], #1
    b5a4:	e2823f6e 	add	r3, r2, #440	; 0x1b8
    b5a8:	e1a00004 	mov	r0, r4
    b5ac:	e08d3003 	add	r3, sp, r3
    b5b0:	e5531118 	ldrb	r1, [r3, #-280]	; 0xfffffee8
    b5b4:	eb000b7f 	bl	e3b8 <tfp_printf>
    b5b8:	e59f31fc 	ldr	r3, [pc, #508]	; b7bc <run+0x1380>
    b5bc:	e1530007 	cmp	r3, r7
    b5c0:	1afffff6 	bne	b5a0 <run+0x1164>
    b5c4:	e30e0dac 	movw	r0, #60844	; 0xedac
    b5c8:	e3400000 	movt	r0, #0
    b5cc:	eb000b79 	bl	e3b8 <tfp_printf>
    b5d0:	e59d3034 	ldr	r3, [sp, #52]	; 0x34
    b5d4:	eafffc62 	b	a764 <run+0x328>
    b5d8:	e59d3084 	ldr	r3, [sp, #132]	; 0x84
    b5dc:	e30e0dac 	movw	r0, #60844	; 0xedac
    b5e0:	e3400000 	movt	r0, #0
    b5e4:	e59d5078 	ldr	r5, [sp, #120]	; 0x78
    b5e8:	e59d4080 	ldr	r4, [sp, #128]	; 0x80
    b5ec:	e58d3078 	str	r3, [sp, #120]	; 0x78
    b5f0:	eb000b70 	bl	e3b8 <tfp_printf>
    b5f4:	e59d207c 	ldr	r2, [sp, #124]	; 0x7c
    b5f8:	e59d3078 	ldr	r3, [sp, #120]	; 0x78
    b5fc:	eafffc1d 	b	a678 <run+0x23c>
    b600:	e30e0ee8 	movw	r0, #61160	; 0xeee8
    b604:	e28d4090 	add	r4, sp, #144	; 0x90
    b608:	e3400000 	movt	r0, #0
    b60c:	eb000b69 	bl	e3b8 <tfp_printf>
    b610:	e59d503c 	ldr	r5, [sp, #60]	; 0x3c
    b614:	e4941004 	ldr	r1, [r4], #4
    b618:	e1a00005 	mov	r0, r5
    b61c:	eb000b65 	bl	e3b8 <tfp_printf>
    b620:	e28d30a0 	add	r3, sp, #160	; 0xa0
    b624:	e1530004 	cmp	r3, r4
    b628:	1afffff9 	bne	b614 <run+0x11d8>
    b62c:	e30e0dac 	movw	r0, #60844	; 0xedac
    b630:	e3400000 	movt	r0, #0
    b634:	eb000b5f 	bl	e3b8 <tfp_printf>
    b638:	e5dd309a 	ldrb	r3, [sp, #154]	; 0x9a
    b63c:	e5dd1095 	ldrb	r1, [sp, #149]	; 0x95
    b640:	e79b3103 	ldr	r3, [fp, r3, lsl #2]
    b644:	e5dd0091 	ldrb	r0, [sp, #145]	; 0x91
    b648:	e58d3028 	str	r3, [sp, #40]	; 0x28
    b64c:	e5dd3099 	ldrb	r3, [sp, #153]	; 0x99
    b650:	e5dd2093 	ldrb	r2, [sp, #147]	; 0x93
    b654:	e79a5103 	ldr	r5, [sl, r3, lsl #2]
    b658:	e5dd3096 	ldrb	r3, [sp, #150]	; 0x96
    b65c:	e7983103 	ldr	r3, [r8, r3, lsl #2]
    b660:	e58d3024 	str	r3, [sp, #36]	; 0x24
    b664:	e5dd3097 	ldrb	r3, [sp, #151]	; 0x97
    b668:	e799e103 	ldr	lr, [r9, r3, lsl #2]
    b66c:	e5dd3092 	ldrb	r3, [sp, #146]	; 0x92
    b670:	e7983103 	ldr	r3, [r8, r3, lsl #2]
    b674:	e58d3020 	str	r3, [sp, #32]
    b678:	e5dd309b 	ldrb	r3, [sp, #155]	; 0x9b
    b67c:	eafffd98 	b	ace4 <run+0x8a8>
    b680:	e30e0e94 	movw	r0, #61076	; 0xee94
    b684:	e3400000 	movt	r0, #0
    b688:	eb000b4a 	bl	e3b8 <tfp_printf>
    b68c:	e59d3018 	ldr	r3, [sp, #24]
    b690:	e58d4040 	str	r4, [sp, #64]	; 0x40
    b694:	e2836010 	add	r6, r3, #16
    b698:	e2835020 	add	r5, r3, #32
    b69c:	e1a04006 	mov	r4, r6
    b6a0:	e59d603c 	ldr	r6, [sp, #60]	; 0x3c
    b6a4:	e4941004 	ldr	r1, [r4], #4
    b6a8:	e1a00006 	mov	r0, r6
    b6ac:	eb000b41 	bl	e3b8 <tfp_printf>
    b6b0:	e1550004 	cmp	r5, r4
    b6b4:	1afffffa 	bne	b6a4 <run+0x1268>
    b6b8:	e59d4040 	ldr	r4, [sp, #64]	; 0x40
    b6bc:	e30e0dac 	movw	r0, #60844	; 0xedac
    b6c0:	e3400000 	movt	r0, #0
    b6c4:	eb000b3b 	bl	e3b8 <tfp_printf>
    b6c8:	eafffd40 	b	abd0 <run+0x794>
    b6cc:	e30e0ed4 	movw	r0, #61140	; 0xeed4
    b6d0:	e3400000 	movt	r0, #0
    b6d4:	e1cd25fc 	strd	r2, [sp, #92]	; 0x5c
    b6d8:	eb000b36 	bl	e3b8 <tfp_printf>
    b6dc:	e58d5078 	str	r5, [sp, #120]	; 0x78
    b6e0:	e28d00a4 	add	r0, sp, #164	; 0xa4
    b6e4:	e58d407c 	str	r4, [sp, #124]	; 0x7c
    b6e8:	e1a01007 	mov	r1, r7
    b6ec:	e59d503c 	ldr	r5, [sp, #60]	; 0x3c
    b6f0:	e1a04000 	mov	r4, r0
    b6f4:	e1a00005 	mov	r0, r5
    b6f8:	eb000b2e 	bl	e3b8 <tfp_printf>
    b6fc:	e28d30b0 	add	r3, sp, #176	; 0xb0
    b700:	e1530004 	cmp	r3, r4
    b704:	0a00001e 	beq	b784 <run+0x1348>
    b708:	e4941004 	ldr	r1, [r4], #4
    b70c:	eafffff8 	b	b6f4 <run+0x12b8>
    b710:	e30e0e94 	movw	r0, #61076	; 0xee94
    b714:	e3400000 	movt	r0, #0
    b718:	eb000b26 	bl	e3b8 <tfp_printf>
    b71c:	e59d3018 	ldr	r3, [sp, #24]
    b720:	e59d603c 	ldr	r6, [sp, #60]	; 0x3c
    b724:	e1a05003 	mov	r5, r3
    b728:	e2834010 	add	r4, r3, #16
    b72c:	e4951004 	ldr	r1, [r5], #4
    b730:	e1a00006 	mov	r0, r6
    b734:	eb000b1f 	bl	e3b8 <tfp_printf>
    b738:	e1540005 	cmp	r4, r5
    b73c:	1afffffa 	bne	b72c <run+0x12f0>
    b740:	e30e0dac 	movw	r0, #60844	; 0xedac
    b744:	e3400000 	movt	r0, #0
    b748:	eb000b1a 	bl	e3b8 <tfp_printf>
    b74c:	e5dd309f 	ldrb	r3, [sp, #159]	; 0x9f
    b750:	e5dd509e 	ldrb	r5, [sp, #158]	; 0x9e
    b754:	e7983103 	ldr	r3, [r8, r3, lsl #2]
    b758:	e5dd709d 	ldrb	r7, [sp, #157]	; 0x9d
    b75c:	e58d302c 	str	r3, [sp, #44]	; 0x2c
    b760:	e5dd309b 	ldrb	r3, [sp, #155]	; 0x9b
    b764:	e5dd4099 	ldrb	r4, [sp, #153]	; 0x99
    b768:	e798c103 	ldr	ip, [r8, r3, lsl #2]
    b76c:	e5dd309c 	ldrb	r3, [sp, #156]	; 0x9c
    b770:	e5dde09a 	ldrb	lr, [sp, #154]	; 0x9a
    b774:	e58d3030 	str	r3, [sp, #48]	; 0x30
    b778:	e5dd3098 	ldrb	r3, [sp, #152]	; 0x98
    b77c:	e58d3020 	str	r3, [sp, #32]
    b780:	eafffc80 	b	a988 <run+0x54c>
    b784:	e59d205c 	ldr	r2, [sp, #92]	; 0x5c
    b788:	e30e0dac 	movw	r0, #60844	; 0xedac
    b78c:	e59d3060 	ldr	r3, [sp, #96]	; 0x60
    b790:	e3400000 	movt	r0, #0
    b794:	e58d2080 	str	r2, [sp, #128]	; 0x80
    b798:	e58d305c 	str	r3, [sp, #92]	; 0x5c
    b79c:	e59d5078 	ldr	r5, [sp, #120]	; 0x78
    b7a0:	e59d407c 	ldr	r4, [sp, #124]	; 0x7c
    b7a4:	eb000b03 	bl	e3b8 <tfp_printf>
    b7a8:	e59d2080 	ldr	r2, [sp, #128]	; 0x80
    b7ac:	e59d305c 	ldr	r3, [sp, #92]	; 0x5c
    b7b0:	eafffcc2 	b	aac0 <run+0x684>
    b7b4:	0000f141 	.word	0x0000f141
    b7b8:	0000f139 	.word	0x0000f139
    b7bc:	0000f140 	.word	0x0000f140

0000b7c0 <cipher_block_cpy>:
    b7c0:	e3520008 	cmp	r2, #8
    b7c4:	e92d4ff0 	push	{r4, r5, r6, r7, r8, r9, sl, fp, lr}
    b7c8:	e24dd00c 	sub	sp, sp, #12
    b7cc:	0a000034 	beq	b8a4 <cipher_block_cpy+0xe4>
    b7d0:	e3510000 	cmp	r1, #0
    b7d4:	0a000047 	beq	b8f8 <cipher_block_cpy+0x138>
    b7d8:	e5d13000 	ldrb	r3, [r1]
    b7dc:	e5d14001 	ldrb	r4, [r1, #1]
    b7e0:	e5d15002 	ldrb	r5, [r1, #2]
    b7e4:	e5d16003 	ldrb	r6, [r1, #3]
    b7e8:	e58d3004 	str	r3, [sp, #4]
    b7ec:	e6ef6076 	uxtb	r6, r6
    b7f0:	e5d18004 	ldrb	r8, [r1, #4]
    b7f4:	e5d19005 	ldrb	r9, [r1, #5]
    b7f8:	e5d1a006 	ldrb	sl, [r1, #6]
    b7fc:	e5d1b007 	ldrb	fp, [r1, #7]
    b800:	e5d12008 	ldrb	r2, [r1, #8]
    b804:	e5d1c009 	ldrb	ip, [r1, #9]
    b808:	e5d1300a 	ldrb	r3, [r1, #10]
    b80c:	e5d1e00b 	ldrb	lr, [r1, #11]
    b810:	e1a03803 	lsl	r3, r3, #16
    b814:	e1833c0e 	orr	r3, r3, lr, lsl #24
    b818:	e5d1700c 	ldrb	r7, [r1, #12]
    b81c:	e1833002 	orr	r3, r3, r2
    b820:	e5d1e00d 	ldrb	lr, [r1, #13]
    b824:	e5d1200e 	ldrb	r2, [r1, #14]
    b828:	e5d1100f 	ldrb	r1, [r1, #15]
    b82c:	e1a02802 	lsl	r2, r2, #16
    b830:	e1821c01 	orr	r1, r2, r1, lsl #24
    b834:	e1817007 	orr	r7, r1, r7
    b838:	e187e40e 	orr	lr, r7, lr, lsl #8
    b83c:	e183c40c 	orr	ip, r3, ip, lsl #8
    b840:	e1a02c27 	lsr	r2, r7, #24
    b844:	e5c04001 	strb	r4, [r0, #1]
    b848:	e5c0200f 	strb	r2, [r0, #15]
    b84c:	e59d4004 	ldr	r4, [sp, #4]
    b850:	e1a0242e 	lsr	r2, lr, #8
    b854:	e1a07827 	lsr	r7, r7, #16
    b858:	e5c0c008 	strb	ip, [r0, #8]
    b85c:	e5c0200d 	strb	r2, [r0, #13]
    b860:	e1a0c42c 	lsr	ip, ip, #8
    b864:	e1a02c23 	lsr	r2, r3, #24
    b868:	e1a03823 	lsr	r3, r3, #16
    b86c:	e5c06003 	strb	r6, [r0, #3]
    b870:	e5c05002 	strb	r5, [r0, #2]
    b874:	e5c04000 	strb	r4, [r0]
    b878:	e5c0b007 	strb	fp, [r0, #7]
    b87c:	e5c0a006 	strb	sl, [r0, #6]
    b880:	e5c09005 	strb	r9, [r0, #5]
    b884:	e5c08004 	strb	r8, [r0, #4]
    b888:	e5c0c009 	strb	ip, [r0, #9]
    b88c:	e5c0700e 	strb	r7, [r0, #14]
    b890:	e5c0e00c 	strb	lr, [r0, #12]
    b894:	e5c0200b 	strb	r2, [r0, #11]
    b898:	e5c0300a 	strb	r3, [r0, #10]
    b89c:	e28dd00c 	add	sp, sp, #12
    b8a0:	e8bd8ff0 	pop	{r4, r5, r6, r7, r8, r9, sl, fp, pc}
    b8a4:	e3510000 	cmp	r1, #0
    b8a8:	0a000017 	beq	b90c <cipher_block_cpy+0x14c>
    b8ac:	e5d13000 	ldrb	r3, [r1]
    b8b0:	e5d12001 	ldrb	r2, [r1, #1]
    b8b4:	e5d1c002 	ldrb	ip, [r1, #2]
    b8b8:	e5d1e003 	ldrb	lr, [r1, #3]
    b8bc:	e6efe07e 	uxtb	lr, lr
    b8c0:	e5d14004 	ldrb	r4, [r1, #4]
    b8c4:	e5d15005 	ldrb	r5, [r1, #5]
    b8c8:	e5d16006 	ldrb	r6, [r1, #6]
    b8cc:	e5d11007 	ldrb	r1, [r1, #7]
    b8d0:	e5c0e003 	strb	lr, [r0, #3]
    b8d4:	e5c0c002 	strb	ip, [r0, #2]
    b8d8:	e5c02001 	strb	r2, [r0, #1]
    b8dc:	e5c03000 	strb	r3, [r0]
    b8e0:	e5c01007 	strb	r1, [r0, #7]
    b8e4:	e5c06006 	strb	r6, [r0, #6]
    b8e8:	e5c05005 	strb	r5, [r0, #5]
    b8ec:	e5c04004 	strb	r4, [r0, #4]
    b8f0:	e28dd00c 	add	sp, sp, #12
    b8f4:	e8bd8ff0 	pop	{r4, r5, r6, r7, r8, r9, sl, fp, pc}
    b8f8:	e58d1004 	str	r1, [sp, #4]
    b8fc:	e1a04001 	mov	r4, r1
    b900:	e1a05001 	mov	r5, r1
    b904:	e1a06001 	mov	r6, r1
    b908:	eaffffb8 	b	b7f0 <cipher_block_cpy+0x30>
    b90c:	e1a03001 	mov	r3, r1
    b910:	e1a02001 	mov	r2, r1
    b914:	e1a0c001 	mov	ip, r1
    b918:	e1a0e001 	mov	lr, r1
    b91c:	eaffffe7 	b	b8c0 <cipher_block_cpy+0x100>

0000b920 <cipher_block_xor_n_copy_2>:
    b920:	e92d4ff0 	push	{r4, r5, r6, r7, r8, r9, sl, fp, lr}
    b924:	e1a0e000 	mov	lr, r0
    b928:	e59dc024 	ldr	ip, [sp, #36]	; 0x24
    b92c:	e35c0008 	cmp	ip, #8
    b930:	e1a0c003 	mov	ip, r3
    b934:	12838010 	addne	r8, r3, #16
    b938:	0a00002e 	beq	b9f8 <cipher_block_xor_n_copy_2+0xd8>
    b93c:	e35c0000 	cmp	ip, #0
    b940:	01a0400c 	moveq	r4, ip
    b944:	01a0500c 	moveq	r5, ip
    b948:	15dc4000 	ldrbne	r4, [ip]
    b94c:	01a0600c 	moveq	r6, ip
    b950:	15dc5001 	ldrbne	r5, [ip, #1]
    b954:	01a0700c 	moveq	r7, ip
    b958:	15dc6002 	ldrbne	r6, [ip, #2]
    b95c:	e28cc004 	add	ip, ip, #4
    b960:	155c7001 	ldrbne	r7, [ip, #-1]
    b964:	16ef7077 	uxtbne	r7, r7
    b968:	e3520000 	cmp	r2, #0
    b96c:	01a03002 	moveq	r3, r2
    b970:	15d29000 	ldrbne	r9, [r2]
    b974:	15d20001 	ldrbne	r0, [r2, #1]
    b978:	15d23002 	ldrbne	r3, [r2, #2]
    b97c:	15d2a003 	ldrbne	sl, [r2, #3]
    b980:	11a03803 	lslne	r3, r3, #16
    b984:	11833c0a 	orrne	r3, r3, sl, lsl #24
    b988:	11833009 	orrne	r3, r3, r9
    b98c:	11833400 	orrne	r3, r3, r0, lsl #8
    b990:	e3510000 	cmp	r1, #0
    b994:	0a000008 	beq	b9bc <cipher_block_xor_n_copy_2+0x9c>
    b998:	e5d1a000 	ldrb	sl, [r1]
    b99c:	e5d19001 	ldrb	r9, [r1, #1]
    b9a0:	e5d10002 	ldrb	r0, [r1, #2]
    b9a4:	e5d1b003 	ldrb	fp, [r1, #3]
    b9a8:	e1a00800 	lsl	r0, r0, #16
    b9ac:	e1800c0b 	orr	r0, r0, fp, lsl #24
    b9b0:	e180000a 	orr	r0, r0, sl
    b9b4:	e1800409 	orr	r0, r0, r9, lsl #8
    b9b8:	e0233000 	eor	r3, r3, r0
    b9bc:	e1a00823 	lsr	r0, r3, #16
    b9c0:	e2811004 	add	r1, r1, #4
    b9c4:	e158000c 	cmp	r8, ip
    b9c8:	e5ce0002 	strb	r0, [lr, #2]
    b9cc:	e1a09c23 	lsr	r9, r3, #24
    b9d0:	e1a00423 	lsr	r0, r3, #8
    b9d4:	e5ce9003 	strb	r9, [lr, #3]
    b9d8:	e5ce0001 	strb	r0, [lr, #1]
    b9dc:	e4ce3004 	strb	r3, [lr], #4
    b9e0:	e5c27003 	strb	r7, [r2, #3]
    b9e4:	e5c26002 	strb	r6, [r2, #2]
    b9e8:	e5c25001 	strb	r5, [r2, #1]
    b9ec:	e4c24004 	strb	r4, [r2], #4
    b9f0:	1affffd1 	bne	b93c <cipher_block_xor_n_copy_2+0x1c>
    b9f4:	e8bd8ff0 	pop	{r4, r5, r6, r7, r8, r9, sl, fp, pc}
    b9f8:	e3530000 	cmp	r3, #0
    b9fc:	0a00004c 	beq	bb34 <cipher_block_xor_n_copy_2+0x214>
    ba00:	e5d36000 	ldrb	r6, [r3]
    ba04:	e5d35001 	ldrb	r5, [r3, #1]
    ba08:	e5d34002 	ldrb	r4, [r3, #2]
    ba0c:	e5d30003 	ldrb	r0, [r3, #3]
    ba10:	e6ef0070 	uxtb	r0, r0
    ba14:	e5dc8004 	ldrb	r8, [ip, #4]
    ba18:	e3520000 	cmp	r2, #0
    ba1c:	e5dc7005 	ldrb	r7, [ip, #5]
    ba20:	e5dc3006 	ldrb	r3, [ip, #6]
    ba24:	e5dc9007 	ldrb	r9, [ip, #7]
    ba28:	e1a0c803 	lsl	ip, r3, #16
    ba2c:	e18ccc09 	orr	ip, ip, r9, lsl #24
    ba30:	e18cc008 	orr	ip, ip, r8
    ba34:	e18cc407 	orr	ip, ip, r7, lsl #8
    ba38:	0a000042 	beq	bb48 <cipher_block_xor_n_copy_2+0x228>
    ba3c:	e5d28000 	ldrb	r8, [r2]
    ba40:	e5d23001 	ldrb	r3, [r2, #1]
    ba44:	e5d27002 	ldrb	r7, [r2, #2]
    ba48:	e5d29003 	ldrb	r9, [r2, #3]
    ba4c:	e1a07807 	lsl	r7, r7, #16
    ba50:	e1877c09 	orr	r7, r7, r9, lsl #24
    ba54:	e1877008 	orr	r7, r7, r8
    ba58:	e1877403 	orr	r7, r7, r3, lsl #8
    ba5c:	e5d29004 	ldrb	r9, [r2, #4]
    ba60:	e3510000 	cmp	r1, #0
    ba64:	e5d28005 	ldrb	r8, [r2, #5]
    ba68:	e5d23006 	ldrb	r3, [r2, #6]
    ba6c:	e5d2a007 	ldrb	sl, [r2, #7]
    ba70:	e1a03803 	lsl	r3, r3, #16
    ba74:	e1833c0a 	orr	r3, r3, sl, lsl #24
    ba78:	e1833009 	orr	r3, r3, r9
    ba7c:	e1838408 	orr	r8, r3, r8, lsl #8
    ba80:	0a000008 	beq	baa8 <cipher_block_xor_n_copy_2+0x188>
    ba84:	e5d1a000 	ldrb	sl, [r1]
    ba88:	e5d19001 	ldrb	r9, [r1, #1]
    ba8c:	e5d13002 	ldrb	r3, [r1, #2]
    ba90:	e5d1b003 	ldrb	fp, [r1, #3]
    ba94:	e1a03803 	lsl	r3, r3, #16
    ba98:	e1833c0b 	orr	r3, r3, fp, lsl #24
    ba9c:	e183300a 	orr	r3, r3, sl
    baa0:	e1833409 	orr	r3, r3, r9, lsl #8
    baa4:	e0277003 	eor	r7, r7, r3
    baa8:	e5d1a004 	ldrb	sl, [r1, #4]
    baac:	e5d19005 	ldrb	r9, [r1, #5]
    bab0:	e5d13006 	ldrb	r3, [r1, #6]
    bab4:	e5d11007 	ldrb	r1, [r1, #7]
    bab8:	e1a03803 	lsl	r3, r3, #16
    babc:	e1833c01 	orr	r3, r3, r1, lsl #24
    bac0:	e183300a 	orr	r3, r3, sl
    bac4:	e1833409 	orr	r3, r3, r9, lsl #8
    bac8:	e0233008 	eor	r3, r3, r8
    bacc:	e1a01c27 	lsr	r1, r7, #24
    bad0:	e5ce1003 	strb	r1, [lr, #3]
    bad4:	e1a01827 	lsr	r1, r7, #16
    bad8:	e5ce1002 	strb	r1, [lr, #2]
    badc:	e1a01c23 	lsr	r1, r3, #24
    bae0:	e5ce7000 	strb	r7, [lr]
    bae4:	e5ce3004 	strb	r3, [lr, #4]
    bae8:	e5ce1007 	strb	r1, [lr, #7]
    baec:	e1a07427 	lsr	r7, r7, #8
    baf0:	e1a01823 	lsr	r1, r3, #16
    baf4:	e1a03423 	lsr	r3, r3, #8
    baf8:	e5ce1006 	strb	r1, [lr, #6]
    bafc:	e5ce3005 	strb	r3, [lr, #5]
    bb00:	e5ce7001 	strb	r7, [lr, #1]
    bb04:	e1a0182c 	lsr	r1, ip, #16
    bb08:	e1a0342c 	lsr	r3, ip, #8
    bb0c:	e5c20003 	strb	r0, [r2, #3]
    bb10:	e1a00c2c 	lsr	r0, ip, #24
    bb14:	e5c24002 	strb	r4, [r2, #2]
    bb18:	e5c25001 	strb	r5, [r2, #1]
    bb1c:	e5c26000 	strb	r6, [r2]
    bb20:	e5c20007 	strb	r0, [r2, #7]
    bb24:	e5c21006 	strb	r1, [r2, #6]
    bb28:	e5c23005 	strb	r3, [r2, #5]
    bb2c:	e5c2c004 	strb	ip, [r2, #4]
    bb30:	e8bd8ff0 	pop	{r4, r5, r6, r7, r8, r9, sl, fp, pc}
    bb34:	e1a06003 	mov	r6, r3
    bb38:	e1a05003 	mov	r5, r3
    bb3c:	e1a04003 	mov	r4, r3
    bb40:	e1a00003 	mov	r0, r3
    bb44:	eaffffb2 	b	ba14 <cipher_block_xor_n_copy_2+0xf4>
    bb48:	e1a07002 	mov	r7, r2
    bb4c:	eaffffc2 	b	ba5c <cipher_block_xor_n_copy_2+0x13c>

0000bb50 <buf_xor_n_copy_2>:
    bb50:	e92d4ff0 	push	{r4, r5, r6, r7, r8, r9, sl, fp, lr}
    bb54:	e24dd01c 	sub	sp, sp, #28
    bb58:	e59dc040 	ldr	ip, [sp, #64]	; 0x40
    bb5c:	e98d000a 	stmib	sp, {r1, r3}
    bb60:	e35c0003 	cmp	ip, #3
    bb64:	9a000056 	bls	bcc4 <buf_xor_n_copy_2+0x174>
    bb68:	e58d0010 	str	r0, [sp, #16]
    bb6c:	e1a0c003 	mov	ip, r3
    bb70:	e59d3040 	ldr	r3, [sp, #64]	; 0x40
    bb74:	e2804004 	add	r4, r0, #4
    bb78:	e1a0e001 	mov	lr, r1
    bb7c:	e2433004 	sub	r3, r3, #4
    bb80:	e3c33003 	bic	r3, r3, #3
    bb84:	e2833004 	add	r3, r3, #4
    bb88:	e082b003 	add	fp, r2, r3
    bb8c:	e58d300c 	str	r3, [sp, #12]
    bb90:	e58db014 	str	fp, [sp, #20]
    bb94:	e35c0000 	cmp	ip, #0
    bb98:	01a0000c 	moveq	r0, ip
    bb9c:	01a0500c 	moveq	r5, ip
    bba0:	15dc0000 	ldrbne	r0, [ip]
    bba4:	01a0600c 	moveq	r6, ip
    bba8:	15dc5001 	ldrbne	r5, [ip, #1]
    bbac:	01a0700c 	moveq	r7, ip
    bbb0:	15dc6002 	ldrbne	r6, [ip, #2]
    bbb4:	e28cc004 	add	ip, ip, #4
    bbb8:	155c7001 	ldrbne	r7, [ip, #-1]
    bbbc:	16ef7077 	uxtbne	r7, r7
    bbc0:	e3520000 	cmp	r2, #0
    bbc4:	01a03002 	moveq	r3, r2
    bbc8:	15d28000 	ldrbne	r8, [r2]
    bbcc:	15d21001 	ldrbne	r1, [r2, #1]
    bbd0:	15d23002 	ldrbne	r3, [r2, #2]
    bbd4:	15d29003 	ldrbne	r9, [r2, #3]
    bbd8:	11a03803 	lslne	r3, r3, #16
    bbdc:	11833c09 	orrne	r3, r3, r9, lsl #24
    bbe0:	11833008 	orrne	r3, r3, r8
    bbe4:	11833401 	orrne	r3, r3, r1, lsl #8
    bbe8:	e35e0000 	cmp	lr, #0
    bbec:	0a000008 	beq	bc14 <buf_xor_n_copy_2+0xc4>
    bbf0:	e5de9000 	ldrb	r9, [lr]
    bbf4:	e5de8001 	ldrb	r8, [lr, #1]
    bbf8:	e5de1002 	ldrb	r1, [lr, #2]
    bbfc:	e5dea003 	ldrb	sl, [lr, #3]
    bc00:	e1a01801 	lsl	r1, r1, #16
    bc04:	e181ac0a 	orr	sl, r1, sl, lsl #24
    bc08:	e18a9009 	orr	r9, sl, r9
    bc0c:	e1898408 	orr	r8, r9, r8, lsl #8
    bc10:	e0233008 	eor	r3, r3, r8
    bc14:	e5443004 	strb	r3, [r4, #-4]
    bc18:	e28ee004 	add	lr, lr, #4
    bc1c:	e1a08c23 	lsr	r8, r3, #24
    bc20:	e2844004 	add	r4, r4, #4
    bc24:	e1a01823 	lsr	r1, r3, #16
    bc28:	e1a03423 	lsr	r3, r3, #8
    bc2c:	e5448005 	strb	r8, [r4, #-5]
    bc30:	e5441006 	strb	r1, [r4, #-6]
    bc34:	e5443007 	strb	r3, [r4, #-7]
    bc38:	e5c27003 	strb	r7, [r2, #3]
    bc3c:	e5c26002 	strb	r6, [r2, #2]
    bc40:	e5c25001 	strb	r5, [r2, #1]
    bc44:	e4c20004 	strb	r0, [r2], #4
    bc48:	e152000b 	cmp	r2, fp
    bc4c:	1affffd0 	bne	bb94 <buf_xor_n_copy_2+0x44>
    bc50:	e59d2040 	ldr	r2, [sp, #64]	; 0x40
    bc54:	e59d300c 	ldr	r3, [sp, #12]
    bc58:	e59d0010 	ldr	r0, [sp, #16]
    bc5c:	e2022003 	and	r2, r2, #3
    bc60:	e58d2040 	str	r2, [sp, #64]	; 0x40
    bc64:	e59d2004 	ldr	r2, [sp, #4]
    bc68:	e0800003 	add	r0, r0, r3
    bc6c:	e0822003 	add	r2, r2, r3
    bc70:	e58d2004 	str	r2, [sp, #4]
    bc74:	e59d2008 	ldr	r2, [sp, #8]
    bc78:	e0823003 	add	r3, r2, r3
    bc7c:	e58d3008 	str	r3, [sp, #8]
    bc80:	e59d3040 	ldr	r3, [sp, #64]	; 0x40
    bc84:	e3530000 	cmp	r3, #0
    bc88:	0a00000b 	beq	bcbc <buf_xor_n_copy_2+0x16c>
    bc8c:	e0801003 	add	r1, r0, r3
    bc90:	e59d3014 	ldr	r3, [sp, #20]
    bc94:	e99d5000 	ldmib	sp, {ip, lr}
    bc98:	e2433001 	sub	r3, r3, #1
    bc9c:	e5f32001 	ldrb	r2, [r3, #1]!
    bca0:	e4dc5001 	ldrb	r5, [ip], #1
    bca4:	e4de4001 	ldrb	r4, [lr], #1
    bca8:	e0222005 	eor	r2, r2, r5
    bcac:	e4c02001 	strb	r2, [r0], #1
    bcb0:	e1500001 	cmp	r0, r1
    bcb4:	e5c34000 	strb	r4, [r3]
    bcb8:	1afffff7 	bne	bc9c <buf_xor_n_copy_2+0x14c>
    bcbc:	e28dd01c 	add	sp, sp, #28
    bcc0:	e8bd8ff0 	pop	{r4, r5, r6, r7, r8, r9, sl, fp, pc}
    bcc4:	e58d2014 	str	r2, [sp, #20]
    bcc8:	eaffffec 	b	bc80 <buf_xor_n_copy_2+0x130>

0000bccc <_gcry_cipher_setkey>:
    bccc:	e2802030 	add	r2, r0, #48	; 0x30
    bcd0:	e2800040 	add	r0, r0, #64	; 0x40
    bcd4:	e92d4010 	push	{r4, lr}
    bcd8:	e2811004 	add	r1, r1, #4
    bcdc:	e5513003 	ldrb	r3, [r1, #-3]
    bce0:	e5514004 	ldrb	r4, [r1, #-4]
    bce4:	e551e002 	ldrb	lr, [r1, #-2]
    bce8:	e1a03803 	lsl	r3, r3, #16
    bcec:	e551c001 	ldrb	ip, [r1, #-1]
    bcf0:	e0833c04 	add	r3, r3, r4, lsl #24
    bcf4:	e083340e 	add	r3, r3, lr, lsl #8
    bcf8:	e083300c 	add	r3, r3, ip
    bcfc:	e4823004 	str	r3, [r2], #4
    bd00:	e1500002 	cmp	r0, r2
    bd04:	1afffff3 	bne	bcd8 <_gcry_cipher_setkey+0xc>
    bd08:	e3a00000 	mov	r0, #0
    bd0c:	e8bd8010 	pop	{r4, pc}

0000bd10 <_gcry_cipher_setiv>:
    bd10:	e3510000 	cmp	r1, #0
    bd14:	e3a0c000 	mov	ip, #0
    bd18:	e92d4010 	push	{r4, lr}
    bd1c:	e580c020 	str	ip, [r0, #32]
    bd20:	0a000002 	beq	bd30 <_gcry_cipher_setiv+0x20>
    bd24:	eb0002c4 	bl	c83c <memcpy>
    bd28:	e3a00000 	mov	r0, #0
    bd2c:	e8bd8010 	pop	{r4, pc}
    bd30:	eb0002b8 	bl	c818 <memset>
    bd34:	e3a00000 	mov	r0, #0
    bd38:	e8bd8010 	pop	{r4, pc}

0000bd3c <cipher_sync>:
    bd3c:	e5902020 	ldr	r2, [r0, #32]
    bd40:	e3520000 	cmp	r2, #0
    bd44:	012fff1e 	bxeq	lr
    bd48:	e92d4010 	push	{r4, lr}
    bd4c:	e1a04000 	mov	r4, r0
    bd50:	e0800002 	add	r0, r0, r2
    bd54:	e1a01004 	mov	r1, r4
    bd58:	e2622008 	rsb	r2, r2, #8
    bd5c:	eb0002bf 	bl	c860 <memmove>
    bd60:	e5942020 	ldr	r2, [r4, #32]
    bd64:	e1a00004 	mov	r0, r4
    bd68:	e0441002 	sub	r1, r4, r2
    bd6c:	e2811018 	add	r1, r1, #24
    bd70:	eb0002b1 	bl	c83c <memcpy>
    bd74:	e3a03000 	mov	r3, #0
    bd78:	e5843020 	str	r3, [r4, #32]
    bd7c:	e8bd8010 	pop	{r4, pc}

0000bd80 <_gcry_cipher_cfb_decrypt>:
    bd80:	e92d4ff0 	push	{r4, r5, r6, r7, r8, r9, sl, fp, lr}
    bd84:	e24dd054 	sub	sp, sp, #84	; 0x54
    bd88:	e59dc078 	ldr	ip, [sp, #120]	; 0x78
    bd8c:	e58d101c 	str	r1, [sp, #28]
    bd90:	e152000c 	cmp	r2, ip
    bd94:	e58d3020 	str	r3, [sp, #32]
    bd98:	33e00000 	mvncc	r0, #0
    bd9c:	3a000056 	bcc	befc <_gcry_cipher_cfb_decrypt+0x17c>
    bda0:	e5902020 	ldr	r2, [r0, #32]
    bda4:	e1a06000 	mov	r6, r0
    bda8:	e152000c 	cmp	r2, ip
    bdac:	2a0001b9 	bcs	c498 <_gcry_cipher_cfb_decrypt+0x718>
    bdb0:	e3520000 	cmp	r2, #0
    bdb4:	1a000052 	bne	bf04 <_gcry_cipher_cfb_decrypt+0x184>
    bdb8:	e59d3078 	ldr	r3, [sp, #120]	; 0x78
    bdbc:	e353000f 	cmp	r3, #15
    bdc0:	8a000064 	bhi	bf58 <_gcry_cipher_cfb_decrypt+0x1d8>
    bdc4:	e59d3078 	ldr	r3, [sp, #120]	; 0x78
    bdc8:	e3530007 	cmp	r3, #7
    bdcc:	9a000046 	bls	beec <_gcry_cipher_cfb_decrypt+0x16c>
    bdd0:	e3a02008 	mov	r2, #8
    bdd4:	e2860010 	add	r0, r6, #16
    bdd8:	e1a01006 	mov	r1, r6
    bddc:	ebfffe77 	bl	b7c0 <cipher_block_cpy>
    bde0:	e3a00000 	mov	r0, #0
    bde4:	e1a02006 	mov	r2, r6
    bde8:	e3a03001 	mov	r3, #1
    bdec:	e1a0c000 	mov	ip, r0
    bdf0:	ea000001 	b	bdfc <_gcry_cipher_cfb_decrypt+0x7c>
    bdf4:	e2833001 	add	r3, r3, #1
    bdf8:	e2822001 	add	r2, r2, #1
    bdfc:	e2431001 	sub	r1, r3, #1
    be00:	e3510003 	cmp	r1, #3
    be04:	e5d21000 	ldrb	r1, [r2]
    be08:	9181c40c 	orrls	ip, r1, ip, lsl #8
    be0c:	9afffff8 	bls	bdf4 <_gcry_cipher_cfb_decrypt+0x74>
    be10:	e1810400 	orr	r0, r1, r0, lsl #8
    be14:	e3530008 	cmp	r3, #8
    be18:	1afffff5 	bne	bdf4 <_gcry_cipher_cfb_decrypt+0x74>
    be1c:	e58d0034 	str	r0, [sp, #52]	; 0x34
    be20:	e3a03000 	mov	r3, #0
    be24:	e58d3004 	str	r3, [sp, #4]
    be28:	e2861030 	add	r1, r6, #48	; 0x30
    be2c:	e58d3000 	str	r3, [sp]
    be30:	e28d3030 	add	r3, sp, #48	; 0x30
    be34:	e58dc030 	str	ip, [sp, #48]	; 0x30
    be38:	e28d0038 	add	r0, sp, #56	; 0x38
    be3c:	e893000c 	ldm	r3, {r2, r3}
    be40:	e1a04006 	mov	r4, r6
    be44:	ebfff97c 	bl	a43c <run>
    be48:	e59d303c 	ldr	r3, [sp, #60]	; 0x3c
    be4c:	e30f5134 	movw	r5, #61748	; 0xf134
    be50:	e59d1038 	ldr	r1, [sp, #56]	; 0x38
    be54:	e2867008 	add	r7, r6, #8
    be58:	e1a02423 	lsr	r2, r3, #8
    be5c:	e5c63007 	strb	r3, [r6, #7]
    be60:	e5c62006 	strb	r2, [r6, #6]
    be64:	e1a02823 	lsr	r2, r3, #16
    be68:	e1a03c23 	lsr	r3, r3, #24
    be6c:	e5c63004 	strb	r3, [r6, #4]
    be70:	e1a03421 	lsr	r3, r1, #8
    be74:	e5c61003 	strb	r1, [r6, #3]
    be78:	e5c63002 	strb	r3, [r6, #2]
    be7c:	e1a03821 	lsr	r3, r1, #16
    be80:	e1a01c21 	lsr	r1, r1, #24
    be84:	e5c62005 	strb	r2, [r6, #5]
    be88:	e5c63001 	strb	r3, [r6, #1]
    be8c:	e3405000 	movt	r5, #0
    be90:	e4c41001 	strb	r1, [r4], #1
    be94:	ea000000 	b	be9c <_gcry_cipher_cfb_decrypt+0x11c>
    be98:	e4d41001 	ldrb	r1, [r4], #1
    be9c:	e1a00005 	mov	r0, r5
    bea0:	eb000944 	bl	e3b8 <tfp_printf>
    bea4:	e1570004 	cmp	r7, r4
    bea8:	1afffffa 	bne	be98 <_gcry_cipher_cfb_decrypt+0x118>
    beac:	e59d2078 	ldr	r2, [sp, #120]	; 0x78
    beb0:	e3a03008 	mov	r3, #8
    beb4:	e58d3000 	str	r3, [sp]
    beb8:	e2422008 	sub	r2, r2, #8
    bebc:	e58d2078 	str	r2, [sp, #120]	; 0x78
    bec0:	e59d2020 	ldr	r2, [sp, #32]
    bec4:	e1a03002 	mov	r3, r2
    bec8:	e1a01002 	mov	r1, r2
    becc:	e2822008 	add	r2, r2, #8
    bed0:	e58d2020 	str	r2, [sp, #32]
    bed4:	e59d201c 	ldr	r2, [sp, #28]
    bed8:	e1a00002 	mov	r0, r2
    bedc:	e2822008 	add	r2, r2, #8
    bee0:	e58d201c 	str	r2, [sp, #28]
    bee4:	e1a02006 	mov	r2, r6
    bee8:	ebfffe8c 	bl	b920 <cipher_block_xor_n_copy_2>
    beec:	e59d3078 	ldr	r3, [sp, #120]	; 0x78
    bef0:	e3530000 	cmp	r3, #0
    bef4:	1a00010e 	bne	c334 <_gcry_cipher_cfb_decrypt+0x5b4>
    bef8:	e3a00000 	mov	r0, #0
    befc:	e28dd054 	add	sp, sp, #84	; 0x54
    bf00:	e8bd8ff0 	pop	{r4, r5, r6, r7, r8, r9, sl, fp, pc}
    bf04:	e59d1078 	ldr	r1, [sp, #120]	; 0x78
    bf08:	e59d5020 	ldr	r5, [sp, #32]
    bf0c:	e59d401c 	ldr	r4, [sp, #28]
    bf10:	e0411002 	sub	r1, r1, r2
    bf14:	e58d2000 	str	r2, [sp]
    bf18:	e2622008 	rsb	r2, r2, #8
    bf1c:	e0802002 	add	r2, r0, r2
    bf20:	e1a00004 	mov	r0, r4
    bf24:	e58d1078 	str	r1, [sp, #120]	; 0x78
    bf28:	e1a01005 	mov	r1, r5
    bf2c:	ebffff07 	bl	bb50 <buf_xor_n_copy_2>
    bf30:	e5963020 	ldr	r3, [r6, #32]
    bf34:	e0842003 	add	r2, r4, r3
    bf38:	e0853003 	add	r3, r5, r3
    bf3c:	e58d3020 	str	r3, [sp, #32]
    bf40:	e3a03000 	mov	r3, #0
    bf44:	e5863020 	str	r3, [r6, #32]
    bf48:	e59d3078 	ldr	r3, [sp, #120]	; 0x78
    bf4c:	e58d201c 	str	r2, [sp, #28]
    bf50:	e353000f 	cmp	r3, #15
    bf54:	9affff9a 	bls	bdc4 <_gcry_cipher_cfb_decrypt+0x44>
    bf58:	e1a031a3 	lsr	r3, r3, #3
    bf5c:	e58d300c 	str	r3, [sp, #12]
    bf60:	e3530002 	cmp	r3, #2
    bf64:	e2863030 	add	r3, r6, #48	; 0x30
    bf68:	e58d3024 	str	r3, [sp, #36]	; 0x24
    bf6c:	0a000156 	beq	c4cc <_gcry_cipher_cfb_decrypt+0x74c>
    bf70:	e59d3020 	ldr	r3, [sp, #32]
    bf74:	e28da030 	add	sl, sp, #48	; 0x30
    bf78:	e3a09000 	mov	r9, #0
    bf7c:	e2838018 	add	r8, r3, #24
    bf80:	e59d301c 	ldr	r3, [sp, #28]
    bf84:	e2837017 	add	r7, r3, #23
    bf88:	e3a03001 	mov	r3, #1
    bf8c:	e58d3014 	str	r3, [sp, #20]
    bf90:	e28d3038 	add	r3, sp, #56	; 0x38
    bf94:	e58d3010 	str	r3, [sp, #16]
    bf98:	e28d3028 	add	r3, sp, #40	; 0x28
    bf9c:	e58d3008 	str	r3, [sp, #8]
    bfa0:	e5d63000 	ldrb	r3, [r6]
    bfa4:	e2484018 	sub	r4, r8, #24
    bfa8:	e5cd3038 	strb	r3, [sp, #56]	; 0x38
    bfac:	e5d63001 	ldrb	r3, [r6, #1]
    bfb0:	e5cd3039 	strb	r3, [sp, #57]	; 0x39
    bfb4:	e5d63002 	ldrb	r3, [r6, #2]
    bfb8:	e5cd303a 	strb	r3, [sp, #58]	; 0x3a
    bfbc:	e5d63003 	ldrb	r3, [r6, #3]
    bfc0:	e5d61004 	ldrb	r1, [r6, #4]
    bfc4:	e5cd303b 	strb	r3, [sp, #59]	; 0x3b
    bfc8:	e5d62005 	ldrb	r2, [r6, #5]
    bfcc:	e5d63006 	ldrb	r3, [r6, #6]
    bfd0:	e5d60007 	ldrb	r0, [r6, #7]
    bfd4:	e1a03803 	lsl	r3, r3, #16
    bfd8:	e1833c00 	orr	r3, r3, r0, lsl #24
    bfdc:	e28d0040 	add	r0, sp, #64	; 0x40
    bfe0:	e1833001 	orr	r3, r3, r1
    bfe4:	e1a01004 	mov	r1, r4
    bfe8:	e1832402 	orr	r2, r3, r2, lsl #8
    bfec:	e5cd203c 	strb	r2, [sp, #60]	; 0x3c
    bff0:	e1a02422 	lsr	r2, r2, #8
    bff4:	e5cd203d 	strb	r2, [sp, #61]	; 0x3d
    bff8:	e1a02c23 	lsr	r2, r3, #24
    bffc:	e5cd203f 	strb	r2, [sp, #63]	; 0x3f
    c000:	e3a02010 	mov	r2, #16
    c004:	e1a03823 	lsr	r3, r3, #16
    c008:	e5cd303e 	strb	r3, [sp, #62]	; 0x3e
    c00c:	ebfffdeb 	bl	b7c0 <cipher_block_cpy>
    c010:	e5581008 	ldrb	r1, [r8, #-8]
    c014:	e558c007 	ldrb	ip, [r8, #-7]
    c018:	e5585006 	ldrb	r5, [r8, #-6]
    c01c:	e558b005 	ldrb	fp, [r8, #-5]
    c020:	e5580004 	ldrb	r0, [r8, #-4]
    c024:	e5582003 	ldrb	r2, [r8, #-3]
    c028:	e5583002 	ldrb	r3, [r8, #-2]
    c02c:	e558e001 	ldrb	lr, [r8, #-1]
    c030:	e1a03803 	lsl	r3, r3, #16
    c034:	e1833c0e 	orr	r3, r3, lr, lsl #24
    c038:	e1830000 	orr	r0, r3, r0
    c03c:	e1802402 	orr	r2, r0, r2, lsl #8
    c040:	e1a03c20 	lsr	r3, r0, #24
    c044:	e5c62004 	strb	r2, [r6, #4]
    c048:	e5c63007 	strb	r3, [r6, #7]
    c04c:	e1a0300a 	mov	r3, sl
    c050:	e1a02422 	lsr	r2, r2, #8
    c054:	e1a0a006 	mov	sl, r6
    c058:	e1a00820 	lsr	r0, r0, #16
    c05c:	e5c6b003 	strb	fp, [r6, #3]
    c060:	e28db050 	add	fp, sp, #80	; 0x50
    c064:	e5c65002 	strb	r5, [r6, #2]
    c068:	e5c6c001 	strb	ip, [r6, #1]
    c06c:	e5c61000 	strb	r1, [r6]
    c070:	e5c62005 	strb	r2, [r6, #5]
    c074:	e5c60006 	strb	r0, [r6, #6]
    c078:	e1a06003 	mov	r6, r3
    c07c:	e58d4018 	str	r4, [sp, #24]
    c080:	e59d5010 	ldr	r5, [sp, #16]
    c084:	e59d4024 	ldr	r4, [sp, #36]	; 0x24
    c088:	e3a0c000 	mov	ip, #0
    c08c:	e1a02005 	mov	r2, r5
    c090:	e3a03001 	mov	r3, #1
    c094:	e1a0e00c 	mov	lr, ip
    c098:	ea000001 	b	c0a4 <_gcry_cipher_cfb_decrypt+0x324>
    c09c:	e2833001 	add	r3, r3, #1
    c0a0:	e2822001 	add	r2, r2, #1
    c0a4:	e2431001 	sub	r1, r3, #1
    c0a8:	e3510003 	cmp	r1, #3
    c0ac:	e5d21000 	ldrb	r1, [r2]
    c0b0:	9181e40e 	orrls	lr, r1, lr, lsl #8
    c0b4:	9afffff8 	bls	c09c <_gcry_cipher_cfb_decrypt+0x31c>
    c0b8:	e181c40c 	orr	ip, r1, ip, lsl #8
    c0bc:	e3530008 	cmp	r3, #8
    c0c0:	1afffff5 	bne	c09c <_gcry_cipher_cfb_decrypt+0x31c>
    c0c4:	e59d3008 	ldr	r3, [sp, #8]
    c0c8:	e1a01004 	mov	r1, r4
    c0cc:	e58de028 	str	lr, [sp, #40]	; 0x28
    c0d0:	e1a00006 	mov	r0, r6
    c0d4:	e58dc02c 	str	ip, [sp, #44]	; 0x2c
    c0d8:	e58d9004 	str	r9, [sp, #4]
    c0dc:	e58d9000 	str	r9, [sp]
    c0e0:	e893000c 	ldm	r3, {r2, r3}
    c0e4:	ebfff8d4 	bl	a43c <run>
    c0e8:	e59d2034 	ldr	r2, [sp, #52]	; 0x34
    c0ec:	e59d3030 	ldr	r3, [sp, #48]	; 0x30
    c0f0:	e1a01422 	lsr	r1, r2, #8
    c0f4:	e5c52007 	strb	r2, [r5, #7]
    c0f8:	e5c51006 	strb	r1, [r5, #6]
    c0fc:	e1a01822 	lsr	r1, r2, #16
    c100:	e1a02c22 	lsr	r2, r2, #24
    c104:	e5c52004 	strb	r2, [r5, #4]
    c108:	e1a02423 	lsr	r2, r3, #8
    c10c:	e5c53003 	strb	r3, [r5, #3]
    c110:	e5c52002 	strb	r2, [r5, #2]
    c114:	e1a02823 	lsr	r2, r3, #16
    c118:	e1a03c23 	lsr	r3, r3, #24
    c11c:	e5c51005 	strb	r1, [r5, #5]
    c120:	e5c52001 	strb	r2, [r5, #1]
    c124:	e4c53008 	strb	r3, [r5], #8
    c128:	e15b0005 	cmp	fp, r5
    c12c:	1affffd5 	bne	c088 <_gcry_cipher_cfb_decrypt+0x308>
    c130:	e59d4018 	ldr	r4, [sp, #24]
    c134:	e1a03006 	mov	r3, r6
    c138:	e59d1010 	ldr	r1, [sp, #16]
    c13c:	e1a0600a 	mov	r6, sl
    c140:	e2470013 	sub	r0, r7, #19
    c144:	e1a0a003 	mov	sl, r3
    c148:	e3540000 	cmp	r4, #0
    c14c:	01a02004 	moveq	r2, r4
    c150:	0a000007 	beq	c174 <_gcry_cipher_cfb_decrypt+0x3f4>
    c154:	e5d4c000 	ldrb	ip, [r4]
    c158:	e5d42001 	ldrb	r2, [r4, #1]
    c15c:	e5d43002 	ldrb	r3, [r4, #2]
    c160:	e5d4e003 	ldrb	lr, [r4, #3]
    c164:	e1a03803 	lsl	r3, r3, #16
    c168:	e1833c0e 	orr	r3, r3, lr, lsl #24
    c16c:	e183300c 	orr	r3, r3, ip
    c170:	e1832402 	orr	r2, r3, r2, lsl #8
    c174:	e5d1e000 	ldrb	lr, [r1]
    c178:	e2800004 	add	r0, r0, #4
    c17c:	e5d1c001 	ldrb	ip, [r1, #1]
    c180:	e2844004 	add	r4, r4, #4
    c184:	e5d13002 	ldrb	r3, [r1, #2]
    c188:	e2811004 	add	r1, r1, #4
    c18c:	e5515001 	ldrb	r5, [r1, #-1]
    c190:	e1a03803 	lsl	r3, r3, #16
    c194:	e1833c05 	orr	r3, r3, r5, lsl #24
    c198:	e183300e 	orr	r3, r3, lr
    c19c:	e183340c 	orr	r3, r3, ip, lsl #8
    c1a0:	e0233002 	eor	r3, r3, r2
    c1a4:	e1540008 	cmp	r4, r8
    c1a8:	e1a0cc23 	lsr	ip, r3, #24
    c1ac:	e1a02823 	lsr	r2, r3, #16
    c1b0:	e5403008 	strb	r3, [r0, #-8]
    c1b4:	e1a03423 	lsr	r3, r3, #8
    c1b8:	e540c005 	strb	ip, [r0, #-5]
    c1bc:	e5402006 	strb	r2, [r0, #-6]
    c1c0:	e5403007 	strb	r3, [r0, #-7]
    c1c4:	1affffdf 	bne	c148 <_gcry_cipher_cfb_decrypt+0x3c8>
    c1c8:	e30fb134 	movw	fp, #61748	; 0xf134
    c1cc:	e2475018 	sub	r5, r7, #24
    c1d0:	e340b000 	movt	fp, #0
    c1d4:	e5f51001 	ldrb	r1, [r5, #1]!
    c1d8:	e1a0000b 	mov	r0, fp
    c1dc:	eb000875 	bl	e3b8 <tfp_printf>
    c1e0:	e1550007 	cmp	r5, r7
    c1e4:	1afffffa 	bne	c1d4 <_gcry_cipher_cfb_decrypt+0x454>
    c1e8:	e59d300c 	ldr	r3, [sp, #12]
    c1ec:	e2888018 	add	r8, r8, #24
    c1f0:	e59d2014 	ldr	r2, [sp, #20]
    c1f4:	e2857018 	add	r7, r5, #24
    c1f8:	e2433003 	sub	r3, r3, #3
    c1fc:	e58d300c 	str	r3, [sp, #12]
    c200:	e3530002 	cmp	r3, #2
    c204:	e2422001 	sub	r2, r2, #1
    c208:	e2853001 	add	r3, r5, #1
    c20c:	e58d2014 	str	r2, [sp, #20]
    c210:	8affff62 	bhi	bfa0 <_gcry_cipher_cfb_decrypt+0x220>
    c214:	e59d200c 	ldr	r2, [sp, #12]
    c218:	e3520000 	cmp	r2, #0
    c21c:	0a00008e 	beq	c45c <_gcry_cipher_cfb_decrypt+0x6dc>
    c220:	e58da018 	str	sl, [sp, #24]
    c224:	e30f9134 	movw	r9, #61748	; 0xf134
    c228:	e3409000 	movt	r9, #0
    c22c:	e2838007 	add	r8, r3, #7
    c230:	e59da014 	ldr	sl, [sp, #20]
    c234:	e3a01000 	mov	r1, #0
    c238:	e248b007 	sub	fp, r8, #7
    c23c:	e1a03006 	mov	r3, r6
    c240:	e3a05001 	mov	r5, #1
    c244:	e1a00001 	mov	r0, r1
    c248:	ea000001 	b	c254 <_gcry_cipher_cfb_decrypt+0x4d4>
    c24c:	e2855001 	add	r5, r5, #1
    c250:	e2833001 	add	r3, r3, #1
    c254:	e2452001 	sub	r2, r5, #1
    c258:	e3520003 	cmp	r2, #3
    c25c:	e5d32000 	ldrb	r2, [r3]
    c260:	91820400 	orrls	r0, r2, r0, lsl #8
    c264:	9afffff8 	bls	c24c <_gcry_cipher_cfb_decrypt+0x4cc>
    c268:	e1821401 	orr	r1, r2, r1, lsl #8
    c26c:	e3550008 	cmp	r5, #8
    c270:	1afffff5 	bne	c24c <_gcry_cipher_cfb_decrypt+0x4cc>
    c274:	e3a03000 	mov	r3, #0
    c278:	e2487008 	sub	r7, r8, #8
    c27c:	e15a0003 	cmp	sl, r3
    c280:	e58d3000 	str	r3, [sp]
    c284:	c3a03001 	movgt	r3, #1
    c288:	e58d3004 	str	r3, [sp, #4]
    c28c:	e59d3008 	ldr	r3, [sp, #8]
    c290:	e1cd02f8 	strd	r0, [sp, #40]	; 0x28
    c294:	e59d1024 	ldr	r1, [sp, #36]	; 0x24
    c298:	e893000c 	ldm	r3, {r2, r3}
    c29c:	e59d0018 	ldr	r0, [sp, #24]
    c2a0:	ebfff865 	bl	a43c <run>
    c2a4:	e59d2034 	ldr	r2, [sp, #52]	; 0x34
    c2a8:	e1a0000b 	mov	r0, fp
    c2ac:	e59d3030 	ldr	r3, [sp, #48]	; 0x30
    c2b0:	e1a01422 	lsr	r1, r2, #8
    c2b4:	e58d5000 	str	r5, [sp]
    c2b8:	e5c62007 	strb	r2, [r6, #7]
    c2bc:	e5c61006 	strb	r1, [r6, #6]
    c2c0:	e1a01822 	lsr	r1, r2, #16
    c2c4:	e1a02c22 	lsr	r2, r2, #24
    c2c8:	e5c62004 	strb	r2, [r6, #4]
    c2cc:	e1a02423 	lsr	r2, r3, #8
    c2d0:	e5c63003 	strb	r3, [r6, #3]
    c2d4:	e5c62002 	strb	r2, [r6, #2]
    c2d8:	e1a02823 	lsr	r2, r3, #16
    c2dc:	e1a03c23 	lsr	r3, r3, #24
    c2e0:	e5c61005 	strb	r1, [r6, #5]
    c2e4:	e1a01004 	mov	r1, r4
    c2e8:	e5c62001 	strb	r2, [r6, #1]
    c2ec:	e1a02006 	mov	r2, r6
    c2f0:	e5c63000 	strb	r3, [r6]
    c2f4:	e1a03004 	mov	r3, r4
    c2f8:	ebfffd88 	bl	b920 <cipher_block_xor_n_copy_2>
    c2fc:	e5f71001 	ldrb	r1, [r7, #1]!
    c300:	e1a00009 	mov	r0, r9
    c304:	eb00082b 	bl	e3b8 <tfp_printf>
    c308:	e1580007 	cmp	r8, r7
    c30c:	1afffffa 	bne	c2fc <_gcry_cipher_cfb_decrypt+0x57c>
    c310:	e59d300c 	ldr	r3, [sp, #12]
    c314:	e2844008 	add	r4, r4, #8
    c318:	e24aa001 	sub	sl, sl, #1
    c31c:	e2888008 	add	r8, r8, #8
    c320:	e3530001 	cmp	r3, #1
    c324:	0a00004c 	beq	c45c <_gcry_cipher_cfb_decrypt+0x6dc>
    c328:	e3a03001 	mov	r3, #1
    c32c:	e58d300c 	str	r3, [sp, #12]
    c330:	eaffffbf 	b	c234 <_gcry_cipher_cfb_decrypt+0x4b4>
    c334:	e3a02008 	mov	r2, #8
    c338:	e2860010 	add	r0, r6, #16
    c33c:	e1a01006 	mov	r1, r6
    c340:	ebfffd1e 	bl	b7c0 <cipher_block_cpy>
    c344:	e3a00000 	mov	r0, #0
    c348:	e1a02006 	mov	r2, r6
    c34c:	e3a03001 	mov	r3, #1
    c350:	e1a0c000 	mov	ip, r0
    c354:	ea000001 	b	c360 <_gcry_cipher_cfb_decrypt+0x5e0>
    c358:	e2833001 	add	r3, r3, #1
    c35c:	e2822001 	add	r2, r2, #1
    c360:	e2431001 	sub	r1, r3, #1
    c364:	e3510003 	cmp	r1, #3
    c368:	e5d21000 	ldrb	r1, [r2]
    c36c:	9181c40c 	orrls	ip, r1, ip, lsl #8
    c370:	9afffff8 	bls	c358 <_gcry_cipher_cfb_decrypt+0x5d8>
    c374:	e1810400 	orr	r0, r1, r0, lsl #8
    c378:	e3530008 	cmp	r3, #8
    c37c:	1afffff5 	bne	c358 <_gcry_cipher_cfb_decrypt+0x5d8>
    c380:	e58d0034 	str	r0, [sp, #52]	; 0x34
    c384:	e3a03000 	mov	r3, #0
    c388:	e58d3004 	str	r3, [sp, #4]
    c38c:	e2861030 	add	r1, r6, #48	; 0x30
    c390:	e58d3000 	str	r3, [sp]
    c394:	e28d3030 	add	r3, sp, #48	; 0x30
    c398:	e58dc030 	str	ip, [sp, #48]	; 0x30
    c39c:	e28d0038 	add	r0, sp, #56	; 0x38
    c3a0:	e893000c 	ldm	r3, {r2, r3}
    c3a4:	e1a04006 	mov	r4, r6
    c3a8:	ebfff823 	bl	a43c <run>
    c3ac:	e59d303c 	ldr	r3, [sp, #60]	; 0x3c
    c3b0:	e30f5134 	movw	r5, #61748	; 0xf134
    c3b4:	e59d1038 	ldr	r1, [sp, #56]	; 0x38
    c3b8:	e2867008 	add	r7, r6, #8
    c3bc:	e1a02423 	lsr	r2, r3, #8
    c3c0:	e5c63007 	strb	r3, [r6, #7]
    c3c4:	e5c62006 	strb	r2, [r6, #6]
    c3c8:	e1a02823 	lsr	r2, r3, #16
    c3cc:	e1a03c23 	lsr	r3, r3, #24
    c3d0:	e5c63004 	strb	r3, [r6, #4]
    c3d4:	e1a03421 	lsr	r3, r1, #8
    c3d8:	e5c61003 	strb	r1, [r6, #3]
    c3dc:	e5c63002 	strb	r3, [r6, #2]
    c3e0:	e1a03821 	lsr	r3, r1, #16
    c3e4:	e1a01c21 	lsr	r1, r1, #24
    c3e8:	e5c62005 	strb	r2, [r6, #5]
    c3ec:	e5c63001 	strb	r3, [r6, #1]
    c3f0:	e3405000 	movt	r5, #0
    c3f4:	e4c41001 	strb	r1, [r4], #1
    c3f8:	ea000000 	b	c400 <_gcry_cipher_cfb_decrypt+0x680>
    c3fc:	e4d41001 	ldrb	r1, [r4], #1
    c400:	e1a00005 	mov	r0, r5
    c404:	eb0007eb 	bl	e3b8 <tfp_printf>
    c408:	e1540007 	cmp	r4, r7
    c40c:	1afffffa 	bne	c3fc <_gcry_cipher_cfb_decrypt+0x67c>
    c410:	e59d3078 	ldr	r3, [sp, #120]	; 0x78
    c414:	e30f5134 	movw	r5, #61748	; 0xf134
    c418:	e59d001c 	ldr	r0, [sp, #28]
    c41c:	e1a02006 	mov	r2, r6
    c420:	e58d3000 	str	r3, [sp]
    c424:	e2633008 	rsb	r3, r3, #8
    c428:	e5863020 	str	r3, [r6, #32]
    c42c:	e2464001 	sub	r4, r6, #1
    c430:	e59d3020 	ldr	r3, [sp, #32]
    c434:	e2866007 	add	r6, r6, #7
    c438:	e3405000 	movt	r5, #0
    c43c:	e1a01003 	mov	r1, r3
    c440:	ebfffdc2 	bl	bb50 <buf_xor_n_copy_2>
    c444:	e5f41001 	ldrb	r1, [r4, #1]!
    c448:	e1a00005 	mov	r0, r5
    c44c:	eb0007d9 	bl	e3b8 <tfp_printf>
    c450:	e1540006 	cmp	r4, r6
    c454:	1afffffa 	bne	c444 <_gcry_cipher_cfb_decrypt+0x6c4>
    c458:	eafffea6 	b	bef8 <_gcry_cipher_cfb_decrypt+0x178>
    c45c:	e59d0010 	ldr	r0, [sp, #16]
    c460:	e3a01018 	mov	r1, #24
    c464:	eb000114 	bl	c8bc <wipememory>
    c468:	e59d3078 	ldr	r3, [sp, #120]	; 0x78
    c46c:	e59d201c 	ldr	r2, [sp, #28]
    c470:	e3c33007 	bic	r3, r3, #7
    c474:	e0822003 	add	r2, r2, r3
    c478:	e58d201c 	str	r2, [sp, #28]
    c47c:	e59d2020 	ldr	r2, [sp, #32]
    c480:	e0823003 	add	r3, r2, r3
    c484:	e58d3020 	str	r3, [sp, #32]
    c488:	e59d3078 	ldr	r3, [sp, #120]	; 0x78
    c48c:	e2033007 	and	r3, r3, #7
    c490:	e58d3078 	str	r3, [sp, #120]	; 0x78
    c494:	eafffe94 	b	beec <_gcry_cipher_cfb_decrypt+0x16c>
    c498:	e58dc000 	str	ip, [sp]
    c49c:	e2622008 	rsb	r2, r2, #8
    c4a0:	e0802002 	add	r2, r0, r2
    c4a4:	e1a01003 	mov	r1, r3
    c4a8:	e59d001c 	ldr	r0, [sp, #28]
    c4ac:	ebfffda7 	bl	bb50 <buf_xor_n_copy_2>
    c4b0:	e5963020 	ldr	r3, [r6, #32]
    c4b4:	e3a00000 	mov	r0, #0
    c4b8:	e59d2078 	ldr	r2, [sp, #120]	; 0x78
    c4bc:	e0433002 	sub	r3, r3, r2
    c4c0:	e5863020 	str	r3, [r6, #32]
    c4c4:	e28dd054 	add	sp, sp, #84	; 0x54
    c4c8:	e8bd8ff0 	pop	{r4, r5, r6, r7, r8, r9, sl, fp, pc}
    c4cc:	e59d4020 	ldr	r4, [sp, #32]
    c4d0:	e3a02001 	mov	r2, #1
    c4d4:	e58d2014 	str	r2, [sp, #20]
    c4d8:	e28d2038 	add	r2, sp, #56	; 0x38
    c4dc:	e58d2010 	str	r2, [sp, #16]
    c4e0:	e28d2028 	add	r2, sp, #40	; 0x28
    c4e4:	e59d301c 	ldr	r3, [sp, #28]
    c4e8:	e28da030 	add	sl, sp, #48	; 0x30
    c4ec:	e58d2008 	str	r2, [sp, #8]
    c4f0:	eaffff4a 	b	c220 <_gcry_cipher_cfb_decrypt+0x4a0>

0000c4f4 <_gcry_cipher_decrypt>:
    c4f4:	e59dc000 	ldr	ip, [sp]
    c4f8:	e3530000 	cmp	r3, #0
    c4fc:	01a0c002 	moveq	ip, r2
    c500:	01a03001 	moveq	r3, r1
    c504:	e58dc000 	str	ip, [sp]
    c508:	eafffe1c 	b	bd80 <_gcry_cipher_cfb_decrypt>

0000c50c <malloc>:
    c50c:	e3071018 	movw	r1, #28696	; 0x7018
    c510:	e3401004 	movt	r1, #4
    c514:	e5d12000 	ldrb	r2, [r1]
    c518:	e3520000 	cmp	r2, #0
    c51c:	0a000013 	beq	c570 <malloc+0x64>
    c520:	e3500000 	cmp	r0, #0
    c524:	0a00000f 	beq	c568 <malloc+0x5c>
    c528:	e3073008 	movw	r3, #28680	; 0x7008
    c52c:	e280101b 	add	r1, r0, #27
    c530:	e3403004 	movt	r3, #4
    c534:	e3c1100f 	bic	r1, r1, #15
    c538:	e5933000 	ldr	r3, [r3]
    c53c:	e3530000 	cmp	r3, #0
    c540:	0a000008 	beq	c568 <malloc+0x5c>
    c544:	e5d32004 	ldrb	r2, [r3, #4]
    c548:	e3520000 	cmp	r2, #0
    c54c:	0a000002 	beq	c55c <malloc+0x50>
    c550:	e5932000 	ldr	r2, [r3]
    c554:	e1520001 	cmp	r2, r1
    c558:	2a000014 	bcs	c5b0 <malloc+0xa4>
    c55c:	e5933008 	ldr	r3, [r3, #8]
    c560:	e3530000 	cmp	r3, #0
    c564:	1afffff6 	bne	c544 <malloc+0x38>
    c568:	e3a00000 	mov	r0, #0
    c56c:	e12fff1e 	bx	lr
    c570:	e3073000 	movw	r3, #28672	; 0x7000
    c574:	e307c008 	movw	ip, #28680	; 0x7008
    c578:	e3403002 	movt	r3, #2
    c57c:	e3500000 	cmp	r0, #0
    c580:	e340c004 	movt	ip, #4
    c584:	e5832008 	str	r2, [r3, #8]
    c588:	e3a02001 	mov	r2, #1
    c58c:	e5c12000 	strb	r2, [r1]
    c590:	1280101b 	addne	r1, r0, #27
    c594:	e58c3000 	str	r3, [ip]
    c598:	e3a0c802 	mov	ip, #131072	; 0x20000
    c59c:	13c1100f 	bicne	r1, r1, #15
    c5a0:	e5c32004 	strb	r2, [r3, #4]
    c5a4:	e583c000 	str	ip, [r3]
    c5a8:	1affffe6 	bne	c548 <malloc+0x3c>
    c5ac:	eaffffed 	b	c568 <malloc+0x5c>
    c5b0:	e281001c 	add	r0, r1, #28
    c5b4:	e1520000 	cmp	r2, r0
    c5b8:	3a000008 	bcc	c5e0 <malloc+0xd4>
    c5bc:	e0830001 	add	r0, r3, r1
    c5c0:	e0422001 	sub	r2, r2, r1
    c5c4:	e7832001 	str	r2, [r3, r1]
    c5c8:	e3a02001 	mov	r2, #1
    c5cc:	e5c02004 	strb	r2, [r0, #4]
    c5d0:	e5932008 	ldr	r2, [r3, #8]
    c5d4:	e5802008 	str	r2, [r0, #8]
    c5d8:	e5831000 	str	r1, [r3]
    c5dc:	e5830008 	str	r0, [r3, #8]
    c5e0:	e3a02000 	mov	r2, #0
    c5e4:	e283000c 	add	r0, r3, #12
    c5e8:	e5c32004 	strb	r2, [r3, #4]
    c5ec:	e12fff1e 	bx	lr

0000c5f0 <free>:
    c5f0:	e3500000 	cmp	r0, #0
    c5f4:	012fff1e 	bxeq	lr
    c5f8:	e5103004 	ldr	r3, [r0, #-4]
    c5fc:	e3a02001 	mov	r2, #1
    c600:	e52de004 	push	{lr}		; (str lr, [sp, #-4]!)
    c604:	e3530000 	cmp	r3, #0
    c608:	e5402008 	strb	r2, [r0, #-8]
    c60c:	e240e00c 	sub	lr, r0, #12
    c610:	0a000002 	beq	c620 <free+0x30>
    c614:	e5d32004 	ldrb	r2, [r3, #4]
    c618:	e3520000 	cmp	r2, #0
    c61c:	1a000015 	bne	c678 <free+0x88>
    c620:	e3073008 	movw	r3, #28680	; 0x7008
    c624:	e3403004 	movt	r3, #4
    c628:	e5933000 	ldr	r3, [r3]
    c62c:	e3530000 	cmp	r3, #0
    c630:	049df004 	popeq	{pc}		; (ldreq pc, [sp], #4)
    c634:	e1a02003 	mov	r2, r3
    c638:	e5933008 	ldr	r3, [r3, #8]
    c63c:	e3530000 	cmp	r3, #0
    c640:	049df004 	popeq	{pc}		; (ldreq pc, [sp], #4)
    c644:	e5d21004 	ldrb	r1, [r2, #4]
    c648:	e3510000 	cmp	r1, #0
    c64c:	0afffff8 	beq	c634 <free+0x44>
    c650:	e5921000 	ldr	r1, [r2]
    c654:	e082c001 	add	ip, r2, r1
    c658:	e15e000c 	cmp	lr, ip
    c65c:	1afffff4 	bne	c634 <free+0x44>
    c660:	e510300c 	ldr	r3, [r0, #-12]
    c664:	e5100004 	ldr	r0, [r0, #-4]
    c668:	e0831001 	add	r1, r3, r1
    c66c:	e5820008 	str	r0, [r2, #8]
    c670:	e5821000 	str	r1, [r2]
    c674:	e49df004 	pop	{pc}		; (ldr pc, [sp], #4)
    c678:	e593c000 	ldr	ip, [r3]
    c67c:	e510200c 	ldr	r2, [r0, #-12]
    c680:	e5931008 	ldr	r1, [r3, #8]
    c684:	e082300c 	add	r3, r2, ip
    c688:	e500300c 	str	r3, [r0, #-12]
    c68c:	e5001004 	str	r1, [r0, #-4]
    c690:	eaffffe2 	b	c620 <free+0x30>

0000c694 <xmalloc>:
    c694:	e3500001 	cmp	r0, #1
    c698:	e92d4070 	push	{r4, r5, r6, lr}
    c69c:	21a04000 	movcs	r4, r0
    c6a0:	33a04001 	movcc	r4, #1
    c6a4:	e1a00004 	mov	r0, r4
    c6a8:	ebffff97 	bl	c50c <malloc>
    c6ac:	e2505000 	subs	r5, r0, #0
    c6b0:	0a000007 	beq	c6d4 <xmalloc+0x40>
    c6b4:	e0851004 	add	r1, r5, r4
    c6b8:	e1a03005 	mov	r3, r5
    c6bc:	e3a02000 	mov	r2, #0
    c6c0:	e4c32001 	strb	r2, [r3], #1
    c6c4:	e1530001 	cmp	r3, r1
    c6c8:	1afffffc 	bne	c6c0 <xmalloc+0x2c>
    c6cc:	e1a00005 	mov	r0, r5
    c6d0:	e8bd8070 	pop	{r4, r5, r6, pc}
    c6d4:	e3010148 	movw	r0, #4424	; 0x1148
    c6d8:	e1a01004 	mov	r1, r4
    c6dc:	e3400001 	movt	r0, #1
    c6e0:	eb000734 	bl	e3b8 <tfp_printf>
    c6e4:	eafffff8 	b	c6cc <xmalloc+0x38>

0000c6e8 <xmalloc_clear>:
    c6e8:	e92d4010 	push	{r4, lr}
    c6ec:	e1a04000 	mov	r4, r0
    c6f0:	ebffff85 	bl	c50c <malloc>
    c6f4:	e3500000 	cmp	r0, #0
    c6f8:	08bd8010 	popeq	{r4, pc}
    c6fc:	e3540000 	cmp	r4, #0
    c700:	08bd8010 	popeq	{r4, pc}
    c704:	e0802004 	add	r2, r0, r4
    c708:	e1a03000 	mov	r3, r0
    c70c:	e3a01000 	mov	r1, #0
    c710:	e4c31001 	strb	r1, [r3], #1
    c714:	e1520003 	cmp	r2, r3
    c718:	1afffffc 	bne	c710 <xmalloc_clear+0x28>
    c71c:	e8bd8010 	pop	{r4, pc}

0000c720 <xcalloc>:
    c720:	e2502000 	subs	r2, r0, #0
    c724:	e92d4070 	push	{r4, r5, r6, lr}
    c728:	0a00000f 	beq	c76c <xcalloc+0x4c>
    c72c:	e0853192 	umull	r3, r5, r2, r1
    c730:	e3550000 	cmp	r5, #0
    c734:	1a00000f 	bne	c778 <xcalloc+0x58>
    c738:	e0040291 	mul	r4, r1, r2
    c73c:	e1a00004 	mov	r0, r4
    c740:	ebffff71 	bl	c50c <malloc>
    c744:	e3500000 	cmp	r0, #0
    c748:	0a00000a 	beq	c778 <xcalloc+0x58>
    c74c:	e3540000 	cmp	r4, #0
    c750:	08bd8070 	popeq	{r4, r5, r6, pc}
    c754:	e0802004 	add	r2, r0, r4
    c758:	e1a03000 	mov	r3, r0
    c75c:	e4c35001 	strb	r5, [r3], #1
    c760:	e1530002 	cmp	r3, r2
    c764:	1afffffc 	bne	c75c <xcalloc+0x3c>
    c768:	e8bd8070 	pop	{r4, r5, r6, pc}
    c76c:	ebffff66 	bl	c50c <malloc>
    c770:	e3500000 	cmp	r0, #0
    c774:	18bd8070 	popne	{r4, r5, r6, pc}
    c778:	e3a00000 	mov	r0, #0
    c77c:	e8bd8070 	pop	{r4, r5, r6, pc}

0000c780 <xfree>:
    c780:	e3500000 	cmp	r0, #0
    c784:	012fff1e 	bxeq	lr
    c788:	eaffff98 	b	c5f0 <free>

0000c78c <xrealloc>:
    c78c:	e92d4070 	push	{r4, r5, r6, lr}
    c790:	e2506000 	subs	r6, r0, #0
    c794:	0a000019 	beq	c800 <xrealloc+0x74>
    c798:	e3510000 	cmp	r1, #0
    c79c:	0a00001a 	beq	c80c <xrealloc+0x80>
    c7a0:	e516200c 	ldr	r2, [r6, #-12]
    c7a4:	e242500c 	sub	r5, r2, #12
    c7a8:	e1510005 	cmp	r1, r5
    c7ac:	91a04006 	movls	r4, r6
    c7b0:	8a000001 	bhi	c7bc <xrealloc+0x30>
    c7b4:	e1a00004 	mov	r0, r4
    c7b8:	e8bd8070 	pop	{r4, r5, r6, pc}
    c7bc:	e1a00001 	mov	r0, r1
    c7c0:	ebffff51 	bl	c50c <malloc>
    c7c4:	e2504000 	subs	r4, r0, #0
    c7c8:	0afffff9 	beq	c7b4 <xrealloc+0x28>
    c7cc:	e3550000 	cmp	r5, #0
    c7d0:	0a000006 	beq	c7f0 <xrealloc+0x64>
    c7d4:	e0862005 	add	r2, r6, r5
    c7d8:	e2441001 	sub	r1, r4, #1
    c7dc:	e1a03006 	mov	r3, r6
    c7e0:	e4d30001 	ldrb	r0, [r3], #1
    c7e4:	e1530002 	cmp	r3, r2
    c7e8:	e5e10001 	strb	r0, [r1, #1]!
    c7ec:	1afffffb 	bne	c7e0 <xrealloc+0x54>
    c7f0:	e1a00006 	mov	r0, r6
    c7f4:	ebffff7d 	bl	c5f0 <free>
    c7f8:	e1a00004 	mov	r0, r4
    c7fc:	e8bd8070 	pop	{r4, r5, r6, pc}
    c800:	e8bd4070 	pop	{r4, r5, r6, lr}
    c804:	e1a00001 	mov	r0, r1
    c808:	eaffff3f 	b	c50c <malloc>
    c80c:	e1a04001 	mov	r4, r1
    c810:	ebffff76 	bl	c5f0 <free>
    c814:	eaffffe6 	b	c7b4 <xrealloc+0x28>

0000c818 <memset>:
    c818:	e3520000 	cmp	r2, #0
    c81c:	012fff1e 	bxeq	lr
    c820:	e0802002 	add	r2, r0, r2
    c824:	e6ef1071 	uxtb	r1, r1
    c828:	e1a03000 	mov	r3, r0
    c82c:	e4c31001 	strb	r1, [r3], #1
    c830:	e1530002 	cmp	r3, r2
    c834:	1afffffc 	bne	c82c <memset+0x14>
    c838:	e12fff1e 	bx	lr

0000c83c <memcpy>:
    c83c:	e3520000 	cmp	r2, #0
    c840:	012fff1e 	bxeq	lr
    c844:	e081c002 	add	ip, r1, r2
    c848:	e2403001 	sub	r3, r0, #1
    c84c:	e4d12001 	ldrb	r2, [r1], #1
    c850:	e151000c 	cmp	r1, ip
    c854:	e5e32001 	strb	r2, [r3, #1]!
    c858:	1afffffb 	bne	c84c <memcpy+0x10>
    c85c:	e12fff1e 	bx	lr

0000c860 <memmove>:
    c860:	e1500001 	cmp	r0, r1
    c864:	9a00000b 	bls	c898 <memmove+0x38>
    c868:	e0813002 	add	r3, r1, r2
    c86c:	e1530000 	cmp	r3, r0
    c870:	9a000008 	bls	c898 <memmove+0x38>
    c874:	e080c002 	add	ip, r0, r2
    c878:	e3520000 	cmp	r2, #0
    c87c:	012fff1e 	bxeq	lr
    c880:	e1a0200c 	mov	r2, ip
    c884:	e573c001 	ldrb	ip, [r3, #-1]!
    c888:	e1510003 	cmp	r1, r3
    c88c:	e562c001 	strb	ip, [r2, #-1]!
    c890:	1afffffb 	bne	c884 <memmove+0x24>
    c894:	e12fff1e 	bx	lr
    c898:	e3520000 	cmp	r2, #0
    c89c:	012fff1e 	bxeq	lr
    c8a0:	e081c002 	add	ip, r1, r2
    c8a4:	e2403001 	sub	r3, r0, #1
    c8a8:	e4d12001 	ldrb	r2, [r1], #1
    c8ac:	e15c0001 	cmp	ip, r1
    c8b0:	e5e32001 	strb	r2, [r3, #1]!
    c8b4:	1afffffb 	bne	c8a8 <memmove+0x48>
    c8b8:	e12fff1e 	bx	lr

0000c8bc <wipememory>:
    c8bc:	e3510000 	cmp	r1, #0
    c8c0:	012fff1e 	bxeq	lr
    c8c4:	e0801001 	add	r1, r0, r1
    c8c8:	e3a02000 	mov	r2, #0
    c8cc:	e1a03000 	mov	r3, r0
    c8d0:	e2800001 	add	r0, r0, #1
    c8d4:	e1500001 	cmp	r0, r1
    c8d8:	e5c32000 	strb	r2, [r3]
    c8dc:	1afffffa 	bne	c8cc <wipememory+0x10>
    c8e0:	e12fff1e 	bx	lr

0000c8e4 <strcpy>:
    c8e4:	e2400001 	sub	r0, r0, #1
    c8e8:	e4d13001 	ldrb	r3, [r1], #1
    c8ec:	e5e03001 	strb	r3, [r0, #1]!
    c8f0:	e3530000 	cmp	r3, #0
    c8f4:	1afffffb 	bne	c8e8 <strcpy+0x4>
    c8f8:	e12fff1e 	bx	lr

0000c8fc <xtrycalloc>:
    c8fc:	e3500000 	cmp	r0, #0
    c900:	13510000 	cmpne	r1, #0
    c904:	e92d4010 	push	{r4, lr}
    c908:	e0040091 	mul	r4, r1, r0
    c90c:	0a000002 	beq	c91c <xtrycalloc+0x20>
    c910:	e730f014 	udiv	r0, r4, r0
    c914:	e1500001 	cmp	r0, r1
    c918:	1a00000c 	bne	c950 <xtrycalloc+0x54>
    c91c:	e1a00004 	mov	r0, r4
    c920:	ebfffef9 	bl	c50c <malloc>
    c924:	e3500000 	cmp	r0, #0
    c928:	0a000008 	beq	c950 <xtrycalloc+0x54>
    c92c:	e3540000 	cmp	r4, #0
    c930:	08bd8010 	popeq	{r4, pc}
    c934:	e0802004 	add	r2, r0, r4
    c938:	e1a03000 	mov	r3, r0
    c93c:	e3a01000 	mov	r1, #0
    c940:	e4c31001 	strb	r1, [r3], #1
    c944:	e1530002 	cmp	r3, r2
    c948:	1afffffc 	bne	c940 <xtrycalloc+0x44>
    c94c:	e8bd8010 	pop	{r4, pc}
    c950:	e3a00000 	mov	r0, #0
    c954:	e8bd8010 	pop	{r4, pc}

0000c958 <open>:
    c958:	e92d000e 	push	{r1, r2, r3}
    c95c:	e52de004 	push	{lr}		; (str lr, [sp, #-4]!)
    c960:	e5d02000 	ldrb	r2, [r0]
    c964:	e3520000 	cmp	r2, #0
    c968:	0a000014 	beq	c9c0 <open+0x68>
    c96c:	e59fe094 	ldr	lr, [pc, #148]	; ca08 <open+0xb0>
    c970:	e1a0c000 	mov	ip, r0
    c974:	e1a03002 	mov	r3, r2
    c978:	e3a01073 	mov	r1, #115	; 0x73
    c97c:	ea000003 	b	c990 <open+0x38>
    c980:	e5fc3001 	ldrb	r3, [ip, #1]!
    c984:	e3530000 	cmp	r3, #0
    c988:	0a000010 	beq	c9d0 <open+0x78>
    c98c:	e4de1001 	ldrb	r1, [lr], #1
    c990:	e1510003 	cmp	r1, r3
    c994:	0afffff9 	beq	c980 <open+0x28>
    c998:	e3013178 	movw	r3, #4472	; 0x1178
    c99c:	e3a01073 	mov	r1, #115	; 0x73
    c9a0:	e3403001 	movt	r3, #1
    c9a4:	ea000003 	b	c9b8 <open+0x60>
    c9a8:	e5f02001 	ldrb	r2, [r0, #1]!
    c9ac:	e3520000 	cmp	r2, #0
    c9b0:	0a00000d 	beq	c9ec <open+0x94>
    c9b4:	e5f31001 	ldrb	r1, [r3, #1]!
    c9b8:	e1510002 	cmp	r1, r2
    c9bc:	0afffff9 	beq	c9a8 <open+0x50>
    c9c0:	e49de004 	pop	{lr}		; (ldr lr, [sp], #4)
    c9c4:	e3e00000 	mvn	r0, #0
    c9c8:	e28dd00c 	add	sp, sp, #12
    c9cc:	e12fff1e 	bx	lr
    c9d0:	e5de3000 	ldrb	r3, [lr]
    c9d4:	e3530000 	cmp	r3, #0
    c9d8:	1affffee 	bne	c998 <open+0x40>
    c9dc:	e49de004 	pop	{lr}		; (ldr lr, [sp], #4)
    c9e0:	e3a00001 	mov	r0, #1
    c9e4:	e28dd00c 	add	sp, sp, #12
    c9e8:	e12fff1e 	bx	lr
    c9ec:	e5d30001 	ldrb	r0, [r3, #1]
    c9f0:	e49de004 	pop	{lr}		; (ldr lr, [sp], #4)
    c9f4:	e2500000 	subs	r0, r0, #0
    c9f8:	13a00001 	movne	r0, #1
    c9fc:	e28dd00c 	add	sp, sp, #12
    ca00:	e2600000 	rsb	r0, r0, #0
    ca04:	e12fff1e 	bx	lr
    ca08:	00011171 	.word	0x00011171

0000ca0c <strchr>:
    ca0c:	e6ef1071 	uxtb	r1, r1
    ca10:	e1a03000 	mov	r3, r0
    ca14:	e5d32000 	ldrb	r2, [r3]
    ca18:	e1a00003 	mov	r0, r3
    ca1c:	e2833001 	add	r3, r3, #1
    ca20:	e1520001 	cmp	r2, r1
    ca24:	012fff1e 	bxeq	lr
    ca28:	e3520000 	cmp	r2, #0
    ca2c:	1afffff8 	bne	ca14 <strchr+0x8>
    ca30:	e1a00002 	mov	r0, r2
    ca34:	e12fff1e 	bx	lr

0000ca38 <xstrdup>:
    ca38:	e92d4070 	push	{r4, r5, r6, lr}
    ca3c:	e1a04000 	mov	r4, r0
    ca40:	eb000671 	bl	e40c <strlen>
    ca44:	e2805001 	add	r5, r0, #1
    ca48:	e1a00005 	mov	r0, r5
    ca4c:	ebfffeae 	bl	c50c <malloc>
    ca50:	e3500000 	cmp	r0, #0
    ca54:	0a000008 	beq	ca7c <xstrdup+0x44>
    ca58:	e3550000 	cmp	r5, #0
    ca5c:	08bd8070 	popeq	{r4, r5, r6, pc}
    ca60:	e0842005 	add	r2, r4, r5
    ca64:	e2403001 	sub	r3, r0, #1
    ca68:	e4d41001 	ldrb	r1, [r4], #1
    ca6c:	e1520004 	cmp	r2, r4
    ca70:	e5e31001 	strb	r1, [r3, #1]!
    ca74:	1afffffb 	bne	ca68 <xstrdup+0x30>
    ca78:	e8bd8070 	pop	{r4, r5, r6, pc}
    ca7c:	eafffffe 	b	ca7c <xstrdup+0x44>

0000ca80 <parse.constprop.0>:
    ca80:	e92d4ff0 	push	{r4, r5, r6, r7, r8, r9, sl, fp, lr}
    ca84:	e24dd084 	sub	sp, sp, #132	; 0x84
    ca88:	e5904000 	ldr	r4, [r0]
    ca8c:	e253a000 	subs	sl, r3, #0
    ca90:	e58d2004 	str	r2, [sp, #4]
    ca94:	e3a03000 	mov	r3, #0
    ca98:	e59d20a8 	ldr	r2, [sp, #168]	; 0xa8
    ca9c:	e1a05000 	mov	r5, r0
    caa0:	e1a06001 	mov	r6, r1
    caa4:	e5823000 	str	r3, [r2]
    caa8:	0a000007 	beq	cacc <parse.constprop.0+0x4c>
    caac:	e1a00004 	mov	r0, r4
    cab0:	ebfff42b 	bl	9b64 <iobuf_tell>
    cab4:	e1a08000 	mov	r8, r0
    cab8:	e3010180 	movw	r0, #4480	; 0x1180
    cabc:	e3400001 	movt	r0, #1
    cac0:	e1a01008 	mov	r1, r8
    cac4:	eb00063b 	bl	e3b8 <tfp_printf>
    cac8:	e58a8000 	str	r8, [sl]
    cacc:	e5943010 	ldr	r3, [r4, #16]
    cad0:	e3530000 	cmp	r3, #0
    cad4:	1a000003 	bne	cae8 <parse.constprop.0+0x68>
    cad8:	e5943018 	ldr	r3, [r4, #24]
    cadc:	e594201c 	ldr	r2, [r4, #28]
    cae0:	e1530002 	cmp	r3, r2
    cae4:	3a000037 	bcc	cbc8 <parse.constprop.0+0x148>
    cae8:	e1a00004 	mov	r0, r4
    caec:	ebfff16d 	bl	90a8 <iobuf_readbyte>
    caf0:	e3700001 	cmn	r0, #1
    caf4:	e1a02000 	mov	r2, r0
    caf8:	16ef3070 	uxtbne	r3, r0
    cafc:	0a000077 	beq	cce0 <parse.constprop.0+0x260>
    cb00:	e5cd3014 	strb	r3, [sp, #20]
    cb04:	e3120080 	tst	r2, #128	; 0x80
    cb08:	0a000039 	beq	cbf4 <parse.constprop.0+0x174>
    cb0c:	e2123040 	ands	r3, r2, #64	; 0x40
    cb10:	e58d3008 	str	r3, [sp, #8]
    cb14:	1a00003e 	bne	cc14 <parse.constprop.0+0x194>
    cb18:	e2023003 	and	r3, r2, #3
    cb1c:	e1a02142 	asr	r2, r2, #2
    cb20:	e3530003 	cmp	r3, #3
    cb24:	e202800f 	and	r8, r2, #15
    cb28:	0a000087 	beq	cd4c <parse.constprop.0+0x2cc>
    cb2c:	e59d9008 	ldr	r9, [sp, #8]
    cb30:	e3a0b001 	mov	fp, #1
    cb34:	e28d7015 	add	r7, sp, #21
    cb38:	e1a0231b 	lsl	r2, fp, r3
    cb3c:	e082a00b 	add	sl, r2, fp
    cb40:	ea00000a 	b	cb70 <parse.constprop.0+0xf0>
    cb44:	e5940008 	ldr	r0, [r4, #8]
    cb48:	e584e018 	str	lr, [r4, #24]
    cb4c:	e594e020 	ldr	lr, [r4, #32]
    cb50:	e2800001 	add	r0, r0, #1
    cb54:	e5840008 	str	r0, [r4, #8]
    cb58:	e7de000c 	ldrb	r0, [lr, ip]
    cb5c:	e1809009 	orr	r9, r0, r9
    cb60:	e28bb001 	add	fp, fp, #1
    cb64:	e15a000b 	cmp	sl, fp
    cb68:	e4c70001 	strb	r0, [r7], #1
    cb6c:	0a00003d 	beq	cc68 <parse.constprop.0+0x1e8>
    cb70:	e594c010 	ldr	ip, [r4, #16]
    cb74:	e1a00004 	mov	r0, r4
    cb78:	e1a09409 	lsl	r9, r9, #8
    cb7c:	e35c0000 	cmp	ip, #0
    cb80:	1a000004 	bne	cb98 <parse.constprop.0+0x118>
    cb84:	e594c018 	ldr	ip, [r4, #24]
    cb88:	e594e01c 	ldr	lr, [r4, #28]
    cb8c:	e15c000e 	cmp	ip, lr
    cb90:	e28ce001 	add	lr, ip, #1
    cb94:	3affffea 	bcc	cb44 <parse.constprop.0+0xc4>
    cb98:	ebfff142 	bl	90a8 <iobuf_readbyte>
    cb9c:	e3700001 	cmn	r0, #1
    cba0:	e6ef0070 	uxtb	r0, r0
    cba4:	1affffec 	bne	cb5c <parse.constprop.0+0xdc>
    cba8:	e3011190 	movw	r1, #4496	; 0x1190
    cbac:	e3010284 	movw	r0, #4740	; 0x1284
    cbb0:	e3401001 	movt	r1, #1
    cbb4:	e3400001 	movt	r0, #1
    cbb8:	eb0005fe 	bl	e3b8 <tfp_printf>
    cbbc:	e3a0000e 	mov	r0, #14
    cbc0:	e28dd084 	add	sp, sp, #132	; 0x84
    cbc4:	e8bd8ff0 	pop	{r4, r5, r6, r7, r8, r9, sl, fp, pc}
    cbc8:	e5942008 	ldr	r2, [r4, #8]
    cbcc:	e5941020 	ldr	r1, [r4, #32]
    cbd0:	e2822001 	add	r2, r2, #1
    cbd4:	e5842008 	str	r2, [r4, #8]
    cbd8:	e2832001 	add	r2, r3, #1
    cbdc:	e5842018 	str	r2, [r4, #24]
    cbe0:	e7d13003 	ldrb	r3, [r1, r3]
    cbe4:	e5cd3014 	strb	r3, [sp, #20]
    cbe8:	e1a02003 	mov	r2, r3
    cbec:	e3120080 	tst	r2, #128	; 0x80
    cbf0:	1affffc5 	bne	cb0c <parse.constprop.0+0x8c>
    cbf4:	e3011190 	movw	r1, #4496	; 0x1190
    cbf8:	e30101a0 	movw	r0, #4512	; 0x11a0
    cbfc:	e3401001 	movt	r1, #1
    cc00:	e3400001 	movt	r0, #1
    cc04:	eb0005eb 	bl	e3b8 <tfp_printf>
    cc08:	e3a0000e 	mov	r0, #14
    cc0c:	e28dd084 	add	sp, sp, #132	; 0x84
    cc10:	e8bd8ff0 	pop	{r4, r5, r6, r7, r8, r9, sl, fp, pc}
    cc14:	e5943010 	ldr	r3, [r4, #16]
    cc18:	e202803f 	and	r8, r2, #63	; 0x3f
    cc1c:	e3530000 	cmp	r3, #0
    cc20:	1a000003 	bne	cc34 <parse.constprop.0+0x1b4>
    cc24:	e5943018 	ldr	r3, [r4, #24]
    cc28:	e594201c 	ldr	r2, [r4, #28]
    cc2c:	e1530002 	cmp	r3, r2
    cc30:	3a000069 	bcc	cddc <parse.constprop.0+0x35c>
    cc34:	e1a00004 	mov	r0, r4
    cc38:	ebfff11a 	bl	90a8 <iobuf_readbyte>
    cc3c:	e3700001 	cmn	r0, #1
    cc40:	16ef2070 	uxtbne	r2, r0
    cc44:	0a0000b6 	beq	cf24 <parse.constprop.0+0x4a4>
    cc48:	e5cd2015 	strb	r2, [sp, #21]
    cc4c:	e35000bf 	cmp	r0, #191	; 0xbf
    cc50:	d1a09000 	movle	r9, r0
    cc54:	d3a0a002 	movle	sl, #2
    cc58:	ca000023 	bgt	ccec <parse.constprop.0+0x26c>
    cc5c:	e358003f 	cmp	r8, #63	; 0x3f
    cc60:	03790001 	cmneq	r9, #1
    cc64:	0a000018 	beq	cccc <parse.constprop.0+0x24c>
    cc68:	e59d30ac 	ldr	r3, [sp, #172]	; 0xac
    cc6c:	e3580000 	cmp	r8, #0
    cc70:	13530000 	cmpne	r3, #0
    cc74:	13a0b001 	movne	fp, #1
    cc78:	03a0b000 	moveq	fp, #0
    cc7c:	1a00007b 	bne	ce70 <parse.constprop.0+0x3f0>
    cc80:	e59d3004 	ldr	r3, [sp, #4]
    cc84:	e248200d 	sub	r2, r8, #13
    cc88:	e16f2f12 	clz	r2, r2
    cc8c:	e1a022a2 	lsr	r2, r2, #5
    cc90:	e3530002 	cmp	r3, #2
    cc94:	13a01000 	movne	r1, #0
    cc98:	02021001 	andeq	r1, r2, #1
    cc9c:	e3510000 	cmp	r1, #0
    cca0:	0a000034 	beq	cd78 <parse.constprop.0+0x2f8>
    cca4:	e5953014 	ldr	r3, [r5, #20]
    cca8:	e3a0200d 	mov	r2, #13
    ccac:	e2833001 	add	r3, r3, #1
    ccb0:	e5853014 	str	r3, [r5, #20]
    ccb4:	e5c62000 	strb	r2, [r6]
    ccb8:	e3a00000 	mov	r0, #0
    ccbc:	e1a01005 	mov	r1, r5
    ccc0:	ebfff5c4 	bl	a3d8 <free_packet>
    ccc4:	e3a00002 	mov	r0, #2
    ccc8:	ea000005 	b	cce4 <parse.constprop.0+0x264>
    cccc:	e3011190 	movw	r1, #4496	; 0x1190
    ccd0:	e3010298 	movw	r0, #4760	; 0x1298
    ccd4:	e3401001 	movt	r1, #1
    ccd8:	e3400001 	movt	r0, #1
    ccdc:	eb0005b5 	bl	e3b8 <tfp_printf>
    cce0:	e3e00000 	mvn	r0, #0
    cce4:	e28dd084 	add	sp, sp, #132	; 0x84
    cce8:	e8bd8ff0 	pop	{r4, r5, r6, r7, r8, r9, sl, fp, pc}
    ccec:	e35000df 	cmp	r0, #223	; 0xdf
    ccf0:	ca000068 	bgt	ce98 <parse.constprop.0+0x418>
    ccf4:	e5942010 	ldr	r2, [r4, #16]
    ccf8:	e24030c0 	sub	r3, r0, #192	; 0xc0
    ccfc:	e1a0b403 	lsl	fp, r3, #8
    cd00:	e3520000 	cmp	r2, #0
    cd04:	1a0000d1 	bne	d050 <parse.constprop.0+0x5d0>
    cd08:	e5943018 	ldr	r3, [r4, #24]
    cd0c:	e594201c 	ldr	r2, [r4, #28]
    cd10:	e1530002 	cmp	r3, r2
    cd14:	2a0000cd 	bcs	d050 <parse.constprop.0+0x5d0>
    cd18:	e5942008 	ldr	r2, [r4, #8]
    cd1c:	e5941020 	ldr	r1, [r4, #32]
    cd20:	e2822001 	add	r2, r2, #1
    cd24:	e5842008 	str	r2, [r4, #8]
    cd28:	e2832001 	add	r2, r3, #1
    cd2c:	e5842018 	str	r2, [r4, #24]
    cd30:	e7d13003 	ldrb	r3, [r1, r3]
    cd34:	e1a00003 	mov	r0, r3
    cd38:	e5cd3016 	strb	r3, [sp, #22]
    cd3c:	e28b30c0 	add	r3, fp, #192	; 0xc0
    cd40:	e0809003 	add	r9, r0, r3
    cd44:	e3a0a003 	mov	sl, #3
    cd48:	eaffffc3 	b	cc5c <parse.constprop.0+0x1dc>
    cd4c:	e202200d 	and	r2, r2, #13
    cd50:	e3520009 	cmp	r2, #9
    cd54:	0a000062 	beq	cee4 <parse.constprop.0+0x464>
    cd58:	e3580008 	cmp	r8, #8
    cd5c:	1a0000cf 	bne	d0a0 <parse.constprop.0+0x620>
    cd60:	e59d30ac 	ldr	r3, [sp, #172]	; 0xac
    cd64:	e3530000 	cmp	r3, #0
    cd68:	03a0b001 	moveq	fp, #1
    cd6c:	059d2008 	ldreq	r2, [sp, #8]
    cd70:	01a09002 	moveq	r9, r2
    cd74:	1a000064 	bne	cf0c <parse.constprop.0+0x48c>
    cd78:	e59d10b0 	ldr	r1, [sp, #176]	; 0xb0
    cd7c:	e3580000 	cmp	r8, #0
    cd80:	03811001 	orreq	r1, r1, #1
    cd84:	e3110001 	tst	r1, #1
    cd88:	1a000006 	bne	cda8 <parse.constprop.0+0x328>
    cd8c:	e59d3004 	ldr	r3, [sp, #4]
    cd90:	e3530000 	cmp	r3, #0
    cd94:	1358000e 	cmpne	r8, #14
    cd98:	0a000018 	beq	ce00 <parse.constprop.0+0x380>
    cd9c:	e2481005 	sub	r1, r8, #5
    cda0:	e3510002 	cmp	r1, #2
    cda4:	9a000015 	bls	ce00 <parse.constprop.0+0x380>
    cda8:	e1a0200b 	mov	r2, fp
    cdac:	e1a01009 	mov	r1, r9
    cdb0:	e1a00004 	mov	r0, r4
    cdb4:	ebfff399 	bl	9c20 <iobuf_skip_rest>
    cdb8:	e59d20a8 	ldr	r2, [sp, #168]	; 0xa8
    cdbc:	e3a03001 	mov	r3, #1
    cdc0:	e5823000 	str	r3, [r2]
    cdc4:	e5943028 	ldr	r3, [r4, #40]	; 0x28
    cdc8:	e3530000 	cmp	r3, #0
    cdcc:	03a00000 	moveq	r0, #0
    cdd0:	13a00022 	movne	r0, #34	; 0x22
    cdd4:	e28dd084 	add	sp, sp, #132	; 0x84
    cdd8:	e8bd8ff0 	pop	{r4, r5, r6, r7, r8, r9, sl, fp, pc}
    cddc:	e5942008 	ldr	r2, [r4, #8]
    cde0:	e5941020 	ldr	r1, [r4, #32]
    cde4:	e2822001 	add	r2, r2, #1
    cde8:	e5842008 	str	r2, [r4, #8]
    cdec:	e2832001 	add	r2, r3, #1
    cdf0:	e5842018 	str	r2, [r4, #24]
    cdf4:	e7d12003 	ldrb	r2, [r1, r3]
    cdf8:	e1a00002 	mov	r0, r2
    cdfc:	eaffff91 	b	cc48 <parse.constprop.0+0x1c8>
    ce00:	e5951014 	ldr	r1, [r5, #20]
    ce04:	e59d3008 	ldr	r3, [sp, #8]
    ce08:	e2811001 	add	r1, r1, #1
    ce0c:	e5851014 	str	r1, [r5, #20]
    ce10:	e2481003 	sub	r1, r8, #3
    ce14:	e2537000 	subs	r7, r3, #0
    ce18:	e5c68000 	strb	r8, [r6]
    ce1c:	13a07001 	movne	r7, #1
    ce20:	e3510010 	cmp	r1, #16
    ce24:	979ff101 	ldrls	pc, [pc, r1, lsl #2]
    ce28:	eaffffa2 	b	ccb8 <parse.constprop.0+0x238>
    ce2c:	0000d0c0 	.word	0x0000d0c0
    ce30:	0000ccb8 	.word	0x0000ccb8
    ce34:	0000ccb8 	.word	0x0000ccb8
    ce38:	0000ccb8 	.word	0x0000ccb8
    ce3c:	0000ccb8 	.word	0x0000ccb8
    ce40:	0000ccb8 	.word	0x0000ccb8
    ce44:	0000cf40 	.word	0x0000cf40
    ce48:	0000d200 	.word	0x0000d200
    ce4c:	0000d37c 	.word	0x0000d37c
    ce50:	0000ccb8 	.word	0x0000ccb8
    ce54:	0000ccb8 	.word	0x0000ccb8
    ce58:	0000ccb8 	.word	0x0000ccb8
    ce5c:	0000ccb8 	.word	0x0000ccb8
    ce60:	0000ccb8 	.word	0x0000ccb8
    ce64:	0000ccb8 	.word	0x0000ccb8
    ce68:	0000cf40 	.word	0x0000cf40
    ce6c:	0000d2f4 	.word	0x0000d2f4
    ce70:	e59d00ac 	ldr	r0, [sp, #172]	; 0xac
    ce74:	e1a0200a 	mov	r2, sl
    ce78:	e28d1014 	add	r1, sp, #20
    ce7c:	ebfff141 	bl	9388 <iobuf_write>
    ce80:	e3500000 	cmp	r0, #0
    ce84:	0a0001ad 	beq	d540 <parse.constprop.0+0xac0>
    ce88:	e3700001 	cmn	r0, #1
    ce8c:	0affff93 	beq	cce0 <parse.constprop.0+0x260>
    ce90:	e6ff0070 	uxth	r0, r0
    ce94:	eaffff92 	b	cce4 <parse.constprop.0+0x264>
    ce98:	e35000ff 	cmp	r0, #255	; 0xff
    ce9c:	0a000051 	beq	cfe8 <parse.constprop.0+0x568>
    cea0:	e2482008 	sub	r2, r8, #8
    cea4:	e352000c 	cmp	r2, #12
    cea8:	979ff102 	ldrls	pc, [pc, r2, lsl #2]
    ceac:	ea000073 	b	d080 <parse.constprop.0+0x600>
    ceb0:	0000cfd4 	.word	0x0000cfd4
    ceb4:	0000cfd4 	.word	0x0000cfd4
    ceb8:	0000d080 	.word	0x0000d080
    cebc:	0000cfd4 	.word	0x0000cfd4
    cec0:	0000d080 	.word	0x0000d080
    cec4:	0000d080 	.word	0x0000d080
    cec8:	0000d080 	.word	0x0000d080
    cecc:	0000d080 	.word	0x0000d080
    ced0:	0000d080 	.word	0x0000d080
    ced4:	0000d080 	.word	0x0000d080
    ced8:	0000cfd4 	.word	0x0000cfd4
    cedc:	0000d080 	.word	0x0000d080
    cee0:	0000cfd4 	.word	0x0000cfd4
    cee4:	e2583000 	subs	r3, r8, #0
    cee8:	13a03001 	movne	r3, #1
    ceec:	e59d20ac 	ldr	r2, [sp, #172]	; 0xac
    cef0:	e3520000 	cmp	r2, #0
    cef4:	03a03000 	moveq	r3, #0
    cef8:	12033001 	andne	r3, r3, #1
    cefc:	e3530000 	cmp	r3, #0
    cf00:	01a09003 	moveq	r9, r3
    cf04:	03a0b001 	moveq	fp, #1
    cf08:	0affff5c 	beq	cc80 <parse.constprop.0+0x200>
    cf0c:	e30102b8 	movw	r0, #4792	; 0x12b8
    cf10:	e3400001 	movt	r0, #1
    cf14:	eb000527 	bl	e3b8 <tfp_printf>
    cf18:	e3a0000e 	mov	r0, #14
    cf1c:	e28dd084 	add	sp, sp, #132	; 0x84
    cf20:	e8bd8ff0 	pop	{r4, r5, r6, r7, r8, r9, sl, fp, pc}
    cf24:	e3011190 	movw	r1, #4496	; 0x1190
    cf28:	e30101c0 	movw	r0, #4544	; 0x11c0
    cf2c:	e3400001 	movt	r0, #1
    cf30:	e3401001 	movt	r1, #1
    cf34:	eb00051f 	bl	e3b8 <tfp_printf>
    cf38:	e3a0000e 	mov	r0, #14
    cf3c:	eaffff68 	b	cce4 <parse.constprop.0+0x264>
    cf40:	e58d2004 	str	r2, [sp, #4]
    cf44:	e3a00014 	mov	r0, #20
    cf48:	ebfffdd1 	bl	c694 <xmalloc>
    cf4c:	e5860004 	str	r0, [r6, #4]
    cf50:	e3580012 	cmp	r8, #18
    cf54:	e5c07008 	strb	r7, [r0, #8]
    cf58:	e3a01000 	mov	r1, #0
    cf5c:	e59d2004 	ldr	r2, [sp, #4]
    cf60:	e1a0a000 	mov	sl, r0
    cf64:	e5c0b009 	strb	fp, [r0, #9]
    cf68:	11a07009 	movne	r7, r9
    cf6c:	e5801004 	str	r1, [r0, #4]
    cf70:	e5801010 	str	r1, [r0, #16]
    cf74:	e5c0100b 	strb	r1, [r0, #11]
    cf78:	e1c010bc 	strh	r1, [r0, #12]
    cf7c:	15c0100a 	strbne	r1, [r0, #10]
    cf80:	0a00025a 	beq	d8f0 <parse.constprop.0+0xe70>
    cf84:	e2593000 	subs	r3, r9, #0
    cf88:	13a03001 	movne	r3, #1
    cf8c:	e3570009 	cmp	r7, #9
    cf90:	83a03000 	movhi	r3, #0
    cf94:	e3530000 	cmp	r3, #0
    cf98:	1a00034e 	bne	dcd8 <parse.constprop.0+0x1258>
    cf9c:	e58a7000 	str	r7, [sl]
    cfa0:	e3570000 	cmp	r7, #0
    cfa4:	1a000279 	bne	d990 <parse.constprop.0+0xf10>
    cfa8:	e58a4010 	str	r4, [sl, #16]
    cfac:	e1a01005 	mov	r1, r5
    cfb0:	e58d2004 	str	r2, [sp, #4]
    cfb4:	e3a00000 	mov	r0, #0
    cfb8:	ebfff506 	bl	a3d8 <free_packet>
    cfbc:	e59d2004 	ldr	r2, [sp, #4]
    cfc0:	e3520000 	cmp	r2, #0
    cfc4:	0a0000c6 	beq	d2e4 <parse.constprop.0+0x864>
    cfc8:	e8960003 	ldm	r6, {r0, r1}
    cfcc:	e9850003 	stmib	r5, {r0, r1}
    cfd0:	eaffff7b 	b	cdc4 <parse.constprop.0+0x344>
    cfd4:	e6ef1070 	uxtb	r1, r0
    cfd8:	e1a00004 	mov	r0, r4
    cfdc:	ebfff2e4 	bl	9b74 <iobuf_set_partial_body_length_mode>
    cfe0:	e3a03001 	mov	r3, #1
    cfe4:	eaffffc0 	b	ceec <parse.constprop.0+0x46c>
    cfe8:	e28d7016 	add	r7, sp, #22
    cfec:	e28db01c 	add	fp, sp, #28
    cff0:	e3a0a002 	mov	sl, #2
    cff4:	e5943010 	ldr	r3, [r4, #16]
    cff8:	e1a00004 	mov	r0, r4
    cffc:	e3530000 	cmp	r3, #0
    d000:	1a000143 	bne	d514 <parse.constprop.0+0xa94>
    d004:	e5943018 	ldr	r3, [r4, #24]
    d008:	e594c01c 	ldr	ip, [r4, #28]
    d00c:	e153000c 	cmp	r3, ip
    d010:	e283c001 	add	ip, r3, #1
    d014:	2a00013e 	bcs	d514 <parse.constprop.0+0xa94>
    d018:	e5940008 	ldr	r0, [r4, #8]
    d01c:	e584c018 	str	ip, [r4, #24]
    d020:	e594c020 	ldr	ip, [r4, #32]
    d024:	e2800001 	add	r0, r0, #1
    d028:	e5840008 	str	r0, [r4, #8]
    d02c:	e7dc3003 	ldrb	r3, [ip, r3]
    d030:	e4c73001 	strb	r3, [r7], #1
    d034:	e28aa001 	add	sl, sl, #1
    d038:	e4cb3001 	strb	r3, [fp], #1
    d03c:	e35a0006 	cmp	sl, #6
    d040:	1affffeb 	bne	cff4 <parse.constprop.0+0x574>
    d044:	e59d301c 	ldr	r3, [sp, #28]
    d048:	e6bf9f33 	rev	r9, r3
    d04c:	eaffff02 	b	cc5c <parse.constprop.0+0x1dc>
    d050:	e1a00004 	mov	r0, r4
    d054:	ebfff013 	bl	90a8 <iobuf_readbyte>
    d058:	e3700001 	cmn	r0, #1
    d05c:	16ef3070 	uxtbne	r3, r0
    d060:	1affff34 	bne	cd38 <parse.constprop.0+0x2b8>
    d064:	e3011190 	movw	r1, #4496	; 0x1190
    d068:	e30101e0 	movw	r0, #4576	; 0x11e0
    d06c:	e3400001 	movt	r0, #1
    d070:	e3401001 	movt	r1, #1
    d074:	eb0004cf 	bl	e3b8 <tfp_printf>
    d078:	e3a0000e 	mov	r0, #14
    d07c:	eaffff18 	b	cce4 <parse.constprop.0+0x264>
    d080:	e3011190 	movw	r1, #4496	; 0x1190
    d084:	e301021c 	movw	r0, #4636	; 0x121c
    d088:	e3400001 	movt	r0, #1
    d08c:	e1a02008 	mov	r2, r8
    d090:	e3401001 	movt	r1, #1
    d094:	eb0004c7 	bl	e3b8 <tfp_printf>
    d098:	e3a0000e 	mov	r0, #14
    d09c:	eaffff10 	b	cce4 <parse.constprop.0+0x264>
    d0a0:	e3011190 	movw	r1, #4496	; 0x1190
    d0a4:	e301024c 	movw	r0, #4684	; 0x124c
    d0a8:	e3400001 	movt	r0, #1
    d0ac:	e1a02008 	mov	r2, r8
    d0b0:	e3401001 	movt	r1, #1
    d0b4:	eb0004bf 	bl	e3b8 <tfp_printf>
    d0b8:	e3a0000e 	mov	r0, #14
    d0bc:	eaffff08 	b	cce4 <parse.constprop.0+0x264>
    d0c0:	e3590003 	cmp	r9, #3
    d0c4:	9a00022c 	bls	d97c <parse.constprop.0+0xefc>
    d0c8:	e5942010 	ldr	r2, [r4, #16]
    d0cc:	e3520000 	cmp	r2, #0
    d0d0:	1a0001d1 	bne	d81c <parse.constprop.0+0xd9c>
    d0d4:	e5942018 	ldr	r2, [r4, #24]
    d0d8:	e594101c 	ldr	r1, [r4, #28]
    d0dc:	e1520001 	cmp	r2, r1
    d0e0:	2a0001cd 	bcs	d81c <parse.constprop.0+0xd9c>
    d0e4:	e5941008 	ldr	r1, [r4, #8]
    d0e8:	e5940020 	ldr	r0, [r4, #32]
    d0ec:	e2811001 	add	r1, r1, #1
    d0f0:	e5841008 	str	r1, [r4, #8]
    d0f4:	e2821001 	add	r1, r2, #1
    d0f8:	e5841018 	str	r1, [r4, #24]
    d0fc:	e7d08002 	ldrb	r8, [r0, r2]
    d100:	e2482004 	sub	r2, r8, #4
    d104:	e249c001 	sub	ip, r9, #1
    d108:	e3520001 	cmp	r2, #1
    d10c:	8a0002f9 	bhi	dcf8 <parse.constprop.0+0x1278>
    d110:	e35c00c8 	cmp	ip, #200	; 0xc8
    d114:	8a000303 	bhi	dd28 <parse.constprop.0+0x12a8>
    d118:	e5943010 	ldr	r3, [r4, #16]
    d11c:	e58d3008 	str	r3, [sp, #8]
    d120:	e3530000 	cmp	r3, #0
    d124:	1a0001c5 	bne	d840 <parse.constprop.0+0xdc0>
    d128:	e594201c 	ldr	r2, [r4, #28]
    d12c:	e5940018 	ldr	r0, [r4, #24]
    d130:	e1a01002 	mov	r1, r2
    d134:	e1500002 	cmp	r0, r2
    d138:	2a0001c0 	bcs	d840 <parse.constprop.0+0xdc0>
    d13c:	e594c008 	ldr	ip, [r4, #8]
    d140:	e3580005 	cmp	r8, #5
    d144:	e594e020 	ldr	lr, [r4, #32]
    d148:	1249a002 	subne	sl, r9, #2
    d14c:	e28cc001 	add	ip, ip, #1
    d150:	e584c008 	str	ip, [r4, #8]
    d154:	e280c001 	add	ip, r0, #1
    d158:	e584c018 	str	ip, [r4, #24]
    d15c:	e7deb000 	ldrb	fp, [lr, r0]
    d160:	0a0002b1 	beq	dc2c <parse.constprop.0+0x11ac>
    d164:	e5940018 	ldr	r0, [r4, #24]
    d168:	e1a01002 	mov	r1, r2
    d16c:	e1510000 	cmp	r1, r0
    d170:	9a0001d5 	bls	d8cc <parse.constprop.0+0xe4c>
    d174:	e5943008 	ldr	r3, [r4, #8]
    d178:	e5942020 	ldr	r2, [r4, #32]
    d17c:	e2833001 	add	r3, r3, #1
    d180:	e5843008 	str	r3, [r4, #8]
    d184:	e2803001 	add	r3, r0, #1
    d188:	e5843018 	str	r3, [r4, #24]
    d18c:	e7d27000 	ldrb	r7, [r2, r0]
    d190:	e1530001 	cmp	r3, r1
    d194:	2a0001c8 	bcs	d8bc <parse.constprop.0+0xe3c>
    d198:	e5942008 	ldr	r2, [r4, #8]
    d19c:	e5941020 	ldr	r1, [r4, #32]
    d1a0:	e2822001 	add	r2, r2, #1
    d1a4:	e5842008 	str	r2, [r4, #8]
    d1a8:	e2832001 	add	r2, r3, #1
    d1ac:	e5842018 	str	r2, [r4, #24]
    d1b0:	e7d11003 	ldrb	r1, [r1, r3]
    d1b4:	e3570001 	cmp	r7, #1
    d1b8:	e24a9002 	sub	r9, sl, #2
    d1bc:	0a0002a8 	beq	dc64 <parse.constprop.0+0x11e4>
    d1c0:	e3570003 	cmp	r7, #3
    d1c4:	0a000200 	beq	d9cc <parse.constprop.0+0xf4c>
    d1c8:	e3570000 	cmp	r7, #0
    d1cc:	0a000236 	beq	daac <parse.constprop.0+0x102c>
    d1d0:	e3010340 	movw	r0, #4928	; 0x1340
    d1d4:	e1a01007 	mov	r1, r7
    d1d8:	e3400001 	movt	r0, #1
    d1dc:	eb000475 	bl	e3b8 <tfp_printf>
    d1e0:	e1a00004 	mov	r0, r4
    d1e4:	e1a01009 	mov	r1, r9
    d1e8:	e3a02000 	mov	r2, #0
    d1ec:	ebfff28b 	bl	9c20 <iobuf_skip_rest>
    d1f0:	e1a01005 	mov	r1, r5
    d1f4:	e3a00000 	mov	r0, #0
    d1f8:	ebfff476 	bl	a3d8 <free_packet>
    d1fc:	eafffef0 	b	cdc4 <parse.constprop.0+0x344>
    d200:	e3590003 	cmp	r9, #3
    d204:	1a0000b6 	bne	d4e4 <parse.constprop.0+0xa64>
    d208:	e5943010 	ldr	r3, [r4, #16]
    d20c:	e3530000 	cmp	r3, #0
    d210:	1a000185 	bne	d82c <parse.constprop.0+0xdac>
    d214:	e5943018 	ldr	r3, [r4, #24]
    d218:	e594201c 	ldr	r2, [r4, #28]
    d21c:	e1530002 	cmp	r3, r2
    d220:	2a000181 	bcs	d82c <parse.constprop.0+0xdac>
    d224:	e5942008 	ldr	r2, [r4, #8]
    d228:	e5941020 	ldr	r1, [r4, #32]
    d22c:	e2822001 	add	r2, r2, #1
    d230:	e5842008 	str	r2, [r4, #8]
    d234:	e2832001 	add	r2, r3, #1
    d238:	e5842018 	str	r2, [r4, #24]
    d23c:	e7d13003 	ldrb	r3, [r1, r3]
    d240:	e2533050 	subs	r3, r3, #80	; 0x50
    d244:	13a03001 	movne	r3, #1
    d248:	e3530000 	cmp	r3, #0
    d24c:	1a0000a3 	bne	d4e0 <parse.constprop.0+0xa60>
    d250:	e5943010 	ldr	r3, [r4, #16]
    d254:	e3530000 	cmp	r3, #0
    d258:	1a0001c1 	bne	d964 <parse.constprop.0+0xee4>
    d25c:	e5943018 	ldr	r3, [r4, #24]
    d260:	e594201c 	ldr	r2, [r4, #28]
    d264:	e1530002 	cmp	r3, r2
    d268:	2a0001bd 	bcs	d964 <parse.constprop.0+0xee4>
    d26c:	e5942008 	ldr	r2, [r4, #8]
    d270:	e5941020 	ldr	r1, [r4, #32]
    d274:	e2822001 	add	r2, r2, #1
    d278:	e5842008 	str	r2, [r4, #8]
    d27c:	e2832001 	add	r2, r3, #1
    d280:	e5842018 	str	r2, [r4, #24]
    d284:	e7d13003 	ldrb	r3, [r1, r3]
    d288:	e2533047 	subs	r3, r3, #71	; 0x47
    d28c:	13a03001 	movne	r3, #1
    d290:	e3530000 	cmp	r3, #0
    d294:	1a000091 	bne	d4e0 <parse.constprop.0+0xa60>
    d298:	e5943010 	ldr	r3, [r4, #16]
    d29c:	e3530000 	cmp	r3, #0
    d2a0:	1a00008a 	bne	d4d0 <parse.constprop.0+0xa50>
    d2a4:	e5943018 	ldr	r3, [r4, #24]
    d2a8:	e594201c 	ldr	r2, [r4, #28]
    d2ac:	e1530002 	cmp	r3, r2
    d2b0:	2a000086 	bcs	d4d0 <parse.constprop.0+0xa50>
    d2b4:	e5942008 	ldr	r2, [r4, #8]
    d2b8:	e5941020 	ldr	r1, [r4, #32]
    d2bc:	e2822001 	add	r2, r2, #1
    d2c0:	e5842008 	str	r2, [r4, #8]
    d2c4:	e2832001 	add	r2, r3, #1
    d2c8:	e5842018 	str	r2, [r4, #24]
    d2cc:	e7d13003 	ldrb	r3, [r1, r3]
    d2d0:	e3530050 	cmp	r3, #80	; 0x50
    d2d4:	1a000081 	bne	d4e0 <parse.constprop.0+0xa60>
    d2d8:	e1a01005 	mov	r1, r5
    d2dc:	e3a00000 	mov	r0, #0
    d2e0:	ebfff43c 	bl	a3d8 <free_packet>
    d2e4:	e3580002 	cmp	r8, #2
    d2e8:	13580011 	cmpne	r8, #17
    d2ec:	0affff35 	beq	cfc8 <parse.constprop.0+0x548>
    d2f0:	eafffeb3 	b	cdc4 <parse.constprop.0+0x344>
    d2f4:	e3a00014 	mov	r0, #20
    d2f8:	ebfffce5 	bl	c694 <xmalloc>
    d2fc:	e2593014 	subs	r3, r9, #20
    d300:	e1a07000 	mov	r7, r0
    d304:	e59d2008 	ldr	r2, [sp, #8]
    d308:	13a03001 	movne	r3, #1
    d30c:	e5860004 	str	r0, [r6, #4]
    d310:	e3520000 	cmp	r2, #0
    d314:	03833001 	orreq	r3, r3, #1
    d318:	e3530000 	cmp	r3, #0
    d31c:	02809014 	addeq	r9, r0, #20
    d320:	0a000009 	beq	d34c <parse.constprop.0+0x8cc>
    d324:	ea000263 	b	dcb8 <parse.constprop.0+0x1238>
    d328:	e5842018 	str	r2, [r4, #24]
    d32c:	e5942008 	ldr	r2, [r4, #8]
    d330:	e5941020 	ldr	r1, [r4, #32]
    d334:	e2822001 	add	r2, r2, #1
    d338:	e5842008 	str	r2, [r4, #8]
    d33c:	e7d10003 	ldrb	r0, [r1, r3]
    d340:	e4c70001 	strb	r0, [r7], #1
    d344:	e1590007 	cmp	r9, r7
    d348:	0affffe2 	beq	d2d8 <parse.constprop.0+0x858>
    d34c:	e5943010 	ldr	r3, [r4, #16]
    d350:	e1a00004 	mov	r0, r4
    d354:	e3530000 	cmp	r3, #0
    d358:	1a000004 	bne	d370 <parse.constprop.0+0x8f0>
    d35c:	e5943018 	ldr	r3, [r4, #24]
    d360:	e594201c 	ldr	r2, [r4, #28]
    d364:	e1530002 	cmp	r3, r2
    d368:	e2832001 	add	r2, r3, #1
    d36c:	3affffed 	bcc	d328 <parse.constprop.0+0x8a8>
    d370:	ebffef4c 	bl	90a8 <iobuf_readbyte>
    d374:	e6ef0070 	uxtb	r0, r0
    d378:	eafffff0 	b	d340 <parse.constprop.0+0x8c0>
    d37c:	e22b2001 	eor	r2, fp, #1
    d380:	e3590005 	cmp	r9, #5
    d384:	83a02000 	movhi	r2, #0
    d388:	92022001 	andls	r2, r2, #1
    d38c:	e3520000 	cmp	r2, #0
    d390:	1a00023e 	bne	dc90 <parse.constprop.0+0x1210>
    d394:	e5942010 	ldr	r2, [r4, #16]
    d398:	e3520000 	cmp	r2, #0
    d39c:	1a0000f0 	bne	d764 <parse.constprop.0+0xce4>
    d3a0:	e5940018 	ldr	r0, [r4, #24]
    d3a4:	e594201c 	ldr	r2, [r4, #28]
    d3a8:	e1500002 	cmp	r0, r2
    d3ac:	2a0000ec 	bcs	d764 <parse.constprop.0+0xce4>
    d3b0:	e5941008 	ldr	r1, [r4, #8]
    d3b4:	e3590000 	cmp	r9, #0
    d3b8:	e594c020 	ldr	ip, [r4, #32]
    d3bc:	12499001 	subne	r9, r9, #1
    d3c0:	e2811001 	add	r1, r1, #1
    d3c4:	e5841008 	str	r1, [r4, #8]
    d3c8:	e2801001 	add	r1, r0, #1
    d3cc:	e5841018 	str	r1, [r4, #24]
    d3d0:	e7dc3000 	ldrb	r3, [ip, r0]
    d3d4:	e58d3004 	str	r3, [sp, #4]
    d3d8:	0a000000 	beq	d3e0 <parse.constprop.0+0x960>
    d3dc:	e5941018 	ldr	r1, [r4, #24]
    d3e0:	e1520001 	cmp	r2, r1
    d3e4:	9a0000da 	bls	d754 <parse.constprop.0+0xcd4>
    d3e8:	e5942008 	ldr	r2, [r4, #8]
    d3ec:	e5940020 	ldr	r0, [r4, #32]
    d3f0:	e2822001 	add	r2, r2, #1
    d3f4:	e5842008 	str	r2, [r4, #8]
    d3f8:	e2812001 	add	r2, r1, #1
    d3fc:	e5842018 	str	r2, [r4, #24]
    d400:	e7d08001 	ldrb	r8, [r0, r1]
    d404:	e3590000 	cmp	r9, #0
    d408:	0a000067 	beq	d5ac <parse.constprop.0+0xb2c>
    d40c:	e2499001 	sub	r9, r9, #1
    d410:	e288001b 	add	r0, r8, #27
    d414:	ebfffc9e 	bl	c694 <xmalloc>
    d418:	e59d3004 	ldr	r3, [sp, #4]
    d41c:	e3590000 	cmp	r9, #0
    d420:	e5860004 	str	r0, [r6, #4]
    d424:	e1a0a000 	mov	sl, r0
    d428:	e5c07008 	strb	r7, [r0, #8]
    d42c:	e580300c 	str	r3, [r0, #12]
    d430:	e5c0b009 	strb	fp, [r0, #9]
    d434:	e5808014 	str	r8, [r0, #20]
    d438:	0a000064 	beq	d5d0 <parse.constprop.0+0xb50>
    d43c:	e3580000 	cmp	r8, #0
    d440:	13590004 	cmpne	r9, #4
    d444:	e5941010 	ldr	r1, [r4, #16]
    d448:	83a06001 	movhi	r6, #1
    d44c:	93a06000 	movls	r6, #0
    d450:	9a000080 	bls	d658 <parse.constprop.0+0xbd8>
    d454:	e2807017 	add	r7, r0, #23
    d458:	e3a06000 	mov	r6, #0
    d45c:	ea00000f 	b	d4a0 <parse.constprop.0+0xa20>
    d460:	e5940008 	ldr	r0, [r4, #8]
    d464:	e584c018 	str	ip, [r4, #24]
    d468:	e594c020 	ldr	ip, [r4, #32]
    d46c:	e2800001 	add	r0, r0, #1
    d470:	e5840008 	str	r0, [r4, #8]
    d474:	e7dc0002 	ldrb	r0, [ip, r2]
    d478:	e5e70001 	strb	r0, [r7, #1]!
    d47c:	e2499001 	sub	r9, r9, #1
    d480:	e3590004 	cmp	r9, #4
    d484:	e2866001 	add	r6, r6, #1
    d488:	93a02000 	movls	r2, #0
    d48c:	83a02001 	movhi	r2, #1
    d490:	e1580006 	cmp	r8, r6
    d494:	d3a02000 	movle	r2, #0
    d498:	e3520000 	cmp	r2, #0
    d49c:	0a00006d 	beq	d658 <parse.constprop.0+0xbd8>
    d4a0:	e3510000 	cmp	r1, #0
    d4a4:	e1a00004 	mov	r0, r4
    d4a8:	1a000004 	bne	d4c0 <parse.constprop.0+0xa40>
    d4ac:	e5942018 	ldr	r2, [r4, #24]
    d4b0:	e594c01c 	ldr	ip, [r4, #28]
    d4b4:	e152000c 	cmp	r2, ip
    d4b8:	e282c001 	add	ip, r2, #1
    d4bc:	3affffe7 	bcc	d460 <parse.constprop.0+0x9e0>
    d4c0:	ebffeef8 	bl	90a8 <iobuf_readbyte>
    d4c4:	e5941010 	ldr	r1, [r4, #16]
    d4c8:	e6ef0070 	uxtb	r0, r0
    d4cc:	eaffffe9 	b	d478 <parse.constprop.0+0x9f8>
    d4d0:	e1a00004 	mov	r0, r4
    d4d4:	ebffeef3 	bl	90a8 <iobuf_readbyte>
    d4d8:	e3500050 	cmp	r0, #80	; 0x50
    d4dc:	0affff7d 	beq	d2d8 <parse.constprop.0+0x858>
    d4e0:	e3a09002 	mov	r9, #2
    d4e4:	e3010490 	movw	r0, #5264	; 0x1490
    d4e8:	e3400001 	movt	r0, #1
    d4ec:	eb0003b1 	bl	e3b8 <tfp_printf>
    d4f0:	e3a02000 	mov	r2, #0
    d4f4:	e1a00004 	mov	r0, r4
    d4f8:	e1a01009 	mov	r1, r9
    d4fc:	ebfff1c7 	bl	9c20 <iobuf_skip_rest>
    d500:	e3a00000 	mov	r0, #0
    d504:	e1a01005 	mov	r1, r5
    d508:	ebfff3b2 	bl	a3d8 <free_packet>
    d50c:	e3a0000e 	mov	r0, #14
    d510:	eafffdf3 	b	cce4 <parse.constprop.0+0x264>
    d514:	ebffeee3 	bl	90a8 <iobuf_readbyte>
    d518:	e3700001 	cmn	r0, #1
    d51c:	e6ef3070 	uxtb	r3, r0
    d520:	1afffec2 	bne	d030 <parse.constprop.0+0x5b0>
    d524:	e3011190 	movw	r1, #4496	; 0x1190
    d528:	e3010200 	movw	r0, #4608	; 0x1200
    d52c:	e3400001 	movt	r0, #1
    d530:	e3401001 	movt	r1, #1
    d534:	eb00039f 	bl	e3b8 <tfp_printf>
    d538:	e3a0000e 	mov	r0, #14
    d53c:	eafffde8 	b	cce4 <parse.constprop.0+0x264>
    d540:	e3590000 	cmp	r9, #0
    d544:	03580008 	cmpeq	r8, #8
    d548:	0a0000c9 	beq	d874 <parse.constprop.0+0xdf4>
    d54c:	e3590000 	cmp	r9, #0
    d550:	0afffe1b 	beq	cdc4 <parse.constprop.0+0x344>
    d554:	e28d601c 	add	r6, sp, #28
    d558:	ea000005 	b	d574 <parse.constprop.0+0xaf4>
    d55c:	e59d00ac 	ldr	r0, [sp, #172]	; 0xac
    d560:	ebffef88 	bl	9388 <iobuf_write>
    d564:	e3500000 	cmp	r0, #0
    d568:	1afffe46 	bne	ce88 <parse.constprop.0+0x408>
    d56c:	e0599005 	subs	r9, r9, r5
    d570:	0afffe13 	beq	cdc4 <parse.constprop.0+0x344>
    d574:	e3590064 	cmp	r9, #100	; 0x64
    d578:	e1a01006 	mov	r1, r6
    d57c:	31a02009 	movcc	r2, r9
    d580:	23a02064 	movcs	r2, #100	; 0x64
    d584:	e1a00004 	mov	r0, r4
    d588:	ebffeeea 	bl	9138 <iobuf_read>
    d58c:	e3700001 	cmn	r0, #1
    d590:	e1a01006 	mov	r1, r6
    d594:	e1a05000 	mov	r5, r0
    d598:	e1a02000 	mov	r2, r0
    d59c:	1affffee 	bne	d55c <parse.constprop.0+0xadc>
    d5a0:	e3030fff 	movw	r0, #16383	; 0x3fff
    d5a4:	e3400200 	movt	r0, #512	; 0x200
    d5a8:	eafffe38 	b	ce90 <parse.constprop.0+0x410>
    d5ac:	e288001b 	add	r0, r8, #27
    d5b0:	ebfffc37 	bl	c694 <xmalloc>
    d5b4:	e59d3004 	ldr	r3, [sp, #4]
    d5b8:	e1a0a000 	mov	sl, r0
    d5bc:	e5860004 	str	r0, [r6, #4]
    d5c0:	e5c07008 	strb	r7, [r0, #8]
    d5c4:	e580300c 	str	r3, [r0, #12]
    d5c8:	e5808014 	str	r8, [r0, #20]
    d5cc:	e5c0b009 	strb	fp, [r0, #9]
    d5d0:	e5941010 	ldr	r1, [r4, #16]
    d5d4:	e3580000 	cmp	r8, #0
    d5d8:	0a0000f9 	beq	d9c4 <parse.constprop.0+0xf44>
    d5dc:	e30fbfe9 	movw	fp, #65513	; 0xffe9
    d5e0:	e2887017 	add	r7, r8, #23
    d5e4:	e34fbfff 	movt	fp, #65535	; 0xffff
    d5e8:	e28a9017 	add	r9, sl, #23
    d5ec:	e04bb00a 	sub	fp, fp, sl
    d5f0:	e087700a 	add	r7, r7, sl
    d5f4:	ea000009 	b	d620 <parse.constprop.0+0xba0>
    d5f8:	e5942008 	ldr	r2, [r4, #8]
    d5fc:	e5940020 	ldr	r0, [r4, #32]
    d600:	e2822001 	add	r2, r2, #1
    d604:	e5842008 	str	r2, [r4, #8]
    d608:	e2832001 	add	r2, r3, #1
    d60c:	e5842018 	str	r2, [r4, #24]
    d610:	e7d00003 	ldrb	r0, [r0, r3]
    d614:	e5e90001 	strb	r0, [r9, #1]!
    d618:	e1570009 	cmp	r7, r9
    d61c:	0a0000e8 	beq	d9c4 <parse.constprop.0+0xf44>
    d620:	e08b6009 	add	r6, fp, r9
    d624:	e3510000 	cmp	r1, #0
    d628:	e1a00004 	mov	r0, r4
    d62c:	1a000003 	bne	d640 <parse.constprop.0+0xbc0>
    d630:	e5943018 	ldr	r3, [r4, #24]
    d634:	e594201c 	ldr	r2, [r4, #28]
    d638:	e1530002 	cmp	r3, r2
    d63c:	3affffed 	bcc	d5f8 <parse.constprop.0+0xb78>
    d640:	ebffee98 	bl	90a8 <iobuf_readbyte>
    d644:	e5941010 	ldr	r1, [r4, #16]
    d648:	e3700001 	cmn	r0, #1
    d64c:	e6ef0070 	uxtb	r0, r0
    d650:	1affffef 	bne	d614 <parse.constprop.0+0xb94>
    d654:	e3a09000 	mov	r9, #0
    d658:	e1580006 	cmp	r8, r6
    d65c:	da000007 	ble	d680 <parse.constprop.0+0xc00>
    d660:	e2862018 	add	r2, r6, #24
    d664:	e2880018 	add	r0, r8, #24
    d668:	e08a2002 	add	r2, sl, r2
    d66c:	e3a0c000 	mov	ip, #0
    d670:	e08a0000 	add	r0, sl, r0
    d674:	e4c2c001 	strb	ip, [r2], #1
    d678:	e1520000 	cmp	r2, r0
    d67c:	1afffffc 	bne	d674 <parse.constprop.0+0xbf4>
    d680:	e3510000 	cmp	r1, #0
    d684:	1a00005b 	bne	d7f8 <parse.constprop.0+0xd78>
    d688:	e5940018 	ldr	r0, [r4, #24]
    d68c:	e594201c 	ldr	r2, [r4, #28]
    d690:	e1500002 	cmp	r0, r2
    d694:	2a000057 	bcs	d7f8 <parse.constprop.0+0xd78>
    d698:	e5941008 	ldr	r1, [r4, #8]
    d69c:	e594c020 	ldr	ip, [r4, #32]
    d6a0:	e2811001 	add	r1, r1, #1
    d6a4:	e5841008 	str	r1, [r4, #8]
    d6a8:	e2801001 	add	r1, r0, #1
    d6ac:	e5841018 	str	r1, [r4, #24]
    d6b0:	e7dc6000 	ldrb	r6, [ip, r0]
    d6b4:	e1a06c06 	lsl	r6, r6, #24
    d6b8:	e1520001 	cmp	r2, r1
    d6bc:	9a000042 	bls	d7cc <parse.constprop.0+0xd4c>
    d6c0:	e5940008 	ldr	r0, [r4, #8]
    d6c4:	e594c020 	ldr	ip, [r4, #32]
    d6c8:	e2800001 	add	r0, r0, #1
    d6cc:	e5840008 	str	r0, [r4, #8]
    d6d0:	e2810001 	add	r0, r1, #1
    d6d4:	e5840018 	str	r0, [r4, #24]
    d6d8:	e7dc7001 	ldrb	r7, [ip, r1]
    d6dc:	e1867807 	orr	r7, r6, r7, lsl #16
    d6e0:	e1520000 	cmp	r2, r0
    d6e4:	9a00002d 	bls	d7a0 <parse.constprop.0+0xd20>
    d6e8:	e5941008 	ldr	r1, [r4, #8]
    d6ec:	e594c020 	ldr	ip, [r4, #32]
    d6f0:	e2811001 	add	r1, r1, #1
    d6f4:	e5841008 	str	r1, [r4, #8]
    d6f8:	e2801001 	add	r1, r0, #1
    d6fc:	e5841018 	str	r1, [r4, #24]
    d700:	e7dc6000 	ldrb	r6, [ip, r0]
    d704:	e1876406 	orr	r6, r7, r6, lsl #8
    d708:	e1520001 	cmp	r2, r1
    d70c:	9a00001f 	bls	d790 <parse.constprop.0+0xd10>
    d710:	e5942008 	ldr	r2, [r4, #8]
    d714:	e5940020 	ldr	r0, [r4, #32]
    d718:	e2822001 	add	r2, r2, #1
    d71c:	e5842008 	str	r2, [r4, #8]
    d720:	e2812001 	add	r2, r1, #1
    d724:	e5842018 	str	r2, [r4, #24]
    d728:	e7d02001 	ldrb	r2, [r0, r1]
    d72c:	e1826006 	orr	r6, r2, r6
    d730:	e3590000 	cmp	r9, #0
    d734:	e58a6010 	str	r6, [sl, #16]
    d738:	12499004 	subne	r9, r9, #4
    d73c:	e58a9000 	str	r9, [sl]
    d740:	e1a01005 	mov	r1, r5
    d744:	e58a4004 	str	r4, [sl, #4]
    d748:	e3a00000 	mov	r0, #0
    d74c:	ebfff321 	bl	a3d8 <free_packet>
    d750:	eafffd9b 	b	cdc4 <parse.constprop.0+0x344>
    d754:	e1a00004 	mov	r0, r4
    d758:	ebffee52 	bl	90a8 <iobuf_readbyte>
    d75c:	e6ef8070 	uxtb	r8, r0
    d760:	eaffff27 	b	d404 <parse.constprop.0+0x984>
    d764:	e1a00004 	mov	r0, r4
    d768:	ebffee4e 	bl	90a8 <iobuf_readbyte>
    d76c:	e5942010 	ldr	r2, [r4, #16]
    d770:	e3590000 	cmp	r9, #0
    d774:	12499001 	subne	r9, r9, #1
    d778:	e6ef3070 	uxtb	r3, r0
    d77c:	e58d3004 	str	r3, [sp, #4]
    d780:	e3520000 	cmp	r2, #0
    d784:	1afffff2 	bne	d754 <parse.constprop.0+0xcd4>
    d788:	e594201c 	ldr	r2, [r4, #28]
    d78c:	eaffff12 	b	d3dc <parse.constprop.0+0x95c>
    d790:	e1a00004 	mov	r0, r4
    d794:	ebffee43 	bl	90a8 <iobuf_readbyte>
    d798:	e6ef2070 	uxtb	r2, r0
    d79c:	eaffffe2 	b	d72c <parse.constprop.0+0xcac>
    d7a0:	e1a00004 	mov	r0, r4
    d7a4:	ebffee3f 	bl	90a8 <iobuf_readbyte>
    d7a8:	e5942010 	ldr	r2, [r4, #16]
    d7ac:	e1a06400 	lsl	r6, r0, #8
    d7b0:	e3520000 	cmp	r2, #0
    d7b4:	e6ff6076 	uxth	r6, r6
    d7b8:	e1866007 	orr	r6, r6, r7
    d7bc:	1afffff3 	bne	d790 <parse.constprop.0+0xd10>
    d7c0:	e5941018 	ldr	r1, [r4, #24]
    d7c4:	e594201c 	ldr	r2, [r4, #28]
    d7c8:	eaffffce 	b	d708 <parse.constprop.0+0xc88>
    d7cc:	e1a00004 	mov	r0, r4
    d7d0:	ebffee34 	bl	90a8 <iobuf_readbyte>
    d7d4:	e5941010 	ldr	r1, [r4, #16]
    d7d8:	e1a02800 	lsl	r2, r0, #16
    d7dc:	e3510000 	cmp	r1, #0
    d7e0:	e20228ff 	and	r2, r2, #16711680	; 0xff0000
    d7e4:	e1827006 	orr	r7, r2, r6
    d7e8:	1affffec 	bne	d7a0 <parse.constprop.0+0xd20>
    d7ec:	e5940018 	ldr	r0, [r4, #24]
    d7f0:	e594201c 	ldr	r2, [r4, #28]
    d7f4:	eaffffb9 	b	d6e0 <parse.constprop.0+0xc60>
    d7f8:	e1a00004 	mov	r0, r4
    d7fc:	ebffee29 	bl	90a8 <iobuf_readbyte>
    d800:	e5942010 	ldr	r2, [r4, #16]
    d804:	e1a06c00 	lsl	r6, r0, #24
    d808:	e3520000 	cmp	r2, #0
    d80c:	1affffee 	bne	d7cc <parse.constprop.0+0xd4c>
    d810:	e5941018 	ldr	r1, [r4, #24]
    d814:	e594201c 	ldr	r2, [r4, #28]
    d818:	eaffffa6 	b	d6b8 <parse.constprop.0+0xc38>
    d81c:	e1a00004 	mov	r0, r4
    d820:	ebffee20 	bl	90a8 <iobuf_readbyte>
    d824:	e6ef8070 	uxtb	r8, r0
    d828:	eafffe34 	b	d100 <parse.constprop.0+0x680>
    d82c:	e1a00004 	mov	r0, r4
    d830:	ebffee1c 	bl	90a8 <iobuf_readbyte>
    d834:	e2503050 	subs	r3, r0, #80	; 0x50
    d838:	13a03001 	movne	r3, #1
    d83c:	eafffe81 	b	d248 <parse.constprop.0+0x7c8>
    d840:	e1a00004 	mov	r0, r4
    d844:	ebffee17 	bl	90a8 <iobuf_readbyte>
    d848:	e3580005 	cmp	r8, #5
    d84c:	e6efb070 	uxtb	fp, r0
    d850:	0a0000f0 	beq	dc18 <parse.constprop.0+0x1198>
    d854:	e5942010 	ldr	r2, [r4, #16]
    d858:	e249a002 	sub	sl, r9, #2
    d85c:	e3a03000 	mov	r3, #0
    d860:	e58d3008 	str	r3, [sp, #8]
    d864:	e3520000 	cmp	r2, #0
    d868:	1a000017 	bne	d8cc <parse.constprop.0+0xe4c>
    d86c:	e594201c 	ldr	r2, [r4, #28]
    d870:	eafffe3b 	b	d164 <parse.constprop.0+0x6e4>
    d874:	e30102e8 	movw	r0, #4840	; 0x12e8
    d878:	e28d601c 	add	r6, sp, #28
    d87c:	e3400001 	movt	r0, #1
    d880:	eb0002cc 	bl	e3b8 <tfp_printf>
    d884:	ea000002 	b	d894 <parse.constprop.0+0xe14>
    d888:	ebffeebe 	bl	9388 <iobuf_write>
    d88c:	e3500000 	cmp	r0, #0
    d890:	1afffd7c 	bne	ce88 <parse.constprop.0+0x408>
    d894:	e3a02064 	mov	r2, #100	; 0x64
    d898:	e1a01006 	mov	r1, r6
    d89c:	e1a00004 	mov	r0, r4
    d8a0:	ebffee24 	bl	9138 <iobuf_read>
    d8a4:	e1a02000 	mov	r2, r0
    d8a8:	e1a01006 	mov	r1, r6
    d8ac:	e59d00ac 	ldr	r0, [sp, #172]	; 0xac
    d8b0:	e3720001 	cmn	r2, #1
    d8b4:	1afffff3 	bne	d888 <parse.constprop.0+0xe08>
    d8b8:	eafffd41 	b	cdc4 <parse.constprop.0+0x344>
    d8bc:	e1a00004 	mov	r0, r4
    d8c0:	ebffedf8 	bl	90a8 <iobuf_readbyte>
    d8c4:	e6ef1070 	uxtb	r1, r0
    d8c8:	eafffe39 	b	d1b4 <parse.constprop.0+0x734>
    d8cc:	e1a00004 	mov	r0, r4
    d8d0:	ebffedf4 	bl	90a8 <iobuf_readbyte>
    d8d4:	e5943010 	ldr	r3, [r4, #16]
    d8d8:	e6ef7070 	uxtb	r7, r0
    d8dc:	e3530000 	cmp	r3, #0
    d8e0:	1afffff5 	bne	d8bc <parse.constprop.0+0xe3c>
    d8e4:	e5943018 	ldr	r3, [r4, #24]
    d8e8:	e594101c 	ldr	r1, [r4, #28]
    d8ec:	eafffe27 	b	d190 <parse.constprop.0+0x710>
    d8f0:	e5941010 	ldr	r1, [r4, #16]
    d8f4:	e3510000 	cmp	r1, #0
    d8f8:	1a00002b 	bne	d9ac <parse.constprop.0+0xf2c>
    d8fc:	e5941018 	ldr	r1, [r4, #24]
    d900:	e594001c 	ldr	r0, [r4, #28]
    d904:	e1510000 	cmp	r1, r0
    d908:	2a000027 	bcs	d9ac <parse.constprop.0+0xf2c>
    d90c:	e5940008 	ldr	r0, [r4, #8]
    d910:	e594c020 	ldr	ip, [r4, #32]
    d914:	e2800001 	add	r0, r0, #1
    d918:	e5840008 	str	r0, [r4, #8]
    d91c:	e2810001 	add	r0, r1, #1
    d920:	e5840018 	str	r0, [r4, #24]
    d924:	e7dc1001 	ldrb	r1, [ip, r1]
    d928:	e3590000 	cmp	r9, #0
    d92c:	12497001 	subne	r7, r9, #1
    d930:	01a07009 	moveq	r7, r9
    d934:	e3510001 	cmp	r1, #1
    d938:	03a01002 	moveq	r1, #2
    d93c:	05ca100a 	strbeq	r1, [sl, #10]
    d940:	0afffd8f 	beq	cf84 <parse.constprop.0+0x504>
    d944:	e3010420 	movw	r0, #5152	; 0x1420
    d948:	e3400001 	movt	r0, #1
    d94c:	eb000299 	bl	e3b8 <tfp_printf>
    d950:	e3a00000 	mov	r0, #0
    d954:	e1a01005 	mov	r1, r5
    d958:	ebfff29e 	bl	a3d8 <free_packet>
    d95c:	e3a0000e 	mov	r0, #14
    d960:	eafffcdf 	b	cce4 <parse.constprop.0+0x264>
    d964:	e1a00004 	mov	r0, r4
    d968:	ebffedce 	bl	90a8 <iobuf_readbyte>
    d96c:	e2503047 	subs	r3, r0, #71	; 0x47
    d970:	13a03001 	movne	r3, #1
    d974:	eafffe45 	b	d290 <parse.constprop.0+0x810>
    d978:	e3a09001 	mov	r9, #1
    d97c:	e30103ec 	movw	r0, #5100	; 0x13ec
    d980:	e3a01003 	mov	r1, #3
    d984:	e3400001 	movt	r0, #1
    d988:	eb00028a 	bl	e3b8 <tfp_printf>
    d98c:	eafffed7 	b	d4f0 <parse.constprop.0+0xa70>
    d990:	e58d2004 	str	r2, [sp, #4]
    d994:	e3010450 	movw	r0, #5200	; 0x1450
    d998:	e3400001 	movt	r0, #1
    d99c:	e1a01007 	mov	r1, r7
    d9a0:	eb000284 	bl	e3b8 <tfp_printf>
    d9a4:	e59d2004 	ldr	r2, [sp, #4]
    d9a8:	eafffd7e 	b	cfa8 <parse.constprop.0+0x528>
    d9ac:	e58d2004 	str	r2, [sp, #4]
    d9b0:	e1a00004 	mov	r0, r4
    d9b4:	ebffedbb 	bl	90a8 <iobuf_readbyte>
    d9b8:	e59d2004 	ldr	r2, [sp, #4]
    d9bc:	e6ef1070 	uxtb	r1, r0
    d9c0:	eaffffd8 	b	d928 <parse.constprop.0+0xea8>
    d9c4:	e3a09000 	mov	r9, #0
    d9c8:	eaffff2c 	b	d680 <parse.constprop.0+0xc00>
    d9cc:	e3a02009 	mov	r2, #9
    d9d0:	e1590002 	cmp	r9, r2
    d9d4:	3a0000ce 	bcc	dd14 <parse.constprop.0+0x1294>
    d9d8:	e0493002 	sub	r3, r9, r2
    d9dc:	e58d1004 	str	r1, [sp, #4]
    d9e0:	e283001b 	add	r0, r3, #27
    d9e4:	e58d300c 	str	r3, [sp, #12]
    d9e8:	ebfffb3e 	bl	c6e8 <xmalloc_clear>
    d9ec:	e59d1004 	ldr	r1, [sp, #4]
    d9f0:	e3c72002 	bic	r2, r7, #2
    d9f4:	e5860004 	str	r0, [r6, #4]
    d9f8:	e3520001 	cmp	r2, #1
    d9fc:	e5c01008 	strb	r1, [r0, #8]
    da00:	e1a02000 	mov	r2, r0
    da04:	e59d1008 	ldr	r1, [sp, #8]
    da08:	e59d600c 	ldr	r6, [sp, #12]
    da0c:	e5c08000 	strb	r8, [r0]
    da10:	e5c0b001 	strb	fp, [r0, #1]
    da14:	e5c01002 	strb	r1, [r0, #2]
    da18:	e5807004 	str	r7, [r0, #4]
    da1c:	1a000030 	bne	dae4 <parse.constprop.0+0x1064>
    da20:	e280b008 	add	fp, r0, #8
    da24:	e3e08001 	mvn	r8, #1
    da28:	ea000011 	b	da74 <parse.constprop.0+0xff4>
    da2c:	e5940008 	ldr	r0, [r4, #8]
    da30:	e584c018 	str	ip, [r4, #24]
    da34:	e594c020 	ldr	ip, [r4, #32]
    da38:	e2800001 	add	r0, r0, #1
    da3c:	e5840008 	str	r0, [r4, #8]
    da40:	e7dc1001 	ldrb	r1, [ip, r1]
    da44:	e5eb1001 	strb	r1, [fp, #1]!
    da48:	e2490001 	sub	r0, r9, #1
    da4c:	e0481000 	sub	r1, r8, r0
    da50:	e081100a 	add	r1, r1, sl
    da54:	e3510007 	cmp	r1, #7
    da58:	c3a01000 	movgt	r1, #0
    da5c:	d3a01001 	movle	r1, #1
    da60:	e3500000 	cmp	r0, #0
    da64:	03a01000 	moveq	r1, #0
    da68:	e3510000 	cmp	r1, #0
    da6c:	0a000055 	beq	dbc8 <parse.constprop.0+0x1148>
    da70:	e1a09000 	mov	r9, r0
    da74:	e5941010 	ldr	r1, [r4, #16]
    da78:	e1a00004 	mov	r0, r4
    da7c:	e3510000 	cmp	r1, #0
    da80:	1a000004 	bne	da98 <parse.constprop.0+0x1018>
    da84:	e5941018 	ldr	r1, [r4, #24]
    da88:	e594c01c 	ldr	ip, [r4, #28]
    da8c:	e151000c 	cmp	r1, ip
    da90:	e281c001 	add	ip, r1, #1
    da94:	3affffe4 	bcc	da2c <parse.constprop.0+0xfac>
    da98:	e58d2004 	str	r2, [sp, #4]
    da9c:	ebffed81 	bl	90a8 <iobuf_readbyte>
    daa0:	e59d2004 	ldr	r2, [sp, #4]
    daa4:	e6ef1070 	uxtb	r1, r0
    daa8:	eaffffe5 	b	da44 <parse.constprop.0+0xfc4>
    daac:	e58d1004 	str	r1, [sp, #4]
    dab0:	e28a0019 	add	r0, sl, #25
    dab4:	ebfffb0b 	bl	c6e8 <xmalloc_clear>
    dab8:	e5860004 	str	r0, [r6, #4]
    dabc:	e1a02000 	mov	r2, r0
    dac0:	e59d1004 	ldr	r1, [sp, #4]
    dac4:	e1a06009 	mov	r6, r9
    dac8:	e59d3008 	ldr	r3, [sp, #8]
    dacc:	e5c08000 	strb	r8, [r0]
    dad0:	e5c0b001 	strb	fp, [r0, #1]
    dad4:	e5c01008 	strb	r1, [r0, #8]
    dad8:	e5c03002 	strb	r3, [r0, #2]
    dadc:	e5807004 	str	r7, [r0, #4]
    dae0:	e58d900c 	str	r9, [sp, #12]
    dae4:	e5dd100c 	ldrb	r1, [sp, #12]
    dae8:	e5c21018 	strb	r1, [r2, #24]
    daec:	e3510000 	cmp	r1, #0
    daf0:	0a000024 	beq	db88 <parse.constprop.0+0x1108>
    daf4:	e3590000 	cmp	r9, #0
    daf8:	13560000 	cmpne	r6, #0
    dafc:	da000095 	ble	dd58 <parse.constprop.0+0x12d8>
    db00:	e282a018 	add	sl, r2, #24
    db04:	e1a08009 	mov	r8, r9
    db08:	ea00000b 	b	db3c <parse.constprop.0+0x10bc>
    db0c:	e5842018 	str	r2, [r4, #24]
    db10:	e5942008 	ldr	r2, [r4, #8]
    db14:	e5940020 	ldr	r0, [r4, #32]
    db18:	e2822001 	add	r2, r2, #1
    db1c:	e5842008 	str	r2, [r4, #8]
    db20:	e7d01001 	ldrb	r1, [r0, r1]
    db24:	e5ea1001 	strb	r1, [sl, #1]!
    db28:	e2488001 	sub	r8, r8, #1
    db2c:	e0492008 	sub	r2, r9, r8
    db30:	e3580000 	cmp	r8, #0
    db34:	11520006 	cmpne	r2, r6
    db38:	aa00000b 	bge	db6c <parse.constprop.0+0x10ec>
    db3c:	e5942010 	ldr	r2, [r4, #16]
    db40:	e1a00004 	mov	r0, r4
    db44:	e3520000 	cmp	r2, #0
    db48:	1a000004 	bne	db60 <parse.constprop.0+0x10e0>
    db4c:	e5941018 	ldr	r1, [r4, #24]
    db50:	e594201c 	ldr	r2, [r4, #28]
    db54:	e1510002 	cmp	r1, r2
    db58:	e2812001 	add	r2, r1, #1
    db5c:	3affffea 	bcc	db0c <parse.constprop.0+0x108c>
    db60:	ebffed50 	bl	90a8 <iobuf_readbyte>
    db64:	e6ef1070 	uxtb	r1, r0
    db68:	eaffffed 	b	db24 <parse.constprop.0+0x10a4>
    db6c:	e3c77002 	bic	r7, r7, #2
    db70:	e3570001 	cmp	r7, #1
    db74:	0a000006 	beq	db94 <parse.constprop.0+0x1114>
    db78:	e3010378 	movw	r0, #4984	; 0x1378
    db7c:	e1a09008 	mov	r9, r8
    db80:	e3400001 	movt	r0, #1
    db84:	eb00020b 	bl	e3b8 <tfp_printf>
    db88:	e3560000 	cmp	r6, #0
    db8c:	0afffd93 	beq	d1e0 <parse.constprop.0+0x760>
    db90:	e1a08009 	mov	r8, r9
    db94:	e59d3008 	ldr	r3, [sp, #8]
    db98:	e3530000 	cmp	r3, #0
    db9c:	02461001 	subeq	r1, r6, #1
    dba0:	130103bc 	movwne	r0, #5052	; 0x13bc
    dba4:	13400001 	movtne	r0, #1
    dba8:	030103d8 	movweq	r0, #5080	; 0x13d8
    dbac:	03400001 	movteq	r0, #1
    dbb0:	11a01006 	movne	r1, r6
    dbb4:	01a01181 	lsleq	r1, r1, #3
    dbb8:	11a09008 	movne	r9, r8
    dbbc:	01a09008 	moveq	r9, r8
    dbc0:	eb0001fc 	bl	e3b8 <tfp_printf>
    dbc4:	eafffd85 	b	d1e0 <parse.constprop.0+0x760>
    dbc8:	e3570003 	cmp	r7, #3
    dbcc:	11a09000 	movne	r9, r0
    dbd0:	1affffc3 	bne	dae4 <parse.constprop.0+0x1064>
    dbd4:	e5941010 	ldr	r1, [r4, #16]
    dbd8:	e3510000 	cmp	r1, #0
    dbdc:	1a000057 	bne	dd40 <parse.constprop.0+0x12c0>
    dbe0:	e5941018 	ldr	r1, [r4, #24]
    dbe4:	e594001c 	ldr	r0, [r4, #28]
    dbe8:	e1510000 	cmp	r1, r0
    dbec:	2a000053 	bcs	dd40 <parse.constprop.0+0x12c0>
    dbf0:	e5940008 	ldr	r0, [r4, #8]
    dbf4:	e594c020 	ldr	ip, [r4, #32]
    dbf8:	e2800001 	add	r0, r0, #1
    dbfc:	e5840008 	str	r0, [r4, #8]
    dc00:	e2810001 	add	r0, r1, #1
    dc04:	e5840018 	str	r0, [r4, #24]
    dc08:	e7dc1001 	ldrb	r1, [ip, r1]
    dc0c:	e5821014 	str	r1, [r2, #20]
    dc10:	e2499002 	sub	r9, r9, #2
    dc14:	eaffffb2 	b	dae4 <parse.constprop.0+0x1064>
    dc18:	e5942010 	ldr	r2, [r4, #16]
    dc1c:	e3520000 	cmp	r2, #0
    dc20:	1a000011 	bne	dc6c <parse.constprop.0+0x11ec>
    dc24:	e594c018 	ldr	ip, [r4, #24]
    dc28:	e594101c 	ldr	r1, [r4, #28]
    dc2c:	e151000c 	cmp	r1, ip
    dc30:	9a00000d 	bls	dc6c <parse.constprop.0+0x11ec>
    dc34:	e5942008 	ldr	r2, [r4, #8]
    dc38:	e3590004 	cmp	r9, #4
    dc3c:	e594e020 	ldr	lr, [r4, #32]
    dc40:	e28c0001 	add	r0, ip, #1
    dc44:	e5840018 	str	r0, [r4, #24]
    dc48:	e2823001 	add	r3, r2, #1
    dc4c:	e5843008 	str	r3, [r4, #8]
    dc50:	e249a003 	sub	sl, r9, #3
    dc54:	0affff47 	beq	d978 <parse.constprop.0+0xef8>
    dc58:	e7de300c 	ldrb	r3, [lr, ip]
    dc5c:	e58d3008 	str	r3, [sp, #8]
    dc60:	eafffd41 	b	d16c <parse.constprop.0+0x6ec>
    dc64:	e3a02008 	mov	r2, #8
    dc68:	eaffff58 	b	d9d0 <parse.constprop.0+0xf50>
    dc6c:	e1a00004 	mov	r0, r4
    dc70:	e249a003 	sub	sl, r9, #3
    dc74:	ebffed0b 	bl	90a8 <iobuf_readbyte>
    dc78:	e3590004 	cmp	r9, #4
    dc7c:	0affff3d 	beq	d978 <parse.constprop.0+0xef8>
    dc80:	e5942010 	ldr	r2, [r4, #16]
    dc84:	e6ef3070 	uxtb	r3, r0
    dc88:	e58d3008 	str	r3, [sp, #8]
    dc8c:	eafffef4 	b	d864 <parse.constprop.0+0xde4>
    dc90:	e3010404 	movw	r0, #5124	; 0x1404
    dc94:	e1a02009 	mov	r2, r9
    dc98:	e3400001 	movt	r0, #1
    dc9c:	e3a0100b 	mov	r1, #11
    dca0:	eb0001c4 	bl	e3b8 <tfp_printf>
    dca4:	e3a00000 	mov	r0, #0
    dca8:	e1a01005 	mov	r1, r5
    dcac:	ebfff1c9 	bl	a3d8 <free_packet>
    dcb0:	e3a0000e 	mov	r0, #14
    dcb4:	eafffc0a 	b	cce4 <parse.constprop.0+0x264>
    dcb8:	e301046c 	movw	r0, #5228	; 0x146c
    dcbc:	e3400001 	movt	r0, #1
    dcc0:	eb0001bc 	bl	e3b8 <tfp_printf>
    dcc4:	e3a00000 	mov	r0, #0
    dcc8:	e1a01005 	mov	r1, r5
    dccc:	ebfff1c1 	bl	a3d8 <free_packet>
    dcd0:	e3a0000e 	mov	r0, #14
    dcd4:	eafffc02 	b	cce4 <parse.constprop.0+0x264>
    dcd8:	e30103ec 	movw	r0, #5100	; 0x13ec
    dcdc:	e1a01008 	mov	r1, r8
    dce0:	e3400001 	movt	r0, #1
    dce4:	eb0001b3 	bl	e3b8 <tfp_printf>
    dce8:	e1a0200b 	mov	r2, fp
    dcec:	e1a01007 	mov	r1, r7
    dcf0:	e1a00004 	mov	r0, r4
    dcf4:	eafffe00 	b	d4fc <parse.constprop.0+0xa7c>
    dcf8:	e3010304 	movw	r0, #4868	; 0x1304
    dcfc:	e1a02008 	mov	r2, r8
    dd00:	e3400001 	movt	r0, #1
    dd04:	e3a01003 	mov	r1, #3
    dd08:	e1a0900c 	mov	r9, ip
    dd0c:	eb0001a9 	bl	e3b8 <tfp_printf>
    dd10:	eafffdf6 	b	d4f0 <parse.constprop.0+0xa70>
    dd14:	e3010358 	movw	r0, #4952	; 0x1358
    dd18:	e1a01007 	mov	r1, r7
    dd1c:	e3400001 	movt	r0, #1
    dd20:	eb0001a4 	bl	e3b8 <tfp_printf>
    dd24:	eafffdf1 	b	d4f0 <parse.constprop.0+0xa70>
    dd28:	e3010328 	movw	r0, #4904	; 0x1328
    dd2c:	e3a01003 	mov	r1, #3
    dd30:	e3400001 	movt	r0, #1
    dd34:	e1a0900c 	mov	r9, ip
    dd38:	eb00019e 	bl	e3b8 <tfp_printf>
    dd3c:	eafffdeb 	b	d4f0 <parse.constprop.0+0xa70>
    dd40:	e58d2004 	str	r2, [sp, #4]
    dd44:	e1a00004 	mov	r0, r4
    dd48:	ebffecd6 	bl	90a8 <iobuf_readbyte>
    dd4c:	e59d2004 	ldr	r2, [sp, #4]
    dd50:	e6ef1070 	uxtb	r1, r0
    dd54:	eaffffac 	b	dc0c <parse.constprop.0+0x118c>
    dd58:	e3c77002 	bic	r7, r7, #2
    dd5c:	e3570001 	cmp	r7, #1
    dd60:	0affff88 	beq	db88 <parse.constprop.0+0x1108>
    dd64:	e1a08009 	mov	r8, r9
    dd68:	eaffff82 	b	db78 <parse.constprop.0+0x10f8>

0000dd6c <dbg_parse_packet>:
    dd6c:	e92d40f0 	push	{r4, r5, r6, r7, lr}
    dd70:	e24dd01c 	sub	sp, sp, #28
    dd74:	e1a06000 	mov	r6, r0
    dd78:	e1a05001 	mov	r5, r1
    dd7c:	e28d7014 	add	r7, sp, #20
    dd80:	e3a04000 	mov	r4, #0
    dd84:	e58d4008 	str	r4, [sp, #8]
    dd88:	e3a03000 	mov	r3, #0
    dd8c:	e58d4004 	str	r4, [sp, #4]
    dd90:	e1a02003 	mov	r2, r3
    dd94:	e58d7000 	str	r7, [sp]
    dd98:	e1a01005 	mov	r1, r5
    dd9c:	e1a00006 	mov	r0, r6
    dda0:	ebfffb36 	bl	ca80 <parse.constprop.0>
    dda4:	e59d3014 	ldr	r3, [sp, #20]
    dda8:	e2533000 	subs	r3, r3, #0
    ddac:	13a03001 	movne	r3, #1
    ddb0:	e3500000 	cmp	r0, #0
    ddb4:	13a03000 	movne	r3, #0
    ddb8:	e3530000 	cmp	r3, #0
    ddbc:	1afffff0 	bne	dd84 <dbg_parse_packet+0x18>
    ddc0:	e28dd01c 	add	sp, sp, #28
    ddc4:	e8bd80f0 	pop	{r4, r5, r6, r7, pc}

0000ddc8 <ui2a>:
    ddc8:	e1500001 	cmp	r0, r1
    ddcc:	e3a0c001 	mov	ip, #1
    ddd0:	e92d4070 	push	{r4, r5, r6, lr}
    ddd4:	3a000028 	bcc	de7c <ui2a+0xb4>
    ddd8:	e00c0c91 	mul	ip, r1, ip
    dddc:	e73efc10 	udiv	lr, r0, ip
    dde0:	e15e0001 	cmp	lr, r1
    dde4:	2afffffb 	bcs	ddd8 <ui2a+0x10>
    dde8:	e35c0000 	cmp	ip, #0
    ddec:	0a000020 	beq	de74 <ui2a+0xac>
    ddf0:	e3a04000 	mov	r4, #0
    ddf4:	e35e0000 	cmp	lr, #0
    ddf8:	d3540000 	cmple	r4, #0
    ddfc:	e736f11c 	udiv	r6, ip, r1
    de00:	13a05001 	movne	r5, #1
    de04:	03a05000 	moveq	r5, #0
    de08:	e0600e9c 	mls	r0, ip, lr, r0
    de0c:	1a000008 	bne	de34 <ui2a+0x6c>
    de10:	e151000c 	cmp	r1, ip
    de14:	e1a04005 	mov	r4, r5
    de18:	9a000012 	bls	de68 <ui2a+0xa0>
    de1c:	e1a0c003 	mov	ip, r3
    de20:	e28ee030 	add	lr, lr, #48	; 0x30
    de24:	e4cce001 	strb	lr, [ip], #1
    de28:	e3a03000 	mov	r3, #0
    de2c:	e5cc3000 	strb	r3, [ip]
    de30:	e8bd8070 	pop	{r4, r5, r6, pc}
    de34:	e35e0009 	cmp	lr, #9
    de38:	d3a05030 	movle	r5, #48	; 0x30
    de3c:	da000002 	ble	de4c <ui2a+0x84>
    de40:	e3520000 	cmp	r2, #0
    de44:	13a05037 	movne	r5, #55	; 0x37
    de48:	03a05057 	moveq	r5, #87	; 0x57
    de4c:	e151000c 	cmp	r1, ip
    de50:	e1a0c003 	mov	ip, r3
    de54:	e085e00e 	add	lr, r5, lr
    de58:	e2844001 	add	r4, r4, #1
    de5c:	e4cce001 	strb	lr, [ip], #1
    de60:	e1a0300c 	mov	r3, ip
    de64:	8affffef 	bhi	de28 <ui2a+0x60>
    de68:	e73ef610 	udiv	lr, r0, r6
    de6c:	e1a0c006 	mov	ip, r6
    de70:	eaffffdf 	b	ddf4 <ui2a+0x2c>
    de74:	e1a0c003 	mov	ip, r3
    de78:	eaffffea 	b	de28 <ui2a+0x60>
    de7c:	e1a0e000 	mov	lr, r0
    de80:	eaffffda 	b	ddf0 <ui2a+0x28>

0000de84 <putchw>:
    de84:	e92d41f0 	push	{r4, r5, r6, r7, r8, lr}
    de88:	e1a07001 	mov	r7, r1
    de8c:	e59d5018 	ldr	r5, [sp, #24]
    de90:	e3530000 	cmp	r3, #0
    de94:	13a08030 	movne	r8, #48	; 0x30
    de98:	03a08020 	moveq	r8, #32
    de9c:	e4d51001 	ldrb	r1, [r5], #1
    dea0:	e1a06000 	mov	r6, r0
    dea4:	e3510000 	cmp	r1, #0
    dea8:	0a00001d 	beq	df24 <putchw+0xa0>
    deac:	e3520000 	cmp	r2, #0
    deb0:	da000015 	ble	df0c <putchw+0x88>
    deb4:	e1a03005 	mov	r3, r5
    deb8:	ea000001 	b	dec4 <putchw+0x40>
    debc:	e3520000 	cmp	r2, #0
    dec0:	0a000011 	beq	df0c <putchw+0x88>
    dec4:	e4d30001 	ldrb	r0, [r3], #1
    dec8:	e1a04002 	mov	r4, r2
    decc:	e2422001 	sub	r2, r2, #1
    ded0:	e3500000 	cmp	r0, #0
    ded4:	1afffff8 	bne	debc <putchw+0x38>
    ded8:	e3520000 	cmp	r2, #0
    dedc:	e2444002 	sub	r4, r4, #2
    dee0:	0a000009 	beq	df0c <putchw+0x88>
    dee4:	e1a01008 	mov	r1, r8
    dee8:	e1a00006 	mov	r0, r6
    deec:	e12fff37 	blx	r7
    def0:	e3540000 	cmp	r4, #0
    def4:	e2444001 	sub	r4, r4, #1
    def8:	cafffff9 	bgt	dee4 <putchw+0x60>
    defc:	e59d3018 	ldr	r3, [sp, #24]
    df00:	e5d31000 	ldrb	r1, [r3]
    df04:	e3510000 	cmp	r1, #0
    df08:	08bd81f0 	popeq	{r4, r5, r6, r7, r8, pc}
    df0c:	e1a00006 	mov	r0, r6
    df10:	e12fff37 	blx	r7
    df14:	e4d51001 	ldrb	r1, [r5], #1
    df18:	e3510000 	cmp	r1, #0
    df1c:	1afffffa 	bne	df0c <putchw+0x88>
    df20:	e8bd81f0 	pop	{r4, r5, r6, r7, r8, pc}
    df24:	e3520000 	cmp	r2, #0
    df28:	e2424001 	sub	r4, r2, #1
    df2c:	caffffec 	bgt	dee4 <putchw+0x60>
    df30:	e8bd81f0 	pop	{r4, r5, r6, r7, r8, pc}

0000df34 <tfp_format>:
    df34:	e92d4ff0 	push	{r4, r5, r6, r7, r8, r9, sl, fp, lr}
    df38:	e1a04002 	mov	r4, r2
    df3c:	e1a07001 	mov	r7, r1
    df40:	e24dd024 	sub	sp, sp, #36	; 0x24
    df44:	e4d21001 	ldrb	r1, [r2], #1
    df48:	e3510000 	cmp	r1, #0
    df4c:	0a000051 	beq	e098 <tfp_format+0x164>
    df50:	e30c9ccd 	movw	r9, #52429	; 0xcccd
    df54:	e1a06000 	mov	r6, r0
    df58:	e34c9ccc 	movt	r9, #52428	; 0xcccc
    df5c:	e1a0a003 	mov	sl, r3
    df60:	ea000006 	b	df80 <tfp_format+0x4c>
    df64:	e1a00006 	mov	r0, r6
    df68:	e1a04002 	mov	r4, r2
    df6c:	e12fff37 	blx	r7
    df70:	e1a02004 	mov	r2, r4
    df74:	e4d21001 	ldrb	r1, [r2], #1
    df78:	e3510000 	cmp	r1, #0
    df7c:	0a000045 	beq	e098 <tfp_format+0x164>
    df80:	e3510025 	cmp	r1, #37	; 0x25
    df84:	1afffff6 	bne	df64 <tfp_format+0x30>
    df88:	e5d42001 	ldrb	r2, [r4, #1]
    df8c:	e3a05000 	mov	r5, #0
    df90:	e3520030 	cmp	r2, #48	; 0x30
    df94:	12844002 	addne	r4, r4, #2
    df98:	13a08000 	movne	r8, #0
    df9c:	05d42002 	ldrbeq	r2, [r4, #2]
    dfa0:	03a08001 	moveq	r8, #1
    dfa4:	02844003 	addeq	r4, r4, #3
    dfa8:	e2421030 	sub	r1, r2, #48	; 0x30
    dfac:	e6ef3071 	uxtb	r3, r1
    dfb0:	e3530009 	cmp	r3, #9
    dfb4:	9a000065 	bls	e150 <tfp_format+0x21c>
    dfb8:	e352006c 	cmp	r2, #108	; 0x6c
    dfbc:	0a000037 	beq	e0a0 <tfp_format+0x16c>
    dfc0:	e352007a 	cmp	r2, #122	; 0x7a
    dfc4:	8affffe9 	bhi	df70 <tfp_format+0x3c>
    dfc8:	e3520057 	cmp	r2, #87	; 0x57
    dfcc:	9a000026 	bls	e06c <tfp_format+0x138>
    dfd0:	e2423058 	sub	r3, r2, #88	; 0x58
    dfd4:	e3530022 	cmp	r3, #34	; 0x22
    dfd8:	979ff103 	ldrls	pc, [pc, r3, lsl #2]
    dfdc:	eaffffe3 	b	df70 <tfp_format+0x3c>
    dfe0:	0000e328 	.word	0x0000e328
    dfe4:	0000df70 	.word	0x0000df70
    dfe8:	0000df70 	.word	0x0000df70
    dfec:	0000df70 	.word	0x0000df70
    dff0:	0000df70 	.word	0x0000df70
    dff4:	0000df70 	.word	0x0000df70
    dff8:	0000df70 	.word	0x0000df70
    dffc:	0000df70 	.word	0x0000df70
    e000:	0000df70 	.word	0x0000df70
    e004:	0000df70 	.word	0x0000df70
    e008:	0000df70 	.word	0x0000df70
    e00c:	0000e1e8 	.word	0x0000e1e8
    e010:	0000e1a0 	.word	0x0000e1a0
    e014:	0000df70 	.word	0x0000df70
    e018:	0000df70 	.word	0x0000df70
    e01c:	0000df70 	.word	0x0000df70
    e020:	0000df70 	.word	0x0000df70
    e024:	0000e1a0 	.word	0x0000e1a0
    e028:	0000df70 	.word	0x0000df70
    e02c:	0000df70 	.word	0x0000df70
    e030:	0000df70 	.word	0x0000df70
    e034:	0000df70 	.word	0x0000df70
    e038:	0000df70 	.word	0x0000df70
    e03c:	0000df70 	.word	0x0000df70
    e040:	0000e2c4 	.word	0x0000e2c4
    e044:	0000df70 	.word	0x0000df70
    e048:	0000df70 	.word	0x0000df70
    e04c:	0000e2a4 	.word	0x0000e2a4
    e050:	0000df70 	.word	0x0000df70
    e054:	0000e310 	.word	0x0000e310
    e058:	0000df70 	.word	0x0000df70
    e05c:	0000df70 	.word	0x0000df70
    e060:	0000e328 	.word	0x0000e328
    e064:	0000df70 	.word	0x0000df70
    e068:	0000e1fc 	.word	0x0000e1fc
    e06c:	e3520000 	cmp	r2, #0
    e070:	0a000008 	beq	e098 <tfp_format+0x164>
    e074:	e3520025 	cmp	r2, #37	; 0x25
    e078:	1affffbc 	bne	df70 <tfp_format+0x3c>
    e07c:	e3a01025 	mov	r1, #37	; 0x25
    e080:	e1a00006 	mov	r0, r6
    e084:	e12fff37 	blx	r7
    e088:	e1a02004 	mov	r2, r4
    e08c:	e4d21001 	ldrb	r1, [r2], #1
    e090:	e3510000 	cmp	r1, #0
    e094:	1affffb9 	bne	df80 <tfp_format+0x4c>
    e098:	e28dd024 	add	sp, sp, #36	; 0x24
    e09c:	e8bd8ff0 	pop	{r4, r5, r6, r7, r8, r9, sl, fp, pc}
    e0a0:	e4d42001 	ldrb	r2, [r4], #1
    e0a4:	e352007a 	cmp	r2, #122	; 0x7a
    e0a8:	8affffb0 	bhi	df70 <tfp_format+0x3c>
    e0ac:	e3520057 	cmp	r2, #87	; 0x57
    e0b0:	9affffed 	bls	e06c <tfp_format+0x138>
    e0b4:	e2423058 	sub	r3, r2, #88	; 0x58
    e0b8:	e3530022 	cmp	r3, #34	; 0x22
    e0bc:	979ff103 	ldrls	pc, [pc, r3, lsl #2]
    e0c0:	eaffffaa 	b	df70 <tfp_format+0x3c>
    e0c4:	0000e348 	.word	0x0000e348
    e0c8:	0000df70 	.word	0x0000df70
    e0cc:	0000df70 	.word	0x0000df70
    e0d0:	0000df70 	.word	0x0000df70
    e0d4:	0000df70 	.word	0x0000df70
    e0d8:	0000df70 	.word	0x0000df70
    e0dc:	0000df70 	.word	0x0000df70
    e0e0:	0000df70 	.word	0x0000df70
    e0e4:	0000df70 	.word	0x0000df70
    e0e8:	0000df70 	.word	0x0000df70
    e0ec:	0000df70 	.word	0x0000df70
    e0f0:	0000e1e8 	.word	0x0000e1e8
    e0f4:	0000e1a0 	.word	0x0000e1a0
    e0f8:	0000df70 	.word	0x0000df70
    e0fc:	0000df70 	.word	0x0000df70
    e100:	0000df70 	.word	0x0000df70
    e104:	0000df70 	.word	0x0000df70
    e108:	0000e1a0 	.word	0x0000e1a0
    e10c:	0000df70 	.word	0x0000df70
    e110:	0000df70 	.word	0x0000df70
    e114:	0000df70 	.word	0x0000df70
    e118:	0000df70 	.word	0x0000df70
    e11c:	0000df70 	.word	0x0000df70
    e120:	0000df70 	.word	0x0000df70
    e124:	0000e2c4 	.word	0x0000e2c4
    e128:	0000df70 	.word	0x0000df70
    e12c:	0000df70 	.word	0x0000df70
    e130:	0000e2a4 	.word	0x0000e2a4
    e134:	0000df70 	.word	0x0000df70
    e138:	0000e368 	.word	0x0000e368
    e13c:	0000df70 	.word	0x0000df70
    e140:	0000df70 	.word	0x0000df70
    e144:	0000e348 	.word	0x0000e348
    e148:	0000df70 	.word	0x0000df70
    e14c:	0000e1fc 	.word	0x0000e1fc
    e150:	e3a0e00a 	mov	lr, #10
    e154:	ea000002 	b	e164 <tfp_format+0x230>
    e158:	e4d42001 	ldrb	r2, [r4], #1
    e15c:	e025359e 	mla	r5, lr, r5, r3
    e160:	e2421030 	sub	r1, r2, #48	; 0x30
    e164:	e6ef3071 	uxtb	r3, r1
    e168:	e2420061 	sub	r0, r2, #97	; 0x61
    e16c:	e3530009 	cmp	r3, #9
    e170:	e242c041 	sub	ip, r2, #65	; 0x41
    e174:	e2423037 	sub	r3, r2, #55	; 0x37
    e178:	91a03001 	movls	r3, r1
    e17c:	9afffff5 	bls	e158 <tfp_format+0x224>
    e180:	e3500005 	cmp	r0, #5
    e184:	92423057 	subls	r3, r2, #87	; 0x57
    e188:	9a000001 	bls	e194 <tfp_format+0x260>
    e18c:	e35c0005 	cmp	ip, #5
    e190:	8affff88 	bhi	dfb8 <tfp_format+0x84>
    e194:	e353000a 	cmp	r3, #10
    e198:	0affffee 	beq	e158 <tfp_format+0x224>
    e19c:	eaffff85 	b	dfb8 <tfp_format+0x84>
    e1a0:	e49a0004 	ldr	r0, [sl], #4
    e1a4:	e3a02000 	mov	r2, #0
    e1a8:	e3a0100a 	mov	r1, #10
    e1ac:	e3500000 	cmp	r0, #0
    e1b0:	b3a0302d 	movlt	r3, #45	; 0x2d
    e1b4:	b2600000 	rsblt	r0, r0, #0
    e1b8:	b5cd3014 	strblt	r3, [sp, #20]
    e1bc:	a28d3014 	addge	r3, sp, #20
    e1c0:	b28d3015 	addlt	r3, sp, #21
    e1c4:	ebfffeff 	bl	ddc8 <ui2a>
    e1c8:	e28d3014 	add	r3, sp, #20
    e1cc:	e1a02005 	mov	r2, r5
    e1d0:	e58d3000 	str	r3, [sp]
    e1d4:	e1a01007 	mov	r1, r7
    e1d8:	e1a03008 	mov	r3, r8
    e1dc:	e1a00006 	mov	r0, r6
    e1e0:	ebffff27 	bl	de84 <putchw>
    e1e4:	eaffff61 	b	df70 <tfp_format+0x3c>
    e1e8:	e49a1004 	ldr	r1, [sl], #4
    e1ec:	e1a00006 	mov	r0, r6
    e1f0:	e6ef1071 	uxtb	r1, r1
    e1f4:	e12fff37 	blx	r7
    e1f8:	eaffff5c 	b	df70 <tfp_format+0x3c>
    e1fc:	e4d43001 	ldrb	r3, [r4], #1
    e200:	e3530075 	cmp	r3, #117	; 0x75
    e204:	1affff59 	bne	df70 <tfp_format+0x3c>
    e208:	e1a0300a 	mov	r3, sl
    e20c:	e493c004 	ldr	ip, [r3], #4
    e210:	e58d300c 	str	r3, [sp, #12]
    e214:	e35c0009 	cmp	ip, #9
    e218:	e3a03001 	mov	r3, #1
    e21c:	9a000063 	bls	e3b0 <tfp_format+0x47c>
    e220:	e3a0100a 	mov	r1, #10
    e224:	e0030391 	mul	r3, r1, r3
    e228:	e732f31c 	udiv	r2, ip, r3
    e22c:	e3520009 	cmp	r2, #9
    e230:	8afffffb 	bhi	e224 <tfp_format+0x2f0>
    e234:	e3530000 	cmp	r3, #0
    e238:	0a000050 	beq	e380 <tfp_format+0x44c>
    e23c:	e28db014 	add	fp, sp, #20
    e240:	e3a0a000 	mov	sl, #0
    e244:	e1a00002 	mov	r0, r2
    e248:	ea000005 	b	e264 <tfp_format+0x330>
    e24c:	e4ce0001 	strb	r0, [lr], #1
    e250:	e3530009 	cmp	r3, #9
    e254:	e1a0b00e 	mov	fp, lr
    e258:	9a000049 	bls	e384 <tfp_format+0x450>
    e25c:	e730f11c 	udiv	r0, ip, r1
    e260:	e1a03001 	mov	r3, r1
    e264:	e0812399 	umull	r2, r1, r9, r3
    e268:	e25a2000 	subs	r2, sl, #0
    e26c:	e1a0e00b 	mov	lr, fp
    e270:	13a02001 	movne	r2, #1
    e274:	e28aa001 	add	sl, sl, #1
    e278:	e06cc093 	mls	ip, r3, r0, ip
    e27c:	e3530009 	cmp	r3, #9
    e280:	93822001 	orrls	r2, r2, #1
    e284:	e3500000 	cmp	r0, #0
    e288:	c3822001 	orrgt	r2, r2, #1
    e28c:	e2800030 	add	r0, r0, #48	; 0x30
    e290:	e1a011a1 	lsr	r1, r1, #3
    e294:	e3520000 	cmp	r2, #0
    e298:	1affffeb 	bne	e24c <tfp_format+0x318>
    e29c:	e1a0a002 	mov	sl, r2
    e2a0:	eaffffed 	b	e25c <tfp_format+0x328>
    e2a4:	e49a3004 	ldr	r3, [sl], #4
    e2a8:	e1a02005 	mov	r2, r5
    e2ac:	e1a01007 	mov	r1, r7
    e2b0:	e1a00006 	mov	r0, r6
    e2b4:	e58d3000 	str	r3, [sp]
    e2b8:	e3a03000 	mov	r3, #0
    e2bc:	ebfffef0 	bl	de84 <putchw>
    e2c0:	eaffff2a 	b	df70 <tfp_format+0x3c>
    e2c4:	e1a00006 	mov	r0, r6
    e2c8:	e3a01030 	mov	r1, #48	; 0x30
    e2cc:	e12fff37 	blx	r7
    e2d0:	e1a00006 	mov	r0, r6
    e2d4:	e3a01078 	mov	r1, #120	; 0x78
    e2d8:	e12fff37 	blx	r7
    e2dc:	e49a0004 	ldr	r0, [sl], #4
    e2e0:	e28d3014 	add	r3, sp, #20
    e2e4:	e3a02001 	mov	r2, #1
    e2e8:	e3a01010 	mov	r1, #16
    e2ec:	ebfffeb5 	bl	ddc8 <ui2a>
    e2f0:	e28d2014 	add	r2, sp, #20
    e2f4:	e1a03008 	mov	r3, r8
    e2f8:	e58d2000 	str	r2, [sp]
    e2fc:	e1a01007 	mov	r1, r7
    e300:	e1a02005 	mov	r2, r5
    e304:	e1a00006 	mov	r0, r6
    e308:	ebfffedd 	bl	de84 <putchw>
    e30c:	eaffff17 	b	df70 <tfp_format+0x3c>
    e310:	e49a0004 	ldr	r0, [sl], #4
    e314:	e28d3014 	add	r3, sp, #20
    e318:	e3a02000 	mov	r2, #0
    e31c:	e3a0100a 	mov	r1, #10
    e320:	ebfffea8 	bl	ddc8 <ui2a>
    e324:	eaffffa7 	b	e1c8 <tfp_format+0x294>
    e328:	e49a0004 	ldr	r0, [sl], #4
    e32c:	e2422058 	sub	r2, r2, #88	; 0x58
    e330:	e16f2f12 	clz	r2, r2
    e334:	e28d3014 	add	r3, sp, #20
    e338:	e3a01010 	mov	r1, #16
    e33c:	e1a022a2 	lsr	r2, r2, #5
    e340:	ebfffea0 	bl	ddc8 <ui2a>
    e344:	eaffff9f 	b	e1c8 <tfp_format+0x294>
    e348:	e49a0004 	ldr	r0, [sl], #4
    e34c:	e2422058 	sub	r2, r2, #88	; 0x58
    e350:	e16f2f12 	clz	r2, r2
    e354:	e28d3014 	add	r3, sp, #20
    e358:	e3a01010 	mov	r1, #16
    e35c:	e1a022a2 	lsr	r2, r2, #5
    e360:	ebfffe98 	bl	ddc8 <ui2a>
    e364:	eaffff97 	b	e1c8 <tfp_format+0x294>
    e368:	e49a0004 	ldr	r0, [sl], #4
    e36c:	e28d3014 	add	r3, sp, #20
    e370:	e3a02000 	mov	r2, #0
    e374:	e3a0100a 	mov	r1, #10
    e378:	ebfffe92 	bl	ddc8 <ui2a>
    e37c:	eaffff91 	b	e1c8 <tfp_format+0x294>
    e380:	e28de014 	add	lr, sp, #20
    e384:	e59da00c 	ldr	sl, [sp, #12]
    e388:	e3a01000 	mov	r1, #0
    e38c:	e5ce1000 	strb	r1, [lr]
    e390:	e28d1014 	add	r1, sp, #20
    e394:	e58d1000 	str	r1, [sp]
    e398:	e1a03008 	mov	r3, r8
    e39c:	e1a02005 	mov	r2, r5
    e3a0:	e1a01007 	mov	r1, r7
    e3a4:	e1a00006 	mov	r0, r6
    e3a8:	ebfffeb5 	bl	de84 <putchw>
    e3ac:	eafffeef 	b	df70 <tfp_format+0x3c>
    e3b0:	e1a0200c 	mov	r2, ip
    e3b4:	eaffffa0 	b	e23c <tfp_format+0x308>

0000e3b8 <tfp_printf>:
    e3b8:	e92d000f 	push	{r0, r1, r2, r3}
    e3bc:	e307100c 	movw	r1, #28684	; 0x700c
    e3c0:	e3401004 	movt	r1, #4
    e3c4:	e3070010 	movw	r0, #28688	; 0x7010
    e3c8:	e52de004 	push	{lr}		; (str lr, [sp, #-4]!)
    e3cc:	e24dd00c 	sub	sp, sp, #12
    e3d0:	e3400004 	movt	r0, #4
    e3d4:	e28d3014 	add	r3, sp, #20
    e3d8:	e59d2010 	ldr	r2, [sp, #16]
    e3dc:	e5911000 	ldr	r1, [r1]
    e3e0:	e5900000 	ldr	r0, [r0]
    e3e4:	e58d3004 	str	r3, [sp, #4]
    e3e8:	ebfffed1 	bl	df34 <tfp_format>
    e3ec:	e28dd00c 	add	sp, sp, #12
    e3f0:	e49de004 	pop	{lr}		; (ldr lr, [sp], #4)
    e3f4:	e28dd010 	add	sp, sp, #16
    e3f8:	e12fff1e 	bx	lr

0000e3fc <putc_uart>:
    e3fc:	e3a03a01 	mov	r3, #4096	; 0x1000
    e400:	e341301f 	movt	r3, #4127	; 0x101f
    e404:	e5831000 	str	r1, [r3]
    e408:	e12fff1e 	bx	lr

0000e40c <strlen>:
    e40c:	e5d03000 	ldrb	r3, [r0]
    e410:	e3530000 	cmp	r3, #0
    e414:	0a000005 	beq	e430 <strlen+0x24>
    e418:	e1a03000 	mov	r3, r0
    e41c:	e5f32001 	ldrb	r2, [r3, #1]!
    e420:	e3520000 	cmp	r2, #0
    e424:	1afffffc 	bne	e41c <strlen+0x10>
    e428:	e0430000 	sub	r0, r3, r0
    e42c:	e12fff1e 	bx	lr
    e430:	e1a00003 	mov	r0, r3
    e434:	e12fff1e 	bx	lr

0000e438 <do_proc_packets>:
    e438:	e92d4ff0 	push	{r4, r5, r6, r7, r8, r9, sl, fp, lr}
    e43c:	e1a04000 	mov	r4, r0
    e440:	e590001c 	ldr	r0, [r0, #28]
    e444:	e24dd02c 	sub	sp, sp, #44	; 0x2c
    e448:	e1a05001 	mov	r5, r1
    e44c:	e1a07002 	mov	r7, r2
    e450:	e3500000 	cmp	r0, #0
    e454:	0a000009 	beq	e480 <do_proc_packets+0x48>
    e458:	ebffffeb 	bl	e40c <strlen>
    e45c:	e2806001 	add	r6, r0, #1
    e460:	e1a00006 	mov	r0, r6
    e464:	ebfff828 	bl	c50c <malloc>
    e468:	e5850034 	str	r0, [r5, #52]	; 0x34
    e46c:	e3500000 	cmp	r0, #0
    e470:	0a000002 	beq	e480 <do_proc_packets+0x48>
    e474:	e594101c 	ldr	r1, [r4, #28]
    e478:	e1a02006 	mov	r2, r6
    e47c:	ebfff8ee 	bl	c83c <memcpy>
    e480:	e5943020 	ldr	r3, [r4, #32]
    e484:	e1a04005 	mov	r4, r5
    e488:	e585301c 	str	r3, [r5, #28]
    e48c:	e3a03000 	mov	r3, #0
    e490:	e5944004 	ldr	r4, [r4, #4]
    e494:	e2833001 	add	r3, r3, #1
    e498:	e3540000 	cmp	r4, #0
    e49c:	1afffffb 	bne	e490 <do_proc_packets+0x58>
    e4a0:	e3530020 	cmp	r3, #32
    e4a4:	ca00008b 	bgt	e6d8 <do_proc_packets+0x2a0>
    e4a8:	e3a00008 	mov	r0, #8
    e4ac:	e3079014 	movw	r9, #28692	; 0x7014
    e4b0:	e3409004 	movt	r9, #4
    e4b4:	ebfff876 	bl	c694 <xmalloc>
    e4b8:	e5857040 	str	r7, [r5, #64]	; 0x40
    e4bc:	e1a08004 	mov	r8, r4
    e4c0:	e5c04000 	strb	r4, [r0]
    e4c4:	e1a06000 	mov	r6, r0
    e4c8:	e58d7010 	str	r7, [sp, #16]
    e4cc:	e3017588 	movw	r7, #5512	; 0x1588
    e4d0:	e3407001 	movt	r7, #1
    e4d4:	e5804004 	str	r4, [r0, #4]
    e4d8:	e5cd4014 	strb	r4, [sp, #20]
    e4dc:	e58d4018 	str	r4, [sp, #24]
    e4e0:	e58d401c 	str	r4, [sp, #28]
    e4e4:	e58d4020 	str	r4, [sp, #32]
    e4e8:	e58d4024 	str	r4, [sp, #36]	; 0x24
    e4ec:	e301a574 	movw	sl, #5492	; 0x1574
    e4f0:	e340a001 	movt	sl, #1
    e4f4:	e30037a7 	movw	r3, #1959	; 0x7a7
    e4f8:	e1a02007 	mov	r2, r7
    e4fc:	e1a01006 	mov	r1, r6
    e500:	e28d0010 	add	r0, sp, #16
    e504:	ebfffe18 	bl	dd6c <dbg_parse_packet>
    e508:	e3700001 	cmn	r0, #1
    e50c:	e1a04000 	mov	r4, r0
    e510:	0a00008c 	beq	e748 <do_proc_packets+0x310>
    e514:	e3540000 	cmp	r4, #0
    e518:	1a00008c 	bne	e750 <do_proc_packets+0x318>
    e51c:	e5953014 	ldr	r3, [r5, #20]
    e520:	e3530000 	cmp	r3, #0
    e524:	0a00002b 	beq	e5d8 <do_proc_packets+0x1a0>
    e528:	e5d63000 	ldrb	r3, [r6]
    e52c:	e2432003 	sub	r2, r3, #3
    e530:	e3520011 	cmp	r2, #17
    e534:	979ff102 	ldrls	pc, [pc, r2, lsl #2]
    e538:	ea000032 	b	e608 <do_proc_packets+0x1d0>
    e53c:	0000e584 	.word	0x0000e584
    e540:	0000e608 	.word	0x0000e608
    e544:	0000e690 	.word	0x0000e690
    e548:	0000e690 	.word	0x0000e690
    e54c:	0000e608 	.word	0x0000e608
    e550:	0000e608 	.word	0x0000e608
    e554:	0000e640 	.word	0x0000e640
    e558:	0000e608 	.word	0x0000e608
    e55c:	0000e608 	.word	0x0000e608
    e560:	0000e608 	.word	0x0000e608
    e564:	0000e690 	.word	0x0000e690
    e568:	0000e608 	.word	0x0000e608
    e56c:	0000e608 	.word	0x0000e608
    e570:	0000e608 	.word	0x0000e608
    e574:	0000e608 	.word	0x0000e608
    e578:	0000e640 	.word	0x0000e640
    e57c:	0000e608 	.word	0x0000e608
    e580:	0000e640 	.word	0x0000e640
    e584:	e5964004 	ldr	r4, [r6, #4]
    e588:	e3540000 	cmp	r4, #0
    e58c:	0a000064 	beq	e724 <do_proc_packets+0x2ec>
    e590:	e595302c 	ldr	r3, [r5, #44]	; 0x2c
    e594:	e3530000 	cmp	r3, #0
    e598:	0a000070 	beq	e760 <do_proc_packets+0x328>
    e59c:	e3a01010 	mov	r1, #16
    e5a0:	e3a00001 	mov	r0, #1
    e5a4:	ebfff85d 	bl	c720 <xcalloc>
    e5a8:	e5d43001 	ldrb	r3, [r4, #1]
    e5ac:	e5803004 	str	r3, [r0, #4]
    e5b0:	e5d43002 	ldrb	r3, [r4, #2]
    e5b4:	e16f3f13 	clz	r3, r3
    e5b8:	e1a032a3 	lsr	r3, r3, #5
    e5bc:	e5803008 	str	r3, [r0, #8]
    e5c0:	e5953048 	ldr	r3, [r5, #72]	; 0x48
    e5c4:	e5952050 	ldr	r2, [r5, #80]	; 0x50
    e5c8:	e2833001 	add	r3, r3, #1
    e5cc:	e5802000 	str	r2, [r0]
    e5d0:	e5850050 	str	r0, [r5, #80]	; 0x50
    e5d4:	e5853048 	str	r3, [r5, #72]	; 0x48
    e5d8:	e5d63000 	ldrb	r3, [r6]
    e5dc:	e3530002 	cmp	r3, #2
    e5e0:	13530013 	cmpne	r3, #19
    e5e4:	0a000005 	beq	e600 <do_proc_packets+0x1c8>
    e5e8:	e5d5205c 	ldrb	r2, [r5, #92]	; 0x5c
    e5ec:	e243300b 	sub	r3, r3, #11
    e5f0:	e16f3f13 	clz	r3, r3
    e5f4:	e1a032a3 	lsr	r3, r3, #5
    e5f8:	e7c12093 	bfi	r2, r3, #1, #1
    e5fc:	e5c5205c 	strb	r2, [r5, #92]	; 0x5c
    e600:	e3a08001 	mov	r8, #1
    e604:	eaffffba 	b	e4f4 <do_proc_packets+0xbc>
    e608:	e3530002 	cmp	r3, #2
    e60c:	13530013 	cmpne	r3, #19
    e610:	0a000005 	beq	e62c <do_proc_packets+0x1f4>
    e614:	e5d5205c 	ldrb	r2, [r5, #92]	; 0x5c
    e618:	e243300b 	sub	r3, r3, #11
    e61c:	e16f3f13 	clz	r3, r3
    e620:	e1a032a3 	lsr	r3, r3, #5
    e624:	e7c12093 	bfi	r2, r3, #1, #1
    e628:	e5c5205c 	strb	r2, [r5, #92]	; 0x5c
    e62c:	e28d1010 	add	r1, sp, #16
    e630:	e1a00006 	mov	r0, r6
    e634:	e3a08001 	mov	r8, #1
    e638:	ebffef66 	bl	a3d8 <free_packet>
    e63c:	eaffffaa 	b	e4ec <do_proc_packets+0xb4>
    e640:	e5992000 	ldr	r2, [r9]
    e644:	e3530014 	cmp	r3, #20
    e648:	03a03001 	moveq	r3, #1
    e64c:	05853054 	streq	r3, [r5, #84]	; 0x54
    e650:	0a000002 	beq	e660 <do_proc_packets+0x228>
    e654:	e3530012 	cmp	r3, #18
    e658:	03a03001 	moveq	r3, #1
    e65c:	05853058 	streq	r3, [r5, #88]	; 0x58
    e660:	e3520000 	cmp	r2, #0
    e664:	1a000026 	bne	e704 <do_proc_packets+0x2cc>
    e668:	e5962004 	ldr	r2, [r6, #4]
    e66c:	e28d100c 	add	r1, sp, #12
    e670:	e595302c 	ldr	r3, [r5, #44]	; 0x2c
    e674:	e5950000 	ldr	r0, [r5]
    e678:	e58d1000 	str	r1, [sp]
    e67c:	e1a01005 	mov	r1, r5
    e680:	ebffee83 	bl	a094 <decrypt_data>
    e684:	e1a0000a 	mov	r0, sl
    e688:	ebffff4a 	bl	e3b8 <tfp_printf>
    e68c:	eaffffd1 	b	e5d8 <do_proc_packets+0x1a0>
    e690:	e3a04026 	mov	r4, #38	; 0x26
    e694:	e595002c 	ldr	r0, [r5, #44]	; 0x2c
    e698:	ebfff838 	bl	c780 <xfree>
    e69c:	e28d1010 	add	r1, sp, #16
    e6a0:	e1a00006 	mov	r0, r6
    e6a4:	ebffef4b 	bl	a3d8 <free_packet>
    e6a8:	e59d301c 	ldr	r3, [sp, #28]
    e6ac:	e3530000 	cmp	r3, #0
    e6b0:	1a000004 	bne	e6c8 <do_proc_packets+0x290>
    e6b4:	e1a00006 	mov	r0, r6
    e6b8:	ebfff830 	bl	c780 <xfree>
    e6bc:	e1a00004 	mov	r0, r4
    e6c0:	e28dd02c 	add	sp, sp, #44	; 0x2c
    e6c4:	e8bd8ff0 	pop	{r4, r5, r6, r7, r8, r9, sl, fp, pc}
    e6c8:	e28d1010 	add	r1, sp, #16
    e6cc:	e3a00000 	mov	r0, #0
    e6d0:	ebffef40 	bl	a3d8 <free_packet>
    e6d4:	eafffff6 	b	e6b4 <do_proc_packets+0x27c>
    e6d8:	e30104e0 	movw	r0, #5344	; 0x14e0
    e6dc:	e3a04059 	mov	r4, #89	; 0x59
    e6e0:	e3400001 	movt	r0, #1
    e6e4:	ebffff33 	bl	e3b8 <tfp_printf>
    e6e8:	e301150c 	movw	r1, #5388	; 0x150c
    e6ec:	e3a0003c 	mov	r0, #60	; 0x3c
    e6f0:	e3401001 	movt	r1, #1
    e6f4:	ebffff2f 	bl	e3b8 <tfp_printf>
    e6f8:	e1a00004 	mov	r0, r4
    e6fc:	e28dd02c 	add	sp, sp, #44	; 0x2c
    e700:	e8bd8ff0 	pop	{r4, r5, r6, r7, r8, r9, sl, fp, pc}
    e704:	e3010534 	movw	r0, #5428	; 0x1534
    e708:	e3400001 	movt	r0, #1
    e70c:	ebffff29 	bl	e3b8 <tfp_printf>
    e710:	e3010558 	movw	r0, #5464	; 0x1558
    e714:	e3a01059 	mov	r1, #89	; 0x59
    e718:	e3400001 	movt	r0, #1
    e71c:	ebffff25 	bl	e3b8 <tfp_printf>
    e720:	eaffffd0 	b	e668 <do_proc_packets+0x230>
    e724:	e3010510 	movw	r0, #5392	; 0x1510
    e728:	e3400001 	movt	r0, #1
    e72c:	ebffff21 	bl	e3b8 <tfp_printf>
    e730:	e3a01010 	mov	r1, #16
    e734:	e3a00001 	mov	r0, #1
    e738:	ebfff7f8 	bl	c720 <xcalloc>
    e73c:	e3a03001 	mov	r3, #1
    e740:	e580300c 	str	r3, [r0, #12]
    e744:	eaffff9d 	b	e5c0 <do_proc_packets+0x188>
    e748:	e2484001 	sub	r4, r8, #1
    e74c:	eaffffd0 	b	e694 <do_proc_packets+0x25c>
    e750:	e28d1010 	add	r1, sp, #16
    e754:	e1a00006 	mov	r0, r6
    e758:	ebffef1e 	bl	a3d8 <free_packet>
    e75c:	eaffffcc 	b	e694 <do_proc_packets+0x25c>
    e760:	e5950034 	ldr	r0, [r5, #52]	; 0x34
    e764:	e3a03002 	mov	r3, #2
    e768:	e5853038 	str	r3, [r5, #56]	; 0x38
    e76c:	ebffff26 	bl	e40c <strlen>
    e770:	e595b02c 	ldr	fp, [r5, #44]	; 0x2c
    e774:	e2808001 	add	r8, r0, #1
    e778:	e1a00008 	mov	r0, r8
    e77c:	ebfff762 	bl	c50c <malloc>
    e780:	e595302c 	ldr	r3, [r5, #44]	; 0x2c
    e784:	e1a02008 	mov	r2, r8
    e788:	e58b000c 	str	r0, [fp, #12]
    e78c:	e5951034 	ldr	r1, [r5, #52]	; 0x34
    e790:	e593000c 	ldr	r0, [r3, #12]
    e794:	ebfff828 	bl	c83c <memcpy>
    e798:	e595202c 	ldr	r2, [r5, #44]	; 0x2c
    e79c:	e3520000 	cmp	r2, #0
    e7a0:	0affff7d 	beq	e59c <do_proc_packets+0x164>
    e7a4:	e5d43002 	ldrb	r3, [r4, #2]
    e7a8:	e5d21008 	ldrb	r1, [r2, #8]
    e7ac:	e1a03083 	lsl	r3, r3, #1
    e7b0:	e3c1105f 	bic	r1, r1, #95	; 0x5f
    e7b4:	e203301e 	and	r3, r3, #30
    e7b8:	e3833041 	orr	r3, r3, #65	; 0x41
    e7bc:	e1833001 	orr	r3, r3, r1
    e7c0:	e5c23008 	strb	r3, [r2, #8]
    e7c4:	eaffff74 	b	e59c <do_proc_packets+0x164>

0000e7c8 <proc_packets>:
    e7c8:	e92d41f0 	push	{r4, r5, r6, r7, r8, lr}
    e7cc:	e1a05000 	mov	r5, r0
    e7d0:	e3010598 	movw	r0, #5528	; 0x1598
    e7d4:	e1a06001 	mov	r6, r1
    e7d8:	e3400001 	movt	r0, #1
    e7dc:	e1a07002 	mov	r7, r2
    e7e0:	ebfffef4 	bl	e3b8 <tfp_printf>
    e7e4:	e3a00060 	mov	r0, #96	; 0x60
    e7e8:	ebfff7be 	bl	c6e8 <xmalloc_clear>
    e7ec:	e5805000 	str	r5, [r0]
    e7f0:	e1a01000 	mov	r1, r0
    e7f4:	e5806004 	str	r6, [r0, #4]
    e7f8:	e1a04000 	mov	r4, r0
    e7fc:	e1a02007 	mov	r2, r7
    e800:	e1a00005 	mov	r0, r5
    e804:	ebffff0b 	bl	e438 <do_proc_packets>
    e808:	e1a05000 	mov	r5, r0
    e80c:	e1a00004 	mov	r0, r4
    e810:	ebfff7da 	bl	c780 <xfree>
    e814:	e1a00005 	mov	r0, r5
    e818:	e8bd81f0 	pop	{r4, r5, r6, r7, r8, pc}

0000e81c <proc_encryption_packets>:
    e81c:	e92d4070 	push	{r4, r5, r6, lr}
    e820:	e1a04000 	mov	r4, r0
    e824:	e3a00060 	mov	r0, #96	; 0x60
    e828:	e1a05001 	mov	r5, r1
    e82c:	e1a06002 	mov	r6, r2
    e830:	ebfff7ac 	bl	c6e8 <xmalloc_clear>
    e834:	e5804000 	str	r4, [r0]
    e838:	e1a01000 	mov	r1, r0
    e83c:	e3a03001 	mov	r3, #1
    e840:	e1a02006 	mov	r2, r6
    e844:	e5815004 	str	r5, [r1, #4]
    e848:	e1a00004 	mov	r0, r4
    e84c:	e5813014 	str	r3, [r1, #20]
    e850:	e8bd4070 	pop	{r4, r5, r6, lr}
    e854:	eafffef7 	b	e438 <do_proc_packets>
