
build/patchedKernel.img:     file format elf32-littlearm


Disassembly of section .text:

00008000 <__text_start>:
    8000:	e3a0d302 	mov	sp, #134217728	; 0x8000000
    8004:	eb000000 	bl	800c <main>
    8008:	eafffffe 	b	8008 <__text_start+0x8>

0000800c <main>:
    800c:	e92d4070 	push	{r4, r5, r6, lr}
    8010:	e3a00000 	mov	r0, #0
    8014:	e59f50fc 	ldr	r5, [pc, #252]	; 8118 <main+0x10c>
    8018:	e59f30fc 	ldr	r3, [pc, #252]	; 811c <main+0x110>
    801c:	e08f5005 	add	r5, pc, r5
    8020:	e7951003 	ldr	r1, [r5, r3]
    8024:	eb000046 	bl	8144 <init_printf>
    8028:	e3a00024 	mov	r0, #36	; 0x24
    802c:	eb001310 	bl	cc74 <malloc>
    8030:	e2504000 	subs	r4, r0, #0
    8034:	0a00002b 	beq	80e8 <main+0xdc>
    8038:	e3a02024 	mov	r2, #36	; 0x24
    803c:	e3a01000 	mov	r1, #0
    8040:	eb001375 	bl	ce1c <memset>
    8044:	e3a00021 	mov	r0, #33	; 0x21
    8048:	eb001309 	bl	cc74 <malloc>
    804c:	e584001c 	str	r0, [r4, #28]
    8050:	e3500000 	cmp	r0, #0
    8054:	0a00002b 	beq	8108 <main+0xfc>
    8058:	e59f30c0 	ldr	r3, [pc, #192]	; 8120 <main+0x114>
    805c:	e08f3003 	add	r3, pc, r3
    8060:	e0400003 	sub	r0, r0, r3
    8064:	e0831000 	add	r1, r3, r0
    8068:	e4d32001 	ldrb	r2, [r3], #1
    806c:	e5c12000 	strb	r2, [r1]
    8070:	e3520000 	cmp	r2, #0
    8074:	1afffffa 	bne	8064 <main+0x58>
    8078:	e59f00a4 	ldr	r0, [pc, #164]	; 8124 <main+0x118>
    807c:	e30c2afe 	movw	r2, #51966	; 0xcafe
    8080:	e34b2abe 	movt	r2, #47806	; 0xbabe
    8084:	e30b1eef 	movw	r1, #48879	; 0xbeef
    8088:	e08f0000 	add	r0, pc, r0
    808c:	e34d1ead 	movt	r1, #57005	; 0xdead
    8090:	eb001b81 	bl	ee9c <tfp_printf>
    8094:	e59f208c 	ldr	r2, [pc, #140]	; 8128 <main+0x11c>
    8098:	e1a00004 	mov	r0, r4
    809c:	e59f3088 	ldr	r3, [pc, #136]	; 812c <main+0x120>
    80a0:	e7952002 	ldr	r2, [r5, r2]
    80a4:	e7951003 	ldr	r1, [r5, r3]
    80a8:	e5922000 	ldr	r2, [r2]
    80ac:	eb00086c 	bl	a264 <decrypt_memory>
    80b0:	e2501000 	subs	r1, r0, #0
    80b4:	1a00000f 	bne	80f8 <main+0xec>
    80b8:	e59f0070 	ldr	r0, [pc, #112]	; 8130 <main+0x124>
    80bc:	e30c2afe 	movw	r2, #51966	; 0xcafe
    80c0:	e34b2abe 	movt	r2, #47806	; 0xbabe
    80c4:	e30b1eef 	movw	r1, #48879	; 0xbeef
    80c8:	e08f0000 	add	r0, pc, r0
    80cc:	e34d1ead 	movt	r1, #57005	; 0xdead
    80d0:	eb001b71 	bl	ee9c <tfp_printf>
    80d4:	e59f0058 	ldr	r0, [pc, #88]	; 8134 <main+0x128>
    80d8:	e08f0000 	add	r0, pc, r0
    80dc:	eb001b6e 	bl	ee9c <tfp_printf>
    80e0:	e320f003 	wfi
    80e4:	eafffffd 	b	80e0 <main+0xd4>
    80e8:	e59f0048 	ldr	r0, [pc, #72]	; 8138 <main+0x12c>
    80ec:	e08f0000 	add	r0, pc, r0
    80f0:	eb001b69 	bl	ee9c <tfp_printf>
    80f4:	eafffff9 	b	80e0 <main+0xd4>
    80f8:	e59f003c 	ldr	r0, [pc, #60]	; 813c <main+0x130>
    80fc:	e08f0000 	add	r0, pc, r0
    8100:	eb001b65 	bl	ee9c <tfp_printf>
    8104:	eaffffeb 	b	80b8 <main+0xac>
    8108:	e59f0030 	ldr	r0, [pc, #48]	; 8140 <main+0x134>
    810c:	e08f0000 	add	r0, pc, r0
    8110:	eb001b61 	bl	ee9c <tfp_printf>
    8114:	eafffff1 	b	80e0 <main+0xd4>
    8118:	0000cb1c 	.word	0x0000cb1c
    811c:	00015670 	.word	0x00015670
    8120:	0000c604 	.word	0x0000c604
    8124:	0000c644 	.word	0x0000c644
    8128:	0001565c 	.word	0x0001565c
    812c:	00015648 	.word	0x00015648
    8130:	0000c654 	.word	0x0000c654
    8134:	0000c670 	.word	0x0000c670
    8138:	0000c598 	.word	0x0000c598
    813c:	0000c5fc 	.word	0x0000c5fc
    8140:	0000c5a0 	.word	0x0000c5a0

00008144 <init_printf>:
    8144:	e59f2014 	ldr	r2, [pc, #20]	; 8160 <init_printf+0x1c>
    8148:	e59f3014 	ldr	r3, [pc, #20]	; 8164 <init_printf+0x20>
    814c:	e08f2002 	add	r2, pc, r2
    8150:	e08f3003 	add	r3, pc, r3
    8154:	e5821000 	str	r1, [r2]
    8158:	e5830000 	str	r0, [r3]
    815c:	e12fff1e 	bx	lr
    8160:	00042eb8 	.word	0x00042eb8
    8164:	00042eb8 	.word	0x00042eb8

00008168 <fd_cache_invalidate>:
    8168:	e92d4070 	push	{r4, r5, r6, lr}
    816c:	e1a05000 	mov	r5, r0
    8170:	e59f403c 	ldr	r4, [pc, #60]	; 81b4 <fd_cache_invalidate+0x4c>
    8174:	eb001b48 	bl	ee9c <tfp_printf>
    8178:	e59f2038 	ldr	r2, [pc, #56]	; 81b8 <fd_cache_invalidate+0x50>
    817c:	e08f4004 	add	r4, pc, r4
    8180:	e1a03004 	mov	r3, r4
    8184:	e7943002 	ldr	r3, [r4, r2]
    8188:	e5933000 	ldr	r3, [r3]
    818c:	e3530000 	cmp	r3, #0
    8190:	1a000001 	bne	819c <fd_cache_invalidate+0x34>
    8194:	e3a00000 	mov	r0, #0
    8198:	e8bd8070 	pop	{r4, r5, r6, pc}
    819c:	e59f0018 	ldr	r0, [pc, #24]	; 81bc <fd_cache_invalidate+0x54>
    81a0:	e1a01005 	mov	r1, r5
    81a4:	e08f0000 	add	r0, pc, r0
    81a8:	eb001b3b 	bl	ee9c <tfp_printf>
    81ac:	e3a00000 	mov	r0, #0
    81b0:	e8bd8070 	pop	{r4, r5, r6, pc}
    81b4:	0000c9bc 	.word	0x0000c9bc
    81b8:	00015650 	.word	0x00015650
    81bc:	00008e44 	.word	0x00008e44

000081c0 <file_filter>:
    81c0:	e92d41f0 	push	{r4, r5, r6, r7, r8, lr}
    81c4:	e3510003 	cmp	r1, #3
    81c8:	e59d6018 	ldr	r6, [sp, #24]
    81cc:	e1a04000 	mov	r4, r0
    81d0:	e59fc14c 	ldr	ip, [pc, #332]	; 8324 <file_filter+0x164>
    81d4:	e1a05003 	mov	r5, r3
    81d8:	e5967000 	ldr	r7, [r6]
    81dc:	e08fc00c 	add	ip, pc, ip
    81e0:	0a00000d 	beq	821c <file_filter+0x5c>
    81e4:	e3510004 	cmp	r1, #4
    81e8:	0a000007 	beq	820c <file_filter+0x4c>
    81ec:	e3510001 	cmp	r1, #1
    81f0:	0a000018 	beq	8258 <file_filter+0x98>
    81f4:	e3510007 	cmp	r1, #7
    81f8:	0a00003b 	beq	82ec <file_filter+0x12c>
    81fc:	e3510002 	cmp	r1, #2
    8200:	0a000029 	beq	82ac <file_filter+0xec>
    8204:	e3a00000 	mov	r0, #0
    8208:	e8bd81f0 	pop	{r4, r5, r6, r7, r8, pc}
    820c:	e3a03000 	mov	r3, #0
    8210:	e5863000 	str	r3, [r6]
    8214:	e1a00003 	mov	r0, r3
    8218:	e8bd81f0 	pop	{r4, r5, r6, r7, r8, pc}
    821c:	e1a00007 	mov	r0, r7
    8220:	eb001b1d 	bl	ee9c <tfp_printf>
    8224:	e5d43034 	ldrb	r3, [r4, #52]	; 0x34
    8228:	e5d42035 	ldrb	r2, [r4, #53]	; 0x35
    822c:	e1530002 	cmp	r3, r2
    8230:	8a00000f 	bhi	8274 <file_filter+0xb4>
    8234:	e594000c 	ldr	r0, [r4, #12]
    8238:	e3500000 	cmp	r0, #0
    823c:	e3e00000 	mvn	r0, #0
    8240:	13a03000 	movne	r3, #0
    8244:	03a02001 	moveq	r2, #1
    8248:	0584200c 	streq	r2, [r4, #12]
    824c:	03a03000 	moveq	r3, #0
    8250:	e5863000 	str	r3, [r6]
    8254:	e8bd81f0 	pop	{r4, r5, r6, r7, r8, pc}
    8258:	e3a03000 	mov	r3, #0
    825c:	e580300c 	str	r3, [r0, #12]
    8260:	e1a00003 	mov	r0, r3
    8264:	e5843004 	str	r3, [r4, #4]
    8268:	e5843008 	str	r3, [r4, #8]
    826c:	e1c433b4 	strh	r3, [r4, #52]	; 0x34
    8270:	e8bd81f0 	pop	{r4, r5, r6, r7, r8, pc}
    8274:	e0433002 	sub	r3, r3, r2
    8278:	e2841014 	add	r1, r4, #20
    827c:	e1570003 	cmp	r7, r3
    8280:	e1a00005 	mov	r0, r5
    8284:	e0811002 	add	r1, r1, r2
    8288:	21a07003 	movcs	r7, r3
    828c:	e1a02007 	mov	r2, r7
    8290:	eb001318 	bl	cef8 <memcpy>
    8294:	e5d43035 	ldrb	r3, [r4, #53]	; 0x35
    8298:	e3a00000 	mov	r0, #0
    829c:	e0833007 	add	r3, r3, r7
    82a0:	e5c43035 	strb	r3, [r4, #53]	; 0x35
    82a4:	e5867000 	str	r7, [r6]
    82a8:	e8bd81f0 	pop	{r4, r5, r6, r7, r8, pc}
    82ac:	e5902000 	ldr	r2, [r0]
    82b0:	e3520001 	cmp	r2, #1
    82b4:	9a000008 	bls	82dc <file_filter+0x11c>
    82b8:	e59f3068 	ldr	r3, [pc, #104]	; 8328 <file_filter+0x168>
    82bc:	e79c3003 	ldr	r3, [ip, r3]
    82c0:	e5933000 	ldr	r3, [r3]
    82c4:	e3530000 	cmp	r3, #0
    82c8:	0a000003 	beq	82dc <file_filter+0x11c>
    82cc:	e59f0058 	ldr	r0, [pc, #88]	; 832c <file_filter+0x16c>
    82d0:	e2841036 	add	r1, r4, #54	; 0x36
    82d4:	e08f0000 	add	r0, pc, r0
    82d8:	eb001aef 	bl	ee9c <tfp_printf>
    82dc:	e1a00004 	mov	r0, r4
    82e0:	eb0012ca 	bl	ce10 <xfree>
    82e4:	e3a00000 	mov	r0, #0
    82e8:	e8bd81f0 	pop	{r4, r5, r6, r7, r8, pc}
    82ec:	e5d02034 	ldrb	r2, [r0, #52]	; 0x34
    82f0:	e3a03000 	mov	r3, #0
    82f4:	e1530003 	cmp	r3, r3
    82f8:	e2801014 	add	r1, r0, #20
    82fc:	03a03001 	moveq	r3, #1
    8300:	0580300c 	streq	r3, [r0, #12]
    8304:	e1a00005 	mov	r0, r5
    8308:	e1520007 	cmp	r2, r7
    830c:	31a07002 	movcc	r7, r2
    8310:	e1a02007 	mov	r2, r7
    8314:	eb0012f7 	bl	cef8 <memcpy>
    8318:	e5867000 	str	r7, [r6]
    831c:	e3a00000 	mov	r0, #0
    8320:	e8bd81f0 	pop	{r4, r5, r6, r7, r8, pc}
    8324:	0000c95c 	.word	0x0000c95c
    8328:	00015650 	.word	0x00015650
    832c:	00008d30 	.word	0x00008d30

00008330 <filter_flush>:
    8330:	e92d4030 	push	{r4, r5, lr}
    8334:	e1a04000 	mov	r4, r0
    8338:	e5d03000 	ldrb	r3, [r0]
    833c:	e24dd014 	sub	sp, sp, #20
    8340:	e59f20f4 	ldr	r2, [pc, #244]	; 843c <filter_flush+0x10c>
    8344:	e3530003 	cmp	r3, #3
    8348:	e08f2002 	add	r2, pc, r2
    834c:	0a000021 	beq	83d8 <filter_flush+0xa8>
    8350:	e3530002 	cmp	r3, #2
    8354:	1a00001a 	bne	83c4 <filter_flush+0x94>
    8358:	e590502c 	ldr	r5, [r0, #44]	; 0x2c
    835c:	e3550000 	cmp	r5, #0
    8360:	0a000030 	beq	8428 <filter_flush+0xf8>
    8364:	e594101c 	ldr	r1, [r4, #28]
    8368:	e28d200c 	add	r2, sp, #12
    836c:	e5943020 	ldr	r3, [r4, #32]
    8370:	e58d100c 	str	r1, [sp, #12]
    8374:	e3a01004 	mov	r1, #4
    8378:	e58d2000 	str	r2, [sp]
    837c:	e594203c 	ldr	r2, [r4, #60]	; 0x3c
    8380:	e5940030 	ldr	r0, [r4, #48]	; 0x30
    8384:	e12fff35 	blx	r5
    8388:	e3500000 	cmp	r0, #0
    838c:	15840028 	strne	r0, [r4, #40]	; 0x28
    8390:	1a000007 	bne	83b4 <filter_flush+0x84>
    8394:	e594201c 	ldr	r2, [r4, #28]
    8398:	e59d300c 	ldr	r3, [sp, #12]
    839c:	e1520003 	cmp	r2, r3
    83a0:	0a000003 	beq	83b4 <filter_flush+0x84>
    83a4:	e59f0094 	ldr	r0, [pc, #148]	; 8440 <filter_flush+0x110>
    83a8:	e08f0000 	add	r0, pc, r0
    83ac:	eb001aba 	bl	ee9c <tfp_printf>
    83b0:	e3a0003f 	mov	r0, #63	; 0x3f
    83b4:	e3a03000 	mov	r3, #0
    83b8:	e584301c 	str	r3, [r4, #28]
    83bc:	e28dd014 	add	sp, sp, #20
    83c0:	e8bd8030 	pop	{r4, r5, pc}
    83c4:	e59f0078 	ldr	r0, [pc, #120]	; 8444 <filter_flush+0x114>
    83c8:	e08f0000 	add	r0, pc, r0
    83cc:	eb001ab2 	bl	ee9c <tfp_printf>
    83d0:	e594502c 	ldr	r5, [r4, #44]	; 0x2c
    83d4:	eaffffe2 	b	8364 <filter_flush+0x34>
    83d8:	e59f3068 	ldr	r3, [pc, #104]	; 8448 <filter_flush+0x118>
    83dc:	e5901014 	ldr	r1, [r0, #20]
    83e0:	e7923003 	ldr	r3, [r2, r3]
    83e4:	e2815a02 	add	r5, r1, #8192	; 0x2000
    83e8:	e5933000 	ldr	r3, [r3]
    83ec:	e3530000 	cmp	r3, #0
    83f0:	1a000007 	bne	8414 <filter_flush+0xe4>
    83f4:	e5940020 	ldr	r0, [r4, #32]
    83f8:	e1a01005 	mov	r1, r5
    83fc:	eb0012c6 	bl	cf1c <xrealloc>
    8400:	e5840020 	str	r0, [r4, #32]
    8404:	e3a00000 	mov	r0, #0
    8408:	e5845014 	str	r5, [r4, #20]
    840c:	e28dd014 	add	sp, sp, #20
    8410:	e8bd8030 	pop	{r4, r5, pc}
    8414:	e59f0030 	ldr	r0, [pc, #48]	; 844c <filter_flush+0x11c>
    8418:	e1a02005 	mov	r2, r5
    841c:	e08f0000 	add	r0, pc, r0
    8420:	eb001a9d 	bl	ee9c <tfp_printf>
    8424:	eafffff2 	b	83f4 <filter_flush+0xc4>
    8428:	e59f0020 	ldr	r0, [pc, #32]	; 8450 <filter_flush+0x120>
    842c:	e08f0000 	add	r0, pc, r0
    8430:	eb001a99 	bl	ee9c <tfp_printf>
    8434:	e594502c 	ldr	r5, [r4, #44]	; 0x2c
    8438:	eaffffc9 	b	8364 <filter_flush+0x34>
    843c:	0000c7f0 	.word	0x0000c7f0
    8440:	00008cd4 	.word	0x00008cd4
    8444:	00008c7c 	.word	0x00008c7c
    8448:	00015650 	.word	0x00015650
    844c:	00008c00 	.word	0x00008c00
    8450:	00008c34 	.word	0x00008c34

00008454 <print_chain.part.0>:
    8454:	e92d4ff0 	push	{r4, r5, r6, r7, r8, r9, sl, fp, lr}
    8458:	e2504000 	subs	r4, r0, #0
    845c:	e24dd03c 	sub	sp, sp, #60	; 0x3c
    8460:	0a000026 	beq	8500 <print_chain.part.0+0xac>
    8464:	e59fb09c 	ldr	fp, [pc, #156]	; 8508 <print_chain.part.0+0xb4>
    8468:	e28d6018 	add	r6, sp, #24
    846c:	e59fa098 	ldr	sl, [pc, #152]	; 850c <print_chain.part.0+0xb8>
    8470:	e3a09020 	mov	r9, #32
    8474:	e08fb00b 	add	fp, pc, fp
    8478:	e08fa00a 	add	sl, pc, sl
    847c:	ea000010 	b	84c4 <print_chain.part.0+0x70>
    8480:	e5940030 	ldr	r0, [r4, #48]	; 0x30
    8484:	e58dc000 	str	ip, [sp]
    8488:	e12fff35 	blx	r5
    848c:	e594201c 	ldr	r2, [r4, #28]
    8490:	e1a03006 	mov	r3, r6
    8494:	e1a01007 	mov	r1, r7
    8498:	e1a0000a 	mov	r0, sl
    849c:	e58d2008 	str	r2, [sp, #8]
    84a0:	e5942018 	ldr	r2, [r4, #24]
    84a4:	e58d2004 	str	r2, [sp, #4]
    84a8:	e5942024 	ldr	r2, [r4, #36]	; 0x24
    84ac:	e58d2000 	str	r2, [sp]
    84b0:	e1a02008 	mov	r2, r8
    84b4:	eb001a78 	bl	ee9c <tfp_printf>
    84b8:	e594403c 	ldr	r4, [r4, #60]	; 0x3c
    84bc:	e3540000 	cmp	r4, #0
    84c0:	0a00000e 	beq	8500 <print_chain.part.0+0xac>
    84c4:	e594502c 	ldr	r5, [r4, #44]	; 0x2c
    84c8:	e28dc014 	add	ip, sp, #20
    84cc:	e5947040 	ldr	r7, [r4, #64]	; 0x40
    84d0:	e1a03006 	mov	r3, r6
    84d4:	e5948044 	ldr	r8, [r4, #68]	; 0x44
    84d8:	e3550000 	cmp	r5, #0
    84dc:	e58d9014 	str	r9, [sp, #20]
    84e0:	e3a02000 	mov	r2, #0
    84e4:	e3a01005 	mov	r1, #5
    84e8:	1affffe4 	bne	8480 <print_chain.part.0+0x2c>
    84ec:	e3a02002 	mov	r2, #2
    84f0:	e1a0100b 	mov	r1, fp
    84f4:	e1a00006 	mov	r0, r6
    84f8:	eb00127e 	bl	cef8 <memcpy>
    84fc:	eaffffe2 	b	848c <print_chain.part.0+0x38>
    8500:	e28dd03c 	add	sp, sp, #60	; 0x3c
    8504:	e8bd8ff0 	pop	{r4, r5, r6, r7, r8, r9, sl, fp, pc}
    8508:	00008c2c 	.word	0x00008c2c
    850c:	00008c2c 	.word	0x00008c2c

00008510 <fd_cache_open>:
    8510:	e92d4070 	push	{r4, r5, r6, lr}
    8514:	e1a04000 	mov	r4, r0
    8518:	e59f0090 	ldr	r0, [pc, #144]	; 85b0 <fd_cache_open+0xa0>
    851c:	e1a05001 	mov	r5, r1
    8520:	e1a01004 	mov	r1, r4
    8524:	e08f0000 	add	r0, pc, r0
    8528:	eb001a5b 	bl	ee9c <tfp_printf>
    852c:	e3a0102b 	mov	r1, #43	; 0x2b
    8530:	e1a00005 	mov	r0, r5
    8534:	eb0012d0 	bl	d07c <strchr>
    8538:	e3500000 	cmp	r0, #0
    853c:	0a000010 	beq	8584 <fd_cache_open+0x74>
    8540:	e1a00004 	mov	r0, r4
    8544:	ebffff07 	bl	8168 <fd_cache_invalidate>
    8548:	e3500000 	cmp	r0, #0
    854c:	03a06002 	moveq	r6, #2
    8550:	1a000009 	bne	857c <fd_cache_open+0x6c>
    8554:	e3a01062 	mov	r1, #98	; 0x62
    8558:	e1a00005 	mov	r0, r5
    855c:	eb0012c6 	bl	d07c <strchr>
    8560:	e3500000 	cmp	r0, #0
    8564:	e30021b6 	movw	r2, #438	; 0x1b6
    8568:	13866801 	orrne	r6, r6, #65536	; 0x10000
    856c:	e1a00004 	mov	r0, r4
    8570:	e1a01006 	mov	r1, r6
    8574:	e8bd4070 	pop	{r4, r5, r6, lr}
    8578:	ea0012db 	b	d0ec <open>
    857c:	e3e00000 	mvn	r0, #0
    8580:	e8bd8070 	pop	{r4, r5, r6, pc}
    8584:	e3a01077 	mov	r1, #119	; 0x77
    8588:	e1a00005 	mov	r0, r5
    858c:	eb0012ba 	bl	d07c <strchr>
    8590:	e2506000 	subs	r6, r0, #0
    8594:	0affffee 	beq	8554 <fd_cache_open+0x44>
    8598:	e1a00004 	mov	r0, r4
    859c:	ebfffef1 	bl	8168 <fd_cache_invalidate>
    85a0:	e3500000 	cmp	r0, #0
    85a4:	1afffff4 	bne	857c <fd_cache_open+0x6c>
    85a8:	e3006601 	movw	r6, #1537	; 0x601
    85ac:	eaffffe8 	b	8554 <fd_cache_open+0x44>
    85b0:	00008bb8 	.word	0x00008bb8

000085b4 <iobuf_alloc>:
    85b4:	e1a03000 	mov	r3, r0
    85b8:	e92d4030 	push	{r4, r5, lr}
    85bc:	e24dd00c 	sub	sp, sp, #12
    85c0:	e59f0098 	ldr	r0, [pc, #152]	; 8660 <iobuf_alloc+0xac>
    85c4:	e3530003 	cmp	r3, #3
    85c8:	e58d1004 	str	r1, [sp, #4]
    85cc:	83a02000 	movhi	r2, #0
    85d0:	e08f0000 	add	r0, pc, r0
    85d4:	e1a01003 	mov	r1, r3
    85d8:	93a02001 	movls	r2, #1
    85dc:	e1a05003 	mov	r5, r3
    85e0:	eb001a2d 	bl	ee9c <tfp_printf>
    85e4:	e59d3004 	ldr	r3, [sp, #4]
    85e8:	e3530000 	cmp	r3, #0
    85ec:	0a000015 	beq	8648 <iobuf_alloc+0x94>
    85f0:	e3a01048 	mov	r1, #72	; 0x48
    85f4:	e3a00001 	mov	r0, #1
    85f8:	eb00122d 	bl	ceb4 <xcalloc>
    85fc:	e1a04000 	mov	r4, r0
    8600:	e59d0004 	ldr	r0, [sp, #4]
    8604:	e5c45000 	strb	r5, [r4]
    8608:	eb00120c 	bl	ce40 <xmalloc>
    860c:	e59f2050 	ldr	r2, [pc, #80]	; 8664 <iobuf_alloc+0xb0>
    8610:	e3a01000 	mov	r1, #0
    8614:	e59d3004 	ldr	r3, [sp, #4]
    8618:	e08f2002 	add	r2, pc, r2
    861c:	e5843014 	str	r3, [r4, #20]
    8620:	e5923000 	ldr	r3, [r2]
    8624:	e5840020 	str	r0, [r4, #32]
    8628:	e1a00004 	mov	r0, r4
    862c:	e5841044 	str	r1, [r4, #68]	; 0x44
    8630:	e2833001 	add	r3, r3, #1
    8634:	e5841038 	str	r1, [r4, #56]	; 0x38
    8638:	e5823000 	str	r3, [r2]
    863c:	e5843040 	str	r3, [r4, #64]	; 0x40
    8640:	e28dd00c 	add	sp, sp, #12
    8644:	e8bd8030 	pop	{r4, r5, pc}
    8648:	e59f0018 	ldr	r0, [pc, #24]	; 8668 <iobuf_alloc+0xb4>
    864c:	e3a03a02 	mov	r3, #8192	; 0x2000
    8650:	e58d3004 	str	r3, [sp, #4]
    8654:	e08f0000 	add	r0, pc, r0
    8658:	eb001a0f 	bl	ee9c <tfp_printf>
    865c:	eaffffe3 	b	85f0 <iobuf_alloc+0x3c>
    8660:	00008b2c 	.word	0x00008b2c
    8664:	000429e4 	.word	0x000429e4
    8668:	00008ac0 	.word	0x00008ac0

0000866c <iobuf_temp_with_content>:
    866c:	e92d4070 	push	{r4, r5, r6, lr}
    8670:	e1a04000 	mov	r4, r0
    8674:	e3a00001 	mov	r0, #1
    8678:	e1a06001 	mov	r6, r1
    867c:	ebffffcc 	bl	85b4 <iobuf_alloc>
    8680:	e1a05000 	mov	r5, r0
    8684:	e59f0044 	ldr	r0, [pc, #68]	; 86d0 <iobuf_temp_with_content+0x64>
    8688:	e5951014 	ldr	r1, [r5, #20]
    868c:	e08f0000 	add	r0, pc, r0
    8690:	eb001a01 	bl	ee9c <tfp_printf>
    8694:	e3560000 	cmp	r6, #0
    8698:	0a000009 	beq	86c4 <iobuf_temp_with_content+0x58>
    869c:	e0841006 	add	r1, r4, r6
    86a0:	e2443001 	sub	r3, r4, #1
    86a4:	e2411001 	sub	r1, r1, #1
    86a8:	e2644001 	rsb	r4, r4, #1
    86ac:	e0842003 	add	r2, r4, r3
    86b0:	e5f3e001 	ldrb	lr, [r3, #1]!
    86b4:	e595c020 	ldr	ip, [r5, #32]
    86b8:	e1530001 	cmp	r3, r1
    86bc:	e7cce002 	strb	lr, [ip, r2]
    86c0:	1afffff9 	bne	86ac <iobuf_temp_with_content+0x40>
    86c4:	e585601c 	str	r6, [r5, #28]
    86c8:	e1a00005 	mov	r0, r5
    86cc:	e8bd8070 	pop	{r4, r5, r6, pc}
    86d0:	00008ab0 	.word	0x00008ab0

000086d4 <iobuf_ioctl>:
    86d4:	e92d4ff0 	push	{r4, r5, r6, r7, r8, r9, sl, fp, lr}
    86d8:	e1a04000 	mov	r4, r0
    86dc:	e59f0418 	ldr	r0, [pc, #1048]	; 8afc <iobuf_ioctl+0x428>
    86e0:	e1a05001 	mov	r5, r1
    86e4:	e59f8414 	ldr	r8, [pc, #1044]	; 8b00 <iobuf_ioctl+0x42c>
    86e8:	e24dd034 	sub	sp, sp, #52	; 0x34
    86ec:	e08f0000 	add	r0, pc, r0
    86f0:	e1a06002 	mov	r6, r2
    86f4:	e08f8008 	add	r8, pc, r8
    86f8:	e1a07003 	mov	r7, r3
    86fc:	eb0019e6 	bl	ee9c <tfp_printf>
    8700:	e3550001 	cmp	r5, #1
    8704:	0a000057 	beq	8868 <iobuf_ioctl+0x194>
    8708:	e3550002 	cmp	r5, #2
    870c:	0a000039 	beq	87f8 <iobuf_ioctl+0x124>
    8710:	e3550003 	cmp	r5, #3
    8714:	0a000097 	beq	8978 <iobuf_ioctl+0x2a4>
    8718:	e3550004 	cmp	r5, #4
    871c:	0a00007f 	beq	8920 <iobuf_ioctl+0x24c>
    8720:	e3550005 	cmp	r5, #5
    8724:	1a00004c 	bne	885c <iobuf_ioctl+0x188>
    8728:	e59f33d4 	ldr	r3, [pc, #980]	; 8b04 <iobuf_ioctl+0x430>
    872c:	e7983003 	ldr	r3, [r8, r3]
    8730:	e5933000 	ldr	r3, [r3]
    8734:	e3530000 	cmp	r3, #0
    8738:	0a000016 	beq	8798 <iobuf_ioctl+0xc4>
    873c:	e3540000 	cmp	r4, #0
    8740:	0a0000d9 	beq	8aac <iobuf_ioctl+0x3d8>
    8744:	e594a02c 	ldr	sl, [r4, #44]	; 0x2c
    8748:	e3a03020 	mov	r3, #32
    874c:	e594b040 	ldr	fp, [r4, #64]	; 0x40
    8750:	e5949044 	ldr	r9, [r4, #68]	; 0x44
    8754:	e35a0000 	cmp	sl, #0
    8758:	e58d300c 	str	r3, [sp, #12]
    875c:	0a0000d6 	beq	8abc <iobuf_ioctl+0x3e8>
    8760:	e5940030 	ldr	r0, [r4, #48]	; 0x30
    8764:	e28d300c 	add	r3, sp, #12
    8768:	e58d3000 	str	r3, [sp]
    876c:	e1a01005 	mov	r1, r5
    8770:	e28d5010 	add	r5, sp, #16
    8774:	e3a02000 	mov	r2, #0
    8778:	e1a03005 	mov	r3, r5
    877c:	e12fff3a 	blx	sl
    8780:	e59f0380 	ldr	r0, [pc, #896]	; 8b08 <iobuf_ioctl+0x434>
    8784:	e1a03005 	mov	r3, r5
    8788:	e1a02009 	mov	r2, r9
    878c:	e1a0100b 	mov	r1, fp
    8790:	e08f0000 	add	r0, pc, r0
    8794:	eb0019c0 	bl	ee9c <tfp_printf>
    8798:	e59f336c 	ldr	r3, [pc, #876]	; 8b0c <iobuf_ioctl+0x438>
    879c:	e594202c 	ldr	r2, [r4, #44]	; 0x2c
    87a0:	e7983003 	ldr	r3, [r8, r3]
    87a4:	e1520003 	cmp	r2, r3
    87a8:	1a00002b 	bne	885c <iobuf_ioctl+0x188>
    87ac:	e3570000 	cmp	r7, #0
    87b0:	13560000 	cmpne	r6, #0
    87b4:	0a000028 	beq	885c <iobuf_ioctl+0x188>
    87b8:	e59f0350 	ldr	r0, [pc, #848]	; 8b10 <iobuf_ioctl+0x43c>
    87bc:	e08f0000 	add	r0, pc, r0
    87c0:	eb0019b5 	bl	ee9c <tfp_printf>
    87c4:	e5940030 	ldr	r0, [r4, #48]	; 0x30
    87c8:	e28d300c 	add	r3, sp, #12
    87cc:	e58d3000 	str	r3, [sp]
    87d0:	e3a02000 	mov	r2, #0
    87d4:	e58d600c 	str	r6, [sp, #12]
    87d8:	e1a03007 	mov	r3, r7
    87dc:	e3a01007 	mov	r1, #7
    87e0:	ebfffe76 	bl	81c0 <file_filter>
    87e4:	e3500000 	cmp	r0, #0
    87e8:	1a00001b 	bne	885c <iobuf_ioctl+0x188>
    87ec:	e59d000c 	ldr	r0, [sp, #12]
    87f0:	e28dd034 	add	sp, sp, #52	; 0x34
    87f4:	e8bd8ff0 	pop	{r4, r5, r6, r7, r8, r9, sl, fp, pc}
    87f8:	e59f3304 	ldr	r3, [pc, #772]	; 8b04 <iobuf_ioctl+0x430>
    87fc:	e7983003 	ldr	r3, [r8, r3]
    8800:	e5933000 	ldr	r3, [r3]
    8804:	e3530000 	cmp	r3, #0
    8808:	1a00003d 	bne	8904 <iobuf_ioctl+0x230>
    880c:	e2573000 	subs	r3, r7, #0
    8810:	e1844006 	orr	r4, r4, r6
    8814:	13a03001 	movne	r3, #1
    8818:	e3540000 	cmp	r4, #0
    881c:	13a03000 	movne	r3, #0
    8820:	e3530000 	cmp	r3, #0
    8824:	0a00000c 	beq	885c <iobuf_ioctl+0x188>
    8828:	e1a00007 	mov	r0, r7
    882c:	ebfffe4d 	bl	8168 <fd_cache_invalidate>
    8830:	e2500000 	subs	r0, r0, #0
    8834:	13a00001 	movne	r0, #1
    8838:	e2600000 	rsb	r0, r0, #0
    883c:	e28dd034 	add	sp, sp, #52	; 0x34
    8840:	e8bd8ff0 	pop	{r4, r5, r6, r7, r8, r9, sl, fp, pc}
    8844:	e594003c 	ldr	r0, [r4, #60]	; 0x3c
    8848:	e3500000 	cmp	r0, #0
    884c:	0a000023 	beq	88e0 <iobuf_ioctl+0x20c>
    8850:	e1a04000 	mov	r4, r0
    8854:	e3540000 	cmp	r4, #0
    8858:	1afffff9 	bne	8844 <iobuf_ioctl+0x170>
    885c:	e3e00000 	mvn	r0, #0
    8860:	e28dd034 	add	sp, sp, #52	; 0x34
    8864:	e8bd8ff0 	pop	{r4, r5, r6, r7, r8, r9, sl, fp, pc}
    8868:	e59f3294 	ldr	r3, [pc, #660]	; 8b04 <iobuf_ioctl+0x430>
    886c:	e7983003 	ldr	r3, [r8, r3]
    8870:	e5933000 	ldr	r3, [r3]
    8874:	e3530000 	cmp	r3, #0
    8878:	0afffff5 	beq	8854 <iobuf_ioctl+0x180>
    887c:	e3540000 	cmp	r4, #0
    8880:	0a00006b 	beq	8a34 <iobuf_ioctl+0x360>
    8884:	e594902c 	ldr	r9, [r4, #44]	; 0x2c
    8888:	e3a03020 	mov	r3, #32
    888c:	e594a040 	ldr	sl, [r4, #64]	; 0x40
    8890:	e5947044 	ldr	r7, [r4, #68]	; 0x44
    8894:	e3590000 	cmp	r9, #0
    8898:	e58d300c 	str	r3, [sp, #12]
    889c:	0a000068 	beq	8a44 <iobuf_ioctl+0x370>
    88a0:	e5940030 	ldr	r0, [r4, #48]	; 0x30
    88a4:	e28d300c 	add	r3, sp, #12
    88a8:	e58d3000 	str	r3, [sp]
    88ac:	e28d5010 	add	r5, sp, #16
    88b0:	e1a03005 	mov	r3, r5
    88b4:	e3a02000 	mov	r2, #0
    88b8:	e3a01005 	mov	r1, #5
    88bc:	e12fff39 	blx	r9
    88c0:	e59f024c 	ldr	r0, [pc, #588]	; 8b14 <iobuf_ioctl+0x440>
    88c4:	e1a03005 	mov	r3, r5
    88c8:	e58d6000 	str	r6, [sp]
    88cc:	e1a02007 	mov	r2, r7
    88d0:	e08f0000 	add	r0, pc, r0
    88d4:	e1a0100a 	mov	r1, sl
    88d8:	eb00196f 	bl	ee9c <tfp_printf>
    88dc:	eaffffdc 	b	8854 <iobuf_ioctl+0x180>
    88e0:	e59f3224 	ldr	r3, [pc, #548]	; 8b0c <iobuf_ioctl+0x438>
    88e4:	e594202c 	ldr	r2, [r4, #44]	; 0x2c
    88e8:	e7983003 	ldr	r3, [r8, r3]
    88ec:	e1520003 	cmp	r2, r3
    88f0:	05943030 	ldreq	r3, [r4, #48]	; 0x30
    88f4:	05836004 	streq	r6, [r3, #4]
    88f8:	0affffcf 	beq	883c <iobuf_ioctl+0x168>
    88fc:	e3e00000 	mvn	r0, #0
    8900:	eaffffd6 	b	8860 <iobuf_ioctl+0x18c>
    8904:	e3570000 	cmp	r7, #0
    8908:	11a01007 	movne	r1, r7
    890c:	0a000071 	beq	8ad8 <iobuf_ioctl+0x404>
    8910:	e59f0200 	ldr	r0, [pc, #512]	; 8b18 <iobuf_ioctl+0x444>
    8914:	e08f0000 	add	r0, pc, r0
    8918:	eb00195f 	bl	ee9c <tfp_printf>
    891c:	eaffffba 	b	880c <iobuf_ioctl+0x138>
    8920:	e59f31dc 	ldr	r3, [pc, #476]	; 8b04 <iobuf_ioctl+0x430>
    8924:	e7985003 	ldr	r5, [r8, r3]
    8928:	e5950000 	ldr	r0, [r5]
    892c:	e3500000 	cmp	r0, #0
    8930:	0a00004a 	beq	8a60 <iobuf_ioctl+0x38c>
    8934:	e3570000 	cmp	r7, #0
    8938:	0a000069 	beq	8ae4 <iobuf_ioctl+0x410>
    893c:	e59f01d8 	ldr	r0, [pc, #472]	; 8b1c <iobuf_ioctl+0x448>
    8940:	e1a01007 	mov	r1, r7
    8944:	e08f0000 	add	r0, pc, r0
    8948:	eb001953 	bl	ee9c <tfp_printf>
    894c:	e1943006 	orrs	r3, r4, r6
    8950:	1affffc1 	bne	885c <iobuf_ioctl+0x188>
    8954:	e5950000 	ldr	r0, [r5]
    8958:	e3500000 	cmp	r0, #0
    895c:	0affffb6 	beq	883c <iobuf_ioctl+0x168>
    8960:	e59f01b8 	ldr	r0, [pc, #440]	; 8b20 <iobuf_ioctl+0x44c>
    8964:	e1a01007 	mov	r1, r7
    8968:	e08f0000 	add	r0, pc, r0
    896c:	eb00194a 	bl	ee9c <tfp_printf>
    8970:	e3a00000 	mov	r0, #0
    8974:	eaffffb0 	b	883c <iobuf_ioctl+0x168>
    8978:	e59f3184 	ldr	r3, [pc, #388]	; 8b04 <iobuf_ioctl+0x430>
    897c:	e7983003 	ldr	r3, [r8, r3]
    8980:	e5933000 	ldr	r3, [r3]
    8984:	e3530000 	cmp	r3, #0
    8988:	0a00001c 	beq	8a00 <iobuf_ioctl+0x32c>
    898c:	e3540000 	cmp	r4, #0
    8990:	0a00003a 	beq	8a80 <iobuf_ioctl+0x3ac>
    8994:	e594902c 	ldr	r9, [r4, #44]	; 0x2c
    8998:	e3a03020 	mov	r3, #32
    899c:	e594a040 	ldr	sl, [r4, #64]	; 0x40
    89a0:	e5947044 	ldr	r7, [r4, #68]	; 0x44
    89a4:	e3590000 	cmp	r9, #0
    89a8:	e58d300c 	str	r3, [sp, #12]
    89ac:	0a000037 	beq	8a90 <iobuf_ioctl+0x3bc>
    89b0:	e5940030 	ldr	r0, [r4, #48]	; 0x30
    89b4:	e28d300c 	add	r3, sp, #12
    89b8:	e58d3000 	str	r3, [sp]
    89bc:	e28d5010 	add	r5, sp, #16
    89c0:	e1a03005 	mov	r3, r5
    89c4:	e3a02000 	mov	r2, #0
    89c8:	e3a01005 	mov	r1, #5
    89cc:	e12fff39 	blx	r9
    89d0:	e59f014c 	ldr	r0, [pc, #332]	; 8b24 <iobuf_ioctl+0x450>
    89d4:	e1a03005 	mov	r3, r5
    89d8:	e58d6000 	str	r6, [sp]
    89dc:	e1a02007 	mov	r2, r7
    89e0:	e08f0000 	add	r0, pc, r0
    89e4:	e1a0100a 	mov	r1, sl
    89e8:	eb00192b 	bl	ee9c <tfp_printf>
    89ec:	ea000003 	b	8a00 <iobuf_ioctl+0x32c>
    89f0:	e594303c 	ldr	r3, [r4, #60]	; 0x3c
    89f4:	e3530000 	cmp	r3, #0
    89f8:	0a000003 	beq	8a0c <iobuf_ioctl+0x338>
    89fc:	e1a04003 	mov	r4, r3
    8a00:	e3540000 	cmp	r4, #0
    8a04:	1afffff9 	bne	89f0 <iobuf_ioctl+0x31c>
    8a08:	eaffff93 	b	885c <iobuf_ioctl+0x188>
    8a0c:	e59f20f8 	ldr	r2, [pc, #248]	; 8b0c <iobuf_ioctl+0x438>
    8a10:	e594102c 	ldr	r1, [r4, #44]	; 0x2c
    8a14:	e7982002 	ldr	r2, [r8, r2]
    8a18:	e1510002 	cmp	r1, r2
    8a1c:	01a00003 	moveq	r0, r3
    8a20:	05942030 	ldreq	r2, [r4, #48]	; 0x30
    8a24:	05826008 	streq	r6, [r2, #8]
    8a28:	0affff83 	beq	883c <iobuf_ioctl+0x168>
    8a2c:	e3e00000 	mvn	r0, #0
    8a30:	eaffff8a 	b	8860 <iobuf_ioctl+0x18c>
    8a34:	e3e07000 	mvn	r7, #0
    8a38:	e3a03020 	mov	r3, #32
    8a3c:	e58d300c 	str	r3, [sp, #12]
    8a40:	e1a0a007 	mov	sl, r7
    8a44:	e59f10dc 	ldr	r1, [pc, #220]	; 8b28 <iobuf_ioctl+0x454>
    8a48:	e28d5010 	add	r5, sp, #16
    8a4c:	e3a02002 	mov	r2, #2
    8a50:	e1a00005 	mov	r0, r5
    8a54:	e08f1001 	add	r1, pc, r1
    8a58:	eb001126 	bl	cef8 <memcpy>
    8a5c:	eaffff97 	b	88c0 <iobuf_ioctl+0x1ec>
    8a60:	e2577000 	subs	r7, r7, #0
    8a64:	e1844006 	orr	r4, r4, r6
    8a68:	13a07001 	movne	r7, #1
    8a6c:	e3540000 	cmp	r4, #0
    8a70:	13a07000 	movne	r7, #0
    8a74:	e3570000 	cmp	r7, #0
    8a78:	1affff6f 	bne	883c <iobuf_ioctl+0x168>
    8a7c:	eaffff76 	b	885c <iobuf_ioctl+0x188>
    8a80:	e3e07000 	mvn	r7, #0
    8a84:	e3a03020 	mov	r3, #32
    8a88:	e58d300c 	str	r3, [sp, #12]
    8a8c:	e1a0a007 	mov	sl, r7
    8a90:	e59f1094 	ldr	r1, [pc, #148]	; 8b2c <iobuf_ioctl+0x458>
    8a94:	e28d5010 	add	r5, sp, #16
    8a98:	e3a02002 	mov	r2, #2
    8a9c:	e1a00005 	mov	r0, r5
    8aa0:	e08f1001 	add	r1, pc, r1
    8aa4:	eb001113 	bl	cef8 <memcpy>
    8aa8:	eaffffc8 	b	89d0 <iobuf_ioctl+0x2fc>
    8aac:	e3e09000 	mvn	r9, #0
    8ab0:	e3a03020 	mov	r3, #32
    8ab4:	e58d300c 	str	r3, [sp, #12]
    8ab8:	e1a0b009 	mov	fp, r9
    8abc:	e59f106c 	ldr	r1, [pc, #108]	; 8b30 <iobuf_ioctl+0x45c>
    8ac0:	e28d5010 	add	r5, sp, #16
    8ac4:	e3a02002 	mov	r2, #2
    8ac8:	e1a00005 	mov	r0, r5
    8acc:	e08f1001 	add	r1, pc, r1
    8ad0:	eb001108 	bl	cef8 <memcpy>
    8ad4:	eaffff29 	b	8780 <iobuf_ioctl+0xac>
    8ad8:	e59f1054 	ldr	r1, [pc, #84]	; 8b34 <iobuf_ioctl+0x460>
    8adc:	e08f1001 	add	r1, pc, r1
    8ae0:	eaffff8a 	b	8910 <iobuf_ioctl+0x23c>
    8ae4:	e59f104c 	ldr	r1, [pc, #76]	; 8b38 <iobuf_ioctl+0x464>
    8ae8:	e59f004c 	ldr	r0, [pc, #76]	; 8b3c <iobuf_ioctl+0x468>
    8aec:	e08f1001 	add	r1, pc, r1
    8af0:	e08f0000 	add	r0, pc, r0
    8af4:	eb0018e8 	bl	ee9c <tfp_printf>
    8af8:	eaffff57 	b	885c <iobuf_ioctl+0x188>
    8afc:	00008a74 	.word	0x00008a74
    8b00:	0000c444 	.word	0x0000c444
    8b04:	00015650 	.word	0x00015650
    8b08:	00008a98 	.word	0x00008a98
    8b0c:	00015664 	.word	0x00015664
    8b10:	00008a8c 	.word	0x00008a8c
    8b14:	000088a8 	.word	0x000088a8
    8b18:	0000888c 	.word	0x0000888c
    8b1c:	000088a8 	.word	0x000088a8
    8b20:	000088a4 	.word	0x000088a4
    8b24:	000087e4 	.word	0x000087e4
    8b28:	0000864c 	.word	0x0000864c
    8b2c:	00008600 	.word	0x00008600
    8b30:	000085d4 	.word	0x000085d4
    8b34:	000085c4 	.word	0x000085c4
    8b38:	00008778 	.word	0x00008778
    8b3c:	000086fc 	.word	0x000086fc

00008b40 <iobuf_fdopen>:
    8b40:	e1a03001 	mov	r3, r1
    8b44:	e3a01077 	mov	r1, #119	; 0x77
    8b48:	e92d43f0 	push	{r4, r5, r6, r7, r8, r9, lr}
    8b4c:	e1a07000 	mov	r7, r0
    8b50:	e59f60dc 	ldr	r6, [pc, #220]	; 8c34 <iobuf_fdopen+0xf4>
    8b54:	e24dd014 	sub	sp, sp, #20
    8b58:	e1a00003 	mov	r0, r3
    8b5c:	e3a08000 	mov	r8, #0
    8b60:	e08f6006 	add	r6, pc, r6
    8b64:	eb001144 	bl	d07c <strchr>
    8b68:	e3500000 	cmp	r0, #0
    8b6c:	e3a01a02 	mov	r1, #8192	; 0x2000
    8b70:	13a00002 	movne	r0, #2
    8b74:	01a00008 	moveq	r0, r8
    8b78:	e3a09001 	mov	r9, #1
    8b7c:	ebfffe8c 	bl	85b4 <iobuf_alloc>
    8b80:	e1a05000 	mov	r5, r0
    8b84:	e3a0004c 	mov	r0, #76	; 0x4c
    8b88:	eb0010ac 	bl	ce40 <xmalloc>
    8b8c:	e59f10a4 	ldr	r1, [pc, #164]	; 8c38 <iobuf_fdopen+0xf8>
    8b90:	e1a02007 	mov	r2, r7
    8b94:	e5807000 	str	r7, [r0]
    8b98:	e2807036 	add	r7, r0, #54	; 0x36
    8b9c:	e08f1001 	add	r1, pc, r1
    8ba0:	e1a04000 	mov	r4, r0
    8ba4:	e5809010 	str	r9, [r0, #16]
    8ba8:	e5808004 	str	r8, [r0, #4]
    8bac:	e1a00007 	mov	r0, r7
    8bb0:	eb0018cc 	bl	eee8 <tfp_sprintf>
    8bb4:	e59f3080 	ldr	r3, [pc, #128]	; 8c3c <iobuf_fdopen+0xfc>
    8bb8:	e1a01009 	mov	r1, r9
    8bbc:	e1a00004 	mov	r0, r4
    8bc0:	e1a02008 	mov	r2, r8
    8bc4:	e7963003 	ldr	r3, [r6, r3]
    8bc8:	e5854030 	str	r4, [r5, #48]	; 0x30
    8bcc:	e585302c 	str	r3, [r5, #44]	; 0x2c
    8bd0:	e28d300c 	add	r3, sp, #12
    8bd4:	e58d3000 	str	r3, [sp]
    8bd8:	e1a03008 	mov	r3, r8
    8bdc:	ebfffd77 	bl	81c0 <file_filter>
    8be0:	e59f3058 	ldr	r3, [pc, #88]	; 8c40 <iobuf_fdopen+0x100>
    8be4:	e7963003 	ldr	r3, [r6, r3]
    8be8:	e5933000 	ldr	r3, [r3]
    8bec:	e1530008 	cmp	r3, r8
    8bf0:	0a000007 	beq	8c14 <iobuf_fdopen+0xd4>
    8bf4:	e59f3048 	ldr	r3, [pc, #72]	; 8c44 <iobuf_fdopen+0x104>
    8bf8:	e59f0048 	ldr	r0, [pc, #72]	; 8c48 <iobuf_fdopen+0x108>
    8bfc:	e5952044 	ldr	r2, [r5, #68]	; 0x44
    8c00:	e5951040 	ldr	r1, [r5, #64]	; 0x40
    8c04:	e08f3003 	add	r3, pc, r3
    8c08:	e08f0000 	add	r0, pc, r0
    8c0c:	e58d7000 	str	r7, [sp]
    8c10:	eb0018a1 	bl	ee9c <tfp_printf>
    8c14:	e3a03000 	mov	r3, #0
    8c18:	e3a02001 	mov	r2, #1
    8c1c:	e3a01003 	mov	r1, #3
    8c20:	e1a00005 	mov	r0, r5
    8c24:	ebfffeaa 	bl	86d4 <iobuf_ioctl>
    8c28:	e1a00005 	mov	r0, r5
    8c2c:	e28dd014 	add	sp, sp, #20
    8c30:	e8bd83f0 	pop	{r4, r5, r6, r7, r8, r9, pc}
    8c34:	0000bfd8 	.word	0x0000bfd8
    8c38:	000086d0 	.word	0x000086d0
    8c3c:	00015664 	.word	0x00015664
    8c40:	00015650 	.word	0x00015650
    8c44:	00008e84 	.word	0x00008e84
    8c48:	0000866c 	.word	0x0000866c

00008c4c <iobuf_push_filter2>:
    8c4c:	e92d43f0 	push	{r4, r5, r6, r7, r8, r9, lr}
    8c50:	e24dd034 	sub	sp, sp, #52	; 0x34
    8c54:	e5d0c000 	ldrb	ip, [r0]
    8c58:	e1a09003 	mov	r9, r3
    8c5c:	e59f81bc 	ldr	r8, [pc, #444]	; 8e20 <iobuf_push_filter2+0x1d4>
    8c60:	e3a03000 	mov	r3, #0
    8c64:	e58d3008 	str	r3, [sp, #8]
    8c68:	e35c0002 	cmp	ip, #2
    8c6c:	e08f8008 	add	r8, pc, r8
    8c70:	e1a04000 	mov	r4, r0
    8c74:	e1a05001 	mov	r5, r1
    8c78:	e1a07002 	mov	r7, r2
    8c7c:	0a00005c 	beq	8df4 <iobuf_push_filter2+0x1a8>
    8c80:	e5943044 	ldr	r3, [r4, #68]	; 0x44
    8c84:	e353003f 	cmp	r3, #63	; 0x3f
    8c88:	ca000039 	bgt	8d74 <iobuf_push_filter2+0x128>
    8c8c:	e3a00048 	mov	r0, #72	; 0x48
    8c90:	eb00106a 	bl	ce40 <xmalloc>
    8c94:	e3a02048 	mov	r2, #72	; 0x48
    8c98:	e1a01004 	mov	r1, r4
    8c9c:	e1a06000 	mov	r6, r0
    8ca0:	eb001094 	bl	cef8 <memcpy>
    8ca4:	e5d42000 	ldrb	r2, [r4]
    8ca8:	e3a03000 	mov	r3, #0
    8cac:	e584302c 	str	r3, [r4, #44]	; 0x2c
    8cb0:	e5843030 	str	r3, [r4, #48]	; 0x30
    8cb4:	e3520003 	cmp	r2, #3
    8cb8:	e5843034 	str	r3, [r4, #52]	; 0x34
    8cbc:	e5843024 	str	r3, [r4, #36]	; 0x24
    8cc0:	0a000026 	beq	8d60 <iobuf_push_filter2+0x114>
    8cc4:	e3520001 	cmp	r2, #1
    8cc8:	05c43000 	strbeq	r3, [r4]
    8ccc:	03a00a02 	moveq	r0, #8192	; 0x2000
    8cd0:	15940014 	ldrne	r0, [r4, #20]
    8cd4:	05840014 	streq	r0, [r4, #20]
    8cd8:	eb001058 	bl	ce40 <xmalloc>
    8cdc:	e1c620d8 	ldrd	r2, [r6, #8]
    8ce0:	e584603c 	str	r6, [r4, #60]	; 0x3c
    8ce4:	e5966044 	ldr	r6, [r6, #68]	; 0x44
    8ce8:	e0833002 	add	r3, r3, r2
    8cec:	e59f2130 	ldr	r2, [pc, #304]	; 8e24 <iobuf_push_filter2+0x1d8>
    8cf0:	e2866001 	add	r6, r6, #1
    8cf4:	e584300c 	str	r3, [r4, #12]
    8cf8:	e3a03000 	mov	r3, #0
    8cfc:	e5840020 	str	r0, [r4, #32]
    8d00:	e5849034 	str	r9, [r4, #52]	; 0x34
    8d04:	e584502c 	str	r5, [r4, #44]	; 0x2c
    8d08:	e5847030 	str	r7, [r4, #48]	; 0x30
    8d0c:	e5846044 	str	r6, [r4, #68]	; 0x44
    8d10:	e584301c 	str	r3, [r4, #28]
    8d14:	e5843018 	str	r3, [r4, #24]
    8d18:	e5843008 	str	r3, [r4, #8]
    8d1c:	e5843004 	str	r3, [r4, #4]
    8d20:	e5843010 	str	r3, [r4, #16]
    8d24:	e7988002 	ldr	r8, [r8, r2]
    8d28:	e5982000 	ldr	r2, [r8]
    8d2c:	e1520003 	cmp	r2, r3
    8d30:	1a000015 	bne	8d8c <iobuf_push_filter2+0x140>
    8d34:	e3550000 	cmp	r5, #0
    8d38:	0a000006 	beq	8d58 <iobuf_push_filter2+0x10c>
    8d3c:	e594203c 	ldr	r2, [r4, #60]	; 0x3c
    8d40:	e28d1008 	add	r1, sp, #8
    8d44:	e5940030 	ldr	r0, [r4, #48]	; 0x30
    8d48:	e3a03000 	mov	r3, #0
    8d4c:	e58d1000 	str	r1, [sp]
    8d50:	e3a01001 	mov	r1, #1
    8d54:	e12fff35 	blx	r5
    8d58:	e28dd034 	add	sp, sp, #52	; 0x34
    8d5c:	e8bd83f0 	pop	{r4, r5, r6, r7, r8, r9, pc}
    8d60:	e3a00a02 	mov	r0, #8192	; 0x2000
    8d64:	e3a03002 	mov	r3, #2
    8d68:	e5840014 	str	r0, [r4, #20]
    8d6c:	e5c43000 	strb	r3, [r4]
    8d70:	eaffffd8 	b	8cd8 <iobuf_push_filter2+0x8c>
    8d74:	e59f00ac 	ldr	r0, [pc, #172]	; 8e28 <iobuf_push_filter2+0x1dc>
    8d78:	e08f0000 	add	r0, pc, r0
    8d7c:	eb001846 	bl	ee9c <tfp_printf>
    8d80:	e3a00059 	mov	r0, #89	; 0x59
    8d84:	e28dd034 	add	sp, sp, #52	; 0x34
    8d88:	e8bd83f0 	pop	{r4, r5, r6, r7, r8, r9, pc}
    8d8c:	e1550003 	cmp	r5, r3
    8d90:	e3a02020 	mov	r2, #32
    8d94:	e5949040 	ldr	r9, [r4, #64]	; 0x40
    8d98:	e58d200c 	str	r2, [sp, #12]
    8d9c:	0a000018 	beq	8e04 <iobuf_push_filter2+0x1b8>
    8da0:	e1a02003 	mov	r2, r3
    8da4:	e1a00007 	mov	r0, r7
    8da8:	e28d300c 	add	r3, sp, #12
    8dac:	e28d7010 	add	r7, sp, #16
    8db0:	e58d3000 	str	r3, [sp]
    8db4:	e3a01005 	mov	r1, #5
    8db8:	e1a03007 	mov	r3, r7
    8dbc:	e12fff35 	blx	r5
    8dc0:	e59f0064 	ldr	r0, [pc, #100]	; 8e2c <iobuf_push_filter2+0x1e0>
    8dc4:	e1a03007 	mov	r3, r7
    8dc8:	e1a02006 	mov	r2, r6
    8dcc:	e1a01009 	mov	r1, r9
    8dd0:	e08f0000 	add	r0, pc, r0
    8dd4:	eb001830 	bl	ee9c <tfp_printf>
    8dd8:	e5983000 	ldr	r3, [r8]
    8ddc:	e3530000 	cmp	r3, #0
    8de0:	0a000001 	beq	8dec <iobuf_push_filter2+0x1a0>
    8de4:	e1a00004 	mov	r0, r4
    8de8:	ebfffd99 	bl	8454 <print_chain.part.0>
    8dec:	e594502c 	ldr	r5, [r4, #44]	; 0x2c
    8df0:	eaffffcf 	b	8d34 <iobuf_push_filter2+0xe8>
    8df4:	ebfffd4d 	bl	8330 <filter_flush>
    8df8:	e3500000 	cmp	r0, #0
    8dfc:	0affff9f 	beq	8c80 <iobuf_push_filter2+0x34>
    8e00:	eaffffd4 	b	8d58 <iobuf_push_filter2+0x10c>
    8e04:	e59f1024 	ldr	r1, [pc, #36]	; 8e30 <iobuf_push_filter2+0x1e4>
    8e08:	e28d7010 	add	r7, sp, #16
    8e0c:	e3a02002 	mov	r2, #2
    8e10:	e1a00007 	mov	r0, r7
    8e14:	e08f1001 	add	r1, pc, r1
    8e18:	eb001036 	bl	cef8 <memcpy>
    8e1c:	eaffffe7 	b	8dc0 <iobuf_push_filter2+0x174>
    8e20:	0000becc 	.word	0x0000becc
    8e24:	00015650 	.word	0x00015650
    8e28:	00008518 	.word	0x00008518
    8e2c:	000084f0 	.word	0x000084f0
    8e30:	0000828c 	.word	0x0000828c

00008e34 <iobuf_push_filter>:
    8e34:	e3a03000 	mov	r3, #0
    8e38:	eaffff83 	b	8c4c <iobuf_push_filter2>

00008e3c <iobuf_pop_filter>:
    8e3c:	e92d4ff0 	push	{r4, r5, r6, r7, r8, r9, sl, fp, lr}
    8e40:	e1a06000 	mov	r6, r0
    8e44:	e59f02b4 	ldr	r0, [pc, #692]	; 9100 <iobuf_pop_filter+0x2c4>
    8e48:	e24dd034 	sub	sp, sp, #52	; 0x34
    8e4c:	e59f42b0 	ldr	r4, [pc, #688]	; 9104 <iobuf_pop_filter+0x2c8>
    8e50:	e1a08001 	mov	r8, r1
    8e54:	e08f0000 	add	r0, pc, r0
    8e58:	e1a09002 	mov	r9, r2
    8e5c:	e5961008 	ldr	r1, [r6, #8]
    8e60:	e08f4004 	add	r4, pc, r4
    8e64:	eb00180c 	bl	ee9c <tfp_printf>
    8e68:	e59f1298 	ldr	r1, [pc, #664]	; 9108 <iobuf_pop_filter+0x2cc>
    8e6c:	e3a02000 	mov	r2, #0
    8e70:	e58d2008 	str	r2, [sp, #8]
    8e74:	e1a03004 	mov	r3, r4
    8e78:	e7947001 	ldr	r7, [r4, r1]
    8e7c:	e5973000 	ldr	r3, [r7]
    8e80:	e1530002 	cmp	r3, r2
    8e84:	1a000039 	bne	8f70 <iobuf_pop_filter+0x134>
    8e88:	e5d62000 	ldrb	r2, [r6]
    8e8c:	e20230fd 	and	r3, r2, #253	; 0xfd
    8e90:	e3530001 	cmp	r3, #1
    8e94:	0a00002e 	beq	8f54 <iobuf_pop_filter+0x118>
    8e98:	e596502c 	ldr	r5, [r6, #44]	; 0x2c
    8e9c:	e3550000 	cmp	r5, #0
    8ea0:	11a04006 	movne	r4, r6
    8ea4:	1a000004 	bne	8ebc <iobuf_pop_filter+0x80>
    8ea8:	ea00007c 	b	90a0 <iobuf_pop_filter+0x264>
    8eac:	e594403c 	ldr	r4, [r4, #60]	; 0x3c
    8eb0:	e3540000 	cmp	r4, #0
    8eb4:	0a00006d 	beq	9070 <iobuf_pop_filter+0x234>
    8eb8:	e594502c 	ldr	r5, [r4, #44]	; 0x2c
    8ebc:	e1580005 	cmp	r8, r5
    8ec0:	1afffff9 	bne	8eac <iobuf_pop_filter+0x70>
    8ec4:	e3590000 	cmp	r9, #0
    8ec8:	0a000002 	beq	8ed8 <iobuf_pop_filter+0x9c>
    8ecc:	e5943030 	ldr	r3, [r4, #48]	; 0x30
    8ed0:	e1530009 	cmp	r3, r9
    8ed4:	1afffff4 	bne	8eac <iobuf_pop_filter+0x70>
    8ed8:	e3520002 	cmp	r2, #2
    8edc:	0a000038 	beq	8fc4 <iobuf_pop_filter+0x188>
    8ee0:	e594502c 	ldr	r5, [r4, #44]	; 0x2c
    8ee4:	e3550000 	cmp	r5, #0
    8ee8:	0a000008 	beq	8f10 <iobuf_pop_filter+0xd4>
    8eec:	e594203c 	ldr	r2, [r4, #60]	; 0x3c
    8ef0:	e28d3008 	add	r3, sp, #8
    8ef4:	e5940030 	ldr	r0, [r4, #48]	; 0x30
    8ef8:	e3a01002 	mov	r1, #2
    8efc:	e58d3000 	str	r3, [sp]
    8f00:	e3a03000 	mov	r3, #0
    8f04:	e12fff35 	blx	r5
    8f08:	e3500000 	cmp	r0, #0
    8f0c:	1a00000e 	bne	8f4c <iobuf_pop_filter+0x110>
    8f10:	e5940030 	ldr	r0, [r4, #48]	; 0x30
    8f14:	e3500000 	cmp	r0, #0
    8f18:	0a000002 	beq	8f28 <iobuf_pop_filter+0xec>
    8f1c:	e5943034 	ldr	r3, [r4, #52]	; 0x34
    8f20:	e3530000 	cmp	r3, #0
    8f24:	1a00002b 	bne	8fd8 <iobuf_pop_filter+0x19c>
    8f28:	e1560004 	cmp	r6, r4
    8f2c:	0a000034 	beq	9004 <iobuf_pop_filter+0x1c8>
    8f30:	e594503c 	ldr	r5, [r4, #60]	; 0x3c
    8f34:	e3550000 	cmp	r5, #0
    8f38:	0a000053 	beq	908c <iobuf_pop_filter+0x250>
    8f3c:	e59f01c8 	ldr	r0, [pc, #456]	; 910c <iobuf_pop_filter+0x2d0>
    8f40:	e08f0000 	add	r0, pc, r0
    8f44:	eb0017d4 	bl	ee9c <tfp_printf>
    8f48:	e3a00000 	mov	r0, #0
    8f4c:	e28dd034 	add	sp, sp, #52	; 0x34
    8f50:	e8bd8ff0 	pop	{r4, r5, r6, r7, r8, r9, sl, fp, pc}
    8f54:	e596003c 	ldr	r0, [r6, #60]	; 0x3c
    8f58:	e16f0f10 	clz	r0, r0
    8f5c:	e1a002a0 	lsr	r0, r0, #5
    8f60:	eb0017cd 	bl	ee9c <tfp_printf>
    8f64:	e3a00000 	mov	r0, #0
    8f68:	e28dd034 	add	sp, sp, #52	; 0x34
    8f6c:	e8bd8ff0 	pop	{r4, r5, r6, r7, r8, r9, sl, fp, pc}
    8f70:	e596402c 	ldr	r4, [r6, #44]	; 0x2c
    8f74:	e3a03020 	mov	r3, #32
    8f78:	e5965040 	ldr	r5, [r6, #64]	; 0x40
    8f7c:	e1540002 	cmp	r4, r2
    8f80:	e596a044 	ldr	sl, [r6, #68]	; 0x44
    8f84:	e58d300c 	str	r3, [sp, #12]
    8f88:	0a000016 	beq	8fe8 <iobuf_pop_filter+0x1ac>
    8f8c:	e5960030 	ldr	r0, [r6, #48]	; 0x30
    8f90:	e28d300c 	add	r3, sp, #12
    8f94:	e58d3000 	str	r3, [sp]
    8f98:	e28db010 	add	fp, sp, #16
    8f9c:	e1a0300b 	mov	r3, fp
    8fa0:	e3a01005 	mov	r1, #5
    8fa4:	e12fff34 	blx	r4
    8fa8:	e59f0160 	ldr	r0, [pc, #352]	; 9110 <iobuf_pop_filter+0x2d4>
    8fac:	e1a0300b 	mov	r3, fp
    8fb0:	e1a0200a 	mov	r2, sl
    8fb4:	e1a01005 	mov	r1, r5
    8fb8:	e08f0000 	add	r0, pc, r0
    8fbc:	eb0017b6 	bl	ee9c <tfp_printf>
    8fc0:	eaffffb0 	b	8e88 <iobuf_pop_filter+0x4c>
    8fc4:	e1a00004 	mov	r0, r4
    8fc8:	ebfffcd8 	bl	8330 <filter_flush>
    8fcc:	e3500000 	cmp	r0, #0
    8fd0:	0affffc2 	beq	8ee0 <iobuf_pop_filter+0xa4>
    8fd4:	eaffffdc 	b	8f4c <iobuf_pop_filter+0x110>
    8fd8:	eb000f8c 	bl	ce10 <xfree>
    8fdc:	e3a03000 	mov	r3, #0
    8fe0:	e5843030 	str	r3, [r4, #48]	; 0x30
    8fe4:	eaffffcf 	b	8f28 <iobuf_pop_filter+0xec>
    8fe8:	e59f1124 	ldr	r1, [pc, #292]	; 9114 <iobuf_pop_filter+0x2d8>
    8fec:	e28db010 	add	fp, sp, #16
    8ff0:	e3a02002 	mov	r2, #2
    8ff4:	e1a0000b 	mov	r0, fp
    8ff8:	e08f1001 	add	r1, pc, r1
    8ffc:	eb000fbd 	bl	cef8 <memcpy>
    9000:	eaffffe8 	b	8fa8 <iobuf_pop_filter+0x16c>
    9004:	e596503c 	ldr	r5, [r6, #60]	; 0x3c
    9008:	e3550000 	cmp	r5, #0
    900c:	0a000036 	beq	90ec <iobuf_pop_filter+0x2b0>
    9010:	e5960020 	ldr	r0, [r6, #32]
    9014:	eb000f7d 	bl	ce10 <xfree>
    9018:	e5960038 	ldr	r0, [r6, #56]	; 0x38
    901c:	eb000f7b 	bl	ce10 <xfree>
    9020:	e3a02048 	mov	r2, #72	; 0x48
    9024:	e1a01005 	mov	r1, r5
    9028:	e1a00006 	mov	r0, r6
    902c:	eb000fb1 	bl	cef8 <memcpy>
    9030:	e1a00005 	mov	r0, r5
    9034:	eb000f75 	bl	ce10 <xfree>
    9038:	e59f00d8 	ldr	r0, [pc, #216]	; 9118 <iobuf_pop_filter+0x2dc>
    903c:	e3a01048 	mov	r1, #72	; 0x48
    9040:	e08f0000 	add	r0, pc, r0
    9044:	eb001794 	bl	ee9c <tfp_printf>
    9048:	e5970000 	ldr	r0, [r7]
    904c:	e3500000 	cmp	r0, #0
    9050:	0affffbd 	beq	8f4c <iobuf_pop_filter+0x110>
    9054:	e59f00c0 	ldr	r0, [pc, #192]	; 911c <iobuf_pop_filter+0x2e0>
    9058:	e5962044 	ldr	r2, [r6, #68]	; 0x44
    905c:	e08f0000 	add	r0, pc, r0
    9060:	e5961040 	ldr	r1, [r6, #64]	; 0x40
    9064:	eb00178c 	bl	ee9c <tfp_printf>
    9068:	e3a00000 	mov	r0, #0
    906c:	eaffffb6 	b	8f4c <iobuf_pop_filter+0x110>
    9070:	e59f00a8 	ldr	r0, [pc, #168]	; 9120 <iobuf_pop_filter+0x2e4>
    9074:	e08f0000 	add	r0, pc, r0
    9078:	eb001787 	bl	ee9c <tfp_printf>
    907c:	e5d62000 	ldrb	r2, [r6]
    9080:	e3520002 	cmp	r2, #2
    9084:	1affff95 	bne	8ee0 <iobuf_pop_filter+0xa4>
    9088:	eaffffcd 	b	8fc4 <iobuf_pop_filter+0x188>
    908c:	e59f0090 	ldr	r0, [pc, #144]	; 9124 <iobuf_pop_filter+0x2e8>
    9090:	e08f0000 	add	r0, pc, r0
    9094:	eb001780 	bl	ee9c <tfp_printf>
    9098:	e1a00005 	mov	r0, r5
    909c:	eaffffaa 	b	8f4c <iobuf_pop_filter+0x110>
    90a0:	e596403c 	ldr	r4, [r6, #60]	; 0x3c
    90a4:	e1a00004 	mov	r0, r4
    90a8:	eb00177b 	bl	ee9c <tfp_printf>
    90ac:	e5960020 	ldr	r0, [r6, #32]
    90b0:	eb000f56 	bl	ce10 <xfree>
    90b4:	e5960038 	ldr	r0, [r6, #56]	; 0x38
    90b8:	eb000f54 	bl	ce10 <xfree>
    90bc:	e59f0064 	ldr	r0, [pc, #100]	; 9128 <iobuf_pop_filter+0x2ec>
    90c0:	e3a01048 	mov	r1, #72	; 0x48
    90c4:	e08f0000 	add	r0, pc, r0
    90c8:	eb001773 	bl	ee9c <tfp_printf>
    90cc:	e3a02048 	mov	r2, #72	; 0x48
    90d0:	e1a01004 	mov	r1, r4
    90d4:	e1a00006 	mov	r0, r6
    90d8:	eb000f86 	bl	cef8 <memcpy>
    90dc:	e1a00004 	mov	r0, r4
    90e0:	eb000f4a 	bl	ce10 <xfree>
    90e4:	e1a00005 	mov	r0, r5
    90e8:	eaffff97 	b	8f4c <iobuf_pop_filter+0x110>
    90ec:	e59f0038 	ldr	r0, [pc, #56]	; 912c <iobuf_pop_filter+0x2f0>
    90f0:	e08f0000 	add	r0, pc, r0
    90f4:	eb001768 	bl	ee9c <tfp_printf>
    90f8:	e1a00005 	mov	r0, r5
    90fc:	eaffff92 	b	8f4c <iobuf_pop_filter+0x110>
    9100:	00008484 	.word	0x00008484
    9104:	0000bcd8 	.word	0x0000bcd8
    9108:	00015650 	.word	0x00015650
    910c:	0000848c 	.word	0x0000848c
    9110:	00008338 	.word	0x00008338
    9114:	000080a8 	.word	0x000080a8
    9118:	00008318 	.word	0x00008318
    911c:	00008328 	.word	0x00008328
    9120:	0000838c 	.word	0x0000838c
    9124:	00008310 	.word	0x00008310
    9128:	00008244 	.word	0x00008244
    912c:	00008238 	.word	0x00008238

00009130 <iobuf_readbyte>:
    9130:	e92d40f0 	push	{r4, r5, r6, r7, lr}
    9134:	e24dd01c 	sub	sp, sp, #28
    9138:	e59f62c4 	ldr	r6, [pc, #708]	; 9404 <iobuf_readbyte+0x2d4>
    913c:	e1a04000 	mov	r4, r0
    9140:	e58d000c 	str	r0, [sp, #12]
    9144:	e5d00000 	ldrb	r0, [r0]
    9148:	e08f6006 	add	r6, pc, r6
    914c:	e2403002 	sub	r3, r0, #2
    9150:	e3530001 	cmp	r3, #1
    9154:	9a00009e 	bls	93d4 <iobuf_readbyte+0x2a4>
    9158:	e5943004 	ldr	r3, [r4, #4]
    915c:	e3530000 	cmp	r3, #0
    9160:	1a00000d 	bne	919c <iobuf_readbyte+0x6c>
    9164:	e5941018 	ldr	r1, [r4, #24]
    9168:	e594201c 	ldr	r2, [r4, #28]
    916c:	e1510002 	cmp	r1, r2
    9170:	2a00000e 	bcs	91b0 <iobuf_readbyte+0x80>
    9174:	e5943020 	ldr	r3, [r4, #32]
    9178:	e2812001 	add	r2, r1, #1
    917c:	e5842018 	str	r2, [r4, #24]
    9180:	e7d35001 	ldrb	r5, [r3, r1]
    9184:	e5943008 	ldr	r3, [r4, #8]
    9188:	e2833001 	add	r3, r3, #1
    918c:	e5843008 	str	r3, [r4, #8]
    9190:	e1a00005 	mov	r0, r5
    9194:	e28dd01c 	add	sp, sp, #28
    9198:	e8bd80f0 	pop	{r4, r5, r6, r7, pc}
    919c:	e5942008 	ldr	r2, [r4, #8]
    91a0:	e1530002 	cmp	r3, r2
    91a4:	caffffee 	bgt	9164 <iobuf_readbyte+0x34>
    91a8:	e3e05000 	mvn	r5, #0
    91ac:	eafffff7 	b	9190 <iobuf_readbyte+0x60>
    91b0:	e3500001 	cmp	r0, #1
    91b4:	0afffffb 	beq	91a8 <iobuf_readbyte+0x78>
    91b8:	e5940020 	ldr	r0, [r4, #32]
    91bc:	e0422001 	sub	r2, r2, r1
    91c0:	e584201c 	str	r2, [r4, #28]
    91c4:	e0801001 	add	r1, r0, r1
    91c8:	eb000f70 	bl	cf90 <memmove>
    91cc:	e594301c 	ldr	r3, [r4, #28]
    91d0:	e3a02000 	mov	r2, #0
    91d4:	e5842018 	str	r2, [r4, #24]
    91d8:	e1530002 	cmp	r3, r2
    91dc:	0a00000a 	beq	920c <iobuf_readbyte+0xdc>
    91e0:	e594502c 	ldr	r5, [r4, #44]	; 0x2c
    91e4:	e3550000 	cmp	r5, #0
    91e8:	0a000073 	beq	93bc <iobuf_readbyte+0x28c>
    91ec:	e5941024 	ldr	r1, [r4, #36]	; 0x24
    91f0:	e3510000 	cmp	r1, #0
    91f4:	0a00007d 	beq	93f0 <iobuf_readbyte+0x2c0>
    91f8:	e5943020 	ldr	r3, [r4, #32]
    91fc:	e2821001 	add	r1, r2, #1
    9200:	e5841018 	str	r1, [r4, #24]
    9204:	e7d35002 	ldrb	r5, [r3, r2]
    9208:	eaffffdd 	b	9184 <iobuf_readbyte+0x54>
    920c:	e5942024 	ldr	r2, [r4, #36]	; 0x24
    9210:	e3520000 	cmp	r2, #0
    9214:	0a000015 	beq	9270 <iobuf_readbyte+0x140>
    9218:	e594503c 	ldr	r5, [r4, #60]	; 0x3c
    921c:	e3550000 	cmp	r5, #0
    9220:	0a000063 	beq	93b4 <iobuf_readbyte+0x284>
    9224:	e5940020 	ldr	r0, [r4, #32]
    9228:	eb000ef8 	bl	ce10 <xfree>
    922c:	e5940038 	ldr	r0, [r4, #56]	; 0x38
    9230:	eb000ef6 	bl	ce10 <xfree>
    9234:	e3a02048 	mov	r2, #72	; 0x48
    9238:	e1a01005 	mov	r1, r5
    923c:	e1a00004 	mov	r0, r4
    9240:	eb000f2c 	bl	cef8 <memcpy>
    9244:	e1a00005 	mov	r0, r5
    9248:	eb000ef0 	bl	ce10 <xfree>
    924c:	e59f31b4 	ldr	r3, [pc, #436]	; 9408 <iobuf_readbyte+0x2d8>
    9250:	e7963003 	ldr	r3, [r6, r3]
    9254:	e5933000 	ldr	r3, [r3]
    9258:	e3530000 	cmp	r3, #0
    925c:	0affffd1 	beq	91a8 <iobuf_readbyte+0x78>
    9260:	e1a00004 	mov	r0, r4
    9264:	e3e05000 	mvn	r5, #0
    9268:	ebfffc79 	bl	8454 <print_chain.part.0>
    926c:	eaffffc7 	b	9190 <iobuf_readbyte+0x60>
    9270:	e5942028 	ldr	r2, [r4, #40]	; 0x28
    9274:	e3520000 	cmp	r2, #0
    9278:	1affffca 	bne	91a8 <iobuf_readbyte+0x78>
    927c:	e594502c 	ldr	r5, [r4, #44]	; 0x2c
    9280:	e3550000 	cmp	r5, #0
    9284:	0affffc7 	beq	91a8 <iobuf_readbyte+0x78>
    9288:	e5942014 	ldr	r2, [r4, #20]
    928c:	e0422003 	sub	r2, r2, r3
    9290:	e58d2010 	str	r2, [sp, #16]
    9294:	e3520000 	cmp	r2, #0
    9298:	0a000042 	beq	93a8 <iobuf_readbyte+0x278>
    929c:	e5942020 	ldr	r2, [r4, #32]
    92a0:	e28d1010 	add	r1, sp, #16
    92a4:	e5940030 	ldr	r0, [r4, #48]	; 0x30
    92a8:	e0823003 	add	r3, r2, r3
    92ac:	e594203c 	ldr	r2, [r4, #60]	; 0x3c
    92b0:	e58d1000 	str	r1, [sp]
    92b4:	e3a01003 	mov	r1, #3
    92b8:	e12fff35 	blx	r5
    92bc:	e594201c 	ldr	r2, [r4, #28]
    92c0:	e3700001 	cmn	r0, #1
    92c4:	e59d3010 	ldr	r3, [sp, #16]
    92c8:	e1a05000 	mov	r5, r0
    92cc:	e0823003 	add	r3, r2, r3
    92d0:	e584301c 	str	r3, [r4, #28]
    92d4:	1a00002d 	bne	9390 <iobuf_readbyte+0x260>
    92d8:	e594702c 	ldr	r7, [r4, #44]	; 0x2c
    92dc:	e3a03000 	mov	r3, #0
    92e0:	e594203c 	ldr	r2, [r4, #60]	; 0x3c
    92e4:	e28d1014 	add	r1, sp, #20
    92e8:	e58d1000 	str	r1, [sp]
    92ec:	e3a01002 	mov	r1, #2
    92f0:	e5940030 	ldr	r0, [r4, #48]	; 0x30
    92f4:	e58d3014 	str	r3, [sp, #20]
    92f8:	e12fff37 	blx	r7
    92fc:	e3500000 	cmp	r0, #0
    9300:	1a00002f 	bne	93c4 <iobuf_readbyte+0x294>
    9304:	e5940030 	ldr	r0, [r4, #48]	; 0x30
    9308:	e3500000 	cmp	r0, #0
    930c:	0a000002 	beq	931c <iobuf_readbyte+0x1ec>
    9310:	e5943034 	ldr	r3, [r4, #52]	; 0x34
    9314:	e3530000 	cmp	r3, #0
    9318:	1a000032 	bne	93e8 <iobuf_readbyte+0x2b8>
    931c:	e594301c 	ldr	r3, [r4, #28]
    9320:	e3a02000 	mov	r2, #0
    9324:	e5842030 	str	r2, [r4, #48]	; 0x30
    9328:	e1530002 	cmp	r3, r2
    932c:	e584202c 	str	r2, [r4, #44]	; 0x2c
    9330:	e3a02001 	mov	r2, #1
    9334:	e5842024 	str	r2, [r4, #36]	; 0x24
    9338:	1a000019 	bne	93a4 <iobuf_readbyte+0x274>
    933c:	e594703c 	ldr	r7, [r4, #60]	; 0x3c
    9340:	e3570000 	cmp	r7, #0
    9344:	0affff91 	beq	9190 <iobuf_readbyte+0x60>
    9348:	e5940020 	ldr	r0, [r4, #32]
    934c:	eb000eaf 	bl	ce10 <xfree>
    9350:	e5940038 	ldr	r0, [r4, #56]	; 0x38
    9354:	eb000ead 	bl	ce10 <xfree>
    9358:	e3a02048 	mov	r2, #72	; 0x48
    935c:	e1a01007 	mov	r1, r7
    9360:	e1a00004 	mov	r0, r4
    9364:	eb000ee3 	bl	cef8 <memcpy>
    9368:	e1a00007 	mov	r0, r7
    936c:	eb000ea7 	bl	ce10 <xfree>
    9370:	e59f3090 	ldr	r3, [pc, #144]	; 9408 <iobuf_readbyte+0x2d8>
    9374:	e7963003 	ldr	r3, [r6, r3]
    9378:	e5933000 	ldr	r3, [r3]
    937c:	e3530000 	cmp	r3, #0
    9380:	0affff82 	beq	9190 <iobuf_readbyte+0x60>
    9384:	e1a00004 	mov	r0, r4
    9388:	ebfffc31 	bl	8454 <print_chain.part.0>
    938c:	eaffff7f 	b	9190 <iobuf_readbyte+0x60>
    9390:	e3500000 	cmp	r0, #0
    9394:	0a000002 	beq	93a4 <iobuf_readbyte+0x274>
    9398:	e5840028 	str	r0, [r4, #40]	; 0x28
    939c:	e3530000 	cmp	r3, #0
    93a0:	0affff80 	beq	91a8 <iobuf_readbyte+0x78>
    93a4:	e5942018 	ldr	r2, [r4, #24]
    93a8:	e1520003 	cmp	r2, r3
    93ac:	3affff91 	bcc	91f8 <iobuf_readbyte+0xc8>
    93b0:	eaffff7c 	b	91a8 <iobuf_readbyte+0x78>
    93b4:	e5845024 	str	r5, [r4, #36]	; 0x24
    93b8:	eaffff7a 	b	91a8 <iobuf_readbyte+0x78>
    93bc:	e1a02005 	mov	r2, r5
    93c0:	eaffff8c 	b	91f8 <iobuf_readbyte+0xc8>
    93c4:	e59f0040 	ldr	r0, [pc, #64]	; 940c <iobuf_readbyte+0x2dc>
    93c8:	e08f0000 	add	r0, pc, r0
    93cc:	eb0016b2 	bl	ee9c <tfp_printf>
    93d0:	eaffffcb 	b	9304 <iobuf_readbyte+0x1d4>
    93d4:	e59f0034 	ldr	r0, [pc, #52]	; 9410 <iobuf_readbyte+0x2e0>
    93d8:	e3e05000 	mvn	r5, #0
    93dc:	e08f0000 	add	r0, pc, r0
    93e0:	eb0016ad 	bl	ee9c <tfp_printf>
    93e4:	eaffff69 	b	9190 <iobuf_readbyte+0x60>
    93e8:	eb000e88 	bl	ce10 <xfree>
    93ec:	eaffffca 	b	931c <iobuf_readbyte+0x1ec>
    93f0:	e5942028 	ldr	r2, [r4, #40]	; 0x28
    93f4:	e3520000 	cmp	r2, #0
    93f8:	11a02001 	movne	r2, r1
    93fc:	1affff7d 	bne	91f8 <iobuf_readbyte+0xc8>
    9400:	eaffffa0 	b	9288 <iobuf_readbyte+0x158>
    9404:	0000b9f0 	.word	0x0000b9f0
    9408:	00015650 	.word	0x00015650
    940c:	00008098 	.word	0x00008098
    9410:	00008054 	.word	0x00008054

00009414 <iobuf_read>:
    9414:	e92d41f0 	push	{r4, r5, r6, r7, r8, lr}
    9418:	e1a06000 	mov	r6, r0
    941c:	e59f0138 	ldr	r0, [pc, #312]	; 955c <iobuf_read+0x148>
    9420:	e1a07002 	mov	r7, r2
    9424:	e5962004 	ldr	r2, [r6, #4]
    9428:	e1a04001 	mov	r4, r1
    942c:	e08f0000 	add	r0, pc, r0
    9430:	e1a01007 	mov	r1, r7
    9434:	eb001698 	bl	ee9c <tfp_printf>
    9438:	e5d63000 	ldrb	r3, [r6]
    943c:	e2433002 	sub	r3, r3, #2
    9440:	e3530001 	cmp	r3, #1
    9444:	9a00003f 	bls	9548 <iobuf_read+0x134>
    9448:	e5965004 	ldr	r5, [r6, #4]
    944c:	e3550000 	cmp	r5, #0
    9450:	0a000011 	beq	949c <iobuf_read+0x88>
    9454:	e2575000 	subs	r5, r7, #0
    9458:	0a000014 	beq	94b0 <iobuf_read+0x9c>
    945c:	e3a08000 	mov	r8, #0
    9460:	ea000004 	b	9478 <iobuf_read+0x64>
    9464:	e3540000 	cmp	r4, #0
    9468:	e2888001 	add	r8, r8, #1
    946c:	14c40001 	strbne	r0, [r4], #1
    9470:	e1580007 	cmp	r8, r7
    9474:	0a00000d 	beq	94b0 <iobuf_read+0x9c>
    9478:	e1a00006 	mov	r0, r6
    947c:	ebffff2b 	bl	9130 <iobuf_readbyte>
    9480:	e3700001 	cmn	r0, #1
    9484:	1afffff6 	bne	9464 <iobuf_read+0x50>
    9488:	e3580000 	cmp	r8, #0
    948c:	11a05008 	movne	r5, r8
    9490:	03e05000 	mvneq	r5, #0
    9494:	e1a00005 	mov	r0, r5
    9498:	e8bd81f0 	pop	{r4, r5, r6, r7, r8, pc}
    949c:	e1550007 	cmp	r5, r7
    94a0:	3a00001a 	bcc	9510 <iobuf_read+0xfc>
    94a4:	e5963008 	ldr	r3, [r6, #8]
    94a8:	e0833005 	add	r3, r3, r5
    94ac:	e5863008 	str	r3, [r6, #8]
    94b0:	e1a00005 	mov	r0, r5
    94b4:	e8bd81f0 	pop	{r4, r5, r6, r7, r8, pc}
    94b8:	e1580001 	cmp	r8, r1
    94bc:	21a08001 	movcs	r8, r1
    94c0:	e3540000 	cmp	r4, #0
    94c4:	e0832008 	add	r2, r3, r8
    94c8:	0a000019 	beq	9534 <iobuf_read+0x120>
    94cc:	e5961020 	ldr	r1, [r6, #32]
    94d0:	e1a00004 	mov	r0, r4
    94d4:	e0855008 	add	r5, r5, r8
    94d8:	e1a02008 	mov	r2, r8
    94dc:	e0811003 	add	r1, r1, r3
    94e0:	e0844008 	add	r4, r4, r8
    94e4:	eb000e83 	bl	cef8 <memcpy>
    94e8:	e5963018 	ldr	r3, [r6, #24]
    94ec:	e1570005 	cmp	r7, r5
    94f0:	e0833008 	add	r3, r3, r8
    94f4:	e5863018 	str	r3, [r6, #24]
    94f8:	9affffe9 	bls	94a4 <iobuf_read+0x90>
    94fc:	e3a03000 	mov	r3, #0
    9500:	e4c43001 	strb	r3, [r4], #1
    9504:	e2855001 	add	r5, r5, #1
    9508:	e1550007 	cmp	r5, r7
    950c:	2affffe4 	bcs	94a4 <iobuf_read+0x90>
    9510:	e5963018 	ldr	r3, [r6, #24]
    9514:	e596201c 	ldr	r2, [r6, #28]
    9518:	e0478005 	sub	r8, r7, r5
    951c:	e1530002 	cmp	r3, r2
    9520:	e0421003 	sub	r1, r2, r3
    9524:	3affffe3 	bcc	94b8 <iobuf_read+0xa4>
    9528:	e3540000 	cmp	r4, #0
    952c:	1afffff2 	bne	94fc <iobuf_read+0xe8>
    9530:	eafffff3 	b	9504 <iobuf_read+0xf0>
    9534:	e0855008 	add	r5, r5, r8
    9538:	e1570005 	cmp	r7, r5
    953c:	e5862018 	str	r2, [r6, #24]
    9540:	8affffef 	bhi	9504 <iobuf_read+0xf0>
    9544:	eaffffd6 	b	94a4 <iobuf_read+0x90>
    9548:	e59f0010 	ldr	r0, [pc, #16]	; 9560 <iobuf_read+0x14c>
    954c:	e3e05000 	mvn	r5, #0
    9550:	e08f0000 	add	r0, pc, r0
    9554:	eb001650 	bl	ee9c <tfp_printf>
    9558:	eaffffd4 	b	94b0 <iobuf_read+0x9c>
    955c:	00008050 	.word	0x00008050
    9560:	00007f48 	.word	0x00007f48

00009564 <iobuf_writebyte>:
    9564:	e92d4070 	push	{r4, r5, r6, lr}
    9568:	e1a04000 	mov	r4, r0
    956c:	e59f0090 	ldr	r0, [pc, #144]	; 9604 <iobuf_writebyte+0xa0>
    9570:	e1a06001 	mov	r6, r1
    9574:	e08f0000 	add	r0, pc, r0
    9578:	eb001647 	bl	ee9c <tfp_printf>
    957c:	e5d43000 	ldrb	r3, [r4]
    9580:	e3530001 	cmp	r3, #1
    9584:	9a000019 	bls	95f0 <iobuf_writebyte+0x8c>
    9588:	e594001c 	ldr	r0, [r4, #28]
    958c:	e5943014 	ldr	r3, [r4, #20]
    9590:	e1500003 	cmp	r0, r3
    9594:	0a00000b 	beq	95c8 <iobuf_writebyte+0x64>
    9598:	e1500003 	cmp	r0, r3
    959c:	e3a05000 	mov	r5, #0
    95a0:	23a00000 	movcs	r0, #0
    95a4:	33a00001 	movcc	r0, #1
    95a8:	eb00163b 	bl	ee9c <tfp_printf>
    95ac:	e594301c 	ldr	r3, [r4, #28]
    95b0:	e5942020 	ldr	r2, [r4, #32]
    95b4:	e2831001 	add	r1, r3, #1
    95b8:	e584101c 	str	r1, [r4, #28]
    95bc:	e7c26003 	strb	r6, [r2, r3]
    95c0:	e1a00005 	mov	r0, r5
    95c4:	e8bd8070 	pop	{r4, r5, r6, pc}
    95c8:	e1a00004 	mov	r0, r4
    95cc:	ebfffb57 	bl	8330 <filter_flush>
    95d0:	e2505000 	subs	r5, r0, #0
    95d4:	0594001c 	ldreq	r0, [r4, #28]
    95d8:	05943014 	ldreq	r3, [r4, #20]
    95dc:	0affffed 	beq	9598 <iobuf_writebyte+0x34>
    95e0:	e59f0020 	ldr	r0, [pc, #32]	; 9608 <iobuf_writebyte+0xa4>
    95e4:	e08f0000 	add	r0, pc, r0
    95e8:	eb00162b 	bl	ee9c <tfp_printf>
    95ec:	eafffff3 	b	95c0 <iobuf_writebyte+0x5c>
    95f0:	e59f0014 	ldr	r0, [pc, #20]	; 960c <iobuf_writebyte+0xa8>
    95f4:	e3e05000 	mvn	r5, #0
    95f8:	e08f0000 	add	r0, pc, r0
    95fc:	eb001626 	bl	ee9c <tfp_printf>
    9600:	eaffffee 	b	95c0 <iobuf_writebyte+0x5c>
    9604:	00007f50 	.word	0x00007f50
    9608:	00007f28 	.word	0x00007f28
    960c:	00007ee4 	.word	0x00007ee4

00009610 <iobuf_write>:
    9610:	e92d41f0 	push	{r4, r5, r6, r7, r8, lr}
    9614:	e1a06000 	mov	r6, r0
    9618:	e59f00bc 	ldr	r0, [pc, #188]	; 96dc <iobuf_write+0xcc>
    961c:	e1a07001 	mov	r7, r1
    9620:	e1a01002 	mov	r1, r2
    9624:	e1a05002 	mov	r5, r2
    9628:	e08f0000 	add	r0, pc, r0
    962c:	eb00161a 	bl	ee9c <tfp_printf>
    9630:	e5d63000 	ldrb	r3, [r6]
    9634:	e3530001 	cmp	r3, #1
    9638:	9a000022 	bls	96c8 <iobuf_write+0xb8>
    963c:	e59f809c 	ldr	r8, [pc, #156]	; 96e0 <iobuf_write+0xd0>
    9640:	e3550000 	cmp	r5, #0
    9644:	e08f8008 	add	r8, pc, r8
    9648:	0a000009 	beq	9674 <iobuf_write+0x64>
    964c:	e596201c 	ldr	r2, [r6, #28]
    9650:	e5963014 	ldr	r3, [r6, #20]
    9654:	e1520003 	cmp	r2, r3
    9658:	3a000007 	bcc	967c <iobuf_write+0x6c>
    965c:	e1a00006 	mov	r0, r6
    9660:	ebfffb32 	bl	8330 <filter_flush>
    9664:	e3500000 	cmp	r0, #0
    9668:	18bd81f0 	popne	{r4, r5, r6, r7, r8, pc}
    966c:	e3550000 	cmp	r5, #0
    9670:	1afffff5 	bne	964c <iobuf_write+0x3c>
    9674:	e3a00000 	mov	r0, #0
    9678:	e8bd81f0 	pop	{r4, r5, r6, r7, r8, pc}
    967c:	e0433002 	sub	r3, r3, r2
    9680:	e1a01007 	mov	r1, r7
    9684:	e1550003 	cmp	r5, r3
    9688:	e5960020 	ldr	r0, [r6, #32]
    968c:	21a04003 	movcs	r4, r3
    9690:	31a04005 	movcc	r4, r5
    9694:	e0800002 	add	r0, r0, r2
    9698:	e1a02004 	mov	r2, r4
    969c:	eb000e15 	bl	cef8 <memcpy>
    96a0:	e1a01004 	mov	r1, r4
    96a4:	e1a00008 	mov	r0, r8
    96a8:	eb0015fb 	bl	ee9c <tfp_printf>
    96ac:	e596301c 	ldr	r3, [r6, #28]
    96b0:	e0555004 	subs	r5, r5, r4
    96b4:	e0833004 	add	r3, r3, r4
    96b8:	e586301c 	str	r3, [r6, #28]
    96bc:	0affffec 	beq	9674 <iobuf_write+0x64>
    96c0:	e0877004 	add	r7, r7, r4
    96c4:	eaffffe4 	b	965c <iobuf_write+0x4c>
    96c8:	e59f0014 	ldr	r0, [pc, #20]	; 96e4 <iobuf_write+0xd4>
    96cc:	e08f0000 	add	r0, pc, r0
    96d0:	eb0015f1 	bl	ee9c <tfp_printf>
    96d4:	e3e00000 	mvn	r0, #0
    96d8:	e8bd81f0 	pop	{r4, r5, r6, r7, r8, pc}
    96dc:	00007ef4 	.word	0x00007ef4
    96e0:	00007f14 	.word	0x00007f14
    96e4:	00007e60 	.word	0x00007e60

000096e8 <block_filter>:
    96e8:	e59fc7ec 	ldr	ip, [pc, #2028]	; 9edc <block_filter+0x7f4>
    96ec:	e92d4ff8 	push	{r3, r4, r5, r6, r7, r8, r9, sl, fp, lr}
    96f0:	e1a06001 	mov	r6, r1
    96f4:	e08fc00c 	add	ip, pc, ip
    96f8:	e1a05000 	mov	r5, r0
    96fc:	e59fe7dc 	ldr	lr, [pc, #2012]	; 9ee0 <block_filter+0x7f8>
    9700:	e1a0100c 	mov	r1, ip
    9704:	e59d8028 	ldr	r8, [sp, #40]	; 0x28
    9708:	e1a07002 	mov	r7, r2
    970c:	e79c000e 	ldr	r0, [ip, lr]
    9710:	e1a0a003 	mov	sl, r3
    9714:	e7901106 	ldr	r1, [r0, r6, lsl #2]
    9718:	e59f07c4 	ldr	r0, [pc, #1988]	; 9ee4 <block_filter+0x7fc>
    971c:	e08f0000 	add	r0, pc, r0
    9720:	eb0015dd 	bl	ee9c <tfp_printf>
    9724:	e5984000 	ldr	r4, [r8]
    9728:	e3560003 	cmp	r6, #3
    972c:	0a000019 	beq	9798 <block_filter+0xb0>
    9730:	e3560004 	cmp	r6, #4
    9734:	0a0000ac 	beq	99ec <block_filter+0x304>
    9738:	e3560001 	cmp	r6, #1
    973c:	0a000004 	beq	9754 <block_filter+0x6c>
    9740:	e3560002 	cmp	r6, #2
    9744:	0a0000fe 	beq	9b44 <block_filter+0x45c>
    9748:	e3a09000 	mov	r9, #0
    974c:	e1a00009 	mov	r0, r9
    9750:	e8bd8ff8 	pop	{r3, r4, r5, r6, r7, r8, r9, sl, fp, pc}
    9754:	e595300c 	ldr	r3, [r5, #12]
    9758:	e3530000 	cmp	r3, #0
    975c:	13a03000 	movne	r3, #0
    9760:	15853008 	strne	r3, [r5, #8]
    9764:	1a000004 	bne	977c <block_filter+0x94>
    9768:	e5953000 	ldr	r3, [r5]
    976c:	e3530000 	cmp	r3, #0
    9770:	05853004 	streq	r3, [r5, #4]
    9774:	15953004 	ldrne	r3, [r5, #4]
    9778:	e5853008 	str	r3, [r5, #8]
    977c:	e3a03000 	mov	r3, #0
    9780:	e585301c 	str	r3, [r5, #28]
    9784:	e1a09003 	mov	r9, r3
    9788:	e5853010 	str	r3, [r5, #16]
    978c:	e1a00009 	mov	r0, r9
    9790:	e5853014 	str	r3, [r5, #20]
    9794:	e8bd8ff8 	pop	{r3, r4, r5, r6, r7, r8, r9, sl, fp, pc}
    9798:	e59f0748 	ldr	r0, [pc, #1864]	; 9ee8 <block_filter+0x800>
    979c:	e1a01004 	mov	r1, r4
    97a0:	e08f0000 	add	r0, pc, r0
    97a4:	eb0015bc 	bl	ee9c <tfp_printf>
    97a8:	e1a00004 	mov	r0, r4
    97ac:	eb0015ba 	bl	ee9c <tfp_printf>
    97b0:	e595901c 	ldr	r9, [r5, #28]
    97b4:	e3590000 	cmp	r9, #0
    97b8:	13a06000 	movne	r6, #0
    97bc:	13e09000 	mvnne	r9, #0
    97c0:	1a00001f 	bne	9844 <block_filter+0x15c>
    97c4:	e3540000 	cmp	r4, #0
    97c8:	0a0001bc 	beq	9ec0 <block_filter+0x7d8>
    97cc:	e5953004 	ldr	r3, [r5, #4]
    97d0:	e3530000 	cmp	r3, #0
    97d4:	e1a06003 	mov	r6, r3
    97d8:	11a06009 	movne	r6, r9
    97dc:	0a00001b 	beq	9850 <block_filter+0x168>
    97e0:	e1a02003 	mov	r2, r3
    97e4:	e3520000 	cmp	r2, #0
    97e8:	e1a0100a 	mov	r1, sl
    97ec:	e1a00007 	mov	r0, r7
    97f0:	0a000016 	beq	9850 <block_filter+0x168>
    97f4:	e1520004 	cmp	r2, r4
    97f8:	31a0b002 	movcc	fp, r2
    97fc:	21a0b004 	movcs	fp, r4
    9800:	e1a0200b 	mov	r2, fp
    9804:	ebffff02 	bl	9414 <iobuf_read>
    9808:	e15b0000 	cmp	fp, r0
    980c:	e08aa000 	add	sl, sl, r0
    9810:	da000021 	ble	989c <block_filter+0x1b4>
    9814:	e595c004 	ldr	ip, [r5, #4]
    9818:	e3700001 	cmn	r0, #1
    981c:	11a03000 	movne	r3, r0
    9820:	03a03000 	moveq	r3, #0
    9824:	e59f06c0 	ldr	r0, [pc, #1728]	; 9eec <block_filter+0x804>
    9828:	e1a01005 	mov	r1, r5
    982c:	10844003 	addne	r4, r4, r3
    9830:	e3a09059 	mov	r9, #89	; 0x59
    9834:	e08f0000 	add	r0, pc, r0
    9838:	e1a02004 	mov	r2, r4
    983c:	e083300c 	add	r3, r3, ip
    9840:	eb001595 	bl	ee9c <tfp_printf>
    9844:	e5886000 	str	r6, [r8]
    9848:	e1a00009 	mov	r0, r9
    984c:	e8bd8ff8 	pop	{r3, r4, r5, r6, r7, r8, r9, sl, fp, pc}
    9850:	e595200c 	ldr	r2, [r5, #12]
    9854:	e3520002 	cmp	r2, #2
    9858:	0a00004c 	beq	9990 <block_filter+0x2a8>
    985c:	e3520000 	cmp	r2, #0
    9860:	0affffde 	beq	97e0 <block_filter+0xf8>
    9864:	e59f0684 	ldr	r0, [pc, #1668]	; 9ef0 <block_filter+0x808>
    9868:	e08f0000 	add	r0, pc, r0
    986c:	eb00158a 	bl	ee9c <tfp_printf>
    9870:	e5953018 	ldr	r3, [r5, #24]
    9874:	e3530000 	cmp	r3, #0
    9878:	0a00000f 	beq	98bc <block_filter+0x1d4>
    987c:	e35300bf 	cmp	r3, #191	; 0xbf
    9880:	e3a02000 	mov	r2, #0
    9884:	e5852018 	str	r2, [r5, #24]
    9888:	ca00001b 	bgt	98fc <block_filter+0x214>
    988c:	e5853004 	str	r3, [r5, #4]
    9890:	e3a02002 	mov	r2, #2
    9894:	e585200c 	str	r2, [r5, #12]
    9898:	eaffffd0 	b	97e0 <block_filter+0xf8>
    989c:	e5953004 	ldr	r3, [r5, #4]
    98a0:	e0544000 	subs	r4, r4, r0
    98a4:	e0432000 	sub	r2, r3, r0
    98a8:	e0866000 	add	r6, r6, r0
    98ac:	e1a03002 	mov	r3, r2
    98b0:	e5852004 	str	r2, [r5, #4]
    98b4:	1affffca 	bne	97e4 <block_filter+0xfc>
    98b8:	eaffffe1 	b	9844 <block_filter+0x15c>
    98bc:	e5973010 	ldr	r3, [r7, #16]
    98c0:	e3530000 	cmp	r3, #0
    98c4:	1a000037 	bne	99a8 <block_filter+0x2c0>
    98c8:	e5973018 	ldr	r3, [r7, #24]
    98cc:	e597201c 	ldr	r2, [r7, #28]
    98d0:	e1530002 	cmp	r3, r2
    98d4:	2a000033 	bcs	99a8 <block_filter+0x2c0>
    98d8:	e5972008 	ldr	r2, [r7, #8]
    98dc:	e5971020 	ldr	r1, [r7, #32]
    98e0:	e2822001 	add	r2, r2, #1
    98e4:	e5872008 	str	r2, [r7, #8]
    98e8:	e2832001 	add	r2, r3, #1
    98ec:	e5872018 	str	r2, [r7, #24]
    98f0:	e7d13003 	ldrb	r3, [r1, r3]
    98f4:	e35300bf 	cmp	r3, #191	; 0xbf
    98f8:	da00001f 	ble	997c <block_filter+0x294>
    98fc:	e35300df 	cmp	r3, #223	; 0xdf
    9900:	ca000032 	bgt	99d0 <block_filter+0x2e8>
    9904:	e5972010 	ldr	r2, [r7, #16]
    9908:	e24330c0 	sub	r3, r3, #192	; 0xc0
    990c:	e1a03403 	lsl	r3, r3, #8
    9910:	e3520000 	cmp	r2, #0
    9914:	e5853004 	str	r3, [r5, #4]
    9918:	1a000010 	bne	9960 <block_filter+0x278>
    991c:	e5972018 	ldr	r2, [r7, #24]
    9920:	e597101c 	ldr	r1, [r7, #28]
    9924:	e1520001 	cmp	r2, r1
    9928:	2a00000c 	bcs	9960 <block_filter+0x278>
    992c:	e5971008 	ldr	r1, [r7, #8]
    9930:	e28330c0 	add	r3, r3, #192	; 0xc0
    9934:	e5970020 	ldr	r0, [r7, #32]
    9938:	e2811001 	add	r1, r1, #1
    993c:	e5871008 	str	r1, [r7, #8]
    9940:	e2821001 	add	r1, r2, #1
    9944:	e5871018 	str	r1, [r7, #24]
    9948:	e7d02002 	ldrb	r2, [r0, r2]
    994c:	e0823003 	add	r3, r2, r3
    9950:	e3a02002 	mov	r2, #2
    9954:	e5853004 	str	r3, [r5, #4]
    9958:	e585200c 	str	r2, [r5, #12]
    995c:	eaffff9f 	b	97e0 <block_filter+0xf8>
    9960:	e1a00007 	mov	r0, r7
    9964:	ebfffdf1 	bl	9130 <iobuf_readbyte>
    9968:	e3700001 	cmn	r0, #1
    996c:	15953004 	ldrne	r3, [r5, #4]
    9970:	128330c0 	addne	r3, r3, #192	; 0xc0
    9974:	10833000 	addne	r3, r3, r0
    9978:	0a0000e7 	beq	9d1c <block_filter+0x634>
    997c:	e5853004 	str	r3, [r5, #4]
    9980:	e3530000 	cmp	r3, #0
    9984:	e3a02002 	mov	r2, #2
    9988:	e585200c 	str	r2, [r5, #12]
    998c:	1affff93 	bne	97e0 <block_filter+0xf8>
    9990:	e16f9f16 	clz	r9, r6
    9994:	e3a03001 	mov	r3, #1
    9998:	e585301c 	str	r3, [r5, #28]
    999c:	e1a092a9 	lsr	r9, r9, #5
    99a0:	e2699000 	rsb	r9, r9, #0
    99a4:	eaffffa6 	b	9844 <block_filter+0x15c>
    99a8:	e1a00007 	mov	r0, r7
    99ac:	ebfffddf 	bl	9130 <iobuf_readbyte>
    99b0:	e3700001 	cmn	r0, #1
    99b4:	e1a03000 	mov	r3, r0
    99b8:	1affffcd 	bne	98f4 <block_filter+0x20c>
    99bc:	e59f0530 	ldr	r0, [pc, #1328]	; 9ef4 <block_filter+0x80c>
    99c0:	e3a09059 	mov	r9, #89	; 0x59
    99c4:	e08f0000 	add	r0, pc, r0
    99c8:	eb001533 	bl	ee9c <tfp_printf>
    99cc:	eaffff9c 	b	9844 <block_filter+0x15c>
    99d0:	e35300ff 	cmp	r3, #255	; 0xff
    99d4:	0a000063 	beq	9b68 <block_filter+0x480>
    99d8:	e203301f 	and	r3, r3, #31
    99dc:	e3a02001 	mov	r2, #1
    99e0:	e1a03312 	lsl	r3, r2, r3
    99e4:	e5853004 	str	r3, [r5, #4]
    99e8:	eaffff7c 	b	97e0 <block_filter+0xf8>
    99ec:	e59f0504 	ldr	r0, [pc, #1284]	; 9ef8 <block_filter+0x810>
    99f0:	e595100c 	ldr	r1, [r5, #12]
    99f4:	e08f0000 	add	r0, pc, r0
    99f8:	eb001527 	bl	ee9c <tfp_printf>
    99fc:	e595300c 	ldr	r3, [r5, #12]
    9a00:	e3530000 	cmp	r3, #0
    9a04:	0affff4f 	beq	9748 <block_filter+0x60>
    9a08:	e5950014 	ldr	r0, [r5, #20]
    9a0c:	e0806004 	add	r6, r0, r4
    9a10:	e3560c02 	cmp	r6, #512	; 0x200
    9a14:	3a000089 	bcc	9c40 <block_filter+0x558>
    9a18:	e3560b01 	cmp	r6, #1024	; 0x400
    9a1c:	3a0000c3 	bcc	9d30 <block_filter+0x648>
    9a20:	e3a03b01 	mov	r3, #1024	; 0x400
    9a24:	e3a0200a 	mov	r2, #10
    9a28:	e1a03083 	lsl	r3, r3, #1
    9a2c:	e1a00002 	mov	r0, r2
    9a30:	e1560003 	cmp	r6, r3
    9a34:	e2822001 	add	r2, r2, #1
    9a38:	2afffffa 	bcs	9a28 <block_filter+0x340>
    9a3c:	e350001f 	cmp	r0, #31
    9a40:	e38080e0 	orr	r8, r0, #224	; 0xe0
    9a44:	e1a040a3 	lsr	r4, r3, #1
    9a48:	c3a00000 	movgt	r0, #0
    9a4c:	d3a00001 	movle	r0, #1
    9a50:	eb001511 	bl	ee9c <tfp_printf>
    9a54:	e1a01008 	mov	r1, r8
    9a58:	e1a00007 	mov	r0, r7
    9a5c:	ebfffec0 	bl	9564 <iobuf_writebyte>
    9a60:	e5959014 	ldr	r9, [r5, #20]
    9a64:	e3590000 	cmp	r9, #0
    9a68:	1a000009 	bne	9a94 <block_filter+0x3ac>
    9a6c:	e1540006 	cmp	r4, r6
    9a70:	21a04006 	movcs	r4, r6
    9a74:	e1a02004 	mov	r2, r4
    9a78:	e1a0100a 	mov	r1, sl
    9a7c:	e1a00007 	mov	r0, r7
    9a80:	ebfffee2 	bl	9610 <iobuf_write>
    9a84:	e3500000 	cmp	r0, #0
    9a88:	0a000013 	beq	9adc <block_filter+0x3f4>
    9a8c:	e3e09000 	mvn	r9, #0
    9a90:	eaffff2d 	b	974c <block_filter+0x64>
    9a94:	e0466009 	sub	r6, r6, r9
    9a98:	e2490c02 	sub	r0, r9, #512	; 0x200
    9a9c:	e16f0f10 	clz	r0, r0
    9aa0:	e1a002a0 	lsr	r0, r0, #5
    9aa4:	eb0014fc 	bl	ee9c <tfp_printf>
    9aa8:	e5951010 	ldr	r1, [r5, #16]
    9aac:	e1a02009 	mov	r2, r9
    9ab0:	e1a00007 	mov	r0, r7
    9ab4:	ebfffed5 	bl	9610 <iobuf_write>
    9ab8:	e2509000 	subs	r9, r0, #0
    9abc:	e3a03000 	mov	r3, #0
    9ac0:	e5853014 	str	r3, [r5, #20]
    9ac4:	13a09001 	movne	r9, #1
    9ac8:	e1540006 	cmp	r4, r6
    9acc:	e2699000 	rsb	r9, r9, #0
    9ad0:	21a04006 	movcs	r4, r6
    9ad4:	e3540000 	cmp	r4, #0
    9ad8:	1affffe5 	bne	9a74 <block_filter+0x38c>
    9adc:	e16f3f19 	clz	r3, r9
    9ae0:	e0466004 	sub	r6, r6, r4
    9ae4:	e1a032a3 	lsr	r3, r3, #5
    9ae8:	e08aa004 	add	sl, sl, r4
    9aec:	e3560c02 	cmp	r6, #512	; 0x200
    9af0:	33a02000 	movcc	r2, #0
    9af4:	22032001 	andcs	r2, r3, #1
    9af8:	e3520000 	cmp	r2, #0
    9afc:	1affffc5 	bne	9a18 <block_filter+0x330>
    9b00:	e3560000 	cmp	r6, #0
    9b04:	03a03000 	moveq	r3, #0
    9b08:	12033001 	andne	r3, r3, #1
    9b0c:	e3530000 	cmp	r3, #0
    9b10:	0affff0d 	beq	974c <block_filter+0x64>
    9b14:	e59f03e0 	ldr	r0, [pc, #992]	; 9efc <block_filter+0x814>
    9b18:	e08f0000 	add	r0, pc, r0
    9b1c:	eb0014de 	bl	ee9c <tfp_printf>
    9b20:	e5950010 	ldr	r0, [r5, #16]
    9b24:	e3500000 	cmp	r0, #0
    9b28:	0a0000e0 	beq	9eb0 <block_filter+0x7c8>
    9b2c:	e1a02006 	mov	r2, r6
    9b30:	e1a0100a 	mov	r1, sl
    9b34:	e3a09000 	mov	r9, #0
    9b38:	eb000cee 	bl	cef8 <memcpy>
    9b3c:	e5856014 	str	r6, [r5, #20]
    9b40:	eaffff01 	b	974c <block_filter+0x64>
    9b44:	e5953000 	ldr	r3, [r5]
    9b48:	e3530002 	cmp	r3, #2
    9b4c:	0a00007b 	beq	9d40 <block_filter+0x658>
    9b50:	e5959004 	ldr	r9, [r5, #4]
    9b54:	e3590000 	cmp	r9, #0
    9b58:	1a00006a 	bne	9d08 <block_filter+0x620>
    9b5c:	e1a00005 	mov	r0, r5
    9b60:	eb000caa 	bl	ce10 <xfree>
    9b64:	eafffef8 	b	974c <block_filter+0x64>
    9b68:	e5973010 	ldr	r3, [r7, #16]
    9b6c:	e3530000 	cmp	r3, #0
    9b70:	1a000003 	bne	9b84 <block_filter+0x49c>
    9b74:	e5973018 	ldr	r3, [r7, #24]
    9b78:	e597201c 	ldr	r2, [r7, #28]
    9b7c:	e1530002 	cmp	r3, r2
    9b80:	3a000056 	bcc	9ce0 <block_filter+0x5f8>
    9b84:	e1a00007 	mov	r0, r7
    9b88:	ebfffd68 	bl	9130 <iobuf_readbyte>
    9b8c:	e5972010 	ldr	r2, [r7, #16]
    9b90:	e1a03c00 	lsl	r3, r0, #24
    9b94:	e5853004 	str	r3, [r5, #4]
    9b98:	e3520000 	cmp	r2, #0
    9b9c:	0597201c 	ldreq	r2, [r7, #28]
    9ba0:	1a000002 	bne	9bb0 <block_filter+0x4c8>
    9ba4:	e5971018 	ldr	r1, [r7, #24]
    9ba8:	e1510002 	cmp	r1, r2
    9bac:	3a00002f 	bcc	9c70 <block_filter+0x588>
    9bb0:	e1a00007 	mov	r0, r7
    9bb4:	ebfffd5d 	bl	9130 <iobuf_readbyte>
    9bb8:	e5971010 	ldr	r1, [r7, #16]
    9bbc:	e5952004 	ldr	r2, [r5, #4]
    9bc0:	e1a03800 	lsl	r3, r0, #16
    9bc4:	e3510000 	cmp	r1, #0
    9bc8:	e20338ff 	and	r3, r3, #16711680	; 0xff0000
    9bcc:	e1833002 	orr	r3, r3, r2
    9bd0:	e5853004 	str	r3, [r5, #4]
    9bd4:	0597201c 	ldreq	r2, [r7, #28]
    9bd8:	1a000002 	bne	9be8 <block_filter+0x500>
    9bdc:	e5971018 	ldr	r1, [r7, #24]
    9be0:	e1510002 	cmp	r1, r2
    9be4:	3a00002b 	bcc	9c98 <block_filter+0x5b0>
    9be8:	e1a00007 	mov	r0, r7
    9bec:	ebfffd4f 	bl	9130 <iobuf_readbyte>
    9bf0:	e5971010 	ldr	r1, [r7, #16]
    9bf4:	e5952004 	ldr	r2, [r5, #4]
    9bf8:	e1a03400 	lsl	r3, r0, #8
    9bfc:	e3510000 	cmp	r1, #0
    9c00:	e6ff3073 	uxth	r3, r3
    9c04:	e1833002 	orr	r3, r3, r2
    9c08:	e5853004 	str	r3, [r5, #4]
    9c0c:	0597201c 	ldreq	r2, [r7, #28]
    9c10:	1a000002 	bne	9c20 <block_filter+0x538>
    9c14:	e5971018 	ldr	r1, [r7, #24]
    9c18:	e1510002 	cmp	r1, r2
    9c1c:	3a000027 	bcc	9cc0 <block_filter+0x5d8>
    9c20:	e1a00007 	mov	r0, r7
    9c24:	ebfffd41 	bl	9130 <iobuf_readbyte>
    9c28:	e3700001 	cmn	r0, #1
    9c2c:	e1a02000 	mov	r2, r0
    9c30:	15953004 	ldrne	r3, [r5, #4]
    9c34:	0a000098 	beq	9e9c <block_filter+0x7b4>
    9c38:	e1823003 	orr	r3, r2, r3
    9c3c:	eaffff4e 	b	997c <block_filter+0x294>
    9c40:	e5953010 	ldr	r3, [r5, #16]
    9c44:	e3530000 	cmp	r3, #0
    9c48:	0a000058 	beq	9db0 <block_filter+0x6c8>
    9c4c:	e0830000 	add	r0, r3, r0
    9c50:	e1a02004 	mov	r2, r4
    9c54:	e1a0100a 	mov	r1, sl
    9c58:	e3a09000 	mov	r9, #0
    9c5c:	eb000ca5 	bl	cef8 <memcpy>
    9c60:	e5953014 	ldr	r3, [r5, #20]
    9c64:	e0834004 	add	r4, r3, r4
    9c68:	e5854014 	str	r4, [r5, #20]
    9c6c:	eafffeb6 	b	974c <block_filter+0x64>
    9c70:	e5970008 	ldr	r0, [r7, #8]
    9c74:	e597c020 	ldr	ip, [r7, #32]
    9c78:	e2800001 	add	r0, r0, #1
    9c7c:	e5870008 	str	r0, [r7, #8]
    9c80:	e2810001 	add	r0, r1, #1
    9c84:	e5870018 	str	r0, [r7, #24]
    9c88:	e7dc1001 	ldrb	r1, [ip, r1]
    9c8c:	e1833801 	orr	r3, r3, r1, lsl #16
    9c90:	e5853004 	str	r3, [r5, #4]
    9c94:	eaffffd0 	b	9bdc <block_filter+0x4f4>
    9c98:	e5970008 	ldr	r0, [r7, #8]
    9c9c:	e597c020 	ldr	ip, [r7, #32]
    9ca0:	e2800001 	add	r0, r0, #1
    9ca4:	e5870008 	str	r0, [r7, #8]
    9ca8:	e2810001 	add	r0, r1, #1
    9cac:	e5870018 	str	r0, [r7, #24]
    9cb0:	e7dc1001 	ldrb	r1, [ip, r1]
    9cb4:	e1833401 	orr	r3, r3, r1, lsl #8
    9cb8:	e5853004 	str	r3, [r5, #4]
    9cbc:	eaffffd4 	b	9c14 <block_filter+0x52c>
    9cc0:	e5972008 	ldr	r2, [r7, #8]
    9cc4:	e5970020 	ldr	r0, [r7, #32]
    9cc8:	e2822001 	add	r2, r2, #1
    9ccc:	e5872008 	str	r2, [r7, #8]
    9cd0:	e2812001 	add	r2, r1, #1
    9cd4:	e5872018 	str	r2, [r7, #24]
    9cd8:	e7d02001 	ldrb	r2, [r0, r1]
    9cdc:	eaffffd5 	b	9c38 <block_filter+0x550>
    9ce0:	e5971008 	ldr	r1, [r7, #8]
    9ce4:	e5970020 	ldr	r0, [r7, #32]
    9ce8:	e2811001 	add	r1, r1, #1
    9cec:	e5871008 	str	r1, [r7, #8]
    9cf0:	e2831001 	add	r1, r3, #1
    9cf4:	e5871018 	str	r1, [r7, #24]
    9cf8:	e7d03003 	ldrb	r3, [r0, r3]
    9cfc:	e1a03c03 	lsl	r3, r3, #24
    9d00:	e5853004 	str	r3, [r5, #4]
    9d04:	eaffffa6 	b	9ba4 <block_filter+0x4bc>
    9d08:	e59f01f0 	ldr	r0, [pc, #496]	; 9f00 <block_filter+0x818>
    9d0c:	e3a09000 	mov	r9, #0
    9d10:	e08f0000 	add	r0, pc, r0
    9d14:	eb001460 	bl	ee9c <tfp_printf>
    9d18:	eaffff8f 	b	9b5c <block_filter+0x474>
    9d1c:	e59f01e0 	ldr	r0, [pc, #480]	; 9f04 <block_filter+0x81c>
    9d20:	e3a09059 	mov	r9, #89	; 0x59
    9d24:	e08f0000 	add	r0, pc, r0
    9d28:	eb00145b 	bl	ee9c <tfp_printf>
    9d2c:	eafffec4 	b	9844 <block_filter+0x15c>
    9d30:	e3a00001 	mov	r0, #1
    9d34:	e3a04c02 	mov	r4, #512	; 0x200
    9d38:	e3a080e9 	mov	r8, #233	; 0xe9
    9d3c:	eaffff43 	b	9a50 <block_filter+0x368>
    9d40:	e595900c 	ldr	r9, [r5, #12]
    9d44:	e3590000 	cmp	r9, #0
    9d48:	0affff83 	beq	9b5c <block_filter+0x474>
    9d4c:	e5956014 	ldr	r6, [r5, #20]
    9d50:	e35600bf 	cmp	r6, #191	; 0xbf
    9d54:	9a000047 	bls	9e78 <block_filter+0x790>
    9d58:	e3560d83 	cmp	r6, #8384	; 0x20c0
    9d5c:	2a000019 	bcs	9dc8 <block_filter+0x6e0>
    9d60:	e59f01a0 	ldr	r0, [pc, #416]	; 9f08 <block_filter+0x820>
    9d64:	e24680c0 	sub	r8, r6, #192	; 0xc0
    9d68:	e1a01006 	mov	r1, r6
    9d6c:	e08f0000 	add	r0, pc, r0
    9d70:	eb001449 	bl	ee9c <tfp_printf>
    9d74:	e1a01428 	lsr	r1, r8, #8
    9d78:	e1a00007 	mov	r0, r7
    9d7c:	e28110c0 	add	r1, r1, #192	; 0xc0
    9d80:	ebfffdf7 	bl	9564 <iobuf_writebyte>
    9d84:	e2504000 	subs	r4, r0, #0
    9d88:	0a00004e 	beq	9ec8 <block_filter+0x7e0>
    9d8c:	e2544000 	subs	r4, r4, #0
    9d90:	e5950010 	ldr	r0, [r5, #16]
    9d94:	13a04001 	movne	r4, #1
    9d98:	e2649000 	rsb	r9, r4, #0
    9d9c:	eb000c1b 	bl	ce10 <xfree>
    9da0:	e3a03000 	mov	r3, #0
    9da4:	e5853010 	str	r3, [r5, #16]
    9da8:	e5853014 	str	r3, [r5, #20]
    9dac:	eaffff6a 	b	9b5c <block_filter+0x474>
    9db0:	e3a00c02 	mov	r0, #512	; 0x200
    9db4:	eb000c21 	bl	ce40 <xmalloc>
    9db8:	e1a03000 	mov	r3, r0
    9dbc:	e5853010 	str	r3, [r5, #16]
    9dc0:	e5950014 	ldr	r0, [r5, #20]
    9dc4:	eaffffa0 	b	9c4c <block_filter+0x564>
    9dc8:	e59f013c 	ldr	r0, [pc, #316]	; 9f0c <block_filter+0x824>
    9dcc:	e1a01006 	mov	r1, r6
    9dd0:	e08f0000 	add	r0, pc, r0
    9dd4:	eb001430 	bl	ee9c <tfp_printf>
    9dd8:	e3a010ff 	mov	r1, #255	; 0xff
    9ddc:	e1a00007 	mov	r0, r7
    9de0:	ebfffddf 	bl	9564 <iobuf_writebyte>
    9de4:	e2504000 	subs	r4, r0, #0
    9de8:	1affffe7 	bne	9d8c <block_filter+0x6a4>
    9dec:	e1a01c26 	lsr	r1, r6, #24
    9df0:	e1a00007 	mov	r0, r7
    9df4:	ebfffdda 	bl	9564 <iobuf_writebyte>
    9df8:	e2504000 	subs	r4, r0, #0
    9dfc:	1affffe2 	bne	9d8c <block_filter+0x6a4>
    9e00:	e7e71856 	ubfx	r1, r6, #16, #8
    9e04:	e1a00007 	mov	r0, r7
    9e08:	ebfffdd5 	bl	9564 <iobuf_writebyte>
    9e0c:	e2504000 	subs	r4, r0, #0
    9e10:	1affffdd 	bne	9d8c <block_filter+0x6a4>
    9e14:	e7e71456 	ubfx	r1, r6, #8, #8
    9e18:	e1a00007 	mov	r0, r7
    9e1c:	ebfffdd0 	bl	9564 <iobuf_writebyte>
    9e20:	e2504000 	subs	r4, r0, #0
    9e24:	1affffd8 	bne	9d8c <block_filter+0x6a4>
    9e28:	e6ef1076 	uxtb	r1, r6
    9e2c:	e1a00007 	mov	r0, r7
    9e30:	ebfffdcb 	bl	9564 <iobuf_writebyte>
    9e34:	e1a04000 	mov	r4, r0
    9e38:	e16f3f14 	clz	r3, r4
    9e3c:	e3560000 	cmp	r6, #0
    9e40:	e1a032a3 	lsr	r3, r3, #5
    9e44:	03a03000 	moveq	r3, #0
    9e48:	e3530000 	cmp	r3, #0
    9e4c:	0affffce 	beq	9d8c <block_filter+0x6a4>
    9e50:	e59f00b8 	ldr	r0, [pc, #184]	; 9f10 <block_filter+0x828>
    9e54:	e1a01006 	mov	r1, r6
    9e58:	e08f0000 	add	r0, pc, r0
    9e5c:	eb00140e 	bl	ee9c <tfp_printf>
    9e60:	e5951010 	ldr	r1, [r5, #16]
    9e64:	e1a02006 	mov	r2, r6
    9e68:	e1a00007 	mov	r0, r7
    9e6c:	ebfffde7 	bl	9610 <iobuf_write>
    9e70:	e1a04000 	mov	r4, r0
    9e74:	eaffffc4 	b	9d8c <block_filter+0x6a4>
    9e78:	e1a01006 	mov	r1, r6
    9e7c:	e1a00007 	mov	r0, r7
    9e80:	ebfffdb7 	bl	9564 <iobuf_writebyte>
    9e84:	e1a04000 	mov	r4, r0
    9e88:	e1a01006 	mov	r1, r6
    9e8c:	e59f0080 	ldr	r0, [pc, #128]	; 9f14 <block_filter+0x82c>
    9e90:	e08f0000 	add	r0, pc, r0
    9e94:	eb001400 	bl	ee9c <tfp_printf>
    9e98:	eaffffe6 	b	9e38 <block_filter+0x750>
    9e9c:	e59f0074 	ldr	r0, [pc, #116]	; 9f18 <block_filter+0x830>
    9ea0:	e3a09059 	mov	r9, #89	; 0x59
    9ea4:	e08f0000 	add	r0, pc, r0
    9ea8:	eb0013fb 	bl	ee9c <tfp_printf>
    9eac:	eafffe64 	b	9844 <block_filter+0x15c>
    9eb0:	e3a00c02 	mov	r0, #512	; 0x200
    9eb4:	eb000be1 	bl	ce40 <xmalloc>
    9eb8:	e5850010 	str	r0, [r5, #16]
    9ebc:	eaffff1a 	b	9b2c <block_filter+0x444>
    9ec0:	e1a06009 	mov	r6, r9
    9ec4:	eafffe5e 	b	9844 <block_filter+0x15c>
    9ec8:	e6ef1078 	uxtb	r1, r8
    9ecc:	e1a00007 	mov	r0, r7
    9ed0:	ebfffda3 	bl	9564 <iobuf_writebyte>
    9ed4:	e1a04000 	mov	r4, r0
    9ed8:	eaffffd6 	b	9e38 <block_filter+0x750>
    9edc:	0000b444 	.word	0x0000b444
    9ee0:	00015640 	.word	0x00015640
    9ee4:	00007e54 	.word	0x00007e54
    9ee8:	00007de4 	.word	0x00007de4
    9eec:	00007e34 	.word	0x00007e34
    9ef0:	00007d34 	.word	0x00007d34
    9ef4:	00007c2c 	.word	0x00007c2c
    9ef8:	00007ca8 	.word	0x00007ca8
    9efc:	00007b98 	.word	0x00007b98
    9f00:	00007a70 	.word	0x00007a70
    9f04:	000078f4 	.word	0x000078f4
    9f08:	00007990 	.word	0x00007990
    9f0c:	00007958 	.word	0x00007958
    9f10:	000078fc 	.word	0x000078fc
    9f14:	00007840 	.word	0x00007840
    9f18:	0000779c 	.word	0x0000779c

00009f1c <iobuf_tell>:
    9f1c:	e590200c 	ldr	r2, [r0, #12]
    9f20:	e5900008 	ldr	r0, [r0, #8]
    9f24:	e0820000 	add	r0, r2, r0
    9f28:	e12fff1e 	bx	lr

00009f2c <iobuf_set_partial_body_length_mode>:
    9f2c:	e92d4070 	push	{r4, r5, r6, lr}
    9f30:	e1a04000 	mov	r4, r0
    9f34:	e59f00b8 	ldr	r0, [pc, #184]	; 9ff4 <iobuf_set_partial_body_length_mode+0xc8>
    9f38:	e1a05001 	mov	r5, r1
    9f3c:	e08f0000 	add	r0, pc, r0
    9f40:	eb0013d5 	bl	ee9c <tfp_printf>
    9f44:	e3550000 	cmp	r5, #0
    9f48:	1a000015 	bne	9fa4 <iobuf_set_partial_body_length_mode+0x78>
    9f4c:	e5d43000 	ldrb	r3, [r4]
    9f50:	e3530000 	cmp	r3, #0
    9f54:	0a00000e 	beq	9f94 <iobuf_set_partial_body_length_mode+0x68>
    9f58:	e59f0098 	ldr	r0, [pc, #152]	; 9ff8 <iobuf_set_partial_body_length_mode+0xcc>
    9f5c:	e59f5098 	ldr	r5, [pc, #152]	; 9ffc <iobuf_set_partial_body_length_mode+0xd0>
    9f60:	e08f0000 	add	r0, pc, r0
    9f64:	e08f5005 	add	r5, pc, r5
    9f68:	eb0013cb 	bl	ee9c <tfp_printf>
    9f6c:	e594002c 	ldr	r0, [r4, #44]	; 0x2c
    9f70:	e0400005 	sub	r0, r0, r5
    9f74:	e16f0f10 	clz	r0, r0
    9f78:	e1a002a0 	lsr	r0, r0, #5
    9f7c:	eb0013c6 	bl	ee9c <tfp_printf>
    9f80:	e1a01005 	mov	r1, r5
    9f84:	e1a00004 	mov	r0, r4
    9f88:	e3a02000 	mov	r2, #0
    9f8c:	e8bd4070 	pop	{r4, r5, r6, lr}
    9f90:	eafffba9 	b	8e3c <iobuf_pop_filter>
    9f94:	e59f0064 	ldr	r0, [pc, #100]	; a000 <iobuf_set_partial_body_length_mode+0xd4>
    9f98:	e08f0000 	add	r0, pc, r0
    9f9c:	eb0013be 	bl	ee9c <tfp_printf>
    9fa0:	eaffffec 	b	9f58 <iobuf_set_partial_body_length_mode+0x2c>
    9fa4:	e3a01020 	mov	r1, #32
    9fa8:	e3a00001 	mov	r0, #1
    9fac:	eb000bc0 	bl	ceb4 <xcalloc>
    9fb0:	e5d41000 	ldrb	r1, [r4]
    9fb4:	e3a03001 	mov	r3, #1
    9fb8:	e580300c 	str	r3, [r0, #12]
    9fbc:	e3a03000 	mov	r3, #0
    9fc0:	e5801000 	str	r1, [r0]
    9fc4:	e1a06000 	mov	r6, r0
    9fc8:	e5803004 	str	r3, [r0, #4]
    9fcc:	e59f0030 	ldr	r0, [pc, #48]	; a004 <iobuf_set_partial_body_length_mode+0xd8>
    9fd0:	e5865018 	str	r5, [r6, #24]
    9fd4:	e08f0000 	add	r0, pc, r0
    9fd8:	eb0013af 	bl	ee9c <tfp_printf>
    9fdc:	e59f1024 	ldr	r1, [pc, #36]	; a008 <iobuf_set_partial_body_length_mode+0xdc>
    9fe0:	e1a02006 	mov	r2, r6
    9fe4:	e1a00004 	mov	r0, r4
    9fe8:	e08f1001 	add	r1, pc, r1
    9fec:	e8bd4070 	pop	{r4, r5, r6, lr}
    9ff0:	eafffb8f 	b	8e34 <iobuf_push_filter>
    9ff4:	00007864 	.word	0x00007864
    9ff8:	000078ac 	.word	0x000078ac
    9ffc:	fffff77c 	.word	0xfffff77c
    a000:	00007830 	.word	0x00007830
    a004:	0000786c 	.word	0x0000786c
    a008:	fffff6f8 	.word	0xfffff6f8

0000a00c <translate_file_handle>:
    a00c:	e12fff1e 	bx	lr

0000a010 <iobuf_skip_rest>:
    a010:	e3520000 	cmp	r2, #0
    a014:	e92d4070 	push	{r4, r5, r6, lr}
    a018:	e1a04000 	mov	r4, r0
    a01c:	1a000031 	bne	a0e8 <iobuf_skip_rest+0xd8>
    a020:	e3510000 	cmp	r1, #0
    a024:	e1a05001 	mov	r5, r1
    a028:	08bd8070 	popeq	{r4, r5, r6, pc}
    a02c:	e5943010 	ldr	r3, [r4, #16]
    a030:	e1a00004 	mov	r0, r4
    a034:	e3530000 	cmp	r3, #0
    a038:	0a000014 	beq	a090 <iobuf_skip_rest+0x80>
    a03c:	e2455001 	sub	r5, r5, #1
    a040:	ebfffc3a 	bl	9130 <iobuf_readbyte>
    a044:	e3700001 	cmn	r0, #1
    a048:	08bd8070 	popeq	{r4, r5, r6, pc}
    a04c:	e3550000 	cmp	r5, #0
    a050:	1a00000a 	bne	a080 <iobuf_skip_rest+0x70>
    a054:	e8bd8070 	pop	{r4, r5, r6, pc}
    a058:	e1530005 	cmp	r3, r5
    a05c:	e5941008 	ldr	r1, [r4, #8]
    a060:	21a03005 	movcs	r3, r5
    a064:	e0455003 	sub	r5, r5, r3
    a068:	e0811003 	add	r1, r1, r3
    a06c:	e3550000 	cmp	r5, #0
    a070:	e0833002 	add	r3, r3, r2
    a074:	e5841008 	str	r1, [r4, #8]
    a078:	e5843018 	str	r3, [r4, #24]
    a07c:	08bd8070 	popeq	{r4, r5, r6, pc}
    a080:	e5943010 	ldr	r3, [r4, #16]
    a084:	e1a00004 	mov	r0, r4
    a088:	e3530000 	cmp	r3, #0
    a08c:	1affffea 	bne	a03c <iobuf_skip_rest+0x2c>
    a090:	e5942018 	ldr	r2, [r4, #24]
    a094:	e594101c 	ldr	r1, [r4, #28]
    a098:	e1520001 	cmp	r2, r1
    a09c:	e0413002 	sub	r3, r1, r2
    a0a0:	3affffec 	bcc	a058 <iobuf_skip_rest+0x48>
    a0a4:	eaffffe4 	b	a03c <iobuf_skip_rest+0x2c>
    a0a8:	e594101c 	ldr	r1, [r4, #28]
    a0ac:	e5942018 	ldr	r2, [r4, #24]
    a0b0:	e1520001 	cmp	r2, r1
    a0b4:	2a000007 	bcs	a0d8 <iobuf_skip_rest+0xc8>
    a0b8:	e5943008 	ldr	r3, [r4, #8]
    a0bc:	e5841018 	str	r1, [r4, #24]
    a0c0:	e0433002 	sub	r3, r3, r2
    a0c4:	e5942018 	ldr	r2, [r4, #24]
    a0c8:	e0833001 	add	r3, r3, r1
    a0cc:	e1520001 	cmp	r2, r1
    a0d0:	e5843008 	str	r3, [r4, #8]
    a0d4:	3afffff7 	bcc	a0b8 <iobuf_skip_rest+0xa8>
    a0d8:	e1a00004 	mov	r0, r4
    a0dc:	ebfffc13 	bl	9130 <iobuf_readbyte>
    a0e0:	e3700001 	cmn	r0, #1
    a0e4:	08bd8070 	popeq	{r4, r5, r6, pc}
    a0e8:	e5943010 	ldr	r3, [r4, #16]
    a0ec:	e3530000 	cmp	r3, #0
    a0f0:	1afffff8 	bne	a0d8 <iobuf_skip_rest+0xc8>
    a0f4:	eaffffeb 	b	a0a8 <iobuf_skip_rest+0x98>

0000a0f8 <log_hexdump>:
    a0f8:	e92d4ff0 	push	{r4, r5, r6, r7, r8, r9, sl, fp, lr}
    a0fc:	e1a06000 	mov	r6, r0
    a100:	e59f013c 	ldr	r0, [pc, #316]	; a244 <log_hexdump+0x14c>
    a104:	e1a07001 	mov	r7, r1
    a108:	e24dd02c 	sub	sp, sp, #44	; 0x2c
    a10c:	e08f0000 	add	r0, pc, r0
    a110:	eb001361 	bl	ee9c <tfp_printf>
    a114:	e3570000 	cmp	r7, #0
    a118:	da000041 	ble	a224 <log_hexdump+0x12c>
    a11c:	e59f3124 	ldr	r3, [pc, #292]	; a248 <log_hexdump+0x150>
    a120:	e3a0a000 	mov	sl, #0
    a124:	e59f9120 	ldr	r9, [pc, #288]	; a24c <log_hexdump+0x154>
    a128:	e59f8120 	ldr	r8, [pc, #288]	; a250 <log_hexdump+0x158>
    a12c:	e59f5120 	ldr	r5, [pc, #288]	; a254 <log_hexdump+0x15c>
    a130:	e08f3003 	add	r3, pc, r3
    a134:	e58d3004 	str	r3, [sp, #4]
    a138:	e28d3013 	add	r3, sp, #19
    a13c:	e08f9009 	add	r9, pc, r9
    a140:	e08f8008 	add	r8, pc, r8
    a144:	e08f5005 	add	r5, pc, r5
    a148:	e58d3008 	str	r3, [sp, #8]
    a14c:	e28d3014 	add	r3, sp, #20
    a150:	e58d300c 	str	r3, [sp, #12]
    a154:	e59d0004 	ldr	r0, [sp, #4]
    a158:	e3570010 	cmp	r7, #16
    a15c:	e1a0100a 	mov	r1, sl
    a160:	e3a0b000 	mov	fp, #0
    a164:	b1a04007 	movlt	r4, r7
    a168:	a3a04010 	movge	r4, #16
    a16c:	eb00134a 	bl	ee9c <tfp_printf>
    a170:	ea000006 	b	a190 <log_hexdump+0x98>
    a174:	e59f00dc 	ldr	r0, [pc, #220]	; a258 <log_hexdump+0x160>
    a178:	e7d6100b 	ldrb	r1, [r6, fp]
    a17c:	e28bb001 	add	fp, fp, #1
    a180:	e08f0000 	add	r0, pc, r0
    a184:	eb001344 	bl	ee9c <tfp_printf>
    a188:	e35b0010 	cmp	fp, #16
    a18c:	0a00000a 	beq	a1bc <log_hexdump+0xc4>
    a190:	e31b0001 	tst	fp, #1
    a194:	0a000027 	beq	a238 <log_hexdump+0x140>
    a198:	e31b0007 	tst	fp, #7
    a19c:	0a000022 	beq	a22c <log_hexdump+0x134>
    a1a0:	e154000b 	cmp	r4, fp
    a1a4:	e1a00005 	mov	r0, r5
    a1a8:	cafffff1 	bgt	a174 <log_hexdump+0x7c>
    a1ac:	e28bb001 	add	fp, fp, #1
    a1b0:	eb001339 	bl	ee9c <tfp_printf>
    a1b4:	e35b0010 	cmp	fp, #16
    a1b8:	1afffff4 	bne	a190 <log_hexdump+0x98>
    a1bc:	e59f0098 	ldr	r0, [pc, #152]	; a25c <log_hexdump+0x164>
    a1c0:	e08f0000 	add	r0, pc, r0
    a1c4:	eb001334 	bl	ee9c <tfp_printf>
    a1c8:	e59d1008 	ldr	r1, [sp, #8]
    a1cc:	e2462001 	sub	r2, r6, #1
    a1d0:	e082c004 	add	ip, r2, r4
    a1d4:	e5f23001 	ldrb	r3, [r2, #1]!
    a1d8:	e2430020 	sub	r0, r3, #32
    a1dc:	e350005e 	cmp	r0, #94	; 0x5e
    a1e0:	83a0302e 	movhi	r3, #46	; 0x2e
    a1e4:	e152000c 	cmp	r2, ip
    a1e8:	e5e13001 	strb	r3, [r1, #1]!
    a1ec:	1afffff8 	bne	a1d4 <log_hexdump+0xdc>
    a1f0:	e59f0068 	ldr	r0, [pc, #104]	; a260 <log_hexdump+0x168>
    a1f4:	e2843028 	add	r3, r4, #40	; 0x28
    a1f8:	e08d3003 	add	r3, sp, r3
    a1fc:	e3a02000 	mov	r2, #0
    a200:	e08f0000 	add	r0, pc, r0
    a204:	e59d100c 	ldr	r1, [sp, #12]
    a208:	e0477004 	sub	r7, r7, r4
    a20c:	e5432014 	strb	r2, [r3, #-20]	; 0xffffffec
    a210:	e0866004 	add	r6, r6, r4
    a214:	eb001320 	bl	ee9c <tfp_printf>
    a218:	e08aa004 	add	sl, sl, r4
    a21c:	e3570000 	cmp	r7, #0
    a220:	caffffcb 	bgt	a154 <log_hexdump+0x5c>
    a224:	e28dd02c 	add	sp, sp, #44	; 0x2c
    a228:	e8bd8ff0 	pop	{r4, r5, r6, r7, r8, r9, sl, fp, pc}
    a22c:	e1a00008 	mov	r0, r8
    a230:	eb001319 	bl	ee9c <tfp_printf>
    a234:	eaffffd9 	b	a1a0 <log_hexdump+0xa8>
    a238:	e1a00009 	mov	r0, r9
    a23c:	eb001316 	bl	ee9c <tfp_printf>
    a240:	eaffffd4 	b	a198 <log_hexdump+0xa0>
    a244:	000077e8 	.word	0x000077e8
    a248:	000077d0 	.word	0x000077d0
    a24c:	00007a28 	.word	0x00007a28
    a250:	00007a24 	.word	0x00007a24
    a254:	000077cc 	.word	0x000077cc
    a258:	00007788 	.word	0x00007788
    a25c:	00007750 	.word	0x00007750
    a260:	0000a5dc 	.word	0x0000a5dc

0000a264 <decrypt_memory>:
    a264:	e92d43f0 	push	{r4, r5, r6, r7, r8, r9, lr}
    a268:	e1a07000 	mov	r7, r0
    a26c:	e59f010c 	ldr	r0, [pc, #268]	; a380 <decrypt_memory+0x11c>
    a270:	e24dd014 	sub	sp, sp, #20
    a274:	e59f8108 	ldr	r8, [pc, #264]	; a384 <decrypt_memory+0x120>
    a278:	e1a05002 	mov	r5, r2
    a27c:	e08f0000 	add	r0, pc, r0
    a280:	e1a06001 	mov	r6, r1
    a284:	e08f8008 	add	r8, pc, r8
    a288:	eb001303 	bl	ee9c <tfp_printf>
    a28c:	e59f00f4 	ldr	r0, [pc, #244]	; a388 <decrypt_memory+0x124>
    a290:	e3a04000 	mov	r4, #0
    a294:	e597101c 	ldr	r1, [r7, #28]
    a298:	e08f0000 	add	r0, pc, r0
    a29c:	eb0012fe 	bl	ee9c <tfp_printf>
    a2a0:	e5875020 	str	r5, [r7, #32]
    a2a4:	e1a00006 	mov	r0, r6
    a2a8:	e58d400c 	str	r4, [sp, #12]
    a2ac:	e1a01005 	mov	r1, r5
    a2b0:	ebfff8ed 	bl	866c <iobuf_temp_with_content>
    a2b4:	e2506000 	subs	r6, r0, #0
    a2b8:	0a00002e 	beq	a378 <decrypt_memory+0x114>
    a2bc:	e59f50c8 	ldr	r5, [pc, #200]	; a38c <decrypt_memory+0x128>
    a2c0:	e1a01004 	mov	r1, r4
    a2c4:	e1a00004 	mov	r0, r4
    a2c8:	e08f5005 	add	r5, pc, r5
    a2cc:	ebffff4e 	bl	a00c <translate_file_handle>
    a2d0:	e1a01005 	mov	r1, r5
    a2d4:	ebfffa19 	bl	8b40 <iobuf_fdopen>
    a2d8:	e1a01005 	mov	r1, r5
    a2dc:	e1a00004 	mov	r0, r4
    a2e0:	ebfff88a 	bl	8510 <fd_cache_open>
    a2e4:	e1a09000 	mov	r9, r0
    a2e8:	e1a00004 	mov	r0, r4
    a2ec:	eb00184f 	bl	10430 <strlen>
    a2f0:	e2800038 	add	r0, r0, #56	; 0x38
    a2f4:	eb000ad1 	bl	ce40 <xmalloc>
    a2f8:	e5804010 	str	r4, [r0, #16]
    a2fc:	e1a05000 	mov	r5, r0
    a300:	e5809000 	str	r9, [r0]
    a304:	e1a01004 	mov	r1, r4
    a308:	e2800036 	add	r0, r0, #54	; 0x36
    a30c:	eb000b40 	bl	d014 <strcpy>
    a310:	e1a00004 	mov	r0, r4
    a314:	eb000b96 	bl	d174 <xstrdup>
    a318:	e59f3070 	ldr	r3, [pc, #112]	; a390 <decrypt_memory+0x12c>
    a31c:	e3a01001 	mov	r1, #1
    a320:	e5860038 	str	r0, [r6, #56]	; 0x38
    a324:	e1a02004 	mov	r2, r4
    a328:	e7983003 	ldr	r3, [r8, r3]
    a32c:	e1a00005 	mov	r0, r5
    a330:	e586302c 	str	r3, [r6, #44]	; 0x2c
    a334:	e28d300c 	add	r3, sp, #12
    a338:	e5851008 	str	r1, [r5, #8]
    a33c:	e5865030 	str	r5, [r6, #48]	; 0x30
    a340:	e58d3000 	str	r3, [sp]
    a344:	e1a03004 	mov	r3, r4
    a348:	ebfff79c 	bl	81c0 <file_filter>
    a34c:	e1a01004 	mov	r1, r4
    a350:	e1a02006 	mov	r2, r6
    a354:	e1a00007 	mov	r0, r7
    a358:	eb001b0a 	bl	10f88 <proc_encryption_packets>
    a35c:	e1a04000 	mov	r4, r0
    a360:	e59f002c 	ldr	r0, [pc, #44]	; a394 <decrypt_memory+0x130>
    a364:	e08f0000 	add	r0, pc, r0
    a368:	eb0012cb 	bl	ee9c <tfp_printf>
    a36c:	e1a00004 	mov	r0, r4
    a370:	e28dd014 	add	sp, sp, #20
    a374:	e8bd83f0 	pop	{r4, r5, r6, r7, r8, r9, pc}
    a378:	e3e04000 	mvn	r4, #0
    a37c:	eafffffa 	b	a36c <decrypt_memory+0x108>
    a380:	00007698 	.word	0x00007698
    a384:	0000a8b4 	.word	0x0000a8b4
    a388:	0000768c 	.word	0x0000768c
    a38c:	00007670 	.word	0x00007670
    a390:	00015664 	.word	0x00015664
    a394:	000075d8 	.word	0x000075d8

0000a398 <release_dfx_context>:
    a398:	e92d4070 	push	{r4, r5, r6, lr}
    a39c:	e2504000 	subs	r4, r0, #0
    a3a0:	08bd8070 	popeq	{r4, r5, r6, pc}
    a3a4:	e5940000 	ldr	r0, [r4]
    a3a8:	eb0012bb 	bl	ee9c <tfp_printf>
    a3ac:	e5945000 	ldr	r5, [r4]
    a3b0:	e2455001 	sub	r5, r5, #1
    a3b4:	e5845000 	str	r5, [r4]
    a3b8:	e3550000 	cmp	r5, #0
    a3bc:	18bd8070 	popne	{r4, r5, r6, pc}
    a3c0:	e5940004 	ldr	r0, [r4, #4]
    a3c4:	eb000a91 	bl	ce10 <xfree>
    a3c8:	e5940008 	ldr	r0, [r4, #8]
    a3cc:	e5845004 	str	r5, [r4, #4]
    a3d0:	eb000a8e 	bl	ce10 <xfree>
    a3d4:	e5845008 	str	r5, [r4, #8]
    a3d8:	e1a00004 	mov	r0, r4
    a3dc:	e8bd4070 	pop	{r4, r5, r6, lr}
    a3e0:	ea000a8a 	b	ce10 <xfree>

0000a3e4 <decode_filter>:
    a3e4:	e92d47f0 	push	{r4, r5, r6, r7, r8, r9, sl, lr}
    a3e8:	e24dd008 	sub	sp, sp, #8
    a3ec:	e1a05000 	mov	r5, r0
    a3f0:	e1a04001 	mov	r4, r1
    a3f4:	e59d9028 	ldr	r9, [sp, #40]	; 0x28
    a3f8:	e1a07002 	mov	r7, r2
    a3fc:	e59f01e4 	ldr	r0, [pc, #484]	; a5e8 <decode_filter+0x204>
    a400:	e1a06003 	mov	r6, r3
    a404:	e5992000 	ldr	r2, [r9]
    a408:	e08f0000 	add	r0, pc, r0
    a40c:	e5953078 	ldr	r3, [r5, #120]	; 0x78
    a410:	eb0012a1 	bl	ee9c <tfp_printf>
    a414:	e3540003 	cmp	r4, #3
    a418:	0a000004 	beq	a430 <decode_filter+0x4c>
    a41c:	e3540002 	cmp	r4, #2
    a420:	13a00000 	movne	r0, #0
    a424:	0a000046 	beq	a544 <decode_filter+0x160>
    a428:	e28dd008 	add	sp, sp, #8
    a42c:	e8bd87f0 	pop	{r4, r5, r6, r7, r8, r9, sl, pc}
    a430:	e5d54050 	ldrb	r4, [r5, #80]	; 0x50
    a434:	e214a006 	ands	sl, r4, #6
    a438:	1a000063 	bne	a5cc <decode_filter+0x1e8>
    a43c:	e59f01a8 	ldr	r0, [pc, #424]	; a5ec <decode_filter+0x208>
    a440:	e5998000 	ldr	r8, [r9]
    a444:	e08f0000 	add	r0, pc, r0
    a448:	eb001293 	bl	ee9c <tfp_printf>
    a44c:	e59f019c 	ldr	r0, [pc, #412]	; a5f0 <decode_filter+0x20c>
    a450:	e08f0000 	add	r0, pc, r0
    a454:	eb001290 	bl	ee9c <tfp_printf>
    a458:	e5d53050 	ldrb	r3, [r5, #80]	; 0x50
    a45c:	e2134001 	ands	r4, r3, #1
    a460:	1a000024 	bne	a4f8 <decode_filter+0x114>
    a464:	e3580000 	cmp	r8, #0
    a468:	0a000050 	beq	a5b0 <decode_filter+0x1cc>
    a46c:	e595c078 	ldr	ip, [r5, #120]	; 0x78
    a470:	ea00000b 	b	a4a4 <decode_filter+0xc0>
    a474:	e152000c 	cmp	r2, ip
    a478:	e1a00007 	mov	r0, r7
    a47c:	21a0200c 	movcs	r2, ip
    a480:	ebfffbe3 	bl	9414 <iobuf_read>
    a484:	e3700001 	cmn	r0, #1
    a488:	0a000041 	beq	a594 <decode_filter+0x1b0>
    a48c:	e595c078 	ldr	ip, [r5, #120]	; 0x78
    a490:	e0844000 	add	r4, r4, r0
    a494:	e1580004 	cmp	r8, r4
    a498:	e04cc000 	sub	ip, ip, r0
    a49c:	e585c078 	str	ip, [r5, #120]	; 0x78
    a4a0:	9a00003f 	bls	a5a4 <decode_filter+0x1c0>
    a4a4:	e0482004 	sub	r2, r8, r4
    a4a8:	e35c0000 	cmp	ip, #0
    a4ac:	e0861004 	add	r1, r6, r4
    a4b0:	1affffef 	bne	a474 <decode_filter+0x90>
    a4b4:	e5d53050 	ldrb	r3, [r5, #80]	; 0x50
    a4b8:	e3a02001 	mov	r2, #1
    a4bc:	e7c23092 	bfi	r3, r2, #1, #2
    a4c0:	e5c53050 	strb	r3, [r5, #80]	; 0x50
    a4c4:	e3540000 	cmp	r4, #0
    a4c8:	1a000022 	bne	a558 <decode_filter+0x174>
    a4cc:	e5d53050 	ldrb	r3, [r5, #80]	; 0x50
    a4d0:	e2134006 	ands	r4, r3, #6
    a4d4:	e3e00000 	mvn	r0, #0
    a4d8:	03a02001 	moveq	r2, #1
    a4dc:	13a04000 	movne	r4, #0
    a4e0:	05d53050 	ldrbeq	r3, [r5, #80]	; 0x50
    a4e4:	07c23092 	bfieq	r3, r2, #1, #2
    a4e8:	05c53050 	strbeq	r3, [r5, #80]	; 0x50
    a4ec:	e5894000 	str	r4, [r9]
    a4f0:	e28dd008 	add	sp, sp, #8
    a4f4:	e8bd87f0 	pop	{r4, r5, r6, r7, r8, r9, sl, pc}
    a4f8:	e59f00f4 	ldr	r0, [pc, #244]	; a5f4 <decode_filter+0x210>
    a4fc:	e1a02008 	mov	r2, r8
    a500:	e1a0100a 	mov	r1, sl
    a504:	e08f0000 	add	r0, pc, r0
    a508:	eb001263 	bl	ee9c <tfp_printf>
    a50c:	e3580000 	cmp	r8, #0
    a510:	11a0400a 	movne	r4, sl
    a514:	1a000003 	bne	a528 <decode_filter+0x144>
    a518:	eaffffeb 	b	a4cc <decode_filter+0xe8>
    a51c:	e0844000 	add	r4, r4, r0
    a520:	e1580004 	cmp	r8, r4
    a524:	9a00000b 	bls	a558 <decode_filter+0x174>
    a528:	e0482004 	sub	r2, r8, r4
    a52c:	e1a00007 	mov	r0, r7
    a530:	e0861004 	add	r1, r6, r4
    a534:	ebfffbb6 	bl	9414 <iobuf_read>
    a538:	e3700001 	cmn	r0, #1
    a53c:	1afffff6 	bne	a51c <decode_filter+0x138>
    a540:	eaffffdb 	b	a4b4 <decode_filter+0xd0>
    a544:	e1a00005 	mov	r0, r5
    a548:	ebffff92 	bl	a398 <release_dfx_context>
    a54c:	e3a00000 	mov	r0, #0
    a550:	e28dd008 	add	sp, sp, #8
    a554:	e8bd87f0 	pop	{r4, r5, r6, r7, r8, r9, sl, pc}
    a558:	e5950004 	ldr	r0, [r5, #4]
    a55c:	e3500000 	cmp	r0, #0
    a560:	0a000003 	beq	a574 <decode_filter+0x190>
    a564:	e59f008c 	ldr	r0, [pc, #140]	; a5f8 <decode_filter+0x214>
    a568:	e08f0000 	add	r0, pc, r0
    a56c:	eb00124a 	bl	ee9c <tfp_printf>
    a570:	e5950004 	ldr	r0, [r5, #4]
    a574:	e3a05000 	mov	r5, #0
    a578:	e1a01006 	mov	r1, r6
    a57c:	e58d5000 	str	r5, [sp]
    a580:	e1a03005 	mov	r3, r5
    a584:	e1a02004 	mov	r2, r4
    a588:	eb00098e 	bl	cbc8 <_gcry_cipher_decrypt>
    a58c:	e1a00005 	mov	r0, r5
    a590:	eaffffd5 	b	a4ec <decode_filter+0x108>
    a594:	e5d53050 	ldrb	r3, [r5, #80]	; 0x50
    a598:	e595c078 	ldr	ip, [r5, #120]	; 0x78
    a59c:	e3833006 	orr	r3, r3, #6
    a5a0:	e5c53050 	strb	r3, [r5, #80]	; 0x50
    a5a4:	e35c0000 	cmp	ip, #0
    a5a8:	1affffc5 	bne	a4c4 <decode_filter+0xe0>
    a5ac:	eaffffc0 	b	a4b4 <decode_filter+0xd0>
    a5b0:	e5952078 	ldr	r2, [r5, #120]	; 0x78
    a5b4:	e3520000 	cmp	r2, #0
    a5b8:	03a02001 	moveq	r2, #1
    a5bc:	07c23092 	bfieq	r3, r2, #1, #2
    a5c0:	05c53050 	strbeq	r3, [r5, #80]	; 0x50
    a5c4:	06ef3073 	uxtbeq	r3, r3
    a5c8:	eaffffc0 	b	a4d0 <decode_filter+0xec>
    a5cc:	e59f0028 	ldr	r0, [pc, #40]	; a5fc <decode_filter+0x218>
    a5d0:	e08f0000 	add	r0, pc, r0
    a5d4:	eb001230 	bl	ee9c <tfp_printf>
    a5d8:	e3a03000 	mov	r3, #0
    a5dc:	e3e00000 	mvn	r0, #0
    a5e0:	e5893000 	str	r3, [r9]
    a5e4:	eaffff8f 	b	a428 <decode_filter+0x44>
    a5e8:	0000754c 	.word	0x0000754c
    a5ec:	00007568 	.word	0x00007568
    a5f0:	0000757c 	.word	0x0000757c
    a5f4:	000074d8 	.word	0x000074d8
    a5f8:	00007498 	.word	0x00007498
    a5fc:	000073b4 	.word	0x000073b4

0000a600 <decrypt_data>:
    a600:	e92d47f0 	push	{r4, r5, r6, r7, r8, r9, sl, lr}
    a604:	e24dd030 	sub	sp, sp, #48	; 0x30
    a608:	e1a07000 	mov	r7, r0
    a60c:	e3a06000 	mov	r6, #0
    a610:	e59f033c 	ldr	r0, [pc, #828]	; a954 <decrypt_data+0x354>
    a614:	e1a08001 	mov	r8, r1
    a618:	e59d9050 	ldr	r9, [sp, #80]	; 0x50
    a61c:	e1a04002 	mov	r4, r2
    a620:	e08f0000 	add	r0, pc, r0
    a624:	e1a05003 	mov	r5, r3
    a628:	eb00121b 	bl	ee9c <tfp_printf>
    a62c:	e5896000 	str	r6, [r9]
    a630:	e3a01080 	mov	r1, #128	; 0x80
    a634:	e3a00001 	mov	r0, #1
    a638:	eb000a7b 	bl	d02c <xtrycalloc>
    a63c:	e1500006 	cmp	r0, r6
    a640:	e58d000c 	str	r0, [sp, #12]
    a644:	0a0000c0 	beq	a94c <decrypt_data+0x34c>
    a648:	e5901078 	ldr	r1, [r0, #120]	; 0x78
    a64c:	e3a03001 	mov	r3, #1
    a650:	e5803000 	str	r3, [r0]
    a654:	e59f02fc 	ldr	r0, [pc, #764]	; a958 <decrypt_data+0x358>
    a658:	e08f0000 	add	r0, pc, r0
    a65c:	eb00120e 	bl	ee9c <tfp_printf>
    a660:	e59f12f4 	ldr	r1, [pc, #756]	; a95c <decrypt_data+0x35c>
    a664:	e3a00017 	mov	r0, #23
    a668:	e58d6000 	str	r6, [sp]
    a66c:	e08f1001 	add	r1, pc, r1
    a670:	e5953000 	ldr	r3, [r5]
    a674:	e5d4200a 	ldrb	r2, [r4, #10]
    a678:	eb001207 	bl	ee9c <tfp_printf>
    a67c:	e5d4900b 	ldrb	r9, [r4, #11]
    a680:	e3590000 	cmp	r9, #0
    a684:	1a000059 	bne	a7f0 <decrypt_data+0x1f0>
    a688:	e5943000 	ldr	r3, [r4]
    a68c:	e2433001 	sub	r3, r3, #1
    a690:	e3530008 	cmp	r3, #8
    a694:	9a000084 	bls	a8ac <decrypt_data+0x2ac>
    a698:	e3a02004 	mov	r2, #4
    a69c:	e1a01009 	mov	r1, r9
    a6a0:	e28d000c 	add	r0, sp, #12
    a6a4:	eb0009dc 	bl	ce1c <memset>
    a6a8:	e59d600c 	ldr	r6, [sp, #12]
    a6ac:	e3a00040 	mov	r0, #64	; 0x40
    a6b0:	eb00096f 	bl	cc74 <malloc>
    a6b4:	e59d300c 	ldr	r3, [sp, #12]
    a6b8:	e5860004 	str	r0, [r6, #4]
    a6bc:	e5930004 	ldr	r0, [r3, #4]
    a6c0:	e3500000 	cmp	r0, #0
    a6c4:	0a0000a0 	beq	a94c <decrypt_data+0x34c>
    a6c8:	e3a02040 	mov	r2, #64	; 0x40
    a6cc:	e1a01009 	mov	r1, r9
    a6d0:	eb0009d1 	bl	ce1c <memset>
    a6d4:	e59d300c 	ldr	r3, [sp, #12]
    a6d8:	e2851009 	add	r1, r5, #9
    a6dc:	e5952004 	ldr	r2, [r5, #4]
    a6e0:	e5930004 	ldr	r0, [r3, #4]
    a6e4:	eb00073f 	bl	c3e8 <_gcry_cipher_setkey>
    a6e8:	e5943010 	ldr	r3, [r4, #16]
    a6ec:	e1a06000 	mov	r6, r0
    a6f0:	e3530000 	cmp	r3, #0
    a6f4:	0a000065 	beq	a890 <decrypt_data+0x290>
    a6f8:	e59d300c 	ldr	r3, [sp, #12]
    a6fc:	e1a01009 	mov	r1, r9
    a700:	e3a02008 	mov	r2, #8
    a704:	e5930004 	ldr	r0, [r3, #4]
    a708:	eb000747 	bl	c42c <_gcry_cipher_setiv>
    a70c:	e5941000 	ldr	r1, [r4]
    a710:	e3510000 	cmp	r1, #0
    a714:	028da00f 	addeq	sl, sp, #15
    a718:	028d9019 	addeq	r9, sp, #25
    a71c:	0a000009 	beq	a748 <decrypt_data+0x148>
    a720:	ea000065 	b	a8bc <decrypt_data+0x2bc>
    a724:	e5821018 	str	r1, [r2, #24]
    a728:	e5921008 	ldr	r1, [r2, #8]
    a72c:	e5920020 	ldr	r0, [r2, #32]
    a730:	e2811001 	add	r1, r1, #1
    a734:	e5821008 	str	r1, [r2, #8]
    a738:	e7d00003 	ldrb	r0, [r0, r3]
    a73c:	e5ea0001 	strb	r0, [sl, #1]!
    a740:	e15a0009 	cmp	sl, r9
    a744:	0a00000d 	beq	a780 <decrypt_data+0x180>
    a748:	e5942010 	ldr	r2, [r4, #16]
    a74c:	e5923010 	ldr	r3, [r2, #16]
    a750:	e1a00002 	mov	r0, r2
    a754:	e3530000 	cmp	r3, #0
    a758:	1a000004 	bne	a770 <decrypt_data+0x170>
    a75c:	e5923018 	ldr	r3, [r2, #24]
    a760:	e592101c 	ldr	r1, [r2, #28]
    a764:	e1530001 	cmp	r3, r1
    a768:	e2831001 	add	r1, r3, #1
    a76c:	3affffec 	bcc	a724 <decrypt_data+0x124>
    a770:	ebfffa6e 	bl	9130 <iobuf_readbyte>
    a774:	e3700001 	cmn	r0, #1
    a778:	e6ef0070 	uxtb	r0, r0
    a77c:	1affffee 	bne	a73c <decrypt_data+0x13c>
    a780:	e59d300c 	ldr	r3, [sp, #12]
    a784:	e3a0200a 	mov	r2, #10
    a788:	e28d1010 	add	r1, sp, #16
    a78c:	e5930004 	ldr	r0, [r3, #4]
    a790:	e3a03000 	mov	r3, #0
    a794:	e58d3000 	str	r3, [sp]
    a798:	eb00090a 	bl	cbc8 <_gcry_cipher_decrypt>
    a79c:	e59d300c 	ldr	r3, [sp, #12]
    a7a0:	e5930004 	ldr	r0, [r3, #4]
    a7a4:	eb00072b 	bl	c458 <cipher_sync>
    a7a8:	e5d53008 	ldrb	r3, [r5, #8]
    a7ac:	e3130040 	tst	r3, #64	; 0x40
    a7b0:	0a000015 	beq	a80c <decrypt_data+0x20c>
    a7b4:	e5dd2016 	ldrb	r2, [sp, #22]
    a7b8:	e5dd3018 	ldrb	r3, [sp, #24]
    a7bc:	e1520003 	cmp	r2, r3
    a7c0:	1a000003 	bne	a7d4 <decrypt_data+0x1d4>
    a7c4:	e5dd2017 	ldrb	r2, [sp, #23]
    a7c8:	e5dd3019 	ldrb	r3, [sp, #25]
    a7cc:	e1520003 	cmp	r2, r3
    a7d0:	0a00000d 	beq	a80c <decrypt_data+0x20c>
    a7d4:	e59f0184 	ldr	r0, [pc, #388]	; a960 <decrypt_data+0x360>
    a7d8:	e3a06013 	mov	r6, #19
    a7dc:	e3406200 	movt	r6, #512	; 0x200
    a7e0:	e08f0000 	add	r0, pc, r0
    a7e4:	eb0011ac 	bl	ee9c <tfp_printf>
    a7e8:	e59d000c 	ldr	r0, [sp, #12]
    a7ec:	ea000002 	b	a7fc <decrypt_data+0x1fc>
    a7f0:	e59d000c 	ldr	r0, [sp, #12]
    a7f4:	e3a0600c 	mov	r6, #12
    a7f8:	e3406200 	movt	r6, #512	; 0x200
    a7fc:	ebfffee5 	bl	a398 <release_dfx_context>
    a800:	e1a00006 	mov	r0, r6
    a804:	e28dd030 	add	sp, sp, #48	; 0x30
    a808:	e8bd87f0 	pop	{r4, r5, r6, r7, r8, r9, sl, pc}
    a80c:	e59f0150 	ldr	r0, [pc, #336]	; a964 <decrypt_data+0x364>
    a810:	e08f0000 	add	r0, pc, r0
    a814:	eb0011a0 	bl	ee9c <tfp_printf>
    a818:	e59d200c 	ldr	r2, [sp, #12]
    a81c:	e5940010 	ldr	r0, [r4, #16]
    a820:	e5923000 	ldr	r3, [r2]
    a824:	e5d2c050 	ldrb	ip, [r2, #80]	; 0x50
    a828:	e59f1138 	ldr	r1, [pc, #312]	; a968 <decrypt_data+0x368>
    a82c:	e2833001 	add	r3, r3, #1
    a830:	e5823000 	str	r3, [r2]
    a834:	e5d43009 	ldrb	r3, [r4, #9]
    a838:	e08f1001 	add	r1, pc, r1
    a83c:	e2533000 	subs	r3, r3, #0
    a840:	13a03001 	movne	r3, #1
    a844:	e7c0c013 	bfi	ip, r3, #0, #1
    a848:	e5c2c050 	strb	ip, [r2, #80]	; 0x50
    a84c:	e5943000 	ldr	r3, [r4]
    a850:	e5823078 	str	r3, [r2, #120]	; 0x78
    a854:	ebfff976 	bl	8e34 <iobuf_push_filter>
    a858:	e5942010 	ldr	r2, [r4, #16]
    a85c:	e1a01008 	mov	r1, r8
    a860:	e1a00007 	mov	r0, r7
    a864:	eb0019b1 	bl	10f30 <proc_packets>
    a868:	e59d000c 	ldr	r0, [sp, #12]
    a86c:	e3a0200e 	mov	r2, #14
    a870:	e3402200 	movt	r2, #512	; 0x200
    a874:	e3a01000 	mov	r1, #0
    a878:	e5d03050 	ldrb	r3, [r0, #80]	; 0x50
    a87c:	e5841010 	str	r1, [r4, #16]
    a880:	e7e130d3 	ubfx	r3, r3, #1, #2
    a884:	e3530001 	cmp	r3, #1
    a888:	81a06002 	movhi	r6, r2
    a88c:	eaffffda 	b	a7fc <decrypt_data+0x1fc>
    a890:	e59f00d4 	ldr	r0, [pc, #212]	; a96c <decrypt_data+0x36c>
    a894:	e3a0600e 	mov	r6, #14
    a898:	e3406200 	movt	r6, #512	; 0x200
    a89c:	e08f0000 	add	r0, pc, r0
    a8a0:	eb00117d 	bl	ee9c <tfp_printf>
    a8a4:	e59d000c 	ldr	r0, [sp, #12]
    a8a8:	eaffffd3 	b	a7fc <decrypt_data+0x1fc>
    a8ac:	e59d000c 	ldr	r0, [sp, #12]
    a8b0:	e3a0600e 	mov	r6, #14
    a8b4:	e3406200 	movt	r6, #512	; 0x200
    a8b8:	eaffffcf 	b	a7fc <decrypt_data+0x1fc>
    a8bc:	e59f00ac 	ldr	r0, [pc, #172]	; a970 <decrypt_data+0x370>
    a8c0:	e28da00f 	add	sl, sp, #15
    a8c4:	e28d9019 	add	r9, sp, #25
    a8c8:	e08f0000 	add	r0, pc, r0
    a8cc:	eb001172 	bl	ee9c <tfp_printf>
    a8d0:	e5942000 	ldr	r2, [r4]
    a8d4:	ea00000a 	b	a904 <decrypt_data+0x304>
    a8d8:	e5930008 	ldr	r0, [r3, #8]
    a8dc:	e583c018 	str	ip, [r3, #24]
    a8e0:	e593c020 	ldr	ip, [r3, #32]
    a8e4:	e2800001 	add	r0, r0, #1
    a8e8:	e5830008 	str	r0, [r3, #8]
    a8ec:	e7dc0001 	ldrb	r0, [ip, r1]
    a8f0:	e5ea0001 	strb	r0, [sl, #1]!
    a8f4:	e2422001 	sub	r2, r2, #1
    a8f8:	e159000a 	cmp	r9, sl
    a8fc:	e5842000 	str	r2, [r4]
    a900:	0affff9e 	beq	a780 <decrypt_data+0x180>
    a904:	e3520000 	cmp	r2, #0
    a908:	0affff9c 	beq	a780 <decrypt_data+0x180>
    a90c:	e5943010 	ldr	r3, [r4, #16]
    a910:	e5931010 	ldr	r1, [r3, #16]
    a914:	e1a00003 	mov	r0, r3
    a918:	e3510000 	cmp	r1, #0
    a91c:	1a000004 	bne	a934 <decrypt_data+0x334>
    a920:	e5931018 	ldr	r1, [r3, #24]
    a924:	e593c01c 	ldr	ip, [r3, #28]
    a928:	e151000c 	cmp	r1, ip
    a92c:	e281c001 	add	ip, r1, #1
    a930:	3affffe8 	bcc	a8d8 <decrypt_data+0x2d8>
    a934:	ebfff9fd 	bl	9130 <iobuf_readbyte>
    a938:	e3700001 	cmn	r0, #1
    a93c:	e6ef0070 	uxtb	r0, r0
    a940:	0affff8e 	beq	a780 <decrypt_data+0x180>
    a944:	e5942000 	ldr	r2, [r4]
    a948:	eaffffe8 	b	a8f0 <decrypt_data+0x2f0>
    a94c:	e3e06000 	mvn	r6, #0
    a950:	eaffffaa 	b	a800 <decrypt_data+0x200>
    a954:	000073f8 	.word	0x000073f8
    a958:	000073d0 	.word	0x000073d0
    a95c:	000073d0 	.word	0x000073d0
    a960:	0000729c 	.word	0x0000729c
    a964:	0000727c 	.word	0x0000727c
    a968:	fffffba4 	.word	0xfffffba4
    a96c:	000071ac 	.word	0x000071ac
    a970:	000071a4 	.word	0x000071a4

0000a974 <free_packet>:
    a974:	e3500000 	cmp	r0, #0
    a978:	e92d4010 	push	{r4, lr}
    a97c:	e1a04001 	mov	r4, r1
    a980:	0a000007 	beq	a9a4 <free_packet+0x30>
    a984:	e5903004 	ldr	r3, [r0, #4]
    a988:	e3530000 	cmp	r3, #0
    a98c:	0a000004 	beq	a9a4 <free_packet+0x30>
    a990:	e5d01000 	ldrb	r1, [r0]
    a994:	e59f0050 	ldr	r0, [pc, #80]	; a9ec <free_packet+0x78>
    a998:	e8bd4010 	pop	{r4, lr}
    a99c:	e08f0000 	add	r0, pc, r0
    a9a0:	ea00113d 	b	ee9c <tfp_printf>
    a9a4:	e3540000 	cmp	r4, #0
    a9a8:	08bd8010 	popeq	{r4, pc}
    a9ac:	e5943008 	ldr	r3, [r4, #8]
    a9b0:	e3530000 	cmp	r3, #0
    a9b4:	08bd8010 	popeq	{r4, pc}
    a9b8:	e594300c 	ldr	r3, [r4, #12]
    a9bc:	e3530000 	cmp	r3, #0
    a9c0:	1a000003 	bne	a9d4 <free_packet+0x60>
    a9c4:	e3a03000 	mov	r3, #0
    a9c8:	e5c43004 	strb	r3, [r4, #4]
    a9cc:	e5843008 	str	r3, [r4, #8]
    a9d0:	e8bd8010 	pop	{r4, pc}
    a9d4:	e3a01000 	mov	r1, #0
    a9d8:	e2840004 	add	r0, r4, #4
    a9dc:	ebffffe4 	bl	a974 <free_packet>
    a9e0:	e3a03000 	mov	r3, #0
    a9e4:	e584300c 	str	r3, [r4, #12]
    a9e8:	eafffff5 	b	a9c4 <free_packet+0x50>
    a9ec:	00007100 	.word	0x00007100

0000a9f0 <run>:
    a9f0:	e92d4ff0 	push	{r4, r5, r6, r7, r8, r9, sl, fp, lr}
    a9f4:	e24ddf75 	sub	sp, sp, #468	; 0x1d4
    a9f8:	e59fcff0 	ldr	ip, [pc, #4080]	; b9f0 <run+0x1000>
    a9fc:	e3a05000 	mov	r5, #0
    aa00:	e58d0060 	str	r0, [sp, #96]	; 0x60
    aa04:	e28d00a0 	add	r0, sp, #160	; 0xa0
    aa08:	e08fc00c 	add	ip, pc, ip
    aa0c:	e1a04001 	mov	r4, r1
    aa10:	e880000c 	stm	r0, {r2, r3}
    aa14:	e59d30a4 	ldr	r3, [sp, #164]	; 0xa4
    aa18:	e28d00a8 	add	r0, sp, #168	; 0xa8
    aa1c:	e58d206c 	str	r2, [sp, #108]	; 0x6c
    aa20:	e3a02010 	mov	r2, #16
    aa24:	e58d3070 	str	r3, [sp, #112]	; 0x70
    aa28:	e58dc064 	str	ip, [sp, #100]	; 0x64
    aa2c:	e58d0074 	str	r0, [sp, #116]	; 0x74
    aa30:	e58d50a8 	str	r5, [sp, #168]	; 0xa8
    aa34:	e5805004 	str	r5, [r0, #4]
    aa38:	e5805008 	str	r5, [r0, #8]
    aa3c:	e580500c 	str	r5, [r0, #12]
    aa40:	eb00092c 	bl	cef8 <memcpy>
    aa44:	e59d31fc 	ldr	r3, [sp, #508]	; 0x1fc
    aa48:	e58d50b8 	str	r5, [sp, #184]	; 0xb8
    aa4c:	e1530005 	cmp	r3, r5
    aa50:	e28d30b8 	add	r3, sp, #184	; 0xb8
    aa54:	e58d50bc 	str	r5, [sp, #188]	; 0xbc
    aa58:	e58d50c0 	str	r5, [sp, #192]	; 0xc0
    aa5c:	e58d50c4 	str	r5, [sp, #196]	; 0xc4
    aa60:	e58d3078 	str	r3, [sp, #120]	; 0x78
    aa64:	1a00042c 	bne	bb1c <run+0x112c>
    aa68:	e59f4f84 	ldr	r4, [pc, #3972]	; b9f4 <run+0x1004>
    aa6c:	e3a02080 	mov	r2, #128	; 0x80
    aa70:	e59f3f80 	ldr	r3, [pc, #3968]	; b9f8 <run+0x1008>
    aa74:	e3a01000 	mov	r1, #0
    aa78:	e08f4004 	add	r4, pc, r4
    aa7c:	e28d0e15 	add	r0, sp, #336	; 0x150
    aa80:	e08f3003 	add	r3, pc, r3
    aa84:	e58d307c 	str	r3, [sp, #124]	; 0x7c
    aa88:	e58d4080 	str	r4, [sp, #128]	; 0x80
    aa8c:	eb0008e2 	bl	ce1c <memset>
    aa90:	e59d2064 	ldr	r2, [sp, #100]	; 0x64
    aa94:	e59f3f60 	ldr	r3, [pc, #3936]	; b9fc <run+0x100c>
    aa98:	e7929003 	ldr	r9, [r2, r3]
    aa9c:	e59f3f5c 	ldr	r3, [pc, #3932]	; ba00 <run+0x1010>
    aaa0:	e792a003 	ldr	sl, [r2, r3]
    aaa4:	e59f3f58 	ldr	r3, [pc, #3928]	; ba04 <run+0x1014>
    aaa8:	e7928003 	ldr	r8, [r2, r3]
    aaac:	e59f3f54 	ldr	r3, [pc, #3924]	; ba08 <run+0x1018>
    aab0:	e792b003 	ldr	fp, [r2, r3]
    aab4:	e3a03000 	mov	r3, #0
    aab8:	e58d301c 	str	r3, [sp, #28]
    aabc:	e28d2e16 	add	r2, sp, #352	; 0x160
    aac0:	e58d3038 	str	r3, [sp, #56]	; 0x38
    aac4:	e28d30c8 	add	r3, sp, #200	; 0xc8
    aac8:	e58d3068 	str	r3, [sp, #104]	; 0x68
    aacc:	e284300f 	add	r3, r4, #15
    aad0:	e58d3084 	str	r3, [sp, #132]	; 0x84
    aad4:	e1a0300a 	mov	r3, sl
    aad8:	e58d2018 	str	r2, [sp, #24]
    aadc:	e1a0a009 	mov	sl, r9
    aae0:	e1a09003 	mov	r9, r3
    aae4:	e59d31fc 	ldr	r3, [sp, #508]	; 0x1fc
    aae8:	e3530000 	cmp	r3, #0
    aaec:	1a000383 	bne	b900 <run+0xf10>
    aaf0:	e59d21fc 	ldr	r2, [sp, #508]	; 0x1fc
    aaf4:	e5dd30b6 	ldrb	r3, [sp, #182]	; 0xb6
    aaf8:	e59d10a8 	ldr	r1, [sp, #168]	; 0xa8
    aafc:	e3520000 	cmp	r2, #0
    ab00:	e5dd20b4 	ldrb	r2, [sp, #180]	; 0xb4
    ab04:	e79a3103 	ldr	r3, [sl, r3, lsl #2]
    ab08:	e7992102 	ldr	r2, [r9, r2, lsl #2]
    ab0c:	e0233002 	eor	r3, r3, r2
    ab10:	e5dd20b7 	ldrb	r2, [sp, #183]	; 0xb7
    ab14:	e0233001 	eor	r3, r3, r1
    ab18:	e7982102 	ldr	r2, [r8, r2, lsl #2]
    ab1c:	e0233002 	eor	r3, r3, r2
    ab20:	e5dd20b5 	ldrb	r2, [sp, #181]	; 0xb5
    ab24:	e79b2102 	ldr	r2, [fp, r2, lsl #2]
    ab28:	e0233002 	eor	r3, r3, r2
    ab2c:	e5dd20b3 	ldrb	r2, [sp, #179]	; 0xb3
    ab30:	e7982102 	ldr	r2, [r8, r2, lsl #2]
    ab34:	e0236002 	eor	r6, r3, r2
    ab38:	e5dd30b1 	ldrb	r3, [sp, #177]	; 0xb1
    ab3c:	e1a01c26 	lsr	r1, r6, #24
    ab40:	e59d20b0 	ldr	r2, [sp, #176]	; 0xb0
    ab44:	e79b3103 	ldr	r3, [fp, r3, lsl #2]
    ab48:	e7e75456 	ubfx	r5, r6, #8, #8
    ab4c:	e0233002 	eor	r3, r3, r2
    ab50:	e79a2101 	ldr	r2, [sl, r1, lsl #2]
    ab54:	e58d1020 	str	r1, [sp, #32]
    ab58:	e0233002 	eor	r3, r3, r2
    ab5c:	e7992105 	ldr	r2, [r9, r5, lsl #2]
    ab60:	e7e71856 	ubfx	r1, r6, #16, #8
    ab64:	e0233002 	eor	r3, r3, r2
    ab68:	e6ef2076 	uxtb	r2, r6
    ab6c:	e58d1030 	str	r1, [sp, #48]	; 0x30
    ab70:	e7981101 	ldr	r1, [r8, r1, lsl #2]
    ab74:	e58d2024 	str	r2, [sp, #36]	; 0x24
    ab78:	e79b2102 	ldr	r2, [fp, r2, lsl #2]
    ab7c:	e0233001 	eor	r3, r3, r1
    ab80:	e0232002 	eor	r2, r3, r2
    ab84:	e5dd30b2 	ldrb	r3, [sp, #178]	; 0xb2
    ab88:	e6ef0072 	uxtb	r0, r2
    ab8c:	e58d1034 	str	r1, [sp, #52]	; 0x34
    ab90:	e79a1103 	ldr	r1, [sl, r3, lsl #2]
    ab94:	e59d30b4 	ldr	r3, [sp, #180]	; 0xb4
    ab98:	e7e7c452 	ubfx	ip, r2, #8, #8
    ab9c:	e0211003 	eor	r1, r1, r3
    aba0:	e79a3100 	ldr	r3, [sl, r0, lsl #2]
    aba4:	e58d203c 	str	r2, [sp, #60]	; 0x3c
    aba8:	e0211003 	eor	r1, r1, r3
    abac:	e1a03002 	mov	r3, r2
    abb0:	e58d20bc 	str	r2, [sp, #188]	; 0xbc
    abb4:	e7e72852 	ubfx	r2, r2, #16, #8
    abb8:	e58d0028 	str	r0, [sp, #40]	; 0x28
    abbc:	e58dc02c 	str	ip, [sp, #44]	; 0x2c
    abc0:	e58d60b8 	str	r6, [sp, #184]	; 0xb8
    abc4:	e58d2044 	str	r2, [sp, #68]	; 0x44
    abc8:	e799010c 	ldr	r0, [r9, ip, lsl #2]
    abcc:	e0211000 	eor	r1, r1, r0
    abd0:	e58d0040 	str	r0, [sp, #64]	; 0x40
    abd4:	e1a00c23 	lsr	r0, r3, #24
    abd8:	e7983102 	ldr	r3, [r8, r2, lsl #2]
    abdc:	e79b2100 	ldr	r2, [fp, r0, lsl #2]
    abe0:	e0211003 	eor	r1, r1, r3
    abe4:	e58d204c 	str	r2, [sp, #76]	; 0x4c
    abe8:	e0212002 	eor	r2, r1, r2
    abec:	e58d0048 	str	r0, [sp, #72]	; 0x48
    abf0:	e7e70452 	ubfx	r0, r2, #8, #8
    abf4:	e5dd10b0 	ldrb	r1, [sp, #176]	; 0xb0
    abf8:	e79a7100 	ldr	r7, [sl, r0, lsl #2]
    abfc:	e7e70852 	ubfx	r0, r2, #16, #8
    ac00:	e7991101 	ldr	r1, [r9, r1, lsl #2]
    ac04:	e799c100 	ldr	ip, [r9, r0, lsl #2]
    ac08:	e58d0054 	str	r0, [sp, #84]	; 0x54
    ac0c:	e59d00ac 	ldr	r0, [sp, #172]	; 0xac
    ac10:	e58d2050 	str	r2, [sp, #80]	; 0x50
    ac14:	e0211000 	eor	r1, r1, r0
    ac18:	e1a00002 	mov	r0, r2
    ac1c:	e58d20c0 	str	r2, [sp, #192]	; 0xc0
    ac20:	e6ef2072 	uxtb	r2, r2
    ac24:	e0211007 	eor	r1, r1, r7
    ac28:	e021100c 	eor	r1, r1, ip
    ac2c:	e58dc058 	str	ip, [sp, #88]	; 0x58
    ac30:	e1a0cc20 	lsr	ip, r0, #24
    ac34:	e7980102 	ldr	r0, [r8, r2, lsl #2]
    ac38:	e58dc05c 	str	ip, [sp, #92]	; 0x5c
    ac3c:	e0211000 	eor	r1, r1, r0
    ac40:	e79b010c 	ldr	r0, [fp, ip, lsl #2]
    ac44:	e0214000 	eor	r4, r1, r0
    ac48:	e58d40c4 	str	r4, [sp, #196]	; 0xc4
    ac4c:	1a0003dc 	bne	bbc4 <run+0x11d4>
    ac50:	e59d1040 	ldr	r1, [sp, #64]	; 0x40
    ac54:	e59de018 	ldr	lr, [sp, #24]
    ac58:	e0211003 	eor	r1, r1, r3
    ac5c:	e59d005c 	ldr	r0, [sp, #92]	; 0x5c
    ac60:	e1a03001 	mov	r3, r1
    ac64:	e59d104c 	ldr	r1, [sp, #76]	; 0x4c
    ac68:	e79a0100 	ldr	r0, [sl, r0, lsl #2]
    ac6c:	e0233001 	eor	r3, r3, r1
    ac70:	e0277003 	eor	r7, r7, r3
    ac74:	e59d302c 	ldr	r3, [sp, #44]	; 0x2c
    ac78:	e59d1054 	ldr	r1, [sp, #84]	; 0x54
    ac7c:	e79b3103 	ldr	r3, [fp, r3, lsl #2]
    ac80:	e7981101 	ldr	r1, [r8, r1, lsl #2]
    ac84:	e58d302c 	str	r3, [sp, #44]	; 0x2c
    ac88:	e7993102 	ldr	r3, [r9, r2, lsl #2]
    ac8c:	e59d21fc 	ldr	r2, [sp, #508]	; 0x1fc
    ac90:	e0277003 	eor	r7, r7, r3
    ac94:	e7e73454 	ubfx	r3, r4, #8, #8
    ac98:	e3520000 	cmp	r2, #0
    ac9c:	e50e700c 	str	r7, [lr, #-12]
    aca0:	e79ac103 	ldr	ip, [sl, r3, lsl #2]
    aca4:	e59d3028 	ldr	r3, [sp, #40]	; 0x28
    aca8:	e59d702c 	ldr	r7, [sp, #44]	; 0x2c
    acac:	e7983103 	ldr	r3, [r8, r3, lsl #2]
    acb0:	e79ae105 	ldr	lr, [sl, r5, lsl #2]
    acb4:	e0233007 	eor	r3, r3, r7
    acb8:	e79b7105 	ldr	r7, [fp, r5, lsl #2]
    acbc:	e59d5058 	ldr	r5, [sp, #88]	; 0x58
    acc0:	e023300e 	eor	r3, r3, lr
    acc4:	e0233005 	eor	r3, r3, r5
    acc8:	e59de018 	ldr	lr, [sp, #24]
    accc:	e0233000 	eor	r3, r3, r0
    acd0:	e50e3010 	str	r3, [lr, #-16]
    acd4:	e59d3024 	ldr	r3, [sp, #36]	; 0x24
    acd8:	e59d0034 	ldr	r0, [sp, #52]	; 0x34
    acdc:	e7983103 	ldr	r3, [r8, r3, lsl #2]
    ace0:	e1a02c24 	lsr	r2, r4, #24
    ace4:	e0233007 	eor	r3, r3, r7
    ace8:	e0211003 	eor	r1, r1, r3
    acec:	e59d3020 	ldr	r3, [sp, #32]
    acf0:	e58d7040 	str	r7, [sp, #64]	; 0x40
    acf4:	e79b3103 	ldr	r3, [fp, r3, lsl #2]
    acf8:	e0200003 	eor	r0, r0, r3
    acfc:	e6ef3074 	uxtb	r3, r4
    ad00:	e02cc000 	eor	ip, ip, r0
    ad04:	e7993103 	ldr	r3, [r9, r3, lsl #2]
    ad08:	e79a0102 	ldr	r0, [sl, r2, lsl #2]
    ad0c:	e02cc003 	eor	ip, ip, r3
    ad10:	e7e73854 	ubfx	r3, r4, #16, #8
    ad14:	e0211000 	eor	r1, r1, r0
    ad18:	e7993103 	ldr	r3, [r9, r3, lsl #2]
    ad1c:	e0211003 	eor	r1, r1, r3
    ad20:	e50e1008 	str	r1, [lr, #-8]
    ad24:	e79b3102 	ldr	r3, [fp, r2, lsl #2]
    ad28:	e02cc003 	eor	ip, ip, r3
    ad2c:	e59d301c 	ldr	r3, [sp, #28]
    ad30:	e50ec004 	str	ip, [lr, #-4]
    ad34:	e2832003 	add	r2, r3, #3
    ad38:	1a0003e3 	bne	bccc <run+0x12dc>
    ad3c:	e59d3040 	ldr	r3, [sp, #64]	; 0x40
    ad40:	e59d202c 	ldr	r2, [sp, #44]	; 0x2c
    ad44:	e0266003 	eor	r6, r6, r3
    ad48:	e59d3044 	ldr	r3, [sp, #68]	; 0x44
    ad4c:	e79a3103 	ldr	r3, [sl, r3, lsl #2]
    ad50:	e0222003 	eor	r2, r2, r3
    ad54:	e1a03002 	mov	r3, r2
    ad58:	e59d2020 	ldr	r2, [sp, #32]
    ad5c:	e7982102 	ldr	r2, [r8, r2, lsl #2]
    ad60:	e0233002 	eor	r3, r3, r2
    ad64:	e59d2028 	ldr	r2, [sp, #40]	; 0x28
    ad68:	e7992102 	ldr	r2, [r9, r2, lsl #2]
    ad6c:	e0233002 	eor	r3, r3, r2
    ad70:	e59d2048 	ldr	r2, [sp, #72]	; 0x48
    ad74:	e7982102 	ldr	r2, [r8, r2, lsl #2]
    ad78:	e0233002 	eor	r3, r3, r2
    ad7c:	e59d2050 	ldr	r2, [sp, #80]	; 0x50
    ad80:	e0233002 	eor	r3, r3, r2
    ad84:	e59d2030 	ldr	r2, [sp, #48]	; 0x30
    ad88:	e1a00c23 	lsr	r0, r3, #24
    ad8c:	e79ae102 	ldr	lr, [sl, r2, lsl #2]
    ad90:	e59d203c 	ldr	r2, [sp, #60]	; 0x3c
    ad94:	e7e7c853 	ubfx	ip, r3, #16, #8
    ad98:	e022200e 	eor	r2, r2, lr
    ad9c:	e58d30a8 	str	r3, [sp, #168]	; 0xa8
    ada0:	e1a0e002 	mov	lr, r2
    ada4:	e59d2024 	ldr	r2, [sp, #36]	; 0x24
    ada8:	e7991102 	ldr	r1, [r9, r2, lsl #2]
    adac:	e59d21fc 	ldr	r2, [sp, #508]	; 0x1fc
    adb0:	e0247001 	eor	r7, r4, r1
    adb4:	e3520000 	cmp	r2, #0
    adb8:	e7e72453 	ubfx	r2, r3, #8, #8
    adbc:	e6ef3073 	uxtb	r3, r3
    adc0:	e7991102 	ldr	r1, [r9, r2, lsl #2]
    adc4:	e79a2100 	ldr	r2, [sl, r0, lsl #2]
    adc8:	e79b3103 	ldr	r3, [fp, r3, lsl #2]
    adcc:	e0266002 	eor	r6, r6, r2
    add0:	e798210c 	ldr	r2, [r8, ip, lsl #2]
    add4:	e0266001 	eor	r6, r6, r1
    add8:	e0222006 	eor	r2, r2, r6
    addc:	e0222003 	eor	r2, r2, r3
    ade0:	e7e75852 	ubfx	r5, r2, #16, #8
    ade4:	e6ef3072 	uxtb	r3, r2
    ade8:	e58d20ac 	str	r2, [sp, #172]	; 0xac
    adec:	e79a3103 	ldr	r3, [sl, r3, lsl #2]
    adf0:	e58d1024 	str	r1, [sp, #36]	; 0x24
    adf4:	e02ee003 	eor	lr, lr, r3
    adf8:	e7e73452 	ubfx	r3, r2, #8, #8
    adfc:	e1a02c22 	lsr	r2, r2, #24
    ae00:	e7993103 	ldr	r3, [r9, r3, lsl #2]
    ae04:	e79b1102 	ldr	r1, [fp, r2, lsl #2]
    ae08:	e02ee003 	eor	lr, lr, r3
    ae0c:	e58d3028 	str	r3, [sp, #40]	; 0x28
    ae10:	e7983105 	ldr	r3, [r8, r5, lsl #2]
    ae14:	e023300e 	eor	r3, r3, lr
    ae18:	e0233001 	eor	r3, r3, r1
    ae1c:	e7e74453 	ubfx	r4, r3, #8, #8
    ae20:	e6ef1073 	uxtb	r1, r3
    ae24:	e7e7e853 	ubfx	lr, r3, #16, #8
    ae28:	e7986101 	ldr	r6, [r8, r1, lsl #2]
    ae2c:	e79a1104 	ldr	r1, [sl, r4, lsl #2]
    ae30:	e58d30b0 	str	r3, [sp, #176]	; 0xb0
    ae34:	e0211007 	eor	r1, r1, r7
    ae38:	e799710e 	ldr	r7, [r9, lr, lsl #2]
    ae3c:	e1a03c23 	lsr	r3, r3, #24
    ae40:	e0211007 	eor	r1, r1, r7
    ae44:	e0266001 	eor	r6, r6, r1
    ae48:	e79b1103 	ldr	r1, [fp, r3, lsl #2]
    ae4c:	e0266001 	eor	r6, r6, r1
    ae50:	e58d60b4 	str	r6, [sp, #180]	; 0xb4
    ae54:	1a00037f 	bne	bc58 <run+0x1268>
    ae58:	e7990100 	ldr	r0, [r9, r0, lsl #2]
    ae5c:	e79ac10c 	ldr	ip, [sl, ip, lsl #2]
    ae60:	e58d003c 	str	r0, [sp, #60]	; 0x3c
    ae64:	e5dd00b7 	ldrb	r0, [sp, #183]	; 0xb7
    ae68:	e79a1105 	ldr	r1, [sl, r5, lsl #2]
    ae6c:	e58dc034 	str	ip, [sp, #52]	; 0x34
    ae70:	e798c100 	ldr	ip, [r8, r0, lsl #2]
    ae74:	e5dd00b4 	ldrb	r0, [sp, #180]	; 0xb4
    ae78:	e58d1040 	str	r1, [sp, #64]	; 0x40
    ae7c:	e58d0030 	str	r0, [sp, #48]	; 0x30
    ae80:	e1a06000 	mov	r6, r0
    ae84:	e5dd10a8 	ldrb	r1, [sp, #168]	; 0xa8
    ae88:	e5dd00b0 	ldrb	r0, [sp, #176]	; 0xb0
    ae8c:	e7992102 	ldr	r2, [r9, r2, lsl #2]
    ae90:	e58d0020 	str	r0, [sp, #32]
    ae94:	e5dd70b5 	ldrb	r7, [sp, #181]	; 0xb5
    ae98:	e79a0101 	ldr	r0, [sl, r1, lsl #2]
    ae9c:	e79b6106 	ldr	r6, [fp, r6, lsl #2]
    aea0:	e58d2044 	str	r2, [sp, #68]	; 0x44
    aea4:	e020000c 	eor	r0, r0, ip
    aea8:	e5dd20ac 	ldrb	r2, [sp, #172]	; 0xac
    aeac:	e58dc02c 	str	ip, [sp, #44]	; 0x2c
    aeb0:	e798c107 	ldr	ip, [r8, r7, lsl #2]
    aeb4:	e7981101 	ldr	r1, [r8, r1, lsl #2]
    aeb8:	e02cc006 	eor	ip, ip, r6
    aebc:	e79a6102 	ldr	r6, [sl, r2, lsl #2]
    aec0:	e79b2102 	ldr	r2, [fp, r2, lsl #2]
    aec4:	e0211006 	eor	r1, r1, r6
    aec8:	e59d6028 	ldr	r6, [sp, #40]	; 0x28
    aecc:	e59d51fc 	ldr	r5, [sp, #508]	; 0x1fc
    aed0:	e0211006 	eor	r1, r1, r6
    aed4:	e59d6020 	ldr	r6, [sp, #32]
    aed8:	e3550000 	cmp	r5, #0
    aedc:	e5dd50b6 	ldrb	r5, [sp, #182]	; 0xb6
    aee0:	e79b6106 	ldr	r6, [fp, r6, lsl #2]
    aee4:	e0222006 	eor	r2, r2, r6
    aee8:	e59d6040 	ldr	r6, [sp, #64]	; 0x40
    aeec:	e0222006 	eor	r2, r2, r6
    aef0:	e59d6044 	ldr	r6, [sp, #68]	; 0x44
    aef4:	e0226006 	eor	r6, r2, r6
    aef8:	e79b2105 	ldr	r2, [fp, r5, lsl #2]
    aefc:	e0200002 	eor	r0, r0, r2
    af00:	e59d2024 	ldr	r2, [sp, #36]	; 0x24
    af04:	e0200002 	eor	r0, r0, r2
    af08:	e7992105 	ldr	r2, [r9, r5, lsl #2]
    af0c:	e022200c 	eor	r2, r2, ip
    af10:	e59dc034 	ldr	ip, [sp, #52]	; 0x34
    af14:	e022200c 	eor	r2, r2, ip
    af18:	e59dc03c 	ldr	ip, [sp, #60]	; 0x3c
    af1c:	e022200c 	eor	r2, r2, ip
    af20:	e59dc018 	ldr	ip, [sp, #24]
    af24:	e58c2004 	str	r2, [ip, #4]
    af28:	e798c103 	ldr	ip, [r8, r3, lsl #2]
    af2c:	e79a3103 	ldr	r3, [sl, r3, lsl #2]
    af30:	e021100c 	eor	r1, r1, ip
    af34:	e0200003 	eor	r0, r0, r3
    af38:	e79b310e 	ldr	r3, [fp, lr, lsl #2]
    af3c:	e59d2018 	ldr	r2, [sp, #24]
    af40:	e0211003 	eor	r1, r1, r3
    af44:	e7983104 	ldr	r3, [r8, r4, lsl #2]
    af48:	e5821008 	str	r1, [r2, #8]
    af4c:	e0233006 	eor	r3, r3, r6
    af50:	e582300c 	str	r3, [r2, #12]
    af54:	e59d301c 	ldr	r3, [sp, #28]
    af58:	e5820000 	str	r0, [r2]
    af5c:	e2831004 	add	r1, r3, #4
    af60:	e2832007 	add	r2, r3, #7
    af64:	1a0003e2 	bne	bef4 <run+0x1504>
    af68:	e59d302c 	ldr	r3, [sp, #44]	; 0x2c
    af6c:	e79a210e 	ldr	r2, [sl, lr, lsl #2]
    af70:	e59de1fc 	ldr	lr, [sp, #508]	; 0x1fc
    af74:	e023300c 	eor	r3, r3, ip
    af78:	e79a0105 	ldr	r0, [sl, r5, lsl #2]
    af7c:	e1a0c003 	mov	ip, r3
    af80:	e59d3030 	ldr	r3, [sp, #48]	; 0x30
    af84:	e35e0000 	cmp	lr, #0
    af88:	e59de0a8 	ldr	lr, [sp, #168]	; 0xa8
    af8c:	e7995103 	ldr	r5, [r9, r3, lsl #2]
    af90:	e02cc00e 	eor	ip, ip, lr
    af94:	e79b7107 	ldr	r7, [fp, r7, lsl #2]
    af98:	e02cc000 	eor	ip, ip, r0
    af9c:	e02cc005 	eor	ip, ip, r5
    afa0:	e027700c 	eor	r7, r7, ip
    afa4:	e79b1104 	ldr	r1, [fp, r4, lsl #2]
    afa8:	e1a0ec27 	lsr	lr, r7, #24
    afac:	e59d00b0 	ldr	r0, [sp, #176]	; 0xb0
    afb0:	e7e7c457 	ubfx	ip, r7, #8, #8
    afb4:	e0211000 	eor	r1, r1, r0
    afb8:	e79a010e 	ldr	r0, [sl, lr, lsl #2]
    afbc:	e7e74857 	ubfx	r4, r7, #16, #8
    afc0:	e0211000 	eor	r1, r1, r0
    afc4:	e799010c 	ldr	r0, [r9, ip, lsl #2]
    afc8:	e58dc024 	str	ip, [sp, #36]	; 0x24
    afcc:	e6efc077 	uxtb	ip, r7
    afd0:	e0211000 	eor	r1, r1, r0
    afd4:	e58d003c 	str	r0, [sp, #60]	; 0x3c
    afd8:	e7980104 	ldr	r0, [r8, r4, lsl #2]
    afdc:	e58dc028 	str	ip, [sp, #40]	; 0x28
    afe0:	e0211000 	eor	r1, r1, r0
    afe4:	e79b010c 	ldr	r0, [fp, ip, lsl #2]
    afe8:	e59d3020 	ldr	r3, [sp, #32]
    afec:	e0210000 	eor	r0, r1, r0
    aff0:	e59d10b4 	ldr	r1, [sp, #180]	; 0xb4
    aff4:	e6efc070 	uxtb	ip, r0
    aff8:	e58de020 	str	lr, [sp, #32]
    affc:	e7e7e450 	ubfx	lr, r0, #8, #8
    b000:	e0211002 	eor	r1, r1, r2
    b004:	e79a210c 	ldr	r2, [sl, ip, lsl #2]
    b008:	e58dc044 	str	ip, [sp, #68]	; 0x44
    b00c:	e799c10e 	ldr	ip, [r9, lr, lsl #2]
    b010:	e0211002 	eor	r1, r1, r2
    b014:	e58d2034 	str	r2, [sp, #52]	; 0x34
    b018:	e7e72850 	ubfx	r2, r0, #16, #8
    b01c:	e021100c 	eor	r1, r1, ip
    b020:	e58dc04c 	str	ip, [sp, #76]	; 0x4c
    b024:	e1a0cc20 	lsr	ip, r0, #24
    b028:	e7993103 	ldr	r3, [r9, r3, lsl #2]
    b02c:	e58d4030 	str	r4, [sp, #48]	; 0x30
    b030:	e58d0040 	str	r0, [sp, #64]	; 0x40
    b034:	e58d00bc 	str	r0, [sp, #188]	; 0xbc
    b038:	e58d2050 	str	r2, [sp, #80]	; 0x50
    b03c:	e58d70b8 	str	r7, [sp, #184]	; 0xb8
    b040:	e58de048 	str	lr, [sp, #72]	; 0x48
    b044:	e58dc02c 	str	ip, [sp, #44]	; 0x2c
    b048:	e7980102 	ldr	r0, [r8, r2, lsl #2]
    b04c:	e59d40ac 	ldr	r4, [sp, #172]	; 0xac
    b050:	e0211000 	eor	r1, r1, r0
    b054:	e79b010c 	ldr	r0, [fp, ip, lsl #2]
    b058:	e0244003 	eor	r4, r4, r3
    b05c:	e0211000 	eor	r1, r1, r0
    b060:	e7e72451 	ubfx	r2, r1, #8, #8
    b064:	e6ef6071 	uxtb	r6, r1
    b068:	e7e75851 	ubfx	r5, r1, #16, #8
    b06c:	e79a3102 	ldr	r3, [sl, r2, lsl #2]
    b070:	e58d1054 	str	r1, [sp, #84]	; 0x54
    b074:	e0244003 	eor	r4, r4, r3
    b078:	e58d10c0 	str	r1, [sp, #192]	; 0xc0
    b07c:	e1a03c21 	lsr	r3, r1, #24
    b080:	e7991105 	ldr	r1, [r9, r5, lsl #2]
    b084:	e0244001 	eor	r4, r4, r1
    b088:	e7981106 	ldr	r1, [r8, r6, lsl #2]
    b08c:	e0244001 	eor	r4, r4, r1
    b090:	e79b1103 	ldr	r1, [fp, r3, lsl #2]
    b094:	e0244001 	eor	r4, r4, r1
    b098:	e58d40c4 	str	r4, [sp, #196]	; 0xc4
    b09c:	1a00036e 	bne	be5c <run+0x146c>
    b0a0:	e59dc050 	ldr	ip, [sp, #80]	; 0x50
    b0a4:	e59de048 	ldr	lr, [sp, #72]	; 0x48
    b0a8:	e59d004c 	ldr	r0, [sp, #76]	; 0x4c
    b0ac:	e59d1034 	ldr	r1, [sp, #52]	; 0x34
    b0b0:	e79ac10c 	ldr	ip, [sl, ip, lsl #2]
    b0b4:	e79be10e 	ldr	lr, [fp, lr, lsl #2]
    b0b8:	e0211000 	eor	r1, r1, r0
    b0bc:	e58de034 	str	lr, [sp, #52]	; 0x34
    b0c0:	e59d0030 	ldr	r0, [sp, #48]	; 0x30
    b0c4:	e798e102 	ldr	lr, [r8, r2, lsl #2]
    b0c8:	e58dc030 	str	ip, [sp, #48]	; 0x30
    b0cc:	e59d21fc 	ldr	r2, [sp, #508]	; 0x1fc
    b0d0:	e798c103 	ldr	ip, [r8, r3, lsl #2]
    b0d4:	e7e73454 	ubfx	r3, r4, #8, #8
    b0d8:	e3520000 	cmp	r2, #0
    b0dc:	e58d1058 	str	r1, [sp, #88]	; 0x58
    b0e0:	e7982103 	ldr	r2, [r8, r3, lsl #2]
    b0e4:	e59d3028 	ldr	r3, [sp, #40]	; 0x28
    b0e8:	e79a0100 	ldr	r0, [sl, r0, lsl #2]
    b0ec:	e79a1103 	ldr	r1, [sl, r3, lsl #2]
    b0f0:	e59d303c 	ldr	r3, [sp, #60]	; 0x3c
    b0f4:	e58d004c 	str	r0, [sp, #76]	; 0x4c
    b0f8:	e0233001 	eor	r3, r3, r1
    b0fc:	e79b6106 	ldr	r6, [fp, r6, lsl #2]
    b100:	e1a01003 	mov	r1, r3
    b104:	e59d3020 	ldr	r3, [sp, #32]
    b108:	e7993103 	ldr	r3, [r9, r3, lsl #2]
    b10c:	e0233000 	eor	r3, r3, r0
    b110:	e0233002 	eor	r3, r3, r2
    b114:	e6ef2074 	uxtb	r2, r4
    b118:	e59d0030 	ldr	r0, [sp, #48]	; 0x30
    b11c:	e79b2102 	ldr	r2, [fp, r2, lsl #2]
    b120:	e0233002 	eor	r3, r3, r2
    b124:	e59d202c 	ldr	r2, [sp, #44]	; 0x2c
    b128:	e58d303c 	str	r3, [sp, #60]	; 0x3c
    b12c:	e7992102 	ldr	r2, [r9, r2, lsl #2]
    b130:	e0222000 	eor	r2, r2, r0
    b134:	e59d0034 	ldr	r0, [sp, #52]	; 0x34
    b138:	e0222000 	eor	r2, r2, r0
    b13c:	e022200e 	eor	r2, r2, lr
    b140:	e0222006 	eor	r2, r2, r6
    b144:	e59d6018 	ldr	r6, [sp, #24]
    b148:	e1a00c24 	lsr	r0, r4, #24
    b14c:	e586201c 	str	r2, [r6, #28]
    b150:	e79a2105 	ldr	r2, [sl, r5, lsl #2]
    b154:	e79b5105 	ldr	r5, [fp, r5, lsl #2]
    b158:	e0211002 	eor	r1, r1, r2
    b15c:	e7e72854 	ubfx	r2, r4, #16, #8
    b160:	e79be102 	ldr	lr, [fp, r2, lsl #2]
    b164:	e59d2024 	ldr	r2, [sp, #36]	; 0x24
    b168:	e59d3058 	ldr	r3, [sp, #88]	; 0x58
    b16c:	e7982102 	ldr	r2, [r8, r2, lsl #2]
    b170:	e0222003 	eor	r2, r2, r3
    b174:	e022200c 	eor	r2, r2, ip
    b178:	e0222005 	eor	r2, r2, r5
    b17c:	e5862018 	str	r2, [r6, #24]
    b180:	e7982100 	ldr	r2, [r8, r0, lsl #2]
    b184:	e59d303c 	ldr	r3, [sp, #60]	; 0x3c
    b188:	e0211002 	eor	r1, r1, r2
    b18c:	e7992100 	ldr	r2, [r9, r0, lsl #2]
    b190:	e02ee001 	eor	lr, lr, r1
    b194:	e0233002 	eor	r3, r3, r2
    b198:	e5863014 	str	r3, [r6, #20]
    b19c:	e59d301c 	ldr	r3, [sp, #28]
    b1a0:	e586e010 	str	lr, [r6, #16]
    b1a4:	e2831008 	add	r1, r3, #8
    b1a8:	e283200b 	add	r2, r3, #11
    b1ac:	1a000315 	bne	be08 <run+0x1418>
    b1b0:	e59d3034 	ldr	r3, [sp, #52]	; 0x34
    b1b4:	e59d1030 	ldr	r1, [sp, #48]	; 0x30
    b1b8:	e59d204c 	ldr	r2, [sp, #76]	; 0x4c
    b1bc:	e0211003 	eor	r1, r1, r3
    b1c0:	e59d3040 	ldr	r3, [sp, #64]	; 0x40
    b1c4:	e0233002 	eor	r3, r3, r2
    b1c8:	e59d2020 	ldr	r2, [sp, #32]
    b1cc:	e7982102 	ldr	r2, [r8, r2, lsl #2]
    b1d0:	e0211002 	eor	r1, r1, r2
    b1d4:	e59d2044 	ldr	r2, [sp, #68]	; 0x44
    b1d8:	e7992102 	ldr	r2, [r9, r2, lsl #2]
    b1dc:	e0211002 	eor	r1, r1, r2
    b1e0:	e59d202c 	ldr	r2, [sp, #44]	; 0x2c
    b1e4:	e7982102 	ldr	r2, [r8, r2, lsl #2]
    b1e8:	e0211002 	eor	r1, r1, r2
    b1ec:	e59d2054 	ldr	r2, [sp, #84]	; 0x54
    b1f0:	e0211002 	eor	r1, r1, r2
    b1f4:	e59d2024 	ldr	r2, [sp, #36]	; 0x24
    b1f8:	e7e7c851 	ubfx	ip, r1, #16, #8
    b1fc:	e79be102 	ldr	lr, [fp, r2, lsl #2]
    b200:	e59d2028 	ldr	r2, [sp, #40]	; 0x28
    b204:	e798510c 	ldr	r5, [r8, ip, lsl #2]
    b208:	e7992102 	ldr	r2, [r9, r2, lsl #2]
    b20c:	e7e70451 	ubfx	r0, r1, #8, #8
    b210:	e0244002 	eor	r4, r4, r2
    b214:	e59d21fc 	ldr	r2, [sp, #508]	; 0x1fc
    b218:	e02ee007 	eor	lr, lr, r7
    b21c:	e58d10a8 	str	r1, [sp, #168]	; 0xa8
    b220:	e3520000 	cmp	r2, #0
    b224:	e1a02c21 	lsr	r2, r1, #24
    b228:	e6ef1071 	uxtb	r1, r1
    b22c:	e58d5020 	str	r5, [sp, #32]
    b230:	e79ac102 	ldr	ip, [sl, r2, lsl #2]
    b234:	e79b1101 	ldr	r1, [fp, r1, lsl #2]
    b238:	e02ee00c 	eor	lr, lr, ip
    b23c:	e799c100 	ldr	ip, [r9, r0, lsl #2]
    b240:	e02cc00e 	eor	ip, ip, lr
    b244:	e02cc005 	eor	ip, ip, r5
    b248:	e02cc001 	eor	ip, ip, r1
    b24c:	e7e7e85c 	ubfx	lr, ip, #16, #8
    b250:	e6ef107c 	uxtb	r1, ip
    b254:	e58dc0ac 	str	ip, [sp, #172]	; 0xac
    b258:	e79a1101 	ldr	r1, [sl, r1, lsl #2]
    b25c:	e798510e 	ldr	r5, [r8, lr, lsl #2]
    b260:	e0233001 	eor	r3, r3, r1
    b264:	e7e7145c 	ubfx	r1, ip, #8, #8
    b268:	e1a0cc2c 	lsr	ip, ip, #24
    b26c:	e58d5024 	str	r5, [sp, #36]	; 0x24
    b270:	e79be10c 	ldr	lr, [fp, ip, lsl #2]
    b274:	e799c101 	ldr	ip, [r9, r1, lsl #2]
    b278:	e023300c 	eor	r3, r3, ip
    b27c:	e0233005 	eor	r3, r3, r5
    b280:	e023300e 	eor	r3, r3, lr
    b284:	e7e7c453 	ubfx	ip, r3, #8, #8
    b288:	e58d30b0 	str	r3, [sp, #176]	; 0xb0
    b28c:	e79a510c 	ldr	r5, [sl, ip, lsl #2]
    b290:	e7e7c853 	ubfx	ip, r3, #16, #8
    b294:	e0244005 	eor	r4, r4, r5
    b298:	e799c10c 	ldr	ip, [r9, ip, lsl #2]
    b29c:	e024400c 	eor	r4, r4, ip
    b2a0:	e58dc028 	str	ip, [sp, #40]	; 0x28
    b2a4:	e6efc073 	uxtb	ip, r3
    b2a8:	e1a03c23 	lsr	r3, r3, #24
    b2ac:	e798c10c 	ldr	ip, [r8, ip, lsl #2]
    b2b0:	e024400c 	eor	r4, r4, ip
    b2b4:	e79bc103 	ldr	ip, [fp, r3, lsl #2]
    b2b8:	e024400c 	eor	r4, r4, ip
    b2bc:	e58d40b4 	str	r4, [sp, #180]	; 0xb4
    b2c0:	1a0002af 	bne	bd84 <run+0x1394>
    b2c4:	e79bc101 	ldr	ip, [fp, r1, lsl #2]
    b2c8:	e79b0100 	ldr	r0, [fp, r0, lsl #2]
    b2cc:	e5dd10b5 	ldrb	r1, [sp, #181]	; 0xb5
    b2d0:	e79b2102 	ldr	r2, [fp, r2, lsl #2]
    b2d4:	e58d0030 	str	r0, [sp, #48]	; 0x30
    b2d8:	e79a0101 	ldr	r0, [sl, r1, lsl #2]
    b2dc:	e5dd10b4 	ldrb	r1, [sp, #180]	; 0xb4
    b2e0:	e5dd70ac 	ldrb	r7, [sp, #172]	; 0xac
    b2e4:	e7991101 	ldr	r1, [r9, r1, lsl #2]
    b2e8:	e58d2034 	str	r2, [sp, #52]	; 0x34
    b2ec:	e5dd20b0 	ldrb	r2, [sp, #176]	; 0xb0
    b2f0:	e0200001 	eor	r0, r0, r1
    b2f4:	e58dc02c 	str	ip, [sp, #44]	; 0x2c
    b2f8:	e7981107 	ldr	r1, [r8, r7, lsl #2]
    b2fc:	e799c102 	ldr	ip, [r9, r2, lsl #2]
    b300:	e7997107 	ldr	r7, [r9, r7, lsl #2]
    b304:	e5dd60a8 	ldrb	r6, [sp, #168]	; 0xa8
    b308:	e02cc007 	eor	ip, ip, r7
    b30c:	e02cc005 	eor	ip, ip, r5
    b310:	e59d5024 	ldr	r5, [sp, #36]	; 0x24
    b314:	e59d41fc 	ldr	r4, [sp, #508]	; 0x1fc
    b318:	e02cc005 	eor	ip, ip, r5
    b31c:	e59d5018 	ldr	r5, [sp, #24]
    b320:	e3540000 	cmp	r4, #0
    b324:	e02cc00e 	eor	ip, ip, lr
    b328:	e585c024 	str	ip, [r5, #36]	; 0x24
    b32c:	e79ac106 	ldr	ip, [sl, r6, lsl #2]
    b330:	e5dd40b6 	ldrb	r4, [sp, #182]	; 0xb6
    b334:	e5dd20b7 	ldrb	r2, [sp, #183]	; 0xb7
    b338:	e021100c 	eor	r1, r1, ip
    b33c:	e59dc028 	ldr	ip, [sp, #40]	; 0x28
    b340:	e799e104 	ldr	lr, [r9, r4, lsl #2]
    b344:	e79a2102 	ldr	r2, [sl, r2, lsl #2]
    b348:	e02cc001 	eor	ip, ip, r1
    b34c:	e7981106 	ldr	r1, [r8, r6, lsl #2]
    b350:	e022200e 	eor	r2, r2, lr
    b354:	e0222001 	eor	r2, r2, r1
    b358:	e59d1030 	ldr	r1, [sp, #48]	; 0x30
    b35c:	e59de020 	ldr	lr, [sp, #32]
    b360:	e0222001 	eor	r2, r2, r1
    b364:	e79b1104 	ldr	r1, [fp, r4, lsl #2]
    b368:	e0211000 	eor	r1, r1, r0
    b36c:	e59d0034 	ldr	r0, [sp, #52]	; 0x34
    b370:	e021100e 	eor	r1, r1, lr
    b374:	e0211000 	eor	r1, r1, r0
    b378:	e585102c 	str	r1, [r5, #44]	; 0x2c
    b37c:	e79a1103 	ldr	r1, [sl, r3, lsl #2]
    b380:	e7983103 	ldr	r3, [r8, r3, lsl #2]
    b384:	e021100c 	eor	r1, r1, ip
    b388:	e59dc02c 	ldr	ip, [sp, #44]	; 0x2c
    b38c:	e0222003 	eor	r2, r2, r3
    b390:	e59d301c 	ldr	r3, [sp, #28]
    b394:	e021100c 	eor	r1, r1, ip
    b398:	e5851020 	str	r1, [r5, #32]
    b39c:	e283100c 	add	r1, r3, #12
    b3a0:	e5852028 	str	r2, [r5, #40]	; 0x28
    b3a4:	e283200f 	add	r2, r3, #15
    b3a8:	1a0001f4 	bne	bb80 <run+0x1190>
    b3ac:	e59d3038 	ldr	r3, [sp, #56]	; 0x38
    b3b0:	e3530001 	cmp	r3, #1
    b3b4:	e59d301c 	ldr	r3, [sp, #28]
    b3b8:	e2833010 	add	r3, r3, #16
    b3bc:	e58d301c 	str	r3, [sp, #28]
    b3c0:	e59d3018 	ldr	r3, [sp, #24]
    b3c4:	e2833040 	add	r3, r3, #64	; 0x40
    b3c8:	e58d3018 	str	r3, [sp, #24]
    b3cc:	1a000146 	bne	b8ec <run+0xefc>
    b3d0:	e3a02040 	mov	r2, #64	; 0x40
    b3d4:	e3a01000 	mov	r1, #0
    b3d8:	e28d00cc 	add	r0, sp, #204	; 0xcc
    b3dc:	eb00068e 	bl	ce1c <memset>
    b3e0:	e59d306c 	ldr	r3, [sp, #108]	; 0x6c
    b3e4:	e3a02040 	mov	r2, #64	; 0x40
    b3e8:	e3a01000 	mov	r1, #0
    b3ec:	e28d0e11 	add	r0, sp, #272	; 0x110
    b3f0:	e58d30c8 	str	r3, [sp, #200]	; 0xc8
    b3f4:	eb000688 	bl	ce1c <memset>
    b3f8:	e59d31fc 	ldr	r3, [sp, #508]	; 0x1fc
    b3fc:	e3530000 	cmp	r3, #0
    b400:	1a0001c1 	bne	bb0c <run+0x111c>
    b404:	e59d2064 	ldr	r2, [sp, #100]	; 0x64
    b408:	e28d7f43 	add	r7, sp, #268	; 0x10c
    b40c:	e59f35f8 	ldr	r3, [pc, #1528]	; ba0c <run+0x101c>
    b410:	e3a04001 	mov	r4, #1
    b414:	e59d5068 	ldr	r5, [sp, #104]	; 0x68
    b418:	e7923003 	ldr	r3, [r2, r3]
    b41c:	e59d6070 	ldr	r6, [sp, #112]	; 0x70
    b420:	e58d3020 	str	r3, [sp, #32]
    b424:	e59f35e4 	ldr	r3, [pc, #1508]	; ba10 <run+0x1020>
    b428:	e7923003 	ldr	r3, [r2, r3]
    b42c:	e58d3024 	str	r3, [sp, #36]	; 0x24
    b430:	e59f35dc 	ldr	r3, [pc, #1500]	; ba14 <run+0x1024>
    b434:	e7923003 	ldr	r3, [r2, r3]
    b438:	e58d3028 	str	r3, [sp, #40]	; 0x28
    b43c:	e59f35d4 	ldr	r3, [pc, #1492]	; ba18 <run+0x1028>
    b440:	e7923003 	ldr	r3, [r2, r3]
    b444:	e58d7018 	str	r7, [sp, #24]
    b448:	e58d302c 	str	r3, [sp, #44]	; 0x2c
    b44c:	e30a3aab 	movw	r3, #43691	; 0xaaab
    b450:	e34a3aaa 	movt	r3, #43690	; 0xaaaa
    b454:	e58d301c 	str	r3, [sp, #28]
    b458:	e59f35bc 	ldr	r3, [pc, #1468]	; ba1c <run+0x102c>
    b45c:	e08f3003 	add	r3, pc, r3
    b460:	e58d3034 	str	r3, [sp, #52]	; 0x34
    b464:	e59f35b4 	ldr	r3, [pc, #1460]	; ba20 <run+0x1030>
    b468:	e08f3003 	add	r3, pc, r3
    b46c:	e58d3038 	str	r3, [sp, #56]	; 0x38
    b470:	ea000021 	b	b4fc <run+0xb0c>
    b474:	e0899006 	add	r9, r9, r6
    b478:	e26aa020 	rsb	sl, sl, #32
    b47c:	e59d2024 	ldr	r2, [sp, #36]	; 0x24
    b480:	e1a09a79 	ror	r9, r9, sl
    b484:	e7e73859 	ubfx	r3, r9, #16, #8
    b488:	e59d1020 	ldr	r1, [sp, #32]
    b48c:	e7923103 	ldr	r3, [r2, r3, lsl #2]
    b490:	e1a02c29 	lsr	r2, r9, #24
    b494:	e7912102 	ldr	r2, [r1, r2, lsl #2]
    b498:	e59d1028 	ldr	r1, [sp, #40]	; 0x28
    b49c:	e0233002 	eor	r3, r3, r2
    b4a0:	e7e72459 	ubfx	r2, r9, #8, #8
    b4a4:	e6ef9079 	uxtb	r9, r9
    b4a8:	e7912102 	ldr	r2, [r1, r2, lsl #2]
    b4ac:	e0433002 	sub	r3, r3, r2
    b4b0:	e59d202c 	ldr	r2, [sp, #44]	; 0x2c
    b4b4:	e7922109 	ldr	r2, [r2, r9, lsl #2]
    b4b8:	e0833002 	add	r3, r3, r2
    b4bc:	e5952000 	ldr	r2, [r5]
    b4c0:	e5856004 	str	r6, [r5, #4]
    b4c4:	e1a06004 	mov	r6, r4
    b4c8:	e0233002 	eor	r3, r3, r2
    b4cc:	e59d2018 	ldr	r2, [sp, #24]
    b4d0:	e5823004 	str	r3, [r2, #4]
    b4d4:	e59d3018 	ldr	r3, [sp, #24]
    b4d8:	e2844001 	add	r4, r4, #1
    b4dc:	e3540011 	cmp	r4, #17
    b4e0:	e2855004 	add	r5, r5, #4
    b4e4:	e2833004 	add	r3, r3, #4
    b4e8:	e58d3018 	str	r3, [sp, #24]
    b4ec:	0a00012b 	beq	b9a0 <run+0xfb0>
    b4f0:	e28d3e1d 	add	r3, sp, #464	; 0x1d0
    b4f4:	e0836106 	add	r6, r3, r6, lsl #2
    b4f8:	e51660c4 	ldr	r6, [r6, #-196]	; 0xffffff3c
    b4fc:	e59d31f8 	ldr	r3, [sp, #504]	; 0x1f8
    b500:	e2448001 	sub	r8, r4, #1
    b504:	e3530000 	cmp	r3, #0
    b508:	e59d31fc 	ldr	r3, [sp, #508]	; 0x1fc
    b50c:	12647010 	rsbne	r7, r4, #16
    b510:	01a07008 	moveq	r7, r8
    b514:	e3530000 	cmp	r3, #0
    b518:	e28d3e1d 	add	r3, sp, #464	; 0x1d0
    b51c:	e0833107 	add	r3, r3, r7, lsl #2
    b520:	e287b010 	add	fp, r7, #16
    b524:	e5139080 	ldr	r9, [r3, #-128]	; 0xffffff80
    b528:	e28d3e1d 	add	r3, sp, #464	; 0x1d0
    b52c:	e083310b 	add	r3, r3, fp, lsl #2
    b530:	e5133080 	ldr	r3, [r3, #-128]	; 0xffffff80
    b534:	e203a01f 	and	sl, r3, #31
    b538:	1a00001e 	bne	b5b8 <run+0xbc8>
    b53c:	e59d301c 	ldr	r3, [sp, #28]
    b540:	e0832793 	umull	r2, r3, r3, r7
    b544:	e3a02003 	mov	r2, #3
    b548:	e1a030a3 	lsr	r3, r3, #1
    b54c:	e0637392 	mls	r3, r2, r3, r7
    b550:	e3530001 	cmp	r3, #1
    b554:	0a000076 	beq	b734 <run+0xd44>
    b558:	e3530002 	cmp	r3, #2
    b55c:	1affffc4 	bne	b474 <run+0xa84>
    b560:	e59d31fc 	ldr	r3, [sp, #508]	; 0x1fc
    b564:	e0497006 	sub	r7, r9, r6
    b568:	e3530000 	cmp	r3, #0
    b56c:	e26a3020 	rsb	r3, sl, #32
    b570:	e1a07377 	ror	r7, r7, r3
    b574:	1a0000b0 	bne	b83c <run+0xe4c>
    b578:	e7e73857 	ubfx	r3, r7, #16, #8
    b57c:	e59d2024 	ldr	r2, [sp, #36]	; 0x24
    b580:	e59d1020 	ldr	r1, [sp, #32]
    b584:	e7923103 	ldr	r3, [r2, r3, lsl #2]
    b588:	e1a02c27 	lsr	r2, r7, #24
    b58c:	e7912102 	ldr	r2, [r1, r2, lsl #2]
    b590:	e59d1028 	ldr	r1, [sp, #40]	; 0x28
    b594:	e0833002 	add	r3, r3, r2
    b598:	e7e72457 	ubfx	r2, r7, #8, #8
    b59c:	e6ef7077 	uxtb	r7, r7
    b5a0:	e7912102 	ldr	r2, [r1, r2, lsl #2]
    b5a4:	e0233002 	eor	r3, r3, r2
    b5a8:	e59d202c 	ldr	r2, [sp, #44]	; 0x2c
    b5ac:	e7922107 	ldr	r2, [r2, r7, lsl #2]
    b5b0:	e0433002 	sub	r3, r3, r2
    b5b4:	eaffffc0 	b	b4bc <run+0xacc>
    b5b8:	e59f0464 	ldr	r0, [pc, #1124]	; ba24 <run+0x1034>
    b5bc:	e1a01008 	mov	r1, r8
    b5c0:	e58d3030 	str	r3, [sp, #48]	; 0x30
    b5c4:	e08f0000 	add	r0, pc, r0
    b5c8:	eb000e33 	bl	ee9c <tfp_printf>
    b5cc:	e59d3030 	ldr	r3, [sp, #48]	; 0x30
    b5d0:	e1a01007 	mov	r1, r7
    b5d4:	e59f044c 	ldr	r0, [pc, #1100]	; ba28 <run+0x1038>
    b5d8:	e1a02009 	mov	r2, r9
    b5dc:	e88d0408 	stm	sp, {r3, sl}
    b5e0:	e08f0000 	add	r0, pc, r0
    b5e4:	e1a0300b 	mov	r3, fp
    b5e8:	eb000e2b 	bl	ee9c <tfp_printf>
    b5ec:	e59f0438 	ldr	r0, [pc, #1080]	; ba2c <run+0x103c>
    b5f0:	e1a02006 	mov	r2, r6
    b5f4:	e5951000 	ldr	r1, [r5]
    b5f8:	e08f0000 	add	r0, pc, r0
    b5fc:	eb000e26 	bl	ee9c <tfp_printf>
    b600:	e59d301c 	ldr	r3, [sp, #28]
    b604:	e0832793 	umull	r2, r3, r3, r7
    b608:	e3a02003 	mov	r2, #3
    b60c:	e1a030a3 	lsr	r3, r3, #1
    b610:	e0637392 	mls	r3, r2, r3, r7
    b614:	e3530001 	cmp	r3, #1
    b618:	0a000058 	beq	b780 <run+0xd90>
    b61c:	e3530002 	cmp	r3, #2
    b620:	0affffce 	beq	b560 <run+0xb70>
    b624:	e0897006 	add	r7, r9, r6
    b628:	e26a3020 	rsb	r3, sl, #32
    b62c:	e59f03fc 	ldr	r0, [pc, #1020]	; ba30 <run+0x1040>
    b630:	e1a01009 	mov	r1, r9
    b634:	e1a07377 	ror	r7, r7, r3
    b638:	e1a02006 	mov	r2, r6
    b63c:	e08f0000 	add	r0, pc, r0
    b640:	e1a0300a 	mov	r3, sl
    b644:	e58d7000 	str	r7, [sp]
    b648:	e7e7a857 	ubfx	sl, r7, #16, #8
    b64c:	eb000e12 	bl	ee9c <tfp_printf>
    b650:	e59f03dc 	ldr	r0, [pc, #988]	; ba34 <run+0x1044>
    b654:	e1a0200a 	mov	r2, sl
    b658:	e1a09c27 	lsr	r9, r7, #24
    b65c:	e7e7b457 	ubfx	fp, r7, #8, #8
    b660:	e6ef7077 	uxtb	r7, r7
    b664:	e08f0000 	add	r0, pc, r0
    b668:	e1a0300b 	mov	r3, fp
    b66c:	e58d7000 	str	r7, [sp]
    b670:	e1a01009 	mov	r1, r9
    b674:	eb000e08 	bl	ee9c <tfp_printf>
    b678:	e59d302c 	ldr	r3, [sp, #44]	; 0x2c
    b67c:	e58d700c 	str	r7, [sp, #12]
    b680:	e7930107 	ldr	r0, [r3, r7, lsl #2]
    b684:	e59d3028 	ldr	r3, [sp, #40]	; 0x28
    b688:	e58d0010 	str	r0, [sp, #16]
    b68c:	e793c10b 	ldr	ip, [r3, fp, lsl #2]
    b690:	e59d3020 	ldr	r3, [sp, #32]
    b694:	e58db004 	str	fp, [sp, #4]
    b698:	e7932109 	ldr	r2, [r3, r9, lsl #2]
    b69c:	e59d3024 	ldr	r3, [sp, #36]	; 0x24
    b6a0:	e58dc008 	str	ip, [sp, #8]
    b6a4:	e793110a 	ldr	r1, [r3, sl, lsl #2]
    b6a8:	e1a0300a 	mov	r3, sl
    b6ac:	e0227001 	eor	r7, r2, r1
    b6b0:	e047700c 	sub	r7, r7, ip
    b6b4:	e0877000 	add	r7, r7, r0
    b6b8:	e59f0378 	ldr	r0, [pc, #888]	; ba38 <run+0x1048>
    b6bc:	e58d1000 	str	r1, [sp]
    b6c0:	e1a01009 	mov	r1, r9
    b6c4:	e08f0000 	add	r0, pc, r0
    b6c8:	eb000df3 	bl	ee9c <tfp_printf>
    b6cc:	e59f0368 	ldr	r0, [pc, #872]	; ba3c <run+0x104c>
    b6d0:	e1a01007 	mov	r1, r7
    b6d4:	e08f0000 	add	r0, pc, r0
    b6d8:	eb000def 	bl	ee9c <tfp_printf>
    b6dc:	e5959000 	ldr	r9, [r5]
    b6e0:	e1a01008 	mov	r1, r8
    b6e4:	e59d3018 	ldr	r3, [sp, #24]
    b6e8:	e027a009 	eor	sl, r7, r9
    b6ec:	e59d0034 	ldr	r0, [sp, #52]	; 0x34
    b6f0:	e5856004 	str	r6, [r5, #4]
    b6f4:	e583a004 	str	sl, [r3, #4]
    b6f8:	eb000de7 	bl	ee9c <tfp_printf>
    b6fc:	e59d0038 	ldr	r0, [sp, #56]	; 0x38
    b700:	e1a03006 	mov	r3, r6
    b704:	e1a02008 	mov	r2, r8
    b708:	e1a01004 	mov	r1, r4
    b70c:	e1a06004 	mov	r6, r4
    b710:	eb000de1 	bl	ee9c <tfp_printf>
    b714:	e59f0324 	ldr	r0, [pc, #804]	; ba40 <run+0x1050>
    b718:	e1a03009 	mov	r3, r9
    b71c:	e1a02008 	mov	r2, r8
    b720:	e1a01004 	mov	r1, r4
    b724:	e08f0000 	add	r0, pc, r0
    b728:	e88d0480 	stm	sp, {r7, sl}
    b72c:	eb000dda 	bl	ee9c <tfp_printf>
    b730:	eaffff67 	b	b4d4 <run+0xae4>
    b734:	e0299006 	eor	r9, r9, r6
    b738:	e26aa020 	rsb	sl, sl, #32
    b73c:	e59d2028 	ldr	r2, [sp, #40]	; 0x28
    b740:	e1a09a79 	ror	r9, r9, sl
    b744:	e7e73459 	ubfx	r3, r9, #8, #8
    b748:	e59d1020 	ldr	r1, [sp, #32]
    b74c:	e7923103 	ldr	r3, [r2, r3, lsl #2]
    b750:	e1a02c29 	lsr	r2, r9, #24
    b754:	e7912102 	ldr	r2, [r1, r2, lsl #2]
    b758:	e59d1024 	ldr	r1, [sp, #36]	; 0x24
    b75c:	e0833002 	add	r3, r3, r2
    b760:	e7e72859 	ubfx	r2, r9, #16, #8
    b764:	e6ef9079 	uxtb	r9, r9
    b768:	e7912102 	ldr	r2, [r1, r2, lsl #2]
    b76c:	e0433002 	sub	r3, r3, r2
    b770:	e59d202c 	ldr	r2, [sp, #44]	; 0x2c
    b774:	e7922109 	ldr	r2, [r2, r9, lsl #2]
    b778:	e0233002 	eor	r3, r3, r2
    b77c:	eaffff4e 	b	b4bc <run+0xacc>
    b780:	e0297006 	eor	r7, r9, r6
    b784:	e26a3020 	rsb	r3, sl, #32
    b788:	e59f02b4 	ldr	r0, [pc, #692]	; ba44 <run+0x1054>
    b78c:	e1a01009 	mov	r1, r9
    b790:	e1a07377 	ror	r7, r7, r3
    b794:	e1a02006 	mov	r2, r6
    b798:	e58d7000 	str	r7, [sp]
    b79c:	e1a0300a 	mov	r3, sl
    b7a0:	e08f0000 	add	r0, pc, r0
    b7a4:	e7e7a857 	ubfx	sl, r7, #16, #8
    b7a8:	eb000dbb 	bl	ee9c <tfp_printf>
    b7ac:	e59f0294 	ldr	r0, [pc, #660]	; ba48 <run+0x1058>
    b7b0:	e1a0200a 	mov	r2, sl
    b7b4:	e1a09c27 	lsr	r9, r7, #24
    b7b8:	e7e7b457 	ubfx	fp, r7, #8, #8
    b7bc:	e6ef7077 	uxtb	r7, r7
    b7c0:	e58d7000 	str	r7, [sp]
    b7c4:	e1a0300b 	mov	r3, fp
    b7c8:	e08f0000 	add	r0, pc, r0
    b7cc:	e1a01009 	mov	r1, r9
    b7d0:	eb000db1 	bl	ee9c <tfp_printf>
    b7d4:	e59d302c 	ldr	r3, [sp, #44]	; 0x2c
    b7d8:	e59d2020 	ldr	r2, [sp, #32]
    b7dc:	e7931107 	ldr	r1, [r3, r7, lsl #2]
    b7e0:	e59d3028 	ldr	r3, [sp, #40]	; 0x28
    b7e4:	e7922109 	ldr	r2, [r2, r9, lsl #2]
    b7e8:	e793310b 	ldr	r3, [r3, fp, lsl #2]
    b7ec:	e58d700c 	str	r7, [sp, #12]
    b7f0:	e58d3008 	str	r3, [sp, #8]
    b7f4:	e0827003 	add	r7, r2, r3
    b7f8:	e59d3024 	ldr	r3, [sp, #36]	; 0x24
    b7fc:	e58d1010 	str	r1, [sp, #16]
    b800:	e793010a 	ldr	r0, [r3, sl, lsl #2]
    b804:	e1a0300a 	mov	r3, sl
    b808:	e58db004 	str	fp, [sp, #4]
    b80c:	e58d0000 	str	r0, [sp]
    b810:	e0477000 	sub	r7, r7, r0
    b814:	e59f0230 	ldr	r0, [pc, #560]	; ba4c <run+0x105c>
    b818:	e0277001 	eor	r7, r7, r1
    b81c:	e1a01009 	mov	r1, r9
    b820:	e08f0000 	add	r0, pc, r0
    b824:	eb000d9c 	bl	ee9c <tfp_printf>
    b828:	e59f0220 	ldr	r0, [pc, #544]	; ba50 <run+0x1060>
    b82c:	e1a01007 	mov	r1, r7
    b830:	e08f0000 	add	r0, pc, r0
    b834:	eb000d98 	bl	ee9c <tfp_printf>
    b838:	eaffffa7 	b	b6dc <run+0xcec>
    b83c:	e59f0210 	ldr	r0, [pc, #528]	; ba54 <run+0x1064>
    b840:	e1a0300a 	mov	r3, sl
    b844:	e58d7000 	str	r7, [sp]
    b848:	e1a01009 	mov	r1, r9
    b84c:	e08f0000 	add	r0, pc, r0
    b850:	e1a02006 	mov	r2, r6
    b854:	e7e7a857 	ubfx	sl, r7, #16, #8
    b858:	eb000d8f 	bl	ee9c <tfp_printf>
    b85c:	e59f01f4 	ldr	r0, [pc, #500]	; ba58 <run+0x1068>
    b860:	e1a0200a 	mov	r2, sl
    b864:	e1a09c27 	lsr	r9, r7, #24
    b868:	e7e7b457 	ubfx	fp, r7, #8, #8
    b86c:	e6ef7077 	uxtb	r7, r7
    b870:	e58d7000 	str	r7, [sp]
    b874:	e1a0300b 	mov	r3, fp
    b878:	e08f0000 	add	r0, pc, r0
    b87c:	e1a01009 	mov	r1, r9
    b880:	eb000d85 	bl	ee9c <tfp_printf>
    b884:	e59d302c 	ldr	r3, [sp, #44]	; 0x2c
    b888:	e58d700c 	str	r7, [sp, #12]
    b88c:	e7930107 	ldr	r0, [r3, r7, lsl #2]
    b890:	e59d3028 	ldr	r3, [sp, #40]	; 0x28
    b894:	e58d0010 	str	r0, [sp, #16]
    b898:	e793c10b 	ldr	ip, [r3, fp, lsl #2]
    b89c:	e59d3020 	ldr	r3, [sp, #32]
    b8a0:	e58db004 	str	fp, [sp, #4]
    b8a4:	e7932109 	ldr	r2, [r3, r9, lsl #2]
    b8a8:	e59d3024 	ldr	r3, [sp, #36]	; 0x24
    b8ac:	e58dc008 	str	ip, [sp, #8]
    b8b0:	e793110a 	ldr	r1, [r3, sl, lsl #2]
    b8b4:	e1a0300a 	mov	r3, sl
    b8b8:	e0817002 	add	r7, r1, r2
    b8bc:	e027700c 	eor	r7, r7, ip
    b8c0:	e0477000 	sub	r7, r7, r0
    b8c4:	e59f0190 	ldr	r0, [pc, #400]	; ba5c <run+0x106c>
    b8c8:	e58d1000 	str	r1, [sp]
    b8cc:	e1a01009 	mov	r1, r9
    b8d0:	e08f0000 	add	r0, pc, r0
    b8d4:	eb000d70 	bl	ee9c <tfp_printf>
    b8d8:	e59f0180 	ldr	r0, [pc, #384]	; ba60 <run+0x1070>
    b8dc:	e1a01007 	mov	r1, r7
    b8e0:	e08f0000 	add	r0, pc, r0
    b8e4:	eb000d6c 	bl	ee9c <tfp_printf>
    b8e8:	eaffff7b 	b	b6dc <run+0xcec>
    b8ec:	e3a03001 	mov	r3, #1
    b8f0:	e58d3038 	str	r3, [sp, #56]	; 0x38
    b8f4:	e59d31fc 	ldr	r3, [sp, #508]	; 0x1fc
    b8f8:	e3530000 	cmp	r3, #0
    b8fc:	0afffc7b 	beq	aaf0 <run+0x100>
    b900:	e59d1038 	ldr	r1, [sp, #56]	; 0x38
    b904:	e59d007c 	ldr	r0, [sp, #124]	; 0x7c
    b908:	e59f4154 	ldr	r4, [pc, #340]	; ba64 <run+0x1074>
    b90c:	eb000d62 	bl	ee9c <tfp_printf>
    b910:	e59f0150 	ldr	r0, [pc, #336]	; ba68 <run+0x1078>
    b914:	e59d5074 	ldr	r5, [sp, #116]	; 0x74
    b918:	e08f0000 	add	r0, pc, r0
    b91c:	e08f4004 	add	r4, pc, r4
    b920:	eb000d5d 	bl	ee9c <tfp_printf>
    b924:	e59d6078 	ldr	r6, [sp, #120]	; 0x78
    b928:	e4951004 	ldr	r1, [r5], #4
    b92c:	e1a00004 	mov	r0, r4
    b930:	eb000d59 	bl	ee9c <tfp_printf>
    b934:	e1560005 	cmp	r6, r5
    b938:	1afffffa 	bne	b928 <run+0xf38>
    b93c:	e59f0128 	ldr	r0, [pc, #296]	; ba6c <run+0x107c>
    b940:	e59f4128 	ldr	r4, [pc, #296]	; ba70 <run+0x1080>
    b944:	e08f0000 	add	r0, pc, r0
    b948:	e08f4004 	add	r4, pc, r4
    b94c:	eb000d52 	bl	ee9c <tfp_printf>
    b950:	e59f011c 	ldr	r0, [pc, #284]	; ba74 <run+0x1084>
    b954:	e08f0000 	add	r0, pc, r0
    b958:	eb000d4f 	bl	ee9c <tfp_printf>
    b95c:	e59d3080 	ldr	r3, [sp, #128]	; 0x80
    b960:	e59d6084 	ldr	r6, [sp, #132]	; 0x84
    b964:	e2835008 	add	r5, r3, #8
    b968:	e3a0300b 	mov	r3, #11
    b96c:	ea000000 	b	b974 <run+0xf84>
    b970:	e5f53001 	ldrb	r3, [r5, #1]!
    b974:	e2833e1d 	add	r3, r3, #464	; 0x1d0
    b978:	e1a00004 	mov	r0, r4
    b97c:	e08d3003 	add	r3, sp, r3
    b980:	e5531128 	ldrb	r1, [r3, #-296]	; 0xfffffed8
    b984:	eb000d44 	bl	ee9c <tfp_printf>
    b988:	e1560005 	cmp	r6, r5
    b98c:	1afffff7 	bne	b970 <run+0xf80>
    b990:	e59f00e0 	ldr	r0, [pc, #224]	; ba78 <run+0x1088>
    b994:	e08f0000 	add	r0, pc, r0
    b998:	eb000d3f 	bl	ee9c <tfp_printf>
    b99c:	eafffc53 	b	aaf0 <run+0x100>
    b9a0:	e59d31fc 	ldr	r3, [sp, #508]	; 0x1fc
    b9a4:	e59d514c 	ldr	r5, [sp, #332]	; 0x14c
    b9a8:	e59d4108 	ldr	r4, [sp, #264]	; 0x108
    b9ac:	e3530000 	cmp	r3, #0
    b9b0:	1a000005 	bne	b9cc <run+0xfdc>
    b9b4:	e59d3060 	ldr	r3, [sp, #96]	; 0x60
    b9b8:	e5835000 	str	r5, [r3]
    b9bc:	e1a00003 	mov	r0, r3
    b9c0:	e5834004 	str	r4, [r3, #4]
    b9c4:	e28ddf75 	add	sp, sp, #468	; 0x1d4
    b9c8:	e8bd8ff0 	pop	{r4, r5, r6, r7, r8, r9, sl, fp, pc}
    b9cc:	e59f00a8 	ldr	r0, [pc, #168]	; ba7c <run+0x108c>
    b9d0:	e08f0000 	add	r0, pc, r0
    b9d4:	eb000d30 	bl	ee9c <tfp_printf>
    b9d8:	e59f00a0 	ldr	r0, [pc, #160]	; ba80 <run+0x1090>
    b9dc:	e1a02004 	mov	r2, r4
    b9e0:	e1a01005 	mov	r1, r5
    b9e4:	e08f0000 	add	r0, pc, r0
    b9e8:	eb000d2b 	bl	ee9c <tfp_printf>
    b9ec:	eafffff0 	b	b9b4 <run+0xfc4>
    b9f0:	0000a130 	.word	0x0000a130
    b9f4:	000075d4 	.word	0x000075d4
    b9f8:	0000709c 	.word	0x0000709c
    b9fc:	0001566c 	.word	0x0001566c
    ba00:	0001564c 	.word	0x0001564c
    ba04:	00015658 	.word	0x00015658
    ba08:	00015644 	.word	0x00015644
    ba0c:	00015654 	.word	0x00015654
    ba10:	00015668 	.word	0x00015668
    ba14:	0001563c 	.word	0x0001563c
    ba18:	00015660 	.word	0x00015660
    ba1c:	000068fc 	.word	0x000068fc
    ba20:	00006904 	.word	0x00006904
    ba24:	00006648 	.word	0x00006648
    ba28:	0000663c 	.word	0x0000663c
    ba2c:	00006654 	.word	0x00006654
    ba30:	00006774 	.word	0x00006774
    ba34:	00006644 	.word	0x00006644
    ba38:	00006604 	.word	0x00006604
    ba3c:	0000663c 	.word	0x0000663c
    ba40:	00006660 	.word	0x00006660
    ba44:	00006650 	.word	0x00006650
    ba48:	000064e0 	.word	0x000064e0
    ba4c:	000064a8 	.word	0x000064a8
    ba50:	000064e0 	.word	0x000064e0
    ba54:	00006418 	.word	0x00006418
    ba58:	00006430 	.word	0x00006430
    ba5c:	000063f8 	.word	0x000063f8
    ba60:	00006430 	.word	0x00006430
    ba64:	00006234 	.word	0x00006234
    ba68:	00006224 	.word	0x00006224
    ba6c:	00006154 	.word	0x00006154
    ba70:	00006220 	.word	0x00006220
    ba74:	00006204 	.word	0x00006204
    ba78:	00006104 	.word	0x00006104
    ba7c:	00006358 	.word	0x00006358
    ba80:	0000635c 	.word	0x0000635c
    ba84:	000060e0 	.word	0x000060e0
    ba88:	00005f88 	.word	0x00005f88
    ba8c:	00005fac 	.word	0x00005fac
    ba90:	00005f94 	.word	0x00005f94
    ba94:	00005f84 	.word	0x00005f84
    ba98:	00005f94 	.word	0x00005f94
    ba9c:	00005ffc 	.word	0x00005ffc
    baa0:	00005fc4 	.word	0x00005fc4
    baa4:	00005ee0 	.word	0x00005ee0
    baa8:	00005fa0 	.word	0x00005fa0
    baac:	00005f7c 	.word	0x00005f7c
    bab0:	00005e64 	.word	0x00005e64
    bab4:	00005f4c 	.word	0x00005f4c
    bab8:	00005eec 	.word	0x00005eec
    babc:	00005e0c 	.word	0x00005e0c
    bac0:	00005eac 	.word	0x00005eac
    bac4:	00005e74 	.word	0x00005e74
    bac8:	00005d84 	.word	0x00005d84
    bacc:	00006324 	.word	0x00006324
    bad0:	00005e64 	.word	0x00005e64
    bad4:	00005e38 	.word	0x00005e38
    bad8:	00005d20 	.word	0x00005d20
    badc:	00005e4c 	.word	0x00005e4c
    bae0:	00005dc0 	.word	0x00005dc0
    bae4:	00005ce0 	.word	0x00005ce0
    bae8:	00005d74 	.word	0x00005d74
    baec:	00005d3c 	.word	0x00005d3c
    baf0:	00005c48 	.word	0x00005c48
    baf4:	00005d5c 	.word	0x00005d5c
    baf8:	00005ce4 	.word	0x00005ce4
    bafc:	00005bcc 	.word	0x00005bcc
    bb00:	00005c88 	.word	0x00005c88
    bb04:	00005c50 	.word	0x00005c50
    bb08:	00005b6c 	.word	0x00005b6c
    bb0c:	e51f0090 	ldr	r0, [pc, #-144]	; ba84 <run+0x1094>
    bb10:	e08f0000 	add	r0, pc, r0
    bb14:	eb000ce0 	bl	ee9c <tfp_printf>
    bb18:	eafffe39 	b	b404 <run+0xa14>
    bb1c:	e51f009c 	ldr	r0, [pc, #-156]	; ba88 <run+0x1098>
    bb20:	e2446004 	sub	r6, r4, #4
    bb24:	e51f50a0 	ldr	r5, [pc, #-160]	; ba8c <run+0x109c>
    bb28:	e284400c 	add	r4, r4, #12
    bb2c:	e08f0000 	add	r0, pc, r0
    bb30:	e08f5005 	add	r5, pc, r5
    bb34:	eb000cd8 	bl	ee9c <tfp_printf>
    bb38:	e51f00b0 	ldr	r0, [pc, #-176]	; ba90 <run+0x10a0>
    bb3c:	e08f0000 	add	r0, pc, r0
    bb40:	eb000cd5 	bl	ee9c <tfp_printf>
    bb44:	e5b61004 	ldr	r1, [r6, #4]!
    bb48:	e1a00005 	mov	r0, r5
    bb4c:	eb000cd2 	bl	ee9c <tfp_printf>
    bb50:	e1540006 	cmp	r4, r6
    bb54:	1afffffa 	bne	bb44 <run+0x1154>
    bb58:	e51f00cc 	ldr	r0, [pc, #-204]	; ba94 <run+0x10a4>
    bb5c:	e59d106c 	ldr	r1, [sp, #108]	; 0x6c
    bb60:	e08f0000 	add	r0, pc, r0
    bb64:	e59d2070 	ldr	r2, [sp, #112]	; 0x70
    bb68:	eb000ccb 	bl	ee9c <tfp_printf>
    bb6c:	e51f00dc 	ldr	r0, [pc, #-220]	; ba98 <run+0x10a8>
    bb70:	e59d11f8 	ldr	r1, [sp, #504]	; 0x1f8
    bb74:	e08f0000 	add	r0, pc, r0
    bb78:	eb000cc7 	bl	ee9c <tfp_printf>
    bb7c:	eafffbb9 	b	aa68 <run+0x78>
    bb80:	e51f00ec 	ldr	r0, [pc, #-236]	; ba9c <run+0x10ac>
    bb84:	e51f50ec 	ldr	r5, [pc, #-236]	; baa0 <run+0x10b0>
    bb88:	e08f0000 	add	r0, pc, r0
    bb8c:	e08f5005 	add	r5, pc, r5
    bb90:	eb000cc1 	bl	ee9c <tfp_printf>
    bb94:	e59d3018 	ldr	r3, [sp, #24]
    bb98:	e2836020 	add	r6, r3, #32
    bb9c:	e2834030 	add	r4, r3, #48	; 0x30
    bba0:	e4961004 	ldr	r1, [r6], #4
    bba4:	e1a00005 	mov	r0, r5
    bba8:	eb000cbb 	bl	ee9c <tfp_printf>
    bbac:	e1540006 	cmp	r4, r6
    bbb0:	1afffffa 	bne	bba0 <run+0x11b0>
    bbb4:	e51f0118 	ldr	r0, [pc, #-280]	; baa4 <run+0x10b4>
    bbb8:	e08f0000 	add	r0, pc, r0
    bbbc:	eb000cb6 	bl	ee9c <tfp_printf>
    bbc0:	eafffdf9 	b	b3ac <run+0x9bc>
    bbc4:	e58d3094 	str	r3, [sp, #148]	; 0x94
    bbc8:	e51f0128 	ldr	r0, [pc, #-296]	; baa8 <run+0x10b8>
    bbcc:	e51f3128 	ldr	r3, [pc, #-296]	; baac <run+0x10bc>
    bbd0:	e08f0000 	add	r0, pc, r0
    bbd4:	e08f3003 	add	r3, pc, r3
    bbd8:	e58d2098 	str	r2, [sp, #152]	; 0x98
    bbdc:	e58d3088 	str	r3, [sp, #136]	; 0x88
    bbe0:	eb000cad 	bl	ee9c <tfp_printf>
    bbe4:	e58d5090 	str	r5, [sp, #144]	; 0x90
    bbe8:	e28d00bc 	add	r0, sp, #188	; 0xbc
    bbec:	e59d5088 	ldr	r5, [sp, #136]	; 0x88
    bbf0:	e1a01006 	mov	r1, r6
    bbf4:	e58d608c 	str	r6, [sp, #140]	; 0x8c
    bbf8:	e59d6068 	ldr	r6, [sp, #104]	; 0x68
    bbfc:	e58d409c 	str	r4, [sp, #156]	; 0x9c
    bc00:	e1a04000 	mov	r4, r0
    bc04:	e1a00005 	mov	r0, r5
    bc08:	eb000ca3 	bl	ee9c <tfp_printf>
    bc0c:	e1560004 	cmp	r6, r4
    bc10:	0a000004 	beq	bc28 <run+0x1238>
    bc14:	e4941004 	ldr	r1, [r4], #4
    bc18:	e1a00005 	mov	r0, r5
    bc1c:	eb000c9e 	bl	ee9c <tfp_printf>
    bc20:	e1560004 	cmp	r6, r4
    bc24:	1afffffa 	bne	bc14 <run+0x1224>
    bc28:	e51f0180 	ldr	r0, [pc, #-384]	; bab0 <run+0x10c0>
    bc2c:	e59d3094 	ldr	r3, [sp, #148]	; 0x94
    bc30:	e59d2098 	ldr	r2, [sp, #152]	; 0x98
    bc34:	e08f0000 	add	r0, pc, r0
    bc38:	e59d608c 	ldr	r6, [sp, #140]	; 0x8c
    bc3c:	e58d2088 	str	r2, [sp, #136]	; 0x88
    bc40:	e58d308c 	str	r3, [sp, #140]	; 0x8c
    bc44:	e59d5090 	ldr	r5, [sp, #144]	; 0x90
    bc48:	e59d409c 	ldr	r4, [sp, #156]	; 0x9c
    bc4c:	eb000c92 	bl	ee9c <tfp_printf>
    bc50:	e1cd28d8 	ldrd	r2, [sp, #136]	; 0x88
    bc54:	eafffbfd 	b	ac50 <run+0x260>
    bc58:	e51f01ac 	ldr	r0, [pc, #-428]	; bab4 <run+0x10c4>
    bc5c:	e51f41ac 	ldr	r4, [pc, #-428]	; bab8 <run+0x10c8>
    bc60:	e08f0000 	add	r0, pc, r0
    bc64:	e08f4004 	add	r4, pc, r4
    bc68:	eb000c8b 	bl	ee9c <tfp_printf>
    bc6c:	e59d5074 	ldr	r5, [sp, #116]	; 0x74
    bc70:	e59d6078 	ldr	r6, [sp, #120]	; 0x78
    bc74:	e4951004 	ldr	r1, [r5], #4
    bc78:	e1a00004 	mov	r0, r4
    bc7c:	eb000c86 	bl	ee9c <tfp_printf>
    bc80:	e1560005 	cmp	r6, r5
    bc84:	1afffffa 	bne	bc74 <run+0x1284>
    bc88:	e51f01d4 	ldr	r0, [pc, #-468]	; babc <run+0x10cc>
    bc8c:	e08f0000 	add	r0, pc, r0
    bc90:	eb000c81 	bl	ee9c <tfp_printf>
    bc94:	e5dd30a9 	ldrb	r3, [sp, #169]	; 0xa9
    bc98:	e5ddc0aa 	ldrb	ip, [sp, #170]	; 0xaa
    bc9c:	e7993103 	ldr	r3, [r9, r3, lsl #2]
    bca0:	e5dd00ab 	ldrb	r0, [sp, #171]	; 0xab
    bca4:	e58d3024 	str	r3, [sp, #36]	; 0x24
    bca8:	e5dd30ad 	ldrb	r3, [sp, #173]	; 0xad
    bcac:	e5dde0b2 	ldrb	lr, [sp, #178]	; 0xb2
    bcb0:	e7993103 	ldr	r3, [r9, r3, lsl #2]
    bcb4:	e5dd50ae 	ldrb	r5, [sp, #174]	; 0xae
    bcb8:	e58d3028 	str	r3, [sp, #40]	; 0x28
    bcbc:	e5dd20af 	ldrb	r2, [sp, #175]	; 0xaf
    bcc0:	e5dd30b3 	ldrb	r3, [sp, #179]	; 0xb3
    bcc4:	e5dd40b1 	ldrb	r4, [sp, #177]	; 0xb1
    bcc8:	eafffc62 	b	ae58 <run+0x468>
    bccc:	e51f0214 	ldr	r0, [pc, #-532]	; bac0 <run+0x10d0>
    bcd0:	e1a01003 	mov	r1, r3
    bcd4:	e51f7218 	ldr	r7, [pc, #-536]	; bac4 <run+0x10d4>
    bcd8:	e08f0000 	add	r0, pc, r0
    bcdc:	e08f7007 	add	r7, pc, r7
    bce0:	eb000c6d 	bl	ee9c <tfp_printf>
    bce4:	e59d3018 	ldr	r3, [sp, #24]
    bce8:	e58d4034 	str	r4, [sp, #52]	; 0x34
    bcec:	e1a04007 	mov	r4, r7
    bcf0:	e2435010 	sub	r5, r3, #16
    bcf4:	e1a07003 	mov	r7, r3
    bcf8:	e4951004 	ldr	r1, [r5], #4
    bcfc:	e1a00004 	mov	r0, r4
    bd00:	eb000c65 	bl	ee9c <tfp_printf>
    bd04:	e1570005 	cmp	r7, r5
    bd08:	1afffffa 	bne	bcf8 <run+0x1308>
    bd0c:	e51f024c 	ldr	r0, [pc, #-588]	; bac8 <run+0x10d8>
    bd10:	e59d4034 	ldr	r4, [sp, #52]	; 0x34
    bd14:	e08f0000 	add	r0, pc, r0
    bd18:	e51f7254 	ldr	r7, [pc, #-596]	; bacc <run+0x10dc>
    bd1c:	eb000c5e 	bl	ee9c <tfp_printf>
    bd20:	e51f0258 	ldr	r0, [pc, #-600]	; bad0 <run+0x10e0>
    bd24:	e51f5258 	ldr	r5, [pc, #-600]	; bad4 <run+0x10e4>
    bd28:	e08f7007 	add	r7, pc, r7
    bd2c:	e08f0000 	add	r0, pc, r0
    bd30:	e08f5005 	add	r5, pc, r5
    bd34:	eb000c58 	bl	ee9c <tfp_printf>
    bd38:	e58d4034 	str	r4, [sp, #52]	; 0x34
    bd3c:	e2872007 	add	r2, r7, #7
    bd40:	e1a04005 	mov	r4, r5
    bd44:	e3a03003 	mov	r3, #3
    bd48:	e1a05002 	mov	r5, r2
    bd4c:	ea000000 	b	bd54 <run+0x1364>
    bd50:	e5f73001 	ldrb	r3, [r7, #1]!
    bd54:	e2833e1d 	add	r3, r3, #464	; 0x1d0
    bd58:	e1a00004 	mov	r0, r4
    bd5c:	e08d3003 	add	r3, sp, r3
    bd60:	e5531118 	ldrb	r1, [r3, #-280]	; 0xfffffee8
    bd64:	eb000c4c 	bl	ee9c <tfp_printf>
    bd68:	e1550007 	cmp	r5, r7
    bd6c:	1afffff7 	bne	bd50 <run+0x1360>
    bd70:	e51f02a0 	ldr	r0, [pc, #-672]	; bad8 <run+0x10e8>
    bd74:	e59d4034 	ldr	r4, [sp, #52]	; 0x34
    bd78:	e08f0000 	add	r0, pc, r0
    bd7c:	eb000c46 	bl	ee9c <tfp_printf>
    bd80:	eafffbed 	b	ad3c <run+0x34c>
    bd84:	e51f02b0 	ldr	r0, [pc, #-688]	; badc <run+0x10ec>
    bd88:	e51f42b0 	ldr	r4, [pc, #-688]	; bae0 <run+0x10f0>
    bd8c:	e08f0000 	add	r0, pc, r0
    bd90:	e08f4004 	add	r4, pc, r4
    bd94:	eb000c40 	bl	ee9c <tfp_printf>
    bd98:	e59d5074 	ldr	r5, [sp, #116]	; 0x74
    bd9c:	e59d6078 	ldr	r6, [sp, #120]	; 0x78
    bda0:	e4951004 	ldr	r1, [r5], #4
    bda4:	e1a00004 	mov	r0, r4
    bda8:	eb000c3b 	bl	ee9c <tfp_printf>
    bdac:	e1560005 	cmp	r6, r5
    bdb0:	1afffffa 	bne	bda0 <run+0x13b0>
    bdb4:	e51f02d8 	ldr	r0, [pc, #-728]	; bae4 <run+0x10f4>
    bdb8:	e08f0000 	add	r0, pc, r0
    bdbc:	eb000c36 	bl	ee9c <tfp_printf>
    bdc0:	e5dd30b2 	ldrb	r3, [sp, #178]	; 0xb2
    bdc4:	e5dd10ad 	ldrb	r1, [sp, #173]	; 0xad
    bdc8:	e7993103 	ldr	r3, [r9, r3, lsl #2]
    bdcc:	e5dd00a9 	ldrb	r0, [sp, #169]	; 0xa9
    bdd0:	e58d3028 	str	r3, [sp, #40]	; 0x28
    bdd4:	e5dd30b1 	ldrb	r3, [sp, #177]	; 0xb1
    bdd8:	e5dd20ab 	ldrb	r2, [sp, #171]	; 0xab
    bddc:	e79a5103 	ldr	r5, [sl, r3, lsl #2]
    bde0:	e5dd30ae 	ldrb	r3, [sp, #174]	; 0xae
    bde4:	e7983103 	ldr	r3, [r8, r3, lsl #2]
    bde8:	e58d3024 	str	r3, [sp, #36]	; 0x24
    bdec:	e5dd30af 	ldrb	r3, [sp, #175]	; 0xaf
    bdf0:	e79be103 	ldr	lr, [fp, r3, lsl #2]
    bdf4:	e5dd30aa 	ldrb	r3, [sp, #170]	; 0xaa
    bdf8:	e7983103 	ldr	r3, [r8, r3, lsl #2]
    bdfc:	e58d3020 	str	r3, [sp, #32]
    be00:	e5dd30b3 	ldrb	r3, [sp, #179]	; 0xb3
    be04:	eafffd2e 	b	b2c4 <run+0x8d4>
    be08:	e51f0328 	ldr	r0, [pc, #-808]	; bae8 <run+0x10f8>
    be0c:	e51f6328 	ldr	r6, [pc, #-808]	; baec <run+0x10fc>
    be10:	e08f0000 	add	r0, pc, r0
    be14:	e08f6006 	add	r6, pc, r6
    be18:	eb000c1f 	bl	ee9c <tfp_printf>
    be1c:	e59d3018 	ldr	r3, [sp, #24]
    be20:	e58d403c 	str	r4, [sp, #60]	; 0x3c
    be24:	e1a04006 	mov	r4, r6
    be28:	e2835010 	add	r5, r3, #16
    be2c:	e2833020 	add	r3, r3, #32
    be30:	e1a06003 	mov	r6, r3
    be34:	e4951004 	ldr	r1, [r5], #4
    be38:	e1a00004 	mov	r0, r4
    be3c:	eb000c16 	bl	ee9c <tfp_printf>
    be40:	e1560005 	cmp	r6, r5
    be44:	1afffffa 	bne	be34 <run+0x1444>
    be48:	e51f0360 	ldr	r0, [pc, #-864]	; baf0 <run+0x1100>
    be4c:	e59d403c 	ldr	r4, [sp, #60]	; 0x3c
    be50:	e08f0000 	add	r0, pc, r0
    be54:	eb000c10 	bl	ee9c <tfp_printf>
    be58:	eafffcd4 	b	b1b0 <run+0x7c0>
    be5c:	e58d3090 	str	r3, [sp, #144]	; 0x90
    be60:	e51f0374 	ldr	r0, [pc, #-884]	; baf4 <run+0x1104>
    be64:	e51f3374 	ldr	r3, [pc, #-884]	; baf8 <run+0x1108>
    be68:	e08f0000 	add	r0, pc, r0
    be6c:	e08f3003 	add	r3, pc, r3
    be70:	e58d2088 	str	r2, [sp, #136]	; 0x88
    be74:	e58d3058 	str	r3, [sp, #88]	; 0x58
    be78:	eb000c07 	bl	ee9c <tfp_printf>
    be7c:	e58d508c 	str	r5, [sp, #140]	; 0x8c
    be80:	e28d00bc 	add	r0, sp, #188	; 0xbc
    be84:	e59d5058 	ldr	r5, [sp, #88]	; 0x58
    be88:	e1a01007 	mov	r1, r7
    be8c:	e58d705c 	str	r7, [sp, #92]	; 0x5c
    be90:	e59d7068 	ldr	r7, [sp, #104]	; 0x68
    be94:	e58d4094 	str	r4, [sp, #148]	; 0x94
    be98:	e1a04000 	mov	r4, r0
    be9c:	e1a00005 	mov	r0, r5
    bea0:	eb000bfd 	bl	ee9c <tfp_printf>
    bea4:	e1570004 	cmp	r7, r4
    bea8:	0a000004 	beq	bec0 <run+0x14d0>
    beac:	e4941004 	ldr	r1, [r4], #4
    beb0:	e1a00005 	mov	r0, r5
    beb4:	eb000bf8 	bl	ee9c <tfp_printf>
    beb8:	e1570004 	cmp	r7, r4
    bebc:	1afffffa 	bne	beac <run+0x14bc>
    bec0:	e51f03cc 	ldr	r0, [pc, #-972]	; bafc <run+0x110c>
    bec4:	e59d2088 	ldr	r2, [sp, #136]	; 0x88
    bec8:	e59d3090 	ldr	r3, [sp, #144]	; 0x90
    becc:	e08f0000 	add	r0, pc, r0
    bed0:	e59d705c 	ldr	r7, [sp, #92]	; 0x5c
    bed4:	e58d3058 	str	r3, [sp, #88]	; 0x58
    bed8:	e58d205c 	str	r2, [sp, #92]	; 0x5c
    bedc:	e59d508c 	ldr	r5, [sp, #140]	; 0x8c
    bee0:	e59d4094 	ldr	r4, [sp, #148]	; 0x94
    bee4:	eb000bec 	bl	ee9c <tfp_printf>
    bee8:	e59d205c 	ldr	r2, [sp, #92]	; 0x5c
    beec:	e59d3058 	ldr	r3, [sp, #88]	; 0x58
    bef0:	eafffc6a 	b	b0a0 <run+0x6b0>
    bef4:	e51f03fc 	ldr	r0, [pc, #-1020]	; bb00 <run+0x1110>
    bef8:	e51f43fc 	ldr	r4, [pc, #-1020]	; bb04 <run+0x1114>
    befc:	e08f0000 	add	r0, pc, r0
    bf00:	e08f4004 	add	r4, pc, r4
    bf04:	eb000be4 	bl	ee9c <tfp_printf>
    bf08:	e59d3018 	ldr	r3, [sp, #24]
    bf0c:	e1a06003 	mov	r6, r3
    bf10:	e2835010 	add	r5, r3, #16
    bf14:	e4961004 	ldr	r1, [r6], #4
    bf18:	e1a00004 	mov	r0, r4
    bf1c:	eb000bde 	bl	ee9c <tfp_printf>
    bf20:	e1550006 	cmp	r5, r6
    bf24:	1afffffa 	bne	bf14 <run+0x1524>
    bf28:	e51f0428 	ldr	r0, [pc, #-1064]	; bb08 <run+0x1118>
    bf2c:	e08f0000 	add	r0, pc, r0
    bf30:	eb000bd9 	bl	ee9c <tfp_printf>
    bf34:	e5dd30b7 	ldrb	r3, [sp, #183]	; 0xb7
    bf38:	e5dd50b6 	ldrb	r5, [sp, #182]	; 0xb6
    bf3c:	e7983103 	ldr	r3, [r8, r3, lsl #2]
    bf40:	e5dd70b5 	ldrb	r7, [sp, #181]	; 0xb5
    bf44:	e58d302c 	str	r3, [sp, #44]	; 0x2c
    bf48:	e5dd30b3 	ldrb	r3, [sp, #179]	; 0xb3
    bf4c:	e5dd40b1 	ldrb	r4, [sp, #177]	; 0xb1
    bf50:	e798c103 	ldr	ip, [r8, r3, lsl #2]
    bf54:	e5dd30b4 	ldrb	r3, [sp, #180]	; 0xb4
    bf58:	e5dde0b2 	ldrb	lr, [sp, #178]	; 0xb2
    bf5c:	e58d3030 	str	r3, [sp, #48]	; 0x30
    bf60:	e5dd30b0 	ldrb	r3, [sp, #176]	; 0xb0
    bf64:	e58d3020 	str	r3, [sp, #32]
    bf68:	eafffbfe 	b	af68 <run+0x578>

0000bf6c <buf_get_le32>:
    bf6c:	e3500000 	cmp	r0, #0
    bf70:	012fff1e 	bxeq	lr
    bf74:	e5d01000 	ldrb	r1, [r0]
    bf78:	e5d02001 	ldrb	r2, [r0, #1]
    bf7c:	e5d03002 	ldrb	r3, [r0, #2]
    bf80:	e5d0c003 	ldrb	ip, [r0, #3]
    bf84:	e1a00803 	lsl	r0, r3, #16
    bf88:	e1800c0c 	orr	r0, r0, ip, lsl #24
    bf8c:	e1800001 	orr	r0, r0, r1
    bf90:	e1800402 	orr	r0, r0, r2, lsl #8
    bf94:	e12fff1e 	bx	lr

0000bf98 <buf_put_le32>:
    bf98:	e1a0cc21 	lsr	ip, r1, #24
    bf9c:	e1a02821 	lsr	r2, r1, #16
    bfa0:	e1a03421 	lsr	r3, r1, #8
    bfa4:	e5c0c003 	strb	ip, [r0, #3]
    bfa8:	e5c02002 	strb	r2, [r0, #2]
    bfac:	e5c03001 	strb	r3, [r0, #1]
    bfb0:	e5c01000 	strb	r1, [r0]
    bfb4:	e12fff1e 	bx	lr

0000bfb8 <cipher_block_cpy>:
    bfb8:	e3520008 	cmp	r2, #8
    bfbc:	e92d41f0 	push	{r4, r5, r6, r7, r8, lr}
    bfc0:	e1a04000 	mov	r4, r0
    bfc4:	e1a05001 	mov	r5, r1
    bfc8:	e1a00001 	mov	r0, r1
    bfcc:	0a000017 	beq	c030 <cipher_block_cpy+0x78>
    bfd0:	ebffffe5 	bl	bf6c <buf_get_le32>
    bfd4:	e1a08000 	mov	r8, r0
    bfd8:	e2850004 	add	r0, r5, #4
    bfdc:	ebffffe2 	bl	bf6c <buf_get_le32>
    bfe0:	e1a07000 	mov	r7, r0
    bfe4:	e2850008 	add	r0, r5, #8
    bfe8:	ebffffdf 	bl	bf6c <buf_get_le32>
    bfec:	e1a06000 	mov	r6, r0
    bff0:	e285000c 	add	r0, r5, #12
    bff4:	ebffffdc 	bl	bf6c <buf_get_le32>
    bff8:	e1a05000 	mov	r5, r0
    bffc:	e1a01008 	mov	r1, r8
    c000:	e1a00004 	mov	r0, r4
    c004:	ebffffe3 	bl	bf98 <buf_put_le32>
    c008:	e1a01007 	mov	r1, r7
    c00c:	e2840004 	add	r0, r4, #4
    c010:	ebffffe0 	bl	bf98 <buf_put_le32>
    c014:	e1a01006 	mov	r1, r6
    c018:	e2840008 	add	r0, r4, #8
    c01c:	ebffffdd 	bl	bf98 <buf_put_le32>
    c020:	e1a01005 	mov	r1, r5
    c024:	e284000c 	add	r0, r4, #12
    c028:	e8bd41f0 	pop	{r4, r5, r6, r7, r8, lr}
    c02c:	eaffffd9 	b	bf98 <buf_put_le32>
    c030:	ebffffcd 	bl	bf6c <buf_get_le32>
    c034:	e1a06000 	mov	r6, r0
    c038:	e2850004 	add	r0, r5, #4
    c03c:	ebffffca 	bl	bf6c <buf_get_le32>
    c040:	e1a05000 	mov	r5, r0
    c044:	e1a01006 	mov	r1, r6
    c048:	e1a00004 	mov	r0, r4
    c04c:	ebffffd1 	bl	bf98 <buf_put_le32>
    c050:	e1a01005 	mov	r1, r5
    c054:	e2840004 	add	r0, r4, #4
    c058:	e8bd41f0 	pop	{r4, r5, r6, r7, r8, lr}
    c05c:	eaffffcd 	b	bf98 <buf_put_le32>

0000c060 <cipher_block_xor_n_copy_2>:
    c060:	e92d4ff8 	push	{r3, r4, r5, r6, r7, r8, r9, sl, fp, lr}
    c064:	e1a08000 	mov	r8, r0
    c068:	e59dc028 	ldr	ip, [sp, #40]	; 0x28
    c06c:	e1a09001 	mov	r9, r1
    c070:	e1a07002 	mov	r7, r2
    c074:	e1a0a003 	mov	sl, r3
    c078:	e35c0008 	cmp	ip, #8
    c07c:	13a04000 	movne	r4, #0
    c080:	0a000012 	beq	c0d0 <cipher_block_xor_n_copy_2+0x70>
    c084:	e08a0004 	add	r0, sl, r4
    c088:	e087b004 	add	fp, r7, r4
    c08c:	ebffffb6 	bl	bf6c <buf_get_le32>
    c090:	e1a05000 	mov	r5, r0
    c094:	e1a0000b 	mov	r0, fp
    c098:	ebffffb3 	bl	bf6c <buf_get_le32>
    c09c:	e1a06000 	mov	r6, r0
    c0a0:	e0890004 	add	r0, r9, r4
    c0a4:	ebffffb0 	bl	bf6c <buf_get_le32>
    c0a8:	e0261000 	eor	r1, r6, r0
    c0ac:	e0880004 	add	r0, r8, r4
    c0b0:	e2844004 	add	r4, r4, #4
    c0b4:	ebffffb7 	bl	bf98 <buf_put_le32>
    c0b8:	e1a01005 	mov	r1, r5
    c0bc:	e1a0000b 	mov	r0, fp
    c0c0:	ebffffb4 	bl	bf98 <buf_put_le32>
    c0c4:	e3540010 	cmp	r4, #16
    c0c8:	1affffed 	bne	c084 <cipher_block_xor_n_copy_2+0x24>
    c0cc:	e8bd8ff8 	pop	{r3, r4, r5, r6, r7, r8, r9, sl, fp, pc}
    c0d0:	e1a00003 	mov	r0, r3
    c0d4:	e287b004 	add	fp, r7, #4
    c0d8:	ebffffa3 	bl	bf6c <buf_get_le32>
    c0dc:	e1a03000 	mov	r3, r0
    c0e0:	e28a0004 	add	r0, sl, #4
    c0e4:	e1a0a003 	mov	sl, r3
    c0e8:	ebffff9f 	bl	bf6c <buf_get_le32>
    c0ec:	e1a06000 	mov	r6, r0
    c0f0:	e1a00007 	mov	r0, r7
    c0f4:	ebffff9c 	bl	bf6c <buf_get_le32>
    c0f8:	e1a05000 	mov	r5, r0
    c0fc:	e1a0000b 	mov	r0, fp
    c100:	ebffff99 	bl	bf6c <buf_get_le32>
    c104:	e1a04000 	mov	r4, r0
    c108:	e1a00009 	mov	r0, r9
    c10c:	ebffff96 	bl	bf6c <buf_get_le32>
    c110:	e0255000 	eor	r5, r5, r0
    c114:	e2890004 	add	r0, r9, #4
    c118:	ebffff93 	bl	bf6c <buf_get_le32>
    c11c:	e0244000 	eor	r4, r4, r0
    c120:	e1a01005 	mov	r1, r5
    c124:	e1a00008 	mov	r0, r8
    c128:	ebffff9a 	bl	bf98 <buf_put_le32>
    c12c:	e1a01004 	mov	r1, r4
    c130:	e2880004 	add	r0, r8, #4
    c134:	ebffff97 	bl	bf98 <buf_put_le32>
    c138:	e1a0100a 	mov	r1, sl
    c13c:	e1a00007 	mov	r0, r7
    c140:	ebffff94 	bl	bf98 <buf_put_le32>
    c144:	e1a01006 	mov	r1, r6
    c148:	e1a0000b 	mov	r0, fp
    c14c:	e8bd4ff8 	pop	{r3, r4, r5, r6, r7, r8, r9, sl, fp, lr}
    c150:	eaffff90 	b	bf98 <buf_put_le32>

0000c154 <buf_xor_n_copy_2>:
    c154:	e92d4ff0 	push	{r4, r5, r6, r7, r8, r9, sl, fp, lr}
    c158:	e24dd014 	sub	sp, sp, #20
    c15c:	e1a05000 	mov	r5, r0
    c160:	e1a06001 	mov	r6, r1
    c164:	e59dc038 	ldr	ip, [sp, #56]	; 0x38
    c168:	e1a07003 	mov	r7, r3
    c16c:	e58d2000 	str	r2, [sp]
    c170:	e35c0003 	cmp	ip, #3
    c174:	9a000032 	bls	c244 <buf_xor_n_copy_2+0xf0>
    c178:	e082b00c 	add	fp, r2, ip
    c17c:	e1a0400c 	mov	r4, ip
    c180:	e087a00c 	add	sl, r7, ip
    c184:	e081900c 	add	r9, r1, ip
    c188:	e080800c 	add	r8, r0, ip
    c18c:	e98d00e0 	stmib	sp, {r5, r6, r7}
    c190:	e04a0004 	sub	r0, sl, r4
    c194:	e04b5004 	sub	r5, fp, r4
    c198:	ebffff73 	bl	bf6c <buf_get_le32>
    c19c:	e1a06000 	mov	r6, r0
    c1a0:	e1a00005 	mov	r0, r5
    c1a4:	ebffff70 	bl	bf6c <buf_get_le32>
    c1a8:	e1a07000 	mov	r7, r0
    c1ac:	e0490004 	sub	r0, r9, r4
    c1b0:	ebffff6d 	bl	bf6c <buf_get_le32>
    c1b4:	e0271000 	eor	r1, r7, r0
    c1b8:	e0480004 	sub	r0, r8, r4
    c1bc:	e2444004 	sub	r4, r4, #4
    c1c0:	ebffff74 	bl	bf98 <buf_put_le32>
    c1c4:	e1a01006 	mov	r1, r6
    c1c8:	e1a00005 	mov	r0, r5
    c1cc:	ebffff71 	bl	bf98 <buf_put_le32>
    c1d0:	e3540003 	cmp	r4, #3
    c1d4:	8affffed 	bhi	c190 <buf_xor_n_copy_2+0x3c>
    c1d8:	e59d3038 	ldr	r3, [sp, #56]	; 0x38
    c1dc:	e99d00e0 	ldmib	sp, {r5, r6, r7}
    c1e0:	e2432004 	sub	r2, r3, #4
    c1e4:	e3c22003 	bic	r2, r2, #3
    c1e8:	e2033003 	and	r3, r3, #3
    c1ec:	e59d1000 	ldr	r1, [sp]
    c1f0:	e2822004 	add	r2, r2, #4
    c1f4:	e0855002 	add	r5, r5, r2
    c1f8:	e0866002 	add	r6, r6, r2
    c1fc:	e0877002 	add	r7, r7, r2
    c200:	e0811002 	add	r1, r1, r2
    c204:	e58d1000 	str	r1, [sp]
    c208:	e3530000 	cmp	r3, #0
    c20c:	0a00000a 	beq	c23c <buf_xor_n_copy_2+0xe8>
    c210:	e59d2000 	ldr	r2, [sp]
    c214:	e0853003 	add	r3, r5, r3
    c218:	e2422001 	sub	r2, r2, #1
    c21c:	e5f21001 	ldrb	r1, [r2, #1]!
    c220:	e4d6c001 	ldrb	ip, [r6], #1
    c224:	e4d70001 	ldrb	r0, [r7], #1
    c228:	e021100c 	eor	r1, r1, ip
    c22c:	e4c51001 	strb	r1, [r5], #1
    c230:	e1550003 	cmp	r5, r3
    c234:	e5c20000 	strb	r0, [r2]
    c238:	1afffff7 	bne	c21c <buf_xor_n_copy_2+0xc8>
    c23c:	e28dd014 	add	sp, sp, #20
    c240:	e8bd8ff0 	pop	{r4, r5, r6, r7, r8, r9, sl, fp, pc}
    c244:	e59d3038 	ldr	r3, [sp, #56]	; 0x38
    c248:	eaffffee 	b	c208 <buf_xor_n_copy_2+0xb4>

0000c24c <buf_xor_n_copy>:
    c24c:	e52de004 	push	{lr}		; (str lr, [sp, #-4]!)
    c250:	e24dd00c 	sub	sp, sp, #12
    c254:	e58d3000 	str	r3, [sp]
    c258:	e1a03002 	mov	r3, r2
    c25c:	e1a02001 	mov	r2, r1
    c260:	e1a01003 	mov	r1, r3
    c264:	ebffffba 	bl	c154 <buf_xor_n_copy_2>
    c268:	e28dd00c 	add	sp, sp, #12
    c26c:	e49df004 	pop	{pc}		; (ldr pc, [sp], #4)

0000c270 <cipher_block_xor_n_copy>:
    c270:	e52de004 	push	{lr}		; (str lr, [sp, #-4]!)
    c274:	e24dd00c 	sub	sp, sp, #12
    c278:	e58d3000 	str	r3, [sp]
    c27c:	e1a03002 	mov	r3, r2
    c280:	e1a02001 	mov	r2, r1
    c284:	e1a01003 	mov	r1, r3
    c288:	ebffff74 	bl	c060 <cipher_block_xor_n_copy_2>
    c28c:	e28dd00c 	add	sp, sp, #12
    c290:	e49df004 	pop	{pc}		; (ldr pc, [sp], #4)

0000c294 <buf_xor>:
    c294:	e92d4ff0 	push	{r4, r5, r6, r7, r8, r9, sl, fp, lr}
    c298:	e3530003 	cmp	r3, #3
    c29c:	e24dd014 	sub	sp, sp, #20
    c2a0:	e1a04000 	mov	r4, r0
    c2a4:	e1a08001 	mov	r8, r1
    c2a8:	e1a09002 	mov	r9, r2
    c2ac:	e59db038 	ldr	fp, [sp, #56]	; 0x38
    c2b0:	e58d3000 	str	r3, [sp]
    c2b4:	9a000047 	bls	c3d8 <buf_xor+0x144>
    c2b8:	e59fa120 	ldr	sl, [pc, #288]	; c3e0 <buf_xor+0x14c>
    c2bc:	e2433004 	sub	r3, r3, #4
    c2c0:	e3c33003 	bic	r3, r3, #3
    c2c4:	e1a06002 	mov	r6, r2
    c2c8:	e08fa00a 	add	sl, pc, sl
    c2cc:	e2833004 	add	r3, r3, #4
    c2d0:	e0807003 	add	r7, r0, r3
    c2d4:	e1a05001 	mov	r5, r1
    c2d8:	e58d3004 	str	r3, [sp, #4]
    c2dc:	e1cd80f8 	strd	r8, [sp, #8]
    c2e0:	ea00000c 	b	c318 <buf_xor+0x84>
    c2e4:	e1a00005 	mov	r0, r5
    c2e8:	e2855004 	add	r5, r5, #4
    c2ec:	ebffff1e 	bl	bf6c <buf_get_le32>
    c2f0:	e1a08000 	mov	r8, r0
    c2f4:	e1a00006 	mov	r0, r6
    c2f8:	e2866004 	add	r6, r6, #4
    c2fc:	ebffff1a 	bl	bf6c <buf_get_le32>
    c300:	e0281000 	eor	r1, r8, r0
    c304:	e1a00004 	mov	r0, r4
    c308:	e2844004 	add	r4, r4, #4
    c30c:	ebffff21 	bl	bf98 <buf_put_le32>
    c310:	e1540007 	cmp	r4, r7
    c314:	0a000012 	beq	c364 <buf_xor+0xd0>
    c318:	e35b0000 	cmp	fp, #0
    c31c:	0afffff0 	beq	c2e4 <buf_xor+0x50>
    c320:	e1a00005 	mov	r0, r5
    c324:	ebffff10 	bl	bf6c <buf_get_le32>
    c328:	e1a08000 	mov	r8, r0
    c32c:	e1a00006 	mov	r0, r6
    c330:	ebffff0d 	bl	bf6c <buf_get_le32>
    c334:	e0288000 	eor	r8, r8, r0
    c338:	e1a00005 	mov	r0, r5
    c33c:	ebffff0a 	bl	bf6c <buf_get_le32>
    c340:	e1a09000 	mov	r9, r0
    c344:	e1a00006 	mov	r0, r6
    c348:	ebffff07 	bl	bf6c <buf_get_le32>
    c34c:	e1a03000 	mov	r3, r0
    c350:	e1a02009 	mov	r2, r9
    c354:	e1a01008 	mov	r1, r8
    c358:	e1a0000a 	mov	r0, sl
    c35c:	eb000ace 	bl	ee9c <tfp_printf>
    c360:	eaffffdf 	b	c2e4 <buf_xor+0x50>
    c364:	e59d3004 	ldr	r3, [sp, #4]
    c368:	e1cd80d8 	ldrd	r8, [sp, #8]
    c36c:	e0888003 	add	r8, r8, r3
    c370:	e0899003 	add	r9, r9, r3
    c374:	e59d3000 	ldr	r3, [sp]
    c378:	e2033003 	and	r3, r3, #3
    c37c:	e58d3000 	str	r3, [sp]
    c380:	e59d3000 	ldr	r3, [sp]
    c384:	e3530000 	cmp	r3, #0
    c388:	0a00000a 	beq	c3b8 <buf_xor+0x124>
    c38c:	e59f4050 	ldr	r4, [pc, #80]	; c3e4 <buf_xor+0x150>
    c390:	e087a003 	add	sl, r7, r3
    c394:	e08f4004 	add	r4, pc, r4
    c398:	e35b0000 	cmp	fp, #0
    c39c:	1a000007 	bne	c3c0 <buf_xor+0x12c>
    c3a0:	e4d83001 	ldrb	r3, [r8], #1
    c3a4:	e4d92001 	ldrb	r2, [r9], #1
    c3a8:	e0233002 	eor	r3, r3, r2
    c3ac:	e4c73001 	strb	r3, [r7], #1
    c3b0:	e157000a 	cmp	r7, sl
    c3b4:	1afffff7 	bne	c398 <buf_xor+0x104>
    c3b8:	e28dd014 	add	sp, sp, #20
    c3bc:	e8bd8ff0 	pop	{r4, r5, r6, r7, r8, r9, sl, fp, pc}
    c3c0:	e5d82000 	ldrb	r2, [r8]
    c3c4:	e1a00004 	mov	r0, r4
    c3c8:	e5d93000 	ldrb	r3, [r9]
    c3cc:	e0221003 	eor	r1, r2, r3
    c3d0:	eb000ab1 	bl	ee9c <tfp_printf>
    c3d4:	eafffff1 	b	c3a0 <buf_xor+0x10c>
    c3d8:	e1a07000 	mov	r7, r0
    c3dc:	eaffffe7 	b	c380 <buf_xor+0xec>
    c3e0:	00005b5c 	.word	0x00005b5c
    c3e4:	00005aa8 	.word	0x00005aa8

0000c3e8 <_gcry_cipher_setkey>:
    c3e8:	e2802030 	add	r2, r0, #48	; 0x30
    c3ec:	e2800040 	add	r0, r0, #64	; 0x40
    c3f0:	e92d4010 	push	{r4, lr}
    c3f4:	e2811004 	add	r1, r1, #4
    c3f8:	e5513003 	ldrb	r3, [r1, #-3]
    c3fc:	e5514004 	ldrb	r4, [r1, #-4]
    c400:	e551e002 	ldrb	lr, [r1, #-2]
    c404:	e1a03803 	lsl	r3, r3, #16
    c408:	e551c001 	ldrb	ip, [r1, #-1]
    c40c:	e0833c04 	add	r3, r3, r4, lsl #24
    c410:	e083340e 	add	r3, r3, lr, lsl #8
    c414:	e083300c 	add	r3, r3, ip
    c418:	e4823004 	str	r3, [r2], #4
    c41c:	e1500002 	cmp	r0, r2
    c420:	1afffff3 	bne	c3f4 <_gcry_cipher_setkey+0xc>
    c424:	e3a00000 	mov	r0, #0
    c428:	e8bd8010 	pop	{r4, pc}

0000c42c <_gcry_cipher_setiv>:
    c42c:	e3510000 	cmp	r1, #0
    c430:	e3a0c000 	mov	ip, #0
    c434:	e92d4010 	push	{r4, lr}
    c438:	e580c020 	str	ip, [r0, #32]
    c43c:	0a000002 	beq	c44c <_gcry_cipher_setiv+0x20>
    c440:	eb0002ac 	bl	cef8 <memcpy>
    c444:	e3a00000 	mov	r0, #0
    c448:	e8bd8010 	pop	{r4, pc}
    c44c:	eb000272 	bl	ce1c <memset>
    c450:	e3a00000 	mov	r0, #0
    c454:	e8bd8010 	pop	{r4, pc}

0000c458 <cipher_sync>:
    c458:	e5902020 	ldr	r2, [r0, #32]
    c45c:	e3520000 	cmp	r2, #0
    c460:	012fff1e 	bxeq	lr
    c464:	e92d4010 	push	{r4, lr}
    c468:	e1a04000 	mov	r4, r0
    c46c:	e0800002 	add	r0, r0, r2
    c470:	e1a01004 	mov	r1, r4
    c474:	e2622008 	rsb	r2, r2, #8
    c478:	eb0002c4 	bl	cf90 <memmove>
    c47c:	e5942020 	ldr	r2, [r4, #32]
    c480:	e1a00004 	mov	r0, r4
    c484:	e0441002 	sub	r1, r4, r2
    c488:	e2811018 	add	r1, r1, #24
    c48c:	eb000299 	bl	cef8 <memcpy>
    c490:	e3a03000 	mov	r3, #0
    c494:	e5843020 	str	r3, [r4, #32]
    c498:	e8bd8010 	pop	{r4, pc}

0000c49c <bytesFromBlock>:
    c49c:	e5c21007 	strb	r1, [r2, #7]
    c4a0:	e24dd008 	sub	sp, sp, #8
    c4a4:	e1a0c421 	lsr	ip, r1, #8
    c4a8:	e28d3008 	add	r3, sp, #8
    c4ac:	e5c2c006 	strb	ip, [r2, #6]
    c4b0:	e9030003 	stmdb	r3, {r0, r1}
    c4b4:	e1a03000 	mov	r3, r0
    c4b8:	e1a00821 	lsr	r0, r1, #16
    c4bc:	e1a0c423 	lsr	ip, r3, #8
    c4c0:	e1a01c21 	lsr	r1, r1, #24
    c4c4:	e5c20005 	strb	r0, [r2, #5]
    c4c8:	e5c23003 	strb	r3, [r2, #3]
    c4cc:	e1a00823 	lsr	r0, r3, #16
    c4d0:	e1a03c23 	lsr	r3, r3, #24
    c4d4:	e5c21004 	strb	r1, [r2, #4]
    c4d8:	e5c2c002 	strb	ip, [r2, #2]
    c4dc:	e5c20001 	strb	r0, [r2, #1]
    c4e0:	e5c23000 	strb	r3, [r2]
    c4e4:	e28dd008 	add	sp, sp, #8
    c4e8:	e12fff1e 	bx	lr

0000c4ec <encrypt>:
    c4ec:	e92d4010 	push	{r4, lr}
    c4f0:	e24dd010 	sub	sp, sp, #16
    c4f4:	e1a04000 	mov	r4, r0
    c4f8:	e59dc018 	ldr	ip, [sp, #24]
    c4fc:	e58dc004 	str	ip, [sp, #4]
    c500:	e28dc008 	add	ip, sp, #8
    c504:	e88c000c 	stm	ip, {r2, r3}
    c508:	e3a03000 	mov	r3, #0
    c50c:	e58d3000 	str	r3, [sp]
    c510:	e89c000c 	ldm	ip, {r2, r3}
    c514:	ebfff935 	bl	a9f0 <run>
    c518:	e1a00004 	mov	r0, r4
    c51c:	e28dd010 	add	sp, sp, #16
    c520:	e8bd8010 	pop	{r4, pc}

0000c524 <blockFromBytes>:
    c524:	e3a0c000 	mov	ip, #0
    c528:	e3a03001 	mov	r3, #1
    c52c:	e52de004 	push	{lr}		; (str lr, [sp, #-4]!)
    c530:	e1a0e00c 	mov	lr, ip
    c534:	ea000001 	b	c540 <blockFromBytes+0x1c>
    c538:	e2833001 	add	r3, r3, #1
    c53c:	e2811001 	add	r1, r1, #1
    c540:	e2432001 	sub	r2, r3, #1
    c544:	e3520003 	cmp	r2, #3
    c548:	e5d12000 	ldrb	r2, [r1]
    c54c:	9182e40e 	orrls	lr, r2, lr, lsl #8
    c550:	9afffff8 	bls	c538 <blockFromBytes+0x14>
    c554:	e182c40c 	orr	ip, r2, ip, lsl #8
    c558:	e3530008 	cmp	r3, #8
    c55c:	1afffff5 	bne	c538 <blockFromBytes+0x14>
    c560:	e580e000 	str	lr, [r0]
    c564:	e580c004 	str	ip, [r0, #4]
    c568:	e49df004 	pop	{pc}		; (ldr pc, [sp], #4)

0000c56c <_gcry_cipher_cfb_decrypt>:
    c56c:	e92d4ff0 	push	{r4, r5, r6, r7, r8, r9, sl, fp, lr}
    c570:	e1a08000 	mov	r8, r0
    c574:	e59f05f8 	ldr	r0, [pc, #1528]	; cb74 <_gcry_cipher_cfb_decrypt+0x608>
    c578:	e24dd05c 	sub	sp, sp, #92	; 0x5c
    c57c:	e59f65f4 	ldr	r6, [pc, #1524]	; cb78 <_gcry_cipher_cfb_decrypt+0x60c>
    c580:	e2485001 	sub	r5, r8, #1
    c584:	e08f0000 	add	r0, pc, r0
    c588:	e2884007 	add	r4, r8, #7
    c58c:	e58d1024 	str	r1, [sp, #36]	; 0x24
    c590:	e1a07005 	mov	r7, r5
    c594:	e59d1080 	ldr	r1, [sp, #128]	; 0x80
    c598:	e58d3028 	str	r3, [sp, #40]	; 0x28
    c59c:	e3a03001 	mov	r3, #1
    c5a0:	e58d201c 	str	r2, [sp, #28]
    c5a4:	eb000a3c 	bl	ee9c <tfp_printf>
    c5a8:	e59f05cc 	ldr	r0, [pc, #1484]	; cb7c <_gcry_cipher_cfb_decrypt+0x610>
    c5ac:	e08f6006 	add	r6, pc, r6
    c5b0:	e08f0000 	add	r0, pc, r0
    c5b4:	eb000a38 	bl	ee9c <tfp_printf>
    c5b8:	e5f71001 	ldrb	r1, [r7, #1]!
    c5bc:	e1a00006 	mov	r0, r6
    c5c0:	eb000a35 	bl	ee9c <tfp_printf>
    c5c4:	e1570004 	cmp	r7, r4
    c5c8:	1afffffa 	bne	c5b8 <_gcry_cipher_cfb_decrypt+0x4c>
    c5cc:	e59f05ac 	ldr	r0, [pc, #1452]	; cb80 <_gcry_cipher_cfb_decrypt+0x614>
    c5d0:	e08f0000 	add	r0, pc, r0
    c5d4:	eb000a30 	bl	ee9c <tfp_printf>
    c5d8:	e59d3080 	ldr	r3, [sp, #128]	; 0x80
    c5dc:	e59d201c 	ldr	r2, [sp, #28]
    c5e0:	e1530002 	cmp	r3, r2
    c5e4:	83e04000 	mvnhi	r4, #0
    c5e8:	8a00007a 	bhi	c7d8 <_gcry_cipher_cfb_decrypt+0x26c>
    c5ec:	e5983020 	ldr	r3, [r8, #32]
    c5f0:	e59d2080 	ldr	r2, [sp, #128]	; 0x80
    c5f4:	e1530002 	cmp	r3, r2
    c5f8:	2a00013d 	bcs	caf4 <_gcry_cipher_cfb_decrypt+0x588>
    c5fc:	e3530000 	cmp	r3, #0
    c600:	1a00010f 	bne	ca44 <_gcry_cipher_cfb_decrypt+0x4d8>
    c604:	e59d3080 	ldr	r3, [sp, #128]	; 0x80
    c608:	e353000f 	cmp	r3, #15
    c60c:	8a000074 	bhi	c7e4 <_gcry_cipher_cfb_decrypt+0x278>
    c610:	e59d401c 	ldr	r4, [sp, #28]
    c614:	e3a03000 	mov	r3, #0
    c618:	e59f0564 	ldr	r0, [pc, #1380]	; cb84 <_gcry_cipher_cfb_decrypt+0x618>
    c61c:	e59d1080 	ldr	r1, [sp, #128]	; 0x80
    c620:	e1a02004 	mov	r2, r4
    c624:	e08f0000 	add	r0, pc, r0
    c628:	eb000a1b 	bl	ee9c <tfp_printf>
    c62c:	e59d3080 	ldr	r3, [sp, #128]	; 0x80
    c630:	e3530007 	cmp	r3, #7
    c634:	9a000142 	bls	cb44 <_gcry_cipher_cfb_decrypt+0x5d8>
    c638:	e59f0548 	ldr	r0, [pc, #1352]	; cb88 <_gcry_cipher_cfb_decrypt+0x61c>
    c63c:	e1a02004 	mov	r2, r4
    c640:	e5983020 	ldr	r3, [r8, #32]
    c644:	e28d5038 	add	r5, sp, #56	; 0x38
    c648:	e08f0000 	add	r0, pc, r0
    c64c:	e28d6030 	add	r6, sp, #48	; 0x30
    c650:	e59d1080 	ldr	r1, [sp, #128]	; 0x80
    c654:	e59f7530 	ldr	r7, [pc, #1328]	; cb8c <_gcry_cipher_cfb_decrypt+0x620>
    c658:	eb000a0f 	bl	ee9c <tfp_printf>
    c65c:	e59d3080 	ldr	r3, [sp, #128]	; 0x80
    c660:	e3a02008 	mov	r2, #8
    c664:	e08f7007 	add	r7, pc, r7
    c668:	e1a01008 	mov	r1, r8
    c66c:	e2880010 	add	r0, r8, #16
    c670:	e2434008 	sub	r4, r3, #8
    c674:	ebfffe4f 	bl	bfb8 <cipher_block_cpy>
    c678:	e1a01008 	mov	r1, r8
    c67c:	e1a00005 	mov	r0, r5
    c680:	ebffffa7 	bl	c524 <blockFromBytes>
    c684:	e59d203c 	ldr	r2, [sp, #60]	; 0x3c
    c688:	e1a00007 	mov	r0, r7
    c68c:	e59d1038 	ldr	r1, [sp, #56]	; 0x38
    c690:	eb000a01 	bl	ee9c <tfp_printf>
    c694:	e3a03000 	mov	r3, #0
    c698:	e1a00006 	mov	r0, r6
    c69c:	e58d3000 	str	r3, [sp]
    c6a0:	e2881030 	add	r1, r8, #48	; 0x30
    c6a4:	e895000c 	ldm	r5, {r2, r3}
    c6a8:	ebffff8f 	bl	c4ec <encrypt>
    c6ac:	e8960003 	ldm	r6, {r0, r1}
    c6b0:	e1a02008 	mov	r2, r8
    c6b4:	e1a06000 	mov	r6, r0
    c6b8:	e1a09001 	mov	r9, r1
    c6bc:	e8850003 	stm	r5, {r0, r1}
    c6c0:	ebffff75 	bl	c49c <bytesFromBlock>
    c6c4:	e1a02009 	mov	r2, r9
    c6c8:	e1a01006 	mov	r1, r6
    c6cc:	e1a00007 	mov	r0, r7
    c6d0:	eb0009f1 	bl	ee9c <tfp_printf>
    c6d4:	e59d3028 	ldr	r3, [sp, #40]	; 0x28
    c6d8:	e1a01008 	mov	r1, r8
    c6dc:	e1a02003 	mov	r2, r3
    c6e0:	e2833008 	add	r3, r3, #8
    c6e4:	e58d3028 	str	r3, [sp, #40]	; 0x28
    c6e8:	e59d3024 	ldr	r3, [sp, #36]	; 0x24
    c6ec:	e1a00003 	mov	r0, r3
    c6f0:	e2833008 	add	r3, r3, #8
    c6f4:	e58d3024 	str	r3, [sp, #36]	; 0x24
    c6f8:	e3a03008 	mov	r3, #8
    c6fc:	ebfffedb 	bl	c270 <cipher_block_xor_n_copy>
    c700:	e3540000 	cmp	r4, #0
    c704:	0a000033 	beq	c7d8 <_gcry_cipher_cfb_decrypt+0x26c>
    c708:	e59f0480 	ldr	r0, [pc, #1152]	; cb90 <_gcry_cipher_cfb_decrypt+0x624>
    c70c:	e1a01004 	mov	r1, r4
    c710:	e5983020 	ldr	r3, [r8, #32]
    c714:	e28d5040 	add	r5, sp, #64	; 0x40
    c718:	e59d201c 	ldr	r2, [sp, #28]
    c71c:	e28d7030 	add	r7, sp, #48	; 0x30
    c720:	e08f0000 	add	r0, pc, r0
    c724:	e3a09000 	mov	r9, #0
    c728:	e59f6464 	ldr	r6, [pc, #1124]	; cb94 <_gcry_cipher_cfb_decrypt+0x628>
    c72c:	eb0009da 	bl	ee9c <tfp_printf>
    c730:	e3a02008 	mov	r2, #8
    c734:	e1a01008 	mov	r1, r8
    c738:	e08f6006 	add	r6, pc, r6
    c73c:	e2880010 	add	r0, r8, #16
    c740:	ebfffe1c 	bl	bfb8 <cipher_block_cpy>
    c744:	e1a01008 	mov	r1, r8
    c748:	e1a00005 	mov	r0, r5
    c74c:	ebffff74 	bl	c524 <blockFromBytes>
    c750:	e59d2044 	ldr	r2, [sp, #68]	; 0x44
    c754:	e1a00006 	mov	r0, r6
    c758:	e59d1040 	ldr	r1, [sp, #64]	; 0x40
    c75c:	eb0009ce 	bl	ee9c <tfp_printf>
    c760:	e58d9000 	str	r9, [sp]
    c764:	e1a00007 	mov	r0, r7
    c768:	e895000c 	ldm	r5, {r2, r3}
    c76c:	e2881030 	add	r1, r8, #48	; 0x30
    c770:	ebffff5d 	bl	c4ec <encrypt>
    c774:	e8970003 	ldm	r7, {r0, r1}
    c778:	e1a02008 	mov	r2, r8
    c77c:	e1a07000 	mov	r7, r0
    c780:	e1a0a001 	mov	sl, r1
    c784:	e8850003 	stm	r5, {r0, r1}
    c788:	ebffff43 	bl	c49c <bytesFromBlock>
    c78c:	e1a0200a 	mov	r2, sl
    c790:	e1a01007 	mov	r1, r7
    c794:	e1a00006 	mov	r0, r6
    c798:	eb0009bf 	bl	ee9c <tfp_printf>
    c79c:	e59d2028 	ldr	r2, [sp, #40]	; 0x28
    c7a0:	e2643008 	rsb	r3, r4, #8
    c7a4:	e59d0024 	ldr	r0, [sp, #36]	; 0x24
    c7a8:	e1a01008 	mov	r1, r8
    c7ac:	e5883020 	str	r3, [r8, #32]
    c7b0:	e1a03004 	mov	r3, r4
    c7b4:	e1a04009 	mov	r4, r9
    c7b8:	ebfffea3 	bl	c24c <buf_xor_n_copy>
    c7bc:	e1a01008 	mov	r1, r8
    c7c0:	e1a00005 	mov	r0, r5
    c7c4:	ebffff56 	bl	c524 <blockFromBytes>
    c7c8:	e59d2044 	ldr	r2, [sp, #68]	; 0x44
    c7cc:	e1a00006 	mov	r0, r6
    c7d0:	e59d1040 	ldr	r1, [sp, #64]	; 0x40
    c7d4:	eb0009b0 	bl	ee9c <tfp_printf>
    c7d8:	e1a00004 	mov	r0, r4
    c7dc:	e28dd05c 	add	sp, sp, #92	; 0x5c
    c7e0:	e8bd8ff0 	pop	{r4, r5, r6, r7, r8, r9, sl, fp, pc}
    c7e4:	e59f03ac 	ldr	r0, [pc, #940]	; cb98 <_gcry_cipher_cfb_decrypt+0x62c>
    c7e8:	e3a03000 	mov	r3, #0
    c7ec:	e59d201c 	ldr	r2, [sp, #28]
    c7f0:	e59d1080 	ldr	r1, [sp, #128]	; 0x80
    c7f4:	e08f0000 	add	r0, pc, r0
    c7f8:	e59f639c 	ldr	r6, [pc, #924]	; cb9c <_gcry_cipher_cfb_decrypt+0x630>
    c7fc:	eb0009a6 	bl	ee9c <tfp_printf>
    c800:	e59d3080 	ldr	r3, [sp, #128]	; 0x80
    c804:	e59f0394 	ldr	r0, [pc, #916]	; cba0 <_gcry_cipher_cfb_decrypt+0x634>
    c808:	e1a031a3 	lsr	r3, r3, #3
    c80c:	e08f0000 	add	r0, pc, r0
    c810:	e1a07003 	mov	r7, r3
    c814:	e58d300c 	str	r3, [sp, #12]
    c818:	eb00099f 	bl	ee9c <tfp_printf>
    c81c:	e59f0380 	ldr	r0, [pc, #896]	; cba4 <_gcry_cipher_cfb_decrypt+0x638>
    c820:	e1a01007 	mov	r1, r7
    c824:	e08f6006 	add	r6, pc, r6
    c828:	e08f0000 	add	r0, pc, r0
    c82c:	eb00099a 	bl	ee9c <tfp_printf>
    c830:	e59f1370 	ldr	r1, [pc, #880]	; cba8 <_gcry_cipher_cfb_decrypt+0x63c>
    c834:	e59f0370 	ldr	r0, [pc, #880]	; cbac <_gcry_cipher_cfb_decrypt+0x640>
    c838:	e08f1001 	add	r1, pc, r1
    c83c:	e08f0000 	add	r0, pc, r0
    c840:	eb000995 	bl	ee9c <tfp_printf>
    c844:	e5f51001 	ldrb	r1, [r5, #1]!
    c848:	e1a00006 	mov	r0, r6
    c84c:	eb000992 	bl	ee9c <tfp_printf>
    c850:	e1550004 	cmp	r5, r4
    c854:	1afffffa 	bne	c844 <_gcry_cipher_cfb_decrypt+0x2d8>
    c858:	e59f0350 	ldr	r0, [pc, #848]	; cbb0 <_gcry_cipher_cfb_decrypt+0x644>
    c85c:	e08f0000 	add	r0, pc, r0
    c860:	eb00098d 	bl	ee9c <tfp_printf>
    c864:	e59d300c 	ldr	r3, [sp, #12]
    c868:	e3530002 	cmp	r3, #2
    c86c:	0a0000b6 	beq	cb4c <_gcry_cipher_cfb_decrypt+0x5e0>
    c870:	e59d3024 	ldr	r3, [sp, #36]	; 0x24
    c874:	e288b030 	add	fp, r8, #48	; 0x30
    c878:	e59f7334 	ldr	r7, [pc, #820]	; cbb4 <_gcry_cipher_cfb_decrypt+0x648>
    c87c:	e28d4038 	add	r4, sp, #56	; 0x38
    c880:	e59da028 	ldr	sl, [sp, #40]	; 0x28
    c884:	e2836017 	add	r6, r3, #23
    c888:	e08f7007 	add	r7, pc, r7
    c88c:	e3a03001 	mov	r3, #1
    c890:	e58d3014 	str	r3, [sp, #20]
    c894:	e28d9030 	add	r9, sp, #48	; 0x30
    c898:	e58d8020 	str	r8, [sp, #32]
    c89c:	e28d3040 	add	r3, sp, #64	; 0x40
    c8a0:	e58d3010 	str	r3, [sp, #16]
    c8a4:	e28d3048 	add	r3, sp, #72	; 0x48
    c8a8:	e58d302c 	str	r3, [sp, #44]	; 0x2c
    c8ac:	e59d8020 	ldr	r8, [sp, #32]
    c8b0:	e3a02008 	mov	r2, #8
    c8b4:	e59d5010 	ldr	r5, [sp, #16]
    c8b8:	e1a01008 	mov	r1, r8
    c8bc:	e1a00005 	mov	r0, r5
    c8c0:	ebfffdbc 	bl	bfb8 <cipher_block_cpy>
    c8c4:	e59d002c 	ldr	r0, [sp, #44]	; 0x2c
    c8c8:	e3a02010 	mov	r2, #16
    c8cc:	e1a0100a 	mov	r1, sl
    c8d0:	ebfffdb8 	bl	bfb8 <cipher_block_cpy>
    c8d4:	e2463017 	sub	r3, r6, #23
    c8d8:	e1a00008 	mov	r0, r8
    c8dc:	e58d3018 	str	r3, [sp, #24]
    c8e0:	e3a02008 	mov	r2, #8
    c8e4:	e28a1010 	add	r1, sl, #16
    c8e8:	e3a08000 	mov	r8, #0
    c8ec:	ebfffdb1 	bl	bfb8 <cipher_block_cpy>
    c8f0:	e28d3058 	add	r3, sp, #88	; 0x58
    c8f4:	e58d3008 	str	r3, [sp, #8]
    c8f8:	e1a01005 	mov	r1, r5
    c8fc:	e1a00004 	mov	r0, r4
    c900:	ebffff07 	bl	c524 <blockFromBytes>
    c904:	e58d8000 	str	r8, [sp]
    c908:	e1a0100b 	mov	r1, fp
    c90c:	e894000c 	ldm	r4, {r2, r3}
    c910:	e1a00009 	mov	r0, r9
    c914:	ebfffef4 	bl	c4ec <encrypt>
    c918:	e8990003 	ldm	r9, {r0, r1}
    c91c:	e1a02005 	mov	r2, r5
    c920:	e2855008 	add	r5, r5, #8
    c924:	e8840003 	stm	r4, {r0, r1}
    c928:	ebfffedb 	bl	c49c <bytesFromBlock>
    c92c:	e59d3008 	ldr	r3, [sp, #8]
    c930:	e1530005 	cmp	r3, r5
    c934:	1affffef 	bne	c8f8 <_gcry_cipher_cfb_decrypt+0x38c>
    c938:	e59d0018 	ldr	r0, [sp, #24]
    c93c:	e3a03018 	mov	r3, #24
    c940:	e59d2010 	ldr	r2, [sp, #16]
    c944:	e1a0100a 	mov	r1, sl
    c948:	e58d8000 	str	r8, [sp]
    c94c:	e2465018 	sub	r5, r6, #24
    c950:	ebfffe4f 	bl	c294 <buf_xor>
    c954:	e5f51001 	ldrb	r1, [r5, #1]!
    c958:	e1a00007 	mov	r0, r7
    c95c:	eb00094e 	bl	ee9c <tfp_printf>
    c960:	e1560005 	cmp	r6, r5
    c964:	1afffffa 	bne	c954 <_gcry_cipher_cfb_decrypt+0x3e8>
    c968:	e59d300c 	ldr	r3, [sp, #12]
    c96c:	e28aa018 	add	sl, sl, #24
    c970:	e2433003 	sub	r3, r3, #3
    c974:	e58d300c 	str	r3, [sp, #12]
    c978:	e3530002 	cmp	r3, #2
    c97c:	e59d3014 	ldr	r3, [sp, #20]
    c980:	e2433001 	sub	r3, r3, #1
    c984:	e58d3014 	str	r3, [sp, #20]
    c988:	e2863001 	add	r3, r6, #1
    c98c:	e2866018 	add	r6, r6, #24
    c990:	8affffc5 	bhi	c8ac <_gcry_cipher_cfb_decrypt+0x340>
    c994:	e59d200c 	ldr	r2, [sp, #12]
    c998:	e59d8020 	ldr	r8, [sp, #32]
    c99c:	e3520000 	cmp	r2, #0
    c9a0:	0a000042 	beq	cab0 <_gcry_cipher_cfb_decrypt+0x544>
    c9a4:	e59f720c 	ldr	r7, [pc, #524]	; cbb8 <_gcry_cipher_cfb_decrypt+0x64c>
    c9a8:	e2836007 	add	r6, r3, #7
    c9ac:	e58db008 	str	fp, [sp, #8]
    c9b0:	e08f7007 	add	r7, pc, r7
    c9b4:	e59db014 	ldr	fp, [sp, #20]
    c9b8:	e1a01008 	mov	r1, r8
    c9bc:	e1a00004 	mov	r0, r4
    c9c0:	e2465008 	sub	r5, r6, #8
    c9c4:	ebfffed6 	bl	c524 <blockFromBytes>
    c9c8:	e59d1008 	ldr	r1, [sp, #8]
    c9cc:	e35b0000 	cmp	fp, #0
    c9d0:	c3a03001 	movgt	r3, #1
    c9d4:	d3a03000 	movle	r3, #0
    c9d8:	e58d3000 	str	r3, [sp]
    c9dc:	e1a00009 	mov	r0, r9
    c9e0:	e894000c 	ldm	r4, {r2, r3}
    c9e4:	ebfffec0 	bl	c4ec <encrypt>
    c9e8:	e8990003 	ldm	r9, {r0, r1}
    c9ec:	e1a02008 	mov	r2, r8
    c9f0:	e8840003 	stm	r4, {r0, r1}
    c9f4:	ebfffea8 	bl	c49c <bytesFromBlock>
    c9f8:	e3a03008 	mov	r3, #8
    c9fc:	e1a0200a 	mov	r2, sl
    ca00:	e1a01008 	mov	r1, r8
    ca04:	e2460007 	sub	r0, r6, #7
    ca08:	ebfffe18 	bl	c270 <cipher_block_xor_n_copy>
    ca0c:	e5f51001 	ldrb	r1, [r5, #1]!
    ca10:	e1a00007 	mov	r0, r7
    ca14:	eb000920 	bl	ee9c <tfp_printf>
    ca18:	e1550006 	cmp	r5, r6
    ca1c:	1afffffa 	bne	ca0c <_gcry_cipher_cfb_decrypt+0x4a0>
    ca20:	e59d300c 	ldr	r3, [sp, #12]
    ca24:	e28aa008 	add	sl, sl, #8
    ca28:	e24bb001 	sub	fp, fp, #1
    ca2c:	e2866008 	add	r6, r6, #8
    ca30:	e3530001 	cmp	r3, #1
    ca34:	0a00001d 	beq	cab0 <_gcry_cipher_cfb_decrypt+0x544>
    ca38:	e3a03001 	mov	r3, #1
    ca3c:	e58d300c 	str	r3, [sp, #12]
    ca40:	eaffffdc 	b	c9b8 <_gcry_cipher_cfb_decrypt+0x44c>
    ca44:	e59f0170 	ldr	r0, [pc, #368]	; cbbc <_gcry_cipher_cfb_decrypt+0x650>
    ca48:	e59d1080 	ldr	r1, [sp, #128]	; 0x80
    ca4c:	e08f0000 	add	r0, pc, r0
    ca50:	e59d201c 	ldr	r2, [sp, #28]
    ca54:	eb000910 	bl	ee9c <tfp_printf>
    ca58:	e5983020 	ldr	r3, [r8, #32]
    ca5c:	e59d2080 	ldr	r2, [sp, #128]	; 0x80
    ca60:	e59d7028 	ldr	r7, [sp, #40]	; 0x28
    ca64:	e2631008 	rsb	r1, r3, #8
    ca68:	e59d6024 	ldr	r6, [sp, #36]	; 0x24
    ca6c:	e0422003 	sub	r2, r2, r3
    ca70:	e58d2080 	str	r2, [sp, #128]	; 0x80
    ca74:	e1a00006 	mov	r0, r6
    ca78:	e0881001 	add	r1, r8, r1
    ca7c:	e1a02007 	mov	r2, r7
    ca80:	ebfffdf1 	bl	c24c <buf_xor_n_copy>
    ca84:	e5983020 	ldr	r3, [r8, #32]
    ca88:	e0862003 	add	r2, r6, r3
    ca8c:	e0873003 	add	r3, r7, r3
    ca90:	e58d3028 	str	r3, [sp, #40]	; 0x28
    ca94:	e3a03000 	mov	r3, #0
    ca98:	e5883020 	str	r3, [r8, #32]
    ca9c:	e59d3080 	ldr	r3, [sp, #128]	; 0x80
    caa0:	e58d2024 	str	r2, [sp, #36]	; 0x24
    caa4:	e353000f 	cmp	r3, #15
    caa8:	9afffed8 	bls	c610 <_gcry_cipher_cfb_decrypt+0xa4>
    caac:	eaffff4c 	b	c7e4 <_gcry_cipher_cfb_decrypt+0x278>
    cab0:	e59f0108 	ldr	r0, [pc, #264]	; cbc0 <_gcry_cipher_cfb_decrypt+0x654>
    cab4:	e08f0000 	add	r0, pc, r0
    cab8:	eb0008f7 	bl	ee9c <tfp_printf>
    cabc:	e59d0010 	ldr	r0, [sp, #16]
    cac0:	e3a01018 	mov	r1, #24
    cac4:	eb000148 	bl	cfec <wipememory>
    cac8:	e59d3080 	ldr	r3, [sp, #128]	; 0x80
    cacc:	e59d2024 	ldr	r2, [sp, #36]	; 0x24
    cad0:	e3c33007 	bic	r3, r3, #7
    cad4:	e0822003 	add	r2, r2, r3
    cad8:	e58d2024 	str	r2, [sp, #36]	; 0x24
    cadc:	e59d2028 	ldr	r2, [sp, #40]	; 0x28
    cae0:	e0823003 	add	r3, r2, r3
    cae4:	e58d3028 	str	r3, [sp, #40]	; 0x28
    cae8:	e59d3080 	ldr	r3, [sp, #128]	; 0x80
    caec:	e2034007 	and	r4, r3, #7
    caf0:	eaffff02 	b	c700 <_gcry_cipher_cfb_decrypt+0x194>
    caf4:	e59f00c8 	ldr	r0, [pc, #200]	; cbc4 <_gcry_cipher_cfb_decrypt+0x658>
    caf8:	e3a04000 	mov	r4, #0
    cafc:	e59d201c 	ldr	r2, [sp, #28]
    cb00:	e59d1080 	ldr	r1, [sp, #128]	; 0x80
    cb04:	e08f0000 	add	r0, pc, r0
    cb08:	eb0008e3 	bl	ee9c <tfp_printf>
    cb0c:	e5981020 	ldr	r1, [r8, #32]
    cb10:	e59d2028 	ldr	r2, [sp, #40]	; 0x28
    cb14:	e59d0024 	ldr	r0, [sp, #36]	; 0x24
    cb18:	e2611008 	rsb	r1, r1, #8
    cb1c:	e59d3080 	ldr	r3, [sp, #128]	; 0x80
    cb20:	e0881001 	add	r1, r8, r1
    cb24:	ebfffdc8 	bl	c24c <buf_xor_n_copy>
    cb28:	e5983020 	ldr	r3, [r8, #32]
    cb2c:	e1a00004 	mov	r0, r4
    cb30:	e59d2080 	ldr	r2, [sp, #128]	; 0x80
    cb34:	e0433002 	sub	r3, r3, r2
    cb38:	e5883020 	str	r3, [r8, #32]
    cb3c:	e28dd05c 	add	sp, sp, #92	; 0x5c
    cb40:	e8bd8ff0 	pop	{r4, r5, r6, r7, r8, r9, sl, fp, pc}
    cb44:	e59d4080 	ldr	r4, [sp, #128]	; 0x80
    cb48:	eafffeec 	b	c700 <_gcry_cipher_cfb_decrypt+0x194>
    cb4c:	e59da028 	ldr	sl, [sp, #40]	; 0x28
    cb50:	e3a02001 	mov	r2, #1
    cb54:	e58d2014 	str	r2, [sp, #20]
    cb58:	e28d2040 	add	r2, sp, #64	; 0x40
    cb5c:	e59d3024 	ldr	r3, [sp, #36]	; 0x24
    cb60:	e288b030 	add	fp, r8, #48	; 0x30
    cb64:	e58d2010 	str	r2, [sp, #16]
    cb68:	e28d4038 	add	r4, sp, #56	; 0x38
    cb6c:	e28d9030 	add	r9, sp, #48	; 0x30
    cb70:	eaffff8b 	b	c9a4 <_gcry_cipher_cfb_decrypt+0x438>
    cb74:	000058d0 	.word	0x000058d0
    cb78:	00004f28 	.word	0x00004f28
    cb7c:	000058e4 	.word	0x000058e4
    cb80:	000054c8 	.word	0x000054c8
    cb84:	00005924 	.word	0x00005924
    cb88:	00005918 	.word	0x00005918
    cb8c:	00005914 	.word	0x00005914
    cb90:	00005864 	.word	0x00005864
    cb94:	00005840 	.word	0x00005840
    cb98:	000056e8 	.word	0x000056e8
    cb9c:	00004cb0 	.word	0x00004cb0
    cba0:	000056e8 	.word	0x000056e8
    cba4:	000056e4 	.word	0x000056e4
    cba8:	000056e4 	.word	0x000056e4
    cbac:	000056e4 	.word	0x000056e4
    cbb0:	0000523c 	.word	0x0000523c
    cbb4:	000056a0 	.word	0x000056a0
    cbb8:	00005578 	.word	0x00005578
    cbbc:	00005478 	.word	0x00005478
    cbc0:	00005478 	.word	0x00005478
    cbc4:	000053a8 	.word	0x000053a8

0000cbc8 <_gcry_cipher_decrypt>:
    cbc8:	e92d41f0 	push	{r4, r5, r6, r7, r8, lr}
    cbcc:	e1a07000 	mov	r7, r0
    cbd0:	e59d6018 	ldr	r6, [sp, #24]
    cbd4:	e1a04002 	mov	r4, r2
    cbd8:	e59f0084 	ldr	r0, [pc, #132]	; cc64 <_gcry_cipher_decrypt+0x9c>
    cbdc:	e1a08001 	mov	r8, r1
    cbe0:	e1a02006 	mov	r2, r6
    cbe4:	e1a01003 	mov	r1, r3
    cbe8:	e08f0000 	add	r0, pc, r0
    cbec:	e1a05003 	mov	r5, r3
    cbf0:	eb0008a9 	bl	ee9c <tfp_printf>
    cbf4:	e59f006c 	ldr	r0, [pc, #108]	; cc68 <_gcry_cipher_decrypt+0xa0>
    cbf8:	e1a02004 	mov	r2, r4
    cbfc:	e5973020 	ldr	r3, [r7, #32]
    cc00:	e1a01006 	mov	r1, r6
    cc04:	e08f0000 	add	r0, pc, r0
    cc08:	eb0008a3 	bl	ee9c <tfp_printf>
    cc0c:	e3550000 	cmp	r5, #0
    cc10:	0a00000d 	beq	cc4c <_gcry_cipher_decrypt+0x84>
    cc14:	e1560004 	cmp	r6, r4
    cc18:	0a000004 	beq	cc30 <_gcry_cipher_decrypt+0x68>
    cc1c:	e59f0048 	ldr	r0, [pc, #72]	; cc6c <_gcry_cipher_decrypt+0xa4>
    cc20:	e1a02004 	mov	r2, r4
    cc24:	e1a01006 	mov	r1, r6
    cc28:	e08f0000 	add	r0, pc, r0
    cc2c:	eb00089a 	bl	ee9c <tfp_printf>
    cc30:	e58d6018 	str	r6, [sp, #24]
    cc34:	e1a03005 	mov	r3, r5
    cc38:	e1a02004 	mov	r2, r4
    cc3c:	e1a01008 	mov	r1, r8
    cc40:	e1a00007 	mov	r0, r7
    cc44:	e8bd41f0 	pop	{r4, r5, r6, r7, r8, lr}
    cc48:	eafffe47 	b	c56c <_gcry_cipher_cfb_decrypt>
    cc4c:	e59f001c 	ldr	r0, [pc, #28]	; cc70 <_gcry_cipher_decrypt+0xa8>
    cc50:	e1a06004 	mov	r6, r4
    cc54:	e1a05008 	mov	r5, r8
    cc58:	e08f0000 	add	r0, pc, r0
    cc5c:	eb00088e 	bl	ee9c <tfp_printf>
    cc60:	eafffff2 	b	cc30 <_gcry_cipher_decrypt+0x68>
    cc64:	000053b4 	.word	0x000053b4
    cc68:	000053bc 	.word	0x000053bc
    cc6c:	000053fc 	.word	0x000053fc
    cc70:	000053a4 	.word	0x000053a4

0000cc74 <malloc>:
    cc74:	e59f10dc 	ldr	r1, [pc, #220]	; cd58 <malloc+0xe4>
    cc78:	e08f1001 	add	r1, pc, r1
    cc7c:	e5d12000 	ldrb	r2, [r1]
    cc80:	e3520000 	cmp	r2, #0
    cc84:	0a000013 	beq	ccd8 <malloc+0x64>
    cc88:	e3500000 	cmp	r0, #0
    cc8c:	0a00000f 	beq	ccd0 <malloc+0x5c>
    cc90:	e59f30c4 	ldr	r3, [pc, #196]	; cd5c <malloc+0xe8>
    cc94:	e280101b 	add	r1, r0, #27
    cc98:	e3c1100f 	bic	r1, r1, #15
    cc9c:	e08f3003 	add	r3, pc, r3
    cca0:	e5933000 	ldr	r3, [r3]
    cca4:	e3530000 	cmp	r3, #0
    cca8:	0a000008 	beq	ccd0 <malloc+0x5c>
    ccac:	e5d32004 	ldrb	r2, [r3, #4]
    ccb0:	e3520000 	cmp	r2, #0
    ccb4:	0a000002 	beq	ccc4 <malloc+0x50>
    ccb8:	e5932000 	ldr	r2, [r3]
    ccbc:	e1520001 	cmp	r2, r1
    ccc0:	2a000014 	bcs	cd18 <malloc+0xa4>
    ccc4:	e5933008 	ldr	r3, [r3, #8]
    ccc8:	e3530000 	cmp	r3, #0
    cccc:	1afffff6 	bne	ccac <malloc+0x38>
    ccd0:	e3a00000 	mov	r0, #0
    ccd4:	e12fff1e 	bx	lr
    ccd8:	e59f3080 	ldr	r3, [pc, #128]	; cd60 <malloc+0xec>
    ccdc:	e3500000 	cmp	r0, #0
    cce0:	e59fc07c 	ldr	ip, [pc, #124]	; cd64 <malloc+0xf0>
    cce4:	e08f3003 	add	r3, pc, r3
    cce8:	e08fc00c 	add	ip, pc, ip
    ccec:	e5832008 	str	r2, [r3, #8]
    ccf0:	e3a02001 	mov	r2, #1
    ccf4:	e5c12000 	strb	r2, [r1]
    ccf8:	1280101b 	addne	r1, r0, #27
    ccfc:	e58c3000 	str	r3, [ip]
    cd00:	e3a0c802 	mov	ip, #131072	; 0x20000
    cd04:	13c1100f 	bicne	r1, r1, #15
    cd08:	e5c32004 	strb	r2, [r3, #4]
    cd0c:	e583c000 	str	ip, [r3]
    cd10:	1affffe6 	bne	ccb0 <malloc+0x3c>
    cd14:	eaffffed 	b	ccd0 <malloc+0x5c>
    cd18:	e281001c 	add	r0, r1, #28
    cd1c:	e1520000 	cmp	r2, r0
    cd20:	3a000008 	bcc	cd48 <malloc+0xd4>
    cd24:	e0830001 	add	r0, r3, r1
    cd28:	e0422001 	sub	r2, r2, r1
    cd2c:	e7832001 	str	r2, [r3, r1]
    cd30:	e3a02001 	mov	r2, #1
    cd34:	e5c02004 	strb	r2, [r0, #4]
    cd38:	e5932008 	ldr	r2, [r3, #8]
    cd3c:	e5802008 	str	r2, [r0, #8]
    cd40:	e5831000 	str	r1, [r3]
    cd44:	e5830008 	str	r0, [r3, #8]
    cd48:	e3a02000 	mov	r2, #0
    cd4c:	e283000c 	add	r0, r3, #12
    cd50:	e5c32004 	strb	r2, [r3, #4]
    cd54:	e12fff1e 	bx	lr
    cd58:	0003e398 	.word	0x0003e398
    cd5c:	0003e364 	.word	0x0003e364
    cd60:	0001e314 	.word	0x0001e314
    cd64:	0003e318 	.word	0x0003e318

0000cd68 <free>:
    cd68:	e3500000 	cmp	r0, #0
    cd6c:	012fff1e 	bxeq	lr
    cd70:	e5103004 	ldr	r3, [r0, #-4]
    cd74:	e3a02001 	mov	r2, #1
    cd78:	e52de004 	push	{lr}		; (str lr, [sp, #-4]!)
    cd7c:	e3530000 	cmp	r3, #0
    cd80:	e5402008 	strb	r2, [r0, #-8]
    cd84:	e240e00c 	sub	lr, r0, #12
    cd88:	0a000002 	beq	cd98 <free+0x30>
    cd8c:	e5d32004 	ldrb	r2, [r3, #4]
    cd90:	e3520000 	cmp	r2, #0
    cd94:	1a000015 	bne	cdf0 <free+0x88>
    cd98:	e59f306c 	ldr	r3, [pc, #108]	; ce0c <free+0xa4>
    cd9c:	e08f3003 	add	r3, pc, r3
    cda0:	e5933000 	ldr	r3, [r3]
    cda4:	e3530000 	cmp	r3, #0
    cda8:	049df004 	popeq	{pc}		; (ldreq pc, [sp], #4)
    cdac:	e1a02003 	mov	r2, r3
    cdb0:	e5933008 	ldr	r3, [r3, #8]
    cdb4:	e3530000 	cmp	r3, #0
    cdb8:	049df004 	popeq	{pc}		; (ldreq pc, [sp], #4)
    cdbc:	e5d21004 	ldrb	r1, [r2, #4]
    cdc0:	e3510000 	cmp	r1, #0
    cdc4:	0afffff8 	beq	cdac <free+0x44>
    cdc8:	e5921000 	ldr	r1, [r2]
    cdcc:	e082c001 	add	ip, r2, r1
    cdd0:	e15e000c 	cmp	lr, ip
    cdd4:	1afffff4 	bne	cdac <free+0x44>
    cdd8:	e510300c 	ldr	r3, [r0, #-12]
    cddc:	e5100004 	ldr	r0, [r0, #-4]
    cde0:	e0831001 	add	r1, r3, r1
    cde4:	e5820008 	str	r0, [r2, #8]
    cde8:	e5821000 	str	r1, [r2]
    cdec:	e49df004 	pop	{pc}		; (ldr pc, [sp], #4)
    cdf0:	e593c000 	ldr	ip, [r3]
    cdf4:	e510200c 	ldr	r2, [r0, #-12]
    cdf8:	e5931008 	ldr	r1, [r3, #8]
    cdfc:	e082300c 	add	r3, r2, ip
    ce00:	e500300c 	str	r3, [r0, #-12]
    ce04:	e5001004 	str	r1, [r0, #-4]
    ce08:	eaffffe2 	b	cd98 <free+0x30>
    ce0c:	0003e264 	.word	0x0003e264

0000ce10 <xfree>:
    ce10:	e3500000 	cmp	r0, #0
    ce14:	012fff1e 	bxeq	lr
    ce18:	eaffffd2 	b	cd68 <free>

0000ce1c <memset>:
    ce1c:	e3520000 	cmp	r2, #0
    ce20:	012fff1e 	bxeq	lr
    ce24:	e0802002 	add	r2, r0, r2
    ce28:	e6ef1071 	uxtb	r1, r1
    ce2c:	e1a03000 	mov	r3, r0
    ce30:	e4c31001 	strb	r1, [r3], #1
    ce34:	e1530002 	cmp	r3, r2
    ce38:	1afffffc 	bne	ce30 <memset+0x14>
    ce3c:	e12fff1e 	bx	lr

0000ce40 <xmalloc>:
    ce40:	e3500001 	cmp	r0, #1
    ce44:	e92d4070 	push	{r4, r5, r6, lr}
    ce48:	21a04000 	movcs	r4, r0
    ce4c:	33a04001 	movcc	r4, #1
    ce50:	e1a00004 	mov	r0, r4
    ce54:	ebffff86 	bl	cc74 <malloc>
    ce58:	e2505000 	subs	r5, r0, #0
    ce5c:	0a000004 	beq	ce74 <xmalloc+0x34>
    ce60:	e1a02004 	mov	r2, r4
    ce64:	e3a01000 	mov	r1, #0
    ce68:	ebffffeb 	bl	ce1c <memset>
    ce6c:	e1a00005 	mov	r0, r5
    ce70:	e8bd8070 	pop	{r4, r5, r6, pc}
    ce74:	e59f000c 	ldr	r0, [pc, #12]	; ce88 <xmalloc+0x48>
    ce78:	e1a01004 	mov	r1, r4
    ce7c:	e08f0000 	add	r0, pc, r0
    ce80:	eb000805 	bl	ee9c <tfp_printf>
    ce84:	eafffff8 	b	ce6c <xmalloc+0x2c>
    ce88:	000071e0 	.word	0x000071e0

0000ce8c <xmalloc_clear>:
    ce8c:	e92d4070 	push	{r4, r5, r6, lr}
    ce90:	e1a05000 	mov	r5, r0
    ce94:	ebffff76 	bl	cc74 <malloc>
    ce98:	e2504000 	subs	r4, r0, #0
    ce9c:	0a000002 	beq	ceac <xmalloc_clear+0x20>
    cea0:	e1a02005 	mov	r2, r5
    cea4:	e3a01000 	mov	r1, #0
    cea8:	ebffffdb 	bl	ce1c <memset>
    ceac:	e1a00004 	mov	r0, r4
    ceb0:	e8bd8070 	pop	{r4, r5, r6, pc}

0000ceb4 <xcalloc>:
    ceb4:	e3500000 	cmp	r0, #0
    ceb8:	e92d4070 	push	{r4, r5, r6, lr}
    cebc:	0a000003 	beq	ced0 <xcalloc+0x1c>
    cec0:	e0832190 	umull	r2, r3, r0, r1
    cec4:	e3530000 	cmp	r3, #0
    cec8:	13a05000 	movne	r5, #0
    cecc:	1a000007 	bne	cef0 <xcalloc+0x3c>
    ced0:	e0040091 	mul	r4, r1, r0
    ced4:	e1a00004 	mov	r0, r4
    ced8:	ebffff65 	bl	cc74 <malloc>
    cedc:	e2505000 	subs	r5, r0, #0
    cee0:	0a000002 	beq	cef0 <xcalloc+0x3c>
    cee4:	e1a02004 	mov	r2, r4
    cee8:	e3a01000 	mov	r1, #0
    ceec:	ebffffca 	bl	ce1c <memset>
    cef0:	e1a00005 	mov	r0, r5
    cef4:	e8bd8070 	pop	{r4, r5, r6, pc}

0000cef8 <memcpy>:
    cef8:	e3520000 	cmp	r2, #0
    cefc:	012fff1e 	bxeq	lr
    cf00:	e081c002 	add	ip, r1, r2
    cf04:	e2403001 	sub	r3, r0, #1
    cf08:	e4d12001 	ldrb	r2, [r1], #1
    cf0c:	e151000c 	cmp	r1, ip
    cf10:	e5e32001 	strb	r2, [r3, #1]!
    cf14:	1afffffb 	bne	cf08 <memcpy+0x10>
    cf18:	e12fff1e 	bx	lr

0000cf1c <xrealloc>:
    cf1c:	e92d4070 	push	{r4, r5, r6, lr}
    cf20:	e2505000 	subs	r5, r0, #0
    cf24:	0a000013 	beq	cf78 <xrealloc+0x5c>
    cf28:	e3510000 	cmp	r1, #0
    cf2c:	0a000014 	beq	cf84 <xrealloc+0x68>
    cf30:	e515600c 	ldr	r6, [r5, #-12]
    cf34:	e246600c 	sub	r6, r6, #12
    cf38:	e1510006 	cmp	r1, r6
    cf3c:	91a04005 	movls	r4, r5
    cf40:	8a000001 	bhi	cf4c <xrealloc+0x30>
    cf44:	e1a00004 	mov	r0, r4
    cf48:	e8bd8070 	pop	{r4, r5, r6, pc}
    cf4c:	e1a00001 	mov	r0, r1
    cf50:	ebffff47 	bl	cc74 <malloc>
    cf54:	e2504000 	subs	r4, r0, #0
    cf58:	0afffff9 	beq	cf44 <xrealloc+0x28>
    cf5c:	e1a02006 	mov	r2, r6
    cf60:	e1a01005 	mov	r1, r5
    cf64:	ebffffe3 	bl	cef8 <memcpy>
    cf68:	e1a00005 	mov	r0, r5
    cf6c:	ebffff7d 	bl	cd68 <free>
    cf70:	e1a00004 	mov	r0, r4
    cf74:	e8bd8070 	pop	{r4, r5, r6, pc}
    cf78:	e8bd4070 	pop	{r4, r5, r6, lr}
    cf7c:	e1a00001 	mov	r0, r1
    cf80:	eaffff3b 	b	cc74 <malloc>
    cf84:	e1a04001 	mov	r4, r1
    cf88:	ebffff76 	bl	cd68 <free>
    cf8c:	eaffffec 	b	cf44 <xrealloc+0x28>

0000cf90 <memmove>:
    cf90:	e1500001 	cmp	r0, r1
    cf94:	9a00000b 	bls	cfc8 <memmove+0x38>
    cf98:	e0813002 	add	r3, r1, r2
    cf9c:	e1530000 	cmp	r3, r0
    cfa0:	9a000008 	bls	cfc8 <memmove+0x38>
    cfa4:	e080c002 	add	ip, r0, r2
    cfa8:	e3520000 	cmp	r2, #0
    cfac:	012fff1e 	bxeq	lr
    cfb0:	e1a0200c 	mov	r2, ip
    cfb4:	e573c001 	ldrb	ip, [r3, #-1]!
    cfb8:	e1510003 	cmp	r1, r3
    cfbc:	e562c001 	strb	ip, [r2, #-1]!
    cfc0:	1afffffb 	bne	cfb4 <memmove+0x24>
    cfc4:	e12fff1e 	bx	lr
    cfc8:	e3520000 	cmp	r2, #0
    cfcc:	012fff1e 	bxeq	lr
    cfd0:	e081c002 	add	ip, r1, r2
    cfd4:	e2403001 	sub	r3, r0, #1
    cfd8:	e4d12001 	ldrb	r2, [r1], #1
    cfdc:	e15c0001 	cmp	ip, r1
    cfe0:	e5e32001 	strb	r2, [r3, #1]!
    cfe4:	1afffffb 	bne	cfd8 <memmove+0x48>
    cfe8:	e12fff1e 	bx	lr

0000cfec <wipememory>:
    cfec:	e3510000 	cmp	r1, #0
    cff0:	012fff1e 	bxeq	lr
    cff4:	e0801001 	add	r1, r0, r1
    cff8:	e3a02000 	mov	r2, #0
    cffc:	e1a03000 	mov	r3, r0
    d000:	e2800001 	add	r0, r0, #1
    d004:	e1500001 	cmp	r0, r1
    d008:	e5c32000 	strb	r2, [r3]
    d00c:	1afffffa 	bne	cffc <wipememory+0x10>
    d010:	e12fff1e 	bx	lr

0000d014 <strcpy>:
    d014:	e2400001 	sub	r0, r0, #1
    d018:	e4d13001 	ldrb	r3, [r1], #1
    d01c:	e5e03001 	strb	r3, [r0, #1]!
    d020:	e3530000 	cmp	r3, #0
    d024:	1afffffb 	bne	d018 <strcpy+0x4>
    d028:	e12fff1e 	bx	lr

0000d02c <xtrycalloc>:
    d02c:	e3500000 	cmp	r0, #0
    d030:	13510000 	cmpne	r1, #0
    d034:	e92d4070 	push	{r4, r5, r6, lr}
    d038:	e0050091 	mul	r5, r1, r0
    d03c:	0a000002 	beq	d04c <xtrycalloc+0x20>
    d040:	e730f015 	udiv	r0, r5, r0
    d044:	e1500001 	cmp	r0, r1
    d048:	1a000008 	bne	d070 <xtrycalloc+0x44>
    d04c:	e1a00005 	mov	r0, r5
    d050:	ebffff07 	bl	cc74 <malloc>
    d054:	e2504000 	subs	r4, r0, #0
    d058:	0a000002 	beq	d068 <xtrycalloc+0x3c>
    d05c:	e1a02005 	mov	r2, r5
    d060:	e3a01000 	mov	r1, #0
    d064:	ebffff6c 	bl	ce1c <memset>
    d068:	e1a00004 	mov	r0, r4
    d06c:	e8bd8070 	pop	{r4, r5, r6, pc}
    d070:	e3a04000 	mov	r4, #0
    d074:	e1a00004 	mov	r0, r4
    d078:	e8bd8070 	pop	{r4, r5, r6, pc}

0000d07c <strchr>:
    d07c:	e6ef1071 	uxtb	r1, r1
    d080:	e1a03000 	mov	r3, r0
    d084:	e5d32000 	ldrb	r2, [r3]
    d088:	e1a00003 	mov	r0, r3
    d08c:	e2833001 	add	r3, r3, #1
    d090:	e1520001 	cmp	r2, r1
    d094:	012fff1e 	bxeq	lr
    d098:	e3520000 	cmp	r2, #0
    d09c:	1afffff8 	bne	d084 <strchr+0x8>
    d0a0:	e1a00002 	mov	r0, r2
    d0a4:	e12fff1e 	bx	lr

0000d0a8 <strcmp>:
    d0a8:	e5d03000 	ldrb	r3, [r0]
    d0ac:	e3530000 	cmp	r3, #0
    d0b0:	05d12000 	ldrbeq	r2, [r1]
    d0b4:	1a000003 	bne	d0c8 <strcmp+0x20>
    d0b8:	ea000006 	b	d0d8 <strcmp+0x30>
    d0bc:	e5f03001 	ldrb	r3, [r0, #1]!
    d0c0:	e3530000 	cmp	r3, #0
    d0c4:	0a000005 	beq	d0e0 <strcmp+0x38>
    d0c8:	e1a0c001 	mov	ip, r1
    d0cc:	e4d12001 	ldrb	r2, [r1], #1
    d0d0:	e1520003 	cmp	r2, r3
    d0d4:	0afffff8 	beq	d0bc <strcmp+0x14>
    d0d8:	e0430002 	sub	r0, r3, r2
    d0dc:	e12fff1e 	bx	lr
    d0e0:	e5dc2001 	ldrb	r2, [ip, #1]
    d0e4:	e0430002 	sub	r0, r3, r2
    d0e8:	e12fff1e 	bx	lr

0000d0ec <open>:
    d0ec:	e92d000e 	push	{r1, r2, r3}
    d0f0:	e59f1040 	ldr	r1, [pc, #64]	; d138 <open+0x4c>
    d0f4:	e92d4030 	push	{r4, r5, lr}
    d0f8:	e1a04000 	mov	r4, r0
    d0fc:	e08f1001 	add	r1, pc, r1
    d100:	ebffffe8 	bl	d0a8 <strcmp>
    d104:	e3500000 	cmp	r0, #0
    d108:	03a00001 	moveq	r0, #1
    d10c:	0a000006 	beq	d12c <open+0x40>
    d110:	e59f1024 	ldr	r1, [pc, #36]	; d13c <open+0x50>
    d114:	e1a00004 	mov	r0, r4
    d118:	e08f1001 	add	r1, pc, r1
    d11c:	ebffffe1 	bl	d0a8 <strcmp>
    d120:	e2500000 	subs	r0, r0, #0
    d124:	13a00001 	movne	r0, #1
    d128:	e2600000 	rsb	r0, r0, #0
    d12c:	e8bd4030 	pop	{r4, r5, lr}
    d130:	e28dd00c 	add	sp, sp, #12
    d134:	e12fff1e 	bx	lr
    d138:	00006f88 	.word	0x00006f88
    d13c:	00006f74 	.word	0x00006f74

0000d140 <strdup>:
    d140:	e92d4070 	push	{r4, r5, r6, lr}
    d144:	e1a06000 	mov	r6, r0
    d148:	eb000cb8 	bl	10430 <strlen>
    d14c:	e2805001 	add	r5, r0, #1
    d150:	e1a00005 	mov	r0, r5
    d154:	ebfffec6 	bl	cc74 <malloc>
    d158:	e2504000 	subs	r4, r0, #0
    d15c:	0a000002 	beq	d16c <strdup+0x2c>
    d160:	e1a02005 	mov	r2, r5
    d164:	e1a01006 	mov	r1, r6
    d168:	ebffff62 	bl	cef8 <memcpy>
    d16c:	e1a00004 	mov	r0, r4
    d170:	e8bd8070 	pop	{r4, r5, r6, pc}

0000d174 <xstrdup>:
    d174:	e92d4010 	push	{r4, lr}
    d178:	ebfffff0 	bl	d140 <strdup>
    d17c:	e3500000 	cmp	r0, #0
    d180:	18bd8010 	popne	{r4, pc}
    d184:	eafffffe 	b	d184 <xstrdup+0x10>

0000d188 <parse.constprop.0>:
    d188:	e92d4ff0 	push	{r4, r5, r6, r7, r8, r9, sl, fp, lr}
    d18c:	e24dd09c 	sub	sp, sp, #156	; 0x9c
    d190:	e5904000 	ldr	r4, [r0]
    d194:	e2538000 	subs	r8, r3, #0
    d198:	e58d100c 	str	r1, [sp, #12]
    d19c:	e1a07002 	mov	r7, r2
    d1a0:	e59d20c0 	ldr	r2, [sp, #192]	; 0xc0
    d1a4:	e3a03000 	mov	r3, #0
    d1a8:	e1a06000 	mov	r6, r0
    d1ac:	e5823000 	str	r3, [r2]
    d1b0:	0a000007 	beq	d1d4 <parse.constprop.0+0x4c>
    d1b4:	e1a00004 	mov	r0, r4
    d1b8:	ebfff357 	bl	9f1c <iobuf_tell>
    d1bc:	e1a05000 	mov	r5, r0
    d1c0:	e59f0fd4 	ldr	r0, [pc, #4052]	; e19c <parse.constprop.0+0x1014>
    d1c4:	e1a01005 	mov	r1, r5
    d1c8:	e08f0000 	add	r0, pc, r0
    d1cc:	eb000732 	bl	ee9c <tfp_printf>
    d1d0:	e5885000 	str	r5, [r8]
    d1d4:	e5943010 	ldr	r3, [r4, #16]
    d1d8:	e3530000 	cmp	r3, #0
    d1dc:	1a000003 	bne	d1f0 <parse.constprop.0+0x68>
    d1e0:	e5943018 	ldr	r3, [r4, #24]
    d1e4:	e594201c 	ldr	r2, [r4, #28]
    d1e8:	e1530002 	cmp	r3, r2
    d1ec:	3a000036 	bcc	d2cc <parse.constprop.0+0x144>
    d1f0:	e1a00004 	mov	r0, r4
    d1f4:	ebffefcd 	bl	9130 <iobuf_readbyte>
    d1f8:	e3700001 	cmn	r0, #1
    d1fc:	16ef3070 	uxtbne	r3, r0
    d200:	0a00009e 	beq	d480 <parse.constprop.0+0x2f8>
    d204:	e5cd302c 	strb	r3, [sp, #44]	; 0x2c
    d208:	e3100080 	tst	r0, #128	; 0x80
    d20c:	0a000039 	beq	d2f8 <parse.constprop.0+0x170>
    d210:	e2103040 	ands	r3, r0, #64	; 0x40
    d214:	e58d3010 	str	r3, [sp, #16]
    d218:	1a00003f 	bne	d31c <parse.constprop.0+0x194>
    d21c:	e2003003 	and	r3, r0, #3
    d220:	e1a00140 	asr	r0, r0, #2
    d224:	e3530003 	cmp	r3, #3
    d228:	e200800f 	and	r8, r0, #15
    d22c:	0a0000c1 	beq	d538 <parse.constprop.0+0x3b0>
    d230:	e59d5010 	ldr	r5, [sp, #16]
    d234:	e3a0a001 	mov	sl, #1
    d238:	e28db02d 	add	fp, sp, #45	; 0x2d
    d23c:	e1a0331a 	lsl	r3, sl, r3
    d240:	e083900a 	add	r9, r3, sl
    d244:	ea00000a 	b	d274 <parse.constprop.0+0xec>
    d248:	e5842018 	str	r2, [r4, #24]
    d24c:	e5942008 	ldr	r2, [r4, #8]
    d250:	e5941020 	ldr	r1, [r4, #32]
    d254:	e2822001 	add	r2, r2, #1
    d258:	e5842008 	str	r2, [r4, #8]
    d25c:	e7d10003 	ldrb	r0, [r1, r3]
    d260:	e1805005 	orr	r5, r0, r5
    d264:	e28aa001 	add	sl, sl, #1
    d268:	e159000a 	cmp	r9, sl
    d26c:	e4cb0001 	strb	r0, [fp], #1
    d270:	0a00003e 	beq	d370 <parse.constprop.0+0x1e8>
    d274:	e5943010 	ldr	r3, [r4, #16]
    d278:	e1a00004 	mov	r0, r4
    d27c:	e1a05405 	lsl	r5, r5, #8
    d280:	e3530000 	cmp	r3, #0
    d284:	1a000004 	bne	d29c <parse.constprop.0+0x114>
    d288:	e5943018 	ldr	r3, [r4, #24]
    d28c:	e594201c 	ldr	r2, [r4, #28]
    d290:	e1530002 	cmp	r3, r2
    d294:	e2832001 	add	r2, r3, #1
    d298:	3affffea 	bcc	d248 <parse.constprop.0+0xc0>
    d29c:	ebffefa3 	bl	9130 <iobuf_readbyte>
    d2a0:	e3700001 	cmn	r0, #1
    d2a4:	e6ef0070 	uxtb	r0, r0
    d2a8:	1affffec 	bne	d260 <parse.constprop.0+0xd8>
    d2ac:	e59f1eec 	ldr	r1, [pc, #3820]	; e1a0 <parse.constprop.0+0x1018>
    d2b0:	e59f0eec 	ldr	r0, [pc, #3820]	; e1a4 <parse.constprop.0+0x101c>
    d2b4:	e08f1001 	add	r1, pc, r1
    d2b8:	e08f0000 	add	r0, pc, r0
    d2bc:	eb0006f6 	bl	ee9c <tfp_printf>
    d2c0:	e3a0000e 	mov	r0, #14
    d2c4:	e28dd09c 	add	sp, sp, #156	; 0x9c
    d2c8:	e8bd8ff0 	pop	{r4, r5, r6, r7, r8, r9, sl, fp, pc}
    d2cc:	e5942008 	ldr	r2, [r4, #8]
    d2d0:	e5941020 	ldr	r1, [r4, #32]
    d2d4:	e2822001 	add	r2, r2, #1
    d2d8:	e5842008 	str	r2, [r4, #8]
    d2dc:	e2832001 	add	r2, r3, #1
    d2e0:	e5842018 	str	r2, [r4, #24]
    d2e4:	e7d13003 	ldrb	r3, [r1, r3]
    d2e8:	e5cd302c 	strb	r3, [sp, #44]	; 0x2c
    d2ec:	e1a00003 	mov	r0, r3
    d2f0:	e3100080 	tst	r0, #128	; 0x80
    d2f4:	1affffc5 	bne	d210 <parse.constprop.0+0x88>
    d2f8:	e59f1ea8 	ldr	r1, [pc, #3752]	; e1a8 <parse.constprop.0+0x1020>
    d2fc:	e1a02000 	mov	r2, r0
    d300:	e59f0ea4 	ldr	r0, [pc, #3748]	; e1ac <parse.constprop.0+0x1024>
    d304:	e08f1001 	add	r1, pc, r1
    d308:	e08f0000 	add	r0, pc, r0
    d30c:	eb0006e2 	bl	ee9c <tfp_printf>
    d310:	e3a0000e 	mov	r0, #14
    d314:	e28dd09c 	add	sp, sp, #156	; 0x9c
    d318:	e8bd8ff0 	pop	{r4, r5, r6, r7, r8, r9, sl, fp, pc}
    d31c:	e5943010 	ldr	r3, [r4, #16]
    d320:	e200803f 	and	r8, r0, #63	; 0x3f
    d324:	e3530000 	cmp	r3, #0
    d328:	1a000003 	bne	d33c <parse.constprop.0+0x1b4>
    d32c:	e5943018 	ldr	r3, [r4, #24]
    d330:	e594201c 	ldr	r2, [r4, #28]
    d334:	e1530002 	cmp	r3, r2
    d338:	3a00006b 	bcc	d4ec <parse.constprop.0+0x364>
    d33c:	e1a00004 	mov	r0, r4
    d340:	ebffef7a 	bl	9130 <iobuf_readbyte>
    d344:	e3700001 	cmn	r0, #1
    d348:	16ef3070 	uxtbne	r3, r0
    d34c:	0a0000c0 	beq	d654 <parse.constprop.0+0x4cc>
    d350:	e5cd302d 	strb	r3, [sp, #45]	; 0x2d
    d354:	e35000bf 	cmp	r0, #191	; 0xbf
    d358:	d1a05000 	movle	r5, r0
    d35c:	d3a09002 	movle	r9, #2
    d360:	ca000049 	bgt	d48c <parse.constprop.0+0x304>
    d364:	e358003f 	cmp	r8, #63	; 0x3f
    d368:	03750001 	cmneq	r5, #1
    d36c:	0a00003e 	beq	d46c <parse.constprop.0+0x2e4>
    d370:	e59d30c4 	ldr	r3, [sp, #196]	; 0xc4
    d374:	e3530000 	cmp	r3, #0
    d378:	13580000 	cmpne	r8, #0
    d37c:	13a0a001 	movne	sl, #1
    d380:	03a0a000 	moveq	sl, #0
    d384:	1a000061 	bne	d510 <parse.constprop.0+0x388>
    d388:	e248b00d 	sub	fp, r8, #13
    d38c:	e16fbf1b 	clz	fp, fp
    d390:	e1a0b2ab 	lsr	fp, fp, #5
    d394:	e3570002 	cmp	r7, #2
    d398:	13a03000 	movne	r3, #0
    d39c:	020b3001 	andeq	r3, fp, #1
    d3a0:	e3530000 	cmp	r3, #0
    d3a4:	1a000093 	bne	d5f8 <parse.constprop.0+0x470>
    d3a8:	e59d30c8 	ldr	r3, [sp, #200]	; 0xc8
    d3ac:	e2033001 	and	r3, r3, #1
    d3b0:	e3580000 	cmp	r8, #0
    d3b4:	03833001 	orreq	r3, r3, #1
    d3b8:	e58d3014 	str	r3, [sp, #20]
    d3bc:	e3530000 	cmp	r3, #0
    d3c0:	1a000141 	bne	d8cc <parse.constprop.0+0x744>
    d3c4:	e3570000 	cmp	r7, #0
    d3c8:	1358000e 	cmpne	r8, #14
    d3cc:	0a000002 	beq	d3dc <parse.constprop.0+0x254>
    d3d0:	e2483005 	sub	r3, r8, #5
    d3d4:	e3530002 	cmp	r3, #2
    d3d8:	8a00013b 	bhi	d8cc <parse.constprop.0+0x744>
    d3dc:	e5963014 	ldr	r3, [r6, #20]
    d3e0:	e59f2dc8 	ldr	r2, [pc, #3528]	; e1b0 <parse.constprop.0+0x1028>
    d3e4:	e59f0dc8 	ldr	r0, [pc, #3528]	; e1b4 <parse.constprop.0+0x102c>
    d3e8:	e2833001 	add	r3, r3, #1
    d3ec:	e5863014 	str	r3, [r6, #20]
    d3f0:	e08f2002 	add	r2, pc, r2
    d3f4:	e59d300c 	ldr	r3, [sp, #12]
    d3f8:	e7921108 	ldr	r1, [r2, r8, lsl #2]
    d3fc:	e1a02008 	mov	r2, r8
    d400:	e5c38000 	strb	r8, [r3]
    d404:	e08f0000 	add	r0, pc, r0
    d408:	eb0006a3 	bl	ee9c <tfp_printf>
    d40c:	e59d3010 	ldr	r3, [sp, #16]
    d410:	e2482003 	sub	r2, r8, #3
    d414:	e2533000 	subs	r3, r3, #0
    d418:	13a03001 	movne	r3, #1
    d41c:	e3520010 	cmp	r2, #16
    d420:	908ff102 	addls	pc, pc, r2, lsl #2
    d424:	ea00007e 	b	d624 <parse.constprop.0+0x49c>
    d428:	ea000137 	b	d90c <parse.constprop.0+0x784>
    d42c:	ea00007c 	b	d624 <parse.constprop.0+0x49c>
    d430:	ea00007b 	b	d624 <parse.constprop.0+0x49c>
    d434:	ea00007a 	b	d624 <parse.constprop.0+0x49c>
    d438:	ea000079 	b	d624 <parse.constprop.0+0x49c>
    d43c:	ea000078 	b	d624 <parse.constprop.0+0x49c>
    d440:	ea000090 	b	d688 <parse.constprop.0+0x500>
    d444:	ea000201 	b	dc50 <parse.constprop.0+0xac8>
    d448:	ea0001aa 	b	daf8 <parse.constprop.0+0x970>
    d44c:	ea000074 	b	d624 <parse.constprop.0+0x49c>
    d450:	ea000073 	b	d624 <parse.constprop.0+0x49c>
    d454:	ea000072 	b	d624 <parse.constprop.0+0x49c>
    d458:	ea000071 	b	d624 <parse.constprop.0+0x49c>
    d45c:	ea000070 	b	d624 <parse.constprop.0+0x49c>
    d460:	ea00006f 	b	d624 <parse.constprop.0+0x49c>
    d464:	ea000087 	b	d688 <parse.constprop.0+0x500>
    d468:	ea00017f 	b	da6c <parse.constprop.0+0x8e4>
    d46c:	e59f1d44 	ldr	r1, [pc, #3396]	; e1b8 <parse.constprop.0+0x1030>
    d470:	e59f0d44 	ldr	r0, [pc, #3396]	; e1bc <parse.constprop.0+0x1034>
    d474:	e08f1001 	add	r1, pc, r1
    d478:	e08f0000 	add	r0, pc, r0
    d47c:	eb000686 	bl	ee9c <tfp_printf>
    d480:	e3e00000 	mvn	r0, #0
    d484:	e28dd09c 	add	sp, sp, #156	; 0x9c
    d488:	e8bd8ff0 	pop	{r4, r5, r6, r7, r8, r9, sl, fp, pc}
    d48c:	e35000df 	cmp	r0, #223	; 0xdf
    d490:	ca000035 	bgt	d56c <parse.constprop.0+0x3e4>
    d494:	e5943010 	ldr	r3, [r4, #16]
    d498:	e24050c0 	sub	r5, r0, #192	; 0xc0
    d49c:	e1a05405 	lsl	r5, r5, #8
    d4a0:	e3530000 	cmp	r3, #0
    d4a4:	1a0000f4 	bne	d87c <parse.constprop.0+0x6f4>
    d4a8:	e5943018 	ldr	r3, [r4, #24]
    d4ac:	e594201c 	ldr	r2, [r4, #28]
    d4b0:	e1530002 	cmp	r3, r2
    d4b4:	2a0000f0 	bcs	d87c <parse.constprop.0+0x6f4>
    d4b8:	e5942008 	ldr	r2, [r4, #8]
    d4bc:	e5941020 	ldr	r1, [r4, #32]
    d4c0:	e2822001 	add	r2, r2, #1
    d4c4:	e5842008 	str	r2, [r4, #8]
    d4c8:	e2832001 	add	r2, r3, #1
    d4cc:	e5842018 	str	r2, [r4, #24]
    d4d0:	e7d13003 	ldrb	r3, [r1, r3]
    d4d4:	e1a00003 	mov	r0, r3
    d4d8:	e5cd302e 	strb	r3, [sp, #46]	; 0x2e
    d4dc:	e28550c0 	add	r5, r5, #192	; 0xc0
    d4e0:	e0805005 	add	r5, r0, r5
    d4e4:	e3a09003 	mov	r9, #3
    d4e8:	eaffff9d 	b	d364 <parse.constprop.0+0x1dc>
    d4ec:	e5942008 	ldr	r2, [r4, #8]
    d4f0:	e5941020 	ldr	r1, [r4, #32]
    d4f4:	e2822001 	add	r2, r2, #1
    d4f8:	e5842008 	str	r2, [r4, #8]
    d4fc:	e2832001 	add	r2, r3, #1
    d500:	e5842018 	str	r2, [r4, #24]
    d504:	e7d13003 	ldrb	r3, [r1, r3]
    d508:	e1a00003 	mov	r0, r3
    d50c:	eaffff8f 	b	d350 <parse.constprop.0+0x1c8>
    d510:	e59d00c4 	ldr	r0, [sp, #196]	; 0xc4
    d514:	e1a02009 	mov	r2, r9
    d518:	e28d102c 	add	r1, sp, #44	; 0x2c
    d51c:	ebfff03b 	bl	9610 <iobuf_write>
    d520:	e3500000 	cmp	r0, #0
    d524:	0a000222 	beq	ddb4 <parse.constprop.0+0xc2c>
    d528:	e3700001 	cmn	r0, #1
    d52c:	0affffd3 	beq	d480 <parse.constprop.0+0x2f8>
    d530:	e6ff0070 	uxth	r0, r0
    d534:	eaffffd2 	b	d484 <parse.constprop.0+0x2fc>
    d538:	e200000d 	and	r0, r0, #13
    d53c:	e3500009 	cmp	r0, #9
    d540:	0a00001c 	beq	d5b8 <parse.constprop.0+0x430>
    d544:	e3580008 	cmp	r8, #8
    d548:	1a0000e7 	bne	d8ec <parse.constprop.0+0x764>
    d54c:	e59d30c4 	ldr	r3, [sp, #196]	; 0xc4
    d550:	e3530000 	cmp	r3, #0
    d554:	1a000021 	bne	d5e0 <parse.constprop.0+0x458>
    d558:	e59db010 	ldr	fp, [sp, #16]
    d55c:	e3a0a001 	mov	sl, #1
    d560:	e1a0900a 	mov	r9, sl
    d564:	e1a0500b 	mov	r5, fp
    d568:	eaffff8e 	b	d3a8 <parse.constprop.0+0x220>
    d56c:	e35000ff 	cmp	r0, #255	; 0xff
    d570:	0a0000a7 	beq	d814 <parse.constprop.0+0x68c>
    d574:	e2483008 	sub	r3, r8, #8
    d578:	e353000c 	cmp	r3, #12
    d57c:	908ff103 	addls	pc, pc, r3, lsl #2
    d580:	ea0000c9 	b	d8ac <parse.constprop.0+0x724>
    d584:	ea000039 	b	d670 <parse.constprop.0+0x4e8>
    d588:	ea000038 	b	d670 <parse.constprop.0+0x4e8>
    d58c:	ea0000c6 	b	d8ac <parse.constprop.0+0x724>
    d590:	ea000036 	b	d670 <parse.constprop.0+0x4e8>
    d594:	ea0000c4 	b	d8ac <parse.constprop.0+0x724>
    d598:	ea0000c3 	b	d8ac <parse.constprop.0+0x724>
    d59c:	ea0000c2 	b	d8ac <parse.constprop.0+0x724>
    d5a0:	ea0000c1 	b	d8ac <parse.constprop.0+0x724>
    d5a4:	ea0000c0 	b	d8ac <parse.constprop.0+0x724>
    d5a8:	ea0000bf 	b	d8ac <parse.constprop.0+0x724>
    d5ac:	ea00002f 	b	d670 <parse.constprop.0+0x4e8>
    d5b0:	ea0000bd 	b	d8ac <parse.constprop.0+0x724>
    d5b4:	ea00002d 	b	d670 <parse.constprop.0+0x4e8>
    d5b8:	e2585000 	subs	r5, r8, #0
    d5bc:	e3a09001 	mov	r9, #1
    d5c0:	13a05001 	movne	r5, #1
    d5c4:	e59d30c4 	ldr	r3, [sp, #196]	; 0xc4
    d5c8:	e3530000 	cmp	r3, #0
    d5cc:	03a05000 	moveq	r5, #0
    d5d0:	12055001 	andne	r5, r5, #1
    d5d4:	e3550000 	cmp	r5, #0
    d5d8:	03a0a001 	moveq	sl, #1
    d5dc:	0affff69 	beq	d388 <parse.constprop.0+0x200>
    d5e0:	e59f0bd8 	ldr	r0, [pc, #3032]	; e1c0 <parse.constprop.0+0x1038>
    d5e4:	e08f0000 	add	r0, pc, r0
    d5e8:	eb00062b 	bl	ee9c <tfp_printf>
    d5ec:	e3a0000e 	mov	r0, #14
    d5f0:	e28dd09c 	add	sp, sp, #156	; 0x9c
    d5f4:	e8bd8ff0 	pop	{r4, r5, r6, r7, r8, r9, sl, fp, pc}
    d5f8:	e5963014 	ldr	r3, [r6, #20]
    d5fc:	e3a0200d 	mov	r2, #13
    d600:	e59f1bbc 	ldr	r1, [pc, #3004]	; e1c4 <parse.constprop.0+0x103c>
    d604:	e59f0bbc 	ldr	r0, [pc, #3004]	; e1c8 <parse.constprop.0+0x1040>
    d608:	e2833001 	add	r3, r3, #1
    d60c:	e5863014 	str	r3, [r6, #20]
    d610:	e59d300c 	ldr	r3, [sp, #12]
    d614:	e08f1001 	add	r1, pc, r1
    d618:	e08f0000 	add	r0, pc, r0
    d61c:	e5c32000 	strb	r2, [r3]
    d620:	eb00061d 	bl	ee9c <tfp_printf>
    d624:	e3a00000 	mov	r0, #0
    d628:	e1a01006 	mov	r1, r6
    d62c:	ebfff4d0 	bl	a974 <free_packet>
    d630:	e59f0b94 	ldr	r0, [pc, #2964]	; e1cc <parse.constprop.0+0x1044>
    d634:	e1a01009 	mov	r1, r9
    d638:	e08f0000 	add	r0, pc, r0
    d63c:	eb000616 	bl	ee9c <tfp_printf>
    d640:	e1a01009 	mov	r1, r9
    d644:	e28d002c 	add	r0, sp, #44	; 0x2c
    d648:	ebfff2aa 	bl	a0f8 <log_hexdump>
    d64c:	e3a00002 	mov	r0, #2
    d650:	eaffff8b 	b	d484 <parse.constprop.0+0x2fc>
    d654:	e59f1b74 	ldr	r1, [pc, #2932]	; e1d0 <parse.constprop.0+0x1048>
    d658:	e59f0b74 	ldr	r0, [pc, #2932]	; e1d4 <parse.constprop.0+0x104c>
    d65c:	e08f1001 	add	r1, pc, r1
    d660:	e08f0000 	add	r0, pc, r0
    d664:	eb00060c 	bl	ee9c <tfp_printf>
    d668:	e3a0000e 	mov	r0, #14
    d66c:	eaffff84 	b	d484 <parse.constprop.0+0x2fc>
    d670:	e6ef1070 	uxtb	r1, r0
    d674:	e1a00004 	mov	r0, r4
    d678:	e3a09002 	mov	r9, #2
    d67c:	e3a05001 	mov	r5, #1
    d680:	ebfff229 	bl	9f2c <iobuf_set_partial_body_length_mode>
    d684:	eaffffce 	b	d5c4 <parse.constprop.0+0x43c>
    d688:	e59f0b48 	ldr	r0, [pc, #2888]	; e1d8 <parse.constprop.0+0x1050>
    d68c:	e58d3010 	str	r3, [sp, #16]
    d690:	e08f0000 	add	r0, pc, r0
    d694:	eb000600 	bl	ee9c <tfp_printf>
    d698:	e59f0b3c 	ldr	r0, [pc, #2876]	; e1dc <parse.constprop.0+0x1054>
    d69c:	e1a01005 	mov	r1, r5
    d6a0:	e08f0000 	add	r0, pc, r0
    d6a4:	eb0005fc 	bl	ee9c <tfp_printf>
    d6a8:	e59f0b30 	ldr	r0, [pc, #2864]	; e1e0 <parse.constprop.0+0x1058>
    d6ac:	e08f0000 	add	r0, pc, r0
    d6b0:	eb0005f9 	bl	ee9c <tfp_printf>
    d6b4:	e59f0b28 	ldr	r0, [pc, #2856]	; e1e4 <parse.constprop.0+0x105c>
    d6b8:	e1a01004 	mov	r1, r4
    d6bc:	e08f0000 	add	r0, pc, r0
    d6c0:	eb0005f5 	bl	ee9c <tfp_printf>
    d6c4:	e59f0b1c 	ldr	r0, [pc, #2844]	; e1e8 <parse.constprop.0+0x1060>
    d6c8:	e2482012 	sub	r2, r8, #18
    d6cc:	e16f2f12 	clz	r2, r2
    d6d0:	e1a01008 	mov	r1, r8
    d6d4:	e08f0000 	add	r0, pc, r0
    d6d8:	e1a022a2 	lsr	r2, r2, #5
    d6dc:	eb0005ee 	bl	ee9c <tfp_printf>
    d6e0:	e59f0b04 	ldr	r0, [pc, #2820]	; e1ec <parse.constprop.0+0x1064>
    d6e4:	e1a0100a 	mov	r1, sl
    d6e8:	e08f0000 	add	r0, pc, r0
    d6ec:	eb0005ea 	bl	ee9c <tfp_printf>
    d6f0:	e59f0af8 	ldr	r0, [pc, #2808]	; e1f0 <parse.constprop.0+0x1068>
    d6f4:	e5d41000 	ldrb	r1, [r4]
    d6f8:	e08f0000 	add	r0, pc, r0
    d6fc:	eb0005e6 	bl	ee9c <tfp_printf>
    d700:	e3a00014 	mov	r0, #20
    d704:	ebfffdcd 	bl	ce40 <xmalloc>
    d708:	e59d300c 	ldr	r3, [sp, #12]
    d70c:	e3580012 	cmp	r8, #18
    d710:	e1a07000 	mov	r7, r0
    d714:	e5830004 	str	r0, [r3, #4]
    d718:	e59d3010 	ldr	r3, [sp, #16]
    d71c:	e5c0a009 	strb	sl, [r0, #9]
    d720:	e5c03008 	strb	r3, [r0, #8]
    d724:	e3a03000 	mov	r3, #0
    d728:	e5803004 	str	r3, [r0, #4]
    d72c:	e5803010 	str	r3, [r0, #16]
    d730:	e5c0300b 	strb	r3, [r0, #11]
    d734:	e1c030bc 	strh	r3, [r0, #12]
    d738:	15c0300a 	strbne	r3, [r0, #10]
    d73c:	11a03005 	movne	r3, r5
    d740:	0a0002d0 	beq	e288 <parse.constprop.0+0x1100>
    d744:	e2555000 	subs	r5, r5, #0
    d748:	13a05001 	movne	r5, #1
    d74c:	e3530009 	cmp	r3, #9
    d750:	83a05000 	movhi	r5, #0
    d754:	e3550000 	cmp	r5, #0
    d758:	1a000311 	bne	e3a4 <parse.constprop.0+0x121c>
    d75c:	e59f5a90 	ldr	r5, [pc, #2704]	; e1f4 <parse.constprop.0+0x106c>
    d760:	e1a01003 	mov	r1, r3
    d764:	e5873000 	str	r3, [r7]
    d768:	e08f5005 	add	r5, pc, r5
    d76c:	e1a00005 	mov	r0, r5
    d770:	eb0005c9 	bl	ee9c <tfp_printf>
    d774:	e5971000 	ldr	r1, [r7]
    d778:	e3510000 	cmp	r1, #0
    d77c:	1a0002ff 	bne	e380 <parse.constprop.0+0x11f8>
    d780:	e59f0a70 	ldr	r0, [pc, #2672]	; e1f8 <parse.constprop.0+0x1070>
    d784:	e1a01007 	mov	r1, r7
    d788:	e08f0000 	add	r0, pc, r0
    d78c:	eb0005c2 	bl	ee9c <tfp_printf>
    d790:	e59f0a64 	ldr	r0, [pc, #2660]	; e1fc <parse.constprop.0+0x1074>
    d794:	e1a01004 	mov	r1, r4
    d798:	e08f0000 	add	r0, pc, r0
    d79c:	eb0005be 	bl	ee9c <tfp_printf>
    d7a0:	e59f0a58 	ldr	r0, [pc, #2648]	; e200 <parse.constprop.0+0x1078>
    d7a4:	e3a01000 	mov	r1, #0
    d7a8:	e5874010 	str	r4, [r7, #16]
    d7ac:	e08f0000 	add	r0, pc, r0
    d7b0:	eb0005b9 	bl	ee9c <tfp_printf>
    d7b4:	e1a01006 	mov	r1, r6
    d7b8:	e3a00000 	mov	r0, #0
    d7bc:	ebfff46c 	bl	a974 <free_packet>
    d7c0:	e2483005 	sub	r3, r8, #5
    d7c4:	e3530001 	cmp	r3, #1
    d7c8:	938bb001 	orrls	fp, fp, #1
    d7cc:	e35b0000 	cmp	fp, #0
    d7d0:	0a000154 	beq	dd28 <parse.constprop.0+0xba0>
    d7d4:	e59d300c 	ldr	r3, [sp, #12]
    d7d8:	e8930003 	ldm	r3, {r0, r1}
    d7dc:	e9860003 	stmib	r6, {r0, r1}
    d7e0:	e59f0a1c 	ldr	r0, [pc, #2588]	; e204 <parse.constprop.0+0x107c>
    d7e4:	e1a01009 	mov	r1, r9
    d7e8:	e08f0000 	add	r0, pc, r0
    d7ec:	eb0005aa 	bl	ee9c <tfp_printf>
    d7f0:	e1a01009 	mov	r1, r9
    d7f4:	e28d002c 	add	r0, sp, #44	; 0x2c
    d7f8:	ebfff23e 	bl	a0f8 <log_hexdump>
    d7fc:	e5943028 	ldr	r3, [r4, #40]	; 0x28
    d800:	e3530000 	cmp	r3, #0
    d804:	03a00000 	moveq	r0, #0
    d808:	13a00022 	movne	r0, #34	; 0x22
    d80c:	e28dd09c 	add	sp, sp, #156	; 0x9c
    d810:	e8bd8ff0 	pop	{r4, r5, r6, r7, r8, r9, sl, fp, pc}
    d814:	e28da02e 	add	sl, sp, #46	; 0x2e
    d818:	e28d5034 	add	r5, sp, #52	; 0x34
    d81c:	e3a09002 	mov	r9, #2
    d820:	e5943010 	ldr	r3, [r4, #16]
    d824:	e1a00004 	mov	r0, r4
    d828:	e3530000 	cmp	r3, #0
    d82c:	1a000155 	bne	dd88 <parse.constprop.0+0xc00>
    d830:	e5943018 	ldr	r3, [r4, #24]
    d834:	e594201c 	ldr	r2, [r4, #28]
    d838:	e1530002 	cmp	r3, r2
    d83c:	e2832001 	add	r2, r3, #1
    d840:	2a000150 	bcs	dd88 <parse.constprop.0+0xc00>
    d844:	e5842018 	str	r2, [r4, #24]
    d848:	e5942008 	ldr	r2, [r4, #8]
    d84c:	e5941020 	ldr	r1, [r4, #32]
    d850:	e2822001 	add	r2, r2, #1
    d854:	e5842008 	str	r2, [r4, #8]
    d858:	e7d13003 	ldrb	r3, [r1, r3]
    d85c:	e4ca3001 	strb	r3, [sl], #1
    d860:	e2899001 	add	r9, r9, #1
    d864:	e4c53001 	strb	r3, [r5], #1
    d868:	e3590006 	cmp	r9, #6
    d86c:	1affffeb 	bne	d820 <parse.constprop.0+0x698>
    d870:	e59d5034 	ldr	r5, [sp, #52]	; 0x34
    d874:	e6bf5f35 	rev	r5, r5
    d878:	eafffeb9 	b	d364 <parse.constprop.0+0x1dc>
    d87c:	e1a00004 	mov	r0, r4
    d880:	ebffee2a 	bl	9130 <iobuf_readbyte>
    d884:	e3700001 	cmn	r0, #1
    d888:	16ef3070 	uxtbne	r3, r0
    d88c:	1affff11 	bne	d4d8 <parse.constprop.0+0x350>
    d890:	e59f1970 	ldr	r1, [pc, #2416]	; e208 <parse.constprop.0+0x1080>
    d894:	e59f0970 	ldr	r0, [pc, #2416]	; e20c <parse.constprop.0+0x1084>
    d898:	e08f1001 	add	r1, pc, r1
    d89c:	e08f0000 	add	r0, pc, r0
    d8a0:	eb00057d 	bl	ee9c <tfp_printf>
    d8a4:	e3a0000e 	mov	r0, #14
    d8a8:	eafffef5 	b	d484 <parse.constprop.0+0x2fc>
    d8ac:	e59f195c 	ldr	r1, [pc, #2396]	; e210 <parse.constprop.0+0x1088>
    d8b0:	e1a02008 	mov	r2, r8
    d8b4:	e59f0958 	ldr	r0, [pc, #2392]	; e214 <parse.constprop.0+0x108c>
    d8b8:	e08f1001 	add	r1, pc, r1
    d8bc:	e08f0000 	add	r0, pc, r0
    d8c0:	eb000575 	bl	ee9c <tfp_printf>
    d8c4:	e3a0000e 	mov	r0, #14
    d8c8:	eafffeed 	b	d484 <parse.constprop.0+0x2fc>
    d8cc:	e1a0200a 	mov	r2, sl
    d8d0:	e1a01005 	mov	r1, r5
    d8d4:	e1a00004 	mov	r0, r4
    d8d8:	ebfff1cc 	bl	a010 <iobuf_skip_rest>
    d8dc:	e59d20c0 	ldr	r2, [sp, #192]	; 0xc0
    d8e0:	e3a03001 	mov	r3, #1
    d8e4:	e5823000 	str	r3, [r2]
    d8e8:	eaffffc3 	b	d7fc <parse.constprop.0+0x674>
    d8ec:	e59f1924 	ldr	r1, [pc, #2340]	; e218 <parse.constprop.0+0x1090>
    d8f0:	e1a02008 	mov	r2, r8
    d8f4:	e59f0920 	ldr	r0, [pc, #2336]	; e21c <parse.constprop.0+0x1094>
    d8f8:	e08f1001 	add	r1, pc, r1
    d8fc:	e08f0000 	add	r0, pc, r0
    d900:	eb000565 	bl	ee9c <tfp_printf>
    d904:	e3a0000e 	mov	r0, #14
    d908:	eafffedd 	b	d484 <parse.constprop.0+0x2fc>
    d90c:	e3550003 	cmp	r5, #3
    d910:	9a000283 	bls	e324 <parse.constprop.0+0x119c>
    d914:	e5943010 	ldr	r3, [r4, #16]
    d918:	e3530000 	cmp	r3, #0
    d91c:	1a0001b0 	bne	dfe4 <parse.constprop.0+0xe5c>
    d920:	e5943018 	ldr	r3, [r4, #24]
    d924:	e594201c 	ldr	r2, [r4, #28]
    d928:	e1530002 	cmp	r3, r2
    d92c:	2a0001ac 	bcs	dfe4 <parse.constprop.0+0xe5c>
    d930:	e5942008 	ldr	r2, [r4, #8]
    d934:	e5941020 	ldr	r1, [r4, #32]
    d938:	e2822001 	add	r2, r2, #1
    d93c:	e5842008 	str	r2, [r4, #8]
    d940:	e2832001 	add	r2, r3, #1
    d944:	e5842018 	str	r2, [r4, #24]
    d948:	e7d1b003 	ldrb	fp, [r1, r3]
    d94c:	e24b3004 	sub	r3, fp, #4
    d950:	e2457001 	sub	r7, r5, #1
    d954:	e3530001 	cmp	r3, #1
    d958:	8a000393 	bhi	e7ac <parse.constprop.0+0x1624>
    d95c:	e35700c8 	cmp	r7, #200	; 0xc8
    d960:	8a00039d 	bhi	e7dc <parse.constprop.0+0x1654>
    d964:	e594a010 	ldr	sl, [r4, #16]
    d968:	e35a0000 	cmp	sl, #0
    d96c:	1a0001e6 	bne	e10c <parse.constprop.0+0xf84>
    d970:	e594201c 	ldr	r2, [r4, #28]
    d974:	e5941018 	ldr	r1, [r4, #24]
    d978:	e1a03002 	mov	r3, r2
    d97c:	e1510002 	cmp	r1, r2
    d980:	2a0001e1 	bcs	e10c <parse.constprop.0+0xf84>
    d984:	e5940008 	ldr	r0, [r4, #8]
    d988:	e35b0005 	cmp	fp, #5
    d98c:	e594c020 	ldr	ip, [r4, #32]
    d990:	12458002 	subne	r8, r5, #2
    d994:	e2800001 	add	r0, r0, #1
    d998:	e5840008 	str	r0, [r4, #8]
    d99c:	e2810001 	add	r0, r1, #1
    d9a0:	e5840018 	str	r0, [r4, #24]
    d9a4:	e7dc1001 	ldrb	r1, [ip, r1]
    d9a8:	e58d1010 	str	r1, [sp, #16]
    d9ac:	0a000359 	beq	e718 <parse.constprop.0+0x1590>
    d9b0:	e5941018 	ldr	r1, [r4, #24]
    d9b4:	e1a03002 	mov	r3, r2
    d9b8:	e1510003 	cmp	r1, r3
    d9bc:	2a0001de 	bcs	e13c <parse.constprop.0+0xfb4>
    d9c0:	e5942008 	ldr	r2, [r4, #8]
    d9c4:	e5940020 	ldr	r0, [r4, #32]
    d9c8:	e2822001 	add	r2, r2, #1
    d9cc:	e5842008 	str	r2, [r4, #8]
    d9d0:	e2812001 	add	r2, r1, #1
    d9d4:	e5842018 	str	r2, [r4, #24]
    d9d8:	e7d07001 	ldrb	r7, [r0, r1]
    d9dc:	e1530002 	cmp	r3, r2
    d9e0:	9a0001dc 	bls	e158 <parse.constprop.0+0xfd0>
    d9e4:	e5943008 	ldr	r3, [r4, #8]
    d9e8:	e5941020 	ldr	r1, [r4, #32]
    d9ec:	e2833001 	add	r3, r3, #1
    d9f0:	e5843008 	str	r3, [r4, #8]
    d9f4:	e2823001 	add	r3, r2, #1
    d9f8:	e5843018 	str	r3, [r4, #24]
    d9fc:	e7d13002 	ldrb	r3, [r1, r2]
    da00:	e58d3018 	str	r3, [sp, #24]
    da04:	e3570001 	cmp	r7, #1
    da08:	e2485002 	sub	r5, r8, #2
    da0c:	0a00034e 	beq	e74c <parse.constprop.0+0x15c4>
    da10:	e3570003 	cmp	r7, #3
    da14:	0a000273 	beq	e3e8 <parse.constprop.0+0x1260>
    da18:	e3570000 	cmp	r7, #0
    da1c:	0a0002b0 	beq	e4e4 <parse.constprop.0+0x135c>
    da20:	e59f07f8 	ldr	r0, [pc, #2040]	; e220 <parse.constprop.0+0x1098>
    da24:	e1a01007 	mov	r1, r7
    da28:	e08f0000 	add	r0, pc, r0
    da2c:	eb00051a 	bl	ee9c <tfp_printf>
    da30:	e1a01005 	mov	r1, r5
    da34:	e1a00004 	mov	r0, r4
    da38:	e3a02000 	mov	r2, #0
    da3c:	ebfff173 	bl	a010 <iobuf_skip_rest>
    da40:	e1a01006 	mov	r1, r6
    da44:	e3a00000 	mov	r0, #0
    da48:	ebfff3c9 	bl	a974 <free_packet>
    da4c:	e59f07d0 	ldr	r0, [pc, #2000]	; e224 <parse.constprop.0+0x109c>
    da50:	e1a01009 	mov	r1, r9
    da54:	e08f0000 	add	r0, pc, r0
    da58:	eb00050f 	bl	ee9c <tfp_printf>
    da5c:	e1a01009 	mov	r1, r9
    da60:	e28d002c 	add	r0, sp, #44	; 0x2c
    da64:	ebfff1a3 	bl	a0f8 <log_hexdump>
    da68:	eaffff63 	b	d7fc <parse.constprop.0+0x674>
    da6c:	e3a00014 	mov	r0, #20
    da70:	ebfffcf2 	bl	ce40 <xmalloc>
    da74:	e2555014 	subs	r5, r5, #20
    da78:	e59d3010 	ldr	r3, [sp, #16]
    da7c:	13a05001 	movne	r5, #1
    da80:	e3530000 	cmp	r3, #0
    da84:	03855001 	orreq	r5, r5, #1
    da88:	e59d300c 	ldr	r3, [sp, #12]
    da8c:	e3550000 	cmp	r5, #0
    da90:	02807014 	addeq	r7, r0, #20
    da94:	e1a05000 	mov	r5, r0
    da98:	e5830004 	str	r0, [r3, #4]
    da9c:	0a000009 	beq	dac8 <parse.constprop.0+0x940>
    daa0:	ea00032b 	b	e754 <parse.constprop.0+0x15cc>
    daa4:	e5842018 	str	r2, [r4, #24]
    daa8:	e5942008 	ldr	r2, [r4, #8]
    daac:	e5941020 	ldr	r1, [r4, #32]
    dab0:	e2822001 	add	r2, r2, #1
    dab4:	e5842008 	str	r2, [r4, #8]
    dab8:	e7d10003 	ldrb	r0, [r1, r3]
    dabc:	e4c50001 	strb	r0, [r5], #1
    dac0:	e1570005 	cmp	r7, r5
    dac4:	0a000094 	beq	dd1c <parse.constprop.0+0xb94>
    dac8:	e5943010 	ldr	r3, [r4, #16]
    dacc:	e1a00004 	mov	r0, r4
    dad0:	e3530000 	cmp	r3, #0
    dad4:	1a000004 	bne	daec <parse.constprop.0+0x964>
    dad8:	e5943018 	ldr	r3, [r4, #24]
    dadc:	e594201c 	ldr	r2, [r4, #28]
    dae0:	e1530002 	cmp	r3, r2
    dae4:	e2832001 	add	r2, r3, #1
    dae8:	3affffed 	bcc	daa4 <parse.constprop.0+0x91c>
    daec:	ebffed8f 	bl	9130 <iobuf_readbyte>
    daf0:	e6ef0070 	uxtb	r0, r0
    daf4:	eafffff0 	b	dabc <parse.constprop.0+0x934>
    daf8:	e22a2001 	eor	r2, sl, #1
    dafc:	e3550005 	cmp	r5, #5
    db00:	83a02000 	movhi	r2, #0
    db04:	92022001 	andls	r2, r2, #1
    db08:	e3520000 	cmp	r2, #0
    db0c:	1a00031a 	bne	e77c <parse.constprop.0+0x15f4>
    db10:	e5942010 	ldr	r2, [r4, #16]
    db14:	e3520000 	cmp	r2, #0
    db18:	1a000102 	bne	df28 <parse.constprop.0+0xda0>
    db1c:	e5940018 	ldr	r0, [r4, #24]
    db20:	e594201c 	ldr	r2, [r4, #28]
    db24:	e1500002 	cmp	r0, r2
    db28:	2a0000fe 	bcs	df28 <parse.constprop.0+0xda0>
    db2c:	e5941008 	ldr	r1, [r4, #8]
    db30:	e3550000 	cmp	r5, #0
    db34:	e594c020 	ldr	ip, [r4, #32]
    db38:	12455001 	subne	r5, r5, #1
    db3c:	e2811001 	add	r1, r1, #1
    db40:	e5841008 	str	r1, [r4, #8]
    db44:	e2801001 	add	r1, r0, #1
    db48:	e5841018 	str	r1, [r4, #24]
    db4c:	e7dc8000 	ldrb	r8, [ip, r0]
    db50:	0a000000 	beq	db58 <parse.constprop.0+0x9d0>
    db54:	e5941018 	ldr	r1, [r4, #24]
    db58:	e1510002 	cmp	r1, r2
    db5c:	2a0000fb 	bcs	df50 <parse.constprop.0+0xdc8>
    db60:	e5942008 	ldr	r2, [r4, #8]
    db64:	e5940020 	ldr	r0, [r4, #32]
    db68:	e2822001 	add	r2, r2, #1
    db6c:	e5842008 	str	r2, [r4, #8]
    db70:	e2812001 	add	r2, r1, #1
    db74:	e5842018 	str	r2, [r4, #24]
    db78:	e7d07001 	ldrb	r7, [r0, r1]
    db7c:	e58d3010 	str	r3, [sp, #16]
    db80:	e3550000 	cmp	r5, #0
    db84:	0a00011a 	beq	dff4 <parse.constprop.0+0xe6c>
    db88:	e287001b 	add	r0, r7, #27
    db8c:	e2455001 	sub	r5, r5, #1
    db90:	ebfffcaa 	bl	ce40 <xmalloc>
    db94:	e59d300c 	ldr	r3, [sp, #12]
    db98:	e3550000 	cmp	r5, #0
    db9c:	e1a0b000 	mov	fp, r0
    dba0:	e5830004 	str	r0, [r3, #4]
    dba4:	e59d3010 	ldr	r3, [sp, #16]
    dba8:	e580800c 	str	r8, [r0, #12]
    dbac:	e5c03008 	strb	r3, [r0, #8]
    dbb0:	e5c0a009 	strb	sl, [r0, #9]
    dbb4:	e5807014 	str	r7, [r0, #20]
    dbb8:	0a000117 	beq	e01c <parse.constprop.0+0xe94>
    dbbc:	e3570000 	cmp	r7, #0
    dbc0:	13550004 	cmpne	r5, #4
    dbc4:	e5942010 	ldr	r2, [r4, #16]
    dbc8:	83a03001 	movhi	r3, #1
    dbcc:	93a03000 	movls	r3, #0
    dbd0:	9a000312 	bls	e820 <parse.constprop.0+0x1698>
    dbd4:	e2808017 	add	r8, r0, #23
    dbd8:	e3a0a000 	mov	sl, #0
    dbdc:	ea00000f 	b	dc20 <parse.constprop.0+0xa98>
    dbe0:	e5841018 	str	r1, [r4, #24]
    dbe4:	e5941008 	ldr	r1, [r4, #8]
    dbe8:	e5940020 	ldr	r0, [r4, #32]
    dbec:	e2811001 	add	r1, r1, #1
    dbf0:	e5841008 	str	r1, [r4, #8]
    dbf4:	e7d00003 	ldrb	r0, [r0, r3]
    dbf8:	e5e80001 	strb	r0, [r8, #1]!
    dbfc:	e2455001 	sub	r5, r5, #1
    dc00:	e3550004 	cmp	r5, #4
    dc04:	e28aa001 	add	sl, sl, #1
    dc08:	93a03000 	movls	r3, #0
    dc0c:	83a03001 	movhi	r3, #1
    dc10:	e157000a 	cmp	r7, sl
    dc14:	d3a03000 	movle	r3, #0
    dc18:	e3530000 	cmp	r3, #0
    dc1c:	0a000082 	beq	de2c <parse.constprop.0+0xca4>
    dc20:	e3520000 	cmp	r2, #0
    dc24:	e1a00004 	mov	r0, r4
    dc28:	1a000004 	bne	dc40 <parse.constprop.0+0xab8>
    dc2c:	e5943018 	ldr	r3, [r4, #24]
    dc30:	e594101c 	ldr	r1, [r4, #28]
    dc34:	e1530001 	cmp	r3, r1
    dc38:	e2831001 	add	r1, r3, #1
    dc3c:	3affffe7 	bcc	dbe0 <parse.constprop.0+0xa58>
    dc40:	ebffed3a 	bl	9130 <iobuf_readbyte>
    dc44:	e5942010 	ldr	r2, [r4, #16]
    dc48:	e6ef0070 	uxtb	r0, r0
    dc4c:	eaffffe9 	b	dbf8 <parse.constprop.0+0xa70>
    dc50:	e3550003 	cmp	r5, #3
    dc54:	1a000038 	bne	dd3c <parse.constprop.0+0xbb4>
    dc58:	e5943010 	ldr	r3, [r4, #16]
    dc5c:	e3530000 	cmp	r3, #0
    dc60:	1a000112 	bne	e0b0 <parse.constprop.0+0xf28>
    dc64:	e5943018 	ldr	r3, [r4, #24]
    dc68:	e594201c 	ldr	r2, [r4, #28]
    dc6c:	e1530002 	cmp	r3, r2
    dc70:	2a00010e 	bcs	e0b0 <parse.constprop.0+0xf28>
    dc74:	e5942008 	ldr	r2, [r4, #8]
    dc78:	e5941020 	ldr	r1, [r4, #32]
    dc7c:	e2822001 	add	r2, r2, #1
    dc80:	e5842008 	str	r2, [r4, #8]
    dc84:	e2832001 	add	r2, r3, #1
    dc88:	e5842018 	str	r2, [r4, #24]
    dc8c:	e7d13003 	ldrb	r3, [r1, r3]
    dc90:	e2533050 	subs	r3, r3, #80	; 0x50
    dc94:	13a03001 	movne	r3, #1
    dc98:	e3530000 	cmp	r3, #0
    dc9c:	1a000025 	bne	dd38 <parse.constprop.0+0xbb0>
    dca0:	e5943010 	ldr	r3, [r4, #16]
    dca4:	e3530000 	cmp	r3, #0
    dca8:	1a00012f 	bne	e16c <parse.constprop.0+0xfe4>
    dcac:	e5943018 	ldr	r3, [r4, #24]
    dcb0:	e594201c 	ldr	r2, [r4, #28]
    dcb4:	e1530002 	cmp	r3, r2
    dcb8:	2a00012b 	bcs	e16c <parse.constprop.0+0xfe4>
    dcbc:	e5942008 	ldr	r2, [r4, #8]
    dcc0:	e5941020 	ldr	r1, [r4, #32]
    dcc4:	e2822001 	add	r2, r2, #1
    dcc8:	e5842008 	str	r2, [r4, #8]
    dccc:	e2832001 	add	r2, r3, #1
    dcd0:	e5842018 	str	r2, [r4, #24]
    dcd4:	e7d13003 	ldrb	r3, [r1, r3]
    dcd8:	e3530047 	cmp	r3, #71	; 0x47
    dcdc:	1a000015 	bne	dd38 <parse.constprop.0+0xbb0>
    dce0:	e5943018 	ldr	r3, [r4, #24]
    dce4:	e594201c 	ldr	r2, [r4, #28]
    dce8:	e1530002 	cmp	r3, r2
    dcec:	2a000125 	bcs	e188 <parse.constprop.0+0x1000>
    dcf0:	e5942008 	ldr	r2, [r4, #8]
    dcf4:	e5941020 	ldr	r1, [r4, #32]
    dcf8:	e2822001 	add	r2, r2, #1
    dcfc:	e5842008 	str	r2, [r4, #8]
    dd00:	e2832001 	add	r2, r3, #1
    dd04:	e5842018 	str	r2, [r4, #24]
    dd08:	e7d13003 	ldrb	r3, [r1, r3]
    dd0c:	e2533050 	subs	r3, r3, #80	; 0x50
    dd10:	13a03001 	movne	r3, #1
    dd14:	e3530000 	cmp	r3, #0
    dd18:	1a000006 	bne	dd38 <parse.constprop.0+0xbb0>
    dd1c:	e1a01006 	mov	r1, r6
    dd20:	e3a00000 	mov	r0, #0
    dd24:	ebfff312 	bl	a974 <free_packet>
    dd28:	e3580002 	cmp	r8, #2
    dd2c:	13580011 	cmpne	r8, #17
    dd30:	0afffea7 	beq	d7d4 <parse.constprop.0+0x64c>
    dd34:	eaffff44 	b	da4c <parse.constprop.0+0x8c4>
    dd38:	e3a05002 	mov	r5, #2
    dd3c:	e59f04e4 	ldr	r0, [pc, #1252]	; e228 <parse.constprop.0+0x10a0>
    dd40:	e08f0000 	add	r0, pc, r0
    dd44:	eb000454 	bl	ee9c <tfp_printf>
    dd48:	e3a02000 	mov	r2, #0
    dd4c:	e1a00004 	mov	r0, r4
    dd50:	e1a01005 	mov	r1, r5
    dd54:	ebfff0ad 	bl	a010 <iobuf_skip_rest>
    dd58:	e1a01006 	mov	r1, r6
    dd5c:	e3a00000 	mov	r0, #0
    dd60:	ebfff303 	bl	a974 <free_packet>
    dd64:	e59f04c0 	ldr	r0, [pc, #1216]	; e22c <parse.constprop.0+0x10a4>
    dd68:	e1a01009 	mov	r1, r9
    dd6c:	e08f0000 	add	r0, pc, r0
    dd70:	eb000449 	bl	ee9c <tfp_printf>
    dd74:	e1a01009 	mov	r1, r9
    dd78:	e28d002c 	add	r0, sp, #44	; 0x2c
    dd7c:	ebfff0dd 	bl	a0f8 <log_hexdump>
    dd80:	e3a0000e 	mov	r0, #14
    dd84:	eafffdbe 	b	d484 <parse.constprop.0+0x2fc>
    dd88:	ebffece8 	bl	9130 <iobuf_readbyte>
    dd8c:	e3700001 	cmn	r0, #1
    dd90:	e6ef3070 	uxtb	r3, r0
    dd94:	1afffeb0 	bne	d85c <parse.constprop.0+0x6d4>
    dd98:	e59f1490 	ldr	r1, [pc, #1168]	; e230 <parse.constprop.0+0x10a8>
    dd9c:	e59f0490 	ldr	r0, [pc, #1168]	; e234 <parse.constprop.0+0x10ac>
    dda0:	e08f1001 	add	r1, pc, r1
    dda4:	e08f0000 	add	r0, pc, r0
    dda8:	eb00043b 	bl	ee9c <tfp_printf>
    ddac:	e3a0000e 	mov	r0, #14
    ddb0:	eafffdb3 	b	d484 <parse.constprop.0+0x2fc>
    ddb4:	e3550000 	cmp	r5, #0
    ddb8:	03580008 	cmpeq	r8, #8
    ddbc:	0a0000c0 	beq	e0c4 <parse.constprop.0+0xf3c>
    ddc0:	e3550000 	cmp	r5, #0
    ddc4:	0afffe8c 	beq	d7fc <parse.constprop.0+0x674>
    ddc8:	e28d7034 	add	r7, sp, #52	; 0x34
    ddcc:	ea000005 	b	dde8 <parse.constprop.0+0xc60>
    ddd0:	e59d00c4 	ldr	r0, [sp, #196]	; 0xc4
    ddd4:	ebffee0d 	bl	9610 <iobuf_write>
    ddd8:	e3500000 	cmp	r0, #0
    dddc:	1afffdd1 	bne	d528 <parse.constprop.0+0x3a0>
    dde0:	e0555006 	subs	r5, r5, r6
    dde4:	0afffe84 	beq	d7fc <parse.constprop.0+0x674>
    dde8:	e3550064 	cmp	r5, #100	; 0x64
    ddec:	e1a01007 	mov	r1, r7
    ddf0:	31a02005 	movcc	r2, r5
    ddf4:	23a02064 	movcs	r2, #100	; 0x64
    ddf8:	e1a00004 	mov	r0, r4
    ddfc:	ebffed84 	bl	9414 <iobuf_read>
    de00:	e3700001 	cmn	r0, #1
    de04:	e1a01007 	mov	r1, r7
    de08:	e1a06000 	mov	r6, r0
    de0c:	e1a02000 	mov	r2, r0
    de10:	1affffee 	bne	ddd0 <parse.constprop.0+0xc48>
    de14:	e3030fff 	movw	r0, #16383	; 0x3fff
    de18:	e3400200 	movt	r0, #512	; 0x200
    de1c:	eafffdc3 	b	d530 <parse.constprop.0+0x3a8>
    de20:	e59d700c 	ldr	r7, [sp, #12]
    de24:	e3a05000 	mov	r5, #0
    de28:	e5942010 	ldr	r2, [r4, #16]
    de2c:	e157000a 	cmp	r7, sl
    de30:	da000007 	ble	de54 <parse.constprop.0+0xccc>
    de34:	e28a3018 	add	r3, sl, #24
    de38:	e2871018 	add	r1, r7, #24
    de3c:	e08b3003 	add	r3, fp, r3
    de40:	e3a00000 	mov	r0, #0
    de44:	e08b1001 	add	r1, fp, r1
    de48:	e4c30001 	strb	r0, [r3], #1
    de4c:	e1510003 	cmp	r1, r3
    de50:	1afffffc 	bne	de48 <parse.constprop.0+0xcc0>
    de54:	e3520000 	cmp	r2, #0
    de58:	1a00004f 	bne	df9c <parse.constprop.0+0xe14>
    de5c:	e5941018 	ldr	r1, [r4, #24]
    de60:	e594301c 	ldr	r3, [r4, #28]
    de64:	e1510003 	cmp	r1, r3
    de68:	2a00004b 	bcs	df9c <parse.constprop.0+0xe14>
    de6c:	e5942008 	ldr	r2, [r4, #8]
    de70:	e5940020 	ldr	r0, [r4, #32]
    de74:	e2822001 	add	r2, r2, #1
    de78:	e5842008 	str	r2, [r4, #8]
    de7c:	e2812001 	add	r2, r1, #1
    de80:	e5842018 	str	r2, [r4, #24]
    de84:	e7d01001 	ldrb	r1, [r0, r1]
    de88:	e1a08c01 	lsl	r8, r1, #24
    de8c:	e1530002 	cmp	r3, r2
    de90:	9a000048 	bls	dfb8 <parse.constprop.0+0xe30>
    de94:	e5941008 	ldr	r1, [r4, #8]
    de98:	e5940020 	ldr	r0, [r4, #32]
    de9c:	e2811001 	add	r1, r1, #1
    dea0:	e5841008 	str	r1, [r4, #8]
    dea4:	e2821001 	add	r1, r2, #1
    dea8:	e5841018 	str	r1, [r4, #24]
    deac:	e7d07002 	ldrb	r7, [r0, r2]
    deb0:	e1887807 	orr	r7, r8, r7, lsl #16
    deb4:	e1530001 	cmp	r3, r1
    deb8:	9a00002a 	bls	df68 <parse.constprop.0+0xde0>
    debc:	e5942008 	ldr	r2, [r4, #8]
    dec0:	e5940020 	ldr	r0, [r4, #32]
    dec4:	e2822001 	add	r2, r2, #1
    dec8:	e5842008 	str	r2, [r4, #8]
    decc:	e2812001 	add	r2, r1, #1
    ded0:	e5842018 	str	r2, [r4, #24]
    ded4:	e7d01001 	ldrb	r1, [r0, r1]
    ded8:	e1877401 	orr	r7, r7, r1, lsl #8
    dedc:	e1520003 	cmp	r2, r3
    dee0:	2a000029 	bcs	df8c <parse.constprop.0+0xe04>
    dee4:	e5943008 	ldr	r3, [r4, #8]
    dee8:	e5941020 	ldr	r1, [r4, #32]
    deec:	e2833001 	add	r3, r3, #1
    def0:	e5843008 	str	r3, [r4, #8]
    def4:	e2823001 	add	r3, r2, #1
    def8:	e5843018 	str	r3, [r4, #24]
    defc:	e7d13002 	ldrb	r3, [r1, r2]
    df00:	e1833007 	orr	r3, r3, r7
    df04:	e3550000 	cmp	r5, #0
    df08:	e58b3010 	str	r3, [fp, #16]
    df0c:	12455004 	subne	r5, r5, #4
    df10:	e58b5000 	str	r5, [fp]
    df14:	e1a01006 	mov	r1, r6
    df18:	e58b4004 	str	r4, [fp, #4]
    df1c:	e3a00000 	mov	r0, #0
    df20:	ebfff293 	bl	a974 <free_packet>
    df24:	eafffec8 	b	da4c <parse.constprop.0+0x8c4>
    df28:	e58d3010 	str	r3, [sp, #16]
    df2c:	e1a00004 	mov	r0, r4
    df30:	ebffec7e 	bl	9130 <iobuf_readbyte>
    df34:	e5942010 	ldr	r2, [r4, #16]
    df38:	e3550000 	cmp	r5, #0
    df3c:	e59d3010 	ldr	r3, [sp, #16]
    df40:	12455001 	subne	r5, r5, #1
    df44:	e3520000 	cmp	r2, #0
    df48:	e6ef8070 	uxtb	r8, r0
    df4c:	0a000109 	beq	e378 <parse.constprop.0+0x11f0>
    df50:	e58d3010 	str	r3, [sp, #16]
    df54:	e1a00004 	mov	r0, r4
    df58:	ebffec74 	bl	9130 <iobuf_readbyte>
    df5c:	e59d3010 	ldr	r3, [sp, #16]
    df60:	e6ef7070 	uxtb	r7, r0
    df64:	eaffff04 	b	db7c <parse.constprop.0+0x9f4>
    df68:	e1a00004 	mov	r0, r4
    df6c:	ebffec6f 	bl	9130 <iobuf_readbyte>
    df70:	e5942010 	ldr	r2, [r4, #16]
    df74:	e1a03400 	lsl	r3, r0, #8
    df78:	e3520000 	cmp	r2, #0
    df7c:	e6ff3073 	uxth	r3, r3
    df80:	e1837007 	orr	r7, r3, r7
    df84:	01c421d8 	ldrdeq	r2, [r4, #24]
    df88:	0affffd3 	beq	dedc <parse.constprop.0+0xd54>
    df8c:	e1a00004 	mov	r0, r4
    df90:	ebffec66 	bl	9130 <iobuf_readbyte>
    df94:	e6ef3070 	uxtb	r3, r0
    df98:	eaffffd8 	b	df00 <parse.constprop.0+0xd78>
    df9c:	e1a00004 	mov	r0, r4
    dfa0:	ebffec62 	bl	9130 <iobuf_readbyte>
    dfa4:	e5943010 	ldr	r3, [r4, #16]
    dfa8:	e1a08c00 	lsl	r8, r0, #24
    dfac:	e3530000 	cmp	r3, #0
    dfb0:	01c421d8 	ldrdeq	r2, [r4, #24]
    dfb4:	0affffb4 	beq	de8c <parse.constprop.0+0xd04>
    dfb8:	e1a00004 	mov	r0, r4
    dfbc:	ebffec5b 	bl	9130 <iobuf_readbyte>
    dfc0:	e5943010 	ldr	r3, [r4, #16]
    dfc4:	e1a07800 	lsl	r7, r0, #16
    dfc8:	e3530000 	cmp	r3, #0
    dfcc:	e20778ff 	and	r7, r7, #16711680	; 0xff0000
    dfd0:	e1877008 	orr	r7, r7, r8
    dfd4:	1affffe3 	bne	df68 <parse.constprop.0+0xde0>
    dfd8:	e5941018 	ldr	r1, [r4, #24]
    dfdc:	e594301c 	ldr	r3, [r4, #28]
    dfe0:	eaffffb3 	b	deb4 <parse.constprop.0+0xd2c>
    dfe4:	e1a00004 	mov	r0, r4
    dfe8:	ebffec50 	bl	9130 <iobuf_readbyte>
    dfec:	e6efb070 	uxtb	fp, r0
    dff0:	eafffe55 	b	d94c <parse.constprop.0+0x7c4>
    dff4:	e287001b 	add	r0, r7, #27
    dff8:	ebfffb90 	bl	ce40 <xmalloc>
    dffc:	e59d300c 	ldr	r3, [sp, #12]
    e000:	e1a0b000 	mov	fp, r0
    e004:	e5830004 	str	r0, [r3, #4]
    e008:	e59d3010 	ldr	r3, [sp, #16]
    e00c:	e580800c 	str	r8, [r0, #12]
    e010:	e5c03008 	strb	r3, [r0, #8]
    e014:	e5c0a009 	strb	sl, [r0, #9]
    e018:	e5807014 	str	r7, [r0, #20]
    e01c:	e5942010 	ldr	r2, [r4, #16]
    e020:	e3570000 	cmp	r7, #0
    e024:	0a0000d8 	beq	e38c <parse.constprop.0+0x1204>
    e028:	e58d700c 	str	r7, [sp, #12]
    e02c:	e2873017 	add	r3, r7, #23
    e030:	e083300b 	add	r3, r3, fp
    e034:	e30f5fe9 	movw	r5, #65513	; 0xffe9
    e038:	e34f5fff 	movt	r5, #65535	; 0xffff
    e03c:	e28b8017 	add	r8, fp, #23
    e040:	e045500b 	sub	r5, r5, fp
    e044:	e1a07008 	mov	r7, r8
    e048:	e1a08003 	mov	r8, r3
    e04c:	ea000009 	b	e078 <parse.constprop.0+0xef0>
    e050:	e5940008 	ldr	r0, [r4, #8]
    e054:	e594c020 	ldr	ip, [r4, #32]
    e058:	e2800001 	add	r0, r0, #1
    e05c:	e5840008 	str	r0, [r4, #8]
    e060:	e2810001 	add	r0, r1, #1
    e064:	e5840018 	str	r0, [r4, #24]
    e068:	e7dc0001 	ldrb	r0, [ip, r1]
    e06c:	e5e70001 	strb	r0, [r7, #1]!
    e070:	e1580007 	cmp	r8, r7
    e074:	0a0000c4 	beq	e38c <parse.constprop.0+0x1204>
    e078:	e085a007 	add	sl, r5, r7
    e07c:	e3520000 	cmp	r2, #0
    e080:	e1a00004 	mov	r0, r4
    e084:	1a000003 	bne	e098 <parse.constprop.0+0xf10>
    e088:	e5941018 	ldr	r1, [r4, #24]
    e08c:	e594c01c 	ldr	ip, [r4, #28]
    e090:	e151000c 	cmp	r1, ip
    e094:	3affffed 	bcc	e050 <parse.constprop.0+0xec8>
    e098:	ebffec24 	bl	9130 <iobuf_readbyte>
    e09c:	e3700001 	cmn	r0, #1
    e0a0:	e6ef0070 	uxtb	r0, r0
    e0a4:	0affff5d 	beq	de20 <parse.constprop.0+0xc98>
    e0a8:	e5942010 	ldr	r2, [r4, #16]
    e0ac:	eaffffee 	b	e06c <parse.constprop.0+0xee4>
    e0b0:	e1a00004 	mov	r0, r4
    e0b4:	ebffec1d 	bl	9130 <iobuf_readbyte>
    e0b8:	e2503050 	subs	r3, r0, #80	; 0x50
    e0bc:	13a03001 	movne	r3, #1
    e0c0:	eafffef4 	b	dc98 <parse.constprop.0+0xb10>
    e0c4:	e59f016c 	ldr	r0, [pc, #364]	; e238 <parse.constprop.0+0x10b0>
    e0c8:	e28d7034 	add	r7, sp, #52	; 0x34
    e0cc:	e08f0000 	add	r0, pc, r0
    e0d0:	eb000371 	bl	ee9c <tfp_printf>
    e0d4:	ea000002 	b	e0e4 <parse.constprop.0+0xf5c>
    e0d8:	ebffed4c 	bl	9610 <iobuf_write>
    e0dc:	e3500000 	cmp	r0, #0
    e0e0:	1afffd10 	bne	d528 <parse.constprop.0+0x3a0>
    e0e4:	e3a02064 	mov	r2, #100	; 0x64
    e0e8:	e1a01007 	mov	r1, r7
    e0ec:	e1a00004 	mov	r0, r4
    e0f0:	ebffecc7 	bl	9414 <iobuf_read>
    e0f4:	e1a02000 	mov	r2, r0
    e0f8:	e1a01007 	mov	r1, r7
    e0fc:	e59d00c4 	ldr	r0, [sp, #196]	; 0xc4
    e100:	e3720001 	cmn	r2, #1
    e104:	1afffff3 	bne	e0d8 <parse.constprop.0+0xf50>
    e108:	eafffdbb 	b	d7fc <parse.constprop.0+0x674>
    e10c:	e1a00004 	mov	r0, r4
    e110:	ebffec06 	bl	9130 <iobuf_readbyte>
    e114:	e35b0005 	cmp	fp, #5
    e118:	e6ef3070 	uxtb	r3, r0
    e11c:	e58d3010 	str	r3, [sp, #16]
    e120:	0a000177 	beq	e704 <parse.constprop.0+0x157c>
    e124:	e5943010 	ldr	r3, [r4, #16]
    e128:	e2458002 	sub	r8, r5, #2
    e12c:	e3a0a000 	mov	sl, #0
    e130:	e3530000 	cmp	r3, #0
    e134:	0594201c 	ldreq	r2, [r4, #28]
    e138:	0afffe1c 	beq	d9b0 <parse.constprop.0+0x828>
    e13c:	e1a00004 	mov	r0, r4
    e140:	ebffebfa 	bl	9130 <iobuf_readbyte>
    e144:	e5943010 	ldr	r3, [r4, #16]
    e148:	e6ef7070 	uxtb	r7, r0
    e14c:	e3530000 	cmp	r3, #0
    e150:	01c421d8 	ldrdeq	r2, [r4, #24]
    e154:	0afffe20 	beq	d9dc <parse.constprop.0+0x854>
