
build/patchedKernel.img:     file format elf32-littlearm


Disassembly of section .text:

00008000 <__text_start>:
    8000:	e3a0d302 	mov	sp, #134217728	; 0x8000000
    8004:	eb002f4f 	bl	13d48 <main>
    8008:	eafffffe 	b	8008 <__text_start+0x8>

0000800c <init_heap>:
    800c:	e52db004 	push	{fp}		; (str fp, [sp, #-4]!)
    8010:	e28db000 	add	fp, sp, #0
    8014:	e30e3024 	movw	r3, #57380	; 0xe024
    8018:	e3403004 	movt	r3, #4
    801c:	e5d33000 	ldrb	r3, [r3]
    8020:	e3530000 	cmp	r3, #0
    8024:	1a000018 	bne	808c <init_heap+0x80>
    8028:	e30e300c 	movw	r3, #57356	; 0xe00c
    802c:	e3403004 	movt	r3, #4
    8030:	e30e2000 	movw	r2, #57344	; 0xe000
    8034:	e3402002 	movt	r2, #2
    8038:	e5832000 	str	r2, [r3]
    803c:	e30e300c 	movw	r3, #57356	; 0xe00c
    8040:	e3403004 	movt	r3, #4
    8044:	e5933000 	ldr	r3, [r3]
    8048:	e3a02802 	mov	r2, #131072	; 0x20000
    804c:	e5832000 	str	r2, [r3]
    8050:	e30e300c 	movw	r3, #57356	; 0xe00c
    8054:	e3403004 	movt	r3, #4
    8058:	e5933000 	ldr	r3, [r3]
    805c:	e3a02001 	mov	r2, #1
    8060:	e5c32004 	strb	r2, [r3, #4]
    8064:	e30e300c 	movw	r3, #57356	; 0xe00c
    8068:	e3403004 	movt	r3, #4
    806c:	e5933000 	ldr	r3, [r3]
    8070:	e3a02000 	mov	r2, #0
    8074:	e5832008 	str	r2, [r3, #8]
    8078:	e30e3024 	movw	r3, #57380	; 0xe024
    807c:	e3403004 	movt	r3, #4
    8080:	e3a02001 	mov	r2, #1
    8084:	e5c32000 	strb	r2, [r3]
    8088:	ea000000 	b	8090 <init_heap+0x84>
    808c:	e320f000 	nop	{0}
    8090:	e28bd000 	add	sp, fp, #0
    8094:	e49db004 	pop	{fp}		; (ldr fp, [sp], #4)
    8098:	e12fff1e 	bx	lr

0000809c <init_printf>:
    809c:	e52db004 	push	{fp}		; (str fp, [sp, #-4]!)
    80a0:	e28db000 	add	fp, sp, #0
    80a4:	e24dd00c 	sub	sp, sp, #12
    80a8:	e50b0008 	str	r0, [fp, #-8]
    80ac:	e50b100c 	str	r1, [fp, #-12]
    80b0:	e30e3018 	movw	r3, #57368	; 0xe018
    80b4:	e3403004 	movt	r3, #4
    80b8:	e51b200c 	ldr	r2, [fp, #-12]
    80bc:	e5832000 	str	r2, [r3]
    80c0:	e30e301c 	movw	r3, #57372	; 0xe01c
    80c4:	e3403004 	movt	r3, #4
    80c8:	e51b2008 	ldr	r2, [fp, #-8]
    80cc:	e5832000 	str	r2, [r3]
    80d0:	e320f000 	nop	{0}
    80d4:	e28bd000 	add	sp, fp, #0
    80d8:	e49db004 	pop	{fp}		; (ldr fp, [sp], #4)
    80dc:	e12fff1e 	bx	lr

000080e0 <gpg_error_from_syserror>:
    80e0:	e52db004 	push	{fp}		; (str fp, [sp, #-4]!)
    80e4:	e28db000 	add	fp, sp, #0
    80e8:	e3e03000 	mvn	r3, #0
    80ec:	e1a00003 	mov	r0, r3
    80f0:	e28bd000 	add	sp, fp, #0
    80f4:	e49db004 	pop	{fp}		; (ldr fp, [sp], #4)
    80f8:	e12fff1e 	bx	lr

000080fc <fd_cache_strcmp>:
    80fc:	e52db004 	push	{fp}		; (str fp, [sp, #-4]!)
    8100:	e28db000 	add	fp, sp, #0
    8104:	e24dd00c 	sub	sp, sp, #12
    8108:	e50b0008 	str	r0, [fp, #-8]
    810c:	e50b100c 	str	r1, [fp, #-12]
    8110:	ea00001b 	b	8184 <fd_cache_strcmp+0x88>
    8114:	e51b3008 	ldr	r3, [fp, #-8]
    8118:	e5d32000 	ldrb	r2, [r3]
    811c:	e51b300c 	ldr	r3, [fp, #-12]
    8120:	e5d33000 	ldrb	r3, [r3]
    8124:	e1520003 	cmp	r2, r3
    8128:	0a00000f 	beq	816c <fd_cache_strcmp+0x70>
    812c:	e51b3008 	ldr	r3, [fp, #-8]
    8130:	e5d33000 	ldrb	r3, [r3]
    8134:	e353002f 	cmp	r3, #47	; 0x2f
    8138:	1a000003 	bne	814c <fd_cache_strcmp+0x50>
    813c:	e51b300c 	ldr	r3, [fp, #-12]
    8140:	e5d33000 	ldrb	r3, [r3]
    8144:	e353005c 	cmp	r3, #92	; 0x5c
    8148:	0a000007 	beq	816c <fd_cache_strcmp+0x70>
    814c:	e51b3008 	ldr	r3, [fp, #-8]
    8150:	e5d33000 	ldrb	r3, [r3]
    8154:	e353005c 	cmp	r3, #92	; 0x5c
    8158:	1a000011 	bne	81a4 <fd_cache_strcmp+0xa8>
    815c:	e51b300c 	ldr	r3, [fp, #-12]
    8160:	e5d33000 	ldrb	r3, [r3]
    8164:	e353002f 	cmp	r3, #47	; 0x2f
    8168:	1a00000d 	bne	81a4 <fd_cache_strcmp+0xa8>
    816c:	e51b3008 	ldr	r3, [fp, #-8]
    8170:	e2833001 	add	r3, r3, #1
    8174:	e50b3008 	str	r3, [fp, #-8]
    8178:	e51b300c 	ldr	r3, [fp, #-12]
    817c:	e2833001 	add	r3, r3, #1
    8180:	e50b300c 	str	r3, [fp, #-12]
    8184:	e51b3008 	ldr	r3, [fp, #-8]
    8188:	e5d33000 	ldrb	r3, [r3]
    818c:	e3530000 	cmp	r3, #0
    8190:	0a000003 	beq	81a4 <fd_cache_strcmp+0xa8>
    8194:	e51b300c 	ldr	r3, [fp, #-12]
    8198:	e5d33000 	ldrb	r3, [r3]
    819c:	e3530000 	cmp	r3, #0
    81a0:	1affffdb 	bne	8114 <fd_cache_strcmp+0x18>
    81a4:	e51b3008 	ldr	r3, [fp, #-8]
    81a8:	e5d33000 	ldrb	r3, [r3]
    81ac:	e1a02003 	mov	r2, r3
    81b0:	e51b300c 	ldr	r3, [fp, #-12]
    81b4:	e5d33000 	ldrb	r3, [r3]
    81b8:	e0423003 	sub	r3, r2, r3
    81bc:	e1a00003 	mov	r0, r3
    81c0:	e28bd000 	add	sp, fp, #0
    81c4:	e49db004 	pop	{fp}		; (ldr fp, [sp], #4)
    81c8:	e12fff1e 	bx	lr

000081cc <fd_cache_invalidate>:
    81cc:	e92d4800 	push	{fp, lr}
    81d0:	e28db004 	add	fp, sp, #4
    81d4:	e24dd010 	sub	sp, sp, #16
    81d8:	e50b0010 	str	r0, [fp, #-16]
    81dc:	e3a03000 	mov	r3, #0
    81e0:	e50b300c 	str	r3, [fp, #-12]
    81e4:	e51b0010 	ldr	r0, [fp, #-16]
    81e8:	eb002e94 	bl	13c40 <tfp_printf>
    81ec:	e30e3004 	movw	r3, #57348	; 0xe004
    81f0:	e3403004 	movt	r3, #4
    81f4:	e5933000 	ldr	r3, [r3]
    81f8:	e3530000 	cmp	r3, #0
    81fc:	0a000003 	beq	8210 <fd_cache_invalidate+0x44>
    8200:	e51b1010 	ldr	r1, [fp, #-16]
    8204:	e3040610 	movw	r0, #17936	; 0x4610
    8208:	e3400001 	movt	r0, #1
    820c:	eb002e8b 	bl	13c40 <tfp_printf>
    8210:	e30e3000 	movw	r3, #57344	; 0xe000
    8214:	e3403004 	movt	r3, #4
    8218:	e5933000 	ldr	r3, [r3]
    821c:	e50b3008 	str	r3, [fp, #-8]
    8220:	ea00001c 	b	8298 <fd_cache_invalidate+0xcc>
    8224:	e51b3008 	ldr	r3, [fp, #-8]
    8228:	e5933004 	ldr	r3, [r3, #4]
    822c:	e3730001 	cmn	r3, #1
    8230:	0a000015 	beq	828c <fd_cache_invalidate+0xc0>
    8234:	e51b3008 	ldr	r3, [fp, #-8]
    8238:	e2833008 	add	r3, r3, #8
    823c:	e51b1010 	ldr	r1, [fp, #-16]
    8240:	e1a00003 	mov	r0, r3
    8244:	ebffffac 	bl	80fc <fd_cache_strcmp>
    8248:	e1a03000 	mov	r3, r0
    824c:	e3530000 	cmp	r3, #0
    8250:	1a00000d 	bne	828c <fd_cache_invalidate+0xc0>
    8254:	e30e3004 	movw	r3, #57348	; 0xe004
    8258:	e3403004 	movt	r3, #4
    825c:	e5933000 	ldr	r3, [r3]
    8260:	e3530000 	cmp	r3, #0
    8264:	0a000005 	beq	8280 <fd_cache_invalidate+0xb4>
    8268:	e51b3008 	ldr	r3, [fp, #-8]
    826c:	e2833008 	add	r3, r3, #8
    8270:	e1a01003 	mov	r1, r3
    8274:	e304062c 	movw	r0, #17964	; 0x462c
    8278:	e3400001 	movt	r0, #1
    827c:	eb002e6f 	bl	13c40 <tfp_printf>
    8280:	e51b3008 	ldr	r3, [fp, #-8]
    8284:	e3e02000 	mvn	r2, #0
    8288:	e5832004 	str	r2, [r3, #4]
    828c:	e51b3008 	ldr	r3, [fp, #-8]
    8290:	e5933000 	ldr	r3, [r3]
    8294:	e50b3008 	str	r3, [fp, #-8]
    8298:	e51b3008 	ldr	r3, [fp, #-8]
    829c:	e3530000 	cmp	r3, #0
    82a0:	1affffdf 	bne	8224 <fd_cache_invalidate+0x58>
    82a4:	e51b300c 	ldr	r3, [fp, #-12]
    82a8:	e1a00003 	mov	r0, r3
    82ac:	e24bd004 	sub	sp, fp, #4
    82b0:	e8bd8800 	pop	{fp, pc}

000082b4 <fd_cache_synchronize>:
    82b4:	e92d4800 	push	{fp, lr}
    82b8:	e28db004 	add	fp, sp, #4
    82bc:	e24dd010 	sub	sp, sp, #16
    82c0:	e50b0010 	str	r0, [fp, #-16]
    82c4:	e3a03000 	mov	r3, #0
    82c8:	e50b300c 	str	r3, [fp, #-12]
    82cc:	e30e3004 	movw	r3, #57348	; 0xe004
    82d0:	e3403004 	movt	r3, #4
    82d4:	e5933000 	ldr	r3, [r3]
    82d8:	e3530000 	cmp	r3, #0
    82dc:	0a000003 	beq	82f0 <fd_cache_synchronize+0x3c>
    82e0:	e51b1010 	ldr	r1, [fp, #-16]
    82e4:	e3040648 	movw	r0, #17992	; 0x4648
    82e8:	e3400001 	movt	r0, #1
    82ec:	eb002e53 	bl	13c40 <tfp_printf>
    82f0:	e30e3000 	movw	r3, #57344	; 0xe000
    82f4:	e3403004 	movt	r3, #4
    82f8:	e5933000 	ldr	r3, [r3]
    82fc:	e50b3008 	str	r3, [fp, #-8]
    8300:	ea000019 	b	836c <fd_cache_synchronize+0xb8>
    8304:	e51b3008 	ldr	r3, [fp, #-8]
    8308:	e5933004 	ldr	r3, [r3, #4]
    830c:	e3730001 	cmn	r3, #1
    8310:	0a000012 	beq	8360 <fd_cache_synchronize+0xac>
    8314:	e51b3008 	ldr	r3, [fp, #-8]
    8318:	e2833008 	add	r3, r3, #8
    831c:	e51b1010 	ldr	r1, [fp, #-16]
    8320:	e1a00003 	mov	r0, r3
    8324:	ebffff74 	bl	80fc <fd_cache_strcmp>
    8328:	e1a03000 	mov	r3, r0
    832c:	e3530000 	cmp	r3, #0
    8330:	1a00000a 	bne	8360 <fd_cache_synchronize+0xac>
    8334:	e30e3004 	movw	r3, #57348	; 0xe004
    8338:	e3403004 	movt	r3, #4
    833c:	e5933000 	ldr	r3, [r3]
    8340:	e3530000 	cmp	r3, #0
    8344:	0a000005 	beq	8360 <fd_cache_synchronize+0xac>
    8348:	e51b3008 	ldr	r3, [fp, #-8]
    834c:	e2833008 	add	r3, r3, #8
    8350:	e1a01003 	mov	r1, r3
    8354:	e3040664 	movw	r0, #18020	; 0x4664
    8358:	e3400001 	movt	r0, #1
    835c:	eb002e37 	bl	13c40 <tfp_printf>
    8360:	e51b3008 	ldr	r3, [fp, #-8]
    8364:	e5933000 	ldr	r3, [r3]
    8368:	e50b3008 	str	r3, [fp, #-8]
    836c:	e51b3008 	ldr	r3, [fp, #-8]
    8370:	e3530000 	cmp	r3, #0
    8374:	1affffe2 	bne	8304 <fd_cache_synchronize+0x50>
    8378:	e51b300c 	ldr	r3, [fp, #-12]
    837c:	e1a00003 	mov	r0, r3
    8380:	e24bd004 	sub	sp, fp, #4
    8384:	e8bd8800 	pop	{fp, pc}

00008388 <direct_open>:
    8388:	e92d4800 	push	{fp, lr}
    838c:	e28db004 	add	fp, sp, #4
    8390:	e24dd018 	sub	sp, sp, #24
    8394:	e50b0010 	str	r0, [fp, #-16]
    8398:	e50b1014 	str	r1, [fp, #-20]	; 0xffffffec
    839c:	e50b2018 	str	r2, [fp, #-24]	; 0xffffffe8
    83a0:	e3a03d06 	mov	r3, #384	; 0x180
    83a4:	e50b300c 	str	r3, [fp, #-12]
    83a8:	e51b3018 	ldr	r3, [fp, #-24]	; 0xffffffe8
    83ac:	e3530000 	cmp	r3, #0
    83b0:	1a000002 	bne	83c0 <direct_open+0x38>
    83b4:	e51b300c 	ldr	r3, [fp, #-12]
    83b8:	e3833036 	orr	r3, r3, #54	; 0x36
    83bc:	e50b300c 	str	r3, [fp, #-12]
    83c0:	e3a0102b 	mov	r1, #43	; 0x2b
    83c4:	e51b0014 	ldr	r0, [fp, #-20]	; 0xffffffec
    83c8:	eb00215e 	bl	10948 <strchr>
    83cc:	e1a03000 	mov	r3, r0
    83d0:	e3530000 	cmp	r3, #0
    83d4:	0a000009 	beq	8400 <direct_open+0x78>
    83d8:	e51b0010 	ldr	r0, [fp, #-16]
    83dc:	ebffff7a 	bl	81cc <fd_cache_invalidate>
    83e0:	e1a03000 	mov	r3, r0
    83e4:	e3530000 	cmp	r3, #0
    83e8:	0a000001 	beq	83f4 <direct_open+0x6c>
    83ec:	e3e03000 	mvn	r3, #0
    83f0:	ea000022 	b	8480 <direct_open+0xf8>
    83f4:	e3a03002 	mov	r3, #2
    83f8:	e50b3008 	str	r3, [fp, #-8]
    83fc:	ea000011 	b	8448 <direct_open+0xc0>
    8400:	e3a01077 	mov	r1, #119	; 0x77
    8404:	e51b0014 	ldr	r0, [fp, #-20]	; 0xffffffec
    8408:	eb00214e 	bl	10948 <strchr>
    840c:	e1a03000 	mov	r3, r0
    8410:	e3530000 	cmp	r3, #0
    8414:	0a000009 	beq	8440 <direct_open+0xb8>
    8418:	e51b0010 	ldr	r0, [fp, #-16]
    841c:	ebffff6a 	bl	81cc <fd_cache_invalidate>
    8420:	e1a03000 	mov	r3, r0
    8424:	e3530000 	cmp	r3, #0
    8428:	0a000001 	beq	8434 <direct_open+0xac>
    842c:	e3e03000 	mvn	r3, #0
    8430:	ea000012 	b	8480 <direct_open+0xf8>
    8434:	e3003601 	movw	r3, #1537	; 0x601
    8438:	e50b3008 	str	r3, [fp, #-8]
    843c:	ea000001 	b	8448 <direct_open+0xc0>
    8440:	e3a03000 	mov	r3, #0
    8444:	e50b3008 	str	r3, [fp, #-8]
    8448:	e3a01062 	mov	r1, #98	; 0x62
    844c:	e51b0014 	ldr	r0, [fp, #-20]	; 0xffffffec
    8450:	eb00213c 	bl	10948 <strchr>
    8454:	e1a03000 	mov	r3, r0
    8458:	e3530000 	cmp	r3, #0
    845c:	0a000002 	beq	846c <direct_open+0xe4>
    8460:	e51b3008 	ldr	r3, [fp, #-8]
    8464:	e3833801 	orr	r3, r3, #65536	; 0x10000
    8468:	e50b3008 	str	r3, [fp, #-8]
    846c:	e51b200c 	ldr	r2, [fp, #-12]
    8470:	e51b1008 	ldr	r1, [fp, #-8]
    8474:	e51b0010 	ldr	r0, [fp, #-16]
    8478:	eb002115 	bl	108d4 <open>
    847c:	e1a03000 	mov	r3, r0
    8480:	e1a00003 	mov	r0, r3
    8484:	e24bd004 	sub	sp, fp, #4
    8488:	e8bd8800 	pop	{fp, pc}

0000848c <fd_cache_open>:
    848c:	e92d4800 	push	{fp, lr}
    8490:	e28db004 	add	fp, sp, #4
    8494:	e24dd010 	sub	sp, sp, #16
    8498:	e50b0010 	str	r0, [fp, #-16]
    849c:	e50b1014 	str	r1, [fp, #-20]	; 0xffffffec
    84a0:	e30e3000 	movw	r3, #57344	; 0xe000
    84a4:	e3403004 	movt	r3, #4
    84a8:	e5933000 	ldr	r3, [r3]
    84ac:	e50b3008 	str	r3, [fp, #-8]
    84b0:	ea000016 	b	8510 <fd_cache_open+0x84>
    84b4:	e51b3008 	ldr	r3, [fp, #-8]
    84b8:	e5933004 	ldr	r3, [r3, #4]
    84bc:	e3730001 	cmn	r3, #1
    84c0:	0a00000f 	beq	8504 <fd_cache_open+0x78>
    84c4:	e51b3008 	ldr	r3, [fp, #-8]
    84c8:	e2833008 	add	r3, r3, #8
    84cc:	e51b1010 	ldr	r1, [fp, #-16]
    84d0:	e1a00003 	mov	r0, r3
    84d4:	ebffff08 	bl	80fc <fd_cache_strcmp>
    84d8:	e1a03000 	mov	r3, r0
    84dc:	e3530000 	cmp	r3, #0
    84e0:	1a000007 	bne	8504 <fd_cache_open+0x78>
    84e4:	e51b3008 	ldr	r3, [fp, #-8]
    84e8:	e5933004 	ldr	r3, [r3, #4]
    84ec:	e50b300c 	str	r3, [fp, #-12]
    84f0:	e51b3008 	ldr	r3, [fp, #-8]
    84f4:	e3e02000 	mvn	r2, #0
    84f8:	e5832004 	str	r2, [r3, #4]
    84fc:	e51b300c 	ldr	r3, [fp, #-12]
    8500:	ea00000a 	b	8530 <fd_cache_open+0xa4>
    8504:	e51b3008 	ldr	r3, [fp, #-8]
    8508:	e5933000 	ldr	r3, [r3]
    850c:	e50b3008 	str	r3, [fp, #-8]
    8510:	e51b3008 	ldr	r3, [fp, #-8]
    8514:	e3530000 	cmp	r3, #0
    8518:	1affffe5 	bne	84b4 <fd_cache_open+0x28>
    851c:	e3a02000 	mov	r2, #0
    8520:	e51b1014 	ldr	r1, [fp, #-20]	; 0xffffffec
    8524:	e51b0010 	ldr	r0, [fp, #-16]
    8528:	ebffff96 	bl	8388 <direct_open>
    852c:	e1a03000 	mov	r3, r0
    8530:	e1a00003 	mov	r0, r3
    8534:	e24bd004 	sub	sp, fp, #4
    8538:	e8bd8800 	pop	{fp, pc}

0000853c <block_filter>:
    853c:	e92d4800 	push	{fp, lr}
    8540:	e28db004 	add	fp, sp, #4
    8544:	e24dd040 	sub	sp, sp, #64	; 0x40
    8548:	e50b0038 	str	r0, [fp, #-56]	; 0xffffffc8
    854c:	e50b103c 	str	r1, [fp, #-60]	; 0xffffffc4
    8550:	e50b2040 	str	r2, [fp, #-64]	; 0xffffffc0
    8554:	e50b3044 	str	r3, [fp, #-68]	; 0xffffffbc
    8558:	e51b3038 	ldr	r3, [fp, #-56]	; 0xffffffc8
    855c:	e50b3028 	str	r3, [fp, #-40]	; 0xffffffd8
    8560:	e51b3044 	ldr	r3, [fp, #-68]	; 0xffffffbc
    8564:	e50b302c 	str	r3, [fp, #-44]	; 0xffffffd4
    8568:	e59b3004 	ldr	r3, [fp, #4]
    856c:	e5933000 	ldr	r3, [r3]
    8570:	e50b3008 	str	r3, [fp, #-8]
    8574:	e3a03000 	mov	r3, #0
    8578:	e50b3010 	str	r3, [fp, #-16]
    857c:	e51b303c 	ldr	r3, [fp, #-60]	; 0xffffffc4
    8580:	e3530003 	cmp	r3, #3
    8584:	1a00019e 	bne	8c04 <block_filter+0x6c8>
    8588:	e3a03000 	mov	r3, #0
    858c:	e50b3018 	str	r3, [fp, #-24]	; 0xffffffe8
    8590:	e51b302c 	ldr	r3, [fp, #-44]	; 0xffffffd4
    8594:	e50b3014 	str	r3, [fp, #-20]	; 0xffffffec
    8598:	e51b3008 	ldr	r3, [fp, #-8]
    859c:	e1a00003 	mov	r0, r3
    85a0:	eb002da6 	bl	13c40 <tfp_printf>
    85a4:	e51b3028 	ldr	r3, [fp, #-40]	; 0xffffffd8
    85a8:	e593301c 	ldr	r3, [r3, #28]
    85ac:	e3530000 	cmp	r3, #0
    85b0:	0a000181 	beq	8bbc <block_filter+0x680>
    85b4:	e3e03000 	mvn	r3, #0
    85b8:	e50b3010 	str	r3, [fp, #-16]
    85bc:	ea00017e 	b	8bbc <block_filter+0x680>
    85c0:	e51b3028 	ldr	r3, [fp, #-40]	; 0xffffffd8
    85c4:	e5933004 	ldr	r3, [r3, #4]
    85c8:	e3530000 	cmp	r3, #0
    85cc:	1a000170 	bne	8b94 <block_filter+0x658>
    85d0:	e51b3028 	ldr	r3, [fp, #-40]	; 0xffffffd8
    85d4:	e593300c 	ldr	r3, [r3, #12]
    85d8:	e3530002 	cmp	r3, #2
    85dc:	1a000008 	bne	8604 <block_filter+0xc8>
    85e0:	e51b3028 	ldr	r3, [fp, #-40]	; 0xffffffd8
    85e4:	e3a02001 	mov	r2, #1
    85e8:	e583201c 	str	r2, [r3, #28]
    85ec:	e51b3018 	ldr	r3, [fp, #-24]	; 0xffffffe8
    85f0:	e3530000 	cmp	r3, #0
    85f4:	1a000177 	bne	8bd8 <block_filter+0x69c>
    85f8:	e3e03000 	mvn	r3, #0
    85fc:	e50b3010 	str	r3, [fp, #-16]
    8600:	ea000174 	b	8bd8 <block_filter+0x69c>
    8604:	e51b3028 	ldr	r3, [fp, #-40]	; 0xffffffd8
    8608:	e593300c 	ldr	r3, [r3, #12]
    860c:	e3530000 	cmp	r3, #0
    8610:	0a00015f 	beq	8b94 <block_filter+0x658>
    8614:	e51b3028 	ldr	r3, [fp, #-40]	; 0xffffffd8
    8618:	e5933018 	ldr	r3, [r3, #24]
    861c:	e3530000 	cmp	r3, #0
    8620:	0a000006 	beq	8640 <block_filter+0x104>
    8624:	e51b3028 	ldr	r3, [fp, #-40]	; 0xffffffd8
    8628:	e5933018 	ldr	r3, [r3, #24]
    862c:	e50b300c 	str	r3, [fp, #-12]
    8630:	e51b3028 	ldr	r3, [fp, #-40]	; 0xffffffd8
    8634:	e3a02000 	mov	r2, #0
    8638:	e5832018 	str	r2, [r3, #24]
    863c:	ea000022 	b	86cc <block_filter+0x190>
    8640:	e51b3040 	ldr	r3, [fp, #-64]	; 0xffffffc0
    8644:	e5933010 	ldr	r3, [r3, #16]
    8648:	e3530000 	cmp	r3, #0
    864c:	1a000005 	bne	8668 <block_filter+0x12c>
    8650:	e51b3040 	ldr	r3, [fp, #-64]	; 0xffffffc0
    8654:	e5932018 	ldr	r2, [r3, #24]
    8658:	e51b3040 	ldr	r3, [fp, #-64]	; 0xffffffc0
    865c:	e593301c 	ldr	r3, [r3, #28]
    8660:	e1520003 	cmp	r2, r3
    8664:	3a000003 	bcc	8678 <block_filter+0x13c>
    8668:	e51b0040 	ldr	r0, [fp, #-64]	; 0xffffffc0
    866c:	eb00077d 	bl	a468 <iobuf_readbyte>
    8670:	e1a03000 	mov	r3, r0
    8674:	ea00000d 	b	86b0 <block_filter+0x174>
    8678:	e51b3040 	ldr	r3, [fp, #-64]	; 0xffffffc0
    867c:	e5933008 	ldr	r3, [r3, #8]
    8680:	e2832001 	add	r2, r3, #1
    8684:	e51b3040 	ldr	r3, [fp, #-64]	; 0xffffffc0
    8688:	e5832008 	str	r2, [r3, #8]
    868c:	e51b3040 	ldr	r3, [fp, #-64]	; 0xffffffc0
    8690:	e5932020 	ldr	r2, [r3, #32]
    8694:	e51b3040 	ldr	r3, [fp, #-64]	; 0xffffffc0
    8698:	e5933018 	ldr	r3, [r3, #24]
    869c:	e2830001 	add	r0, r3, #1
    86a0:	e51b1040 	ldr	r1, [fp, #-64]	; 0xffffffc0
    86a4:	e5810018 	str	r0, [r1, #24]
    86a8:	e0823003 	add	r3, r2, r3
    86ac:	e5d33000 	ldrb	r3, [r3]
    86b0:	e50b300c 	str	r3, [fp, #-12]
    86b4:	e51b300c 	ldr	r3, [fp, #-12]
    86b8:	e3730001 	cmn	r3, #1
    86bc:	1a000002 	bne	86cc <block_filter+0x190>
    86c0:	e3a03059 	mov	r3, #89	; 0x59
    86c4:	e50b3010 	str	r3, [fp, #-16]
    86c8:	ea000149 	b	8bf4 <block_filter+0x6b8>
    86cc:	e51b300c 	ldr	r3, [fp, #-12]
    86d0:	e35300bf 	cmp	r3, #191	; 0xbf
    86d4:	ca000012 	bgt	8724 <block_filter+0x1e8>
    86d8:	e51b200c 	ldr	r2, [fp, #-12]
    86dc:	e51b3028 	ldr	r3, [fp, #-40]	; 0xffffffd8
    86e0:	e5832004 	str	r2, [r3, #4]
    86e4:	e51b3028 	ldr	r3, [fp, #-40]	; 0xffffffd8
    86e8:	e3a02002 	mov	r2, #2
    86ec:	e583200c 	str	r2, [r3, #12]
    86f0:	e51b3028 	ldr	r3, [fp, #-40]	; 0xffffffd8
    86f4:	e5933004 	ldr	r3, [r3, #4]
    86f8:	e3530000 	cmp	r3, #0
    86fc:	1a000124 	bne	8b94 <block_filter+0x658>
    8700:	e51b3028 	ldr	r3, [fp, #-40]	; 0xffffffd8
    8704:	e3a02001 	mov	r2, #1
    8708:	e583201c 	str	r2, [r3, #28]
    870c:	e51b3018 	ldr	r3, [fp, #-24]	; 0xffffffe8
    8710:	e3530000 	cmp	r3, #0
    8714:	1a000131 	bne	8be0 <block_filter+0x6a4>
    8718:	e3e03000 	mvn	r3, #0
    871c:	e50b3010 	str	r3, [fp, #-16]
    8720:	ea00012e 	b	8be0 <block_filter+0x6a4>
    8724:	e51b300c 	ldr	r3, [fp, #-12]
    8728:	e35300df 	cmp	r3, #223	; 0xdf
    872c:	ca00003f 	bgt	8830 <block_filter+0x2f4>
    8730:	e51b300c 	ldr	r3, [fp, #-12]
    8734:	e24330c0 	sub	r3, r3, #192	; 0xc0
    8738:	e1a03403 	lsl	r3, r3, #8
    873c:	e1a02003 	mov	r2, r3
    8740:	e51b3028 	ldr	r3, [fp, #-40]	; 0xffffffd8
    8744:	e5832004 	str	r2, [r3, #4]
    8748:	e51b3040 	ldr	r3, [fp, #-64]	; 0xffffffc0
    874c:	e5933010 	ldr	r3, [r3, #16]
    8750:	e3530000 	cmp	r3, #0
    8754:	1a000005 	bne	8770 <block_filter+0x234>
    8758:	e51b3040 	ldr	r3, [fp, #-64]	; 0xffffffc0
    875c:	e5932018 	ldr	r2, [r3, #24]
    8760:	e51b3040 	ldr	r3, [fp, #-64]	; 0xffffffc0
    8764:	e593301c 	ldr	r3, [r3, #28]
    8768:	e1520003 	cmp	r2, r3
    876c:	3a000003 	bcc	8780 <block_filter+0x244>
    8770:	e51b0040 	ldr	r0, [fp, #-64]	; 0xffffffc0
    8774:	eb00073b 	bl	a468 <iobuf_readbyte>
    8778:	e1a03000 	mov	r3, r0
    877c:	ea00000d 	b	87b8 <block_filter+0x27c>
    8780:	e51b3040 	ldr	r3, [fp, #-64]	; 0xffffffc0
    8784:	e5933008 	ldr	r3, [r3, #8]
    8788:	e2832001 	add	r2, r3, #1
    878c:	e51b3040 	ldr	r3, [fp, #-64]	; 0xffffffc0
    8790:	e5832008 	str	r2, [r3, #8]
    8794:	e51b3040 	ldr	r3, [fp, #-64]	; 0xffffffc0
    8798:	e5932020 	ldr	r2, [r3, #32]
    879c:	e51b3040 	ldr	r3, [fp, #-64]	; 0xffffffc0
    87a0:	e5933018 	ldr	r3, [r3, #24]
    87a4:	e2830001 	add	r0, r3, #1
    87a8:	e51b1040 	ldr	r1, [fp, #-64]	; 0xffffffc0
    87ac:	e5810018 	str	r0, [r1, #24]
    87b0:	e0823003 	add	r3, r2, r3
    87b4:	e5d33000 	ldrb	r3, [r3]
    87b8:	e50b300c 	str	r3, [fp, #-12]
    87bc:	e51b300c 	ldr	r3, [fp, #-12]
    87c0:	e3730001 	cmn	r3, #1
    87c4:	1a000002 	bne	87d4 <block_filter+0x298>
    87c8:	e3a03059 	mov	r3, #89	; 0x59
    87cc:	e50b3010 	str	r3, [fp, #-16]
    87d0:	ea000107 	b	8bf4 <block_filter+0x6b8>
    87d4:	e51b3028 	ldr	r3, [fp, #-40]	; 0xffffffd8
    87d8:	e5932004 	ldr	r2, [r3, #4]
    87dc:	e51b300c 	ldr	r3, [fp, #-12]
    87e0:	e0823003 	add	r3, r2, r3
    87e4:	e28320c0 	add	r2, r3, #192	; 0xc0
    87e8:	e51b3028 	ldr	r3, [fp, #-40]	; 0xffffffd8
    87ec:	e5832004 	str	r2, [r3, #4]
    87f0:	e51b3028 	ldr	r3, [fp, #-40]	; 0xffffffd8
    87f4:	e3a02002 	mov	r2, #2
    87f8:	e583200c 	str	r2, [r3, #12]
    87fc:	e51b3028 	ldr	r3, [fp, #-40]	; 0xffffffd8
    8800:	e5933004 	ldr	r3, [r3, #4]
    8804:	e3530000 	cmp	r3, #0
    8808:	1a0000e1 	bne	8b94 <block_filter+0x658>
    880c:	e51b3028 	ldr	r3, [fp, #-40]	; 0xffffffd8
    8810:	e3a02001 	mov	r2, #1
    8814:	e583201c 	str	r2, [r3, #28]
    8818:	e51b3018 	ldr	r3, [fp, #-24]	; 0xffffffe8
    881c:	e3530000 	cmp	r3, #0
    8820:	1a0000f0 	bne	8be8 <block_filter+0x6ac>
    8824:	e3e03000 	mvn	r3, #0
    8828:	e50b3010 	str	r3, [fp, #-16]
    882c:	ea0000ed 	b	8be8 <block_filter+0x6ac>
    8830:	e51b300c 	ldr	r3, [fp, #-12]
    8834:	e35300ff 	cmp	r3, #255	; 0xff
    8838:	1a0000a2 	bne	8ac8 <block_filter+0x58c>
    883c:	e51b3040 	ldr	r3, [fp, #-64]	; 0xffffffc0
    8840:	e5933010 	ldr	r3, [r3, #16]
    8844:	e3530000 	cmp	r3, #0
    8848:	1a000005 	bne	8864 <block_filter+0x328>
    884c:	e51b3040 	ldr	r3, [fp, #-64]	; 0xffffffc0
    8850:	e5932018 	ldr	r2, [r3, #24]
    8854:	e51b3040 	ldr	r3, [fp, #-64]	; 0xffffffc0
    8858:	e593301c 	ldr	r3, [r3, #28]
    885c:	e1520003 	cmp	r2, r3
    8860:	3a000005 	bcc	887c <block_filter+0x340>
    8864:	e51b0040 	ldr	r0, [fp, #-64]	; 0xffffffc0
    8868:	eb0006fe 	bl	a468 <iobuf_readbyte>
    886c:	e1a03000 	mov	r3, r0
    8870:	e1a03c03 	lsl	r3, r3, #24
    8874:	e1a02003 	mov	r2, r3
    8878:	ea00000f 	b	88bc <block_filter+0x380>
    887c:	e51b3040 	ldr	r3, [fp, #-64]	; 0xffffffc0
    8880:	e5933008 	ldr	r3, [r3, #8]
    8884:	e2832001 	add	r2, r3, #1
    8888:	e51b3040 	ldr	r3, [fp, #-64]	; 0xffffffc0
    888c:	e5832008 	str	r2, [r3, #8]
    8890:	e51b3040 	ldr	r3, [fp, #-64]	; 0xffffffc0
    8894:	e5932020 	ldr	r2, [r3, #32]
    8898:	e51b3040 	ldr	r3, [fp, #-64]	; 0xffffffc0
    889c:	e5933018 	ldr	r3, [r3, #24]
    88a0:	e2830001 	add	r0, r3, #1
    88a4:	e51b1040 	ldr	r1, [fp, #-64]	; 0xffffffc0
    88a8:	e5810018 	str	r0, [r1, #24]
    88ac:	e0823003 	add	r3, r2, r3
    88b0:	e5d33000 	ldrb	r3, [r3]
    88b4:	e1a03c03 	lsl	r3, r3, #24
    88b8:	e1a02003 	mov	r2, r3
    88bc:	e51b3028 	ldr	r3, [fp, #-40]	; 0xffffffd8
    88c0:	e5832004 	str	r2, [r3, #4]
    88c4:	e51b3040 	ldr	r3, [fp, #-64]	; 0xffffffc0
    88c8:	e5933010 	ldr	r3, [r3, #16]
    88cc:	e3530000 	cmp	r3, #0
    88d0:	1a000005 	bne	88ec <block_filter+0x3b0>
    88d4:	e51b3040 	ldr	r3, [fp, #-64]	; 0xffffffc0
    88d8:	e5932018 	ldr	r2, [r3, #24]
    88dc:	e51b3040 	ldr	r3, [fp, #-64]	; 0xffffffc0
    88e0:	e593301c 	ldr	r3, [r3, #28]
    88e4:	e1520003 	cmp	r2, r3
    88e8:	3a000005 	bcc	8904 <block_filter+0x3c8>
    88ec:	e51b0040 	ldr	r0, [fp, #-64]	; 0xffffffc0
    88f0:	eb0006dc 	bl	a468 <iobuf_readbyte>
    88f4:	e1a03000 	mov	r3, r0
    88f8:	e1a03803 	lsl	r3, r3, #16
    88fc:	e20338ff 	and	r3, r3, #16711680	; 0xff0000
    8900:	ea00000e 	b	8940 <block_filter+0x404>
    8904:	e51b3040 	ldr	r3, [fp, #-64]	; 0xffffffc0
    8908:	e5933008 	ldr	r3, [r3, #8]
    890c:	e2832001 	add	r2, r3, #1
    8910:	e51b3040 	ldr	r3, [fp, #-64]	; 0xffffffc0
    8914:	e5832008 	str	r2, [r3, #8]
    8918:	e51b3040 	ldr	r3, [fp, #-64]	; 0xffffffc0
    891c:	e5932020 	ldr	r2, [r3, #32]
    8920:	e51b3040 	ldr	r3, [fp, #-64]	; 0xffffffc0
    8924:	e5933018 	ldr	r3, [r3, #24]
    8928:	e2830001 	add	r0, r3, #1
    892c:	e51b1040 	ldr	r1, [fp, #-64]	; 0xffffffc0
    8930:	e5810018 	str	r0, [r1, #24]
    8934:	e0823003 	add	r3, r2, r3
    8938:	e5d33000 	ldrb	r3, [r3]
    893c:	e1a03803 	lsl	r3, r3, #16
    8940:	e51b2028 	ldr	r2, [fp, #-40]	; 0xffffffd8
    8944:	e5922004 	ldr	r2, [r2, #4]
    8948:	e1822003 	orr	r2, r2, r3
    894c:	e51b3028 	ldr	r3, [fp, #-40]	; 0xffffffd8
    8950:	e5832004 	str	r2, [r3, #4]
    8954:	e51b3040 	ldr	r3, [fp, #-64]	; 0xffffffc0
    8958:	e5933010 	ldr	r3, [r3, #16]
    895c:	e3530000 	cmp	r3, #0
    8960:	1a000005 	bne	897c <block_filter+0x440>
    8964:	e51b3040 	ldr	r3, [fp, #-64]	; 0xffffffc0
    8968:	e5932018 	ldr	r2, [r3, #24]
    896c:	e51b3040 	ldr	r3, [fp, #-64]	; 0xffffffc0
    8970:	e593301c 	ldr	r3, [r3, #28]
    8974:	e1520003 	cmp	r2, r3
    8978:	3a000005 	bcc	8994 <block_filter+0x458>
    897c:	e51b0040 	ldr	r0, [fp, #-64]	; 0xffffffc0
    8980:	eb0006b8 	bl	a468 <iobuf_readbyte>
    8984:	e1a03000 	mov	r3, r0
    8988:	e1a03403 	lsl	r3, r3, #8
    898c:	e2033cff 	and	r3, r3, #65280	; 0xff00
    8990:	ea00000e 	b	89d0 <block_filter+0x494>
    8994:	e51b3040 	ldr	r3, [fp, #-64]	; 0xffffffc0
    8998:	e5933008 	ldr	r3, [r3, #8]
    899c:	e2832001 	add	r2, r3, #1
    89a0:	e51b3040 	ldr	r3, [fp, #-64]	; 0xffffffc0
    89a4:	e5832008 	str	r2, [r3, #8]
    89a8:	e51b3040 	ldr	r3, [fp, #-64]	; 0xffffffc0
    89ac:	e5932020 	ldr	r2, [r3, #32]
    89b0:	e51b3040 	ldr	r3, [fp, #-64]	; 0xffffffc0
    89b4:	e5933018 	ldr	r3, [r3, #24]
    89b8:	e2830001 	add	r0, r3, #1
    89bc:	e51b1040 	ldr	r1, [fp, #-64]	; 0xffffffc0
    89c0:	e5810018 	str	r0, [r1, #24]
    89c4:	e0823003 	add	r3, r2, r3
    89c8:	e5d33000 	ldrb	r3, [r3]
    89cc:	e1a03403 	lsl	r3, r3, #8
    89d0:	e51b2028 	ldr	r2, [fp, #-40]	; 0xffffffd8
    89d4:	e5922004 	ldr	r2, [r2, #4]
    89d8:	e1822003 	orr	r2, r2, r3
    89dc:	e51b3028 	ldr	r3, [fp, #-40]	; 0xffffffd8
    89e0:	e5832004 	str	r2, [r3, #4]
    89e4:	e51b3040 	ldr	r3, [fp, #-64]	; 0xffffffc0
    89e8:	e5933010 	ldr	r3, [r3, #16]
    89ec:	e3530000 	cmp	r3, #0
    89f0:	1a000005 	bne	8a0c <block_filter+0x4d0>
    89f4:	e51b3040 	ldr	r3, [fp, #-64]	; 0xffffffc0
    89f8:	e5932018 	ldr	r2, [r3, #24]
    89fc:	e51b3040 	ldr	r3, [fp, #-64]	; 0xffffffc0
    8a00:	e593301c 	ldr	r3, [r3, #28]
    8a04:	e1520003 	cmp	r2, r3
    8a08:	3a000003 	bcc	8a1c <block_filter+0x4e0>
    8a0c:	e51b0040 	ldr	r0, [fp, #-64]	; 0xffffffc0
    8a10:	eb000694 	bl	a468 <iobuf_readbyte>
    8a14:	e1a03000 	mov	r3, r0
    8a18:	ea00000d 	b	8a54 <block_filter+0x518>
    8a1c:	e51b3040 	ldr	r3, [fp, #-64]	; 0xffffffc0
    8a20:	e5933008 	ldr	r3, [r3, #8]
    8a24:	e2832001 	add	r2, r3, #1
    8a28:	e51b3040 	ldr	r3, [fp, #-64]	; 0xffffffc0
    8a2c:	e5832008 	str	r2, [r3, #8]
    8a30:	e51b3040 	ldr	r3, [fp, #-64]	; 0xffffffc0
    8a34:	e5932020 	ldr	r2, [r3, #32]
    8a38:	e51b3040 	ldr	r3, [fp, #-64]	; 0xffffffc0
    8a3c:	e5933018 	ldr	r3, [r3, #24]
    8a40:	e2830001 	add	r0, r3, #1
    8a44:	e51b1040 	ldr	r1, [fp, #-64]	; 0xffffffc0
    8a48:	e5810018 	str	r0, [r1, #24]
    8a4c:	e0823003 	add	r3, r2, r3
    8a50:	e5d33000 	ldrb	r3, [r3]
    8a54:	e50b300c 	str	r3, [fp, #-12]
    8a58:	e51b300c 	ldr	r3, [fp, #-12]
    8a5c:	e3730001 	cmn	r3, #1
    8a60:	1a000002 	bne	8a70 <block_filter+0x534>
    8a64:	e3a03059 	mov	r3, #89	; 0x59
    8a68:	e50b3010 	str	r3, [fp, #-16]
    8a6c:	ea000060 	b	8bf4 <block_filter+0x6b8>
    8a70:	e51b3028 	ldr	r3, [fp, #-40]	; 0xffffffd8
    8a74:	e5932004 	ldr	r2, [r3, #4]
    8a78:	e51b300c 	ldr	r3, [fp, #-12]
    8a7c:	e1822003 	orr	r2, r2, r3
    8a80:	e51b3028 	ldr	r3, [fp, #-40]	; 0xffffffd8
    8a84:	e5832004 	str	r2, [r3, #4]
    8a88:	e51b3028 	ldr	r3, [fp, #-40]	; 0xffffffd8
    8a8c:	e3a02002 	mov	r2, #2
    8a90:	e583200c 	str	r2, [r3, #12]
    8a94:	e51b3028 	ldr	r3, [fp, #-40]	; 0xffffffd8
    8a98:	e5933004 	ldr	r3, [r3, #4]
    8a9c:	e3530000 	cmp	r3, #0
    8aa0:	1a00003b 	bne	8b94 <block_filter+0x658>
    8aa4:	e51b3028 	ldr	r3, [fp, #-40]	; 0xffffffd8
    8aa8:	e3a02001 	mov	r2, #1
    8aac:	e583201c 	str	r2, [r3, #28]
    8ab0:	e51b3018 	ldr	r3, [fp, #-24]	; 0xffffffe8
    8ab4:	e3530000 	cmp	r3, #0
    8ab8:	1a00004c 	bne	8bf0 <block_filter+0x6b4>
    8abc:	e3e03000 	mvn	r3, #0
    8ac0:	e50b3010 	str	r3, [fp, #-16]
    8ac4:	ea000049 	b	8bf0 <block_filter+0x6b4>
    8ac8:	e51b300c 	ldr	r3, [fp, #-12]
    8acc:	e203301f 	and	r3, r3, #31
    8ad0:	e3a02001 	mov	r2, #1
    8ad4:	e1a03312 	lsl	r3, r2, r3
    8ad8:	e1a02003 	mov	r2, r3
    8adc:	e51b3028 	ldr	r3, [fp, #-40]	; 0xffffffd8
    8ae0:	e5832004 	str	r2, [r3, #4]
    8ae4:	ea00002a 	b	8b94 <block_filter+0x658>
    8ae8:	e51b3028 	ldr	r3, [fp, #-40]	; 0xffffffd8
    8aec:	e5932004 	ldr	r2, [r3, #4]
    8af0:	e51b3008 	ldr	r3, [fp, #-8]
    8af4:	e1520003 	cmp	r2, r3
    8af8:	31a03002 	movcc	r3, r2
    8afc:	21a03003 	movcs	r3, r3
    8b00:	e50b3034 	str	r3, [fp, #-52]	; 0xffffffcc
    8b04:	e51b3034 	ldr	r3, [fp, #-52]	; 0xffffffcc
    8b08:	e1a02003 	mov	r2, r3
    8b0c:	e51b1014 	ldr	r1, [fp, #-20]	; 0xffffffec
    8b10:	e51b0040 	ldr	r0, [fp, #-64]	; 0xffffffc0
    8b14:	eb000693 	bl	a568 <iobuf_read>
    8b18:	e50b000c 	str	r0, [fp, #-12]
    8b1c:	e51b200c 	ldr	r2, [fp, #-12]
    8b20:	e51b3034 	ldr	r3, [fp, #-52]	; 0xffffffcc
    8b24:	e1520003 	cmp	r2, r3
    8b28:	aa000007 	bge	8b4c <block_filter+0x610>
    8b2c:	e51b300c 	ldr	r3, [fp, #-12]
    8b30:	e3730001 	cmn	r3, #1
    8b34:	1a000001 	bne	8b40 <block_filter+0x604>
    8b38:	e3a03000 	mov	r3, #0
    8b3c:	e50b300c 	str	r3, [fp, #-12]
    8b40:	e3a03059 	mov	r3, #89	; 0x59
    8b44:	e50b3010 	str	r3, [fp, #-16]
    8b48:	ea000011 	b	8b94 <block_filter+0x658>
    8b4c:	e51b300c 	ldr	r3, [fp, #-12]
    8b50:	e51b2008 	ldr	r2, [fp, #-8]
    8b54:	e0423003 	sub	r3, r2, r3
    8b58:	e50b3008 	str	r3, [fp, #-8]
    8b5c:	e51b3028 	ldr	r3, [fp, #-40]	; 0xffffffd8
    8b60:	e5932004 	ldr	r2, [r3, #4]
    8b64:	e51b300c 	ldr	r3, [fp, #-12]
    8b68:	e0422003 	sub	r2, r2, r3
    8b6c:	e51b3028 	ldr	r3, [fp, #-40]	; 0xffffffd8
    8b70:	e5832004 	str	r2, [r3, #4]
    8b74:	e51b300c 	ldr	r3, [fp, #-12]
    8b78:	e51b2014 	ldr	r2, [fp, #-20]	; 0xffffffec
    8b7c:	e0823003 	add	r3, r2, r3
    8b80:	e50b3014 	str	r3, [fp, #-20]	; 0xffffffec
    8b84:	e51b300c 	ldr	r3, [fp, #-12]
    8b88:	e51b2018 	ldr	r2, [fp, #-24]	; 0xffffffe8
    8b8c:	e0823003 	add	r3, r2, r3
    8b90:	e50b3018 	str	r3, [fp, #-24]	; 0xffffffe8
    8b94:	e51b3010 	ldr	r3, [fp, #-16]
    8b98:	e3530000 	cmp	r3, #0
    8b9c:	1a000006 	bne	8bbc <block_filter+0x680>
    8ba0:	e51b3008 	ldr	r3, [fp, #-8]
    8ba4:	e3530000 	cmp	r3, #0
    8ba8:	0a000003 	beq	8bbc <block_filter+0x680>
    8bac:	e51b3028 	ldr	r3, [fp, #-40]	; 0xffffffd8
    8bb0:	e5933004 	ldr	r3, [r3, #4]
    8bb4:	e3530000 	cmp	r3, #0
    8bb8:	1affffca 	bne	8ae8 <block_filter+0x5ac>
    8bbc:	e51b3010 	ldr	r3, [fp, #-16]
    8bc0:	e3530000 	cmp	r3, #0
    8bc4:	1a00000a 	bne	8bf4 <block_filter+0x6b8>
    8bc8:	e51b3008 	ldr	r3, [fp, #-8]
    8bcc:	e3530000 	cmp	r3, #0
    8bd0:	1afffe7a 	bne	85c0 <block_filter+0x84>
    8bd4:	ea000006 	b	8bf4 <block_filter+0x6b8>
    8bd8:	e320f000 	nop	{0}
    8bdc:	ea000004 	b	8bf4 <block_filter+0x6b8>
    8be0:	e320f000 	nop	{0}
    8be4:	ea000002 	b	8bf4 <block_filter+0x6b8>
    8be8:	e320f000 	nop	{0}
    8bec:	ea000000 	b	8bf4 <block_filter+0x6b8>
    8bf0:	e320f000 	nop	{0}
    8bf4:	e59b3004 	ldr	r3, [fp, #4]
    8bf8:	e51b2018 	ldr	r2, [fp, #-24]	; 0xffffffe8
    8bfc:	e5832000 	str	r2, [r3]
    8c00:	ea000147 	b	9124 <block_filter+0xbe8>
    8c04:	e51b303c 	ldr	r3, [fp, #-60]	; 0xffffffc4
    8c08:	e3530004 	cmp	r3, #4
    8c0c:	1a0000a7 	bne	8eb0 <block_filter+0x974>
    8c10:	e51b3028 	ldr	r3, [fp, #-40]	; 0xffffffd8
    8c14:	e593300c 	ldr	r3, [r3, #12]
    8c18:	e3530000 	cmp	r3, #0
    8c1c:	0a000140 	beq	9124 <block_filter+0xbe8>
    8c20:	e51b3028 	ldr	r3, [fp, #-40]	; 0xffffffd8
    8c24:	e5933014 	ldr	r3, [r3, #20]
    8c28:	e51b2008 	ldr	r2, [fp, #-8]
    8c2c:	e0823003 	add	r3, r2, r3
    8c30:	e50b3024 	str	r3, [fp, #-36]	; 0xffffffdc
    8c34:	e51b3024 	ldr	r3, [fp, #-36]	; 0xffffffdc
    8c38:	e3530c02 	cmp	r3, #512	; 0x200
    8c3c:	2a000018 	bcs	8ca4 <block_filter+0x768>
    8c40:	e51b3028 	ldr	r3, [fp, #-40]	; 0xffffffd8
    8c44:	e5933010 	ldr	r3, [r3, #16]
    8c48:	e3530000 	cmp	r3, #0
    8c4c:	1a000004 	bne	8c64 <block_filter+0x728>
    8c50:	e3a00c02 	mov	r0, #512	; 0x200
    8c54:	eb001dc6 	bl	10374 <xmalloc>
    8c58:	e1a02000 	mov	r2, r0
    8c5c:	e51b3028 	ldr	r3, [fp, #-40]	; 0xffffffd8
    8c60:	e5832010 	str	r2, [r3, #16]
    8c64:	e51b3028 	ldr	r3, [fp, #-40]	; 0xffffffd8
    8c68:	e5932010 	ldr	r2, [r3, #16]
    8c6c:	e51b3028 	ldr	r3, [fp, #-40]	; 0xffffffd8
    8c70:	e5933014 	ldr	r3, [r3, #20]
    8c74:	e0823003 	add	r3, r2, r3
    8c78:	e51b2008 	ldr	r2, [fp, #-8]
    8c7c:	e51b102c 	ldr	r1, [fp, #-44]	; 0xffffffd4
    8c80:	e1a00003 	mov	r0, r3
    8c84:	eb001e62 	bl	10614 <memcpy>
    8c88:	e51b3028 	ldr	r3, [fp, #-40]	; 0xffffffd8
    8c8c:	e5932014 	ldr	r2, [r3, #20]
    8c90:	e51b3008 	ldr	r3, [fp, #-8]
    8c94:	e0822003 	add	r2, r2, r3
    8c98:	e51b3028 	ldr	r3, [fp, #-40]	; 0xffffffd8
    8c9c:	e5832014 	str	r2, [r3, #20]
    8ca0:	ea00011f 	b	9124 <block_filter+0xbe8>
    8ca4:	e51b302c 	ldr	r3, [fp, #-44]	; 0xffffffd4
    8ca8:	e50b3014 	str	r3, [fp, #-20]	; 0xffffffec
    8cac:	e3a03b01 	mov	r3, #1024	; 0x400
    8cb0:	e50b301c 	str	r3, [fp, #-28]	; 0xffffffe4
    8cb4:	e3a0300a 	mov	r3, #10
    8cb8:	e50b300c 	str	r3, [fp, #-12]
    8cbc:	ea000005 	b	8cd8 <block_filter+0x79c>
    8cc0:	e51b301c 	ldr	r3, [fp, #-28]	; 0xffffffe4
    8cc4:	e1a03083 	lsl	r3, r3, #1
    8cc8:	e50b301c 	str	r3, [fp, #-28]	; 0xffffffe4
    8ccc:	e51b300c 	ldr	r3, [fp, #-12]
    8cd0:	e2833001 	add	r3, r3, #1
    8cd4:	e50b300c 	str	r3, [fp, #-12]
    8cd8:	e51b201c 	ldr	r2, [fp, #-28]	; 0xffffffe4
    8cdc:	e51b3024 	ldr	r3, [fp, #-36]	; 0xffffffdc
    8ce0:	e1520003 	cmp	r2, r3
    8ce4:	9afffff5 	bls	8cc0 <block_filter+0x784>
    8ce8:	e51b301c 	ldr	r3, [fp, #-28]	; 0xffffffe4
    8cec:	e1a030a3 	lsr	r3, r3, #1
    8cf0:	e50b301c 	str	r3, [fp, #-28]	; 0xffffffe4
    8cf4:	e51b300c 	ldr	r3, [fp, #-12]
    8cf8:	e2433001 	sub	r3, r3, #1
    8cfc:	e50b300c 	str	r3, [fp, #-12]
    8d00:	e51b300c 	ldr	r3, [fp, #-12]
    8d04:	e353001f 	cmp	r3, #31
    8d08:	ca000001 	bgt	8d14 <block_filter+0x7d8>
    8d0c:	e3a03001 	mov	r3, #1
    8d10:	ea000000 	b	8d18 <block_filter+0x7dc>
    8d14:	e3a03000 	mov	r3, #0
    8d18:	e1a00003 	mov	r0, r3
    8d1c:	eb002bc7 	bl	13c40 <tfp_printf>
    8d20:	e51b300c 	ldr	r3, [fp, #-12]
    8d24:	e38330e0 	orr	r3, r3, #224	; 0xe0
    8d28:	e50b300c 	str	r3, [fp, #-12]
    8d2c:	e51b300c 	ldr	r3, [fp, #-12]
    8d30:	e1a01003 	mov	r1, r3
    8d34:	e51b0040 	ldr	r0, [fp, #-64]	; 0xffffffc0
    8d38:	eb00069d 	bl	a7b4 <iobuf_writebyte>
    8d3c:	e51b3028 	ldr	r3, [fp, #-40]	; 0xffffffd8
    8d40:	e5933014 	ldr	r3, [r3, #20]
    8d44:	e50b3020 	str	r3, [fp, #-32]	; 0xffffffe0
    8d48:	e51b3020 	ldr	r3, [fp, #-32]	; 0xffffffe0
    8d4c:	e3530000 	cmp	r3, #0
    8d50:	0a00001a 	beq	8dc0 <block_filter+0x884>
    8d54:	e51b3020 	ldr	r3, [fp, #-32]	; 0xffffffe0
    8d58:	e3530c02 	cmp	r3, #512	; 0x200
    8d5c:	1a000001 	bne	8d68 <block_filter+0x82c>
    8d60:	e3a03001 	mov	r3, #1
    8d64:	ea000000 	b	8d6c <block_filter+0x830>
    8d68:	e3a03000 	mov	r3, #0
    8d6c:	e1a00003 	mov	r0, r3
    8d70:	eb002bb2 	bl	13c40 <tfp_printf>
    8d74:	e51b3028 	ldr	r3, [fp, #-40]	; 0xffffffd8
    8d78:	e5933010 	ldr	r3, [r3, #16]
    8d7c:	e51b2020 	ldr	r2, [fp, #-32]	; 0xffffffe0
    8d80:	e1a01003 	mov	r1, r3
    8d84:	e51b0040 	ldr	r0, [fp, #-64]	; 0xffffffc0
    8d88:	eb0006ca 	bl	a8b8 <iobuf_write>
    8d8c:	e1a03000 	mov	r3, r0
    8d90:	e3530000 	cmp	r3, #0
    8d94:	0a000002 	beq	8da4 <block_filter+0x868>
    8d98:	ebfffcd0 	bl	80e0 <gpg_error_from_syserror>
    8d9c:	e1a03000 	mov	r3, r0
    8da0:	e50b3010 	str	r3, [fp, #-16]
    8da4:	e51b3028 	ldr	r3, [fp, #-40]	; 0xffffffd8
    8da8:	e3a02000 	mov	r2, #0
    8dac:	e5832014 	str	r2, [r3, #20]
    8db0:	e51b2024 	ldr	r2, [fp, #-36]	; 0xffffffdc
    8db4:	e51b3020 	ldr	r3, [fp, #-32]	; 0xffffffe0
    8db8:	e0423003 	sub	r3, r2, r3
    8dbc:	e50b3024 	str	r3, [fp, #-36]	; 0xffffffdc
    8dc0:	e51b3024 	ldr	r3, [fp, #-36]	; 0xffffffdc
    8dc4:	e50b3020 	str	r3, [fp, #-32]	; 0xffffffe0
    8dc8:	e51b2020 	ldr	r2, [fp, #-32]	; 0xffffffe0
    8dcc:	e51b301c 	ldr	r3, [fp, #-28]	; 0xffffffe4
    8dd0:	e1520003 	cmp	r2, r3
    8dd4:	9a000001 	bls	8de0 <block_filter+0x8a4>
    8dd8:	e51b301c 	ldr	r3, [fp, #-28]	; 0xffffffe4
    8ddc:	e50b3020 	str	r3, [fp, #-32]	; 0xffffffe0
    8de0:	e51b3020 	ldr	r3, [fp, #-32]	; 0xffffffe0
    8de4:	e3530000 	cmp	r3, #0
    8de8:	0a000009 	beq	8e14 <block_filter+0x8d8>
    8dec:	e51b2020 	ldr	r2, [fp, #-32]	; 0xffffffe0
    8df0:	e51b1014 	ldr	r1, [fp, #-20]	; 0xffffffec
    8df4:	e51b0040 	ldr	r0, [fp, #-64]	; 0xffffffc0
    8df8:	eb0006ae 	bl	a8b8 <iobuf_write>
    8dfc:	e1a03000 	mov	r3, r0
    8e00:	e3530000 	cmp	r3, #0
    8e04:	0a000002 	beq	8e14 <block_filter+0x8d8>
    8e08:	ebfffcb4 	bl	80e0 <gpg_error_from_syserror>
    8e0c:	e1a03000 	mov	r3, r0
    8e10:	e50b3010 	str	r3, [fp, #-16]
    8e14:	e51b2014 	ldr	r2, [fp, #-20]	; 0xffffffec
    8e18:	e51b3020 	ldr	r3, [fp, #-32]	; 0xffffffe0
    8e1c:	e0823003 	add	r3, r2, r3
    8e20:	e50b3014 	str	r3, [fp, #-20]	; 0xffffffec
    8e24:	e51b2024 	ldr	r2, [fp, #-36]	; 0xffffffdc
    8e28:	e51b3020 	ldr	r3, [fp, #-32]	; 0xffffffe0
    8e2c:	e0423003 	sub	r3, r2, r3
    8e30:	e50b3024 	str	r3, [fp, #-36]	; 0xffffffdc
    8e34:	e51b3010 	ldr	r3, [fp, #-16]
    8e38:	e3530000 	cmp	r3, #0
    8e3c:	1a000002 	bne	8e4c <block_filter+0x910>
    8e40:	e51b3024 	ldr	r3, [fp, #-36]	; 0xffffffdc
    8e44:	e3530c02 	cmp	r3, #512	; 0x200
    8e48:	2affff97 	bcs	8cac <block_filter+0x770>
    8e4c:	e51b3010 	ldr	r3, [fp, #-16]
    8e50:	e3530000 	cmp	r3, #0
    8e54:	1a0000b2 	bne	9124 <block_filter+0xbe8>
    8e58:	e51b3024 	ldr	r3, [fp, #-36]	; 0xffffffdc
    8e5c:	e3530000 	cmp	r3, #0
    8e60:	0a0000af 	beq	9124 <block_filter+0xbe8>
    8e64:	e51b3028 	ldr	r3, [fp, #-40]	; 0xffffffd8
    8e68:	e5933010 	ldr	r3, [r3, #16]
    8e6c:	e3530000 	cmp	r3, #0
    8e70:	1a000004 	bne	8e88 <block_filter+0x94c>
    8e74:	e3a00c02 	mov	r0, #512	; 0x200
    8e78:	eb001d3d 	bl	10374 <xmalloc>
    8e7c:	e1a02000 	mov	r2, r0
    8e80:	e51b3028 	ldr	r3, [fp, #-40]	; 0xffffffd8
    8e84:	e5832010 	str	r2, [r3, #16]
    8e88:	e51b3028 	ldr	r3, [fp, #-40]	; 0xffffffd8
    8e8c:	e5933010 	ldr	r3, [r3, #16]
    8e90:	e51b2024 	ldr	r2, [fp, #-36]	; 0xffffffdc
    8e94:	e51b1014 	ldr	r1, [fp, #-20]	; 0xffffffec
    8e98:	e1a00003 	mov	r0, r3
    8e9c:	eb001ddc 	bl	10614 <memcpy>
    8ea0:	e51b3028 	ldr	r3, [fp, #-40]	; 0xffffffd8
    8ea4:	e51b2024 	ldr	r2, [fp, #-36]	; 0xffffffdc
    8ea8:	e5832014 	str	r2, [r3, #20]
    8eac:	ea00009c 	b	9124 <block_filter+0xbe8>
    8eb0:	e51b303c 	ldr	r3, [fp, #-60]	; 0xffffffc4
    8eb4:	e3530001 	cmp	r3, #1
    8eb8:	1a000021 	bne	8f44 <block_filter+0xa08>
    8ebc:	e51b3028 	ldr	r3, [fp, #-40]	; 0xffffffd8
    8ec0:	e593300c 	ldr	r3, [r3, #12]
    8ec4:	e3530000 	cmp	r3, #0
    8ec8:	0a000003 	beq	8edc <block_filter+0x9a0>
    8ecc:	e51b3028 	ldr	r3, [fp, #-40]	; 0xffffffd8
    8ed0:	e3a02000 	mov	r2, #0
    8ed4:	e5832008 	str	r2, [r3, #8]
    8ed8:	ea00000f 	b	8f1c <block_filter+0x9e0>
    8edc:	e51b3028 	ldr	r3, [fp, #-40]	; 0xffffffd8
    8ee0:	e5933000 	ldr	r3, [r3]
    8ee4:	e3530000 	cmp	r3, #0
    8ee8:	1a000007 	bne	8f0c <block_filter+0x9d0>
    8eec:	e51b3028 	ldr	r3, [fp, #-40]	; 0xffffffd8
    8ef0:	e3a02000 	mov	r2, #0
    8ef4:	e5832004 	str	r2, [r3, #4]
    8ef8:	e51b3028 	ldr	r3, [fp, #-40]	; 0xffffffd8
    8efc:	e5932004 	ldr	r2, [r3, #4]
    8f00:	e51b3028 	ldr	r3, [fp, #-40]	; 0xffffffd8
    8f04:	e5832008 	str	r2, [r3, #8]
    8f08:	ea000003 	b	8f1c <block_filter+0x9e0>
    8f0c:	e51b3028 	ldr	r3, [fp, #-40]	; 0xffffffd8
    8f10:	e5932004 	ldr	r2, [r3, #4]
    8f14:	e51b3028 	ldr	r3, [fp, #-40]	; 0xffffffd8
    8f18:	e5832008 	str	r2, [r3, #8]
    8f1c:	e51b3028 	ldr	r3, [fp, #-40]	; 0xffffffd8
    8f20:	e3a02000 	mov	r2, #0
    8f24:	e583201c 	str	r2, [r3, #28]
    8f28:	e51b3028 	ldr	r3, [fp, #-40]	; 0xffffffd8
    8f2c:	e3a02000 	mov	r2, #0
    8f30:	e5832010 	str	r2, [r3, #16]
    8f34:	e51b3028 	ldr	r3, [fp, #-40]	; 0xffffffd8
    8f38:	e3a02000 	mov	r2, #0
    8f3c:	e5832014 	str	r2, [r3, #20]
    8f40:	ea000077 	b	9124 <block_filter+0xbe8>
    8f44:	e51b303c 	ldr	r3, [fp, #-60]	; 0xffffffc4
    8f48:	e3530005 	cmp	r3, #5
    8f4c:	0a000074 	beq	9124 <block_filter+0xbe8>
    8f50:	e51b303c 	ldr	r3, [fp, #-60]	; 0xffffffc4
    8f54:	e3530002 	cmp	r3, #2
    8f58:	1a000071 	bne	9124 <block_filter+0xbe8>
    8f5c:	e51b3028 	ldr	r3, [fp, #-40]	; 0xffffffd8
    8f60:	e5933000 	ldr	r3, [r3]
    8f64:	e3530002 	cmp	r3, #2
    8f68:	1a00006b 	bne	911c <block_filter+0xbe0>
    8f6c:	e51b3028 	ldr	r3, [fp, #-40]	; 0xffffffd8
    8f70:	e593300c 	ldr	r3, [r3, #12]
    8f74:	e3530000 	cmp	r3, #0
    8f78:	0a000067 	beq	911c <block_filter+0xbe0>
    8f7c:	e51b3028 	ldr	r3, [fp, #-40]	; 0xffffffd8
    8f80:	e5933014 	ldr	r3, [r3, #20]
    8f84:	e50b3030 	str	r3, [fp, #-48]	; 0xffffffd0
    8f88:	e51b3030 	ldr	r3, [fp, #-48]	; 0xffffffd0
    8f8c:	e35300bf 	cmp	r3, #191	; 0xbf
    8f90:	8a000004 	bhi	8fa8 <block_filter+0xa6c>
    8f94:	e51b1030 	ldr	r1, [fp, #-48]	; 0xffffffd0
    8f98:	e51b0040 	ldr	r0, [fp, #-64]	; 0xffffffc0
    8f9c:	eb000604 	bl	a7b4 <iobuf_writebyte>
    8fa0:	e50b0010 	str	r0, [fp, #-16]
    8fa4:	ea00003f 	b	90a8 <block_filter+0xb6c>
    8fa8:	e51b3030 	ldr	r3, [fp, #-48]	; 0xffffffd0
    8fac:	e3530d83 	cmp	r3, #8384	; 0x20c0
    8fb0:	2a000012 	bcs	9000 <block_filter+0xac4>
    8fb4:	e51b3030 	ldr	r3, [fp, #-48]	; 0xffffffd0
    8fb8:	e24330c0 	sub	r3, r3, #192	; 0xc0
    8fbc:	e1a03423 	lsr	r3, r3, #8
    8fc0:	e28330c0 	add	r3, r3, #192	; 0xc0
    8fc4:	e1a01003 	mov	r1, r3
    8fc8:	e51b0040 	ldr	r0, [fp, #-64]	; 0xffffffc0
    8fcc:	eb0005f8 	bl	a7b4 <iobuf_writebyte>
    8fd0:	e50b0010 	str	r0, [fp, #-16]
    8fd4:	e51b3010 	ldr	r3, [fp, #-16]
    8fd8:	e3530000 	cmp	r3, #0
    8fdc:	1a000031 	bne	90a8 <block_filter+0xb6c>
    8fe0:	e51b3030 	ldr	r3, [fp, #-48]	; 0xffffffd0
    8fe4:	e24330c0 	sub	r3, r3, #192	; 0xc0
    8fe8:	e6ef3073 	uxtb	r3, r3
    8fec:	e1a01003 	mov	r1, r3
    8ff0:	e51b0040 	ldr	r0, [fp, #-64]	; 0xffffffc0
    8ff4:	eb0005ee 	bl	a7b4 <iobuf_writebyte>
    8ff8:	e50b0010 	str	r0, [fp, #-16]
    8ffc:	ea000029 	b	90a8 <block_filter+0xb6c>
    9000:	e3a010ff 	mov	r1, #255	; 0xff
    9004:	e51b0040 	ldr	r0, [fp, #-64]	; 0xffffffc0
    9008:	eb0005e9 	bl	a7b4 <iobuf_writebyte>
    900c:	e50b0010 	str	r0, [fp, #-16]
    9010:	e51b3010 	ldr	r3, [fp, #-16]
    9014:	e3530000 	cmp	r3, #0
    9018:	1a000022 	bne	90a8 <block_filter+0xb6c>
    901c:	e51b3030 	ldr	r3, [fp, #-48]	; 0xffffffd0
    9020:	e1a03c23 	lsr	r3, r3, #24
    9024:	e1a01003 	mov	r1, r3
    9028:	e51b0040 	ldr	r0, [fp, #-64]	; 0xffffffc0
    902c:	eb0005e0 	bl	a7b4 <iobuf_writebyte>
    9030:	e50b0010 	str	r0, [fp, #-16]
    9034:	e51b3010 	ldr	r3, [fp, #-16]
    9038:	e3530000 	cmp	r3, #0
    903c:	1a000019 	bne	90a8 <block_filter+0xb6c>
    9040:	e51b3030 	ldr	r3, [fp, #-48]	; 0xffffffd0
    9044:	e1a03823 	lsr	r3, r3, #16
    9048:	e6ef3073 	uxtb	r3, r3
    904c:	e1a01003 	mov	r1, r3
    9050:	e51b0040 	ldr	r0, [fp, #-64]	; 0xffffffc0
    9054:	eb0005d6 	bl	a7b4 <iobuf_writebyte>
    9058:	e50b0010 	str	r0, [fp, #-16]
    905c:	e51b3010 	ldr	r3, [fp, #-16]
    9060:	e3530000 	cmp	r3, #0
    9064:	1a00000f 	bne	90a8 <block_filter+0xb6c>
    9068:	e51b3030 	ldr	r3, [fp, #-48]	; 0xffffffd0
    906c:	e1a03423 	lsr	r3, r3, #8
    9070:	e6ef3073 	uxtb	r3, r3
    9074:	e1a01003 	mov	r1, r3
    9078:	e51b0040 	ldr	r0, [fp, #-64]	; 0xffffffc0
    907c:	eb0005cc 	bl	a7b4 <iobuf_writebyte>
    9080:	e50b0010 	str	r0, [fp, #-16]
    9084:	e51b3010 	ldr	r3, [fp, #-16]
    9088:	e3530000 	cmp	r3, #0
    908c:	1a000005 	bne	90a8 <block_filter+0xb6c>
    9090:	e51b3030 	ldr	r3, [fp, #-48]	; 0xffffffd0
    9094:	e6ef3073 	uxtb	r3, r3
    9098:	e1a01003 	mov	r1, r3
    909c:	e51b0040 	ldr	r0, [fp, #-64]	; 0xffffffc0
    90a0:	eb0005c3 	bl	a7b4 <iobuf_writebyte>
    90a4:	e50b0010 	str	r0, [fp, #-16]
    90a8:	e51b3010 	ldr	r3, [fp, #-16]
    90ac:	e3530000 	cmp	r3, #0
    90b0:	1a000009 	bne	90dc <block_filter+0xba0>
    90b4:	e51b3030 	ldr	r3, [fp, #-48]	; 0xffffffd0
    90b8:	e3530000 	cmp	r3, #0
    90bc:	0a000006 	beq	90dc <block_filter+0xba0>
    90c0:	e51b3028 	ldr	r3, [fp, #-40]	; 0xffffffd8
    90c4:	e5933010 	ldr	r3, [r3, #16]
    90c8:	e51b2030 	ldr	r2, [fp, #-48]	; 0xffffffd0
    90cc:	e1a01003 	mov	r1, r3
    90d0:	e51b0040 	ldr	r0, [fp, #-64]	; 0xffffffc0
    90d4:	eb0005f7 	bl	a8b8 <iobuf_write>
    90d8:	e50b0010 	str	r0, [fp, #-16]
    90dc:	e51b3010 	ldr	r3, [fp, #-16]
    90e0:	e3530000 	cmp	r3, #0
    90e4:	0a000002 	beq	90f4 <block_filter+0xbb8>
    90e8:	ebfffbfc 	bl	80e0 <gpg_error_from_syserror>
    90ec:	e1a03000 	mov	r3, r0
    90f0:	e50b3010 	str	r3, [fp, #-16]
    90f4:	e51b3028 	ldr	r3, [fp, #-40]	; 0xffffffd8
    90f8:	e5933010 	ldr	r3, [r3, #16]
    90fc:	e1a00003 	mov	r0, r3
    9100:	eb001cec 	bl	104b8 <xfree>
    9104:	e51b3028 	ldr	r3, [fp, #-40]	; 0xffffffd8
    9108:	e3a02000 	mov	r2, #0
    910c:	e5832010 	str	r2, [r3, #16]
    9110:	e51b3028 	ldr	r3, [fp, #-40]	; 0xffffffd8
    9114:	e3a02000 	mov	r2, #0
    9118:	e5832014 	str	r2, [r3, #20]
    911c:	e51b0028 	ldr	r0, [fp, #-40]	; 0xffffffd8
    9120:	eb001ce4 	bl	104b8 <xfree>
    9124:	e51b3010 	ldr	r3, [fp, #-16]
    9128:	e1a00003 	mov	r0, r3
    912c:	e24bd004 	sub	sp, fp, #4
    9130:	e8bd8800 	pop	{fp, pc}

00009134 <iobuf_desc>:
    9134:	e92d4810 	push	{r4, fp, lr}
    9138:	e28db008 	add	fp, sp, #8
    913c:	e24dd01c 	sub	sp, sp, #28
    9140:	e50b0018 	str	r0, [fp, #-24]	; 0xffffffe8
    9144:	e50b101c 	str	r1, [fp, #-28]	; 0xffffffe4
    9148:	e3a03020 	mov	r3, #32
    914c:	e50b3010 	str	r3, [fp, #-16]
    9150:	e51b3018 	ldr	r3, [fp, #-24]	; 0xffffffe8
    9154:	e3530000 	cmp	r3, #0
    9158:	0a000003 	beq	916c <iobuf_desc+0x38>
    915c:	e51b3018 	ldr	r3, [fp, #-24]	; 0xffffffe8
    9160:	e593302c 	ldr	r3, [r3, #44]	; 0x2c
    9164:	e3530000 	cmp	r3, #0
    9168:	1a000005 	bne	9184 <iobuf_desc+0x50>
    916c:	e3a02002 	mov	r2, #2
    9170:	e3041710 	movw	r1, #18192	; 0x4710
    9174:	e3401001 	movt	r1, #1
    9178:	e51b001c 	ldr	r0, [fp, #-28]	; 0xffffffe4
    917c:	eb001d24 	bl	10614 <memcpy>
    9180:	ea000009 	b	91ac <iobuf_desc+0x78>
    9184:	e51b3018 	ldr	r3, [fp, #-24]	; 0xffffffe8
    9188:	e593402c 	ldr	r4, [r3, #44]	; 0x2c
    918c:	e51b3018 	ldr	r3, [fp, #-24]	; 0xffffffe8
    9190:	e5930030 	ldr	r0, [r3, #48]	; 0x30
    9194:	e24b3010 	sub	r3, fp, #16
    9198:	e58d3000 	str	r3, [sp]
    919c:	e51b301c 	ldr	r3, [fp, #-28]	; 0xffffffe4
    91a0:	e3a02000 	mov	r2, #0
    91a4:	e3a01005 	mov	r1, #5
    91a8:	e12fff34 	blx	r4
    91ac:	e51b301c 	ldr	r3, [fp, #-28]	; 0xffffffe4
    91b0:	e1a00003 	mov	r0, r3
    91b4:	e24bd008 	sub	sp, fp, #8
    91b8:	e8bd8810 	pop	{r4, fp, pc}

000091bc <print_chain>:
    91bc:	e92d4830 	push	{r4, r5, fp, lr}
    91c0:	e28db00c 	add	fp, sp, #12
    91c4:	e24dd038 	sub	sp, sp, #56	; 0x38
    91c8:	e50b0030 	str	r0, [fp, #-48]	; 0xffffffd0
    91cc:	e30e3004 	movw	r3, #57348	; 0xe004
    91d0:	e3403004 	movt	r3, #4
    91d4:	e5933000 	ldr	r3, [r3]
    91d8:	e3530000 	cmp	r3, #0
    91dc:	0a000020 	beq	9264 <print_chain+0xa8>
    91e0:	ea00001b 	b	9254 <print_chain+0x98>
    91e4:	e51b3030 	ldr	r3, [fp, #-48]	; 0xffffffd0
    91e8:	e5934040 	ldr	r4, [r3, #64]	; 0x40
    91ec:	e51b3030 	ldr	r3, [fp, #-48]	; 0xffffffd0
    91f0:	e5935044 	ldr	r5, [r3, #68]	; 0x44
    91f4:	e24b302c 	sub	r3, fp, #44	; 0x2c
    91f8:	e1a01003 	mov	r1, r3
    91fc:	e51b0030 	ldr	r0, [fp, #-48]	; 0xffffffd0
    9200:	ebffffcb 	bl	9134 <iobuf_desc>
    9204:	e1a01000 	mov	r1, r0
    9208:	e51b3030 	ldr	r3, [fp, #-48]	; 0xffffffd0
    920c:	e5933024 	ldr	r3, [r3, #36]	; 0x24
    9210:	e51b2030 	ldr	r2, [fp, #-48]	; 0xffffffd0
    9214:	e5922018 	ldr	r2, [r2, #24]
    9218:	e1a00002 	mov	r0, r2
    921c:	e51b2030 	ldr	r2, [fp, #-48]	; 0xffffffd0
    9220:	e592201c 	ldr	r2, [r2, #28]
    9224:	e58d2008 	str	r2, [sp, #8]
    9228:	e58d0004 	str	r0, [sp, #4]
    922c:	e58d3000 	str	r3, [sp]
    9230:	e1a03001 	mov	r3, r1
    9234:	e1a02005 	mov	r2, r5
    9238:	e1a01004 	mov	r1, r4
    923c:	e3040714 	movw	r0, #18196	; 0x4714
    9240:	e3400001 	movt	r0, #1
    9244:	eb002a7d 	bl	13c40 <tfp_printf>
    9248:	e51b3030 	ldr	r3, [fp, #-48]	; 0xffffffd0
    924c:	e593303c 	ldr	r3, [r3, #60]	; 0x3c
    9250:	e50b3030 	str	r3, [fp, #-48]	; 0xffffffd0
    9254:	e51b3030 	ldr	r3, [fp, #-48]	; 0xffffffd0
    9258:	e3530000 	cmp	r3, #0
    925c:	1affffe0 	bne	91e4 <print_chain+0x28>
    9260:	ea000000 	b	9268 <print_chain+0xac>
    9264:	e320f000 	nop	{0}
    9268:	e24bd00c 	sub	sp, fp, #12
    926c:	e8bd8830 	pop	{r4, r5, fp, pc}

00009270 <iobuf_alloc>:
    9270:	e92d4800 	push	{fp, lr}
    9274:	e28db004 	add	fp, sp, #4
    9278:	e24dd010 	sub	sp, sp, #16
    927c:	e50b0010 	str	r0, [fp, #-16]
    9280:	e50b1014 	str	r1, [fp, #-20]	; 0xffffffec
    9284:	e51b3014 	ldr	r3, [fp, #-20]	; 0xffffffec
    9288:	e3530000 	cmp	r3, #0
    928c:	1a000001 	bne	9298 <iobuf_alloc+0x28>
    9290:	e3a03a02 	mov	r3, #8192	; 0x2000
    9294:	e50b3014 	str	r3, [fp, #-20]	; 0xffffffec
    9298:	e3a01048 	mov	r1, #72	; 0x48
    929c:	e3a00001 	mov	r0, #1
    92a0:	eb001c62 	bl	10430 <xcalloc>
    92a4:	e50b0008 	str	r0, [fp, #-8]
    92a8:	e51b3010 	ldr	r3, [fp, #-16]
    92ac:	e6ef2073 	uxtb	r2, r3
    92b0:	e51b3008 	ldr	r3, [fp, #-8]
    92b4:	e5c32000 	strb	r2, [r3]
    92b8:	e51b0014 	ldr	r0, [fp, #-20]	; 0xffffffec
    92bc:	eb001c2c 	bl	10374 <xmalloc>
    92c0:	e1a02000 	mov	r2, r0
    92c4:	e51b3008 	ldr	r3, [fp, #-8]
    92c8:	e5832020 	str	r2, [r3, #32]
    92cc:	e51b3008 	ldr	r3, [fp, #-8]
    92d0:	e51b2014 	ldr	r2, [fp, #-20]	; 0xffffffec
    92d4:	e5832014 	str	r2, [r3, #20]
    92d8:	e30e3008 	movw	r3, #57352	; 0xe008
    92dc:	e3403004 	movt	r3, #4
    92e0:	e5933000 	ldr	r3, [r3]
    92e4:	e2832001 	add	r2, r3, #1
    92e8:	e30e3008 	movw	r3, #57352	; 0xe008
    92ec:	e3403004 	movt	r3, #4
    92f0:	e5832000 	str	r2, [r3]
    92f4:	e30e3008 	movw	r3, #57352	; 0xe008
    92f8:	e3403004 	movt	r3, #4
    92fc:	e5932000 	ldr	r2, [r3]
    9300:	e51b3008 	ldr	r3, [fp, #-8]
    9304:	e5832040 	str	r2, [r3, #64]	; 0x40
    9308:	e51b3008 	ldr	r3, [fp, #-8]
    930c:	e3a02000 	mov	r2, #0
    9310:	e5832044 	str	r2, [r3, #68]	; 0x44
    9314:	e51b3008 	ldr	r3, [fp, #-8]
    9318:	e3a02000 	mov	r2, #0
    931c:	e5832038 	str	r2, [r3, #56]	; 0x38
    9320:	e51b3008 	ldr	r3, [fp, #-8]
    9324:	e1a00003 	mov	r0, r3
    9328:	e24bd004 	sub	sp, fp, #4
    932c:	e8bd8800 	pop	{fp, pc}

00009330 <iobuf_temp_with_content>:
    9330:	e92d4800 	push	{fp, lr}
    9334:	e28db004 	add	fp, sp, #4
    9338:	e24dd010 	sub	sp, sp, #16
    933c:	e50b0010 	str	r0, [fp, #-16]
    9340:	e50b1014 	str	r1, [fp, #-20]	; 0xffffffec
    9344:	e51b1014 	ldr	r1, [fp, #-20]	; 0xffffffec
    9348:	e3a00001 	mov	r0, #1
    934c:	ebffffc7 	bl	9270 <iobuf_alloc>
    9350:	e50b000c 	str	r0, [fp, #-12]
    9354:	e3a03000 	mov	r3, #0
    9358:	e50b3008 	str	r3, [fp, #-8]
    935c:	ea00000b 	b	9390 <iobuf_temp_with_content+0x60>
    9360:	e51b3008 	ldr	r3, [fp, #-8]
    9364:	e51b2010 	ldr	r2, [fp, #-16]
    9368:	e0822003 	add	r2, r2, r3
    936c:	e51b300c 	ldr	r3, [fp, #-12]
    9370:	e5931020 	ldr	r1, [r3, #32]
    9374:	e51b3008 	ldr	r3, [fp, #-8]
    9378:	e0813003 	add	r3, r1, r3
    937c:	e5d22000 	ldrb	r2, [r2]
    9380:	e5c32000 	strb	r2, [r3]
    9384:	e51b3008 	ldr	r3, [fp, #-8]
    9388:	e2833001 	add	r3, r3, #1
    938c:	e50b3008 	str	r3, [fp, #-8]
    9390:	e51b3008 	ldr	r3, [fp, #-8]
    9394:	e51b2014 	ldr	r2, [fp, #-20]	; 0xffffffec
    9398:	e1520003 	cmp	r2, r3
    939c:	8affffef 	bhi	9360 <iobuf_temp_with_content+0x30>
    93a0:	e51b300c 	ldr	r3, [fp, #-12]
    93a4:	e51b2014 	ldr	r2, [fp, #-20]	; 0xffffffec
    93a8:	e583201c 	str	r2, [r3, #28]
    93ac:	e51b300c 	ldr	r3, [fp, #-12]
    93b0:	e1a00003 	mov	r0, r3
    93b4:	e24bd004 	sub	sp, fp, #4
    93b8:	e8bd8800 	pop	{fp, pc}

000093bc <do_iobuf_fdopen>:
    93bc:	e92d4800 	push	{fp, lr}
    93c0:	e28db004 	add	fp, sp, #4
    93c4:	e24dd028 	sub	sp, sp, #40	; 0x28
    93c8:	e50b0018 	str	r0, [fp, #-24]	; 0xffffffe8
    93cc:	e50b101c 	str	r1, [fp, #-28]	; 0xffffffe4
    93d0:	e50b2020 	str	r2, [fp, #-32]	; 0xffffffe0
    93d4:	e51b3018 	ldr	r3, [fp, #-24]	; 0xffffffe8
    93d8:	e50b3008 	str	r3, [fp, #-8]
    93dc:	e3a01077 	mov	r1, #119	; 0x77
    93e0:	e51b001c 	ldr	r0, [fp, #-28]	; 0xffffffe4
    93e4:	eb001d57 	bl	10948 <strchr>
    93e8:	e1a03000 	mov	r3, r0
    93ec:	e3530000 	cmp	r3, #0
    93f0:	0a000001 	beq	93fc <do_iobuf_fdopen+0x40>
    93f4:	e3a03002 	mov	r3, #2
    93f8:	ea000000 	b	9400 <do_iobuf_fdopen+0x44>
    93fc:	e3a03000 	mov	r3, #0
    9400:	e3a01a02 	mov	r1, #8192	; 0x2000
    9404:	e1a00003 	mov	r0, r3
    9408:	ebffff98 	bl	9270 <iobuf_alloc>
    940c:	e50b000c 	str	r0, [fp, #-12]
    9410:	e3a0004c 	mov	r0, #76	; 0x4c
    9414:	eb001bd6 	bl	10374 <xmalloc>
    9418:	e50b0010 	str	r0, [fp, #-16]
    941c:	e51b3010 	ldr	r3, [fp, #-16]
    9420:	e51b2008 	ldr	r2, [fp, #-8]
    9424:	e5832000 	str	r2, [r3]
    9428:	e51b3010 	ldr	r3, [fp, #-16]
    942c:	e3a02001 	mov	r2, #1
    9430:	e5832010 	str	r2, [r3, #16]
    9434:	e51b3010 	ldr	r3, [fp, #-16]
    9438:	e51b2020 	ldr	r2, [fp, #-32]	; 0xffffffe0
    943c:	e5832004 	str	r2, [r3, #4]
    9440:	e51b200c 	ldr	r2, [fp, #-12]
    9444:	e30a3d14 	movw	r3, #44308	; 0xad14
    9448:	e3403000 	movt	r3, #0
    944c:	e582302c 	str	r3, [r2, #44]	; 0x2c
    9450:	e51b300c 	ldr	r3, [fp, #-12]
    9454:	e51b2010 	ldr	r2, [fp, #-16]
    9458:	e5832030 	str	r2, [r3, #48]	; 0x30
    945c:	e24b3014 	sub	r3, fp, #20
    9460:	e58d3000 	str	r3, [sp]
    9464:	e3a03000 	mov	r3, #0
    9468:	e3a02000 	mov	r2, #0
    946c:	e3a01001 	mov	r1, #1
    9470:	e51b0010 	ldr	r0, [fp, #-16]
    9474:	eb000626 	bl	ad14 <file_filter>
    9478:	e3a03000 	mov	r3, #0
    947c:	e3a02001 	mov	r2, #1
    9480:	e3a01003 	mov	r1, #3
    9484:	e51b000c 	ldr	r0, [fp, #-12]
    9488:	eb000010 	bl	94d0 <iobuf_ioctl>
    948c:	e51b300c 	ldr	r3, [fp, #-12]
    9490:	e1a00003 	mov	r0, r3
    9494:	e24bd004 	sub	sp, fp, #4
    9498:	e8bd8800 	pop	{fp, pc}

0000949c <iobuf_fdopen>:
    949c:	e92d4800 	push	{fp, lr}
    94a0:	e28db004 	add	fp, sp, #4
    94a4:	e24dd008 	sub	sp, sp, #8
    94a8:	e50b0008 	str	r0, [fp, #-8]
    94ac:	e50b100c 	str	r1, [fp, #-12]
    94b0:	e3a02000 	mov	r2, #0
    94b4:	e51b100c 	ldr	r1, [fp, #-12]
    94b8:	e51b0008 	ldr	r0, [fp, #-8]
    94bc:	ebffffbe 	bl	93bc <do_iobuf_fdopen>
    94c0:	e1a03000 	mov	r3, r0
    94c4:	e1a00003 	mov	r0, r3
    94c8:	e24bd004 	sub	sp, fp, #4
    94cc:	e8bd8800 	pop	{fp, pc}

000094d0 <iobuf_ioctl>:
    94d0:	e92d4830 	push	{r4, r5, fp, lr}
    94d4:	e28db00c 	add	fp, sp, #12
    94d8:	e24dd048 	sub	sp, sp, #72	; 0x48
    94dc:	e50b0040 	str	r0, [fp, #-64]	; 0xffffffc0
    94e0:	e50b2048 	str	r2, [fp, #-72]	; 0xffffffb8
    94e4:	e50b304c 	str	r3, [fp, #-76]	; 0xffffffb4
    94e8:	e1a03001 	mov	r3, r1
    94ec:	e54b3041 	strb	r3, [fp, #-65]	; 0xffffffbf
    94f0:	e55b3041 	ldrb	r3, [fp, #-65]	; 0xffffffbf
    94f4:	e3530001 	cmp	r3, #1
    94f8:	1a000039 	bne	95e4 <iobuf_ioctl+0x114>
    94fc:	e30e3004 	movw	r3, #57348	; 0xe004
    9500:	e3403004 	movt	r3, #4
    9504:	e5933000 	ldr	r3, [r3]
    9508:	e3530000 	cmp	r3, #0
    950c:	0a000030 	beq	95d4 <iobuf_ioctl+0x104>
    9510:	e51b3040 	ldr	r3, [fp, #-64]	; 0xffffffc0
    9514:	e3530000 	cmp	r3, #0
    9518:	0a000002 	beq	9528 <iobuf_ioctl+0x58>
    951c:	e51b3040 	ldr	r3, [fp, #-64]	; 0xffffffc0
    9520:	e5934040 	ldr	r4, [r3, #64]	; 0x40
    9524:	ea000000 	b	952c <iobuf_ioctl+0x5c>
    9528:	e3e04000 	mvn	r4, #0
    952c:	e51b3040 	ldr	r3, [fp, #-64]	; 0xffffffc0
    9530:	e3530000 	cmp	r3, #0
    9534:	0a000002 	beq	9544 <iobuf_ioctl+0x74>
    9538:	e51b3040 	ldr	r3, [fp, #-64]	; 0xffffffc0
    953c:	e5935044 	ldr	r5, [r3, #68]	; 0x44
    9540:	ea000000 	b	9548 <iobuf_ioctl+0x78>
    9544:	e3e05000 	mvn	r5, #0
    9548:	e24b3038 	sub	r3, fp, #56	; 0x38
    954c:	e1a01003 	mov	r1, r3
    9550:	e51b0040 	ldr	r0, [fp, #-64]	; 0xffffffc0
    9554:	ebfffef6 	bl	9134 <iobuf_desc>
    9558:	e1a02000 	mov	r2, r0
    955c:	e51b3048 	ldr	r3, [fp, #-72]	; 0xffffffb8
    9560:	e58d3000 	str	r3, [sp]
    9564:	e1a03002 	mov	r3, r2
    9568:	e1a02005 	mov	r2, r5
    956c:	e1a01004 	mov	r1, r4
    9570:	e30407c4 	movw	r0, #18372	; 0x47c4
    9574:	e3400001 	movt	r0, #1
    9578:	eb0029b0 	bl	13c40 <tfp_printf>
    957c:	ea000014 	b	95d4 <iobuf_ioctl+0x104>
    9580:	e51b3040 	ldr	r3, [fp, #-64]	; 0xffffffc0
    9584:	e593303c 	ldr	r3, [r3, #60]	; 0x3c
    9588:	e3530000 	cmp	r3, #0
    958c:	1a00000d 	bne	95c8 <iobuf_ioctl+0xf8>
    9590:	e51b3040 	ldr	r3, [fp, #-64]	; 0xffffffc0
    9594:	e593202c 	ldr	r2, [r3, #44]	; 0x2c
    9598:	e30a3d14 	movw	r3, #44308	; 0xad14
    959c:	e3403000 	movt	r3, #0
    95a0:	e1520003 	cmp	r2, r3
    95a4:	1a000007 	bne	95c8 <iobuf_ioctl+0xf8>
    95a8:	e51b3040 	ldr	r3, [fp, #-64]	; 0xffffffc0
    95ac:	e5933030 	ldr	r3, [r3, #48]	; 0x30
    95b0:	e50b3018 	str	r3, [fp, #-24]	; 0xffffffe8
    95b4:	e51b3018 	ldr	r3, [fp, #-24]	; 0xffffffe8
    95b8:	e51b2048 	ldr	r2, [fp, #-72]	; 0xffffffb8
    95bc:	e5832004 	str	r2, [r3, #4]
    95c0:	e3a03000 	mov	r3, #0
    95c4:	ea0000b9 	b	98b0 <iobuf_ioctl+0x3e0>
    95c8:	e51b3040 	ldr	r3, [fp, #-64]	; 0xffffffc0
    95cc:	e593303c 	ldr	r3, [r3, #60]	; 0x3c
    95d0:	e50b3040 	str	r3, [fp, #-64]	; 0xffffffc0
    95d4:	e51b3040 	ldr	r3, [fp, #-64]	; 0xffffffc0
    95d8:	e3530000 	cmp	r3, #0
    95dc:	1affffe7 	bne	9580 <iobuf_ioctl+0xb0>
    95e0:	ea0000b1 	b	98ac <iobuf_ioctl+0x3dc>
    95e4:	e55b3041 	ldrb	r3, [fp, #-65]	; 0xffffffbf
    95e8:	e3530002 	cmp	r3, #2
    95ec:	1a000021 	bne	9678 <iobuf_ioctl+0x1a8>
    95f0:	e30e3004 	movw	r3, #57348	; 0xe004
    95f4:	e3403004 	movt	r3, #4
    95f8:	e5933000 	ldr	r3, [r3]
    95fc:	e3530000 	cmp	r3, #0
    9600:	0a00000a 	beq	9630 <iobuf_ioctl+0x160>
    9604:	e51b304c 	ldr	r3, [fp, #-76]	; 0xffffffb4
    9608:	e3530000 	cmp	r3, #0
    960c:	0a000001 	beq	9618 <iobuf_ioctl+0x148>
    9610:	e51b304c 	ldr	r3, [fp, #-76]	; 0xffffffb4
    9614:	ea000001 	b	9620 <iobuf_ioctl+0x150>
    9618:	e3043710 	movw	r3, #18192	; 0x4710
    961c:	e3403001 	movt	r3, #1
    9620:	e1a01003 	mov	r1, r3
    9624:	e30407ec 	movw	r0, #18412	; 0x47ec
    9628:	e3400001 	movt	r0, #1
    962c:	eb002983 	bl	13c40 <tfp_printf>
    9630:	e51b3040 	ldr	r3, [fp, #-64]	; 0xffffffc0
    9634:	e3530000 	cmp	r3, #0
    9638:	1a00009b 	bne	98ac <iobuf_ioctl+0x3dc>
    963c:	e51b3048 	ldr	r3, [fp, #-72]	; 0xffffffb8
    9640:	e3530000 	cmp	r3, #0
    9644:	1a000098 	bne	98ac <iobuf_ioctl+0x3dc>
    9648:	e51b304c 	ldr	r3, [fp, #-76]	; 0xffffffb4
    964c:	e3530000 	cmp	r3, #0
    9650:	0a000095 	beq	98ac <iobuf_ioctl+0x3dc>
    9654:	e51b004c 	ldr	r0, [fp, #-76]	; 0xffffffb4
    9658:	ebfffadb 	bl	81cc <fd_cache_invalidate>
    965c:	e1a03000 	mov	r3, r0
    9660:	e3530000 	cmp	r3, #0
    9664:	0a000001 	beq	9670 <iobuf_ioctl+0x1a0>
    9668:	e3e03000 	mvn	r3, #0
    966c:	ea00008f 	b	98b0 <iobuf_ioctl+0x3e0>
    9670:	e3a03000 	mov	r3, #0
    9674:	ea00008d 	b	98b0 <iobuf_ioctl+0x3e0>
    9678:	e55b3041 	ldrb	r3, [fp, #-65]	; 0xffffffbf
    967c:	e3530003 	cmp	r3, #3
    9680:	1a000039 	bne	976c <iobuf_ioctl+0x29c>
    9684:	e30e3004 	movw	r3, #57348	; 0xe004
    9688:	e3403004 	movt	r3, #4
    968c:	e5933000 	ldr	r3, [r3]
    9690:	e3530000 	cmp	r3, #0
    9694:	0a000030 	beq	975c <iobuf_ioctl+0x28c>
    9698:	e51b3040 	ldr	r3, [fp, #-64]	; 0xffffffc0
    969c:	e3530000 	cmp	r3, #0
    96a0:	0a000002 	beq	96b0 <iobuf_ioctl+0x1e0>
    96a4:	e51b3040 	ldr	r3, [fp, #-64]	; 0xffffffc0
    96a8:	e5934040 	ldr	r4, [r3, #64]	; 0x40
    96ac:	ea000000 	b	96b4 <iobuf_ioctl+0x1e4>
    96b0:	e3e04000 	mvn	r4, #0
    96b4:	e51b3040 	ldr	r3, [fp, #-64]	; 0xffffffc0
    96b8:	e3530000 	cmp	r3, #0
    96bc:	0a000002 	beq	96cc <iobuf_ioctl+0x1fc>
    96c0:	e51b3040 	ldr	r3, [fp, #-64]	; 0xffffffc0
    96c4:	e5935044 	ldr	r5, [r3, #68]	; 0x44
    96c8:	ea000000 	b	96d0 <iobuf_ioctl+0x200>
    96cc:	e3e05000 	mvn	r5, #0
    96d0:	e24b3038 	sub	r3, fp, #56	; 0x38
    96d4:	e1a01003 	mov	r1, r3
    96d8:	e51b0040 	ldr	r0, [fp, #-64]	; 0xffffffc0
    96dc:	ebfffe94 	bl	9134 <iobuf_desc>
    96e0:	e1a02000 	mov	r2, r0
    96e4:	e51b3048 	ldr	r3, [fp, #-72]	; 0xffffffb8
    96e8:	e58d3000 	str	r3, [sp]
    96ec:	e1a03002 	mov	r3, r2
    96f0:	e1a02005 	mov	r2, r5
    96f4:	e1a01004 	mov	r1, r4
    96f8:	e3040810 	movw	r0, #18448	; 0x4810
    96fc:	e3400001 	movt	r0, #1
    9700:	eb00294e 	bl	13c40 <tfp_printf>
    9704:	ea000014 	b	975c <iobuf_ioctl+0x28c>
    9708:	e51b3040 	ldr	r3, [fp, #-64]	; 0xffffffc0
    970c:	e593303c 	ldr	r3, [r3, #60]	; 0x3c
    9710:	e3530000 	cmp	r3, #0
    9714:	1a00000d 	bne	9750 <iobuf_ioctl+0x280>
    9718:	e51b3040 	ldr	r3, [fp, #-64]	; 0xffffffc0
    971c:	e593202c 	ldr	r2, [r3, #44]	; 0x2c
    9720:	e30a3d14 	movw	r3, #44308	; 0xad14
    9724:	e3403000 	movt	r3, #0
    9728:	e1520003 	cmp	r2, r3
    972c:	1a000007 	bne	9750 <iobuf_ioctl+0x280>
    9730:	e51b3040 	ldr	r3, [fp, #-64]	; 0xffffffc0
    9734:	e5933030 	ldr	r3, [r3, #48]	; 0x30
    9738:	e50b3014 	str	r3, [fp, #-20]	; 0xffffffec
    973c:	e51b3014 	ldr	r3, [fp, #-20]	; 0xffffffec
    9740:	e51b2048 	ldr	r2, [fp, #-72]	; 0xffffffb8
    9744:	e5832008 	str	r2, [r3, #8]
    9748:	e3a03000 	mov	r3, #0
    974c:	ea000057 	b	98b0 <iobuf_ioctl+0x3e0>
    9750:	e51b3040 	ldr	r3, [fp, #-64]	; 0xffffffc0
    9754:	e593303c 	ldr	r3, [r3, #60]	; 0x3c
    9758:	e50b3040 	str	r3, [fp, #-64]	; 0xffffffc0
    975c:	e51b3040 	ldr	r3, [fp, #-64]	; 0xffffffc0
    9760:	e3530000 	cmp	r3, #0
    9764:	1affffe7 	bne	9708 <iobuf_ioctl+0x238>
    9768:	ea00004f 	b	98ac <iobuf_ioctl+0x3dc>
    976c:	e55b3041 	ldrb	r3, [fp, #-65]	; 0xffffffbf
    9770:	e3530004 	cmp	r3, #4
    9774:	1a00000c 	bne	97ac <iobuf_ioctl+0x2dc>
    9778:	e51b3040 	ldr	r3, [fp, #-64]	; 0xffffffc0
    977c:	e3530000 	cmp	r3, #0
    9780:	1a000049 	bne	98ac <iobuf_ioctl+0x3dc>
    9784:	e51b3048 	ldr	r3, [fp, #-72]	; 0xffffffb8
    9788:	e3530000 	cmp	r3, #0
    978c:	1a000046 	bne	98ac <iobuf_ioctl+0x3dc>
    9790:	e51b304c 	ldr	r3, [fp, #-76]	; 0xffffffb4
    9794:	e3530000 	cmp	r3, #0
    9798:	0a000043 	beq	98ac <iobuf_ioctl+0x3dc>
    979c:	e51b004c 	ldr	r0, [fp, #-76]	; 0xffffffb4
    97a0:	ebfffac3 	bl	82b4 <fd_cache_synchronize>
    97a4:	e1a03000 	mov	r3, r0
    97a8:	ea000040 	b	98b0 <iobuf_ioctl+0x3e0>
    97ac:	e55b3041 	ldrb	r3, [fp, #-65]	; 0xffffffbf
    97b0:	e3530005 	cmp	r3, #5
    97b4:	1a00003c 	bne	98ac <iobuf_ioctl+0x3dc>
    97b8:	e30e3004 	movw	r3, #57348	; 0xe004
    97bc:	e3403004 	movt	r3, #4
    97c0:	e5933000 	ldr	r3, [r3]
    97c4:	e3530000 	cmp	r3, #0
    97c8:	0a000017 	beq	982c <iobuf_ioctl+0x35c>
    97cc:	e51b3040 	ldr	r3, [fp, #-64]	; 0xffffffc0
    97d0:	e3530000 	cmp	r3, #0
    97d4:	0a000002 	beq	97e4 <iobuf_ioctl+0x314>
    97d8:	e51b3040 	ldr	r3, [fp, #-64]	; 0xffffffc0
    97dc:	e5934040 	ldr	r4, [r3, #64]	; 0x40
    97e0:	ea000000 	b	97e8 <iobuf_ioctl+0x318>
    97e4:	e3e04000 	mvn	r4, #0
    97e8:	e51b3040 	ldr	r3, [fp, #-64]	; 0xffffffc0
    97ec:	e3530000 	cmp	r3, #0
    97f0:	0a000002 	beq	9800 <iobuf_ioctl+0x330>
    97f4:	e51b3040 	ldr	r3, [fp, #-64]	; 0xffffffc0
    97f8:	e5935044 	ldr	r5, [r3, #68]	; 0x44
    97fc:	ea000000 	b	9804 <iobuf_ioctl+0x334>
    9800:	e3e05000 	mvn	r5, #0
    9804:	e24b3038 	sub	r3, fp, #56	; 0x38
    9808:	e1a01003 	mov	r1, r3
    980c:	e51b0040 	ldr	r0, [fp, #-64]	; 0xffffffc0
    9810:	ebfffe47 	bl	9134 <iobuf_desc>
    9814:	e1a03000 	mov	r3, r0
    9818:	e1a02005 	mov	r2, r5
    981c:	e1a01004 	mov	r1, r4
    9820:	e3040838 	movw	r0, #18488	; 0x4838
    9824:	e3400001 	movt	r0, #1
    9828:	eb002904 	bl	13c40 <tfp_printf>
    982c:	e51b3040 	ldr	r3, [fp, #-64]	; 0xffffffc0
    9830:	e593202c 	ldr	r2, [r3, #44]	; 0x2c
    9834:	e30a3d14 	movw	r3, #44308	; 0xad14
    9838:	e3403000 	movt	r3, #0
    983c:	e1520003 	cmp	r2, r3
    9840:	1a000019 	bne	98ac <iobuf_ioctl+0x3dc>
    9844:	e51b304c 	ldr	r3, [fp, #-76]	; 0xffffffb4
    9848:	e3530000 	cmp	r3, #0
    984c:	0a000016 	beq	98ac <iobuf_ioctl+0x3dc>
    9850:	e51b3048 	ldr	r3, [fp, #-72]	; 0xffffffb8
    9854:	e3530000 	cmp	r3, #0
    9858:	0a000013 	beq	98ac <iobuf_ioctl+0x3dc>
    985c:	e3040858 	movw	r0, #18520	; 0x4858
    9860:	e3400001 	movt	r0, #1
    9864:	eb0028f5 	bl	13c40 <tfp_printf>
    9868:	e51b3040 	ldr	r3, [fp, #-64]	; 0xffffffc0
    986c:	e5933030 	ldr	r3, [r3, #48]	; 0x30
    9870:	e50b3010 	str	r3, [fp, #-16]
    9874:	e51b3048 	ldr	r3, [fp, #-72]	; 0xffffffb8
    9878:	e50b303c 	str	r3, [fp, #-60]	; 0xffffffc4
    987c:	e24b303c 	sub	r3, fp, #60	; 0x3c
    9880:	e58d3000 	str	r3, [sp]
    9884:	e51b304c 	ldr	r3, [fp, #-76]	; 0xffffffb4
    9888:	e3a02000 	mov	r2, #0
    988c:	e3a01007 	mov	r1, #7
    9890:	e51b0010 	ldr	r0, [fp, #-16]
    9894:	eb00051e 	bl	ad14 <file_filter>
    9898:	e1a03000 	mov	r3, r0
    989c:	e3530000 	cmp	r3, #0
    98a0:	1a000001 	bne	98ac <iobuf_ioctl+0x3dc>
    98a4:	e51b303c 	ldr	r3, [fp, #-60]	; 0xffffffc4
    98a8:	ea000000 	b	98b0 <iobuf_ioctl+0x3e0>
    98ac:	e3e03000 	mvn	r3, #0
    98b0:	e1a00003 	mov	r0, r3
    98b4:	e24bd00c 	sub	sp, fp, #12
    98b8:	e8bd8830 	pop	{r4, r5, fp, pc}

000098bc <iobuf_push_filter>:
    98bc:	e92d4800 	push	{fp, lr}
    98c0:	e28db004 	add	fp, sp, #4
    98c4:	e24dd010 	sub	sp, sp, #16
    98c8:	e50b0008 	str	r0, [fp, #-8]
    98cc:	e50b100c 	str	r1, [fp, #-12]
    98d0:	e50b2010 	str	r2, [fp, #-16]
    98d4:	e3a03000 	mov	r3, #0
    98d8:	e51b2010 	ldr	r2, [fp, #-16]
    98dc:	e51b100c 	ldr	r1, [fp, #-12]
    98e0:	e51b0008 	ldr	r0, [fp, #-8]
    98e4:	eb000003 	bl	98f8 <iobuf_push_filter2>
    98e8:	e1a03000 	mov	r3, r0
    98ec:	e1a00003 	mov	r0, r3
    98f0:	e24bd004 	sub	sp, fp, #4
    98f4:	e8bd8800 	pop	{fp, pc}

000098f8 <iobuf_push_filter2>:
    98f8:	e92d4810 	push	{r4, fp, lr}
    98fc:	e28db008 	add	fp, sp, #8
    9900:	e24dd04c 	sub	sp, sp, #76	; 0x4c
    9904:	e50b0040 	str	r0, [fp, #-64]	; 0xffffffc0
    9908:	e50b1044 	str	r1, [fp, #-68]	; 0xffffffbc
    990c:	e50b2048 	str	r2, [fp, #-72]	; 0xffffffb8
    9910:	e50b304c 	str	r3, [fp, #-76]	; 0xffffffb4
    9914:	e3a03000 	mov	r3, #0
    9918:	e50b3018 	str	r3, [fp, #-24]	; 0xffffffe8
    991c:	e3a03000 	mov	r3, #0
    9920:	e50b3010 	str	r3, [fp, #-16]
    9924:	e51b3040 	ldr	r3, [fp, #-64]	; 0xffffffc0
    9928:	e5d33000 	ldrb	r3, [r3]
    992c:	e3530002 	cmp	r3, #2
    9930:	1a000007 	bne	9954 <iobuf_push_filter2+0x5c>
    9934:	e51b0040 	ldr	r0, [fp, #-64]	; 0xffffffc0
    9938:	eb00026a 	bl	a2e8 <filter_flush>
    993c:	e50b0010 	str	r0, [fp, #-16]
    9940:	e51b3010 	ldr	r3, [fp, #-16]
    9944:	e3530000 	cmp	r3, #0
    9948:	0a000001 	beq	9954 <iobuf_push_filter2+0x5c>
    994c:	e51b3010 	ldr	r3, [fp, #-16]
    9950:	ea00007b 	b	9b44 <iobuf_push_filter2+0x24c>
    9954:	e51b3040 	ldr	r3, [fp, #-64]	; 0xffffffc0
    9958:	e5933044 	ldr	r3, [r3, #68]	; 0x44
    995c:	e353003f 	cmp	r3, #63	; 0x3f
    9960:	da000004 	ble	9978 <iobuf_push_filter2+0x80>
    9964:	e3040874 	movw	r0, #18548	; 0x4874
    9968:	e3400001 	movt	r0, #1
    996c:	eb0028b3 	bl	13c40 <tfp_printf>
    9970:	e3a03059 	mov	r3, #89	; 0x59
    9974:	ea000072 	b	9b44 <iobuf_push_filter2+0x24c>
    9978:	e3a00048 	mov	r0, #72	; 0x48
    997c:	eb001a7c 	bl	10374 <xmalloc>
    9980:	e50b0014 	str	r0, [fp, #-20]	; 0xffffffec
    9984:	e3a02048 	mov	r2, #72	; 0x48
    9988:	e51b1040 	ldr	r1, [fp, #-64]	; 0xffffffc0
    998c:	e51b0014 	ldr	r0, [fp, #-20]	; 0xffffffec
    9990:	eb001b1f 	bl	10614 <memcpy>
    9994:	e51b3040 	ldr	r3, [fp, #-64]	; 0xffffffc0
    9998:	e3a02000 	mov	r2, #0
    999c:	e583202c 	str	r2, [r3, #44]	; 0x2c
    99a0:	e51b3040 	ldr	r3, [fp, #-64]	; 0xffffffc0
    99a4:	e3a02000 	mov	r2, #0
    99a8:	e5832030 	str	r2, [r3, #48]	; 0x30
    99ac:	e51b3040 	ldr	r3, [fp, #-64]	; 0xffffffc0
    99b0:	e3a02000 	mov	r2, #0
    99b4:	e5832034 	str	r2, [r3, #52]	; 0x34
    99b8:	e51b3040 	ldr	r3, [fp, #-64]	; 0xffffffc0
    99bc:	e3a02000 	mov	r2, #0
    99c0:	e5832024 	str	r2, [r3, #36]	; 0x24
    99c4:	e51b3040 	ldr	r3, [fp, #-64]	; 0xffffffc0
    99c8:	e5d33000 	ldrb	r3, [r3]
    99cc:	e3530003 	cmp	r3, #3
    99d0:	1a000006 	bne	99f0 <iobuf_push_filter2+0xf8>
    99d4:	e51b3040 	ldr	r3, [fp, #-64]	; 0xffffffc0
    99d8:	e3a02002 	mov	r2, #2
    99dc:	e5c32000 	strb	r2, [r3]
    99e0:	e51b3040 	ldr	r3, [fp, #-64]	; 0xffffffc0
    99e4:	e3a02a02 	mov	r2, #8192	; 0x2000
    99e8:	e5832014 	str	r2, [r3, #20]
    99ec:	ea000009 	b	9a18 <iobuf_push_filter2+0x120>
    99f0:	e51b3040 	ldr	r3, [fp, #-64]	; 0xffffffc0
    99f4:	e5d33000 	ldrb	r3, [r3]
    99f8:	e3530001 	cmp	r3, #1
    99fc:	1a000005 	bne	9a18 <iobuf_push_filter2+0x120>
    9a00:	e51b3040 	ldr	r3, [fp, #-64]	; 0xffffffc0
    9a04:	e3a02000 	mov	r2, #0
    9a08:	e5c32000 	strb	r2, [r3]
    9a0c:	e51b3040 	ldr	r3, [fp, #-64]	; 0xffffffc0
    9a10:	e3a02a02 	mov	r2, #8192	; 0x2000
    9a14:	e5832014 	str	r2, [r3, #20]
    9a18:	e51b3040 	ldr	r3, [fp, #-64]	; 0xffffffc0
    9a1c:	e5933014 	ldr	r3, [r3, #20]
    9a20:	e1a00003 	mov	r0, r3
    9a24:	eb001a52 	bl	10374 <xmalloc>
    9a28:	e1a02000 	mov	r2, r0
    9a2c:	e51b3040 	ldr	r3, [fp, #-64]	; 0xffffffc0
    9a30:	e5832020 	str	r2, [r3, #32]
    9a34:	e51b3040 	ldr	r3, [fp, #-64]	; 0xffffffc0
    9a38:	e3a02000 	mov	r2, #0
    9a3c:	e583201c 	str	r2, [r3, #28]
    9a40:	e51b3040 	ldr	r3, [fp, #-64]	; 0xffffffc0
    9a44:	e3a02000 	mov	r2, #0
    9a48:	e5832018 	str	r2, [r3, #24]
    9a4c:	e51b3014 	ldr	r3, [fp, #-20]	; 0xffffffec
    9a50:	e593200c 	ldr	r2, [r3, #12]
    9a54:	e51b3014 	ldr	r3, [fp, #-20]	; 0xffffffec
    9a58:	e5933008 	ldr	r3, [r3, #8]
    9a5c:	e0822003 	add	r2, r2, r3
    9a60:	e51b3040 	ldr	r3, [fp, #-64]	; 0xffffffc0
    9a64:	e583200c 	str	r2, [r3, #12]
    9a68:	e51b3040 	ldr	r3, [fp, #-64]	; 0xffffffc0
    9a6c:	e3a02000 	mov	r2, #0
    9a70:	e5832008 	str	r2, [r3, #8]
    9a74:	e51b3040 	ldr	r3, [fp, #-64]	; 0xffffffc0
    9a78:	e5932008 	ldr	r2, [r3, #8]
    9a7c:	e51b3040 	ldr	r3, [fp, #-64]	; 0xffffffc0
    9a80:	e5832004 	str	r2, [r3, #4]
    9a84:	e51b3040 	ldr	r3, [fp, #-64]	; 0xffffffc0
    9a88:	e3a02000 	mov	r2, #0
    9a8c:	e5832010 	str	r2, [r3, #16]
    9a90:	e51b3040 	ldr	r3, [fp, #-64]	; 0xffffffc0
    9a94:	e51b2014 	ldr	r2, [fp, #-20]	; 0xffffffec
    9a98:	e583203c 	str	r2, [r3, #60]	; 0x3c
    9a9c:	e51b3040 	ldr	r3, [fp, #-64]	; 0xffffffc0
    9aa0:	e51b2044 	ldr	r2, [fp, #-68]	; 0xffffffbc
    9aa4:	e583202c 	str	r2, [r3, #44]	; 0x2c
    9aa8:	e51b3040 	ldr	r3, [fp, #-64]	; 0xffffffc0
    9aac:	e51b2048 	ldr	r2, [fp, #-72]	; 0xffffffb8
    9ab0:	e5832030 	str	r2, [r3, #48]	; 0x30
    9ab4:	e51b3040 	ldr	r3, [fp, #-64]	; 0xffffffc0
    9ab8:	e51b204c 	ldr	r2, [fp, #-76]	; 0xffffffb4
    9abc:	e5832034 	str	r2, [r3, #52]	; 0x34
    9ac0:	e51b3014 	ldr	r3, [fp, #-20]	; 0xffffffec
    9ac4:	e5933044 	ldr	r3, [r3, #68]	; 0x44
    9ac8:	e2832001 	add	r2, r3, #1
    9acc:	e51b3040 	ldr	r3, [fp, #-64]	; 0xffffffc0
    9ad0:	e5832044 	str	r2, [r3, #68]	; 0x44
    9ad4:	e30e3004 	movw	r3, #57348	; 0xe004
    9ad8:	e3403004 	movt	r3, #4
    9adc:	e5933000 	ldr	r3, [r3]
    9ae0:	e3530000 	cmp	r3, #0
    9ae4:	0a000001 	beq	9af0 <iobuf_push_filter2+0x1f8>
    9ae8:	e51b0040 	ldr	r0, [fp, #-64]	; 0xffffffc0
    9aec:	ebfffdb2 	bl	91bc <print_chain>
    9af0:	e51b3040 	ldr	r3, [fp, #-64]	; 0xffffffc0
    9af4:	e593302c 	ldr	r3, [r3, #44]	; 0x2c
    9af8:	e3530000 	cmp	r3, #0
    9afc:	0a000010 	beq	9b44 <iobuf_push_filter2+0x24c>
    9b00:	e51b3040 	ldr	r3, [fp, #-64]	; 0xffffffc0
    9b04:	e593402c 	ldr	r4, [r3, #44]	; 0x2c
    9b08:	e51b3040 	ldr	r3, [fp, #-64]	; 0xffffffc0
    9b0c:	e5930030 	ldr	r0, [r3, #48]	; 0x30
    9b10:	e51b3040 	ldr	r3, [fp, #-64]	; 0xffffffc0
    9b14:	e593203c 	ldr	r2, [r3, #60]	; 0x3c
    9b18:	e24b3018 	sub	r3, fp, #24
    9b1c:	e58d3000 	str	r3, [sp]
    9b20:	e3a03000 	mov	r3, #0
    9b24:	e3a01001 	mov	r1, #1
    9b28:	e12fff34 	blx	r4
    9b2c:	e50b0010 	str	r0, [fp, #-16]
    9b30:	e51b3010 	ldr	r3, [fp, #-16]
    9b34:	e3530000 	cmp	r3, #0
    9b38:	0a000001 	beq	9b44 <iobuf_push_filter2+0x24c>
    9b3c:	e51b3010 	ldr	r3, [fp, #-16]
    9b40:	eaffffff 	b	9b44 <iobuf_push_filter2+0x24c>
    9b44:	e1a00003 	mov	r0, r3
    9b48:	e24bd008 	sub	sp, fp, #8
    9b4c:	e8bd8810 	pop	{r4, fp, pc}

00009b50 <iobuf_pop_filter>:
    9b50:	e92d4830 	push	{r4, r5, fp, lr}
    9b54:	e28db00c 	add	fp, sp, #12
    9b58:	e24dd048 	sub	sp, sp, #72	; 0x48
    9b5c:	e50b0040 	str	r0, [fp, #-64]	; 0xffffffc0
    9b60:	e50b1044 	str	r1, [fp, #-68]	; 0xffffffbc
    9b64:	e50b2048 	str	r2, [fp, #-72]	; 0xffffffb8
    9b68:	e51b3040 	ldr	r3, [fp, #-64]	; 0xffffffc0
    9b6c:	e5933008 	ldr	r3, [r3, #8]
    9b70:	e1a01003 	mov	r1, r3
    9b74:	e30408a4 	movw	r0, #18596	; 0x48a4
    9b78:	e3400001 	movt	r0, #1
    9b7c:	eb00282f 	bl	13c40 <tfp_printf>
    9b80:	e3a03000 	mov	r3, #0
    9b84:	e50b3018 	str	r3, [fp, #-24]	; 0xffffffe8
    9b88:	e3a03000 	mov	r3, #0
    9b8c:	e50b3014 	str	r3, [fp, #-20]	; 0xffffffec
    9b90:	e30e3004 	movw	r3, #57348	; 0xe004
    9b94:	e3403004 	movt	r3, #4
    9b98:	e5933000 	ldr	r3, [r3]
    9b9c:	e3530000 	cmp	r3, #0
    9ba0:	0a00000d 	beq	9bdc <iobuf_pop_filter+0x8c>
    9ba4:	e51b3040 	ldr	r3, [fp, #-64]	; 0xffffffc0
    9ba8:	e5934040 	ldr	r4, [r3, #64]	; 0x40
    9bac:	e51b3040 	ldr	r3, [fp, #-64]	; 0xffffffc0
    9bb0:	e5935044 	ldr	r5, [r3, #68]	; 0x44
    9bb4:	e24b3038 	sub	r3, fp, #56	; 0x38
    9bb8:	e1a01003 	mov	r1, r3
    9bbc:	e51b0040 	ldr	r0, [fp, #-64]	; 0xffffffc0
    9bc0:	ebfffd5b 	bl	9134 <iobuf_desc>
    9bc4:	e1a03000 	mov	r3, r0
    9bc8:	e1a02005 	mov	r2, r5
    9bcc:	e1a01004 	mov	r1, r4
    9bd0:	e30408bc 	movw	r0, #18620	; 0x48bc
    9bd4:	e3400001 	movt	r0, #1
    9bd8:	eb002818 	bl	13c40 <tfp_printf>
    9bdc:	e51b3040 	ldr	r3, [fp, #-64]	; 0xffffffc0
    9be0:	e5d33000 	ldrb	r3, [r3]
    9be4:	e3530001 	cmp	r3, #1
    9be8:	0a000003 	beq	9bfc <iobuf_pop_filter+0xac>
    9bec:	e51b3040 	ldr	r3, [fp, #-64]	; 0xffffffc0
    9bf0:	e5d33000 	ldrb	r3, [r3]
    9bf4:	e3530003 	cmp	r3, #3
    9bf8:	1a00000a 	bne	9c28 <iobuf_pop_filter+0xd8>
    9bfc:	e51b3040 	ldr	r3, [fp, #-64]	; 0xffffffc0
    9c00:	e593303c 	ldr	r3, [r3, #60]	; 0x3c
    9c04:	e3530000 	cmp	r3, #0
    9c08:	1a000001 	bne	9c14 <iobuf_pop_filter+0xc4>
    9c0c:	e3a03001 	mov	r3, #1
    9c10:	ea000000 	b	9c18 <iobuf_pop_filter+0xc8>
    9c14:	e3a03000 	mov	r3, #0
    9c18:	e1a00003 	mov	r0, r3
    9c1c:	eb002807 	bl	13c40 <tfp_printf>
    9c20:	e3a03000 	mov	r3, #0
    9c24:	ea0000a7 	b	9ec8 <iobuf_pop_filter+0x378>
    9c28:	e51b3040 	ldr	r3, [fp, #-64]	; 0xffffffc0
    9c2c:	e593302c 	ldr	r3, [r3, #44]	; 0x2c
    9c30:	e3530000 	cmp	r3, #0
    9c34:	1a000018 	bne	9c9c <iobuf_pop_filter+0x14c>
    9c38:	e51b3040 	ldr	r3, [fp, #-64]	; 0xffffffc0
    9c3c:	e593303c 	ldr	r3, [r3, #60]	; 0x3c
    9c40:	e50b3010 	str	r3, [fp, #-16]
    9c44:	e51b0010 	ldr	r0, [fp, #-16]
    9c48:	eb0027fc 	bl	13c40 <tfp_printf>
    9c4c:	e51b3040 	ldr	r3, [fp, #-64]	; 0xffffffc0
    9c50:	e5933020 	ldr	r3, [r3, #32]
    9c54:	e1a00003 	mov	r0, r3
    9c58:	eb001a16 	bl	104b8 <xfree>
    9c5c:	e51b3040 	ldr	r3, [fp, #-64]	; 0xffffffc0
    9c60:	e5933038 	ldr	r3, [r3, #56]	; 0x38
    9c64:	e1a00003 	mov	r0, r3
    9c68:	eb001a12 	bl	104b8 <xfree>
    9c6c:	e3a01048 	mov	r1, #72	; 0x48
    9c70:	e30408d4 	movw	r0, #18644	; 0x48d4
    9c74:	e3400001 	movt	r0, #1
    9c78:	eb0027f0 	bl	13c40 <tfp_printf>
    9c7c:	e3a02048 	mov	r2, #72	; 0x48
    9c80:	e51b1010 	ldr	r1, [fp, #-16]
    9c84:	e51b0040 	ldr	r0, [fp, #-64]	; 0xffffffc0
    9c88:	eb001a61 	bl	10614 <memcpy>
    9c8c:	e51b0010 	ldr	r0, [fp, #-16]
    9c90:	eb001a08 	bl	104b8 <xfree>
    9c94:	e3a03000 	mov	r3, #0
    9c98:	ea00008a 	b	9ec8 <iobuf_pop_filter+0x378>
    9c9c:	e51b3040 	ldr	r3, [fp, #-64]	; 0xffffffc0
    9ca0:	e50b3010 	str	r3, [fp, #-16]
    9ca4:	ea00000f 	b	9ce8 <iobuf_pop_filter+0x198>
    9ca8:	e51b3010 	ldr	r3, [fp, #-16]
    9cac:	e593302c 	ldr	r3, [r3, #44]	; 0x2c
    9cb0:	e51b2044 	ldr	r2, [fp, #-68]	; 0xffffffbc
    9cb4:	e1520003 	cmp	r2, r3
    9cb8:	1a000007 	bne	9cdc <iobuf_pop_filter+0x18c>
    9cbc:	e51b3048 	ldr	r3, [fp, #-72]	; 0xffffffb8
    9cc0:	e3530000 	cmp	r3, #0
    9cc4:	0a00000a 	beq	9cf4 <iobuf_pop_filter+0x1a4>
    9cc8:	e51b3010 	ldr	r3, [fp, #-16]
    9ccc:	e5933030 	ldr	r3, [r3, #48]	; 0x30
    9cd0:	e51b2048 	ldr	r2, [fp, #-72]	; 0xffffffb8
    9cd4:	e1520003 	cmp	r2, r3
    9cd8:	0a000005 	beq	9cf4 <iobuf_pop_filter+0x1a4>
    9cdc:	e51b3010 	ldr	r3, [fp, #-16]
    9ce0:	e593303c 	ldr	r3, [r3, #60]	; 0x3c
    9ce4:	e50b3010 	str	r3, [fp, #-16]
    9ce8:	e51b3010 	ldr	r3, [fp, #-16]
    9cec:	e3530000 	cmp	r3, #0
    9cf0:	1affffec 	bne	9ca8 <iobuf_pop_filter+0x158>
    9cf4:	e51b3010 	ldr	r3, [fp, #-16]
    9cf8:	e3530000 	cmp	r3, #0
    9cfc:	1a000002 	bne	9d0c <iobuf_pop_filter+0x1bc>
    9d00:	e30408f4 	movw	r0, #18676	; 0x48f4
    9d04:	e3400001 	movt	r0, #1
    9d08:	eb0027cc 	bl	13c40 <tfp_printf>
    9d0c:	e51b3040 	ldr	r3, [fp, #-64]	; 0xffffffc0
    9d10:	e5d33000 	ldrb	r3, [r3]
    9d14:	e3530002 	cmp	r3, #2
    9d18:	1a000007 	bne	9d3c <iobuf_pop_filter+0x1ec>
    9d1c:	e51b0010 	ldr	r0, [fp, #-16]
    9d20:	eb000170 	bl	a2e8 <filter_flush>
    9d24:	e50b0014 	str	r0, [fp, #-20]	; 0xffffffec
    9d28:	e51b3014 	ldr	r3, [fp, #-20]	; 0xffffffec
    9d2c:	e3530000 	cmp	r3, #0
    9d30:	0a000001 	beq	9d3c <iobuf_pop_filter+0x1ec>
    9d34:	e51b3014 	ldr	r3, [fp, #-20]	; 0xffffffec
    9d38:	ea000062 	b	9ec8 <iobuf_pop_filter+0x378>
    9d3c:	e51b3010 	ldr	r3, [fp, #-16]
    9d40:	e593302c 	ldr	r3, [r3, #44]	; 0x2c
    9d44:	e3530000 	cmp	r3, #0
    9d48:	0a000010 	beq	9d90 <iobuf_pop_filter+0x240>
    9d4c:	e51b3010 	ldr	r3, [fp, #-16]
    9d50:	e593402c 	ldr	r4, [r3, #44]	; 0x2c
    9d54:	e51b3010 	ldr	r3, [fp, #-16]
    9d58:	e5930030 	ldr	r0, [r3, #48]	; 0x30
    9d5c:	e51b3010 	ldr	r3, [fp, #-16]
    9d60:	e593203c 	ldr	r2, [r3, #60]	; 0x3c
    9d64:	e24b3018 	sub	r3, fp, #24
    9d68:	e58d3000 	str	r3, [sp]
    9d6c:	e3a03000 	mov	r3, #0
    9d70:	e3a01002 	mov	r1, #2
    9d74:	e12fff34 	blx	r4
    9d78:	e50b0014 	str	r0, [fp, #-20]	; 0xffffffec
    9d7c:	e51b3014 	ldr	r3, [fp, #-20]	; 0xffffffec
    9d80:	e3530000 	cmp	r3, #0
    9d84:	0a000001 	beq	9d90 <iobuf_pop_filter+0x240>
    9d88:	e51b3014 	ldr	r3, [fp, #-20]	; 0xffffffec
    9d8c:	ea00004d 	b	9ec8 <iobuf_pop_filter+0x378>
    9d90:	e51b3010 	ldr	r3, [fp, #-16]
    9d94:	e5933030 	ldr	r3, [r3, #48]	; 0x30
    9d98:	e3530000 	cmp	r3, #0
    9d9c:	0a00000a 	beq	9dcc <iobuf_pop_filter+0x27c>
    9da0:	e51b3010 	ldr	r3, [fp, #-16]
    9da4:	e5933034 	ldr	r3, [r3, #52]	; 0x34
    9da8:	e3530000 	cmp	r3, #0
    9dac:	0a000006 	beq	9dcc <iobuf_pop_filter+0x27c>
    9db0:	e51b3010 	ldr	r3, [fp, #-16]
    9db4:	e5933030 	ldr	r3, [r3, #48]	; 0x30
    9db8:	e1a00003 	mov	r0, r3
    9dbc:	eb0019bd 	bl	104b8 <xfree>
    9dc0:	e51b3010 	ldr	r3, [fp, #-16]
    9dc4:	e3a02000 	mov	r2, #0
    9dc8:	e5832030 	str	r2, [r3, #48]	; 0x30
    9dcc:	e51b2040 	ldr	r2, [fp, #-64]	; 0xffffffc0
    9dd0:	e51b3010 	ldr	r3, [fp, #-16]
    9dd4:	e1520003 	cmp	r2, r3
    9dd8:	1a000007 	bne	9dfc <iobuf_pop_filter+0x2ac>
    9ddc:	e51b3010 	ldr	r3, [fp, #-16]
    9de0:	e593303c 	ldr	r3, [r3, #60]	; 0x3c
    9de4:	e3530000 	cmp	r3, #0
    9de8:	1a000003 	bne	9dfc <iobuf_pop_filter+0x2ac>
    9dec:	e3040924 	movw	r0, #18724	; 0x4924
    9df0:	e3400001 	movt	r0, #1
    9df4:	eb002791 	bl	13c40 <tfp_printf>
    9df8:	ea000031 	b	9ec4 <iobuf_pop_filter+0x374>
    9dfc:	e51b2040 	ldr	r2, [fp, #-64]	; 0xffffffc0
    9e00:	e51b3010 	ldr	r3, [fp, #-16]
    9e04:	e1520003 	cmp	r2, r3
    9e08:	1a000022 	bne	9e98 <iobuf_pop_filter+0x348>
    9e0c:	e51b3040 	ldr	r3, [fp, #-64]	; 0xffffffc0
    9e10:	e593303c 	ldr	r3, [r3, #60]	; 0x3c
    9e14:	e50b3010 	str	r3, [fp, #-16]
    9e18:	e51b3040 	ldr	r3, [fp, #-64]	; 0xffffffc0
    9e1c:	e5933020 	ldr	r3, [r3, #32]
    9e20:	e1a00003 	mov	r0, r3
    9e24:	eb0019a3 	bl	104b8 <xfree>
    9e28:	e51b3040 	ldr	r3, [fp, #-64]	; 0xffffffc0
    9e2c:	e5933038 	ldr	r3, [r3, #56]	; 0x38
    9e30:	e1a00003 	mov	r0, r3
    9e34:	eb00199f 	bl	104b8 <xfree>
    9e38:	e3a02048 	mov	r2, #72	; 0x48
    9e3c:	e51b1010 	ldr	r1, [fp, #-16]
    9e40:	e51b0040 	ldr	r0, [fp, #-64]	; 0xffffffc0
    9e44:	eb0019f2 	bl	10614 <memcpy>
    9e48:	e51b0010 	ldr	r0, [fp, #-16]
    9e4c:	eb001999 	bl	104b8 <xfree>
    9e50:	e3a01048 	mov	r1, #72	; 0x48
    9e54:	e3040954 	movw	r0, #18772	; 0x4954
    9e58:	e3400001 	movt	r0, #1
    9e5c:	eb002777 	bl	13c40 <tfp_printf>
    9e60:	e30e3004 	movw	r3, #57348	; 0xe004
    9e64:	e3403004 	movt	r3, #4
    9e68:	e5933000 	ldr	r3, [r3]
    9e6c:	e3530000 	cmp	r3, #0
    9e70:	0a000013 	beq	9ec4 <iobuf_pop_filter+0x374>
    9e74:	e51b3040 	ldr	r3, [fp, #-64]	; 0xffffffc0
    9e78:	e5931040 	ldr	r1, [r3, #64]	; 0x40
    9e7c:	e51b3040 	ldr	r3, [fp, #-64]	; 0xffffffc0
    9e80:	e5933044 	ldr	r3, [r3, #68]	; 0x44
    9e84:	e1a02003 	mov	r2, r3
    9e88:	e3040980 	movw	r0, #18816	; 0x4980
    9e8c:	e3400001 	movt	r0, #1
    9e90:	eb00276a 	bl	13c40 <tfp_printf>
    9e94:	ea00000a 	b	9ec4 <iobuf_pop_filter+0x374>
    9e98:	e51b3010 	ldr	r3, [fp, #-16]
    9e9c:	e593303c 	ldr	r3, [r3, #60]	; 0x3c
    9ea0:	e3530000 	cmp	r3, #0
    9ea4:	1a000003 	bne	9eb8 <iobuf_pop_filter+0x368>
    9ea8:	e304099c 	movw	r0, #18844	; 0x499c
    9eac:	e3400001 	movt	r0, #1
    9eb0:	eb002762 	bl	13c40 <tfp_printf>
    9eb4:	ea000002 	b	9ec4 <iobuf_pop_filter+0x374>
    9eb8:	e30409c8 	movw	r0, #18888	; 0x49c8
    9ebc:	e3400001 	movt	r0, #1
    9ec0:	eb00275e 	bl	13c40 <tfp_printf>
    9ec4:	e51b3014 	ldr	r3, [fp, #-20]	; 0xffffffec
    9ec8:	e1a00003 	mov	r0, r3
    9ecc:	e24bd00c 	sub	sp, fp, #12
    9ed0:	e8bd8830 	pop	{r4, r5, fp, pc}

00009ed4 <underflow>:
    9ed4:	e92d4800 	push	{fp, lr}
    9ed8:	e28db004 	add	fp, sp, #4
    9edc:	e24dd008 	sub	sp, sp, #8
    9ee0:	e50b0008 	str	r0, [fp, #-8]
    9ee4:	e50b100c 	str	r1, [fp, #-12]
    9ee8:	e3a02001 	mov	r2, #1
    9eec:	e51b100c 	ldr	r1, [fp, #-12]
    9ef0:	e51b0008 	ldr	r0, [fp, #-8]
    9ef4:	eb000003 	bl	9f08 <underflow_target>
    9ef8:	e1a03000 	mov	r3, r0
    9efc:	e1a00003 	mov	r0, r3
    9f00:	e24bd004 	sub	sp, fp, #4
    9f04:	e8bd8800 	pop	{fp, pc}

00009f08 <underflow_target>:
    9f08:	e92d4810 	push	{r4, fp, lr}
    9f0c:	e28db008 	add	fp, sp, #8
    9f10:	e24dd034 	sub	sp, sp, #52	; 0x34
    9f14:	e50b0028 	str	r0, [fp, #-40]	; 0xffffffd8
    9f18:	e50b102c 	str	r1, [fp, #-44]	; 0xffffffd4
    9f1c:	e50b2030 	str	r2, [fp, #-48]	; 0xffffffd0
    9f20:	e51b3028 	ldr	r3, [fp, #-40]	; 0xffffffd8
    9f24:	e5d33000 	ldrb	r3, [r3]
    9f28:	e3530001 	cmp	r3, #1
    9f2c:	1a000001 	bne	9f38 <underflow_target+0x30>
    9f30:	e3e03000 	mvn	r3, #0
    9f34:	ea0000e8 	b	a2dc <underflow_target+0x3d4>
    9f38:	e51b3028 	ldr	r3, [fp, #-40]	; 0xffffffd8
    9f3c:	e593201c 	ldr	r2, [r3, #28]
    9f40:	e51b3028 	ldr	r3, [fp, #-40]	; 0xffffffd8
    9f44:	e5933018 	ldr	r3, [r3, #24]
    9f48:	e0422003 	sub	r2, r2, r3
    9f4c:	e51b3028 	ldr	r3, [fp, #-40]	; 0xffffffd8
    9f50:	e583201c 	str	r2, [r3, #28]
    9f54:	e51b3028 	ldr	r3, [fp, #-40]	; 0xffffffd8
    9f58:	e5930020 	ldr	r0, [r3, #32]
    9f5c:	e51b3028 	ldr	r3, [fp, #-40]	; 0xffffffd8
    9f60:	e5932020 	ldr	r2, [r3, #32]
    9f64:	e51b3028 	ldr	r3, [fp, #-40]	; 0xffffffd8
    9f68:	e5933018 	ldr	r3, [r3, #24]
    9f6c:	e0821003 	add	r1, r2, r3
    9f70:	e51b3028 	ldr	r3, [fp, #-40]	; 0xffffffd8
    9f74:	e593301c 	ldr	r3, [r3, #28]
    9f78:	e1a02003 	mov	r2, r3
    9f7c:	eb0019c1 	bl	10688 <memmove>
    9f80:	e51b3028 	ldr	r3, [fp, #-40]	; 0xffffffd8
    9f84:	e3a02000 	mov	r2, #0
    9f88:	e5832018 	str	r2, [r3, #24]
    9f8c:	e51b3028 	ldr	r3, [fp, #-40]	; 0xffffffd8
    9f90:	e593301c 	ldr	r3, [r3, #28]
    9f94:	e51b2030 	ldr	r2, [fp, #-48]	; 0xffffffd0
    9f98:	e1520003 	cmp	r2, r3
    9f9c:	9a000025 	bls	a038 <underflow_target+0x130>
    9fa0:	e51b3028 	ldr	r3, [fp, #-40]	; 0xffffffd8
    9fa4:	e5933024 	ldr	r3, [r3, #36]	; 0x24
    9fa8:	e3530000 	cmp	r3, #0
    9fac:	0a000021 	beq	a038 <underflow_target+0x130>
    9fb0:	e51b302c 	ldr	r3, [fp, #-44]	; 0xffffffd4
    9fb4:	e3530000 	cmp	r3, #0
    9fb8:	1a000001 	bne	9fc4 <underflow_target+0xbc>
    9fbc:	e3e03000 	mvn	r3, #0
    9fc0:	ea0000c5 	b	a2dc <underflow_target+0x3d4>
    9fc4:	e51b3028 	ldr	r3, [fp, #-40]	; 0xffffffd8
    9fc8:	e593303c 	ldr	r3, [r3, #60]	; 0x3c
    9fcc:	e3530000 	cmp	r3, #0
    9fd0:	0a000013 	beq	a024 <underflow_target+0x11c>
    9fd4:	e51b3028 	ldr	r3, [fp, #-40]	; 0xffffffd8
    9fd8:	e593303c 	ldr	r3, [r3, #60]	; 0x3c
    9fdc:	e50b3014 	str	r3, [fp, #-20]	; 0xffffffec
    9fe0:	e51b3028 	ldr	r3, [fp, #-40]	; 0xffffffd8
    9fe4:	e5933020 	ldr	r3, [r3, #32]
    9fe8:	e1a00003 	mov	r0, r3
    9fec:	eb001931 	bl	104b8 <xfree>
    9ff0:	e51b3028 	ldr	r3, [fp, #-40]	; 0xffffffd8
    9ff4:	e5933038 	ldr	r3, [r3, #56]	; 0x38
    9ff8:	e1a00003 	mov	r0, r3
    9ffc:	eb00192d 	bl	104b8 <xfree>
    a000:	e3a02048 	mov	r2, #72	; 0x48
    a004:	e51b1014 	ldr	r1, [fp, #-20]	; 0xffffffec
    a008:	e51b0028 	ldr	r0, [fp, #-40]	; 0xffffffd8
    a00c:	eb001980 	bl	10614 <memcpy>
    a010:	e51b0014 	ldr	r0, [fp, #-20]	; 0xffffffec
    a014:	eb001927 	bl	104b8 <xfree>
    a018:	e51b0028 	ldr	r0, [fp, #-40]	; 0xffffffd8
    a01c:	ebfffc66 	bl	91bc <print_chain>
    a020:	ea000002 	b	a030 <underflow_target+0x128>
    a024:	e51b3028 	ldr	r3, [fp, #-40]	; 0xffffffd8
    a028:	e3a02000 	mov	r2, #0
    a02c:	e5832024 	str	r2, [r3, #36]	; 0x24
    a030:	e3e03000 	mvn	r3, #0
    a034:	ea0000a8 	b	a2dc <underflow_target+0x3d4>
    a038:	e51b3028 	ldr	r3, [fp, #-40]	; 0xffffffd8
    a03c:	e593301c 	ldr	r3, [r3, #28]
    a040:	e3530000 	cmp	r3, #0
    a044:	1a000005 	bne	a060 <underflow_target+0x158>
    a048:	e51b3028 	ldr	r3, [fp, #-40]	; 0xffffffd8
    a04c:	e5933028 	ldr	r3, [r3, #40]	; 0x28
    a050:	e3530000 	cmp	r3, #0
    a054:	0a000001 	beq	a060 <underflow_target+0x158>
    a058:	e3e03000 	mvn	r3, #0
    a05c:	ea00009e 	b	a2dc <underflow_target+0x3d4>
    a060:	e51b3028 	ldr	r3, [fp, #-40]	; 0xffffffd8
    a064:	e593302c 	ldr	r3, [r3, #44]	; 0x2c
    a068:	e3530000 	cmp	r3, #0
    a06c:	0a000089 	beq	a298 <underflow_target+0x390>
    a070:	e51b3028 	ldr	r3, [fp, #-40]	; 0xffffffd8
    a074:	e5933024 	ldr	r3, [r3, #36]	; 0x24
    a078:	e3530000 	cmp	r3, #0
    a07c:	1a000085 	bne	a298 <underflow_target+0x390>
    a080:	e51b3028 	ldr	r3, [fp, #-40]	; 0xffffffd8
    a084:	e5933028 	ldr	r3, [r3, #40]	; 0x28
    a088:	e3530000 	cmp	r3, #0
    a08c:	1a000081 	bne	a298 <underflow_target+0x390>
    a090:	e51b3028 	ldr	r3, [fp, #-40]	; 0xffffffd8
    a094:	e5932014 	ldr	r2, [r3, #20]
    a098:	e51b3028 	ldr	r3, [fp, #-40]	; 0xffffffd8
    a09c:	e593301c 	ldr	r3, [r3, #28]
    a0a0:	e0423003 	sub	r3, r2, r3
    a0a4:	e50b301c 	str	r3, [fp, #-28]	; 0xffffffe4
    a0a8:	e51b301c 	ldr	r3, [fp, #-28]	; 0xffffffe4
    a0ac:	e3530000 	cmp	r3, #0
    a0b0:	1a000002 	bne	a0c0 <underflow_target+0x1b8>
    a0b4:	e3a03000 	mov	r3, #0
    a0b8:	e50b3010 	str	r3, [fp, #-16]
    a0bc:	ea000011 	b	a108 <underflow_target+0x200>
    a0c0:	e51b3028 	ldr	r3, [fp, #-40]	; 0xffffffd8
    a0c4:	e593402c 	ldr	r4, [r3, #44]	; 0x2c
    a0c8:	e51b3028 	ldr	r3, [fp, #-40]	; 0xffffffd8
    a0cc:	e5930030 	ldr	r0, [r3, #48]	; 0x30
    a0d0:	e51b3028 	ldr	r3, [fp, #-40]	; 0xffffffd8
    a0d4:	e593103c 	ldr	r1, [r3, #60]	; 0x3c
    a0d8:	e51b3028 	ldr	r3, [fp, #-40]	; 0xffffffd8
    a0dc:	e5932020 	ldr	r2, [r3, #32]
    a0e0:	e51b3028 	ldr	r3, [fp, #-40]	; 0xffffffd8
    a0e4:	e593301c 	ldr	r3, [r3, #28]
    a0e8:	e0822003 	add	r2, r2, r3
    a0ec:	e24b301c 	sub	r3, fp, #28
    a0f0:	e58d3000 	str	r3, [sp]
    a0f4:	e1a03002 	mov	r3, r2
    a0f8:	e1a02001 	mov	r2, r1
    a0fc:	e3a01003 	mov	r1, #3
    a100:	e12fff34 	blx	r4
    a104:	e50b0010 	str	r0, [fp, #-16]
    a108:	e51b3028 	ldr	r3, [fp, #-40]	; 0xffffffd8
    a10c:	e593201c 	ldr	r2, [r3, #28]
    a110:	e51b301c 	ldr	r3, [fp, #-28]	; 0xffffffe4
    a114:	e0822003 	add	r2, r2, r3
    a118:	e51b3028 	ldr	r3, [fp, #-40]	; 0xffffffd8
    a11c:	e583201c 	str	r2, [r3, #28]
    a120:	e51b3010 	ldr	r3, [fp, #-16]
    a124:	e3730001 	cmn	r3, #1
    a128:	1a00004e 	bne	a268 <underflow_target+0x360>
    a12c:	e3a03000 	mov	r3, #0
    a130:	e50b3020 	str	r3, [fp, #-32]	; 0xffffffe0
    a134:	e51b3028 	ldr	r3, [fp, #-40]	; 0xffffffd8
    a138:	e593402c 	ldr	r4, [r3, #44]	; 0x2c
    a13c:	e51b3028 	ldr	r3, [fp, #-40]	; 0xffffffd8
    a140:	e5930030 	ldr	r0, [r3, #48]	; 0x30
    a144:	e51b3028 	ldr	r3, [fp, #-40]	; 0xffffffd8
    a148:	e593203c 	ldr	r2, [r3, #60]	; 0x3c
    a14c:	e24b3020 	sub	r3, fp, #32
    a150:	e58d3000 	str	r3, [sp]
    a154:	e3a03000 	mov	r3, #0
    a158:	e3a01002 	mov	r1, #2
    a15c:	e12fff34 	blx	r4
    a160:	e50b0010 	str	r0, [fp, #-16]
    a164:	e51b3010 	ldr	r3, [fp, #-16]
    a168:	e3530000 	cmp	r3, #0
    a16c:	0a000002 	beq	a17c <underflow_target+0x274>
    a170:	e30409fc 	movw	r0, #18940	; 0x49fc
    a174:	e3400001 	movt	r0, #1
    a178:	eb0026b0 	bl	13c40 <tfp_printf>
    a17c:	e51b3028 	ldr	r3, [fp, #-40]	; 0xffffffd8
    a180:	e5933030 	ldr	r3, [r3, #48]	; 0x30
    a184:	e3530000 	cmp	r3, #0
    a188:	0a000007 	beq	a1ac <underflow_target+0x2a4>
    a18c:	e51b3028 	ldr	r3, [fp, #-40]	; 0xffffffd8
    a190:	e5933034 	ldr	r3, [r3, #52]	; 0x34
    a194:	e3530000 	cmp	r3, #0
    a198:	0a000003 	beq	a1ac <underflow_target+0x2a4>
    a19c:	e51b3028 	ldr	r3, [fp, #-40]	; 0xffffffd8
    a1a0:	e5933030 	ldr	r3, [r3, #48]	; 0x30
    a1a4:	e1a00003 	mov	r0, r3
    a1a8:	eb0018c2 	bl	104b8 <xfree>
    a1ac:	e51b3028 	ldr	r3, [fp, #-40]	; 0xffffffd8
    a1b0:	e3a02000 	mov	r2, #0
    a1b4:	e5832030 	str	r2, [r3, #48]	; 0x30
    a1b8:	e51b3028 	ldr	r3, [fp, #-40]	; 0xffffffd8
    a1bc:	e3a02000 	mov	r2, #0
    a1c0:	e583202c 	str	r2, [r3, #44]	; 0x2c
    a1c4:	e51b3028 	ldr	r3, [fp, #-40]	; 0xffffffd8
    a1c8:	e3a02001 	mov	r2, #1
    a1cc:	e5832024 	str	r2, [r3, #36]	; 0x24
    a1d0:	e51b302c 	ldr	r3, [fp, #-44]	; 0xffffffd4
    a1d4:	e3530000 	cmp	r3, #0
    a1d8:	0a00001c 	beq	a250 <underflow_target+0x348>
    a1dc:	e51b3028 	ldr	r3, [fp, #-40]	; 0xffffffd8
    a1e0:	e593301c 	ldr	r3, [r3, #28]
    a1e4:	e3530000 	cmp	r3, #0
    a1e8:	1a000018 	bne	a250 <underflow_target+0x348>
    a1ec:	e51b3028 	ldr	r3, [fp, #-40]	; 0xffffffd8
    a1f0:	e593303c 	ldr	r3, [r3, #60]	; 0x3c
    a1f4:	e3530000 	cmp	r3, #0
    a1f8:	0a000014 	beq	a250 <underflow_target+0x348>
    a1fc:	e51b3028 	ldr	r3, [fp, #-40]	; 0xffffffd8
    a200:	e593303c 	ldr	r3, [r3, #60]	; 0x3c
    a204:	e50b3018 	str	r3, [fp, #-24]	; 0xffffffe8
    a208:	e51b3028 	ldr	r3, [fp, #-40]	; 0xffffffd8
    a20c:	e5933020 	ldr	r3, [r3, #32]
    a210:	e1a00003 	mov	r0, r3
    a214:	eb0018a7 	bl	104b8 <xfree>
    a218:	e51b3028 	ldr	r3, [fp, #-40]	; 0xffffffd8
    a21c:	e5933038 	ldr	r3, [r3, #56]	; 0x38
    a220:	e1a00003 	mov	r0, r3
    a224:	eb0018a3 	bl	104b8 <xfree>
    a228:	e3a02048 	mov	r2, #72	; 0x48
    a22c:	e51b1018 	ldr	r1, [fp, #-24]	; 0xffffffe8
    a230:	e51b0028 	ldr	r0, [fp, #-40]	; 0xffffffd8
    a234:	eb0018f6 	bl	10614 <memcpy>
    a238:	e51b0018 	ldr	r0, [fp, #-24]	; 0xffffffe8
    a23c:	eb00189d 	bl	104b8 <xfree>
    a240:	e51b0028 	ldr	r0, [fp, #-40]	; 0xffffffd8
    a244:	ebfffbdc 	bl	91bc <print_chain>
    a248:	e3e03000 	mvn	r3, #0
    a24c:	ea000022 	b	a2dc <underflow_target+0x3d4>
    a250:	e51b3028 	ldr	r3, [fp, #-40]	; 0xffffffd8
    a254:	e593301c 	ldr	r3, [r3, #28]
    a258:	e3530000 	cmp	r3, #0
    a25c:	1a00000d 	bne	a298 <underflow_target+0x390>
    a260:	e3e03000 	mvn	r3, #0
    a264:	ea00001c 	b	a2dc <underflow_target+0x3d4>
    a268:	e51b3010 	ldr	r3, [fp, #-16]
    a26c:	e3530000 	cmp	r3, #0
    a270:	0a000008 	beq	a298 <underflow_target+0x390>
    a274:	e51b3028 	ldr	r3, [fp, #-40]	; 0xffffffd8
    a278:	e51b2010 	ldr	r2, [fp, #-16]
    a27c:	e5832028 	str	r2, [r3, #40]	; 0x28
    a280:	e51b3028 	ldr	r3, [fp, #-40]	; 0xffffffd8
    a284:	e593301c 	ldr	r3, [r3, #28]
    a288:	e3530000 	cmp	r3, #0
    a28c:	1a000001 	bne	a298 <underflow_target+0x390>
    a290:	e3e03000 	mvn	r3, #0
    a294:	ea000010 	b	a2dc <underflow_target+0x3d4>
    a298:	e51b3028 	ldr	r3, [fp, #-40]	; 0xffffffd8
    a29c:	e5932018 	ldr	r2, [r3, #24]
    a2a0:	e51b3028 	ldr	r3, [fp, #-40]	; 0xffffffd8
    a2a4:	e593301c 	ldr	r3, [r3, #28]
    a2a8:	e1520003 	cmp	r2, r3
    a2ac:	2a000009 	bcs	a2d8 <underflow_target+0x3d0>
    a2b0:	e51b3028 	ldr	r3, [fp, #-40]	; 0xffffffd8
    a2b4:	e5932020 	ldr	r2, [r3, #32]
    a2b8:	e51b3028 	ldr	r3, [fp, #-40]	; 0xffffffd8
    a2bc:	e5933018 	ldr	r3, [r3, #24]
    a2c0:	e2830001 	add	r0, r3, #1
    a2c4:	e51b1028 	ldr	r1, [fp, #-40]	; 0xffffffd8
    a2c8:	e5810018 	str	r0, [r1, #24]
    a2cc:	e0823003 	add	r3, r2, r3
    a2d0:	e5d33000 	ldrb	r3, [r3]
    a2d4:	ea000000 	b	a2dc <underflow_target+0x3d4>
    a2d8:	e3e03000 	mvn	r3, #0
    a2dc:	e1a00003 	mov	r0, r3
    a2e0:	e24bd008 	sub	sp, fp, #8
    a2e4:	e8bd8810 	pop	{r4, fp, pc}

0000a2e8 <filter_flush>:
    a2e8:	e92d4810 	push	{r4, fp, lr}
    a2ec:	e28db008 	add	fp, sp, #8
    a2f0:	e24dd024 	sub	sp, sp, #36	; 0x24
    a2f4:	e50b0020 	str	r0, [fp, #-32]	; 0xffffffe0
    a2f8:	e51b3020 	ldr	r3, [fp, #-32]	; 0xffffffe0
    a2fc:	e5d33000 	ldrb	r3, [r3]
    a300:	e3530003 	cmp	r3, #3
    a304:	1a00001c 	bne	a37c <filter_flush+0x94>
    a308:	e51b3020 	ldr	r3, [fp, #-32]	; 0xffffffe0
    a30c:	e5933014 	ldr	r3, [r3, #20]
    a310:	e2833a02 	add	r3, r3, #8192	; 0x2000
    a314:	e50b3014 	str	r3, [fp, #-20]	; 0xffffffec
    a318:	e30e3004 	movw	r3, #57348	; 0xe004
    a31c:	e3403004 	movt	r3, #4
    a320:	e5933000 	ldr	r3, [r3]
    a324:	e3530000 	cmp	r3, #0
    a328:	0a000006 	beq	a348 <filter_flush+0x60>
    a32c:	e51b3020 	ldr	r3, [fp, #-32]	; 0xffffffe0
    a330:	e5933014 	ldr	r3, [r3, #20]
    a334:	e51b2014 	ldr	r2, [fp, #-20]	; 0xffffffec
    a338:	e1a01003 	mov	r1, r3
    a33c:	e3040a18 	movw	r0, #18968	; 0x4a18
    a340:	e3400001 	movt	r0, #1
    a344:	eb00263d 	bl	13c40 <tfp_printf>
    a348:	e51b3020 	ldr	r3, [fp, #-32]	; 0xffffffe0
    a34c:	e5933020 	ldr	r3, [r3, #32]
    a350:	e51b1014 	ldr	r1, [fp, #-20]	; 0xffffffec
    a354:	e1a00003 	mov	r0, r3
    a358:	eb001862 	bl	104e8 <xrealloc>
    a35c:	e1a02000 	mov	r2, r0
    a360:	e51b3020 	ldr	r3, [fp, #-32]	; 0xffffffe0
    a364:	e5832020 	str	r2, [r3, #32]
    a368:	e51b3020 	ldr	r3, [fp, #-32]	; 0xffffffe0
    a36c:	e51b2014 	ldr	r2, [fp, #-20]	; 0xffffffec
    a370:	e5832014 	str	r2, [r3, #20]
    a374:	e3a03000 	mov	r3, #0
    a378:	ea000037 	b	a45c <filter_flush+0x174>
    a37c:	e51b3020 	ldr	r3, [fp, #-32]	; 0xffffffe0
    a380:	e5d33000 	ldrb	r3, [r3]
    a384:	e3530002 	cmp	r3, #2
    a388:	0a000003 	beq	a39c <filter_flush+0xb4>
    a38c:	e3040a40 	movw	r0, #19008	; 0x4a40
    a390:	e3400001 	movt	r0, #1
    a394:	eb002629 	bl	13c40 <tfp_printf>
    a398:	ea000006 	b	a3b8 <filter_flush+0xd0>
    a39c:	e51b3020 	ldr	r3, [fp, #-32]	; 0xffffffe0
    a3a0:	e593302c 	ldr	r3, [r3, #44]	; 0x2c
    a3a4:	e3530000 	cmp	r3, #0
    a3a8:	1a000002 	bne	a3b8 <filter_flush+0xd0>
    a3ac:	e3040a5c 	movw	r0, #19036	; 0x4a5c
    a3b0:	e3400001 	movt	r0, #1
    a3b4:	eb002621 	bl	13c40 <tfp_printf>
    a3b8:	e51b3020 	ldr	r3, [fp, #-32]	; 0xffffffe0
    a3bc:	e593301c 	ldr	r3, [r3, #28]
    a3c0:	e50b3018 	str	r3, [fp, #-24]	; 0xffffffe8
    a3c4:	e51b3020 	ldr	r3, [fp, #-32]	; 0xffffffe0
    a3c8:	e593402c 	ldr	r4, [r3, #44]	; 0x2c
    a3cc:	e51b3020 	ldr	r3, [fp, #-32]	; 0xffffffe0
    a3d0:	e5930030 	ldr	r0, [r3, #48]	; 0x30
    a3d4:	e51b3020 	ldr	r3, [fp, #-32]	; 0xffffffe0
    a3d8:	e593203c 	ldr	r2, [r3, #60]	; 0x3c
    a3dc:	e51b3020 	ldr	r3, [fp, #-32]	; 0xffffffe0
    a3e0:	e5931020 	ldr	r1, [r3, #32]
    a3e4:	e24b3018 	sub	r3, fp, #24
    a3e8:	e58d3000 	str	r3, [sp]
    a3ec:	e1a03001 	mov	r3, r1
    a3f0:	e3a01004 	mov	r1, #4
    a3f4:	e12fff34 	blx	r4
    a3f8:	e50b0010 	str	r0, [fp, #-16]
    a3fc:	e51b3010 	ldr	r3, [fp, #-16]
    a400:	e3530000 	cmp	r3, #0
    a404:	1a00000a 	bne	a434 <filter_flush+0x14c>
    a408:	e51b3020 	ldr	r3, [fp, #-32]	; 0xffffffe0
    a40c:	e593201c 	ldr	r2, [r3, #28]
    a410:	e51b3018 	ldr	r3, [fp, #-24]	; 0xffffffe8
    a414:	e1520003 	cmp	r2, r3
    a418:	0a000005 	beq	a434 <filter_flush+0x14c>
    a41c:	e3040a78 	movw	r0, #19064	; 0x4a78
    a420:	e3400001 	movt	r0, #1
    a424:	eb002605 	bl	13c40 <tfp_printf>
    a428:	e3a0303f 	mov	r3, #63	; 0x3f
    a42c:	e50b3010 	str	r3, [fp, #-16]
    a430:	ea000005 	b	a44c <filter_flush+0x164>
    a434:	e51b3010 	ldr	r3, [fp, #-16]
    a438:	e3530000 	cmp	r3, #0
    a43c:	0a000002 	beq	a44c <filter_flush+0x164>
    a440:	e51b3020 	ldr	r3, [fp, #-32]	; 0xffffffe0
    a444:	e51b2010 	ldr	r2, [fp, #-16]
    a448:	e5832028 	str	r2, [r3, #40]	; 0x28
    a44c:	e51b3020 	ldr	r3, [fp, #-32]	; 0xffffffe0
    a450:	e3a02000 	mov	r2, #0
    a454:	e583201c 	str	r2, [r3, #28]
    a458:	e51b3010 	ldr	r3, [fp, #-16]
    a45c:	e1a00003 	mov	r0, r3
    a460:	e24bd008 	sub	sp, fp, #8
    a464:	e8bd8810 	pop	{r4, fp, pc}

0000a468 <iobuf_readbyte>:
    a468:	e92d4800 	push	{fp, lr}
    a46c:	e28db004 	add	fp, sp, #4
    a470:	e24dd010 	sub	sp, sp, #16
    a474:	e50b0010 	str	r0, [fp, #-16]
    a478:	e51b3010 	ldr	r3, [fp, #-16]
    a47c:	e5d33000 	ldrb	r3, [r3]
    a480:	e3530002 	cmp	r3, #2
    a484:	0a000003 	beq	a498 <iobuf_readbyte+0x30>
    a488:	e51b3010 	ldr	r3, [fp, #-16]
    a48c:	e5d33000 	ldrb	r3, [r3]
    a490:	e3530003 	cmp	r3, #3
    a494:	1a000004 	bne	a4ac <iobuf_readbyte+0x44>
    a498:	e3040a9c 	movw	r0, #19100	; 0x4a9c
    a49c:	e3400001 	movt	r0, #1
    a4a0:	eb0025e6 	bl	13c40 <tfp_printf>
    a4a4:	e3e03000 	mvn	r3, #0
    a4a8:	ea00002b 	b	a55c <iobuf_readbyte+0xf4>
    a4ac:	e51b3010 	ldr	r3, [fp, #-16]
    a4b0:	e5933004 	ldr	r3, [r3, #4]
    a4b4:	e3530000 	cmp	r3, #0
    a4b8:	0a000007 	beq	a4dc <iobuf_readbyte+0x74>
    a4bc:	e51b3010 	ldr	r3, [fp, #-16]
    a4c0:	e5932008 	ldr	r2, [r3, #8]
    a4c4:	e51b3010 	ldr	r3, [fp, #-16]
    a4c8:	e5933004 	ldr	r3, [r3, #4]
    a4cc:	e1520003 	cmp	r2, r3
    a4d0:	ba000001 	blt	a4dc <iobuf_readbyte+0x74>
    a4d4:	e3e03000 	mvn	r3, #0
    a4d8:	ea00001f 	b	a55c <iobuf_readbyte+0xf4>
    a4dc:	e51b3010 	ldr	r3, [fp, #-16]
    a4e0:	e5932018 	ldr	r2, [r3, #24]
    a4e4:	e51b3010 	ldr	r3, [fp, #-16]
    a4e8:	e593301c 	ldr	r3, [r3, #28]
    a4ec:	e1520003 	cmp	r2, r3
    a4f0:	2a00000a 	bcs	a520 <iobuf_readbyte+0xb8>
    a4f4:	e51b3010 	ldr	r3, [fp, #-16]
    a4f8:	e5932020 	ldr	r2, [r3, #32]
    a4fc:	e51b3010 	ldr	r3, [fp, #-16]
    a500:	e5933018 	ldr	r3, [r3, #24]
    a504:	e2830001 	add	r0, r3, #1
    a508:	e51b1010 	ldr	r1, [fp, #-16]
    a50c:	e5810018 	str	r0, [r1, #24]
    a510:	e0823003 	add	r3, r2, r3
    a514:	e5d33000 	ldrb	r3, [r3]
    a518:	e50b3008 	str	r3, [fp, #-8]
    a51c:	ea000008 	b	a544 <iobuf_readbyte+0xdc>
    a520:	e3a01001 	mov	r1, #1
    a524:	e51b0010 	ldr	r0, [fp, #-16]
    a528:	ebfffe69 	bl	9ed4 <underflow>
    a52c:	e50b0008 	str	r0, [fp, #-8]
    a530:	e51b3008 	ldr	r3, [fp, #-8]
    a534:	e3730001 	cmn	r3, #1
    a538:	1a000001 	bne	a544 <iobuf_readbyte+0xdc>
    a53c:	e3e03000 	mvn	r3, #0
    a540:	ea000005 	b	a55c <iobuf_readbyte+0xf4>
    a544:	e51b3010 	ldr	r3, [fp, #-16]
    a548:	e5933008 	ldr	r3, [r3, #8]
    a54c:	e2832001 	add	r2, r3, #1
    a550:	e51b3010 	ldr	r3, [fp, #-16]
    a554:	e5832008 	str	r2, [r3, #8]
    a558:	e51b3008 	ldr	r3, [fp, #-8]
    a55c:	e1a00003 	mov	r0, r3
    a560:	e24bd004 	sub	sp, fp, #4
    a564:	e8bd8800 	pop	{fp, pc}

0000a568 <iobuf_read>:
    a568:	e92d4800 	push	{fp, lr}
    a56c:	e28db004 	add	fp, sp, #4
    a570:	e24dd020 	sub	sp, sp, #32
    a574:	e50b0018 	str	r0, [fp, #-24]	; 0xffffffe8
    a578:	e50b101c 	str	r1, [fp, #-28]	; 0xffffffe4
    a57c:	e50b2020 	str	r2, [fp, #-32]	; 0xffffffe0
    a580:	e51b301c 	ldr	r3, [fp, #-28]	; 0xffffffe4
    a584:	e50b3008 	str	r3, [fp, #-8]
    a588:	e51b3018 	ldr	r3, [fp, #-24]	; 0xffffffe8
    a58c:	e5d33000 	ldrb	r3, [r3]
    a590:	e3530002 	cmp	r3, #2
    a594:	0a000003 	beq	a5a8 <iobuf_read+0x40>
    a598:	e51b3018 	ldr	r3, [fp, #-24]	; 0xffffffe8
    a59c:	e5d33000 	ldrb	r3, [r3]
    a5a0:	e3530003 	cmp	r3, #3
    a5a4:	1a000004 	bne	a5bc <iobuf_read+0x54>
    a5a8:	e3040acc 	movw	r0, #19148	; 0x4acc
    a5ac:	e3400001 	movt	r0, #1
    a5b0:	eb0025a2 	bl	13c40 <tfp_printf>
    a5b4:	e3e03000 	mvn	r3, #0
    a5b8:	ea00007a 	b	a7a8 <iobuf_read+0x240>
    a5bc:	e51b3018 	ldr	r3, [fp, #-24]	; 0xffffffe8
    a5c0:	e5933004 	ldr	r3, [r3, #4]
    a5c4:	e3530000 	cmp	r3, #0
    a5c8:	0a000022 	beq	a658 <iobuf_read+0xf0>
    a5cc:	e3a03000 	mov	r3, #0
    a5d0:	e50b300c 	str	r3, [fp, #-12]
    a5d4:	ea000017 	b	a638 <iobuf_read+0xd0>
    a5d8:	e51b0018 	ldr	r0, [fp, #-24]	; 0xffffffe8
    a5dc:	ebffffa1 	bl	a468 <iobuf_readbyte>
    a5e0:	e50b0014 	str	r0, [fp, #-20]	; 0xffffffec
    a5e4:	e51b3014 	ldr	r3, [fp, #-20]	; 0xffffffec
    a5e8:	e3730001 	cmn	r3, #1
    a5ec:	1a000004 	bne	a604 <iobuf_read+0x9c>
    a5f0:	e51b300c 	ldr	r3, [fp, #-12]
    a5f4:	e3530000 	cmp	r3, #0
    a5f8:	1a000013 	bne	a64c <iobuf_read+0xe4>
    a5fc:	e3e03000 	mvn	r3, #0
    a600:	ea000068 	b	a7a8 <iobuf_read+0x240>
    a604:	e51b3008 	ldr	r3, [fp, #-8]
    a608:	e3530000 	cmp	r3, #0
    a60c:	0a000006 	beq	a62c <iobuf_read+0xc4>
    a610:	e51b3014 	ldr	r3, [fp, #-20]	; 0xffffffec
    a614:	e6ef2073 	uxtb	r2, r3
    a618:	e51b3008 	ldr	r3, [fp, #-8]
    a61c:	e5c32000 	strb	r2, [r3]
    a620:	e51b3008 	ldr	r3, [fp, #-8]
    a624:	e2833001 	add	r3, r3, #1
    a628:	e50b3008 	str	r3, [fp, #-8]
    a62c:	e51b300c 	ldr	r3, [fp, #-12]
    a630:	e2833001 	add	r3, r3, #1
    a634:	e50b300c 	str	r3, [fp, #-12]
    a638:	e51b300c 	ldr	r3, [fp, #-12]
    a63c:	e51b2020 	ldr	r2, [fp, #-32]	; 0xffffffe0
    a640:	e1520003 	cmp	r2, r3
    a644:	8affffe3 	bhi	a5d8 <iobuf_read+0x70>
    a648:	ea000000 	b	a650 <iobuf_read+0xe8>
    a64c:	e320f000 	nop	{0}
    a650:	e51b300c 	ldr	r3, [fp, #-12]
    a654:	ea000053 	b	a7a8 <iobuf_read+0x240>
    a658:	e3a03000 	mov	r3, #0
    a65c:	e50b300c 	str	r3, [fp, #-12]
    a660:	e51b300c 	ldr	r3, [fp, #-12]
    a664:	e51b2020 	ldr	r2, [fp, #-32]	; 0xffffffe0
    a668:	e1520003 	cmp	r2, r3
    a66c:	9a000032 	bls	a73c <iobuf_read+0x1d4>
    a670:	e51b3018 	ldr	r3, [fp, #-24]	; 0xffffffe8
    a674:	e5932018 	ldr	r2, [r3, #24]
    a678:	e51b3018 	ldr	r3, [fp, #-24]	; 0xffffffe8
    a67c:	e593301c 	ldr	r3, [r3, #28]
    a680:	e1520003 	cmp	r2, r3
    a684:	2a00002c 	bcs	a73c <iobuf_read+0x1d4>
    a688:	e51b3018 	ldr	r3, [fp, #-24]	; 0xffffffe8
    a68c:	e593201c 	ldr	r2, [r3, #28]
    a690:	e51b3018 	ldr	r3, [fp, #-24]	; 0xffffffe8
    a694:	e5933018 	ldr	r3, [r3, #24]
    a698:	e0423003 	sub	r3, r2, r3
    a69c:	e50b3010 	str	r3, [fp, #-16]
    a6a0:	e51b300c 	ldr	r3, [fp, #-12]
    a6a4:	e51b2020 	ldr	r2, [fp, #-32]	; 0xffffffe0
    a6a8:	e0423003 	sub	r3, r2, r3
    a6ac:	e51b2010 	ldr	r2, [fp, #-16]
    a6b0:	e1520003 	cmp	r2, r3
    a6b4:	9a000003 	bls	a6c8 <iobuf_read+0x160>
    a6b8:	e51b300c 	ldr	r3, [fp, #-12]
    a6bc:	e51b2020 	ldr	r2, [fp, #-32]	; 0xffffffe0
    a6c0:	e0423003 	sub	r3, r2, r3
    a6c4:	e50b3010 	str	r3, [fp, #-16]
    a6c8:	e51b3008 	ldr	r3, [fp, #-8]
    a6cc:	e3530000 	cmp	r3, #0
    a6d0:	0a000008 	beq	a6f8 <iobuf_read+0x190>
    a6d4:	e51b3018 	ldr	r3, [fp, #-24]	; 0xffffffe8
    a6d8:	e5932020 	ldr	r2, [r3, #32]
    a6dc:	e51b3018 	ldr	r3, [fp, #-24]	; 0xffffffe8
    a6e0:	e5933018 	ldr	r3, [r3, #24]
    a6e4:	e0823003 	add	r3, r2, r3
    a6e8:	e51b2010 	ldr	r2, [fp, #-16]
    a6ec:	e1a01003 	mov	r1, r3
    a6f0:	e51b0008 	ldr	r0, [fp, #-8]
    a6f4:	eb0017c6 	bl	10614 <memcpy>
    a6f8:	e51b200c 	ldr	r2, [fp, #-12]
    a6fc:	e51b3010 	ldr	r3, [fp, #-16]
    a700:	e0823003 	add	r3, r2, r3
    a704:	e50b300c 	str	r3, [fp, #-12]
    a708:	e51b3018 	ldr	r3, [fp, #-24]	; 0xffffffe8
    a70c:	e5932018 	ldr	r2, [r3, #24]
    a710:	e51b3010 	ldr	r3, [fp, #-16]
    a714:	e0822003 	add	r2, r2, r3
    a718:	e51b3018 	ldr	r3, [fp, #-24]	; 0xffffffe8
    a71c:	e5832018 	str	r2, [r3, #24]
    a720:	e51b3008 	ldr	r3, [fp, #-8]
    a724:	e3530000 	cmp	r3, #0
    a728:	0a000003 	beq	a73c <iobuf_read+0x1d4>
    a72c:	e51b2008 	ldr	r2, [fp, #-8]
    a730:	e51b3010 	ldr	r3, [fp, #-16]
    a734:	e0823003 	add	r3, r2, r3
    a738:	e50b3008 	str	r3, [fp, #-8]
    a73c:	e51b300c 	ldr	r3, [fp, #-12]
    a740:	e51b2020 	ldr	r2, [fp, #-32]	; 0xffffffe0
    a744:	e1520003 	cmp	r2, r3
    a748:	9a00000b 	bls	a77c <iobuf_read+0x214>
    a74c:	e51b3008 	ldr	r3, [fp, #-8]
    a750:	e3530000 	cmp	r3, #0
    a754:	0a000005 	beq	a770 <iobuf_read+0x208>
    a758:	e51b3008 	ldr	r3, [fp, #-8]
    a75c:	e2832001 	add	r2, r3, #1
    a760:	e50b2008 	str	r2, [fp, #-8]
    a764:	e51b2014 	ldr	r2, [fp, #-20]	; 0xffffffec
    a768:	e6ef2072 	uxtb	r2, r2
    a76c:	e5c32000 	strb	r2, [r3]
    a770:	e51b300c 	ldr	r3, [fp, #-12]
    a774:	e2833001 	add	r3, r3, #1
    a778:	e50b300c 	str	r3, [fp, #-12]
    a77c:	e51b300c 	ldr	r3, [fp, #-12]
    a780:	e51b2020 	ldr	r2, [fp, #-32]	; 0xffffffe0
    a784:	e1520003 	cmp	r2, r3
    a788:	8affffb4 	bhi	a660 <iobuf_read+0xf8>
    a78c:	e51b3018 	ldr	r3, [fp, #-24]	; 0xffffffe8
    a790:	e5932008 	ldr	r2, [r3, #8]
    a794:	e51b300c 	ldr	r3, [fp, #-12]
    a798:	e0822003 	add	r2, r2, r3
    a79c:	e51b3018 	ldr	r3, [fp, #-24]	; 0xffffffe8
    a7a0:	e5832008 	str	r2, [r3, #8]
    a7a4:	e51b300c 	ldr	r3, [fp, #-12]
    a7a8:	e1a00003 	mov	r0, r3
    a7ac:	e24bd004 	sub	sp, fp, #4
    a7b0:	e8bd8800 	pop	{fp, pc}

0000a7b4 <iobuf_writebyte>:
    a7b4:	e92d4800 	push	{fp, lr}
    a7b8:	e28db004 	add	fp, sp, #4
    a7bc:	e24dd010 	sub	sp, sp, #16
    a7c0:	e50b0010 	str	r0, [fp, #-16]
    a7c4:	e50b1014 	str	r1, [fp, #-20]	; 0xffffffec
    a7c8:	e51b1014 	ldr	r1, [fp, #-20]	; 0xffffffec
    a7cc:	e3040af8 	movw	r0, #19192	; 0x4af8
    a7d0:	e3400001 	movt	r0, #1
    a7d4:	eb002519 	bl	13c40 <tfp_printf>
    a7d8:	e51b3010 	ldr	r3, [fp, #-16]
    a7dc:	e5d33000 	ldrb	r3, [r3]
    a7e0:	e3530000 	cmp	r3, #0
    a7e4:	0a000003 	beq	a7f8 <iobuf_writebyte+0x44>
    a7e8:	e51b3010 	ldr	r3, [fp, #-16]
    a7ec:	e5d33000 	ldrb	r3, [r3]
    a7f0:	e3530001 	cmp	r3, #1
    a7f4:	1a000004 	bne	a80c <iobuf_writebyte+0x58>
    a7f8:	e3040b10 	movw	r0, #19216	; 0x4b10
    a7fc:	e3400001 	movt	r0, #1
    a800:	eb00250e 	bl	13c40 <tfp_printf>
    a804:	e3e03000 	mvn	r3, #0
    a808:	ea000027 	b	a8ac <iobuf_writebyte+0xf8>
    a80c:	e51b3010 	ldr	r3, [fp, #-16]
    a810:	e593201c 	ldr	r2, [r3, #28]
    a814:	e51b3010 	ldr	r3, [fp, #-16]
    a818:	e5933014 	ldr	r3, [r3, #20]
    a81c:	e1520003 	cmp	r2, r3
    a820:	1a00000a 	bne	a850 <iobuf_writebyte+0x9c>
    a824:	e51b0010 	ldr	r0, [fp, #-16]
    a828:	ebfffeae 	bl	a2e8 <filter_flush>
    a82c:	e50b0008 	str	r0, [fp, #-8]
    a830:	e51b3008 	ldr	r3, [fp, #-8]
    a834:	e3530000 	cmp	r3, #0
    a838:	0a000004 	beq	a850 <iobuf_writebyte+0x9c>
    a83c:	e3040b40 	movw	r0, #19264	; 0x4b40
    a840:	e3400001 	movt	r0, #1
    a844:	eb0024fd 	bl	13c40 <tfp_printf>
    a848:	e51b3008 	ldr	r3, [fp, #-8]
    a84c:	ea000016 	b	a8ac <iobuf_writebyte+0xf8>
    a850:	e51b3010 	ldr	r3, [fp, #-16]
    a854:	e593201c 	ldr	r2, [r3, #28]
    a858:	e51b3010 	ldr	r3, [fp, #-16]
    a85c:	e5933014 	ldr	r3, [r3, #20]
    a860:	e1520003 	cmp	r2, r3
    a864:	2a000001 	bcs	a870 <iobuf_writebyte+0xbc>
    a868:	e3a03001 	mov	r3, #1
    a86c:	ea000000 	b	a874 <iobuf_writebyte+0xc0>
    a870:	e3a03000 	mov	r3, #0
    a874:	e1a00003 	mov	r0, r3
    a878:	eb0024f0 	bl	13c40 <tfp_printf>
    a87c:	e51b3010 	ldr	r3, [fp, #-16]
    a880:	e5932020 	ldr	r2, [r3, #32]
    a884:	e51b3010 	ldr	r3, [fp, #-16]
    a888:	e593301c 	ldr	r3, [r3, #28]
    a88c:	e2830001 	add	r0, r3, #1
    a890:	e51b1010 	ldr	r1, [fp, #-16]
    a894:	e581001c 	str	r0, [r1, #28]
    a898:	e0823003 	add	r3, r2, r3
    a89c:	e51b2014 	ldr	r2, [fp, #-20]	; 0xffffffec
    a8a0:	e6ef2072 	uxtb	r2, r2
    a8a4:	e5c32000 	strb	r2, [r3]
    a8a8:	e3a03000 	mov	r3, #0
    a8ac:	e1a00003 	mov	r0, r3
    a8b0:	e24bd004 	sub	sp, fp, #4
    a8b4:	e8bd8800 	pop	{fp, pc}

0000a8b8 <iobuf_write>:
    a8b8:	e92d4800 	push	{fp, lr}
    a8bc:	e28db004 	add	fp, sp, #4
    a8c0:	e24dd020 	sub	sp, sp, #32
    a8c4:	e50b0018 	str	r0, [fp, #-24]	; 0xffffffe8
    a8c8:	e50b101c 	str	r1, [fp, #-28]	; 0xffffffe4
    a8cc:	e50b2020 	str	r2, [fp, #-32]	; 0xffffffe0
    a8d0:	e51b1020 	ldr	r1, [fp, #-32]	; 0xffffffe0
    a8d4:	e3040b50 	movw	r0, #19280	; 0x4b50
    a8d8:	e3400001 	movt	r0, #1
    a8dc:	eb0024d7 	bl	13c40 <tfp_printf>
    a8e0:	e51b301c 	ldr	r3, [fp, #-28]	; 0xffffffe4
    a8e4:	e50b3008 	str	r3, [fp, #-8]
    a8e8:	e51b3018 	ldr	r3, [fp, #-24]	; 0xffffffe8
    a8ec:	e5d33000 	ldrb	r3, [r3]
    a8f0:	e3530000 	cmp	r3, #0
    a8f4:	0a000003 	beq	a908 <iobuf_write+0x50>
    a8f8:	e51b3018 	ldr	r3, [fp, #-24]	; 0xffffffe8
    a8fc:	e5d33000 	ldrb	r3, [r3]
    a900:	e3530001 	cmp	r3, #1
    a904:	1a000004 	bne	a91c <iobuf_write+0x64>
    a908:	e3040b60 	movw	r0, #19296	; 0x4b60
    a90c:	e3400001 	movt	r0, #1
    a910:	eb0024ca 	bl	13c40 <tfp_printf>
    a914:	e3e03000 	mvn	r3, #0
    a918:	ea00003e 	b	aa18 <iobuf_write+0x160>
    a91c:	e51b3020 	ldr	r3, [fp, #-32]	; 0xffffffe0
    a920:	e3530000 	cmp	r3, #0
    a924:	0a00002c 	beq	a9dc <iobuf_write+0x124>
    a928:	e51b3018 	ldr	r3, [fp, #-24]	; 0xffffffe8
    a92c:	e593201c 	ldr	r2, [r3, #28]
    a930:	e51b3018 	ldr	r3, [fp, #-24]	; 0xffffffe8
    a934:	e5933014 	ldr	r3, [r3, #20]
    a938:	e1520003 	cmp	r2, r3
    a93c:	2a000026 	bcs	a9dc <iobuf_write+0x124>
    a940:	e51b3018 	ldr	r3, [fp, #-24]	; 0xffffffe8
    a944:	e5932014 	ldr	r2, [r3, #20]
    a948:	e51b3018 	ldr	r3, [fp, #-24]	; 0xffffffe8
    a94c:	e593301c 	ldr	r3, [r3, #28]
    a950:	e0423003 	sub	r3, r2, r3
    a954:	e50b300c 	str	r3, [fp, #-12]
    a958:	e51b200c 	ldr	r2, [fp, #-12]
    a95c:	e51b3020 	ldr	r3, [fp, #-32]	; 0xffffffe0
    a960:	e1520003 	cmp	r2, r3
    a964:	9a000001 	bls	a970 <iobuf_write+0xb8>
    a968:	e51b3020 	ldr	r3, [fp, #-32]	; 0xffffffe0
    a96c:	e50b300c 	str	r3, [fp, #-12]
    a970:	e51b3018 	ldr	r3, [fp, #-24]	; 0xffffffe8
    a974:	e5932020 	ldr	r2, [r3, #32]
    a978:	e51b3018 	ldr	r3, [fp, #-24]	; 0xffffffe8
    a97c:	e593301c 	ldr	r3, [r3, #28]
    a980:	e0823003 	add	r3, r2, r3
    a984:	e51b200c 	ldr	r2, [fp, #-12]
    a988:	e51b1008 	ldr	r1, [fp, #-8]
    a98c:	e1a00003 	mov	r0, r3
    a990:	eb00171f 	bl	10614 <memcpy>
    a994:	e51b100c 	ldr	r1, [fp, #-12]
    a998:	e3040b8c 	movw	r0, #19340	; 0x4b8c
    a99c:	e3400001 	movt	r0, #1
    a9a0:	eb0024a6 	bl	13c40 <tfp_printf>
    a9a4:	e51b2020 	ldr	r2, [fp, #-32]	; 0xffffffe0
    a9a8:	e51b300c 	ldr	r3, [fp, #-12]
    a9ac:	e0423003 	sub	r3, r2, r3
    a9b0:	e50b3020 	str	r3, [fp, #-32]	; 0xffffffe0
    a9b4:	e51b2008 	ldr	r2, [fp, #-8]
    a9b8:	e51b300c 	ldr	r3, [fp, #-12]
    a9bc:	e0823003 	add	r3, r2, r3
    a9c0:	e50b3008 	str	r3, [fp, #-8]
    a9c4:	e51b3018 	ldr	r3, [fp, #-24]	; 0xffffffe8
    a9c8:	e593201c 	ldr	r2, [r3, #28]
    a9cc:	e51b300c 	ldr	r3, [fp, #-12]
    a9d0:	e0822003 	add	r2, r2, r3
    a9d4:	e51b3018 	ldr	r3, [fp, #-24]	; 0xffffffe8
    a9d8:	e583201c 	str	r2, [r3, #28]
    a9dc:	e51b3020 	ldr	r3, [fp, #-32]	; 0xffffffe0
    a9e0:	e3530000 	cmp	r3, #0
    a9e4:	0a000007 	beq	aa08 <iobuf_write+0x150>
    a9e8:	e51b0018 	ldr	r0, [fp, #-24]	; 0xffffffe8
    a9ec:	ebfffe3d 	bl	a2e8 <filter_flush>
    a9f0:	e50b0010 	str	r0, [fp, #-16]
    a9f4:	e51b3010 	ldr	r3, [fp, #-16]
    a9f8:	e3530000 	cmp	r3, #0
    a9fc:	0a000001 	beq	aa08 <iobuf_write+0x150>
    aa00:	e51b3010 	ldr	r3, [fp, #-16]
    aa04:	ea000003 	b	aa18 <iobuf_write+0x160>
    aa08:	e51b3020 	ldr	r3, [fp, #-32]	; 0xffffffe0
    aa0c:	e3530000 	cmp	r3, #0
    aa10:	1affffc1 	bne	a91c <iobuf_write+0x64>
    aa14:	e3a03000 	mov	r3, #0
    aa18:	e1a00003 	mov	r0, r3
    aa1c:	e24bd004 	sub	sp, fp, #4
    aa20:	e8bd8800 	pop	{fp, pc}

0000aa24 <iobuf_tell>:
    aa24:	e52db004 	push	{fp}		; (str fp, [sp, #-4]!)
    aa28:	e28db000 	add	fp, sp, #0
    aa2c:	e24dd00c 	sub	sp, sp, #12
    aa30:	e50b0008 	str	r0, [fp, #-8]
    aa34:	e51b3008 	ldr	r3, [fp, #-8]
    aa38:	e593200c 	ldr	r2, [r3, #12]
    aa3c:	e51b3008 	ldr	r3, [fp, #-8]
    aa40:	e5933008 	ldr	r3, [r3, #8]
    aa44:	e0823003 	add	r3, r2, r3
    aa48:	e1a00003 	mov	r0, r3
    aa4c:	e28bd000 	add	sp, fp, #0
    aa50:	e49db004 	pop	{fp}		; (ldr fp, [sp], #4)
    aa54:	e12fff1e 	bx	lr

0000aa58 <iobuf_set_partial_body_length_mode>:
    aa58:	e92d4800 	push	{fp, lr}
    aa5c:	e28db004 	add	fp, sp, #4
    aa60:	e24dd010 	sub	sp, sp, #16
    aa64:	e50b0010 	str	r0, [fp, #-16]
    aa68:	e50b1014 	str	r1, [fp, #-20]	; 0xffffffec
    aa6c:	e51b3014 	ldr	r3, [fp, #-20]	; 0xffffffec
    aa70:	e3530000 	cmp	r3, #0
    aa74:	1a00001a 	bne	aae4 <iobuf_set_partial_body_length_mode+0x8c>
    aa78:	e51b3010 	ldr	r3, [fp, #-16]
    aa7c:	e5d33000 	ldrb	r3, [r3]
    aa80:	e3530000 	cmp	r3, #0
    aa84:	1a000002 	bne	aa94 <iobuf_set_partial_body_length_mode+0x3c>
    aa88:	e3040cb8 	movw	r0, #19640	; 0x4cb8
    aa8c:	e3400001 	movt	r0, #1
    aa90:	eb00246a 	bl	13c40 <tfp_printf>
    aa94:	e3040cfc 	movw	r0, #19708	; 0x4cfc
    aa98:	e3400001 	movt	r0, #1
    aa9c:	eb002467 	bl	13c40 <tfp_printf>
    aaa0:	e51b3010 	ldr	r3, [fp, #-16]
    aaa4:	e593202c 	ldr	r2, [r3, #44]	; 0x2c
    aaa8:	e308353c 	movw	r3, #34108	; 0x853c
    aaac:	e3403000 	movt	r3, #0
    aab0:	e1520003 	cmp	r2, r3
    aab4:	1a000001 	bne	aac0 <iobuf_set_partial_body_length_mode+0x68>
    aab8:	e3a03001 	mov	r3, #1
    aabc:	ea000000 	b	aac4 <iobuf_set_partial_body_length_mode+0x6c>
    aac0:	e3a03000 	mov	r3, #0
    aac4:	e1a00003 	mov	r0, r3
    aac8:	eb00245c 	bl	13c40 <tfp_printf>
    aacc:	e3a02000 	mov	r2, #0
    aad0:	e308153c 	movw	r1, #34108	; 0x853c
    aad4:	e3401000 	movt	r1, #0
    aad8:	e51b0010 	ldr	r0, [fp, #-16]
    aadc:	ebfffc1b 	bl	9b50 <iobuf_pop_filter>
    aae0:	ea000016 	b	ab40 <iobuf_set_partial_body_length_mode+0xe8>
    aae4:	e3a01020 	mov	r1, #32
    aae8:	e3a00001 	mov	r0, #1
    aaec:	eb00164f 	bl	10430 <xcalloc>
    aaf0:	e50b0008 	str	r0, [fp, #-8]
    aaf4:	e51b3010 	ldr	r3, [fp, #-16]
    aaf8:	e5d33000 	ldrb	r3, [r3]
    aafc:	e1a02003 	mov	r2, r3
    ab00:	e51b3008 	ldr	r3, [fp, #-8]
    ab04:	e5832000 	str	r2, [r3]
    ab08:	e51b3008 	ldr	r3, [fp, #-8]
    ab0c:	e3a02001 	mov	r2, #1
    ab10:	e583200c 	str	r2, [r3, #12]
    ab14:	e51b3008 	ldr	r3, [fp, #-8]
    ab18:	e3a02000 	mov	r2, #0
    ab1c:	e5832004 	str	r2, [r3, #4]
    ab20:	e51b2014 	ldr	r2, [fp, #-20]	; 0xffffffec
    ab24:	e51b3008 	ldr	r3, [fp, #-8]
    ab28:	e5832018 	str	r2, [r3, #24]
    ab2c:	e51b2008 	ldr	r2, [fp, #-8]
    ab30:	e308153c 	movw	r1, #34108	; 0x853c
    ab34:	e3401000 	movt	r1, #0
    ab38:	e51b0010 	ldr	r0, [fp, #-16]
    ab3c:	ebfffb5e 	bl	98bc <iobuf_push_filter>
    ab40:	e320f000 	nop	{0}
    ab44:	e24bd004 	sub	sp, fp, #4
    ab48:	e8bd8800 	pop	{fp, pc}

0000ab4c <translate_file_handle>:
    ab4c:	e52db004 	push	{fp}		; (str fp, [sp, #-4]!)
    ab50:	e28db000 	add	fp, sp, #0
    ab54:	e24dd00c 	sub	sp, sp, #12
    ab58:	e50b0008 	str	r0, [fp, #-8]
    ab5c:	e50b100c 	str	r1, [fp, #-12]
    ab60:	e51b3008 	ldr	r3, [fp, #-8]
    ab64:	e1a00003 	mov	r0, r3
    ab68:	e28bd000 	add	sp, fp, #0
    ab6c:	e49db004 	pop	{fp}		; (ldr fp, [sp], #4)
    ab70:	e12fff1e 	bx	lr

0000ab74 <iobuf_skip_rest>:
    ab74:	e92d4800 	push	{fp, lr}
    ab78:	e28db004 	add	fp, sp, #4
    ab7c:	e24dd020 	sub	sp, sp, #32
    ab80:	e50b0018 	str	r0, [fp, #-24]	; 0xffffffe8
    ab84:	e50b101c 	str	r1, [fp, #-28]	; 0xffffffe4
    ab88:	e50b2020 	str	r2, [fp, #-32]	; 0xffffffe0
    ab8c:	e51b3020 	ldr	r3, [fp, #-32]	; 0xffffffe0
    ab90:	e3530000 	cmp	r3, #0
    ab94:	0a000022 	beq	ac24 <iobuf_skip_rest+0xb0>
    ab98:	e51b3018 	ldr	r3, [fp, #-24]	; 0xffffffe8
    ab9c:	e5933010 	ldr	r3, [r3, #16]
    aba0:	e3530000 	cmp	r3, #0
    aba4:	1a000005 	bne	abc0 <iobuf_skip_rest+0x4c>
    aba8:	e51b3018 	ldr	r3, [fp, #-24]	; 0xffffffe8
    abac:	e5932018 	ldr	r2, [r3, #24]
    abb0:	e51b3018 	ldr	r3, [fp, #-24]	; 0xffffffe8
    abb4:	e593301c 	ldr	r3, [r3, #28]
    abb8:	e1520003 	cmp	r2, r3
    abbc:	3a000005 	bcc	abd8 <iobuf_skip_rest+0x64>
    abc0:	e51b0018 	ldr	r0, [fp, #-24]	; 0xffffffe8
    abc4:	ebfffe27 	bl	a468 <iobuf_readbyte>
    abc8:	e1a03000 	mov	r3, r0
    abcc:	e3730001 	cmn	r3, #1
    abd0:	1a000012 	bne	ac20 <iobuf_skip_rest+0xac>
    abd4:	ea00004b 	b	ad08 <iobuf_skip_rest+0x194>
    abd8:	e51b3018 	ldr	r3, [fp, #-24]	; 0xffffffe8
    abdc:	e593201c 	ldr	r2, [r3, #28]
    abe0:	e51b3018 	ldr	r3, [fp, #-24]	; 0xffffffe8
    abe4:	e5933018 	ldr	r3, [r3, #24]
    abe8:	e0423003 	sub	r3, r2, r3
    abec:	e50b3010 	str	r3, [fp, #-16]
    abf0:	e51b3018 	ldr	r3, [fp, #-24]	; 0xffffffe8
    abf4:	e5933008 	ldr	r3, [r3, #8]
    abf8:	e1a02003 	mov	r2, r3
    abfc:	e51b3010 	ldr	r3, [fp, #-16]
    ac00:	e0823003 	add	r3, r2, r3
    ac04:	e1a02003 	mov	r2, r3
    ac08:	e51b3018 	ldr	r3, [fp, #-24]	; 0xffffffe8
    ac0c:	e5832008 	str	r2, [r3, #8]
    ac10:	e51b3018 	ldr	r3, [fp, #-24]	; 0xffffffe8
    ac14:	e593201c 	ldr	r2, [r3, #28]
    ac18:	e51b3018 	ldr	r3, [fp, #-24]	; 0xffffffe8
    ac1c:	e5832018 	str	r2, [r3, #24]
    ac20:	eaffffdc 	b	ab98 <iobuf_skip_rest+0x24>
    ac24:	e51b301c 	ldr	r3, [fp, #-28]	; 0xffffffe4
    ac28:	e50b3008 	str	r3, [fp, #-8]
    ac2c:	ea000030 	b	acf4 <iobuf_skip_rest+0x180>
    ac30:	e51b3018 	ldr	r3, [fp, #-24]	; 0xffffffe8
    ac34:	e5933010 	ldr	r3, [r3, #16]
    ac38:	e3530000 	cmp	r3, #0
    ac3c:	1a000005 	bne	ac58 <iobuf_skip_rest+0xe4>
    ac40:	e51b3018 	ldr	r3, [fp, #-24]	; 0xffffffe8
    ac44:	e5932018 	ldr	r2, [r3, #24]
    ac48:	e51b3018 	ldr	r3, [fp, #-24]	; 0xffffffe8
    ac4c:	e593301c 	ldr	r3, [r3, #28]
    ac50:	e1520003 	cmp	r2, r3
    ac54:	3a000008 	bcc	ac7c <iobuf_skip_rest+0x108>
    ac58:	e51b0018 	ldr	r0, [fp, #-24]	; 0xffffffe8
    ac5c:	ebfffe01 	bl	a468 <iobuf_readbyte>
    ac60:	e1a03000 	mov	r3, r0
    ac64:	e3730001 	cmn	r3, #1
    ac68:	0a000025 	beq	ad04 <iobuf_skip_rest+0x190>
    ac6c:	e51b3008 	ldr	r3, [fp, #-8]
    ac70:	e2433001 	sub	r3, r3, #1
    ac74:	e50b3008 	str	r3, [fp, #-8]
    ac78:	ea00001d 	b	acf4 <iobuf_skip_rest+0x180>
    ac7c:	e51b3018 	ldr	r3, [fp, #-24]	; 0xffffffe8
    ac80:	e593201c 	ldr	r2, [r3, #28]
    ac84:	e51b3018 	ldr	r3, [fp, #-24]	; 0xffffffe8
    ac88:	e5933018 	ldr	r3, [r3, #24]
    ac8c:	e0423003 	sub	r3, r2, r3
    ac90:	e50b300c 	str	r3, [fp, #-12]
    ac94:	e51b200c 	ldr	r2, [fp, #-12]
    ac98:	e51b3008 	ldr	r3, [fp, #-8]
    ac9c:	e1520003 	cmp	r2, r3
    aca0:	9a000001 	bls	acac <iobuf_skip_rest+0x138>
    aca4:	e51b3008 	ldr	r3, [fp, #-8]
    aca8:	e50b300c 	str	r3, [fp, #-12]
    acac:	e51b3018 	ldr	r3, [fp, #-24]	; 0xffffffe8
    acb0:	e5933008 	ldr	r3, [r3, #8]
    acb4:	e1a02003 	mov	r2, r3
    acb8:	e51b300c 	ldr	r3, [fp, #-12]
    acbc:	e0823003 	add	r3, r2, r3
    acc0:	e1a02003 	mov	r2, r3
    acc4:	e51b3018 	ldr	r3, [fp, #-24]	; 0xffffffe8
    acc8:	e5832008 	str	r2, [r3, #8]
    accc:	e51b3018 	ldr	r3, [fp, #-24]	; 0xffffffe8
    acd0:	e5932018 	ldr	r2, [r3, #24]
    acd4:	e51b300c 	ldr	r3, [fp, #-12]
    acd8:	e0822003 	add	r2, r2, r3
    acdc:	e51b3018 	ldr	r3, [fp, #-24]	; 0xffffffe8
    ace0:	e5832018 	str	r2, [r3, #24]
    ace4:	e51b2008 	ldr	r2, [fp, #-8]
    ace8:	e51b300c 	ldr	r3, [fp, #-12]
    acec:	e0423003 	sub	r3, r2, r3
    acf0:	e50b3008 	str	r3, [fp, #-8]
    acf4:	e51b3008 	ldr	r3, [fp, #-8]
    acf8:	e3530000 	cmp	r3, #0
    acfc:	1affffcb 	bne	ac30 <iobuf_skip_rest+0xbc>
    ad00:	ea000000 	b	ad08 <iobuf_skip_rest+0x194>
    ad04:	e320f000 	nop	{0}
    ad08:	e320f000 	nop	{0}
    ad0c:	e24bd004 	sub	sp, fp, #4
    ad10:	e8bd8800 	pop	{fp, pc}

0000ad14 <file_filter>:
    ad14:	e92d4800 	push	{fp, lr}
    ad18:	e28db004 	add	fp, sp, #4
    ad1c:	e24dd038 	sub	sp, sp, #56	; 0x38
    ad20:	e50b0030 	str	r0, [fp, #-48]	; 0xffffffd0
    ad24:	e50b1034 	str	r1, [fp, #-52]	; 0xffffffcc
    ad28:	e50b2038 	str	r2, [fp, #-56]	; 0xffffffc8
    ad2c:	e50b303c 	str	r3, [fp, #-60]	; 0xffffffc4
    ad30:	e51b3030 	ldr	r3, [fp, #-48]	; 0xffffffd0
    ad34:	e50b3010 	str	r3, [fp, #-16]
    ad38:	e51b3010 	ldr	r3, [fp, #-16]
    ad3c:	e5933000 	ldr	r3, [r3]
    ad40:	e50b3014 	str	r3, [fp, #-20]	; 0xffffffec
    ad44:	e59b3004 	ldr	r3, [fp, #4]
    ad48:	e5933000 	ldr	r3, [r3]
    ad4c:	e50b3018 	str	r3, [fp, #-24]	; 0xffffffe8
    ad50:	e3a03000 	mov	r3, #0
    ad54:	e50b3008 	str	r3, [fp, #-8]
    ad58:	e3a03000 	mov	r3, #0
    ad5c:	e50b300c 	str	r3, [fp, #-12]
    ad60:	e51b3034 	ldr	r3, [fp, #-52]	; 0xffffffcc
    ad64:	e3530003 	cmp	r3, #3
    ad68:	1a000045 	bne	ae84 <file_filter+0x170>
    ad6c:	e51b3010 	ldr	r3, [fp, #-16]
    ad70:	e5d32034 	ldrb	r2, [r3, #52]	; 0x34
    ad74:	e51b3010 	ldr	r3, [fp, #-16]
    ad78:	e5d33035 	ldrb	r3, [r3, #53]	; 0x35
    ad7c:	e1520003 	cmp	r2, r3
    ad80:	9a000021 	bls	ae0c <file_filter+0xf8>
    ad84:	e51b3010 	ldr	r3, [fp, #-16]
    ad88:	e5d33034 	ldrb	r3, [r3, #52]	; 0x34
    ad8c:	e1a02003 	mov	r2, r3
    ad90:	e51b3010 	ldr	r3, [fp, #-16]
    ad94:	e5d33035 	ldrb	r3, [r3, #53]	; 0x35
    ad98:	e0423003 	sub	r3, r2, r3
    ad9c:	e50b3008 	str	r3, [fp, #-8]
    ada0:	e51b2008 	ldr	r2, [fp, #-8]
    ada4:	e51b3018 	ldr	r3, [fp, #-24]	; 0xffffffe8
    ada8:	e1520003 	cmp	r2, r3
    adac:	9a000001 	bls	adb8 <file_filter+0xa4>
    adb0:	e51b3018 	ldr	r3, [fp, #-24]	; 0xffffffe8
    adb4:	e50b3008 	str	r3, [fp, #-8]
    adb8:	e51b3010 	ldr	r3, [fp, #-16]
    adbc:	e2833014 	add	r3, r3, #20
    adc0:	e51b2010 	ldr	r2, [fp, #-16]
    adc4:	e5d22035 	ldrb	r2, [r2, #53]	; 0x35
    adc8:	e0833002 	add	r3, r3, r2
    adcc:	e51b2008 	ldr	r2, [fp, #-8]
    add0:	e1a01003 	mov	r1, r3
    add4:	e51b003c 	ldr	r0, [fp, #-60]	; 0xffffffc4
    add8:	eb00160d 	bl	10614 <memcpy>
    addc:	e51b3010 	ldr	r3, [fp, #-16]
    ade0:	e5d32035 	ldrb	r2, [r3, #53]	; 0x35
    ade4:	e51b3008 	ldr	r3, [fp, #-8]
    ade8:	e6ef3073 	uxtb	r3, r3
    adec:	e0823003 	add	r3, r2, r3
    adf0:	e6ef2073 	uxtb	r2, r3
    adf4:	e51b3010 	ldr	r3, [fp, #-16]
    adf8:	e5c32035 	strb	r2, [r3, #53]	; 0x35
    adfc:	e59b3004 	ldr	r3, [fp, #4]
    ae00:	e51b2008 	ldr	r2, [fp, #-8]
    ae04:	e5832000 	str	r2, [r3]
    ae08:	ea000082 	b	b018 <file_filter+0x304>
    ae0c:	e51b3010 	ldr	r3, [fp, #-16]
    ae10:	e593300c 	ldr	r3, [r3, #12]
    ae14:	e3530000 	cmp	r3, #0
    ae18:	0a000005 	beq	ae34 <file_filter+0x120>
    ae1c:	e3e03000 	mvn	r3, #0
    ae20:	e50b300c 	str	r3, [fp, #-12]
    ae24:	e59b3004 	ldr	r3, [fp, #4]
    ae28:	e3a02000 	mov	r2, #0
    ae2c:	e5832000 	str	r2, [r3]
    ae30:	ea000078 	b	b018 <file_filter+0x304>
    ae34:	e3a03000 	mov	r3, #0
    ae38:	e50b3008 	str	r3, [fp, #-8]
    ae3c:	e51b3028 	ldr	r3, [fp, #-40]	; 0xffffffd8
    ae40:	e3730001 	cmn	r3, #1
    ae44:	0a00000a 	beq	ae74 <file_filter+0x160>
    ae48:	e51b3028 	ldr	r3, [fp, #-40]	; 0xffffffd8
    ae4c:	e3530000 	cmp	r3, #0
    ae50:	1a000005 	bne	ae6c <file_filter+0x158>
    ae54:	e51b3010 	ldr	r3, [fp, #-16]
    ae58:	e3a02001 	mov	r2, #1
    ae5c:	e583200c 	str	r2, [r3, #12]
    ae60:	e3e03000 	mvn	r3, #0
    ae64:	e50b300c 	str	r3, [fp, #-12]
    ae68:	ea000001 	b	ae74 <file_filter+0x160>
    ae6c:	e51b3028 	ldr	r3, [fp, #-40]	; 0xffffffd8
    ae70:	e50b3008 	str	r3, [fp, #-8]
    ae74:	e59b3004 	ldr	r3, [fp, #4]
    ae78:	e51b2008 	ldr	r2, [fp, #-8]
    ae7c:	e5832000 	str	r2, [r3]
    ae80:	ea000064 	b	b018 <file_filter+0x304>
    ae84:	e51b3034 	ldr	r3, [fp, #-52]	; 0xffffffcc
    ae88:	e3530004 	cmp	r3, #4
    ae8c:	1a000014 	bne	aee4 <file_filter+0x1d0>
    ae90:	e51b3018 	ldr	r3, [fp, #-24]	; 0xffffffe8
    ae94:	e3530000 	cmp	r3, #0
    ae98:	0a00000d 	beq	aed4 <file_filter+0x1c0>
    ae9c:	e51b303c 	ldr	r3, [fp, #-60]	; 0xffffffc4
    aea0:	e50b3020 	str	r3, [fp, #-32]	; 0xffffffe0
    aea4:	e51b3018 	ldr	r3, [fp, #-24]	; 0xffffffe8
    aea8:	e50b3008 	str	r3, [fp, #-8]
    aeac:	e51b3024 	ldr	r3, [fp, #-36]	; 0xffffffdc
    aeb0:	e3730001 	cmn	r3, #1
    aeb4:	1a000002 	bne	aec4 <file_filter+0x1b0>
    aeb8:	ebfff488 	bl	80e0 <gpg_error_from_syserror>
    aebc:	e1a03000 	mov	r3, r0
    aec0:	e50b300c 	str	r3, [fp, #-12]
    aec4:	e51b2020 	ldr	r2, [fp, #-32]	; 0xffffffe0
    aec8:	e51b303c 	ldr	r3, [fp, #-60]	; 0xffffffc4
    aecc:	e0423003 	sub	r3, r2, r3
    aed0:	e50b3008 	str	r3, [fp, #-8]
    aed4:	e59b3004 	ldr	r3, [fp, #4]
    aed8:	e51b2008 	ldr	r2, [fp, #-8]
    aedc:	e5832000 	str	r2, [r3]
    aee0:	ea00004c 	b	b018 <file_filter+0x304>
    aee4:	e51b3034 	ldr	r3, [fp, #-52]	; 0xffffffcc
    aee8:	e3530001 	cmp	r3, #1
    aeec:	1a00000f 	bne	af30 <file_filter+0x21c>
    aef0:	e51b3010 	ldr	r3, [fp, #-16]
    aef4:	e3a02000 	mov	r2, #0
    aef8:	e583200c 	str	r2, [r3, #12]
    aefc:	e51b3010 	ldr	r3, [fp, #-16]
    af00:	e3a02000 	mov	r2, #0
    af04:	e5832004 	str	r2, [r3, #4]
    af08:	e51b3010 	ldr	r3, [fp, #-16]
    af0c:	e3a02000 	mov	r2, #0
    af10:	e5832008 	str	r2, [r3, #8]
    af14:	e51b3010 	ldr	r3, [fp, #-16]
    af18:	e3a02000 	mov	r2, #0
    af1c:	e5c32034 	strb	r2, [r3, #52]	; 0x34
    af20:	e51b3010 	ldr	r3, [fp, #-16]
    af24:	e3a02000 	mov	r2, #0
    af28:	e5c32035 	strb	r2, [r3, #53]	; 0x35
    af2c:	ea000039 	b	b018 <file_filter+0x304>
    af30:	e51b3034 	ldr	r3, [fp, #-52]	; 0xffffffcc
    af34:	e3530007 	cmp	r3, #7
    af38:	1a00002e 	bne	aff8 <file_filter+0x2e4>
    af3c:	e320f000 	nop	{0}
    af40:	e51b301c 	ldr	r3, [fp, #-28]	; 0xffffffe4
    af44:	e3530000 	cmp	r3, #0
    af48:	da00000c 	ble	af80 <file_filter+0x26c>
    af4c:	e51b3010 	ldr	r3, [fp, #-16]
    af50:	e5d32034 	ldrb	r2, [r3, #52]	; 0x34
    af54:	e51b301c 	ldr	r3, [fp, #-28]	; 0xffffffe4
    af58:	e6ef3073 	uxtb	r3, r3
    af5c:	e0823003 	add	r3, r2, r3
    af60:	e6ef2073 	uxtb	r2, r3
    af64:	e51b3010 	ldr	r3, [fp, #-16]
    af68:	e5c32034 	strb	r2, [r3, #52]	; 0x34
    af6c:	e51b3010 	ldr	r3, [fp, #-16]
    af70:	e5d33034 	ldrb	r3, [r3, #52]	; 0x34
    af74:	e353001f 	cmp	r3, #31
    af78:	8a00000a 	bhi	afa8 <file_filter+0x294>
    af7c:	eaffffef 	b	af40 <file_filter+0x22c>
    af80:	e51b301c 	ldr	r3, [fp, #-28]	; 0xffffffe4
    af84:	e3530000 	cmp	r3, #0
    af88:	1a000003 	bne	af9c <file_filter+0x288>
    af8c:	e51b3010 	ldr	r3, [fp, #-16]
    af90:	e3a02001 	mov	r2, #1
    af94:	e583200c 	str	r2, [r3, #12]
    af98:	ea000002 	b	afa8 <file_filter+0x294>
    af9c:	ebfff44f 	bl	80e0 <gpg_error_from_syserror>
    afa0:	e1a03000 	mov	r3, r0
    afa4:	e50b300c 	str	r3, [fp, #-12]
    afa8:	e51b3010 	ldr	r3, [fp, #-16]
    afac:	e5d33034 	ldrb	r3, [r3, #52]	; 0x34
    afb0:	e1a02003 	mov	r2, r3
    afb4:	e51b3018 	ldr	r3, [fp, #-24]	; 0xffffffe8
    afb8:	e1530002 	cmp	r3, r2
    afbc:	31a03003 	movcc	r3, r3
    afc0:	21a03002 	movcs	r3, r2
    afc4:	e50b3018 	str	r3, [fp, #-24]	; 0xffffffe8
    afc8:	e51b3010 	ldr	r3, [fp, #-16]
    afcc:	e2833014 	add	r3, r3, #20
    afd0:	e51b2018 	ldr	r2, [fp, #-24]	; 0xffffffe8
    afd4:	e1a01003 	mov	r1, r3
    afd8:	e51b003c 	ldr	r0, [fp, #-60]	; 0xffffffc4
    afdc:	eb00158c 	bl	10614 <memcpy>
    afe0:	e59b3004 	ldr	r3, [fp, #4]
    afe4:	e51b2018 	ldr	r2, [fp, #-24]	; 0xffffffe8
    afe8:	e5832000 	str	r2, [r3]
    afec:	e3a03000 	mov	r3, #0
    aff0:	e50b300c 	str	r3, [fp, #-12]
    aff4:	ea000007 	b	b018 <file_filter+0x304>
    aff8:	e51b3034 	ldr	r3, [fp, #-52]	; 0xffffffcc
    affc:	e3530005 	cmp	r3, #5
    b000:	0a000004 	beq	b018 <file_filter+0x304>
    b004:	e51b3034 	ldr	r3, [fp, #-52]	; 0xffffffcc
    b008:	e3530002 	cmp	r3, #2
    b00c:	1a000001 	bne	b018 <file_filter+0x304>
    b010:	e51b0010 	ldr	r0, [fp, #-16]
    b014:	eb001527 	bl	104b8 <xfree>
    b018:	e51b300c 	ldr	r3, [fp, #-12]
    b01c:	e1a00003 	mov	r0, r3
    b020:	e24bd004 	sub	sp, fp, #4
    b024:	e8bd8800 	pop	{fp, pc}

0000b028 <gpg_error_from_syserror>:
    b028:	e52db004 	push	{fp}		; (str fp, [sp, #-4]!)
    b02c:	e28db000 	add	fp, sp, #0
    b030:	e3e03000 	mvn	r3, #0
    b034:	e1a00003 	mov	r0, r3
    b038:	e28bd000 	add	sp, fp, #0
    b03c:	e49db004 	pop	{fp}		; (ldr fp, [sp], #4)
    b040:	e12fff1e 	bx	lr

0000b044 <decrypt_memory>:
    b044:	e92d4800 	push	{fp, lr}
    b048:	e28db004 	add	fp, sp, #4
    b04c:	e24dd040 	sub	sp, sp, #64	; 0x40
    b050:	e50b0030 	str	r0, [fp, #-48]	; 0xffffffd0
    b054:	e50b1034 	str	r1, [fp, #-52]	; 0xffffffcc
    b058:	e50b2038 	str	r2, [fp, #-56]	; 0xffffffc8
    b05c:	e51b3030 	ldr	r3, [fp, #-48]	; 0xffffffd0
    b060:	e51b2038 	ldr	r2, [fp, #-56]	; 0xffffffc8
    b064:	e5832020 	str	r2, [r3, #32]
    b068:	e3a03000 	mov	r3, #0
    b06c:	e50b302c 	str	r3, [fp, #-44]	; 0xffffffd4
    b070:	e3a03000 	mov	r3, #0
    b074:	e50b3008 	str	r3, [fp, #-8]
    b078:	e3043d30 	movw	r3, #19760	; 0x4d30
    b07c:	e3403001 	movt	r3, #1
    b080:	e50b300c 	str	r3, [fp, #-12]
    b084:	e3a03000 	mov	r3, #0
    b088:	e50b3010 	str	r3, [fp, #-16]
    b08c:	e3a03000 	mov	r3, #0
    b090:	e50b3014 	str	r3, [fp, #-20]	; 0xffffffec
    b094:	e3a03000 	mov	r3, #0
    b098:	e50b3018 	str	r3, [fp, #-24]	; 0xffffffe8
    b09c:	e51b1038 	ldr	r1, [fp, #-56]	; 0xffffffc8
    b0a0:	e51b0034 	ldr	r0, [fp, #-52]	; 0xffffffcc
    b0a4:	ebfff8a1 	bl	9330 <iobuf_temp_with_content>
    b0a8:	e50b001c 	str	r0, [fp, #-28]	; 0xffffffe4
    b0ac:	e51b301c 	ldr	r3, [fp, #-28]	; 0xffffffe4
    b0b0:	e3530000 	cmp	r3, #0
    b0b4:	1a000002 	bne	b0c4 <decrypt_memory+0x80>
    b0b8:	ebffffda 	bl	b028 <gpg_error_from_syserror>
    b0bc:	e1a03000 	mov	r3, r0
    b0c0:	ea000041 	b	b1cc <decrypt_memory+0x188>
    b0c4:	e51b3018 	ldr	r3, [fp, #-24]	; 0xffffffe8
    b0c8:	e3530000 	cmp	r3, #0
    b0cc:	13a03001 	movne	r3, #1
    b0d0:	03a03000 	moveq	r3, #0
    b0d4:	e6ef3073 	uxtb	r3, r3
    b0d8:	e1a01003 	mov	r1, r3
    b0dc:	e51b0014 	ldr	r0, [fp, #-20]	; 0xffffffec
    b0e0:	ebfffe99 	bl	ab4c <translate_file_handle>
    b0e4:	e1a03000 	mov	r3, r0
    b0e8:	e51b100c 	ldr	r1, [fp, #-12]
    b0ec:	e1a00003 	mov	r0, r3
    b0f0:	ebfff8e9 	bl	949c <iobuf_fdopen>
    b0f4:	e51b100c 	ldr	r1, [fp, #-12]
    b0f8:	e3a00000 	mov	r0, #0
    b0fc:	ebfff4e2 	bl	848c <fd_cache_open>
    b100:	e50b0020 	str	r0, [fp, #-32]	; 0xffffffe0
    b104:	e51b0010 	ldr	r0, [fp, #-16]
    b108:	eb0022e0 	bl	13c90 <strlen>
    b10c:	e1a03000 	mov	r3, r0
    b110:	e2833038 	add	r3, r3, #56	; 0x38
    b114:	e1a00003 	mov	r0, r3
    b118:	eb001495 	bl	10374 <xmalloc>
    b11c:	e50b0024 	str	r0, [fp, #-36]	; 0xffffffdc
    b120:	e51b3024 	ldr	r3, [fp, #-36]	; 0xffffffdc
    b124:	e51b2020 	ldr	r2, [fp, #-32]	; 0xffffffe0
    b128:	e5832000 	str	r2, [r3]
    b12c:	e51b3024 	ldr	r3, [fp, #-36]	; 0xffffffdc
    b130:	e51b2008 	ldr	r2, [fp, #-8]
    b134:	e5832010 	str	r2, [r3, #16]
    b138:	e51b3024 	ldr	r3, [fp, #-36]	; 0xffffffdc
    b13c:	e2833036 	add	r3, r3, #54	; 0x36
    b140:	e51b1010 	ldr	r1, [fp, #-16]
    b144:	e1a00003 	mov	r0, r3
    b148:	eb0015a4 	bl	107e0 <strcpy>
    b14c:	e51b3008 	ldr	r3, [fp, #-8]
    b150:	e3530000 	cmp	r3, #0
    b154:	1a000005 	bne	b170 <decrypt_memory+0x12c>
    b158:	e51b0010 	ldr	r0, [fp, #-16]
    b15c:	eb001649 	bl	10a88 <xstrdup>
    b160:	e1a03000 	mov	r3, r0
    b164:	e1a02003 	mov	r2, r3
    b168:	e51b301c 	ldr	r3, [fp, #-28]	; 0xffffffe4
    b16c:	e5832038 	str	r2, [r3, #56]	; 0x38
    b170:	e51b201c 	ldr	r2, [fp, #-28]	; 0xffffffe4
    b174:	e30a3d14 	movw	r3, #44308	; 0xad14
    b178:	e3403000 	movt	r3, #0
    b17c:	e582302c 	str	r3, [r2, #44]	; 0x2c
    b180:	e51b3024 	ldr	r3, [fp, #-36]	; 0xffffffdc
    b184:	e3a02001 	mov	r2, #1
    b188:	e5832008 	str	r2, [r3, #8]
    b18c:	e51b301c 	ldr	r3, [fp, #-28]	; 0xffffffe4
    b190:	e51b2024 	ldr	r2, [fp, #-36]	; 0xffffffdc
    b194:	e5832030 	str	r2, [r3, #48]	; 0x30
    b198:	e24b302c 	sub	r3, fp, #44	; 0x2c
    b19c:	e58d3000 	str	r3, [sp]
    b1a0:	e3a03000 	mov	r3, #0
    b1a4:	e3a02000 	mov	r2, #0
    b1a8:	e3a01001 	mov	r1, #1
    b1ac:	e51b0024 	ldr	r0, [fp, #-36]	; 0xffffffdc
    b1b0:	ebfffed7 	bl	ad14 <file_filter>
    b1b4:	e51b201c 	ldr	r2, [fp, #-28]	; 0xffffffe4
    b1b8:	e3a01000 	mov	r1, #0
    b1bc:	e51b0030 	ldr	r0, [fp, #-48]	; 0xffffffd0
    b1c0:	eb002401 	bl	141cc <proc_encryption_packets>
    b1c4:	e50b0028 	str	r0, [fp, #-40]	; 0xffffffd8
    b1c8:	e51b3028 	ldr	r3, [fp, #-40]	; 0xffffffd8
    b1cc:	e1a00003 	mov	r0, r3
    b1d0:	e24bd004 	sub	sp, fp, #4
    b1d4:	e8bd8800 	pop	{fp, pc}

0000b1d8 <gpg_err_make>:
    b1d8:	e52db004 	push	{fp}		; (str fp, [sp, #-4]!)
    b1dc:	e28db000 	add	fp, sp, #0
    b1e0:	e24dd00c 	sub	sp, sp, #12
    b1e4:	e1a03000 	mov	r3, r0
    b1e8:	e50b100c 	str	r1, [fp, #-12]
    b1ec:	e54b3005 	strb	r3, [fp, #-5]
    b1f0:	e51b300c 	ldr	r3, [fp, #-12]
    b1f4:	e3530000 	cmp	r3, #0
    b1f8:	0a000006 	beq	b218 <gpg_err_make+0x40>
    b1fc:	e55b3005 	ldrb	r3, [fp, #-5]
    b200:	e1a03c03 	lsl	r3, r3, #24
    b204:	e203247f 	and	r2, r3, #2130706432	; 0x7f000000
    b208:	e51b300c 	ldr	r3, [fp, #-12]
    b20c:	e6ff3073 	uxth	r3, r3
    b210:	e1823003 	orr	r3, r2, r3
    b214:	ea000000 	b	b21c <gpg_err_make+0x44>
    b218:	e3a03000 	mov	r3, #0
    b21c:	e1a00003 	mov	r0, r3
    b220:	e28bd000 	add	sp, fp, #0
    b224:	e49db004 	pop	{fp}		; (ldr fp, [sp], #4)
    b228:	e12fff1e 	bx	lr

0000b22c <gpg_error>:
    b22c:	e92d4800 	push	{fp, lr}
    b230:	e28db004 	add	fp, sp, #4
    b234:	e24dd008 	sub	sp, sp, #8
    b238:	e50b0008 	str	r0, [fp, #-8]
    b23c:	e51b1008 	ldr	r1, [fp, #-8]
    b240:	e3a00002 	mov	r0, #2
    b244:	ebffffe3 	bl	b1d8 <gpg_err_make>
    b248:	e1a03000 	mov	r3, r0
    b24c:	e1a00003 	mov	r0, r3
    b250:	e24bd004 	sub	sp, fp, #4
    b254:	e8bd8800 	pop	{fp, pc}

0000b258 <gpg_err_code>:
    b258:	e52db004 	push	{fp}		; (str fp, [sp, #-4]!)
    b25c:	e28db000 	add	fp, sp, #0
    b260:	e24dd00c 	sub	sp, sp, #12
    b264:	e50b0008 	str	r0, [fp, #-8]
    b268:	e51b3008 	ldr	r3, [fp, #-8]
    b26c:	e6ff3073 	uxth	r3, r3
    b270:	e1a00003 	mov	r0, r3
    b274:	e28bd000 	add	sp, fp, #0
    b278:	e49db004 	pop	{fp}		; (ldr fp, [sp], #4)
    b27c:	e12fff1e 	bx	lr

0000b280 <gpg_error_from_syserror>:
    b280:	e52db004 	push	{fp}		; (str fp, [sp, #-4]!)
    b284:	e28db000 	add	fp, sp, #0
    b288:	e3e03000 	mvn	r3, #0
    b28c:	e1a00003 	mov	r0, r3
    b290:	e28bd000 	add	sp, fp, #0
    b294:	e49db004 	pop	{fp}		; (ldr fp, [sp], #4)
    b298:	e12fff1e 	bx	lr

0000b29c <release_dfx_context>:
    b29c:	e92d4800 	push	{fp, lr}
    b2a0:	e28db004 	add	fp, sp, #4
    b2a4:	e24dd008 	sub	sp, sp, #8
    b2a8:	e50b0008 	str	r0, [fp, #-8]
    b2ac:	e51b3008 	ldr	r3, [fp, #-8]
    b2b0:	e3530000 	cmp	r3, #0
    b2b4:	0a00001d 	beq	b330 <release_dfx_context+0x94>
    b2b8:	e51b3008 	ldr	r3, [fp, #-8]
    b2bc:	e5933000 	ldr	r3, [r3]
    b2c0:	e1a00003 	mov	r0, r3
    b2c4:	eb00225d 	bl	13c40 <tfp_printf>
    b2c8:	e51b3008 	ldr	r3, [fp, #-8]
    b2cc:	e5933000 	ldr	r3, [r3]
    b2d0:	e2432001 	sub	r2, r3, #1
    b2d4:	e51b3008 	ldr	r3, [fp, #-8]
    b2d8:	e5832000 	str	r2, [r3]
    b2dc:	e51b3008 	ldr	r3, [fp, #-8]
    b2e0:	e5933000 	ldr	r3, [r3]
    b2e4:	e3530000 	cmp	r3, #0
    b2e8:	1a000011 	bne	b334 <release_dfx_context+0x98>
    b2ec:	e51b3008 	ldr	r3, [fp, #-8]
    b2f0:	e5933004 	ldr	r3, [r3, #4]
    b2f4:	e1a00003 	mov	r0, r3
    b2f8:	eb00146e 	bl	104b8 <xfree>
    b2fc:	e51b3008 	ldr	r3, [fp, #-8]
    b300:	e3a02000 	mov	r2, #0
    b304:	e5832004 	str	r2, [r3, #4]
    b308:	e51b3008 	ldr	r3, [fp, #-8]
    b30c:	e5933008 	ldr	r3, [r3, #8]
    b310:	e1a00003 	mov	r0, r3
    b314:	eb001467 	bl	104b8 <xfree>
    b318:	e51b3008 	ldr	r3, [fp, #-8]
    b31c:	e3a02000 	mov	r2, #0
    b320:	e5832008 	str	r2, [r3, #8]
    b324:	e51b0008 	ldr	r0, [fp, #-8]
    b328:	eb001462 	bl	104b8 <xfree>
    b32c:	ea000000 	b	b334 <release_dfx_context+0x98>
    b330:	e320f000 	nop	{0}
    b334:	e24bd004 	sub	sp, fp, #4
    b338:	e8bd8800 	pop	{fp, pc}

0000b33c <decrypt_data>:
    b33c:	e92d4830 	push	{r4, r5, fp, lr}
    b340:	e28db00c 	add	fp, sp, #12
    b344:	e24dd060 	sub	sp, sp, #96	; 0x60
    b348:	e50b0058 	str	r0, [fp, #-88]	; 0xffffffa8
    b34c:	e50b105c 	str	r1, [fp, #-92]	; 0xffffffa4
    b350:	e50b2060 	str	r2, [fp, #-96]	; 0xffffffa0
    b354:	e50b3064 	str	r3, [fp, #-100]	; 0xffffff9c
    b358:	e3a03000 	mov	r3, #0
    b35c:	e50b3010 	str	r3, [fp, #-16]
    b360:	e59b3004 	ldr	r3, [fp, #4]
    b364:	e3a02000 	mov	r2, #0
    b368:	e5832000 	str	r2, [r3]
    b36c:	e3a01080 	mov	r1, #128	; 0x80
    b370:	e3a00001 	mov	r0, #1
    b374:	eb00152f 	bl	10838 <xtrycalloc>
    b378:	e1a03000 	mov	r3, r0
    b37c:	e50b3030 	str	r3, [fp, #-48]	; 0xffffffd0
    b380:	e51b3030 	ldr	r3, [fp, #-48]	; 0xffffffd0
    b384:	e3530000 	cmp	r3, #0
    b388:	1a000002 	bne	b398 <decrypt_data+0x5c>
    b38c:	ebffffbb 	bl	b280 <gpg_error_from_syserror>
    b390:	e1a03000 	mov	r3, r0
    b394:	ea00023e 	b	bc94 <decrypt_data+0x958>
    b398:	e51b3030 	ldr	r3, [fp, #-48]	; 0xffffffd0
    b39c:	e3a02001 	mov	r2, #1
    b3a0:	e5832000 	str	r2, [r3]
    b3a4:	e3a03002 	mov	r3, #2
    b3a8:	e54b3015 	strb	r3, [fp, #-21]	; 0xffffffeb
    b3ac:	e51b3060 	ldr	r3, [fp, #-96]	; 0xffffffa0
    b3b0:	e5d3300a 	ldrb	r3, [r3, #10]
    b3b4:	e1a01003 	mov	r1, r3
    b3b8:	e51b3064 	ldr	r3, [fp, #-100]	; 0xffffff9c
    b3bc:	e5933000 	ldr	r3, [r3]
    b3c0:	e3a02000 	mov	r2, #0
    b3c4:	e58d2000 	str	r2, [sp]
    b3c8:	e1a02001 	mov	r2, r1
    b3cc:	e3041d64 	movw	r1, #19812	; 0x4d64
    b3d0:	e3401001 	movt	r1, #1
    b3d4:	e3a00017 	mov	r0, #23
    b3d8:	eb002218 	bl	13c40 <tfp_printf>
    b3dc:	e3a03008 	mov	r3, #8
    b3e0:	e50b301c 	str	r3, [fp, #-28]	; 0xffffffe4
    b3e4:	e51b301c 	ldr	r3, [fp, #-28]	; 0xffffffe4
    b3e8:	e3530000 	cmp	r3, #0
    b3ec:	0a000002 	beq	b3fc <decrypt_data+0xc0>
    b3f0:	e51b301c 	ldr	r3, [fp, #-28]	; 0xffffffe4
    b3f4:	e3530010 	cmp	r3, #16
    b3f8:	9a000003 	bls	b40c <decrypt_data+0xd0>
    b3fc:	e51b101c 	ldr	r1, [fp, #-28]	; 0xffffffe4
    b400:	e3040d70 	movw	r0, #19824	; 0x4d70
    b404:	e3400001 	movt	r0, #1
    b408:	eb00220c 	bl	13c40 <tfp_printf>
    b40c:	e51b3060 	ldr	r3, [fp, #-96]	; 0xffffffa0
    b410:	e5d3300b 	ldrb	r3, [r3, #11]
    b414:	e3530000 	cmp	r3, #0
    b418:	0a0000e8 	beq	b7c0 <decrypt_data+0x484>
    b41c:	e51b301c 	ldr	r3, [fp, #-28]	; 0xffffffe4
    b420:	e3530010 	cmp	r3, #16
    b424:	0a000004 	beq	b43c <decrypt_data+0x100>
    b428:	e3a0000c 	mov	r0, #12
    b42c:	ebffff7e 	bl	b22c <gpg_error>
    b430:	e1a03000 	mov	r3, r0
    b434:	e50b3010 	str	r3, [fp, #-16]
    b438:	ea000211 	b	bc84 <decrypt_data+0x948>
    b43c:	e51b3060 	ldr	r3, [fp, #-96]	; 0xffffffa0
    b440:	e5d3300d 	ldrb	r3, [r3, #13]
    b444:	e3530038 	cmp	r3, #56	; 0x38
    b448:	9a00000a 	bls	b478 <decrypt_data+0x13c>
    b44c:	e51b3060 	ldr	r3, [fp, #-96]	; 0xffffffa0
    b450:	e5d3300d 	ldrb	r3, [r3, #13]
    b454:	e1a01003 	mov	r1, r3
    b458:	e3040d8c 	movw	r0, #19852	; 0x4d8c
    b45c:	e3400001 	movt	r0, #1
    b460:	eb0021f6 	bl	13c40 <tfp_printf>
    b464:	e3a0000e 	mov	r0, #14
    b468:	ebffff6f 	bl	b22c <gpg_error>
    b46c:	e1a03000 	mov	r3, r0
    b470:	e50b3010 	str	r3, [fp, #-16]
    b474:	ea000202 	b	bc84 <decrypt_data+0x948>
    b478:	e51b3060 	ldr	r3, [fp, #-96]	; 0xffffffa0
    b47c:	e5933000 	ldr	r3, [r3]
    b480:	e3530000 	cmp	r3, #0
    b484:	0a000041 	beq	b590 <decrypt_data+0x254>
    b488:	e3a03000 	mov	r3, #0
    b48c:	e50b3014 	str	r3, [fp, #-20]	; 0xffffffec
    b490:	ea000035 	b	b56c <decrypt_data+0x230>
    b494:	e51b3060 	ldr	r3, [fp, #-96]	; 0xffffffa0
    b498:	e5933010 	ldr	r3, [r3, #16]
    b49c:	e5933010 	ldr	r3, [r3, #16]
    b4a0:	e3530000 	cmp	r3, #0
    b4a4:	1a000007 	bne	b4c8 <decrypt_data+0x18c>
    b4a8:	e51b3060 	ldr	r3, [fp, #-96]	; 0xffffffa0
    b4ac:	e5933010 	ldr	r3, [r3, #16]
    b4b0:	e5932018 	ldr	r2, [r3, #24]
    b4b4:	e51b3060 	ldr	r3, [fp, #-96]	; 0xffffffa0
    b4b8:	e5933010 	ldr	r3, [r3, #16]
    b4bc:	e593301c 	ldr	r3, [r3, #28]
    b4c0:	e1520003 	cmp	r2, r3
    b4c4:	3a000005 	bcc	b4e0 <decrypt_data+0x1a4>
    b4c8:	e51b3060 	ldr	r3, [fp, #-96]	; 0xffffffa0
    b4cc:	e5933010 	ldr	r3, [r3, #16]
    b4d0:	e1a00003 	mov	r0, r3
    b4d4:	ebfffbe3 	bl	a468 <iobuf_readbyte>
    b4d8:	e1a03000 	mov	r3, r0
    b4dc:	ea00000e 	b	b51c <decrypt_data+0x1e0>
    b4e0:	e51b3060 	ldr	r3, [fp, #-96]	; 0xffffffa0
    b4e4:	e5933010 	ldr	r3, [r3, #16]
    b4e8:	e5932008 	ldr	r2, [r3, #8]
    b4ec:	e2822001 	add	r2, r2, #1
    b4f0:	e5832008 	str	r2, [r3, #8]
    b4f4:	e51b3060 	ldr	r3, [fp, #-96]	; 0xffffffa0
    b4f8:	e5933010 	ldr	r3, [r3, #16]
    b4fc:	e5931020 	ldr	r1, [r3, #32]
    b500:	e51b3060 	ldr	r3, [fp, #-96]	; 0xffffffa0
    b504:	e5932010 	ldr	r2, [r3, #16]
    b508:	e5923018 	ldr	r3, [r2, #24]
    b50c:	e2830001 	add	r0, r3, #1
    b510:	e5820018 	str	r0, [r2, #24]
    b514:	e0813003 	add	r3, r1, r3
    b518:	e5d33000 	ldrb	r3, [r3]
    b51c:	e50b3024 	str	r3, [fp, #-36]	; 0xffffffdc
    b520:	e51b3024 	ldr	r3, [fp, #-36]	; 0xffffffdc
    b524:	e3730001 	cmn	r3, #1
    b528:	0a000051 	beq	b674 <decrypt_data+0x338>
    b52c:	e51b2030 	ldr	r2, [fp, #-48]	; 0xffffffd0
    b530:	e51b3024 	ldr	r3, [fp, #-36]	; 0xffffffdc
    b534:	e6ef1073 	uxtb	r1, r3
    b538:	e51b3014 	ldr	r3, [fp, #-20]	; 0xffffffec
    b53c:	e0823003 	add	r3, r2, r3
    b540:	e283300c 	add	r3, r3, #12
    b544:	e1a02001 	mov	r2, r1
    b548:	e5c32000 	strb	r2, [r3]
    b54c:	e51b3014 	ldr	r3, [fp, #-20]	; 0xffffffec
    b550:	e2833001 	add	r3, r3, #1
    b554:	e50b3014 	str	r3, [fp, #-20]	; 0xffffffec
    b558:	e51b3060 	ldr	r3, [fp, #-96]	; 0xffffffa0
    b55c:	e5933000 	ldr	r3, [r3]
    b560:	e2432001 	sub	r2, r3, #1
    b564:	e51b3060 	ldr	r3, [fp, #-96]	; 0xffffffa0
    b568:	e5832000 	str	r2, [r3]
    b56c:	e51b3014 	ldr	r3, [fp, #-20]	; 0xffffffec
    b570:	e51b202c 	ldr	r2, [fp, #-44]	; 0xffffffd4
    b574:	e1520003 	cmp	r2, r3
    b578:	9a000040 	bls	b680 <decrypt_data+0x344>
    b57c:	e51b3060 	ldr	r3, [fp, #-96]	; 0xffffffa0
    b580:	e5933000 	ldr	r3, [r3]
    b584:	e3530000 	cmp	r3, #0
    b588:	1affffc1 	bne	b494 <decrypt_data+0x158>
    b58c:	ea00003b 	b	b680 <decrypt_data+0x344>
    b590:	e3a03000 	mov	r3, #0
    b594:	e50b3014 	str	r3, [fp, #-20]	; 0xffffffec
    b598:	ea000030 	b	b660 <decrypt_data+0x324>
    b59c:	e51b3060 	ldr	r3, [fp, #-96]	; 0xffffffa0
    b5a0:	e5933010 	ldr	r3, [r3, #16]
    b5a4:	e5933010 	ldr	r3, [r3, #16]
    b5a8:	e3530000 	cmp	r3, #0
    b5ac:	1a000007 	bne	b5d0 <decrypt_data+0x294>
    b5b0:	e51b3060 	ldr	r3, [fp, #-96]	; 0xffffffa0
    b5b4:	e5933010 	ldr	r3, [r3, #16]
    b5b8:	e5932018 	ldr	r2, [r3, #24]
    b5bc:	e51b3060 	ldr	r3, [fp, #-96]	; 0xffffffa0
    b5c0:	e5933010 	ldr	r3, [r3, #16]
    b5c4:	e593301c 	ldr	r3, [r3, #28]
    b5c8:	e1520003 	cmp	r2, r3
    b5cc:	3a000005 	bcc	b5e8 <decrypt_data+0x2ac>
    b5d0:	e51b3060 	ldr	r3, [fp, #-96]	; 0xffffffa0
    b5d4:	e5933010 	ldr	r3, [r3, #16]
    b5d8:	e1a00003 	mov	r0, r3
    b5dc:	ebfffba1 	bl	a468 <iobuf_readbyte>
    b5e0:	e1a03000 	mov	r3, r0
    b5e4:	ea00000e 	b	b624 <decrypt_data+0x2e8>
    b5e8:	e51b3060 	ldr	r3, [fp, #-96]	; 0xffffffa0
    b5ec:	e5933010 	ldr	r3, [r3, #16]
    b5f0:	e5932008 	ldr	r2, [r3, #8]
    b5f4:	e2822001 	add	r2, r2, #1
    b5f8:	e5832008 	str	r2, [r3, #8]
    b5fc:	e51b3060 	ldr	r3, [fp, #-96]	; 0xffffffa0
    b600:	e5933010 	ldr	r3, [r3, #16]
    b604:	e5931020 	ldr	r1, [r3, #32]
    b608:	e51b3060 	ldr	r3, [fp, #-96]	; 0xffffffa0
    b60c:	e5932010 	ldr	r2, [r3, #16]
    b610:	e5923018 	ldr	r3, [r2, #24]
    b614:	e2830001 	add	r0, r3, #1
    b618:	e5820018 	str	r0, [r2, #24]
    b61c:	e0813003 	add	r3, r1, r3
    b620:	e5d33000 	ldrb	r3, [r3]
    b624:	e50b3024 	str	r3, [fp, #-36]	; 0xffffffdc
    b628:	e51b3024 	ldr	r3, [fp, #-36]	; 0xffffffdc
    b62c:	e3730001 	cmn	r3, #1
    b630:	0a000011 	beq	b67c <decrypt_data+0x340>
    b634:	e51b2030 	ldr	r2, [fp, #-48]	; 0xffffffd0
    b638:	e51b3024 	ldr	r3, [fp, #-36]	; 0xffffffdc
    b63c:	e6ef1073 	uxtb	r1, r3
    b640:	e51b3014 	ldr	r3, [fp, #-20]	; 0xffffffec
    b644:	e0823003 	add	r3, r2, r3
    b648:	e283300c 	add	r3, r3, #12
    b64c:	e1a02001 	mov	r2, r1
    b650:	e5c32000 	strb	r2, [r3]
    b654:	e51b3014 	ldr	r3, [fp, #-20]	; 0xffffffec
    b658:	e2833001 	add	r3, r3, #1
    b65c:	e50b3014 	str	r3, [fp, #-20]	; 0xffffffec
    b660:	e51b3014 	ldr	r3, [fp, #-20]	; 0xffffffec
    b664:	e51b202c 	ldr	r2, [fp, #-44]	; 0xffffffd4
    b668:	e1520003 	cmp	r2, r3
    b66c:	8affffca 	bhi	b59c <decrypt_data+0x260>
    b670:	ea000002 	b	b680 <decrypt_data+0x344>
    b674:	e320f000 	nop	{0}
    b678:	ea000000 	b	b680 <decrypt_data+0x344>
    b67c:	e320f000 	nop	{0}
    b680:	e51b3014 	ldr	r3, [fp, #-20]	; 0xffffffec
    b684:	e51b202c 	ldr	r2, [fp, #-44]	; 0xffffffd4
    b688:	e1520003 	cmp	r2, r3
    b68c:	0a000009 	beq	b6b8 <decrypt_data+0x37c>
    b690:	e51b202c 	ldr	r2, [fp, #-44]	; 0xffffffd4
    b694:	e51b1014 	ldr	r1, [fp, #-20]	; 0xffffffec
    b698:	e3040da8 	movw	r0, #19880	; 0x4da8
    b69c:	e3400001 	movt	r0, #1
    b6a0:	eb002166 	bl	13c40 <tfp_printf>
    b6a4:	e3a00042 	mov	r0, #66	; 0x42
    b6a8:	ebfffedf 	bl	b22c <gpg_error>
    b6ac:	e1a03000 	mov	r3, r0
    b6b0:	e50b3010 	str	r3, [fp, #-16]
    b6b4:	ea000172 	b	bc84 <decrypt_data+0x948>
    b6b8:	e51b3030 	ldr	r3, [fp, #-48]	; 0xffffffd0
    b6bc:	e51b2060 	ldr	r2, [fp, #-96]	; 0xffffffa0
    b6c0:	e5d2200c 	ldrb	r2, [r2, #12]
    b6c4:	e5c32051 	strb	r2, [r3, #81]	; 0x51
    b6c8:	e51b3030 	ldr	r3, [fp, #-48]	; 0xffffffd0
    b6cc:	e51b2060 	ldr	r2, [fp, #-96]	; 0xffffffa0
    b6d0:	e5d2200b 	ldrb	r2, [r2, #11]
    b6d4:	e5c32052 	strb	r2, [r3, #82]	; 0x52
    b6d8:	e51b3030 	ldr	r3, [fp, #-48]	; 0xffffffd0
    b6dc:	e51b2060 	ldr	r2, [fp, #-96]	; 0xffffffa0
    b6e0:	e5d2200d 	ldrb	r2, [r2, #13]
    b6e4:	e5c32053 	strb	r2, [r3, #83]	; 0x53
    b6e8:	e51b3030 	ldr	r3, [fp, #-48]	; 0xffffffd0
    b6ec:	e5d33053 	ldrb	r3, [r3, #83]	; 0x53
    b6f0:	e2831006 	add	r1, r3, #6
    b6f4:	e51b0030 	ldr	r0, [fp, #-48]	; 0xffffffd0
    b6f8:	e3a02001 	mov	r2, #1
    b6fc:	e3a03000 	mov	r3, #0
    b700:	e241e020 	sub	lr, r1, #32
    b704:	e261c020 	rsb	ip, r1, #32
    b708:	e1a05113 	lsl	r5, r3, r1
    b70c:	e1855e12 	orr	r5, r5, r2, lsl lr
    b710:	e1855c32 	orr	r5, r5, r2, lsr ip
    b714:	e1a04112 	lsl	r4, r2, r1
    b718:	e1c045f8 	strd	r4, [r0, #88]	; 0x58
    b71c:	e51b3010 	ldr	r3, [fp, #-16]
    b720:	e3530000 	cmp	r3, #0
    b724:	1a000153 	bne	bc78 <decrypt_data+0x93c>
    b728:	e51b3030 	ldr	r3, [fp, #-48]	; 0xffffffd0
    b72c:	e5930004 	ldr	r0, [r3, #4]
    b730:	e51b3064 	ldr	r3, [fp, #-100]	; 0xffffff9c
    b734:	e593100c 	ldr	r1, [r3, #12]
    b738:	e51b3064 	ldr	r3, [fp, #-100]	; 0xffffff9c
    b73c:	e5933004 	ldr	r3, [r3, #4]
    b740:	e1a02003 	mov	r2, r3
    b744:	eb00044f 	bl	c888 <_gcry_cipher_setkey>
    b748:	e50b0010 	str	r0, [fp, #-16]
    b74c:	e51b3010 	ldr	r3, [fp, #-16]
    b750:	e1a00003 	mov	r0, r3
    b754:	ebfffebf 	bl	b258 <gpg_err_code>
    b758:	e1a03000 	mov	r3, r0
    b75c:	e353002b 	cmp	r3, #43	; 0x2b
    b760:	1a000005 	bne	b77c <decrypt_data+0x440>
    b764:	e3040dd4 	movw	r0, #19924	; 0x4dd4
    b768:	e3400001 	movt	r0, #1
    b76c:	eb002133 	bl	13c40 <tfp_printf>
    b770:	e3a03000 	mov	r3, #0
    b774:	e50b3010 	str	r3, [fp, #-16]
    b778:	ea000008 	b	b7a0 <decrypt_data+0x464>
    b77c:	e51b3010 	ldr	r3, [fp, #-16]
    b780:	e3530000 	cmp	r3, #0
    b784:	0a000005 	beq	b7a0 <decrypt_data+0x464>
    b788:	e3041e20 	movw	r1, #20000	; 0x4e20
    b78c:	e3401001 	movt	r1, #1
    b790:	e3040e24 	movw	r0, #20004	; 0x4e24
    b794:	e3400001 	movt	r0, #1
    b798:	eb002128 	bl	13c40 <tfp_printf>
    b79c:	ea000138 	b	bc84 <decrypt_data+0x948>
    b7a0:	e51b3060 	ldr	r3, [fp, #-96]	; 0xffffffa0
    b7a4:	e5933010 	ldr	r3, [r3, #16]
    b7a8:	e3530000 	cmp	r3, #0
    b7ac:	1a000104 	bne	bbc4 <decrypt_data+0x888>
    b7b0:	e3040e3c 	movw	r0, #20028	; 0x4e3c
    b7b4:	e3400001 	movt	r0, #1
    b7b8:	eb002120 	bl	13c40 <tfp_printf>
    b7bc:	ea000130 	b	bc84 <decrypt_data+0x948>
    b7c0:	e51b301c 	ldr	r3, [fp, #-28]	; 0xffffffe4
    b7c4:	e50b3020 	str	r3, [fp, #-32]	; 0xffffffe0
    b7c8:	e51b3060 	ldr	r3, [fp, #-96]	; 0xffffffa0
    b7cc:	e5933000 	ldr	r3, [r3]
    b7d0:	e3530000 	cmp	r3, #0
    b7d4:	0a00000a 	beq	b804 <decrypt_data+0x4c8>
    b7d8:	e51b3060 	ldr	r3, [fp, #-96]	; 0xffffffa0
    b7dc:	e5932000 	ldr	r2, [r3]
    b7e0:	e51b3020 	ldr	r3, [fp, #-32]	; 0xffffffe0
    b7e4:	e2833002 	add	r3, r3, #2
    b7e8:	e1520003 	cmp	r2, r3
    b7ec:	2a000004 	bcs	b804 <decrypt_data+0x4c8>
    b7f0:	e3a0000e 	mov	r0, #14
    b7f4:	ebfffe8c 	bl	b22c <gpg_error>
    b7f8:	e1a03000 	mov	r3, r0
    b7fc:	e50b3010 	str	r3, [fp, #-16]
    b800:	ea00011f 	b	bc84 <decrypt_data+0x948>
    b804:	e24b3030 	sub	r3, fp, #48	; 0x30
    b808:	e3a02004 	mov	r2, #4
    b80c:	e3a01000 	mov	r1, #0
    b810:	e1a00003 	mov	r0, r3
    b814:	eb001365 	bl	105b0 <memset>
    b818:	e51b4030 	ldr	r4, [fp, #-48]	; 0xffffffd0
    b81c:	e3a00040 	mov	r0, #64	; 0x40
    b820:	eb001233 	bl	100f4 <malloc>
    b824:	e1a03000 	mov	r3, r0
    b828:	e5843004 	str	r3, [r4, #4]
    b82c:	e51b3030 	ldr	r3, [fp, #-48]	; 0xffffffd0
    b830:	e5933004 	ldr	r3, [r3, #4]
    b834:	e3530000 	cmp	r3, #0
    b838:	1a000001 	bne	b844 <decrypt_data+0x508>
    b83c:	e3e03000 	mvn	r3, #0
    b840:	ea000113 	b	bc94 <decrypt_data+0x958>
    b844:	e51b3030 	ldr	r3, [fp, #-48]	; 0xffffffd0
    b848:	e5933004 	ldr	r3, [r3, #4]
    b84c:	e3a02040 	mov	r2, #64	; 0x40
    b850:	e3a01000 	mov	r1, #0
    b854:	e1a00003 	mov	r0, r3
    b858:	eb001354 	bl	105b0 <memset>
    b85c:	e51b3030 	ldr	r3, [fp, #-48]	; 0xffffffd0
    b860:	e5930004 	ldr	r0, [r3, #4]
    b864:	e51b3064 	ldr	r3, [fp, #-100]	; 0xffffff9c
    b868:	e593100c 	ldr	r1, [r3, #12]
    b86c:	e51b3064 	ldr	r3, [fp, #-100]	; 0xffffff9c
    b870:	e5933004 	ldr	r3, [r3, #4]
    b874:	e1a02003 	mov	r2, r3
    b878:	eb000402 	bl	c888 <_gcry_cipher_setkey>
    b87c:	e50b0010 	str	r0, [fp, #-16]
    b880:	e51b3060 	ldr	r3, [fp, #-96]	; 0xffffffa0
    b884:	e5933010 	ldr	r3, [r3, #16]
    b888:	e3530000 	cmp	r3, #0
    b88c:	1a000007 	bne	b8b0 <decrypt_data+0x574>
    b890:	e3040e3c 	movw	r0, #20028	; 0x4e3c
    b894:	e3400001 	movt	r0, #1
    b898:	eb0020e8 	bl	13c40 <tfp_printf>
    b89c:	e3a0000e 	mov	r0, #14
    b8a0:	ebfffe61 	bl	b22c <gpg_error>
    b8a4:	e1a03000 	mov	r3, r0
    b8a8:	e50b3010 	str	r3, [fp, #-16]
    b8ac:	ea0000f4 	b	bc84 <decrypt_data+0x948>
    b8b0:	e51b3030 	ldr	r3, [fp, #-48]	; 0xffffffd0
    b8b4:	e5933004 	ldr	r3, [r3, #4]
    b8b8:	e3a02008 	mov	r2, #8
    b8bc:	e3a01000 	mov	r1, #0
    b8c0:	e1a00003 	mov	r0, r3
    b8c4:	eb00042c 	bl	c97c <_gcry_cipher_setiv>
    b8c8:	e51b3060 	ldr	r3, [fp, #-96]	; 0xffffffa0
    b8cc:	e5933000 	ldr	r3, [r3]
    b8d0:	e3530000 	cmp	r3, #0
    b8d4:	0a000047 	beq	b9f8 <decrypt_data+0x6bc>
    b8d8:	e51b3060 	ldr	r3, [fp, #-96]	; 0xffffffa0
    b8dc:	e5933000 	ldr	r3, [r3]
    b8e0:	e1a01003 	mov	r1, r3
    b8e4:	e3040e60 	movw	r0, #20064	; 0x4e60
    b8e8:	e3400001 	movt	r0, #1
    b8ec:	eb0020d3 	bl	13c40 <tfp_printf>
    b8f0:	e3a03000 	mov	r3, #0
    b8f4:	e50b3014 	str	r3, [fp, #-20]	; 0xffffffec
    b8f8:	ea000034 	b	b9d0 <decrypt_data+0x694>
    b8fc:	e51b3060 	ldr	r3, [fp, #-96]	; 0xffffffa0
    b900:	e5933010 	ldr	r3, [r3, #16]
    b904:	e5933010 	ldr	r3, [r3, #16]
    b908:	e3530000 	cmp	r3, #0
    b90c:	1a000007 	bne	b930 <decrypt_data+0x5f4>
    b910:	e51b3060 	ldr	r3, [fp, #-96]	; 0xffffffa0
    b914:	e5933010 	ldr	r3, [r3, #16]
    b918:	e5932018 	ldr	r2, [r3, #24]
    b91c:	e51b3060 	ldr	r3, [fp, #-96]	; 0xffffffa0
    b920:	e5933010 	ldr	r3, [r3, #16]
    b924:	e593301c 	ldr	r3, [r3, #28]
    b928:	e1520003 	cmp	r2, r3
    b92c:	3a000005 	bcc	b948 <decrypt_data+0x60c>
    b930:	e51b3060 	ldr	r3, [fp, #-96]	; 0xffffffa0
    b934:	e5933010 	ldr	r3, [r3, #16]
    b938:	e1a00003 	mov	r0, r3
    b93c:	ebfffac9 	bl	a468 <iobuf_readbyte>
    b940:	e1a03000 	mov	r3, r0
    b944:	ea00000e 	b	b984 <decrypt_data+0x648>
    b948:	e51b3060 	ldr	r3, [fp, #-96]	; 0xffffffa0
    b94c:	e5933010 	ldr	r3, [r3, #16]
    b950:	e5932008 	ldr	r2, [r3, #8]
    b954:	e2822001 	add	r2, r2, #1
    b958:	e5832008 	str	r2, [r3, #8]
    b95c:	e51b3060 	ldr	r3, [fp, #-96]	; 0xffffffa0
    b960:	e5933010 	ldr	r3, [r3, #16]
    b964:	e5931020 	ldr	r1, [r3, #32]
    b968:	e51b3060 	ldr	r3, [fp, #-96]	; 0xffffffa0
    b96c:	e5932010 	ldr	r2, [r3, #16]
    b970:	e5923018 	ldr	r3, [r2, #24]
    b974:	e2830001 	add	r0, r3, #1
    b978:	e5820018 	str	r0, [r2, #24]
    b97c:	e0813003 	add	r3, r1, r3
    b980:	e5d33000 	ldrb	r3, [r3]
    b984:	e50b3024 	str	r3, [fp, #-36]	; 0xffffffdc
    b988:	e51b3024 	ldr	r3, [fp, #-36]	; 0xffffffdc
    b98c:	e3730001 	cmn	r3, #1
    b990:	0a000051 	beq	badc <decrypt_data+0x7a0>
    b994:	e51b3024 	ldr	r3, [fp, #-36]	; 0xffffffdc
    b998:	e6ef1073 	uxtb	r1, r3
    b99c:	e24b2050 	sub	r2, fp, #80	; 0x50
    b9a0:	e51b3014 	ldr	r3, [fp, #-20]	; 0xffffffec
    b9a4:	e0823003 	add	r3, r2, r3
    b9a8:	e1a02001 	mov	r2, r1
    b9ac:	e5c32000 	strb	r2, [r3]
    b9b0:	e51b3014 	ldr	r3, [fp, #-20]	; 0xffffffec
    b9b4:	e2833001 	add	r3, r3, #1
    b9b8:	e50b3014 	str	r3, [fp, #-20]	; 0xffffffec
    b9bc:	e51b3060 	ldr	r3, [fp, #-96]	; 0xffffffa0
    b9c0:	e5933000 	ldr	r3, [r3]
    b9c4:	e2432001 	sub	r2, r3, #1
    b9c8:	e51b3060 	ldr	r3, [fp, #-96]	; 0xffffffa0
    b9cc:	e5832000 	str	r2, [r3]
    b9d0:	e51b3020 	ldr	r3, [fp, #-32]	; 0xffffffe0
    b9d4:	e2832002 	add	r2, r3, #2
    b9d8:	e51b3014 	ldr	r3, [fp, #-20]	; 0xffffffec
    b9dc:	e1520003 	cmp	r2, r3
    b9e0:	9a000040 	bls	bae8 <decrypt_data+0x7ac>
    b9e4:	e51b3060 	ldr	r3, [fp, #-96]	; 0xffffffa0
    b9e8:	e5933000 	ldr	r3, [r3]
    b9ec:	e3530000 	cmp	r3, #0
    b9f0:	1affffc1 	bne	b8fc <decrypt_data+0x5c0>
    b9f4:	ea00003b 	b	bae8 <decrypt_data+0x7ac>
    b9f8:	e3a03000 	mov	r3, #0
    b9fc:	e50b3014 	str	r3, [fp, #-20]	; 0xffffffec
    ba00:	ea00002f 	b	bac4 <decrypt_data+0x788>
    ba04:	e51b3060 	ldr	r3, [fp, #-96]	; 0xffffffa0
    ba08:	e5933010 	ldr	r3, [r3, #16]
    ba0c:	e5933010 	ldr	r3, [r3, #16]
    ba10:	e3530000 	cmp	r3, #0
    ba14:	1a000007 	bne	ba38 <decrypt_data+0x6fc>
    ba18:	e51b3060 	ldr	r3, [fp, #-96]	; 0xffffffa0
    ba1c:	e5933010 	ldr	r3, [r3, #16]
    ba20:	e5932018 	ldr	r2, [r3, #24]
    ba24:	e51b3060 	ldr	r3, [fp, #-96]	; 0xffffffa0
    ba28:	e5933010 	ldr	r3, [r3, #16]
    ba2c:	e593301c 	ldr	r3, [r3, #28]
    ba30:	e1520003 	cmp	r2, r3
    ba34:	3a000005 	bcc	ba50 <decrypt_data+0x714>
    ba38:	e51b3060 	ldr	r3, [fp, #-96]	; 0xffffffa0
    ba3c:	e5933010 	ldr	r3, [r3, #16]
    ba40:	e1a00003 	mov	r0, r3
    ba44:	ebfffa87 	bl	a468 <iobuf_readbyte>
    ba48:	e1a03000 	mov	r3, r0
    ba4c:	ea00000e 	b	ba8c <decrypt_data+0x750>
    ba50:	e51b3060 	ldr	r3, [fp, #-96]	; 0xffffffa0
    ba54:	e5933010 	ldr	r3, [r3, #16]
    ba58:	e5932008 	ldr	r2, [r3, #8]
    ba5c:	e2822001 	add	r2, r2, #1
    ba60:	e5832008 	str	r2, [r3, #8]
    ba64:	e51b3060 	ldr	r3, [fp, #-96]	; 0xffffffa0
    ba68:	e5933010 	ldr	r3, [r3, #16]
    ba6c:	e5931020 	ldr	r1, [r3, #32]
    ba70:	e51b3060 	ldr	r3, [fp, #-96]	; 0xffffffa0
    ba74:	e5932010 	ldr	r2, [r3, #16]
    ba78:	e5923018 	ldr	r3, [r2, #24]
    ba7c:	e2830001 	add	r0, r3, #1
    ba80:	e5820018 	str	r0, [r2, #24]
    ba84:	e0813003 	add	r3, r1, r3
    ba88:	e5d33000 	ldrb	r3, [r3]
    ba8c:	e50b3024 	str	r3, [fp, #-36]	; 0xffffffdc
    ba90:	e51b3024 	ldr	r3, [fp, #-36]	; 0xffffffdc
    ba94:	e3730001 	cmn	r3, #1
    ba98:	0a000011 	beq	bae4 <decrypt_data+0x7a8>
    ba9c:	e51b3024 	ldr	r3, [fp, #-36]	; 0xffffffdc
    baa0:	e6ef1073 	uxtb	r1, r3
    baa4:	e24b2050 	sub	r2, fp, #80	; 0x50
    baa8:	e51b3014 	ldr	r3, [fp, #-20]	; 0xffffffec
    baac:	e0823003 	add	r3, r2, r3
    bab0:	e1a02001 	mov	r2, r1
    bab4:	e5c32000 	strb	r2, [r3]
    bab8:	e51b3014 	ldr	r3, [fp, #-20]	; 0xffffffec
    babc:	e2833001 	add	r3, r3, #1
    bac0:	e50b3014 	str	r3, [fp, #-20]	; 0xffffffec
    bac4:	e51b3020 	ldr	r3, [fp, #-32]	; 0xffffffe0
    bac8:	e2832002 	add	r2, r3, #2
    bacc:	e51b3014 	ldr	r3, [fp, #-20]	; 0xffffffec
    bad0:	e1520003 	cmp	r2, r3
    bad4:	8affffca 	bhi	ba04 <decrypt_data+0x6c8>
    bad8:	ea000002 	b	bae8 <decrypt_data+0x7ac>
    badc:	e320f000 	nop	{0}
    bae0:	ea000000 	b	bae8 <decrypt_data+0x7ac>
    bae4:	e320f000 	nop	{0}
    bae8:	e51b3030 	ldr	r3, [fp, #-48]	; 0xffffffd0
    baec:	e5930004 	ldr	r0, [r3, #4]
    baf0:	e51b3020 	ldr	r3, [fp, #-32]	; 0xffffffe0
    baf4:	e2832002 	add	r2, r3, #2
    baf8:	e24b1050 	sub	r1, fp, #80	; 0x50
    bafc:	e3a03000 	mov	r3, #0
    bb00:	e58d3000 	str	r3, [sp]
    bb04:	e3a03000 	mov	r3, #0
    bb08:	eb0003d9 	bl	ca74 <_gcry_cipher_decrypt>
    bb0c:	e51b3030 	ldr	r3, [fp, #-48]	; 0xffffffd0
    bb10:	e5933004 	ldr	r3, [r3, #4]
    bb14:	e1a00003 	mov	r0, r3
    bb18:	eb0003b2 	bl	c9e8 <cipher_sync>
    bb1c:	e24b3050 	sub	r3, fp, #80	; 0x50
    bb20:	e50b3028 	str	r3, [fp, #-40]	; 0xffffffd8
    bb24:	e51b3064 	ldr	r3, [fp, #-100]	; 0xffffff9c
    bb28:	e5d33008 	ldrb	r3, [r3, #8]
    bb2c:	e2033040 	and	r3, r3, #64	; 0x40
    bb30:	e6ef3073 	uxtb	r3, r3
    bb34:	e3530000 	cmp	r3, #0
    bb38:	0a00001a 	beq	bba8 <decrypt_data+0x86c>
    bb3c:	e51b3020 	ldr	r3, [fp, #-32]	; 0xffffffe0
    bb40:	e2433002 	sub	r3, r3, #2
    bb44:	e51b2028 	ldr	r2, [fp, #-40]	; 0xffffffd8
    bb48:	e0823003 	add	r3, r2, r3
    bb4c:	e5d32000 	ldrb	r2, [r3]
    bb50:	e51b1028 	ldr	r1, [fp, #-40]	; 0xffffffd8
    bb54:	e51b3020 	ldr	r3, [fp, #-32]	; 0xffffffe0
    bb58:	e0813003 	add	r3, r1, r3
    bb5c:	e5d33000 	ldrb	r3, [r3]
    bb60:	e1520003 	cmp	r2, r3
    bb64:	1a00000b 	bne	bb98 <decrypt_data+0x85c>
    bb68:	e51b3020 	ldr	r3, [fp, #-32]	; 0xffffffe0
    bb6c:	e2433001 	sub	r3, r3, #1
    bb70:	e51b2028 	ldr	r2, [fp, #-40]	; 0xffffffd8
    bb74:	e0823003 	add	r3, r2, r3
    bb78:	e5d32000 	ldrb	r2, [r3]
    bb7c:	e51b3020 	ldr	r3, [fp, #-32]	; 0xffffffe0
    bb80:	e2833001 	add	r3, r3, #1
    bb84:	e51b1028 	ldr	r1, [fp, #-40]	; 0xffffffd8
    bb88:	e0813003 	add	r3, r1, r3
    bb8c:	e5d33000 	ldrb	r3, [r3]
    bb90:	e1520003 	cmp	r2, r3
    bb94:	0a000003 	beq	bba8 <decrypt_data+0x86c>
    bb98:	e3040e70 	movw	r0, #20080	; 0x4e70
    bb9c:	e3400001 	movt	r0, #1
    bba0:	eb002026 	bl	13c40 <tfp_printf>
    bba4:	ea000006 	b	bbc4 <decrypt_data+0x888>
    bba8:	e3040e80 	movw	r0, #20096	; 0x4e80
    bbac:	e3400001 	movt	r0, #1
    bbb0:	eb002022 	bl	13c40 <tfp_printf>
    bbb4:	e3040e90 	movw	r0, #20112	; 0x4e90
    bbb8:	e3400001 	movt	r0, #1
    bbbc:	eb00201f 	bl	13c40 <tfp_printf>
    bbc0:	ea00002f 	b	bc84 <decrypt_data+0x948>
    bbc4:	e51b3030 	ldr	r3, [fp, #-48]	; 0xffffffd0
    bbc8:	e5932000 	ldr	r2, [r3]
    bbcc:	e2822001 	add	r2, r2, #1
    bbd0:	e5832000 	str	r2, [r3]
    bbd4:	e51b3060 	ldr	r3, [fp, #-96]	; 0xffffffa0
    bbd8:	e5d33009 	ldrb	r3, [r3, #9]
    bbdc:	e51b2030 	ldr	r2, [fp, #-48]	; 0xffffffd0
    bbe0:	e3530000 	cmp	r3, #0
    bbe4:	13a03001 	movne	r3, #1
    bbe8:	03a03000 	moveq	r3, #0
    bbec:	e6ef1073 	uxtb	r1, r3
    bbf0:	e5d23050 	ldrb	r3, [r2, #80]	; 0x50
    bbf4:	e7c03011 	bfi	r3, r1, #0, #1
    bbf8:	e5c23050 	strb	r3, [r2, #80]	; 0x50
    bbfc:	e51b3030 	ldr	r3, [fp, #-48]	; 0xffffffd0
    bc00:	e51b2060 	ldr	r2, [fp, #-96]	; 0xffffffa0
    bc04:	e5922000 	ldr	r2, [r2]
    bc08:	e5832078 	str	r2, [r3, #120]	; 0x78
    bc0c:	e51b3060 	ldr	r3, [fp, #-96]	; 0xffffffa0
    bc10:	e5933010 	ldr	r3, [r3, #16]
    bc14:	e51b2030 	ldr	r2, [fp, #-48]	; 0xffffffd0
    bc18:	e30b1e44 	movw	r1, #48708	; 0xbe44
    bc1c:	e3401000 	movt	r1, #0
    bc20:	e1a00003 	mov	r0, r3
    bc24:	ebfff724 	bl	98bc <iobuf_push_filter>
    bc28:	e51b3060 	ldr	r3, [fp, #-96]	; 0xffffffa0
    bc2c:	e5933010 	ldr	r3, [r3, #16]
    bc30:	e1a02003 	mov	r2, r3
    bc34:	e51b105c 	ldr	r1, [fp, #-92]	; 0xffffffa4
    bc38:	e51b0058 	ldr	r0, [fp, #-88]	; 0xffffffa8
    bc3c:	eb002144 	bl	14154 <proc_packets>
    bc40:	e51b3060 	ldr	r3, [fp, #-96]	; 0xffffffa0
    bc44:	e3a02000 	mov	r2, #0
    bc48:	e5832010 	str	r2, [r3, #16]
    bc4c:	e51b3030 	ldr	r3, [fp, #-48]	; 0xffffffd0
    bc50:	e5d33050 	ldrb	r3, [r3, #80]	; 0x50
    bc54:	e7e130d3 	ubfx	r3, r3, #1, #2
    bc58:	e6ef3073 	uxtb	r3, r3
    bc5c:	e3530001 	cmp	r3, #1
    bc60:	9a000006 	bls	bc80 <decrypt_data+0x944>
    bc64:	e3a0000e 	mov	r0, #14
    bc68:	ebfffd6f 	bl	b22c <gpg_error>
    bc6c:	e1a03000 	mov	r3, r0
    bc70:	e50b3010 	str	r3, [fp, #-16]
    bc74:	ea000002 	b	bc84 <decrypt_data+0x948>
    bc78:	e320f000 	nop	{0}
    bc7c:	ea000000 	b	bc84 <decrypt_data+0x948>
    bc80:	e320f000 	nop	{0}
    bc84:	e51b3030 	ldr	r3, [fp, #-48]	; 0xffffffd0
    bc88:	e1a00003 	mov	r0, r3
    bc8c:	ebfffd82 	bl	b29c <release_dfx_context>
    bc90:	e51b3010 	ldr	r3, [fp, #-16]
    bc94:	e1a00003 	mov	r0, r3
    bc98:	e24bd00c 	sub	sp, fp, #12
    bc9c:	e8bd8830 	pop	{r4, r5, fp, pc}

0000bca0 <fill_buffer>:
    bca0:	e92d4800 	push	{fp, lr}
    bca4:	e28db004 	add	fp, sp, #4
    bca8:	e24dd020 	sub	sp, sp, #32
    bcac:	e50b0018 	str	r0, [fp, #-24]	; 0xffffffe8
    bcb0:	e50b101c 	str	r1, [fp, #-28]	; 0xffffffe4
    bcb4:	e50b2020 	str	r2, [fp, #-32]	; 0xffffffe0
    bcb8:	e50b3024 	str	r3, [fp, #-36]	; 0xffffffdc
    bcbc:	e59b3004 	ldr	r3, [fp, #4]
    bcc0:	e50b3008 	str	r3, [fp, #-8]
    bcc4:	e51b3018 	ldr	r3, [fp, #-24]	; 0xffffffe8
    bcc8:	e5d33050 	ldrb	r3, [r3, #80]	; 0x50
    bccc:	e2033001 	and	r3, r3, #1
    bcd0:	e6ef3073 	uxtb	r3, r3
    bcd4:	e3530000 	cmp	r3, #0
    bcd8:	0a000044 	beq	bdf0 <fill_buffer+0x150>
    bcdc:	ea000018 	b	bd44 <fill_buffer+0xa4>
    bce0:	e51b2024 	ldr	r2, [fp, #-36]	; 0xffffffdc
    bce4:	e51b3008 	ldr	r3, [fp, #-8]
    bce8:	e0423003 	sub	r3, r2, r3
    bcec:	e50b300c 	str	r3, [fp, #-12]
    bcf0:	e51b2020 	ldr	r2, [fp, #-32]	; 0xffffffe0
    bcf4:	e51b3008 	ldr	r3, [fp, #-8]
    bcf8:	e0823003 	add	r3, r2, r3
    bcfc:	e51b200c 	ldr	r2, [fp, #-12]
    bd00:	e1a01003 	mov	r1, r3
    bd04:	e51b001c 	ldr	r0, [fp, #-28]	; 0xffffffe4
    bd08:	ebfffa16 	bl	a568 <iobuf_read>
    bd0c:	e50b0010 	str	r0, [fp, #-16]
    bd10:	e51b3010 	ldr	r3, [fp, #-16]
    bd14:	e3730001 	cmn	r3, #1
    bd18:	1a000005 	bne	bd34 <fill_buffer+0x94>
    bd1c:	e51b2018 	ldr	r2, [fp, #-24]	; 0xffffffe8
    bd20:	e5d23050 	ldrb	r3, [r2, #80]	; 0x50
    bd24:	e3a01001 	mov	r1, #1
    bd28:	e7c23091 	bfi	r3, r1, #1, #2
    bd2c:	e5c23050 	strb	r3, [r2, #80]	; 0x50
    bd30:	ea00003f 	b	be34 <fill_buffer+0x194>
    bd34:	e51b3010 	ldr	r3, [fp, #-16]
    bd38:	e51b2008 	ldr	r2, [fp, #-8]
    bd3c:	e0823003 	add	r3, r2, r3
    bd40:	e50b3008 	str	r3, [fp, #-8]
    bd44:	e51b2008 	ldr	r2, [fp, #-8]
    bd48:	e51b3024 	ldr	r3, [fp, #-36]	; 0xffffffdc
    bd4c:	e1520003 	cmp	r2, r3
    bd50:	3affffe2 	bcc	bce0 <fill_buffer+0x40>
    bd54:	ea000036 	b	be34 <fill_buffer+0x194>
    bd58:	e51b2024 	ldr	r2, [fp, #-36]	; 0xffffffdc
    bd5c:	e51b3008 	ldr	r3, [fp, #-8]
    bd60:	e0423003 	sub	r3, r2, r3
    bd64:	e50b300c 	str	r3, [fp, #-12]
    bd68:	e51b3018 	ldr	r3, [fp, #-24]	; 0xffffffe8
    bd6c:	e5933078 	ldr	r3, [r3, #120]	; 0x78
    bd70:	e51b200c 	ldr	r2, [fp, #-12]
    bd74:	e1520003 	cmp	r2, r3
    bd78:	9a000002 	bls	bd88 <fill_buffer+0xe8>
    bd7c:	e51b3018 	ldr	r3, [fp, #-24]	; 0xffffffe8
    bd80:	e5933078 	ldr	r3, [r3, #120]	; 0x78
    bd84:	e50b300c 	str	r3, [fp, #-12]
    bd88:	e51b2020 	ldr	r2, [fp, #-32]	; 0xffffffe0
    bd8c:	e51b3008 	ldr	r3, [fp, #-8]
    bd90:	e0823003 	add	r3, r2, r3
    bd94:	e51b200c 	ldr	r2, [fp, #-12]
    bd98:	e1a01003 	mov	r1, r3
    bd9c:	e51b001c 	ldr	r0, [fp, #-28]	; 0xffffffe4
    bda0:	ebfff9f0 	bl	a568 <iobuf_read>
    bda4:	e50b0010 	str	r0, [fp, #-16]
    bda8:	e51b3010 	ldr	r3, [fp, #-16]
    bdac:	e3730001 	cmn	r3, #1
    bdb0:	1a000004 	bne	bdc8 <fill_buffer+0x128>
    bdb4:	e51b2018 	ldr	r2, [fp, #-24]	; 0xffffffe8
    bdb8:	e5d23050 	ldrb	r3, [r2, #80]	; 0x50
    bdbc:	e3833006 	orr	r3, r3, #6
    bdc0:	e5c23050 	strb	r3, [r2, #80]	; 0x50
    bdc4:	ea000011 	b	be10 <fill_buffer+0x170>
    bdc8:	e51b3010 	ldr	r3, [fp, #-16]
    bdcc:	e51b2008 	ldr	r2, [fp, #-8]
    bdd0:	e0823003 	add	r3, r2, r3
    bdd4:	e50b3008 	str	r3, [fp, #-8]
    bdd8:	e51b3018 	ldr	r3, [fp, #-24]	; 0xffffffe8
    bddc:	e5932078 	ldr	r2, [r3, #120]	; 0x78
    bde0:	e51b3010 	ldr	r3, [fp, #-16]
    bde4:	e0422003 	sub	r2, r2, r3
    bde8:	e51b3018 	ldr	r3, [fp, #-24]	; 0xffffffe8
    bdec:	e5832078 	str	r2, [r3, #120]	; 0x78
    bdf0:	e51b2008 	ldr	r2, [fp, #-8]
    bdf4:	e51b3024 	ldr	r3, [fp, #-36]	; 0xffffffdc
    bdf8:	e1520003 	cmp	r2, r3
    bdfc:	2a000003 	bcs	be10 <fill_buffer+0x170>
    be00:	e51b3018 	ldr	r3, [fp, #-24]	; 0xffffffe8
    be04:	e5933078 	ldr	r3, [r3, #120]	; 0x78
    be08:	e3530000 	cmp	r3, #0
    be0c:	1affffd1 	bne	bd58 <fill_buffer+0xb8>
    be10:	e51b3018 	ldr	r3, [fp, #-24]	; 0xffffffe8
    be14:	e5933078 	ldr	r3, [r3, #120]	; 0x78
    be18:	e3530000 	cmp	r3, #0
    be1c:	1a000004 	bne	be34 <fill_buffer+0x194>
    be20:	e51b2018 	ldr	r2, [fp, #-24]	; 0xffffffe8
    be24:	e5d23050 	ldrb	r3, [r2, #80]	; 0x50
    be28:	e3a01001 	mov	r1, #1
    be2c:	e7c23091 	bfi	r3, r1, #1, #2
    be30:	e5c23050 	strb	r3, [r2, #80]	; 0x50
    be34:	e51b3008 	ldr	r3, [fp, #-8]
    be38:	e1a00003 	mov	r0, r3
    be3c:	e24bd004 	sub	sp, fp, #4
    be40:	e8bd8800 	pop	{fp, pc}

0000be44 <decode_filter>:
    be44:	e92d4800 	push	{fp, lr}
    be48:	e28db004 	add	fp, sp, #4
    be4c:	e24dd028 	sub	sp, sp, #40	; 0x28
    be50:	e50b0018 	str	r0, [fp, #-24]	; 0xffffffe8
    be54:	e50b101c 	str	r1, [fp, #-28]	; 0xffffffe4
    be58:	e50b2020 	str	r2, [fp, #-32]	; 0xffffffe0
    be5c:	e50b3024 	str	r3, [fp, #-36]	; 0xffffffdc
    be60:	e51b3018 	ldr	r3, [fp, #-24]	; 0xffffffe8
    be64:	e50b300c 	str	r3, [fp, #-12]
    be68:	e59b3004 	ldr	r3, [fp, #4]
    be6c:	e5933000 	ldr	r3, [r3]
    be70:	e50b3010 	str	r3, [fp, #-16]
    be74:	e3a03000 	mov	r3, #0
    be78:	e50b3008 	str	r3, [fp, #-8]
    be7c:	e51b301c 	ldr	r3, [fp, #-28]	; 0xffffffe4
    be80:	e3530003 	cmp	r3, #3
    be84:	1a00000b 	bne	beb8 <decode_filter+0x74>
    be88:	e51b300c 	ldr	r3, [fp, #-12]
    be8c:	e5d33050 	ldrb	r3, [r3, #80]	; 0x50
    be90:	e2033006 	and	r3, r3, #6
    be94:	e6ef3073 	uxtb	r3, r3
    be98:	e3530000 	cmp	r3, #0
    be9c:	0a000005 	beq	beb8 <decode_filter+0x74>
    bea0:	e59b3004 	ldr	r3, [fp, #4]
    bea4:	e3a02000 	mov	r2, #0
    bea8:	e5832000 	str	r2, [r3]
    beac:	e3e03000 	mvn	r3, #0
    beb0:	e50b3008 	str	r3, [fp, #-8]
    beb4:	ea00002c 	b	bf6c <decode_filter+0x128>
    beb8:	e51b301c 	ldr	r3, [fp, #-28]	; 0xffffffe4
    bebc:	e3530003 	cmp	r3, #3
    bec0:	1a000024 	bne	bf58 <decode_filter+0x114>
    bec4:	e3a03000 	mov	r3, #0
    bec8:	e58d3000 	str	r3, [sp]
    becc:	e51b3010 	ldr	r3, [fp, #-16]
    bed0:	e51b2024 	ldr	r2, [fp, #-36]	; 0xffffffdc
    bed4:	e51b1020 	ldr	r1, [fp, #-32]	; 0xffffffe0
    bed8:	e51b000c 	ldr	r0, [fp, #-12]
    bedc:	ebffff6f 	bl	bca0 <fill_buffer>
    bee0:	e50b0014 	str	r0, [fp, #-20]	; 0xffffffec
    bee4:	e51b3014 	ldr	r3, [fp, #-20]	; 0xffffffec
    bee8:	e3530000 	cmp	r3, #0
    beec:	0a000008 	beq	bf14 <decode_filter+0xd0>
    bef0:	e51b300c 	ldr	r3, [fp, #-12]
    bef4:	e5930004 	ldr	r0, [r3, #4]
    bef8:	e3a03000 	mov	r3, #0
    befc:	e58d3000 	str	r3, [sp]
    bf00:	e3a03000 	mov	r3, #0
    bf04:	e51b2014 	ldr	r2, [fp, #-20]	; 0xffffffec
    bf08:	e51b1024 	ldr	r1, [fp, #-36]	; 0xffffffdc
    bf0c:	eb0002d8 	bl	ca74 <_gcry_cipher_decrypt>
    bf10:	ea00000c 	b	bf48 <decode_filter+0x104>
    bf14:	e51b300c 	ldr	r3, [fp, #-12]
    bf18:	e5d33050 	ldrb	r3, [r3, #80]	; 0x50
    bf1c:	e2033006 	and	r3, r3, #6
    bf20:	e6ef3073 	uxtb	r3, r3
    bf24:	e3530000 	cmp	r3, #0
    bf28:	1a000004 	bne	bf40 <decode_filter+0xfc>
    bf2c:	e51b200c 	ldr	r2, [fp, #-12]
    bf30:	e5d23050 	ldrb	r3, [r2, #80]	; 0x50
    bf34:	e3a01001 	mov	r1, #1
    bf38:	e7c23091 	bfi	r3, r1, #1, #2
    bf3c:	e5c23050 	strb	r3, [r2, #80]	; 0x50
    bf40:	e3e03000 	mvn	r3, #0
    bf44:	e50b3008 	str	r3, [fp, #-8]
    bf48:	e59b3004 	ldr	r3, [fp, #4]
    bf4c:	e51b2014 	ldr	r2, [fp, #-20]	; 0xffffffec
    bf50:	e5832000 	str	r2, [r3]
    bf54:	ea000004 	b	bf6c <decode_filter+0x128>
    bf58:	e51b301c 	ldr	r3, [fp, #-28]	; 0xffffffe4
    bf5c:	e3530002 	cmp	r3, #2
    bf60:	1a000001 	bne	bf6c <decode_filter+0x128>
    bf64:	e51b000c 	ldr	r0, [fp, #-12]
    bf68:	ebfffccb 	bl	b29c <release_dfx_context>
    bf6c:	e51b3008 	ldr	r3, [fp, #-8]
    bf70:	e1a00003 	mov	r0, r3
    bf74:	e24bd004 	sub	sp, fp, #4
    bf78:	e8bd8800 	pop	{fp, pc}

0000bf7c <free_packet>:
    bf7c:	e92d4800 	push	{fp, lr}
    bf80:	e28db004 	add	fp, sp, #4
    bf84:	e24dd008 	sub	sp, sp, #8
    bf88:	e50b0008 	str	r0, [fp, #-8]
    bf8c:	e50b100c 	str	r1, [fp, #-12]
    bf90:	e51b3008 	ldr	r3, [fp, #-8]
    bf94:	e3530000 	cmp	r3, #0
    bf98:	0a000003 	beq	bfac <free_packet+0x30>
    bf9c:	e51b3008 	ldr	r3, [fp, #-8]
    bfa0:	e5933004 	ldr	r3, [r3, #4]
    bfa4:	e3530000 	cmp	r3, #0
    bfa8:	1a000019 	bne	c014 <free_packet+0x98>
    bfac:	e51b300c 	ldr	r3, [fp, #-12]
    bfb0:	e3530000 	cmp	r3, #0
    bfb4:	0a000018 	beq	c01c <free_packet+0xa0>
    bfb8:	e51b300c 	ldr	r3, [fp, #-12]
    bfbc:	e5933008 	ldr	r3, [r3, #8]
    bfc0:	e3530000 	cmp	r3, #0
    bfc4:	0a000014 	beq	c01c <free_packet+0xa0>
    bfc8:	e51b300c 	ldr	r3, [fp, #-12]
    bfcc:	e593300c 	ldr	r3, [r3, #12]
    bfd0:	e3530000 	cmp	r3, #0
    bfd4:	0a000007 	beq	bff8 <free_packet+0x7c>
    bfd8:	e51b300c 	ldr	r3, [fp, #-12]
    bfdc:	e2833004 	add	r3, r3, #4
    bfe0:	e3a01000 	mov	r1, #0
    bfe4:	e1a00003 	mov	r0, r3
    bfe8:	ebffffe3 	bl	bf7c <free_packet>
    bfec:	e51b300c 	ldr	r3, [fp, #-12]
    bff0:	e3a02000 	mov	r2, #0
    bff4:	e583200c 	str	r2, [r3, #12]
    bff8:	e51b300c 	ldr	r3, [fp, #-12]
    bffc:	e3a02000 	mov	r2, #0
    c000:	e5c32004 	strb	r2, [r3, #4]
    c004:	e51b300c 	ldr	r3, [fp, #-12]
    c008:	e3a02000 	mov	r2, #0
    c00c:	e5832008 	str	r2, [r3, #8]
    c010:	ea000001 	b	c01c <free_packet+0xa0>
    c014:	e320f000 	nop	{0}
    c018:	ea000000 	b	c020 <free_packet+0xa4>
    c01c:	e320f000 	nop	{0}
    c020:	e24bd004 	sub	sp, fp, #4
    c024:	e8bd8800 	pop	{fp, pc}

0000c028 <buf_get_le32>:
    c028:	e52db004 	push	{fp}		; (str fp, [sp, #-4]!)
    c02c:	e28db000 	add	fp, sp, #0
    c030:	e24dd024 	sub	sp, sp, #36	; 0x24
    c034:	e50b0020 	str	r0, [fp, #-32]	; 0xffffffe0
    c038:	e51b3020 	ldr	r3, [fp, #-32]	; 0xffffffe0
    c03c:	e3530000 	cmp	r3, #0
    c040:	1a000001 	bne	c04c <buf_get_le32+0x24>
    c044:	e3a03000 	mov	r3, #0
    c048:	ea000020 	b	c0d0 <buf_get_le32+0xa8>
    c04c:	e51b3020 	ldr	r3, [fp, #-32]	; 0xffffffe0
    c050:	e50b3008 	str	r3, [fp, #-8]
    c054:	e51b3008 	ldr	r3, [fp, #-8]
    c058:	e50b300c 	str	r3, [fp, #-12]
    c05c:	e51b300c 	ldr	r3, [fp, #-12]
    c060:	e5d33000 	ldrb	r3, [r3]
    c064:	e6ef3073 	uxtb	r3, r3
    c068:	e50b3010 	str	r3, [fp, #-16]
    c06c:	e51b300c 	ldr	r3, [fp, #-12]
    c070:	e2833001 	add	r3, r3, #1
    c074:	e5d33000 	ldrb	r3, [r3]
    c078:	e6ef3073 	uxtb	r3, r3
    c07c:	e50b3014 	str	r3, [fp, #-20]	; 0xffffffec
    c080:	e51b300c 	ldr	r3, [fp, #-12]
    c084:	e2833002 	add	r3, r3, #2
    c088:	e5d33000 	ldrb	r3, [r3]
    c08c:	e6ef3073 	uxtb	r3, r3
    c090:	e50b3018 	str	r3, [fp, #-24]	; 0xffffffe8
    c094:	e51b300c 	ldr	r3, [fp, #-12]
    c098:	e2833003 	add	r3, r3, #3
    c09c:	e5d33000 	ldrb	r3, [r3]
    c0a0:	e6ef3073 	uxtb	r3, r3
    c0a4:	e50b301c 	str	r3, [fp, #-28]	; 0xffffffe4
    c0a8:	e51b301c 	ldr	r3, [fp, #-28]	; 0xffffffe4
    c0ac:	e1a02c03 	lsl	r2, r3, #24
    c0b0:	e51b3018 	ldr	r3, [fp, #-24]	; 0xffffffe8
    c0b4:	e1a03803 	lsl	r3, r3, #16
    c0b8:	e1822003 	orr	r2, r2, r3
    c0bc:	e51b3014 	ldr	r3, [fp, #-20]	; 0xffffffec
    c0c0:	e1a03403 	lsl	r3, r3, #8
    c0c4:	e1822003 	orr	r2, r2, r3
    c0c8:	e51b3010 	ldr	r3, [fp, #-16]
    c0cc:	e1823003 	orr	r3, r2, r3
    c0d0:	e1a00003 	mov	r0, r3
    c0d4:	e28bd000 	add	sp, fp, #0
    c0d8:	e49db004 	pop	{fp}		; (ldr fp, [sp], #4)
    c0dc:	e12fff1e 	bx	lr

0000c0e0 <buf_put_le32>:
    c0e0:	e52db004 	push	{fp}		; (str fp, [sp, #-4]!)
    c0e4:	e28db000 	add	fp, sp, #0
    c0e8:	e24dd014 	sub	sp, sp, #20
    c0ec:	e50b0010 	str	r0, [fp, #-16]
    c0f0:	e50b1014 	str	r1, [fp, #-20]	; 0xffffffec
    c0f4:	e51b3010 	ldr	r3, [fp, #-16]
    c0f8:	e50b3008 	str	r3, [fp, #-8]
    c0fc:	e51b3014 	ldr	r3, [fp, #-20]	; 0xffffffec
    c100:	e1a02c23 	lsr	r2, r3, #24
    c104:	e51b3008 	ldr	r3, [fp, #-8]
    c108:	e2833003 	add	r3, r3, #3
    c10c:	e6ef2072 	uxtb	r2, r2
    c110:	e5c32000 	strb	r2, [r3]
    c114:	e51b3014 	ldr	r3, [fp, #-20]	; 0xffffffec
    c118:	e1a02823 	lsr	r2, r3, #16
    c11c:	e51b3008 	ldr	r3, [fp, #-8]
    c120:	e2833002 	add	r3, r3, #2
    c124:	e6ef2072 	uxtb	r2, r2
    c128:	e5c32000 	strb	r2, [r3]
    c12c:	e51b3014 	ldr	r3, [fp, #-20]	; 0xffffffec
    c130:	e1a02423 	lsr	r2, r3, #8
    c134:	e51b3008 	ldr	r3, [fp, #-8]
    c138:	e2833001 	add	r3, r3, #1
    c13c:	e6ef2072 	uxtb	r2, r2
    c140:	e5c32000 	strb	r2, [r3]
    c144:	e51b3014 	ldr	r3, [fp, #-20]	; 0xffffffec
    c148:	e6ef2073 	uxtb	r2, r3
    c14c:	e51b3008 	ldr	r3, [fp, #-8]
    c150:	e5c32000 	strb	r2, [r3]
    c154:	e320f000 	nop	{0}
    c158:	e28bd000 	add	sp, fp, #0
    c15c:	e49db004 	pop	{fp}		; (ldr fp, [sp], #4)
    c160:	e12fff1e 	bx	lr

0000c164 <cipher_block_cpy>:
    c164:	e92d4800 	push	{fp, lr}
    c168:	e28db004 	add	fp, sp, #4
    c16c:	e24dd028 	sub	sp, sp, #40	; 0x28
    c170:	e50b0020 	str	r0, [fp, #-32]	; 0xffffffe0
    c174:	e50b1024 	str	r1, [fp, #-36]	; 0xffffffdc
    c178:	e50b2028 	str	r2, [fp, #-40]	; 0xffffffd8
    c17c:	e51b3020 	ldr	r3, [fp, #-32]	; 0xffffffe0
    c180:	e50b3008 	str	r3, [fp, #-8]
    c184:	e51b3024 	ldr	r3, [fp, #-36]	; 0xffffffdc
    c188:	e50b300c 	str	r3, [fp, #-12]
    c18c:	e51b3028 	ldr	r3, [fp, #-40]	; 0xffffffd8
    c190:	e3530008 	cmp	r3, #8
    c194:	1a000014 	bne	c1ec <cipher_block_cpy+0x88>
    c198:	e51b000c 	ldr	r0, [fp, #-12]
    c19c:	ebffffa1 	bl	c028 <buf_get_le32>
    c1a0:	e1a03000 	mov	r3, r0
    c1a4:	e50b301c 	str	r3, [fp, #-28]	; 0xffffffe4
    c1a8:	e51b300c 	ldr	r3, [fp, #-12]
    c1ac:	e2833004 	add	r3, r3, #4
    c1b0:	e1a00003 	mov	r0, r3
    c1b4:	ebffff9b 	bl	c028 <buf_get_le32>
    c1b8:	e1a03000 	mov	r3, r0
    c1bc:	e50b3018 	str	r3, [fp, #-24]	; 0xffffffe8
    c1c0:	e51b301c 	ldr	r3, [fp, #-28]	; 0xffffffe4
    c1c4:	e1a01003 	mov	r1, r3
    c1c8:	e51b0008 	ldr	r0, [fp, #-8]
    c1cc:	ebffffc3 	bl	c0e0 <buf_put_le32>
    c1d0:	e51b3008 	ldr	r3, [fp, #-8]
    c1d4:	e2833004 	add	r3, r3, #4
    c1d8:	e51b2018 	ldr	r2, [fp, #-24]	; 0xffffffe8
    c1dc:	e1a01002 	mov	r1, r2
    c1e0:	e1a00003 	mov	r0, r3
    c1e4:	ebffffbd 	bl	c0e0 <buf_put_le32>
    c1e8:	ea00002b 	b	c29c <cipher_block_cpy+0x138>
    c1ec:	e51b000c 	ldr	r0, [fp, #-12]
    c1f0:	ebffff8c 	bl	c028 <buf_get_le32>
    c1f4:	e1a03000 	mov	r3, r0
    c1f8:	e50b301c 	str	r3, [fp, #-28]	; 0xffffffe4
    c1fc:	e51b300c 	ldr	r3, [fp, #-12]
    c200:	e2833004 	add	r3, r3, #4
    c204:	e1a00003 	mov	r0, r3
    c208:	ebffff86 	bl	c028 <buf_get_le32>
    c20c:	e1a03000 	mov	r3, r0
    c210:	e50b3018 	str	r3, [fp, #-24]	; 0xffffffe8
    c214:	e51b300c 	ldr	r3, [fp, #-12]
    c218:	e2833008 	add	r3, r3, #8
    c21c:	e1a00003 	mov	r0, r3
    c220:	ebffff80 	bl	c028 <buf_get_le32>
    c224:	e1a03000 	mov	r3, r0
    c228:	e50b3014 	str	r3, [fp, #-20]	; 0xffffffec
    c22c:	e51b300c 	ldr	r3, [fp, #-12]
    c230:	e283300c 	add	r3, r3, #12
    c234:	e1a00003 	mov	r0, r3
    c238:	ebffff7a 	bl	c028 <buf_get_le32>
    c23c:	e1a03000 	mov	r3, r0
    c240:	e50b3010 	str	r3, [fp, #-16]
    c244:	e51b301c 	ldr	r3, [fp, #-28]	; 0xffffffe4
    c248:	e1a01003 	mov	r1, r3
    c24c:	e51b0008 	ldr	r0, [fp, #-8]
    c250:	ebffffa2 	bl	c0e0 <buf_put_le32>
    c254:	e51b3008 	ldr	r3, [fp, #-8]
    c258:	e2833004 	add	r3, r3, #4
    c25c:	e51b2018 	ldr	r2, [fp, #-24]	; 0xffffffe8
    c260:	e1a01002 	mov	r1, r2
    c264:	e1a00003 	mov	r0, r3
    c268:	ebffff9c 	bl	c0e0 <buf_put_le32>
    c26c:	e51b3008 	ldr	r3, [fp, #-8]
    c270:	e2833008 	add	r3, r3, #8
    c274:	e51b2014 	ldr	r2, [fp, #-20]	; 0xffffffec
    c278:	e1a01002 	mov	r1, r2
    c27c:	e1a00003 	mov	r0, r3
    c280:	ebffff96 	bl	c0e0 <buf_put_le32>
    c284:	e51b3008 	ldr	r3, [fp, #-8]
    c288:	e283300c 	add	r3, r3, #12
    c28c:	e51b2010 	ldr	r2, [fp, #-16]
    c290:	e1a01002 	mov	r1, r2
    c294:	e1a00003 	mov	r0, r3
    c298:	ebffff90 	bl	c0e0 <buf_put_le32>
    c29c:	e320f000 	nop	{0}
    c2a0:	e24bd004 	sub	sp, fp, #4
    c2a4:	e8bd8800 	pop	{fp, pc}

0000c2a8 <cipher_block_xor_n_copy_2>:
    c2a8:	e92d4800 	push	{fp, lr}
    c2ac:	e28db004 	add	fp, sp, #4
    c2b0:	e24dd058 	sub	sp, sp, #88	; 0x58
    c2b4:	e50b0050 	str	r0, [fp, #-80]	; 0xffffffb0
    c2b8:	e50b1054 	str	r1, [fp, #-84]	; 0xffffffac
    c2bc:	e50b2058 	str	r2, [fp, #-88]	; 0xffffffa8
    c2c0:	e50b305c 	str	r3, [fp, #-92]	; 0xffffffa4
    c2c4:	e51b3050 	ldr	r3, [fp, #-80]	; 0xffffffb0
    c2c8:	e50b300c 	str	r3, [fp, #-12]
    c2cc:	e51b3058 	ldr	r3, [fp, #-88]	; 0xffffffa8
    c2d0:	e50b3010 	str	r3, [fp, #-16]
    c2d4:	e51b3054 	ldr	r3, [fp, #-84]	; 0xffffffac
    c2d8:	e50b3014 	str	r3, [fp, #-20]	; 0xffffffec
    c2dc:	e51b305c 	ldr	r3, [fp, #-92]	; 0xffffffa4
    c2e0:	e50b3018 	str	r3, [fp, #-24]	; 0xffffffe8
    c2e4:	e59b3004 	ldr	r3, [fp, #4]
    c2e8:	e3530008 	cmp	r3, #8
    c2ec:	1a000036 	bne	c3cc <cipher_block_xor_n_copy_2+0x124>
    c2f0:	e51b0018 	ldr	r0, [fp, #-24]	; 0xffffffe8
    c2f4:	ebffff4b 	bl	c028 <buf_get_le32>
    c2f8:	e1a03000 	mov	r3, r0
    c2fc:	e50b3028 	str	r3, [fp, #-40]	; 0xffffffd8
    c300:	e51b3018 	ldr	r3, [fp, #-24]	; 0xffffffe8
    c304:	e2833004 	add	r3, r3, #4
    c308:	e1a00003 	mov	r0, r3
    c30c:	ebffff45 	bl	c028 <buf_get_le32>
    c310:	e1a03000 	mov	r3, r0
    c314:	e50b3024 	str	r3, [fp, #-36]	; 0xffffffdc
    c318:	e51b0010 	ldr	r0, [fp, #-16]
    c31c:	ebffff41 	bl	c028 <buf_get_le32>
    c320:	e1a03000 	mov	r3, r0
    c324:	e50b3048 	str	r3, [fp, #-72]	; 0xffffffb8
    c328:	e51b3010 	ldr	r3, [fp, #-16]
    c32c:	e2833004 	add	r3, r3, #4
    c330:	e1a00003 	mov	r0, r3
    c334:	ebffff3b 	bl	c028 <buf_get_le32>
    c338:	e1a03000 	mov	r3, r0
    c33c:	e50b3044 	str	r3, [fp, #-68]	; 0xffffffbc
    c340:	e51b0014 	ldr	r0, [fp, #-20]	; 0xffffffec
    c344:	ebffff37 	bl	c028 <buf_get_le32>
    c348:	e1a02000 	mov	r2, r0
    c34c:	e51b3048 	ldr	r3, [fp, #-72]	; 0xffffffb8
    c350:	e0233002 	eor	r3, r3, r2
    c354:	e50b3038 	str	r3, [fp, #-56]	; 0xffffffc8
    c358:	e51b3014 	ldr	r3, [fp, #-20]	; 0xffffffec
    c35c:	e2833004 	add	r3, r3, #4
    c360:	e1a00003 	mov	r0, r3
    c364:	ebffff2f 	bl	c028 <buf_get_le32>
    c368:	e1a02000 	mov	r2, r0
    c36c:	e51b3044 	ldr	r3, [fp, #-68]	; 0xffffffbc
    c370:	e0233002 	eor	r3, r3, r2
    c374:	e50b3034 	str	r3, [fp, #-52]	; 0xffffffcc
    c378:	e51b3038 	ldr	r3, [fp, #-56]	; 0xffffffc8
    c37c:	e1a01003 	mov	r1, r3
    c380:	e51b000c 	ldr	r0, [fp, #-12]
    c384:	ebffff55 	bl	c0e0 <buf_put_le32>
    c388:	e51b300c 	ldr	r3, [fp, #-12]
    c38c:	e2833004 	add	r3, r3, #4
    c390:	e51b2034 	ldr	r2, [fp, #-52]	; 0xffffffcc
    c394:	e1a01002 	mov	r1, r2
    c398:	e1a00003 	mov	r0, r3
    c39c:	ebffff4f 	bl	c0e0 <buf_put_le32>
    c3a0:	e51b3028 	ldr	r3, [fp, #-40]	; 0xffffffd8
    c3a4:	e1a01003 	mov	r1, r3
    c3a8:	e51b0010 	ldr	r0, [fp, #-16]
    c3ac:	ebffff4b 	bl	c0e0 <buf_put_le32>
    c3b0:	e51b3010 	ldr	r3, [fp, #-16]
    c3b4:	e2833004 	add	r3, r3, #4
    c3b8:	e51b2024 	ldr	r2, [fp, #-36]	; 0xffffffdc
    c3bc:	e1a01002 	mov	r1, r2
    c3c0:	e1a00003 	mov	r0, r3
    c3c4:	ebffff45 	bl	c0e0 <buf_put_le32>
    c3c8:	ea00004f 	b	c50c <cipher_block_xor_n_copy_2+0x264>
    c3cc:	e3a03000 	mov	r3, #0
    c3d0:	e50b3008 	str	r3, [fp, #-8]
    c3d4:	ea000049 	b	c500 <cipher_block_xor_n_copy_2+0x258>
    c3d8:	e51b3008 	ldr	r3, [fp, #-8]
    c3dc:	e1a03103 	lsl	r3, r3, #2
    c3e0:	e1a02003 	mov	r2, r3
    c3e4:	e51b3018 	ldr	r3, [fp, #-24]	; 0xffffffe8
    c3e8:	e0833002 	add	r3, r3, r2
    c3ec:	e1a00003 	mov	r0, r3
    c3f0:	ebffff0c 	bl	c028 <buf_get_le32>
    c3f4:	e1a02000 	mov	r2, r0
    c3f8:	e51b3008 	ldr	r3, [fp, #-8]
    c3fc:	e1a03103 	lsl	r3, r3, #2
    c400:	e2433004 	sub	r3, r3, #4
    c404:	e083300b 	add	r3, r3, fp
    c408:	e5032024 	str	r2, [r3, #-36]	; 0xffffffdc
    c40c:	e51b3008 	ldr	r3, [fp, #-8]
    c410:	e1a03103 	lsl	r3, r3, #2
    c414:	e1a02003 	mov	r2, r3
    c418:	e51b3010 	ldr	r3, [fp, #-16]
    c41c:	e0833002 	add	r3, r3, r2
    c420:	e1a00003 	mov	r0, r3
    c424:	ebfffeff 	bl	c028 <buf_get_le32>
    c428:	e1a02000 	mov	r2, r0
    c42c:	e51b3008 	ldr	r3, [fp, #-8]
    c430:	e1a03103 	lsl	r3, r3, #2
    c434:	e2433004 	sub	r3, r3, #4
    c438:	e083300b 	add	r3, r3, fp
    c43c:	e5032044 	str	r2, [r3, #-68]	; 0xffffffbc
    c440:	e51b3008 	ldr	r3, [fp, #-8]
    c444:	e1a03103 	lsl	r3, r3, #2
    c448:	e1a02003 	mov	r2, r3
    c44c:	e51b3014 	ldr	r3, [fp, #-20]	; 0xffffffec
    c450:	e0833002 	add	r3, r3, r2
    c454:	e1a00003 	mov	r0, r3
    c458:	ebfffef2 	bl	c028 <buf_get_le32>
    c45c:	e1a02000 	mov	r2, r0
    c460:	e51b3008 	ldr	r3, [fp, #-8]
    c464:	e1a03103 	lsl	r3, r3, #2
    c468:	e2433004 	sub	r3, r3, #4
    c46c:	e083300b 	add	r3, r3, fp
    c470:	e5133044 	ldr	r3, [r3, #-68]	; 0xffffffbc
    c474:	e0222003 	eor	r2, r2, r3
    c478:	e51b3008 	ldr	r3, [fp, #-8]
    c47c:	e1a03103 	lsl	r3, r3, #2
    c480:	e2433004 	sub	r3, r3, #4
    c484:	e083300b 	add	r3, r3, fp
    c488:	e5032034 	str	r2, [r3, #-52]	; 0xffffffcc
    c48c:	e51b3008 	ldr	r3, [fp, #-8]
    c490:	e1a03103 	lsl	r3, r3, #2
    c494:	e1a02003 	mov	r2, r3
    c498:	e51b300c 	ldr	r3, [fp, #-12]
    c49c:	e0832002 	add	r2, r3, r2
    c4a0:	e51b3008 	ldr	r3, [fp, #-8]
    c4a4:	e1a03103 	lsl	r3, r3, #2
    c4a8:	e2433004 	sub	r3, r3, #4
    c4ac:	e083300b 	add	r3, r3, fp
    c4b0:	e5133034 	ldr	r3, [r3, #-52]	; 0xffffffcc
    c4b4:	e1a01003 	mov	r1, r3
    c4b8:	e1a00002 	mov	r0, r2
    c4bc:	ebffff07 	bl	c0e0 <buf_put_le32>
    c4c0:	e51b3008 	ldr	r3, [fp, #-8]
    c4c4:	e1a03103 	lsl	r3, r3, #2
    c4c8:	e1a02003 	mov	r2, r3
    c4cc:	e51b3010 	ldr	r3, [fp, #-16]
    c4d0:	e0832002 	add	r2, r3, r2
    c4d4:	e51b3008 	ldr	r3, [fp, #-8]
    c4d8:	e1a03103 	lsl	r3, r3, #2
    c4dc:	e2433004 	sub	r3, r3, #4
    c4e0:	e083300b 	add	r3, r3, fp
    c4e4:	e5133024 	ldr	r3, [r3, #-36]	; 0xffffffdc
    c4e8:	e1a01003 	mov	r1, r3
    c4ec:	e1a00002 	mov	r0, r2
    c4f0:	ebfffefa 	bl	c0e0 <buf_put_le32>
    c4f4:	e51b3008 	ldr	r3, [fp, #-8]
    c4f8:	e2833001 	add	r3, r3, #1
    c4fc:	e50b3008 	str	r3, [fp, #-8]
    c500:	e51b3008 	ldr	r3, [fp, #-8]
    c504:	e3530003 	cmp	r3, #3
    c508:	daffffb2 	ble	c3d8 <cipher_block_xor_n_copy_2+0x130>
    c50c:	e320f000 	nop	{0}
    c510:	e24bd004 	sub	sp, fp, #4
    c514:	e8bd8800 	pop	{fp, pc}

0000c518 <buf_xor_n_copy_2>:
    c518:	e92d4810 	push	{r4, fp, lr}
    c51c:	e28db008 	add	fp, sp, #8
    c520:	e24dd02c 	sub	sp, sp, #44	; 0x2c
    c524:	e50b0028 	str	r0, [fp, #-40]	; 0xffffffd8
    c528:	e50b102c 	str	r1, [fp, #-44]	; 0xffffffd4
    c52c:	e50b2030 	str	r2, [fp, #-48]	; 0xffffffd0
    c530:	e50b3034 	str	r3, [fp, #-52]	; 0xffffffcc
    c534:	e51b3028 	ldr	r3, [fp, #-40]	; 0xffffffd8
    c538:	e50b3010 	str	r3, [fp, #-16]
    c53c:	e51b3030 	ldr	r3, [fp, #-48]	; 0xffffffd0
    c540:	e50b3014 	str	r3, [fp, #-20]	; 0xffffffec
    c544:	e51b302c 	ldr	r3, [fp, #-44]	; 0xffffffd4
    c548:	e50b3018 	str	r3, [fp, #-24]	; 0xffffffe8
    c54c:	e51b3034 	ldr	r3, [fp, #-52]	; 0xffffffcc
    c550:	e50b301c 	str	r3, [fp, #-28]	; 0xffffffe4
    c554:	ea00001e 	b	c5d4 <buf_xor_n_copy_2+0xbc>
    c558:	e51b001c 	ldr	r0, [fp, #-28]	; 0xffffffe4
    c55c:	ebfffeb1 	bl	c028 <buf_get_le32>
    c560:	e50b0024 	str	r0, [fp, #-36]	; 0xffffffdc
    c564:	e51b0014 	ldr	r0, [fp, #-20]	; 0xffffffec
    c568:	ebfffeae 	bl	c028 <buf_get_le32>
    c56c:	e1a04000 	mov	r4, r0
    c570:	e51b0018 	ldr	r0, [fp, #-24]	; 0xffffffe8
    c574:	ebfffeab 	bl	c028 <buf_get_le32>
    c578:	e1a03000 	mov	r3, r0
    c57c:	e0233004 	eor	r3, r3, r4
    c580:	e1a01003 	mov	r1, r3
    c584:	e51b0010 	ldr	r0, [fp, #-16]
    c588:	ebfffed4 	bl	c0e0 <buf_put_le32>
    c58c:	e51b1024 	ldr	r1, [fp, #-36]	; 0xffffffdc
    c590:	e51b0014 	ldr	r0, [fp, #-20]	; 0xffffffec
    c594:	ebfffed1 	bl	c0e0 <buf_put_le32>
    c598:	e51b3010 	ldr	r3, [fp, #-16]
    c59c:	e2833004 	add	r3, r3, #4
    c5a0:	e50b3010 	str	r3, [fp, #-16]
    c5a4:	e51b3014 	ldr	r3, [fp, #-20]	; 0xffffffec
    c5a8:	e2833004 	add	r3, r3, #4
    c5ac:	e50b3014 	str	r3, [fp, #-20]	; 0xffffffec
    c5b0:	e51b3018 	ldr	r3, [fp, #-24]	; 0xffffffe8
    c5b4:	e2833004 	add	r3, r3, #4
    c5b8:	e50b3018 	str	r3, [fp, #-24]	; 0xffffffe8
    c5bc:	e51b301c 	ldr	r3, [fp, #-28]	; 0xffffffe4
    c5c0:	e2833004 	add	r3, r3, #4
    c5c4:	e50b301c 	str	r3, [fp, #-28]	; 0xffffffe4
    c5c8:	e59b3004 	ldr	r3, [fp, #4]
    c5cc:	e2433004 	sub	r3, r3, #4
    c5d0:	e58b3004 	str	r3, [fp, #4]
    c5d4:	e59b3004 	ldr	r3, [fp, #4]
    c5d8:	e3530003 	cmp	r3, #3
    c5dc:	8affffdd 	bhi	c558 <buf_xor_n_copy_2+0x40>
    c5e0:	ea000018 	b	c648 <buf_xor_n_copy_2+0x130>
    c5e4:	e51b301c 	ldr	r3, [fp, #-28]	; 0xffffffe4
    c5e8:	e2832001 	add	r2, r3, #1
    c5ec:	e50b201c 	str	r2, [fp, #-28]	; 0xffffffe4
    c5f0:	e5d33000 	ldrb	r3, [r3]
    c5f4:	e54b301d 	strb	r3, [fp, #-29]	; 0xffffffe3
    c5f8:	e51b3014 	ldr	r3, [fp, #-20]	; 0xffffffec
    c5fc:	e5d31000 	ldrb	r1, [r3]
    c600:	e51b3018 	ldr	r3, [fp, #-24]	; 0xffffffe8
    c604:	e2832001 	add	r2, r3, #1
    c608:	e50b2018 	str	r2, [fp, #-24]	; 0xffffffe8
    c60c:	e5d32000 	ldrb	r2, [r3]
    c610:	e51b3010 	ldr	r3, [fp, #-16]
    c614:	e2830001 	add	r0, r3, #1
    c618:	e50b0010 	str	r0, [fp, #-16]
    c61c:	e0222001 	eor	r2, r2, r1
    c620:	e6ef2072 	uxtb	r2, r2
    c624:	e5c32000 	strb	r2, [r3]
    c628:	e51b3014 	ldr	r3, [fp, #-20]	; 0xffffffec
    c62c:	e2832001 	add	r2, r3, #1
    c630:	e50b2014 	str	r2, [fp, #-20]	; 0xffffffec
    c634:	e55b201d 	ldrb	r2, [fp, #-29]	; 0xffffffe3
    c638:	e5c32000 	strb	r2, [r3]
    c63c:	e59b3004 	ldr	r3, [fp, #4]
    c640:	e2433001 	sub	r3, r3, #1
    c644:	e58b3004 	str	r3, [fp, #4]
    c648:	e59b3004 	ldr	r3, [fp, #4]
    c64c:	e3530000 	cmp	r3, #0
    c650:	1affffe3 	bne	c5e4 <buf_xor_n_copy_2+0xcc>
    c654:	e320f000 	nop	{0}
    c658:	e320f000 	nop	{0}
    c65c:	e24bd008 	sub	sp, fp, #8
    c660:	e8bd8810 	pop	{r4, fp, pc}

0000c664 <buf_xor_n_copy>:
    c664:	e92d4800 	push	{fp, lr}
    c668:	e28db004 	add	fp, sp, #4
    c66c:	e24dd018 	sub	sp, sp, #24
    c670:	e50b0008 	str	r0, [fp, #-8]
    c674:	e50b100c 	str	r1, [fp, #-12]
    c678:	e50b2010 	str	r2, [fp, #-16]
    c67c:	e50b3014 	str	r3, [fp, #-20]	; 0xffffffec
    c680:	e51b3014 	ldr	r3, [fp, #-20]	; 0xffffffec
    c684:	e58d3000 	str	r3, [sp]
    c688:	e51b3010 	ldr	r3, [fp, #-16]
    c68c:	e51b200c 	ldr	r2, [fp, #-12]
    c690:	e51b1010 	ldr	r1, [fp, #-16]
    c694:	e51b0008 	ldr	r0, [fp, #-8]
    c698:	ebffff9e 	bl	c518 <buf_xor_n_copy_2>
    c69c:	e320f000 	nop	{0}
    c6a0:	e24bd004 	sub	sp, fp, #4
    c6a4:	e8bd8800 	pop	{fp, pc}

0000c6a8 <cipher_block_xor_n_copy>:
    c6a8:	e92d4800 	push	{fp, lr}
    c6ac:	e28db004 	add	fp, sp, #4
    c6b0:	e24dd018 	sub	sp, sp, #24
    c6b4:	e50b0008 	str	r0, [fp, #-8]
    c6b8:	e50b100c 	str	r1, [fp, #-12]
    c6bc:	e50b2010 	str	r2, [fp, #-16]
    c6c0:	e50b3014 	str	r3, [fp, #-20]	; 0xffffffec
    c6c4:	e51b3014 	ldr	r3, [fp, #-20]	; 0xffffffec
    c6c8:	e58d3000 	str	r3, [sp]
    c6cc:	e51b3010 	ldr	r3, [fp, #-16]
    c6d0:	e51b200c 	ldr	r2, [fp, #-12]
    c6d4:	e51b1010 	ldr	r1, [fp, #-16]
    c6d8:	e51b0008 	ldr	r0, [fp, #-8]
    c6dc:	ebfffef1 	bl	c2a8 <cipher_block_xor_n_copy_2>
    c6e0:	e320f000 	nop	{0}
    c6e4:	e24bd004 	sub	sp, fp, #4
    c6e8:	e8bd8800 	pop	{fp, pc}

0000c6ec <buf_xor>:
    c6ec:	e92d4830 	push	{r4, r5, fp, lr}
    c6f0:	e28db00c 	add	fp, sp, #12
    c6f4:	e24dd020 	sub	sp, sp, #32
    c6f8:	e50b0020 	str	r0, [fp, #-32]	; 0xffffffe0
    c6fc:	e50b1024 	str	r1, [fp, #-36]	; 0xffffffdc
    c700:	e50b2028 	str	r2, [fp, #-40]	; 0xffffffd8
    c704:	e50b302c 	str	r3, [fp, #-44]	; 0xffffffd4
    c708:	e51b3020 	ldr	r3, [fp, #-32]	; 0xffffffe0
    c70c:	e50b3010 	str	r3, [fp, #-16]
    c710:	e51b3024 	ldr	r3, [fp, #-36]	; 0xffffffdc
    c714:	e50b3014 	str	r3, [fp, #-20]	; 0xffffffec
    c718:	e51b3028 	ldr	r3, [fp, #-40]	; 0xffffffd8
    c71c:	e50b3018 	str	r3, [fp, #-24]	; 0xffffffe8
    c720:	ea00002a 	b	c7d0 <buf_xor+0xe4>
    c724:	e59b3004 	ldr	r3, [fp, #4]
    c728:	e3530000 	cmp	r3, #0
    c72c:	0a000011 	beq	c778 <buf_xor+0x8c>
    c730:	e51b0014 	ldr	r0, [fp, #-20]	; 0xffffffec
    c734:	ebfffe3b 	bl	c028 <buf_get_le32>
    c738:	e1a04000 	mov	r4, r0
    c73c:	e51b0018 	ldr	r0, [fp, #-24]	; 0xffffffe8
    c740:	ebfffe38 	bl	c028 <buf_get_le32>
    c744:	e1a03000 	mov	r3, r0
    c748:	e0244003 	eor	r4, r4, r3
    c74c:	e51b0014 	ldr	r0, [fp, #-20]	; 0xffffffec
    c750:	ebfffe34 	bl	c028 <buf_get_le32>
    c754:	e1a05000 	mov	r5, r0
    c758:	e51b0018 	ldr	r0, [fp, #-24]	; 0xffffffe8
    c75c:	ebfffe31 	bl	c028 <buf_get_le32>
    c760:	e1a03000 	mov	r3, r0
    c764:	e1a02005 	mov	r2, r5
    c768:	e1a01004 	mov	r1, r4
    c76c:	e3040ea4 	movw	r0, #20132	; 0x4ea4
    c770:	e3400001 	movt	r0, #1
    c774:	eb001d31 	bl	13c40 <tfp_printf>
    c778:	e51b0014 	ldr	r0, [fp, #-20]	; 0xffffffec
    c77c:	ebfffe29 	bl	c028 <buf_get_le32>
    c780:	e1a04000 	mov	r4, r0
    c784:	e51b0018 	ldr	r0, [fp, #-24]	; 0xffffffe8
    c788:	ebfffe26 	bl	c028 <buf_get_le32>
    c78c:	e1a03000 	mov	r3, r0
    c790:	e0233004 	eor	r3, r3, r4
    c794:	e1a01003 	mov	r1, r3
    c798:	e51b0010 	ldr	r0, [fp, #-16]
    c79c:	ebfffe4f 	bl	c0e0 <buf_put_le32>
    c7a0:	e51b3010 	ldr	r3, [fp, #-16]
    c7a4:	e2833004 	add	r3, r3, #4
    c7a8:	e50b3010 	str	r3, [fp, #-16]
    c7ac:	e51b3014 	ldr	r3, [fp, #-20]	; 0xffffffec
    c7b0:	e2833004 	add	r3, r3, #4
    c7b4:	e50b3014 	str	r3, [fp, #-20]	; 0xffffffec
    c7b8:	e51b3018 	ldr	r3, [fp, #-24]	; 0xffffffe8
    c7bc:	e2833004 	add	r3, r3, #4
    c7c0:	e50b3018 	str	r3, [fp, #-24]	; 0xffffffe8
    c7c4:	e51b302c 	ldr	r3, [fp, #-44]	; 0xffffffd4
    c7c8:	e2433004 	sub	r3, r3, #4
    c7cc:	e50b302c 	str	r3, [fp, #-44]	; 0xffffffd4
    c7d0:	e51b302c 	ldr	r3, [fp, #-44]	; 0xffffffd4
    c7d4:	e3530003 	cmp	r3, #3
    c7d8:	8affffd1 	bhi	c724 <buf_xor+0x38>
    c7dc:	ea000022 	b	c86c <buf_xor+0x180>
    c7e0:	e59b3004 	ldr	r3, [fp, #4]
    c7e4:	e3530000 	cmp	r3, #0
    c7e8:	0a00000e 	beq	c828 <buf_xor+0x13c>
    c7ec:	e51b3014 	ldr	r3, [fp, #-20]	; 0xffffffec
    c7f0:	e5d32000 	ldrb	r2, [r3]
    c7f4:	e51b3018 	ldr	r3, [fp, #-24]	; 0xffffffe8
    c7f8:	e5d33000 	ldrb	r3, [r3]
    c7fc:	e0233002 	eor	r3, r3, r2
    c800:	e6ef3073 	uxtb	r3, r3
    c804:	e1a01003 	mov	r1, r3
    c808:	e51b3014 	ldr	r3, [fp, #-20]	; 0xffffffec
    c80c:	e5d33000 	ldrb	r3, [r3]
    c810:	e1a02003 	mov	r2, r3
    c814:	e51b3018 	ldr	r3, [fp, #-24]	; 0xffffffe8
    c818:	e5d33000 	ldrb	r3, [r3]
    c81c:	e3040ebc 	movw	r0, #20156	; 0x4ebc
    c820:	e3400001 	movt	r0, #1
    c824:	eb001d05 	bl	13c40 <tfp_printf>
    c828:	e51b3014 	ldr	r3, [fp, #-20]	; 0xffffffec
    c82c:	e2832001 	add	r2, r3, #1
    c830:	e50b2014 	str	r2, [fp, #-20]	; 0xffffffec
    c834:	e5d31000 	ldrb	r1, [r3]
    c838:	e51b3018 	ldr	r3, [fp, #-24]	; 0xffffffe8
    c83c:	e2832001 	add	r2, r3, #1
    c840:	e50b2018 	str	r2, [fp, #-24]	; 0xffffffe8
    c844:	e5d32000 	ldrb	r2, [r3]
    c848:	e51b3010 	ldr	r3, [fp, #-16]
    c84c:	e2830001 	add	r0, r3, #1
    c850:	e50b0010 	str	r0, [fp, #-16]
    c854:	e0222001 	eor	r2, r2, r1
    c858:	e6ef2072 	uxtb	r2, r2
    c85c:	e5c32000 	strb	r2, [r3]
    c860:	e51b302c 	ldr	r3, [fp, #-44]	; 0xffffffd4
    c864:	e2433001 	sub	r3, r3, #1
    c868:	e50b302c 	str	r3, [fp, #-44]	; 0xffffffd4
    c86c:	e51b302c 	ldr	r3, [fp, #-44]	; 0xffffffd4
    c870:	e3530000 	cmp	r3, #0
    c874:	1affffd9 	bne	c7e0 <buf_xor+0xf4>
    c878:	e320f000 	nop	{0}
    c87c:	e320f000 	nop	{0}
    c880:	e24bd00c 	sub	sp, fp, #12
    c884:	e8bd8830 	pop	{r4, r5, fp, pc}

0000c888 <_gcry_cipher_setkey>:
    c888:	e52db004 	push	{fp}		; (str fp, [sp, #-4]!)
    c88c:	e28db000 	add	fp, sp, #0
    c890:	e24dd02c 	sub	sp, sp, #44	; 0x2c
    c894:	e50b0020 	str	r0, [fp, #-32]	; 0xffffffe0
    c898:	e50b1024 	str	r1, [fp, #-36]	; 0xffffffdc
    c89c:	e50b2028 	str	r2, [fp, #-40]	; 0xffffffd8
    c8a0:	e24b301c 	sub	r3, fp, #28
    c8a4:	e3a02000 	mov	r2, #0
    c8a8:	e5832000 	str	r2, [r3]
    c8ac:	e5832004 	str	r2, [r3, #4]
    c8b0:	e5832008 	str	r2, [r3, #8]
    c8b4:	e583200c 	str	r2, [r3, #12]
    c8b8:	e3a03000 	mov	r3, #0
    c8bc:	e50b3008 	str	r3, [fp, #-8]
    c8c0:	e3a03000 	mov	r3, #0
    c8c4:	e50b300c 	str	r3, [fp, #-12]
    c8c8:	ea000023 	b	c95c <_gcry_cipher_setkey+0xd4>
    c8cc:	e51b3008 	ldr	r3, [fp, #-8]
    c8d0:	e51b2024 	ldr	r2, [fp, #-36]	; 0xffffffdc
    c8d4:	e0823003 	add	r3, r2, r3
    c8d8:	e5d33000 	ldrb	r3, [r3]
    c8dc:	e1a02c03 	lsl	r2, r3, #24
    c8e0:	e51b3008 	ldr	r3, [fp, #-8]
    c8e4:	e2833001 	add	r3, r3, #1
    c8e8:	e51b1024 	ldr	r1, [fp, #-36]	; 0xffffffdc
    c8ec:	e0813003 	add	r3, r1, r3
    c8f0:	e5d33000 	ldrb	r3, [r3]
    c8f4:	e1a03803 	lsl	r3, r3, #16
    c8f8:	e0822003 	add	r2, r2, r3
    c8fc:	e51b3008 	ldr	r3, [fp, #-8]
    c900:	e2833002 	add	r3, r3, #2
    c904:	e51b1024 	ldr	r1, [fp, #-36]	; 0xffffffdc
    c908:	e0813003 	add	r3, r1, r3
    c90c:	e5d33000 	ldrb	r3, [r3]
    c910:	e1a03403 	lsl	r3, r3, #8
    c914:	e0823003 	add	r3, r2, r3
    c918:	e51b2008 	ldr	r2, [fp, #-8]
    c91c:	e2822003 	add	r2, r2, #3
    c920:	e51b1024 	ldr	r1, [fp, #-36]	; 0xffffffdc
    c924:	e0812002 	add	r2, r1, r2
    c928:	e5d22000 	ldrb	r2, [r2]
    c92c:	e0833002 	add	r3, r3, r2
    c930:	e1a01003 	mov	r1, r3
    c934:	e51b3020 	ldr	r3, [fp, #-32]	; 0xffffffe0
    c938:	e51b200c 	ldr	r2, [fp, #-12]
    c93c:	e282200c 	add	r2, r2, #12
    c940:	e7831102 	str	r1, [r3, r2, lsl #2]
    c944:	e51b3008 	ldr	r3, [fp, #-8]
    c948:	e2833004 	add	r3, r3, #4
    c94c:	e50b3008 	str	r3, [fp, #-8]
    c950:	e51b300c 	ldr	r3, [fp, #-12]
    c954:	e2833001 	add	r3, r3, #1
    c958:	e50b300c 	str	r3, [fp, #-12]
    c95c:	e51b300c 	ldr	r3, [fp, #-12]
    c960:	e3530003 	cmp	r3, #3
    c964:	daffffd8 	ble	c8cc <_gcry_cipher_setkey+0x44>
    c968:	e3a03000 	mov	r3, #0
    c96c:	e1a00003 	mov	r0, r3
    c970:	e28bd000 	add	sp, fp, #0
    c974:	e49db004 	pop	{fp}		; (ldr fp, [sp], #4)
    c978:	e12fff1e 	bx	lr

0000c97c <_gcry_cipher_setiv>:
    c97c:	e92d4800 	push	{fp, lr}
    c980:	e28db004 	add	fp, sp, #4
    c984:	e24dd010 	sub	sp, sp, #16
    c988:	e50b0008 	str	r0, [fp, #-8]
    c98c:	e50b100c 	str	r1, [fp, #-12]
    c990:	e50b2010 	str	r2, [fp, #-16]
    c994:	e51b3008 	ldr	r3, [fp, #-8]
    c998:	e3a02000 	mov	r2, #0
    c99c:	e5832020 	str	r2, [r3, #32]
    c9a0:	e51b300c 	ldr	r3, [fp, #-12]
    c9a4:	e3530000 	cmp	r3, #0
    c9a8:	0a000005 	beq	c9c4 <_gcry_cipher_setiv+0x48>
    c9ac:	e51b3008 	ldr	r3, [fp, #-8]
    c9b0:	e51b2010 	ldr	r2, [fp, #-16]
    c9b4:	e51b100c 	ldr	r1, [fp, #-12]
    c9b8:	e1a00003 	mov	r0, r3
    c9bc:	eb000f14 	bl	10614 <memcpy>
    c9c0:	ea000004 	b	c9d8 <_gcry_cipher_setiv+0x5c>
    c9c4:	e51b3008 	ldr	r3, [fp, #-8]
    c9c8:	e51b2010 	ldr	r2, [fp, #-16]
    c9cc:	e3a01000 	mov	r1, #0
    c9d0:	e1a00003 	mov	r0, r3
    c9d4:	eb000ef5 	bl	105b0 <memset>
    c9d8:	e3a03000 	mov	r3, #0
    c9dc:	e1a00003 	mov	r0, r3
    c9e0:	e24bd004 	sub	sp, fp, #4
    c9e4:	e8bd8800 	pop	{fp, pc}

0000c9e8 <cipher_sync>:
    c9e8:	e92d4800 	push	{fp, lr}
    c9ec:	e28db004 	add	fp, sp, #4
    c9f0:	e24dd008 	sub	sp, sp, #8
    c9f4:	e50b0008 	str	r0, [fp, #-8]
    c9f8:	e51b3008 	ldr	r3, [fp, #-8]
    c9fc:	e5933020 	ldr	r3, [r3, #32]
    ca00:	e3530000 	cmp	r3, #0
    ca04:	0a000017 	beq	ca68 <cipher_sync+0x80>
    ca08:	e51b3008 	ldr	r3, [fp, #-8]
    ca0c:	e51b2008 	ldr	r2, [fp, #-8]
    ca10:	e5922020 	ldr	r2, [r2, #32]
    ca14:	e0830002 	add	r0, r3, r2
    ca18:	e51b1008 	ldr	r1, [fp, #-8]
    ca1c:	e51b3008 	ldr	r3, [fp, #-8]
    ca20:	e5933020 	ldr	r3, [r3, #32]
    ca24:	e2633008 	rsb	r3, r3, #8
    ca28:	e1a02003 	mov	r2, r3
    ca2c:	eb000f15 	bl	10688 <memmove>
    ca30:	e51b0008 	ldr	r0, [fp, #-8]
    ca34:	e51b3008 	ldr	r3, [fp, #-8]
    ca38:	e2832010 	add	r2, r3, #16
    ca3c:	e51b3008 	ldr	r3, [fp, #-8]
    ca40:	e5933020 	ldr	r3, [r3, #32]
    ca44:	e2633008 	rsb	r3, r3, #8
    ca48:	e0821003 	add	r1, r2, r3
    ca4c:	e51b3008 	ldr	r3, [fp, #-8]
    ca50:	e5933020 	ldr	r3, [r3, #32]
    ca54:	e1a02003 	mov	r2, r3
    ca58:	eb000eed 	bl	10614 <memcpy>
    ca5c:	e51b3008 	ldr	r3, [fp, #-8]
    ca60:	e3a02000 	mov	r2, #0
    ca64:	e5832020 	str	r2, [r3, #32]
    ca68:	e320f000 	nop	{0}
    ca6c:	e24bd004 	sub	sp, fp, #4
    ca70:	e8bd8800 	pop	{fp, pc}

0000ca74 <_gcry_cipher_decrypt>:
    ca74:	e92d4800 	push	{fp, lr}
    ca78:	e28db004 	add	fp, sp, #4
    ca7c:	e24dd018 	sub	sp, sp, #24
    ca80:	e50b0008 	str	r0, [fp, #-8]
    ca84:	e50b100c 	str	r1, [fp, #-12]
    ca88:	e50b2010 	str	r2, [fp, #-16]
    ca8c:	e50b3014 	str	r3, [fp, #-20]	; 0xffffffec
    ca90:	e51b3014 	ldr	r3, [fp, #-20]	; 0xffffffec
    ca94:	e3530000 	cmp	r3, #0
    ca98:	1a000003 	bne	caac <_gcry_cipher_decrypt+0x38>
    ca9c:	e51b300c 	ldr	r3, [fp, #-12]
    caa0:	e50b3014 	str	r3, [fp, #-20]	; 0xffffffec
    caa4:	e51b3010 	ldr	r3, [fp, #-16]
    caa8:	e58b3004 	str	r3, [fp, #4]
    caac:	e59b3004 	ldr	r3, [fp, #4]
    cab0:	e58d3000 	str	r3, [sp]
    cab4:	e51b3014 	ldr	r3, [fp, #-20]	; 0xffffffec
    cab8:	e51b2010 	ldr	r2, [fp, #-16]
    cabc:	e51b100c 	ldr	r1, [fp, #-12]
    cac0:	e51b0008 	ldr	r0, [fp, #-8]
    cac4:	eb0000bd 	bl	cdc0 <_gcry_cipher_cfb_decrypt>
    cac8:	e1a03000 	mov	r3, r0
    cacc:	e1a00003 	mov	r0, r3
    cad0:	e24bd004 	sub	sp, fp, #4
    cad4:	e8bd8800 	pop	{fp, pc}

0000cad8 <ascii_dump>:
    cad8:	e92d4800 	push	{fp, lr}
    cadc:	e28db004 	add	fp, sp, #4
    cae0:	e24dd010 	sub	sp, sp, #16
    cae4:	e50b0010 	str	r0, [fp, #-16]
    cae8:	e50b1014 	str	r1, [fp, #-20]	; 0xffffffec
    caec:	e3a03000 	mov	r3, #0
    caf0:	e50b3008 	str	r3, [fp, #-8]
    caf4:	ea00000a 	b	cb24 <ascii_dump+0x4c>
    caf8:	e51b2010 	ldr	r2, [fp, #-16]
    cafc:	e51b3008 	ldr	r3, [fp, #-8]
    cb00:	e0823003 	add	r3, r2, r3
    cb04:	e5d33000 	ldrb	r3, [r3]
    cb08:	e1a01003 	mov	r1, r3
    cb0c:	e3040ef0 	movw	r0, #20208	; 0x4ef0
    cb10:	e3400001 	movt	r0, #1
    cb14:	eb001c49 	bl	13c40 <tfp_printf>
    cb18:	e51b3008 	ldr	r3, [fp, #-8]
    cb1c:	e2833001 	add	r3, r3, #1
    cb20:	e50b3008 	str	r3, [fp, #-8]
    cb24:	e51b2008 	ldr	r2, [fp, #-8]
    cb28:	e51b3014 	ldr	r3, [fp, #-20]	; 0xffffffec
    cb2c:	e1520003 	cmp	r2, r3
    cb30:	3afffff0 	bcc	caf8 <ascii_dump+0x20>
    cb34:	e320f000 	nop	{0}
    cb38:	e320f000 	nop	{0}
    cb3c:	e24bd004 	sub	sp, fp, #4
    cb40:	e8bd8800 	pop	{fp, pc}

0000cb44 <_gcry_cast5_cfb_dec>:
    cb44:	e92d4800 	push	{fp, lr}
    cb48:	e28db004 	add	fp, sp, #4
    cb4c:	e24dd060 	sub	sp, sp, #96	; 0x60
    cb50:	e50b0048 	str	r0, [fp, #-72]	; 0xffffffb8
    cb54:	e50b104c 	str	r1, [fp, #-76]	; 0xffffffb4
    cb58:	e50b2050 	str	r2, [fp, #-80]	; 0xffffffb0
    cb5c:	e50b3054 	str	r3, [fp, #-84]	; 0xffffffac
    cb60:	e51b3050 	ldr	r3, [fp, #-80]	; 0xffffffb0
    cb64:	e50b3008 	str	r3, [fp, #-8]
    cb68:	e51b3054 	ldr	r3, [fp, #-84]	; 0xffffffac
    cb6c:	e50b300c 	str	r3, [fp, #-12]
    cb70:	e3a03001 	mov	r3, #1
    cb74:	e50b3010 	str	r3, [fp, #-16]
    cb78:	ea00004d 	b	ccb4 <_gcry_cast5_cfb_dec+0x170>
    cb7c:	e24b302c 	sub	r3, fp, #44	; 0x2c
    cb80:	e3a02008 	mov	r2, #8
    cb84:	e51b104c 	ldr	r1, [fp, #-76]	; 0xffffffb4
    cb88:	e1a00003 	mov	r0, r3
    cb8c:	ebfffd74 	bl	c164 <cipher_block_cpy>
    cb90:	e24b302c 	sub	r3, fp, #44	; 0x2c
    cb94:	e2833008 	add	r3, r3, #8
    cb98:	e3a02010 	mov	r2, #16
    cb9c:	e51b100c 	ldr	r1, [fp, #-12]
    cba0:	e1a00003 	mov	r0, r3
    cba4:	ebfffd6e 	bl	c164 <cipher_block_cpy>
    cba8:	e51b300c 	ldr	r3, [fp, #-12]
    cbac:	e2833010 	add	r3, r3, #16
    cbb0:	e3a02008 	mov	r2, #8
    cbb4:	e1a01003 	mov	r1, r3
    cbb8:	e51b004c 	ldr	r0, [fp, #-76]	; 0xffffffb4
    cbbc:	ebfffd68 	bl	c164 <cipher_block_cpy>
    cbc0:	e3a03000 	mov	r3, #0
    cbc4:	e50b3014 	str	r3, [fp, #-20]	; 0xffffffec
    cbc8:	ea000020 	b	cc50 <_gcry_cast5_cfb_dec+0x10c>
    cbcc:	e51b3014 	ldr	r3, [fp, #-20]	; 0xffffffec
    cbd0:	e1a03183 	lsl	r3, r3, #3
    cbd4:	e1a02003 	mov	r2, r3
    cbd8:	e24b302c 	sub	r3, fp, #44	; 0x2c
    cbdc:	e0832002 	add	r2, r3, r2
    cbe0:	e24b3044 	sub	r3, fp, #68	; 0x44
    cbe4:	e1a01002 	mov	r1, r2
    cbe8:	e1a00003 	mov	r0, r3
    cbec:	eb000d11 	bl	10038 <blockFromBytes>
    cbf0:	e51b3048 	ldr	r3, [fp, #-72]	; 0xffffffb8
    cbf4:	e2831030 	add	r1, r3, #48	; 0x30
    cbf8:	e24b005c 	sub	r0, fp, #92	; 0x5c
    cbfc:	e3a03000 	mov	r3, #0
    cc00:	e58d3000 	str	r3, [sp]
    cc04:	e24b3044 	sub	r3, fp, #68	; 0x44
    cc08:	e893000c 	ldm	r3, {r2, r3}
    cc0c:	eb000cf6 	bl	ffec <encrypt>
    cc10:	e24b3044 	sub	r3, fp, #68	; 0x44
    cc14:	e24b205c 	sub	r2, fp, #92	; 0x5c
    cc18:	e8920003 	ldm	r2, {r0, r1}
    cc1c:	e8830003 	stm	r3, {r0, r1}
    cc20:	e51b3014 	ldr	r3, [fp, #-20]	; 0xffffffec
    cc24:	e1a03183 	lsl	r3, r3, #3
    cc28:	e1a02003 	mov	r2, r3
    cc2c:	e24b302c 	sub	r3, fp, #44	; 0x2c
    cc30:	e0833002 	add	r3, r3, r2
    cc34:	e1a02003 	mov	r2, r3
    cc38:	e24b3044 	sub	r3, fp, #68	; 0x44
    cc3c:	e8930003 	ldm	r3, {r0, r1}
    cc40:	eb000197 	bl	d2a4 <bytesFromBlock>
    cc44:	e51b3014 	ldr	r3, [fp, #-20]	; 0xffffffec
    cc48:	e2833001 	add	r3, r3, #1
    cc4c:	e50b3014 	str	r3, [fp, #-20]	; 0xffffffec
    cc50:	e51b3014 	ldr	r3, [fp, #-20]	; 0xffffffec
    cc54:	e3530002 	cmp	r3, #2
    cc58:	daffffdb 	ble	cbcc <_gcry_cast5_cfb_dec+0x88>
    cc5c:	e24b202c 	sub	r2, fp, #44	; 0x2c
    cc60:	e3a03000 	mov	r3, #0
    cc64:	e58d3000 	str	r3, [sp]
    cc68:	e3a03018 	mov	r3, #24
    cc6c:	e51b100c 	ldr	r1, [fp, #-12]
    cc70:	e51b0008 	ldr	r0, [fp, #-8]
    cc74:	ebfffe9c 	bl	c6ec <buf_xor>
    cc78:	e3a01018 	mov	r1, #24
    cc7c:	e51b0008 	ldr	r0, [fp, #-8]
    cc80:	ebffff94 	bl	cad8 <ascii_dump>
    cc84:	e51b3008 	ldr	r3, [fp, #-8]
    cc88:	e2833018 	add	r3, r3, #24
    cc8c:	e50b3008 	str	r3, [fp, #-8]
    cc90:	e51b300c 	ldr	r3, [fp, #-12]
    cc94:	e2833018 	add	r3, r3, #24
    cc98:	e50b300c 	str	r3, [fp, #-12]
    cc9c:	e51b3010 	ldr	r3, [fp, #-16]
    cca0:	e2433001 	sub	r3, r3, #1
    cca4:	e50b3010 	str	r3, [fp, #-16]
    cca8:	e59b3004 	ldr	r3, [fp, #4]
    ccac:	e2433003 	sub	r3, r3, #3
    ccb0:	e58b3004 	str	r3, [fp, #4]
    ccb4:	e59b3004 	ldr	r3, [fp, #4]
    ccb8:	e3530002 	cmp	r3, #2
    ccbc:	8affffae 	bhi	cb7c <_gcry_cast5_cfb_dec+0x38>
    ccc0:	ea00002b 	b	cd74 <_gcry_cast5_cfb_dec+0x230>
    ccc4:	e24b3034 	sub	r3, fp, #52	; 0x34
    ccc8:	e51b104c 	ldr	r1, [fp, #-76]	; 0xffffffb4
    cccc:	e1a00003 	mov	r0, r3
    ccd0:	eb000cd8 	bl	10038 <blockFromBytes>
    ccd4:	e51b3048 	ldr	r3, [fp, #-72]	; 0xffffffb8
    ccd8:	e2831030 	add	r1, r3, #48	; 0x30
    ccdc:	e51b3010 	ldr	r3, [fp, #-16]
    cce0:	e3530000 	cmp	r3, #0
    cce4:	c3a03001 	movgt	r3, #1
    cce8:	d3a03000 	movle	r3, #0
    ccec:	e6ef3073 	uxtb	r3, r3
    ccf0:	e24b005c 	sub	r0, fp, #92	; 0x5c
    ccf4:	e58d3000 	str	r3, [sp]
    ccf8:	e24b3034 	sub	r3, fp, #52	; 0x34
    ccfc:	e893000c 	ldm	r3, {r2, r3}
    cd00:	eb000cb9 	bl	ffec <encrypt>
    cd04:	e24b3034 	sub	r3, fp, #52	; 0x34
    cd08:	e24b205c 	sub	r2, fp, #92	; 0x5c
    cd0c:	e8920003 	ldm	r2, {r0, r1}
    cd10:	e8830003 	stm	r3, {r0, r1}
    cd14:	e51b204c 	ldr	r2, [fp, #-76]	; 0xffffffb4
    cd18:	e24b3034 	sub	r3, fp, #52	; 0x34
    cd1c:	e8930003 	ldm	r3, {r0, r1}
    cd20:	eb00015f 	bl	d2a4 <bytesFromBlock>
    cd24:	e3a03008 	mov	r3, #8
    cd28:	e51b200c 	ldr	r2, [fp, #-12]
    cd2c:	e51b104c 	ldr	r1, [fp, #-76]	; 0xffffffb4
    cd30:	e51b0008 	ldr	r0, [fp, #-8]
    cd34:	ebfffe5b 	bl	c6a8 <cipher_block_xor_n_copy>
    cd38:	e3a01008 	mov	r1, #8
    cd3c:	e51b0008 	ldr	r0, [fp, #-8]
    cd40:	ebffff64 	bl	cad8 <ascii_dump>
    cd44:	e51b3008 	ldr	r3, [fp, #-8]
    cd48:	e2833008 	add	r3, r3, #8
    cd4c:	e50b3008 	str	r3, [fp, #-8]
    cd50:	e51b300c 	ldr	r3, [fp, #-12]
    cd54:	e2833008 	add	r3, r3, #8
    cd58:	e50b300c 	str	r3, [fp, #-12]
    cd5c:	e51b3010 	ldr	r3, [fp, #-16]
    cd60:	e2433001 	sub	r3, r3, #1
    cd64:	e50b3010 	str	r3, [fp, #-16]
    cd68:	e59b3004 	ldr	r3, [fp, #4]
    cd6c:	e2433001 	sub	r3, r3, #1
    cd70:	e58b3004 	str	r3, [fp, #4]
    cd74:	e59b3004 	ldr	r3, [fp, #4]
    cd78:	e3530000 	cmp	r3, #0
    cd7c:	1affffd0 	bne	ccc4 <_gcry_cast5_cfb_dec+0x180>
    cd80:	e24b302c 	sub	r3, fp, #44	; 0x2c
    cd84:	e3a01018 	mov	r1, #24
    cd88:	e1a00003 	mov	r0, r3
    cd8c:	eb000e7c 	bl	10784 <wipememory>
    cd90:	e320f000 	nop	{0}
    cd94:	e24bd004 	sub	sp, fp, #4
    cd98:	e8bd8800 	pop	{fp, pc}

0000cd9c <_gcry_blocksize_shift>:
    cd9c:	e52db004 	push	{fp}		; (str fp, [sp, #-4]!)
    cda0:	e28db000 	add	fp, sp, #0
    cda4:	e24dd00c 	sub	sp, sp, #12
    cda8:	e50b0008 	str	r0, [fp, #-8]
    cdac:	e3a03003 	mov	r3, #3
    cdb0:	e1a00003 	mov	r0, r3
    cdb4:	e28bd000 	add	sp, fp, #0
    cdb8:	e49db004 	pop	{fp}		; (ldr fp, [sp], #4)
    cdbc:	e12fff1e 	bx	lr

0000cdc0 <_gcry_cipher_cfb_decrypt>:
    cdc0:	e92d4800 	push	{fp, lr}
    cdc4:	e28db004 	add	fp, sp, #4
    cdc8:	e24dd050 	sub	sp, sp, #80	; 0x50
    cdcc:	e50b0038 	str	r0, [fp, #-56]	; 0xffffffc8
    cdd0:	e50b103c 	str	r1, [fp, #-60]	; 0xffffffc4
    cdd4:	e50b2040 	str	r2, [fp, #-64]	; 0xffffffc0
    cdd8:	e50b3044 	str	r3, [fp, #-68]	; 0xffffffbc
    cddc:	e51b0038 	ldr	r0, [fp, #-56]	; 0xffffffc8
    cde0:	ebffffed 	bl	cd9c <_gcry_blocksize_shift>
    cde4:	e50b0008 	str	r0, [fp, #-8]
    cde8:	e3a03008 	mov	r3, #8
    cdec:	e50b300c 	str	r3, [fp, #-12]
    cdf0:	e51b300c 	ldr	r3, [fp, #-12]
    cdf4:	e1a03083 	lsl	r3, r3, #1
    cdf8:	e50b3010 	str	r3, [fp, #-16]
    cdfc:	e51b2040 	ldr	r2, [fp, #-64]	; 0xffffffc0
    ce00:	e59b3004 	ldr	r3, [fp, #4]
    ce04:	e1520003 	cmp	r2, r3
    ce08:	2a000001 	bcs	ce14 <_gcry_cipher_cfb_decrypt+0x54>
    ce0c:	e3e03000 	mvn	r3, #0
    ce10:	ea000120 	b	d298 <_gcry_cipher_cfb_decrypt+0x4d8>
    ce14:	e51b3038 	ldr	r3, [fp, #-56]	; 0xffffffc8
    ce18:	e5933020 	ldr	r3, [r3, #32]
    ce1c:	e1a02003 	mov	r2, r3
    ce20:	e59b3004 	ldr	r3, [fp, #4]
    ce24:	e1530002 	cmp	r3, r2
    ce28:	8a000016 	bhi	ce88 <_gcry_cipher_cfb_decrypt+0xc8>
    ce2c:	e51b2038 	ldr	r2, [fp, #-56]	; 0xffffffc8
    ce30:	e51b3038 	ldr	r3, [fp, #-56]	; 0xffffffc8
    ce34:	e5933020 	ldr	r3, [r3, #32]
    ce38:	e1a01003 	mov	r1, r3
    ce3c:	e51b300c 	ldr	r3, [fp, #-12]
    ce40:	e0433001 	sub	r3, r3, r1
    ce44:	e0823003 	add	r3, r2, r3
    ce48:	e50b3018 	str	r3, [fp, #-24]	; 0xffffffe8
    ce4c:	e59b3004 	ldr	r3, [fp, #4]
    ce50:	e51b2044 	ldr	r2, [fp, #-68]	; 0xffffffbc
    ce54:	e51b1018 	ldr	r1, [fp, #-24]	; 0xffffffe8
    ce58:	e51b003c 	ldr	r0, [fp, #-60]	; 0xffffffc4
    ce5c:	ebfffe00 	bl	c664 <buf_xor_n_copy>
    ce60:	e51b3038 	ldr	r3, [fp, #-56]	; 0xffffffc8
    ce64:	e5933020 	ldr	r3, [r3, #32]
    ce68:	e1a02003 	mov	r2, r3
    ce6c:	e59b3004 	ldr	r3, [fp, #4]
    ce70:	e0423003 	sub	r3, r2, r3
    ce74:	e1a02003 	mov	r2, r3
    ce78:	e51b3038 	ldr	r3, [fp, #-56]	; 0xffffffc8
    ce7c:	e5832020 	str	r2, [r3, #32]
    ce80:	e3a03000 	mov	r3, #0
    ce84:	ea000103 	b	d298 <_gcry_cipher_cfb_decrypt+0x4d8>
    ce88:	e3a03000 	mov	r3, #0
    ce8c:	e50b3014 	str	r3, [fp, #-20]	; 0xffffffec
    ce90:	e51b3038 	ldr	r3, [fp, #-56]	; 0xffffffc8
    ce94:	e5933020 	ldr	r3, [r3, #32]
    ce98:	e3530000 	cmp	r3, #0
    ce9c:	0a000022 	beq	cf2c <_gcry_cipher_cfb_decrypt+0x16c>
    cea0:	e51b3038 	ldr	r3, [fp, #-56]	; 0xffffffc8
    cea4:	e5933020 	ldr	r3, [r3, #32]
    cea8:	e1a02003 	mov	r2, r3
    ceac:	e59b3004 	ldr	r3, [fp, #4]
    ceb0:	e0433002 	sub	r3, r3, r2
    ceb4:	e58b3004 	str	r3, [fp, #4]
    ceb8:	e51b2038 	ldr	r2, [fp, #-56]	; 0xffffffc8
    cebc:	e51b3038 	ldr	r3, [fp, #-56]	; 0xffffffc8
    cec0:	e5933020 	ldr	r3, [r3, #32]
    cec4:	e1a01003 	mov	r1, r3
    cec8:	e51b300c 	ldr	r3, [fp, #-12]
    cecc:	e0433001 	sub	r3, r3, r1
    ced0:	e0823003 	add	r3, r2, r3
    ced4:	e50b3018 	str	r3, [fp, #-24]	; 0xffffffe8
    ced8:	e51b3038 	ldr	r3, [fp, #-56]	; 0xffffffc8
    cedc:	e5933020 	ldr	r3, [r3, #32]
    cee0:	e51b2044 	ldr	r2, [fp, #-68]	; 0xffffffbc
    cee4:	e51b1018 	ldr	r1, [fp, #-24]	; 0xffffffe8
    cee8:	e51b003c 	ldr	r0, [fp, #-60]	; 0xffffffc4
    ceec:	ebfffddc 	bl	c664 <buf_xor_n_copy>
    cef0:	e51b3038 	ldr	r3, [fp, #-56]	; 0xffffffc8
    cef4:	e5933020 	ldr	r3, [r3, #32]
    cef8:	e1a02003 	mov	r2, r3
    cefc:	e51b303c 	ldr	r3, [fp, #-60]	; 0xffffffc4
    cf00:	e0833002 	add	r3, r3, r2
    cf04:	e50b303c 	str	r3, [fp, #-60]	; 0xffffffc4
    cf08:	e51b3038 	ldr	r3, [fp, #-56]	; 0xffffffc8
    cf0c:	e5933020 	ldr	r3, [r3, #32]
    cf10:	e1a02003 	mov	r2, r3
    cf14:	e51b3044 	ldr	r3, [fp, #-68]	; 0xffffffbc
    cf18:	e0833002 	add	r3, r3, r2
    cf1c:	e50b3044 	str	r3, [fp, #-68]	; 0xffffffbc
    cf20:	e51b3038 	ldr	r3, [fp, #-56]	; 0xffffffc8
    cf24:	e3a02000 	mov	r2, #0
    cf28:	e5832020 	str	r2, [r3, #32]
    cf2c:	e59b2004 	ldr	r2, [fp, #4]
    cf30:	e51b3010 	ldr	r3, [fp, #-16]
    cf34:	e1520003 	cmp	r2, r3
    cf38:	3a000044 	bcc	d050 <_gcry_cipher_cfb_decrypt+0x290>
    cf3c:	e59b2004 	ldr	r2, [fp, #4]
    cf40:	e51b3008 	ldr	r3, [fp, #-8]
    cf44:	e1a03332 	lsr	r3, r2, r3
    cf48:	e50b301c 	str	r3, [fp, #-28]	; 0xffffffe4
    cf4c:	e51b1038 	ldr	r1, [fp, #-56]	; 0xffffffc8
    cf50:	e51b301c 	ldr	r3, [fp, #-28]	; 0xffffffe4
    cf54:	e58d3000 	str	r3, [sp]
    cf58:	e51b3044 	ldr	r3, [fp, #-68]	; 0xffffffbc
    cf5c:	e51b203c 	ldr	r2, [fp, #-60]	; 0xffffffc4
    cf60:	e51b0038 	ldr	r0, [fp, #-56]	; 0xffffffc8
    cf64:	ebfffef6 	bl	cb44 <_gcry_cast5_cfb_dec>
    cf68:	e51b201c 	ldr	r2, [fp, #-28]	; 0xffffffe4
    cf6c:	e51b3008 	ldr	r3, [fp, #-8]
    cf70:	e1a03312 	lsl	r3, r2, r3
    cf74:	e51b203c 	ldr	r2, [fp, #-60]	; 0xffffffc4
    cf78:	e0823003 	add	r3, r2, r3
    cf7c:	e50b303c 	str	r3, [fp, #-60]	; 0xffffffc4
    cf80:	e51b201c 	ldr	r2, [fp, #-28]	; 0xffffffe4
    cf84:	e51b3008 	ldr	r3, [fp, #-8]
    cf88:	e1a03312 	lsl	r3, r2, r3
    cf8c:	e51b2044 	ldr	r2, [fp, #-68]	; 0xffffffbc
    cf90:	e0823003 	add	r3, r2, r3
    cf94:	e50b3044 	str	r3, [fp, #-68]	; 0xffffffbc
    cf98:	e51b201c 	ldr	r2, [fp, #-28]	; 0xffffffe4
    cf9c:	e51b3008 	ldr	r3, [fp, #-8]
    cfa0:	e1a03312 	lsl	r3, r2, r3
    cfa4:	e59b2004 	ldr	r2, [fp, #4]
    cfa8:	e0423003 	sub	r3, r2, r3
    cfac:	e58b3004 	str	r3, [fp, #4]
    cfb0:	ea00002a 	b	d060 <_gcry_cipher_cfb_decrypt+0x2a0>
    cfb4:	e51b2038 	ldr	r2, [fp, #-56]	; 0xffffffc8
    cfb8:	e24b3024 	sub	r3, fp, #36	; 0x24
    cfbc:	e1a01002 	mov	r1, r2
    cfc0:	e1a00003 	mov	r0, r3
    cfc4:	eb000c1b 	bl	10038 <blockFromBytes>
    cfc8:	e51b3038 	ldr	r3, [fp, #-56]	; 0xffffffc8
    cfcc:	e2831030 	add	r1, r3, #48	; 0x30
    cfd0:	e24b004c 	sub	r0, fp, #76	; 0x4c
    cfd4:	e3a03000 	mov	r3, #0
    cfd8:	e58d3000 	str	r3, [sp]
    cfdc:	e24b3024 	sub	r3, fp, #36	; 0x24
    cfe0:	e893000c 	ldm	r3, {r2, r3}
    cfe4:	eb000c00 	bl	ffec <encrypt>
    cfe8:	e24b3024 	sub	r3, fp, #36	; 0x24
    cfec:	e24b204c 	sub	r2, fp, #76	; 0x4c
    cff0:	e8920003 	ldm	r2, {r0, r1}
    cff4:	e8830003 	stm	r3, {r0, r1}
    cff8:	e51b3038 	ldr	r3, [fp, #-56]	; 0xffffffc8
    cffc:	e1a02003 	mov	r2, r3
    d000:	e24b3024 	sub	r3, fp, #36	; 0x24
    d004:	e8930003 	ldm	r3, {r0, r1}
    d008:	eb0000a5 	bl	d2a4 <bytesFromBlock>
    d00c:	e51b1038 	ldr	r1, [fp, #-56]	; 0xffffffc8
    d010:	e51b300c 	ldr	r3, [fp, #-12]
    d014:	e51b2044 	ldr	r2, [fp, #-68]	; 0xffffffbc
    d018:	e51b003c 	ldr	r0, [fp, #-60]	; 0xffffffc4
    d01c:	ebfffda1 	bl	c6a8 <cipher_block_xor_n_copy>
    d020:	e51b203c 	ldr	r2, [fp, #-60]	; 0xffffffc4
    d024:	e51b300c 	ldr	r3, [fp, #-12]
    d028:	e0823003 	add	r3, r2, r3
    d02c:	e50b303c 	str	r3, [fp, #-60]	; 0xffffffc4
    d030:	e51b2044 	ldr	r2, [fp, #-68]	; 0xffffffbc
    d034:	e51b300c 	ldr	r3, [fp, #-12]
    d038:	e0823003 	add	r3, r2, r3
    d03c:	e50b3044 	str	r3, [fp, #-68]	; 0xffffffbc
    d040:	e59b2004 	ldr	r2, [fp, #4]
    d044:	e51b300c 	ldr	r3, [fp, #-12]
    d048:	e0423003 	sub	r3, r2, r3
    d04c:	e58b3004 	str	r3, [fp, #4]
    d050:	e59b2004 	ldr	r2, [fp, #4]
    d054:	e51b3010 	ldr	r3, [fp, #-16]
    d058:	e1520003 	cmp	r2, r3
    d05c:	2affffd4 	bcs	cfb4 <_gcry_cipher_cfb_decrypt+0x1f4>
    d060:	e59b2004 	ldr	r2, [fp, #4]
    d064:	e51b300c 	ldr	r3, [fp, #-12]
    d068:	e1520003 	cmp	r2, r3
    d06c:	3a000037 	bcc	d150 <_gcry_cipher_cfb_decrypt+0x390>
    d070:	e51b3038 	ldr	r3, [fp, #-56]	; 0xffffffc8
    d074:	e5933020 	ldr	r3, [r3, #32]
    d078:	e51b2040 	ldr	r2, [fp, #-64]	; 0xffffffc0
    d07c:	e59b1004 	ldr	r1, [fp, #4]
    d080:	e3040ef4 	movw	r0, #20212	; 0x4ef4
    d084:	e3400001 	movt	r0, #1
    d088:	eb001aec 	bl	13c40 <tfp_printf>
    d08c:	e51b3038 	ldr	r3, [fp, #-56]	; 0xffffffc8
    d090:	e2833010 	add	r3, r3, #16
    d094:	e51b1038 	ldr	r1, [fp, #-56]	; 0xffffffc8
    d098:	e51b200c 	ldr	r2, [fp, #-12]
    d09c:	e1a00003 	mov	r0, r3
    d0a0:	ebfffc2f 	bl	c164 <cipher_block_cpy>
    d0a4:	e51b2038 	ldr	r2, [fp, #-56]	; 0xffffffc8
    d0a8:	e24b302c 	sub	r3, fp, #44	; 0x2c
    d0ac:	e1a01002 	mov	r1, r2
    d0b0:	e1a00003 	mov	r0, r3
    d0b4:	eb000bdf 	bl	10038 <blockFromBytes>
    d0b8:	e51b3038 	ldr	r3, [fp, #-56]	; 0xffffffc8
    d0bc:	e2831030 	add	r1, r3, #48	; 0x30
    d0c0:	e24b004c 	sub	r0, fp, #76	; 0x4c
    d0c4:	e3a03000 	mov	r3, #0
    d0c8:	e58d3000 	str	r3, [sp]
    d0cc:	e24b302c 	sub	r3, fp, #44	; 0x2c
    d0d0:	e893000c 	ldm	r3, {r2, r3}
    d0d4:	eb000bc4 	bl	ffec <encrypt>
    d0d8:	e24b302c 	sub	r3, fp, #44	; 0x2c
    d0dc:	e24b204c 	sub	r2, fp, #76	; 0x4c
    d0e0:	e8920003 	ldm	r2, {r0, r1}
    d0e4:	e8830003 	stm	r3, {r0, r1}
    d0e8:	e51b3038 	ldr	r3, [fp, #-56]	; 0xffffffc8
    d0ec:	e1a02003 	mov	r2, r3
    d0f0:	e24b302c 	sub	r3, fp, #44	; 0x2c
    d0f4:	e8930003 	ldm	r3, {r0, r1}
    d0f8:	eb000069 	bl	d2a4 <bytesFromBlock>
    d0fc:	e51b3038 	ldr	r3, [fp, #-56]	; 0xffffffc8
    d100:	e51b100c 	ldr	r1, [fp, #-12]
    d104:	e1a00003 	mov	r0, r3
    d108:	ebfffe72 	bl	cad8 <ascii_dump>
    d10c:	e51b1038 	ldr	r1, [fp, #-56]	; 0xffffffc8
    d110:	e51b300c 	ldr	r3, [fp, #-12]
    d114:	e51b2044 	ldr	r2, [fp, #-68]	; 0xffffffbc
    d118:	e51b003c 	ldr	r0, [fp, #-60]	; 0xffffffc4
    d11c:	ebfffd61 	bl	c6a8 <cipher_block_xor_n_copy>
    d120:	e51b203c 	ldr	r2, [fp, #-60]	; 0xffffffc4
    d124:	e51b300c 	ldr	r3, [fp, #-12]
    d128:	e0823003 	add	r3, r2, r3
    d12c:	e50b303c 	str	r3, [fp, #-60]	; 0xffffffc4
    d130:	e51b2044 	ldr	r2, [fp, #-68]	; 0xffffffbc
    d134:	e51b300c 	ldr	r3, [fp, #-12]
    d138:	e0823003 	add	r3, r2, r3
    d13c:	e50b3044 	str	r3, [fp, #-68]	; 0xffffffbc
    d140:	e59b2004 	ldr	r2, [fp, #4]
    d144:	e51b300c 	ldr	r3, [fp, #-12]
    d148:	e0423003 	sub	r3, r2, r3
    d14c:	e58b3004 	str	r3, [fp, #4]
    d150:	e59b3004 	ldr	r3, [fp, #4]
    d154:	e3530000 	cmp	r3, #0
    d158:	0a00004d 	beq	d294 <_gcry_cipher_cfb_decrypt+0x4d4>
    d15c:	e51b3038 	ldr	r3, [fp, #-56]	; 0xffffffc8
    d160:	e5933020 	ldr	r3, [r3, #32]
    d164:	e51b2040 	ldr	r2, [fp, #-64]	; 0xffffffc0
    d168:	e59b1004 	ldr	r1, [fp, #4]
    d16c:	e3040f0c 	movw	r0, #20236	; 0x4f0c
    d170:	e3400001 	movt	r0, #1
    d174:	eb001ab1 	bl	13c40 <tfp_printf>
    d178:	e51b3038 	ldr	r3, [fp, #-56]	; 0xffffffc8
    d17c:	e2833010 	add	r3, r3, #16
    d180:	e51b1038 	ldr	r1, [fp, #-56]	; 0xffffffc8
    d184:	e51b200c 	ldr	r2, [fp, #-12]
    d188:	e1a00003 	mov	r0, r3
    d18c:	ebfffbf4 	bl	c164 <cipher_block_cpy>
    d190:	e51b2038 	ldr	r2, [fp, #-56]	; 0xffffffc8
    d194:	e24b3034 	sub	r3, fp, #52	; 0x34
    d198:	e1a01002 	mov	r1, r2
    d19c:	e1a00003 	mov	r0, r3
    d1a0:	eb000ba4 	bl	10038 <blockFromBytes>
    d1a4:	e51b3038 	ldr	r3, [fp, #-56]	; 0xffffffc8
    d1a8:	e2831030 	add	r1, r3, #48	; 0x30
    d1ac:	e24b004c 	sub	r0, fp, #76	; 0x4c
    d1b0:	e3a03000 	mov	r3, #0
    d1b4:	e58d3000 	str	r3, [sp]
    d1b8:	e24b3034 	sub	r3, fp, #52	; 0x34
    d1bc:	e893000c 	ldm	r3, {r2, r3}
    d1c0:	eb000b89 	bl	ffec <encrypt>
    d1c4:	e24b3034 	sub	r3, fp, #52	; 0x34
    d1c8:	e24b204c 	sub	r2, fp, #76	; 0x4c
    d1cc:	e8920003 	ldm	r2, {r0, r1}
    d1d0:	e8830003 	stm	r3, {r0, r1}
    d1d4:	e51b3038 	ldr	r3, [fp, #-56]	; 0xffffffc8
    d1d8:	e1a02003 	mov	r2, r3
    d1dc:	e24b3034 	sub	r3, fp, #52	; 0x34
    d1e0:	e8930003 	ldm	r3, {r0, r1}
    d1e4:	eb00002e 	bl	d2a4 <bytesFromBlock>
    d1e8:	e51b3038 	ldr	r3, [fp, #-56]	; 0xffffffc8
    d1ec:	e51b100c 	ldr	r1, [fp, #-12]
    d1f0:	e1a00003 	mov	r0, r3
    d1f4:	ebfffe37 	bl	cad8 <ascii_dump>
    d1f8:	e51b200c 	ldr	r2, [fp, #-12]
    d1fc:	e51b3038 	ldr	r3, [fp, #-56]	; 0xffffffc8
    d200:	e5832020 	str	r2, [r3, #32]
    d204:	e51b3038 	ldr	r3, [fp, #-56]	; 0xffffffc8
    d208:	e5933020 	ldr	r3, [r3, #32]
    d20c:	e1a02003 	mov	r2, r3
    d210:	e59b3004 	ldr	r3, [fp, #4]
    d214:	e0423003 	sub	r3, r2, r3
    d218:	e1a02003 	mov	r2, r3
    d21c:	e51b3038 	ldr	r3, [fp, #-56]	; 0xffffffc8
    d220:	e5832020 	str	r2, [r3, #32]
    d224:	e51b1038 	ldr	r1, [fp, #-56]	; 0xffffffc8
    d228:	e59b3004 	ldr	r3, [fp, #4]
    d22c:	e51b2044 	ldr	r2, [fp, #-68]	; 0xffffffbc
    d230:	e51b003c 	ldr	r0, [fp, #-60]	; 0xffffffc4
    d234:	ebfffd0a 	bl	c664 <buf_xor_n_copy>
    d238:	e51b203c 	ldr	r2, [fp, #-60]	; 0xffffffc4
    d23c:	e59b3004 	ldr	r3, [fp, #4]
    d240:	e0823003 	add	r3, r2, r3
    d244:	e50b303c 	str	r3, [fp, #-60]	; 0xffffffc4
    d248:	e51b2044 	ldr	r2, [fp, #-68]	; 0xffffffbc
    d24c:	e59b3004 	ldr	r3, [fp, #4]
    d250:	e0823003 	add	r3, r2, r3
    d254:	e50b3044 	str	r3, [fp, #-68]	; 0xffffffbc
    d258:	e3a03000 	mov	r3, #0
    d25c:	e58b3004 	str	r3, [fp, #4]
    d260:	e51b2038 	ldr	r2, [fp, #-56]	; 0xffffffc8
    d264:	e24b304c 	sub	r3, fp, #76	; 0x4c
    d268:	e1a01002 	mov	r1, r2
    d26c:	e1a00003 	mov	r0, r3
    d270:	eb000b70 	bl	10038 <blockFromBytes>
    d274:	e24b3034 	sub	r3, fp, #52	; 0x34
    d278:	e24b204c 	sub	r2, fp, #76	; 0x4c
    d27c:	e8920003 	ldm	r2, {r0, r1}
    d280:	e8830003 	stm	r3, {r0, r1}
    d284:	e51b3038 	ldr	r3, [fp, #-56]	; 0xffffffc8
    d288:	e51b100c 	ldr	r1, [fp, #-12]
    d28c:	e1a00003 	mov	r0, r3
    d290:	ebfffe10 	bl	cad8 <ascii_dump>
    d294:	e3a03000 	mov	r3, #0
    d298:	e1a00003 	mov	r0, r3
    d29c:	e24bd004 	sub	sp, fp, #4
    d2a0:	e8bd8800 	pop	{fp, pc}

0000d2a4 <bytesFromBlock>:
    d2a4:	e52db004 	push	{fp}		; (str fp, [sp, #-4]!)
    d2a8:	e28db000 	add	fp, sp, #0
    d2ac:	e24dd014 	sub	sp, sp, #20
    d2b0:	e24b300c 	sub	r3, fp, #12
    d2b4:	e8830003 	stm	r3, {r0, r1}
    d2b8:	e50b2010 	str	r2, [fp, #-16]
    d2bc:	e51b2008 	ldr	r2, [fp, #-8]
    d2c0:	e51b3010 	ldr	r3, [fp, #-16]
    d2c4:	e2833007 	add	r3, r3, #7
    d2c8:	e6ef2072 	uxtb	r2, r2
    d2cc:	e5c32000 	strb	r2, [r3]
    d2d0:	e51b3008 	ldr	r3, [fp, #-8]
    d2d4:	e1a02423 	lsr	r2, r3, #8
    d2d8:	e51b3010 	ldr	r3, [fp, #-16]
    d2dc:	e2833006 	add	r3, r3, #6
    d2e0:	e6ef2072 	uxtb	r2, r2
    d2e4:	e5c32000 	strb	r2, [r3]
    d2e8:	e51b3008 	ldr	r3, [fp, #-8]
    d2ec:	e1a02823 	lsr	r2, r3, #16
    d2f0:	e51b3010 	ldr	r3, [fp, #-16]
    d2f4:	e2833005 	add	r3, r3, #5
    d2f8:	e6ef2072 	uxtb	r2, r2
    d2fc:	e5c32000 	strb	r2, [r3]
    d300:	e51b3008 	ldr	r3, [fp, #-8]
    d304:	e1a02c23 	lsr	r2, r3, #24
    d308:	e51b3010 	ldr	r3, [fp, #-16]
    d30c:	e2833004 	add	r3, r3, #4
    d310:	e6ef2072 	uxtb	r2, r2
    d314:	e5c32000 	strb	r2, [r3]
    d318:	e51b200c 	ldr	r2, [fp, #-12]
    d31c:	e51b3010 	ldr	r3, [fp, #-16]
    d320:	e2833003 	add	r3, r3, #3
    d324:	e6ef2072 	uxtb	r2, r2
    d328:	e5c32000 	strb	r2, [r3]
    d32c:	e51b300c 	ldr	r3, [fp, #-12]
    d330:	e1a02423 	lsr	r2, r3, #8
    d334:	e51b3010 	ldr	r3, [fp, #-16]
    d338:	e2833002 	add	r3, r3, #2
    d33c:	e6ef2072 	uxtb	r2, r2
    d340:	e5c32000 	strb	r2, [r3]
    d344:	e51b300c 	ldr	r3, [fp, #-12]
    d348:	e1a02823 	lsr	r2, r3, #16
    d34c:	e51b3010 	ldr	r3, [fp, #-16]
    d350:	e2833001 	add	r3, r3, #1
    d354:	e6ef2072 	uxtb	r2, r2
    d358:	e5c32000 	strb	r2, [r3]
    d35c:	e51b300c 	ldr	r3, [fp, #-12]
    d360:	e1a03c23 	lsr	r3, r3, #24
    d364:	e6ef2073 	uxtb	r2, r3
    d368:	e51b3010 	ldr	r3, [fp, #-16]
    d36c:	e5c32000 	strb	r2, [r3]
    d370:	e320f000 	nop	{0}
    d374:	e28bd000 	add	sp, fp, #0
    d378:	e49db004 	pop	{fp}		; (ldr fp, [sp], #4)
    d37c:	e12fff1e 	bx	lr

0000d380 <g>:
    d380:	e52db004 	push	{fp}		; (str fp, [sp, #-4]!)
    d384:	e28db000 	add	fp, sp, #0
    d388:	e24dd00c 	sub	sp, sp, #12
    d38c:	e50b0008 	str	r0, [fp, #-8]
    d390:	e1a03001 	mov	r3, r1
    d394:	e54b3009 	strb	r3, [fp, #-9]
    d398:	e55b2009 	ldrb	r2, [fp, #-9]
    d39c:	e3073d7c 	movw	r3, #32124	; 0x7d7c
    d3a0:	e3403001 	movt	r3, #1
    d3a4:	e7d33002 	ldrb	r3, [r3, r2]
    d3a8:	e1a02003 	mov	r2, r3
    d3ac:	e51b3008 	ldr	r3, [fp, #-8]
    d3b0:	e0833002 	add	r3, r3, r2
    d3b4:	e5d33000 	ldrb	r3, [r3]
    d3b8:	e1a00003 	mov	r0, r3
    d3bc:	e28bd000 	add	sp, fp, #0
    d3c0:	e49db004 	pop	{fp}		; (ldr fp, [sp], #4)
    d3c4:	e12fff1e 	bx	lr

0000d3c8 <splitI>:
    d3c8:	e52db004 	push	{fp}		; (str fp, [sp, #-4]!)
    d3cc:	e28db000 	add	fp, sp, #0
    d3d0:	e24dd014 	sub	sp, sp, #20
    d3d4:	e50b0008 	str	r0, [fp, #-8]
    d3d8:	e50b100c 	str	r1, [fp, #-12]
    d3dc:	e50b2010 	str	r2, [fp, #-16]
    d3e0:	e50b3014 	str	r3, [fp, #-20]	; 0xffffffec
    d3e4:	e51b3008 	ldr	r3, [fp, #-8]
    d3e8:	e1a03c23 	lsr	r3, r3, #24
    d3ec:	e6ef2073 	uxtb	r2, r3
    d3f0:	e51b300c 	ldr	r3, [fp, #-12]
    d3f4:	e5c32000 	strb	r2, [r3]
    d3f8:	e51b3008 	ldr	r3, [fp, #-8]
    d3fc:	e1a03823 	lsr	r3, r3, #16
    d400:	e6ef2073 	uxtb	r2, r3
    d404:	e51b3010 	ldr	r3, [fp, #-16]
    d408:	e5c32000 	strb	r2, [r3]
    d40c:	e51b3008 	ldr	r3, [fp, #-8]
    d410:	e1a03423 	lsr	r3, r3, #8
    d414:	e6ef2073 	uxtb	r2, r3
    d418:	e51b3014 	ldr	r3, [fp, #-20]	; 0xffffffec
    d41c:	e5c32000 	strb	r2, [r3]
    d420:	e51b3008 	ldr	r3, [fp, #-8]
    d424:	e6ef2073 	uxtb	r2, r3
    d428:	e59b3004 	ldr	r3, [fp, #4]
    d42c:	e5c32000 	strb	r2, [r3]
    d430:	e320f000 	nop	{0}
    d434:	e28bd000 	add	sp, fp, #0
    d438:	e49db004 	pop	{fp}		; (ldr fp, [sp], #4)
    d43c:	e12fff1e 	bx	lr

0000d440 <sumMod2_32b>:
    d440:	e52db004 	push	{fp}		; (str fp, [sp, #-4]!)
    d444:	e28db000 	add	fp, sp, #0
    d448:	e24dd00c 	sub	sp, sp, #12
    d44c:	e50b0008 	str	r0, [fp, #-8]
    d450:	e50b100c 	str	r1, [fp, #-12]
    d454:	e51b2008 	ldr	r2, [fp, #-8]
    d458:	e51b300c 	ldr	r3, [fp, #-12]
    d45c:	e0823003 	add	r3, r2, r3
    d460:	e1a00003 	mov	r0, r3
    d464:	e28bd000 	add	sp, fp, #0
    d468:	e49db004 	pop	{fp}		; (ldr fp, [sp], #4)
    d46c:	e12fff1e 	bx	lr

0000d470 <subtractMod2_32b>:
    d470:	e52db004 	push	{fp}		; (str fp, [sp, #-4]!)
    d474:	e28db000 	add	fp, sp, #0
    d478:	e24dd00c 	sub	sp, sp, #12
    d47c:	e50b0008 	str	r0, [fp, #-8]
    d480:	e50b100c 	str	r1, [fp, #-12]
    d484:	e51b200c 	ldr	r2, [fp, #-12]
    d488:	e51b3008 	ldr	r3, [fp, #-8]
    d48c:	e1520003 	cmp	r2, r3
    d490:	8a000003 	bhi	d4a4 <subtractMod2_32b+0x34>
    d494:	e51b2008 	ldr	r2, [fp, #-8]
    d498:	e51b300c 	ldr	r3, [fp, #-12]
    d49c:	e0423003 	sub	r3, r2, r3
    d4a0:	ea000005 	b	d4bc <subtractMod2_32b+0x4c>
    d4a4:	e3e02000 	mvn	r2, #0
    d4a8:	e51b3008 	ldr	r3, [fp, #-8]
    d4ac:	e0822003 	add	r2, r2, r3
    d4b0:	e51b300c 	ldr	r3, [fp, #-12]
    d4b4:	e0423003 	sub	r3, r2, r3
    d4b8:	e2833001 	add	r3, r3, #1
    d4bc:	e1a00003 	mov	r0, r3
    d4c0:	e28bd000 	add	sp, fp, #0
    d4c4:	e49db004 	pop	{fp}		; (ldr fp, [sp], #4)
    d4c8:	e12fff1e 	bx	lr

0000d4cc <cyclicShift>:
    d4cc:	e52db004 	push	{fp}		; (str fp, [sp, #-4]!)
    d4d0:	e28db000 	add	fp, sp, #0
    d4d4:	e24dd014 	sub	sp, sp, #20
    d4d8:	e50b0010 	str	r0, [fp, #-16]
    d4dc:	e1a03001 	mov	r3, r1
    d4e0:	e54b3011 	strb	r3, [fp, #-17]	; 0xffffffef
    d4e4:	e55b3011 	ldrb	r3, [fp, #-17]	; 0xffffffef
    d4e8:	e203301f 	and	r3, r3, #31
    d4ec:	e54b3005 	strb	r3, [fp, #-5]
    d4f0:	e55b3005 	ldrb	r3, [fp, #-5]
    d4f4:	e51b2010 	ldr	r2, [fp, #-16]
    d4f8:	e2633020 	rsb	r3, r3, #32
    d4fc:	e1a03372 	ror	r3, r2, r3
    d500:	e1a00003 	mov	r0, r3
    d504:	e28bd000 	add	sp, fp, #0
    d508:	e49db004 	pop	{fp}		; (ldr fp, [sp], #4)
    d50c:	e12fff1e 	bx	lr

0000d510 <run>:
    d510:	e92d4870 	push	{r4, r5, r6, fp, lr}
    d514:	e28db010 	add	fp, sp, #16
    d518:	e24ddf69 	sub	sp, sp, #420	; 0x1a4
    d51c:	e50b0190 	str	r0, [fp, #-400]	; 0xfffffe70
    d520:	e50b1194 	str	r1, [fp, #-404]	; 0xfffffe6c
    d524:	e24b1f67 	sub	r1, fp, #412	; 0x19c
    d528:	e881000c 	stm	r1, {r2, r3}
    d52c:	e24b3070 	sub	r3, fp, #112	; 0x70
    d530:	e3a02000 	mov	r2, #0
    d534:	e5832000 	str	r2, [r3]
    d538:	e5832004 	str	r2, [r3, #4]
    d53c:	e5832008 	str	r2, [r3, #8]
    d540:	e583200c 	str	r2, [r3, #12]
    d544:	e24b3070 	sub	r3, fp, #112	; 0x70
    d548:	e3a02010 	mov	r2, #16
    d54c:	e51b1194 	ldr	r1, [fp, #-404]	; 0xfffffe6c
    d550:	e1a00003 	mov	r0, r3
    d554:	eb000c2e 	bl	10614 <memcpy>
    d558:	e24b3080 	sub	r3, fp, #128	; 0x80
    d55c:	e3a02000 	mov	r2, #0
    d560:	e5832000 	str	r2, [r3]
    d564:	e5832004 	str	r2, [r3, #4]
    d568:	e5832008 	str	r2, [r3, #8]
    d56c:	e583200c 	str	r2, [r3, #12]
    d570:	e59b3008 	ldr	r3, [fp, #8]
    d574:	e3530000 	cmp	r3, #0
    d578:	0a000021 	beq	d604 <run+0xf4>
    d57c:	e3040fe4 	movw	r0, #20452	; 0x4fe4
    d580:	e3400001 	movt	r0, #1
    d584:	eb0019ad 	bl	13c40 <tfp_printf>
    d588:	e3050000 	movw	r0, #20480	; 0x5000
    d58c:	e3400001 	movt	r0, #1
    d590:	eb0019aa 	bl	13c40 <tfp_printf>
    d594:	e3a03000 	mov	r3, #0
    d598:	e50b3018 	str	r3, [fp, #-24]	; 0xffffffe8
    d59c:	ea00000b 	b	d5d0 <run+0xc0>
    d5a0:	e51b3018 	ldr	r3, [fp, #-24]	; 0xffffffe8
    d5a4:	e1a03103 	lsl	r3, r3, #2
    d5a8:	e51b2194 	ldr	r2, [fp, #-404]	; 0xfffffe6c
    d5ac:	e0823003 	add	r3, r2, r3
    d5b0:	e5933000 	ldr	r3, [r3]
    d5b4:	e1a01003 	mov	r1, r3
    d5b8:	e305000c 	movw	r0, #20492	; 0x500c
    d5bc:	e3400001 	movt	r0, #1
    d5c0:	eb00199e 	bl	13c40 <tfp_printf>
    d5c4:	e51b3018 	ldr	r3, [fp, #-24]	; 0xffffffe8
    d5c8:	e2833001 	add	r3, r3, #1
    d5cc:	e50b3018 	str	r3, [fp, #-24]	; 0xffffffe8
    d5d0:	e51b3018 	ldr	r3, [fp, #-24]	; 0xffffffe8
    d5d4:	e3530003 	cmp	r3, #3
    d5d8:	dafffff0 	ble	d5a0 <run+0x90>
    d5dc:	e51b319c 	ldr	r3, [fp, #-412]	; 0xfffffe64
    d5e0:	e51b2198 	ldr	r2, [fp, #-408]	; 0xfffffe68
    d5e4:	e1a01003 	mov	r1, r3
    d5e8:	e3050014 	movw	r0, #20500	; 0x5014
    d5ec:	e3400001 	movt	r0, #1
    d5f0:	eb001992 	bl	13c40 <tfp_printf>
    d5f4:	e59b1004 	ldr	r1, [fp, #4]
    d5f8:	e3050038 	movw	r0, #20536	; 0x5038
    d5fc:	e3400001 	movt	r0, #1
    d600:	eb00198e 	bl	13c40 <tfp_printf>
    d604:	e24b3c01 	sub	r3, fp, #256	; 0x100
    d608:	e3a02080 	mov	r2, #128	; 0x80
    d60c:	e3a01000 	mov	r1, #0
    d610:	e1a00003 	mov	r0, r3
    d614:	eb000be5 	bl	105b0 <memset>
    d618:	e3a03000 	mov	r3, #0
    d61c:	e50b301c 	str	r3, [fp, #-28]	; 0xffffffe4
    d620:	ea000819 	b	f68c <run+0x217c>
    d624:	e59b3008 	ldr	r3, [fp, #8]
    d628:	e3530000 	cmp	r3, #0
    d62c:	0a000003 	beq	d640 <run+0x130>
    d630:	e51b101c 	ldr	r1, [fp, #-28]	; 0xffffffe4
    d634:	e305004c 	movw	r0, #20556	; 0x504c
    d638:	e3400001 	movt	r0, #1
    d63c:	eb00197f 	bl	13c40 <tfp_printf>
    d640:	e59b3008 	ldr	r3, [fp, #8]
    d644:	e3530000 	cmp	r3, #0
    d648:	0a000031 	beq	d714 <run+0x204>
    d64c:	e305006c 	movw	r0, #20588	; 0x506c
    d650:	e3400001 	movt	r0, #1
    d654:	eb001979 	bl	13c40 <tfp_printf>
    d658:	e3a03000 	mov	r3, #0
    d65c:	e50b3020 	str	r3, [fp, #-32]	; 0xffffffe0
    d660:	ea00000b 	b	d694 <run+0x184>
    d664:	e51b3020 	ldr	r3, [fp, #-32]	; 0xffffffe0
    d668:	e1a03103 	lsl	r3, r3, #2
    d66c:	e2433014 	sub	r3, r3, #20
    d670:	e083300b 	add	r3, r3, fp
    d674:	e513305c 	ldr	r3, [r3, #-92]	; 0xffffffa4
    d678:	e1a01003 	mov	r1, r3
    d67c:	e3050080 	movw	r0, #20608	; 0x5080
    d680:	e3400001 	movt	r0, #1
    d684:	eb00196d 	bl	13c40 <tfp_printf>
    d688:	e51b3020 	ldr	r3, [fp, #-32]	; 0xffffffe0
    d68c:	e2833001 	add	r3, r3, #1
    d690:	e50b3020 	str	r3, [fp, #-32]	; 0xffffffe0
    d694:	e51b3020 	ldr	r3, [fp, #-32]	; 0xffffffe0
    d698:	e3530003 	cmp	r3, #3
    d69c:	dafffff0 	ble	d664 <run+0x154>
    d6a0:	e3040eec 	movw	r0, #20204	; 0x4eec
    d6a4:	e3400001 	movt	r0, #1
    d6a8:	eb001964 	bl	13c40 <tfp_printf>
    d6ac:	e3050088 	movw	r0, #20616	; 0x5088
    d6b0:	e3400001 	movt	r0, #1
    d6b4:	eb001961 	bl	13c40 <tfp_printf>
    d6b8:	e3a03008 	mov	r3, #8
    d6bc:	e50b3024 	str	r3, [fp, #-36]	; 0xffffffdc
    d6c0:	ea00000d 	b	d6fc <run+0x1ec>
    d6c4:	e51b3024 	ldr	r3, [fp, #-36]	; 0xffffffdc
    d6c8:	e6ef2073 	uxtb	r2, r3
    d6cc:	e24b3070 	sub	r3, fp, #112	; 0x70
    d6d0:	e1a01002 	mov	r1, r2
    d6d4:	e1a00003 	mov	r0, r3
    d6d8:	ebffff28 	bl	d380 <g>
    d6dc:	e1a03000 	mov	r3, r0
    d6e0:	e1a01003 	mov	r1, r3
    d6e4:	e3050098 	movw	r0, #20632	; 0x5098
    d6e8:	e3400001 	movt	r0, #1
    d6ec:	eb001953 	bl	13c40 <tfp_printf>
    d6f0:	e51b3024 	ldr	r3, [fp, #-36]	; 0xffffffdc
    d6f4:	e2833001 	add	r3, r3, #1
    d6f8:	e50b3024 	str	r3, [fp, #-36]	; 0xffffffdc
    d6fc:	e51b3024 	ldr	r3, [fp, #-36]	; 0xffffffdc
    d700:	e353000f 	cmp	r3, #15
    d704:	daffffee 	ble	d6c4 <run+0x1b4>
    d708:	e3040eec 	movw	r0, #20204	; 0x4eec
    d70c:	e3400001 	movt	r0, #1
    d710:	eb00194a 	bl	13c40 <tfp_printf>
    d714:	e51b4070 	ldr	r4, [fp, #-112]	; 0xffffff90
    d718:	e24b3070 	sub	r3, fp, #112	; 0x70
    d71c:	e3a0100d 	mov	r1, #13
    d720:	e1a00003 	mov	r0, r3
    d724:	ebffff15 	bl	d380 <g>
    d728:	e1a03000 	mov	r3, r0
    d72c:	e1a02003 	mov	r2, r3
    d730:	e3063d7c 	movw	r3, #28028	; 0x6d7c
    d734:	e3403001 	movt	r3, #1
    d738:	e7933102 	ldr	r3, [r3, r2, lsl #2]
    d73c:	e0244003 	eor	r4, r4, r3
    d740:	e24b3070 	sub	r3, fp, #112	; 0x70
    d744:	e3a0100f 	mov	r1, #15
    d748:	e1a00003 	mov	r0, r3
    d74c:	ebffff0b 	bl	d380 <g>
    d750:	e1a03000 	mov	r3, r0
    d754:	e1a02003 	mov	r2, r3
    d758:	e307317c 	movw	r3, #29052	; 0x717c
    d75c:	e3403001 	movt	r3, #1
    d760:	e7933102 	ldr	r3, [r3, r2, lsl #2]
    d764:	e0244003 	eor	r4, r4, r3
    d768:	e24b3070 	sub	r3, fp, #112	; 0x70
    d76c:	e3a0100c 	mov	r1, #12
    d770:	e1a00003 	mov	r0, r3
    d774:	ebffff01 	bl	d380 <g>
    d778:	e1a03000 	mov	r3, r0
    d77c:	e1a02003 	mov	r2, r3
    d780:	e307357c 	movw	r3, #30076	; 0x757c
    d784:	e3403001 	movt	r3, #1
    d788:	e7933102 	ldr	r3, [r3, r2, lsl #2]
    d78c:	e0244003 	eor	r4, r4, r3
    d790:	e24b3070 	sub	r3, fp, #112	; 0x70
    d794:	e3a0100e 	mov	r1, #14
    d798:	e1a00003 	mov	r0, r3
    d79c:	ebfffef7 	bl	d380 <g>
    d7a0:	e1a03000 	mov	r3, r0
    d7a4:	e1a02003 	mov	r2, r3
    d7a8:	e307397c 	movw	r3, #31100	; 0x797c
    d7ac:	e3403001 	movt	r3, #1
    d7b0:	e7933102 	ldr	r3, [r3, r2, lsl #2]
    d7b4:	e0244003 	eor	r4, r4, r3
    d7b8:	e24b3070 	sub	r3, fp, #112	; 0x70
    d7bc:	e3a01008 	mov	r1, #8
    d7c0:	e1a00003 	mov	r0, r3
    d7c4:	ebfffeed 	bl	d380 <g>
    d7c8:	e1a03000 	mov	r3, r0
    d7cc:	e1a02003 	mov	r2, r3
    d7d0:	e307357c 	movw	r3, #30076	; 0x757c
    d7d4:	e3403001 	movt	r3, #1
    d7d8:	e7933102 	ldr	r3, [r3, r2, lsl #2]
    d7dc:	e0233004 	eor	r3, r3, r4
    d7e0:	e50b3080 	str	r3, [fp, #-128]	; 0xffffff80
    d7e4:	e51b4068 	ldr	r4, [fp, #-104]	; 0xffffff98
    d7e8:	e24b3080 	sub	r3, fp, #128	; 0x80
    d7ec:	e3a01000 	mov	r1, #0
    d7f0:	e1a00003 	mov	r0, r3
    d7f4:	ebfffee1 	bl	d380 <g>
    d7f8:	e1a03000 	mov	r3, r0
    d7fc:	e1a02003 	mov	r2, r3
    d800:	e3063d7c 	movw	r3, #28028	; 0x6d7c
    d804:	e3403001 	movt	r3, #1
    d808:	e7933102 	ldr	r3, [r3, r2, lsl #2]
    d80c:	e0244003 	eor	r4, r4, r3
    d810:	e24b3080 	sub	r3, fp, #128	; 0x80
    d814:	e3a01002 	mov	r1, #2
    d818:	e1a00003 	mov	r0, r3
    d81c:	ebfffed7 	bl	d380 <g>
    d820:	e1a03000 	mov	r3, r0
    d824:	e1a02003 	mov	r2, r3
    d828:	e307317c 	movw	r3, #29052	; 0x717c
    d82c:	e3403001 	movt	r3, #1
    d830:	e7933102 	ldr	r3, [r3, r2, lsl #2]
    d834:	e0244003 	eor	r4, r4, r3
    d838:	e24b3080 	sub	r3, fp, #128	; 0x80
    d83c:	e3a01001 	mov	r1, #1
    d840:	e1a00003 	mov	r0, r3
    d844:	ebfffecd 	bl	d380 <g>
    d848:	e1a03000 	mov	r3, r0
    d84c:	e1a02003 	mov	r2, r3
    d850:	e307357c 	movw	r3, #30076	; 0x757c
    d854:	e3403001 	movt	r3, #1
    d858:	e7933102 	ldr	r3, [r3, r2, lsl #2]
    d85c:	e0244003 	eor	r4, r4, r3
    d860:	e24b3080 	sub	r3, fp, #128	; 0x80
    d864:	e3a01003 	mov	r1, #3
    d868:	e1a00003 	mov	r0, r3
    d86c:	ebfffec3 	bl	d380 <g>
    d870:	e1a03000 	mov	r3, r0
    d874:	e1a02003 	mov	r2, r3
    d878:	e307397c 	movw	r3, #31100	; 0x797c
    d87c:	e3403001 	movt	r3, #1
    d880:	e7933102 	ldr	r3, [r3, r2, lsl #2]
    d884:	e0244003 	eor	r4, r4, r3
    d888:	e24b3070 	sub	r3, fp, #112	; 0x70
    d88c:	e3a0100a 	mov	r1, #10
    d890:	e1a00003 	mov	r0, r3
    d894:	ebfffeb9 	bl	d380 <g>
    d898:	e1a03000 	mov	r3, r0
    d89c:	e1a02003 	mov	r2, r3
    d8a0:	e307397c 	movw	r3, #31100	; 0x797c
    d8a4:	e3403001 	movt	r3, #1
    d8a8:	e7933102 	ldr	r3, [r3, r2, lsl #2]
    d8ac:	e0233004 	eor	r3, r3, r4
    d8b0:	e50b307c 	str	r3, [fp, #-124]	; 0xffffff84
    d8b4:	e51b4064 	ldr	r4, [fp, #-100]	; 0xffffff9c
    d8b8:	e24b3080 	sub	r3, fp, #128	; 0x80
    d8bc:	e3a01007 	mov	r1, #7
    d8c0:	e1a00003 	mov	r0, r3
    d8c4:	ebfffead 	bl	d380 <g>
    d8c8:	e1a03000 	mov	r3, r0
    d8cc:	e1a02003 	mov	r2, r3
    d8d0:	e3063d7c 	movw	r3, #28028	; 0x6d7c
    d8d4:	e3403001 	movt	r3, #1
    d8d8:	e7933102 	ldr	r3, [r3, r2, lsl #2]
    d8dc:	e0244003 	eor	r4, r4, r3
    d8e0:	e24b3080 	sub	r3, fp, #128	; 0x80
    d8e4:	e3a01006 	mov	r1, #6
    d8e8:	e1a00003 	mov	r0, r3
    d8ec:	ebfffea3 	bl	d380 <g>
    d8f0:	e1a03000 	mov	r3, r0
    d8f4:	e1a02003 	mov	r2, r3
    d8f8:	e307317c 	movw	r3, #29052	; 0x717c
    d8fc:	e3403001 	movt	r3, #1
    d900:	e7933102 	ldr	r3, [r3, r2, lsl #2]
    d904:	e0244003 	eor	r4, r4, r3
    d908:	e24b3080 	sub	r3, fp, #128	; 0x80
    d90c:	e3a01005 	mov	r1, #5
    d910:	e1a00003 	mov	r0, r3
    d914:	ebfffe99 	bl	d380 <g>
    d918:	e1a03000 	mov	r3, r0
    d91c:	e1a02003 	mov	r2, r3
    d920:	e307357c 	movw	r3, #30076	; 0x757c
    d924:	e3403001 	movt	r3, #1
    d928:	e7933102 	ldr	r3, [r3, r2, lsl #2]
    d92c:	e0244003 	eor	r4, r4, r3
    d930:	e24b3080 	sub	r3, fp, #128	; 0x80
    d934:	e3a01004 	mov	r1, #4
    d938:	e1a00003 	mov	r0, r3
    d93c:	ebfffe8f 	bl	d380 <g>
    d940:	e1a03000 	mov	r3, r0
    d944:	e1a02003 	mov	r2, r3
    d948:	e307397c 	movw	r3, #31100	; 0x797c
    d94c:	e3403001 	movt	r3, #1
    d950:	e7933102 	ldr	r3, [r3, r2, lsl #2]
    d954:	e0244003 	eor	r4, r4, r3
    d958:	e24b3070 	sub	r3, fp, #112	; 0x70
    d95c:	e3a01009 	mov	r1, #9
    d960:	e1a00003 	mov	r0, r3
    d964:	ebfffe85 	bl	d380 <g>
    d968:	e1a03000 	mov	r3, r0
    d96c:	e1a02003 	mov	r2, r3
    d970:	e3063d7c 	movw	r3, #28028	; 0x6d7c
    d974:	e3403001 	movt	r3, #1
    d978:	e7933102 	ldr	r3, [r3, r2, lsl #2]
    d97c:	e0233004 	eor	r3, r3, r4
    d980:	e50b3078 	str	r3, [fp, #-120]	; 0xffffff88
    d984:	e51b406c 	ldr	r4, [fp, #-108]	; 0xffffff94
    d988:	e24b3080 	sub	r3, fp, #128	; 0x80
    d98c:	e3a0100a 	mov	r1, #10
    d990:	e1a00003 	mov	r0, r3
    d994:	ebfffe79 	bl	d380 <g>
    d998:	e1a03000 	mov	r3, r0
    d99c:	e1a02003 	mov	r2, r3
    d9a0:	e3063d7c 	movw	r3, #28028	; 0x6d7c
    d9a4:	e3403001 	movt	r3, #1
    d9a8:	e7933102 	ldr	r3, [r3, r2, lsl #2]
    d9ac:	e0244003 	eor	r4, r4, r3
    d9b0:	e24b3080 	sub	r3, fp, #128	; 0x80
    d9b4:	e3a01009 	mov	r1, #9
    d9b8:	e1a00003 	mov	r0, r3
    d9bc:	ebfffe6f 	bl	d380 <g>
    d9c0:	e1a03000 	mov	r3, r0
    d9c4:	e1a02003 	mov	r2, r3
    d9c8:	e307317c 	movw	r3, #29052	; 0x717c
    d9cc:	e3403001 	movt	r3, #1
    d9d0:	e7933102 	ldr	r3, [r3, r2, lsl #2]
    d9d4:	e0244003 	eor	r4, r4, r3
    d9d8:	e24b3080 	sub	r3, fp, #128	; 0x80
    d9dc:	e3a0100b 	mov	r1, #11
    d9e0:	e1a00003 	mov	r0, r3
    d9e4:	ebfffe65 	bl	d380 <g>
    d9e8:	e1a03000 	mov	r3, r0
    d9ec:	e1a02003 	mov	r2, r3
    d9f0:	e307357c 	movw	r3, #30076	; 0x757c
    d9f4:	e3403001 	movt	r3, #1
    d9f8:	e7933102 	ldr	r3, [r3, r2, lsl #2]
    d9fc:	e0244003 	eor	r4, r4, r3
    da00:	e24b3080 	sub	r3, fp, #128	; 0x80
    da04:	e3a01008 	mov	r1, #8
    da08:	e1a00003 	mov	r0, r3
    da0c:	ebfffe5b 	bl	d380 <g>
    da10:	e1a03000 	mov	r3, r0
    da14:	e1a02003 	mov	r2, r3
    da18:	e307397c 	movw	r3, #31100	; 0x797c
    da1c:	e3403001 	movt	r3, #1
    da20:	e7933102 	ldr	r3, [r3, r2, lsl #2]
    da24:	e0244003 	eor	r4, r4, r3
    da28:	e24b3070 	sub	r3, fp, #112	; 0x70
    da2c:	e3a0100b 	mov	r1, #11
    da30:	e1a00003 	mov	r0, r3
    da34:	ebfffe51 	bl	d380 <g>
    da38:	e1a03000 	mov	r3, r0
    da3c:	e1a02003 	mov	r2, r3
    da40:	e307317c 	movw	r3, #29052	; 0x717c
    da44:	e3403001 	movt	r3, #1
    da48:	e7933102 	ldr	r3, [r3, r2, lsl #2]
    da4c:	e0233004 	eor	r3, r3, r4
    da50:	e50b3074 	str	r3, [fp, #-116]	; 0xffffff8c
    da54:	e59b3008 	ldr	r3, [fp, #8]
    da58:	e3530000 	cmp	r3, #0
    da5c:	0a000017 	beq	dac0 <run+0x5b0>
    da60:	e30500a0 	movw	r0, #20640	; 0x50a0
    da64:	e3400001 	movt	r0, #1
    da68:	eb001874 	bl	13c40 <tfp_printf>
    da6c:	e3a03000 	mov	r3, #0
    da70:	e50b3028 	str	r3, [fp, #-40]	; 0xffffffd8
    da74:	ea00000b 	b	daa8 <run+0x598>
    da78:	e51b3028 	ldr	r3, [fp, #-40]	; 0xffffffd8
    da7c:	e1a03103 	lsl	r3, r3, #2
    da80:	e2433014 	sub	r3, r3, #20
    da84:	e083300b 	add	r3, r3, fp
    da88:	e513306c 	ldr	r3, [r3, #-108]	; 0xffffff94
    da8c:	e1a01003 	mov	r1, r3
    da90:	e3050080 	movw	r0, #20608	; 0x5080
    da94:	e3400001 	movt	r0, #1
    da98:	eb001868 	bl	13c40 <tfp_printf>
    da9c:	e51b3028 	ldr	r3, [fp, #-40]	; 0xffffffd8
    daa0:	e2833001 	add	r3, r3, #1
    daa4:	e50b3028 	str	r3, [fp, #-40]	; 0xffffffd8
    daa8:	e51b3028 	ldr	r3, [fp, #-40]	; 0xffffffd8
    daac:	e3530003 	cmp	r3, #3
    dab0:	dafffff0 	ble	da78 <run+0x568>
    dab4:	e3040eec 	movw	r0, #20204	; 0x4eec
    dab8:	e3400001 	movt	r0, #1
    dabc:	eb00185f 	bl	13c40 <tfp_printf>
    dac0:	e24b3080 	sub	r3, fp, #128	; 0x80
    dac4:	e3a01008 	mov	r1, #8
    dac8:	e1a00003 	mov	r0, r3
    dacc:	ebfffe2b 	bl	d380 <g>
    dad0:	e1a03000 	mov	r3, r0
    dad4:	e1a02003 	mov	r2, r3
    dad8:	e3063d7c 	movw	r3, #28028	; 0x6d7c
    dadc:	e3403001 	movt	r3, #1
    dae0:	e7934102 	ldr	r4, [r3, r2, lsl #2]
    dae4:	e24b3080 	sub	r3, fp, #128	; 0x80
    dae8:	e3a01009 	mov	r1, #9
    daec:	e1a00003 	mov	r0, r3
    daf0:	ebfffe22 	bl	d380 <g>
    daf4:	e1a03000 	mov	r3, r0
    daf8:	e1a02003 	mov	r2, r3
    dafc:	e307317c 	movw	r3, #29052	; 0x717c
    db00:	e3403001 	movt	r3, #1
    db04:	e7933102 	ldr	r3, [r3, r2, lsl #2]
    db08:	e0244003 	eor	r4, r4, r3
    db0c:	e24b3080 	sub	r3, fp, #128	; 0x80
    db10:	e3a01007 	mov	r1, #7
    db14:	e1a00003 	mov	r0, r3
    db18:	ebfffe18 	bl	d380 <g>
    db1c:	e1a03000 	mov	r3, r0
    db20:	e1a02003 	mov	r2, r3
    db24:	e307357c 	movw	r3, #30076	; 0x757c
    db28:	e3403001 	movt	r3, #1
    db2c:	e7933102 	ldr	r3, [r3, r2, lsl #2]
    db30:	e0244003 	eor	r4, r4, r3
    db34:	e24b3080 	sub	r3, fp, #128	; 0x80
    db38:	e3a01006 	mov	r1, #6
    db3c:	e1a00003 	mov	r0, r3
    db40:	ebfffe0e 	bl	d380 <g>
    db44:	e1a03000 	mov	r3, r0
    db48:	e1a02003 	mov	r2, r3
    db4c:	e307397c 	movw	r3, #31100	; 0x797c
    db50:	e3403001 	movt	r3, #1
    db54:	e7933102 	ldr	r3, [r3, r2, lsl #2]
    db58:	e0244003 	eor	r4, r4, r3
    db5c:	e24b3080 	sub	r3, fp, #128	; 0x80
    db60:	e3a01002 	mov	r1, #2
    db64:	e1a00003 	mov	r0, r3
    db68:	ebfffe04 	bl	d380 <g>
    db6c:	e1a03000 	mov	r3, r0
    db70:	e1a02003 	mov	r2, r3
    db74:	e3063d7c 	movw	r3, #28028	; 0x6d7c
    db78:	e3403001 	movt	r3, #1
    db7c:	e7932102 	ldr	r2, [r3, r2, lsl #2]
    db80:	e51b301c 	ldr	r3, [fp, #-28]	; 0xffffffe4
    db84:	e1a03203 	lsl	r3, r3, #4
    db88:	e0222004 	eor	r2, r2, r4
    db8c:	e1a03103 	lsl	r3, r3, #2
    db90:	e2433014 	sub	r3, r3, #20
    db94:	e083300b 	add	r3, r3, fp
    db98:	e50320ec 	str	r2, [r3, #-236]	; 0xffffff14
    db9c:	e24b3080 	sub	r3, fp, #128	; 0x80
    dba0:	e3a0100a 	mov	r1, #10
    dba4:	e1a00003 	mov	r0, r3
    dba8:	ebfffdf4 	bl	d380 <g>
    dbac:	e1a03000 	mov	r3, r0
    dbb0:	e1a02003 	mov	r2, r3
    dbb4:	e3063d7c 	movw	r3, #28028	; 0x6d7c
    dbb8:	e3403001 	movt	r3, #1
    dbbc:	e7934102 	ldr	r4, [r3, r2, lsl #2]
    dbc0:	e24b3080 	sub	r3, fp, #128	; 0x80
    dbc4:	e3a0100b 	mov	r1, #11
    dbc8:	e1a00003 	mov	r0, r3
    dbcc:	ebfffdeb 	bl	d380 <g>
    dbd0:	e1a03000 	mov	r3, r0
    dbd4:	e1a02003 	mov	r2, r3
    dbd8:	e307317c 	movw	r3, #29052	; 0x717c
    dbdc:	e3403001 	movt	r3, #1
    dbe0:	e7933102 	ldr	r3, [r3, r2, lsl #2]
    dbe4:	e0244003 	eor	r4, r4, r3
    dbe8:	e24b3080 	sub	r3, fp, #128	; 0x80
    dbec:	e3a01005 	mov	r1, #5
    dbf0:	e1a00003 	mov	r0, r3
    dbf4:	ebfffde1 	bl	d380 <g>
    dbf8:	e1a03000 	mov	r3, r0
    dbfc:	e1a02003 	mov	r2, r3
    dc00:	e307357c 	movw	r3, #30076	; 0x757c
    dc04:	e3403001 	movt	r3, #1
    dc08:	e7933102 	ldr	r3, [r3, r2, lsl #2]
    dc0c:	e0244003 	eor	r4, r4, r3
    dc10:	e24b3080 	sub	r3, fp, #128	; 0x80
    dc14:	e3a01004 	mov	r1, #4
    dc18:	e1a00003 	mov	r0, r3
    dc1c:	ebfffdd7 	bl	d380 <g>
    dc20:	e1a03000 	mov	r3, r0
    dc24:	e1a02003 	mov	r2, r3
    dc28:	e307397c 	movw	r3, #31100	; 0x797c
    dc2c:	e3403001 	movt	r3, #1
    dc30:	e7933102 	ldr	r3, [r3, r2, lsl #2]
    dc34:	e0244003 	eor	r4, r4, r3
    dc38:	e24b3080 	sub	r3, fp, #128	; 0x80
    dc3c:	e3a01006 	mov	r1, #6
    dc40:	e1a00003 	mov	r0, r3
    dc44:	ebfffdcd 	bl	d380 <g>
    dc48:	e1a03000 	mov	r3, r0
    dc4c:	e1a02003 	mov	r2, r3
    dc50:	e307317c 	movw	r3, #29052	; 0x717c
    dc54:	e3403001 	movt	r3, #1
    dc58:	e7932102 	ldr	r2, [r3, r2, lsl #2]
    dc5c:	e51b301c 	ldr	r3, [fp, #-28]	; 0xffffffe4
    dc60:	e1a03203 	lsl	r3, r3, #4
    dc64:	e2833001 	add	r3, r3, #1
    dc68:	e0222004 	eor	r2, r2, r4
    dc6c:	e1a03103 	lsl	r3, r3, #2
    dc70:	e2433014 	sub	r3, r3, #20
    dc74:	e083300b 	add	r3, r3, fp
    dc78:	e50320ec 	str	r2, [r3, #-236]	; 0xffffff14
    dc7c:	e24b3080 	sub	r3, fp, #128	; 0x80
    dc80:	e3a0100c 	mov	r1, #12
    dc84:	e1a00003 	mov	r0, r3
    dc88:	ebfffdbc 	bl	d380 <g>
    dc8c:	e1a03000 	mov	r3, r0
    dc90:	e1a02003 	mov	r2, r3
    dc94:	e3063d7c 	movw	r3, #28028	; 0x6d7c
    dc98:	e3403001 	movt	r3, #1
    dc9c:	e7934102 	ldr	r4, [r3, r2, lsl #2]
    dca0:	e24b3080 	sub	r3, fp, #128	; 0x80
    dca4:	e3a0100d 	mov	r1, #13
    dca8:	e1a00003 	mov	r0, r3
    dcac:	ebfffdb3 	bl	d380 <g>
    dcb0:	e1a03000 	mov	r3, r0
    dcb4:	e1a02003 	mov	r2, r3
    dcb8:	e307317c 	movw	r3, #29052	; 0x717c
    dcbc:	e3403001 	movt	r3, #1
    dcc0:	e7933102 	ldr	r3, [r3, r2, lsl #2]
    dcc4:	e0244003 	eor	r4, r4, r3
    dcc8:	e24b3080 	sub	r3, fp, #128	; 0x80
    dccc:	e3a01003 	mov	r1, #3
    dcd0:	e1a00003 	mov	r0, r3
    dcd4:	ebfffda9 	bl	d380 <g>
    dcd8:	e1a03000 	mov	r3, r0
    dcdc:	e1a02003 	mov	r2, r3
    dce0:	e307357c 	movw	r3, #30076	; 0x757c
    dce4:	e3403001 	movt	r3, #1
    dce8:	e7933102 	ldr	r3, [r3, r2, lsl #2]
    dcec:	e0244003 	eor	r4, r4, r3
    dcf0:	e24b3080 	sub	r3, fp, #128	; 0x80
    dcf4:	e3a01002 	mov	r1, #2
    dcf8:	e1a00003 	mov	r0, r3
    dcfc:	ebfffd9f 	bl	d380 <g>
    dd00:	e1a03000 	mov	r3, r0
    dd04:	e1a02003 	mov	r2, r3
    dd08:	e307397c 	movw	r3, #31100	; 0x797c
    dd0c:	e3403001 	movt	r3, #1
    dd10:	e7933102 	ldr	r3, [r3, r2, lsl #2]
    dd14:	e0244003 	eor	r4, r4, r3
    dd18:	e24b3080 	sub	r3, fp, #128	; 0x80
    dd1c:	e3a01009 	mov	r1, #9
    dd20:	e1a00003 	mov	r0, r3
    dd24:	ebfffd95 	bl	d380 <g>
    dd28:	e1a03000 	mov	r3, r0
    dd2c:	e1a02003 	mov	r2, r3
    dd30:	e307357c 	movw	r3, #30076	; 0x757c
    dd34:	e3403001 	movt	r3, #1
    dd38:	e7932102 	ldr	r2, [r3, r2, lsl #2]
    dd3c:	e51b301c 	ldr	r3, [fp, #-28]	; 0xffffffe4
    dd40:	e1a03203 	lsl	r3, r3, #4
    dd44:	e2833002 	add	r3, r3, #2
    dd48:	e0222004 	eor	r2, r2, r4
    dd4c:	e1a03103 	lsl	r3, r3, #2
    dd50:	e2433014 	sub	r3, r3, #20
    dd54:	e083300b 	add	r3, r3, fp
    dd58:	e50320ec 	str	r2, [r3, #-236]	; 0xffffff14
    dd5c:	e24b3080 	sub	r3, fp, #128	; 0x80
    dd60:	e3a0100e 	mov	r1, #14
    dd64:	e1a00003 	mov	r0, r3
    dd68:	ebfffd84 	bl	d380 <g>
    dd6c:	e1a03000 	mov	r3, r0
    dd70:	e1a02003 	mov	r2, r3
    dd74:	e3063d7c 	movw	r3, #28028	; 0x6d7c
    dd78:	e3403001 	movt	r3, #1
    dd7c:	e7934102 	ldr	r4, [r3, r2, lsl #2]
    dd80:	e24b3080 	sub	r3, fp, #128	; 0x80
    dd84:	e3a0100f 	mov	r1, #15
    dd88:	e1a00003 	mov	r0, r3
    dd8c:	ebfffd7b 	bl	d380 <g>
    dd90:	e1a03000 	mov	r3, r0
    dd94:	e1a02003 	mov	r2, r3
    dd98:	e307317c 	movw	r3, #29052	; 0x717c
    dd9c:	e3403001 	movt	r3, #1
    dda0:	e7933102 	ldr	r3, [r3, r2, lsl #2]
    dda4:	e0244003 	eor	r4, r4, r3
    dda8:	e24b3080 	sub	r3, fp, #128	; 0x80
    ddac:	e3a01001 	mov	r1, #1
    ddb0:	e1a00003 	mov	r0, r3
    ddb4:	ebfffd71 	bl	d380 <g>
    ddb8:	e1a03000 	mov	r3, r0
    ddbc:	e1a02003 	mov	r2, r3
    ddc0:	e307357c 	movw	r3, #30076	; 0x757c
    ddc4:	e3403001 	movt	r3, #1
    ddc8:	e7933102 	ldr	r3, [r3, r2, lsl #2]
    ddcc:	e0244003 	eor	r4, r4, r3
    ddd0:	e24b3080 	sub	r3, fp, #128	; 0x80
    ddd4:	e3a01000 	mov	r1, #0
    ddd8:	e1a00003 	mov	r0, r3
    dddc:	ebfffd67 	bl	d380 <g>
    dde0:	e1a03000 	mov	r3, r0
    dde4:	e1a02003 	mov	r2, r3
    dde8:	e307397c 	movw	r3, #31100	; 0x797c
    ddec:	e3403001 	movt	r3, #1
    ddf0:	e7933102 	ldr	r3, [r3, r2, lsl #2]
    ddf4:	e0244003 	eor	r4, r4, r3
    ddf8:	e24b3080 	sub	r3, fp, #128	; 0x80
    ddfc:	e3a0100c 	mov	r1, #12
    de00:	e1a00003 	mov	r0, r3
    de04:	ebfffd5d 	bl	d380 <g>
    de08:	e1a03000 	mov	r3, r0
    de0c:	e1a02003 	mov	r2, r3
    de10:	e307397c 	movw	r3, #31100	; 0x797c
    de14:	e3403001 	movt	r3, #1
    de18:	e7932102 	ldr	r2, [r3, r2, lsl #2]
    de1c:	e51b301c 	ldr	r3, [fp, #-28]	; 0xffffffe4
    de20:	e1a03203 	lsl	r3, r3, #4
    de24:	e2833003 	add	r3, r3, #3
    de28:	e0222004 	eor	r2, r2, r4
    de2c:	e1a03103 	lsl	r3, r3, #2
    de30:	e2433014 	sub	r3, r3, #20
    de34:	e083300b 	add	r3, r3, fp
    de38:	e50320ec 	str	r2, [r3, #-236]	; 0xffffff14
    de3c:	e59b3008 	ldr	r3, [fp, #8]
    de40:	e3530000 	cmp	r3, #0
    de44:	0a000020 	beq	decc <run+0x9bc>
    de48:	e51b301c 	ldr	r3, [fp, #-28]	; 0xffffffe4
    de4c:	e1a01203 	lsl	r1, r3, #4
    de50:	e51b301c 	ldr	r3, [fp, #-28]	; 0xffffffe4
    de54:	e1a03203 	lsl	r3, r3, #4
    de58:	e2833003 	add	r3, r3, #3
    de5c:	e1a02003 	mov	r2, r3
    de60:	e30500b4 	movw	r0, #20660	; 0x50b4
    de64:	e3400001 	movt	r0, #1
    de68:	eb001774 	bl	13c40 <tfp_printf>
    de6c:	e3a03000 	mov	r3, #0
    de70:	e50b302c 	str	r3, [fp, #-44]	; 0xffffffd4
    de74:	ea00000e 	b	deb4 <run+0x9a4>
    de78:	e51b301c 	ldr	r3, [fp, #-28]	; 0xffffffe4
    de7c:	e1a02203 	lsl	r2, r3, #4
    de80:	e51b302c 	ldr	r3, [fp, #-44]	; 0xffffffd4
    de84:	e0823003 	add	r3, r2, r3
    de88:	e1a03103 	lsl	r3, r3, #2
    de8c:	e2433014 	sub	r3, r3, #20
    de90:	e083300b 	add	r3, r3, fp
    de94:	e51330ec 	ldr	r3, [r3, #-236]	; 0xffffff14
    de98:	e1a01003 	mov	r1, r3
    de9c:	e3050080 	movw	r0, #20608	; 0x5080
    dea0:	e3400001 	movt	r0, #1
    dea4:	eb001765 	bl	13c40 <tfp_printf>
    dea8:	e51b302c 	ldr	r3, [fp, #-44]	; 0xffffffd4
    deac:	e2833001 	add	r3, r3, #1
    deb0:	e50b302c 	str	r3, [fp, #-44]	; 0xffffffd4
    deb4:	e51b302c 	ldr	r3, [fp, #-44]	; 0xffffffd4
    deb8:	e3530003 	cmp	r3, #3
    debc:	daffffed 	ble	de78 <run+0x968>
    dec0:	e3040eec 	movw	r0, #20204	; 0x4eec
    dec4:	e3400001 	movt	r0, #1
    dec8:	eb00175c 	bl	13c40 <tfp_printf>
    decc:	e59b3008 	ldr	r3, [fp, #8]
    ded0:	e3530000 	cmp	r3, #0
    ded4:	0a000019 	beq	df40 <run+0xa30>
    ded8:	e30500c0 	movw	r0, #20672	; 0x50c0
    dedc:	e3400001 	movt	r0, #1
    dee0:	eb001756 	bl	13c40 <tfp_printf>
    dee4:	e3a03000 	mov	r3, #0
    dee8:	e50b3030 	str	r3, [fp, #-48]	; 0xffffffd0
    deec:	ea00000d 	b	df28 <run+0xa18>
    def0:	e51b3030 	ldr	r3, [fp, #-48]	; 0xffffffd0
    def4:	e6ef2073 	uxtb	r2, r3
    def8:	e24b3080 	sub	r3, fp, #128	; 0x80
    defc:	e1a01002 	mov	r1, r2
    df00:	e1a00003 	mov	r0, r3
    df04:	ebfffd1d 	bl	d380 <g>
    df08:	e1a03000 	mov	r3, r0
    df0c:	e1a01003 	mov	r1, r3
    df10:	e3050098 	movw	r0, #20632	; 0x5098
    df14:	e3400001 	movt	r0, #1
    df18:	eb001748 	bl	13c40 <tfp_printf>
    df1c:	e51b3030 	ldr	r3, [fp, #-48]	; 0xffffffd0
    df20:	e2833001 	add	r3, r3, #1
    df24:	e50b3030 	str	r3, [fp, #-48]	; 0xffffffd0
    df28:	e51b3030 	ldr	r3, [fp, #-48]	; 0xffffffd0
    df2c:	e3530007 	cmp	r3, #7
    df30:	daffffee 	ble	def0 <run+0x9e0>
    df34:	e3040eec 	movw	r0, #20204	; 0x4eec
    df38:	e3400001 	movt	r0, #1
    df3c:	eb00173f 	bl	13c40 <tfp_printf>
    df40:	e51b4078 	ldr	r4, [fp, #-120]	; 0xffffff88
    df44:	e24b3080 	sub	r3, fp, #128	; 0x80
    df48:	e3a01005 	mov	r1, #5
    df4c:	e1a00003 	mov	r0, r3
    df50:	ebfffd0a 	bl	d380 <g>
    df54:	e1a03000 	mov	r3, r0
    df58:	e1a02003 	mov	r2, r3
    df5c:	e3063d7c 	movw	r3, #28028	; 0x6d7c
    df60:	e3403001 	movt	r3, #1
    df64:	e7933102 	ldr	r3, [r3, r2, lsl #2]
    df68:	e0244003 	eor	r4, r4, r3
    df6c:	e24b3080 	sub	r3, fp, #128	; 0x80
    df70:	e3a01007 	mov	r1, #7
    df74:	e1a00003 	mov	r0, r3
    df78:	ebfffd00 	bl	d380 <g>
    df7c:	e1a03000 	mov	r3, r0
    df80:	e1a02003 	mov	r2, r3
    df84:	e307317c 	movw	r3, #29052	; 0x717c
    df88:	e3403001 	movt	r3, #1
    df8c:	e7933102 	ldr	r3, [r3, r2, lsl #2]
    df90:	e0244003 	eor	r4, r4, r3
    df94:	e24b3080 	sub	r3, fp, #128	; 0x80
    df98:	e3a01004 	mov	r1, #4
    df9c:	e1a00003 	mov	r0, r3
    dfa0:	ebfffcf6 	bl	d380 <g>
    dfa4:	e1a03000 	mov	r3, r0
    dfa8:	e1a02003 	mov	r2, r3
    dfac:	e307357c 	movw	r3, #30076	; 0x757c
    dfb0:	e3403001 	movt	r3, #1
    dfb4:	e7933102 	ldr	r3, [r3, r2, lsl #2]
    dfb8:	e0244003 	eor	r4, r4, r3
    dfbc:	e24b3080 	sub	r3, fp, #128	; 0x80
    dfc0:	e3a01006 	mov	r1, #6
    dfc4:	e1a00003 	mov	r0, r3
    dfc8:	ebfffcec 	bl	d380 <g>
    dfcc:	e1a03000 	mov	r3, r0
    dfd0:	e1a02003 	mov	r2, r3
    dfd4:	e307397c 	movw	r3, #31100	; 0x797c
    dfd8:	e3403001 	movt	r3, #1
    dfdc:	e7933102 	ldr	r3, [r3, r2, lsl #2]
    dfe0:	e0244003 	eor	r4, r4, r3
    dfe4:	e24b3080 	sub	r3, fp, #128	; 0x80
    dfe8:	e3a01000 	mov	r1, #0
    dfec:	e1a00003 	mov	r0, r3
    dff0:	ebfffce2 	bl	d380 <g>
    dff4:	e1a03000 	mov	r3, r0
    dff8:	e1a02003 	mov	r2, r3
    dffc:	e307357c 	movw	r3, #30076	; 0x757c
    e000:	e3403001 	movt	r3, #1
    e004:	e7933102 	ldr	r3, [r3, r2, lsl #2]
    e008:	e0233004 	eor	r3, r3, r4
    e00c:	e50b3070 	str	r3, [fp, #-112]	; 0xffffff90
    e010:	e51b4080 	ldr	r4, [fp, #-128]	; 0xffffff80
    e014:	e24b3070 	sub	r3, fp, #112	; 0x70
    e018:	e3a01000 	mov	r1, #0
    e01c:	e1a00003 	mov	r0, r3
    e020:	ebfffcd6 	bl	d380 <g>
    e024:	e1a03000 	mov	r3, r0
    e028:	e1a02003 	mov	r2, r3
    e02c:	e3063d7c 	movw	r3, #28028	; 0x6d7c
    e030:	e3403001 	movt	r3, #1
    e034:	e7933102 	ldr	r3, [r3, r2, lsl #2]
    e038:	e0244003 	eor	r4, r4, r3
    e03c:	e24b3070 	sub	r3, fp, #112	; 0x70
    e040:	e3a01002 	mov	r1, #2
    e044:	e1a00003 	mov	r0, r3
    e048:	ebfffccc 	bl	d380 <g>
    e04c:	e1a03000 	mov	r3, r0
    e050:	e1a02003 	mov	r2, r3
    e054:	e307317c 	movw	r3, #29052	; 0x717c
    e058:	e3403001 	movt	r3, #1
    e05c:	e7933102 	ldr	r3, [r3, r2, lsl #2]
    e060:	e0244003 	eor	r4, r4, r3
    e064:	e24b3070 	sub	r3, fp, #112	; 0x70
    e068:	e3a01001 	mov	r1, #1
    e06c:	e1a00003 	mov	r0, r3
    e070:	ebfffcc2 	bl	d380 <g>
    e074:	e1a03000 	mov	r3, r0
    e078:	e1a02003 	mov	r2, r3
    e07c:	e307357c 	movw	r3, #30076	; 0x757c
    e080:	e3403001 	movt	r3, #1
    e084:	e7933102 	ldr	r3, [r3, r2, lsl #2]
    e088:	e0244003 	eor	r4, r4, r3
    e08c:	e24b3070 	sub	r3, fp, #112	; 0x70
    e090:	e3a01003 	mov	r1, #3
    e094:	e1a00003 	mov	r0, r3
    e098:	ebfffcb8 	bl	d380 <g>
    e09c:	e1a03000 	mov	r3, r0
    e0a0:	e1a02003 	mov	r2, r3
    e0a4:	e307397c 	movw	r3, #31100	; 0x797c
    e0a8:	e3403001 	movt	r3, #1
    e0ac:	e7933102 	ldr	r3, [r3, r2, lsl #2]
    e0b0:	e0244003 	eor	r4, r4, r3
    e0b4:	e24b3080 	sub	r3, fp, #128	; 0x80
    e0b8:	e3a01002 	mov	r1, #2
    e0bc:	e1a00003 	mov	r0, r3
    e0c0:	ebfffcae 	bl	d380 <g>
    e0c4:	e1a03000 	mov	r3, r0
    e0c8:	e1a02003 	mov	r2, r3
    e0cc:	e307397c 	movw	r3, #31100	; 0x797c
    e0d0:	e3403001 	movt	r3, #1
    e0d4:	e7933102 	ldr	r3, [r3, r2, lsl #2]
    e0d8:	e0233004 	eor	r3, r3, r4
    e0dc:	e50b306c 	str	r3, [fp, #-108]	; 0xffffff94
    e0e0:	e51b407c 	ldr	r4, [fp, #-124]	; 0xffffff84
    e0e4:	e24b3070 	sub	r3, fp, #112	; 0x70
    e0e8:	e3a01007 	mov	r1, #7
    e0ec:	e1a00003 	mov	r0, r3
    e0f0:	ebfffca2 	bl	d380 <g>
    e0f4:	e1a03000 	mov	r3, r0
    e0f8:	e1a02003 	mov	r2, r3
    e0fc:	e3063d7c 	movw	r3, #28028	; 0x6d7c
    e100:	e3403001 	movt	r3, #1
    e104:	e7933102 	ldr	r3, [r3, r2, lsl #2]
    e108:	e0244003 	eor	r4, r4, r3
    e10c:	e24b3070 	sub	r3, fp, #112	; 0x70
    e110:	e3a01006 	mov	r1, #6
    e114:	e1a00003 	mov	r0, r3
    e118:	ebfffc98 	bl	d380 <g>
    e11c:	e1a03000 	mov	r3, r0
    e120:	e1a02003 	mov	r2, r3
    e124:	e307317c 	movw	r3, #29052	; 0x717c
    e128:	e3403001 	movt	r3, #1
    e12c:	e7933102 	ldr	r3, [r3, r2, lsl #2]
    e130:	e0244003 	eor	r4, r4, r3
    e134:	e24b3070 	sub	r3, fp, #112	; 0x70
    e138:	e3a01005 	mov	r1, #5
    e13c:	e1a00003 	mov	r0, r3
    e140:	ebfffc8e 	bl	d380 <g>
    e144:	e1a03000 	mov	r3, r0
    e148:	e1a02003 	mov	r2, r3
    e14c:	e307357c 	movw	r3, #30076	; 0x757c
    e150:	e3403001 	movt	r3, #1
    e154:	e7933102 	ldr	r3, [r3, r2, lsl #2]
    e158:	e0244003 	eor	r4, r4, r3
    e15c:	e24b3070 	sub	r3, fp, #112	; 0x70
    e160:	e3a01004 	mov	r1, #4
    e164:	e1a00003 	mov	r0, r3
    e168:	ebfffc84 	bl	d380 <g>
    e16c:	e1a03000 	mov	r3, r0
    e170:	e1a02003 	mov	r2, r3
    e174:	e307397c 	movw	r3, #31100	; 0x797c
    e178:	e3403001 	movt	r3, #1
    e17c:	e7933102 	ldr	r3, [r3, r2, lsl #2]
    e180:	e0244003 	eor	r4, r4, r3
    e184:	e24b3080 	sub	r3, fp, #128	; 0x80
    e188:	e3a01001 	mov	r1, #1
    e18c:	e1a00003 	mov	r0, r3
    e190:	ebfffc7a 	bl	d380 <g>
    e194:	e1a03000 	mov	r3, r0
    e198:	e1a02003 	mov	r2, r3
    e19c:	e3063d7c 	movw	r3, #28028	; 0x6d7c
    e1a0:	e3403001 	movt	r3, #1
    e1a4:	e7933102 	ldr	r3, [r3, r2, lsl #2]
    e1a8:	e0233004 	eor	r3, r3, r4
    e1ac:	e50b3068 	str	r3, [fp, #-104]	; 0xffffff98
    e1b0:	e51b4074 	ldr	r4, [fp, #-116]	; 0xffffff8c
    e1b4:	e24b3070 	sub	r3, fp, #112	; 0x70
    e1b8:	e3a0100a 	mov	r1, #10
    e1bc:	e1a00003 	mov	r0, r3
    e1c0:	ebfffc6e 	bl	d380 <g>
    e1c4:	e1a03000 	mov	r3, r0
    e1c8:	e1a02003 	mov	r2, r3
    e1cc:	e3063d7c 	movw	r3, #28028	; 0x6d7c
    e1d0:	e3403001 	movt	r3, #1
    e1d4:	e7933102 	ldr	r3, [r3, r2, lsl #2]
    e1d8:	e0244003 	eor	r4, r4, r3
    e1dc:	e24b3070 	sub	r3, fp, #112	; 0x70
    e1e0:	e3a01009 	mov	r1, #9
    e1e4:	e1a00003 	mov	r0, r3
    e1e8:	ebfffc64 	bl	d380 <g>
    e1ec:	e1a03000 	mov	r3, r0
    e1f0:	e1a02003 	mov	r2, r3
    e1f4:	e307317c 	movw	r3, #29052	; 0x717c
    e1f8:	e3403001 	movt	r3, #1
    e1fc:	e7933102 	ldr	r3, [r3, r2, lsl #2]
    e200:	e0244003 	eor	r4, r4, r3
    e204:	e24b3070 	sub	r3, fp, #112	; 0x70
    e208:	e3a0100b 	mov	r1, #11
    e20c:	e1a00003 	mov	r0, r3
    e210:	ebfffc5a 	bl	d380 <g>
    e214:	e1a03000 	mov	r3, r0
    e218:	e1a02003 	mov	r2, r3
    e21c:	e307357c 	movw	r3, #30076	; 0x757c
    e220:	e3403001 	movt	r3, #1
    e224:	e7933102 	ldr	r3, [r3, r2, lsl #2]
    e228:	e0244003 	eor	r4, r4, r3
    e22c:	e24b3070 	sub	r3, fp, #112	; 0x70
    e230:	e3a01008 	mov	r1, #8
    e234:	e1a00003 	mov	r0, r3
    e238:	ebfffc50 	bl	d380 <g>
    e23c:	e1a03000 	mov	r3, r0
    e240:	e1a02003 	mov	r2, r3
    e244:	e307397c 	movw	r3, #31100	; 0x797c
    e248:	e3403001 	movt	r3, #1
    e24c:	e7933102 	ldr	r3, [r3, r2, lsl #2]
    e250:	e0244003 	eor	r4, r4, r3
    e254:	e24b3080 	sub	r3, fp, #128	; 0x80
    e258:	e3a01003 	mov	r1, #3
    e25c:	e1a00003 	mov	r0, r3
    e260:	ebfffc46 	bl	d380 <g>
    e264:	e1a03000 	mov	r3, r0
    e268:	e1a02003 	mov	r2, r3
    e26c:	e307317c 	movw	r3, #29052	; 0x717c
    e270:	e3403001 	movt	r3, #1
    e274:	e7933102 	ldr	r3, [r3, r2, lsl #2]
    e278:	e0233004 	eor	r3, r3, r4
    e27c:	e50b3064 	str	r3, [fp, #-100]	; 0xffffff9c
    e280:	e59b3008 	ldr	r3, [fp, #8]
    e284:	e3530000 	cmp	r3, #0
    e288:	0a000017 	beq	e2ec <run+0xddc>
    e28c:	e30500dc 	movw	r0, #20700	; 0x50dc
    e290:	e3400001 	movt	r0, #1
    e294:	eb001669 	bl	13c40 <tfp_printf>
    e298:	e3a03000 	mov	r3, #0
    e29c:	e50b3034 	str	r3, [fp, #-52]	; 0xffffffcc
    e2a0:	ea00000b 	b	e2d4 <run+0xdc4>
    e2a4:	e51b3034 	ldr	r3, [fp, #-52]	; 0xffffffcc
    e2a8:	e1a03103 	lsl	r3, r3, #2
    e2ac:	e2433014 	sub	r3, r3, #20
    e2b0:	e083300b 	add	r3, r3, fp
    e2b4:	e513305c 	ldr	r3, [r3, #-92]	; 0xffffffa4
    e2b8:	e1a01003 	mov	r1, r3
    e2bc:	e3050080 	movw	r0, #20608	; 0x5080
    e2c0:	e3400001 	movt	r0, #1
    e2c4:	eb00165d 	bl	13c40 <tfp_printf>
    e2c8:	e51b3034 	ldr	r3, [fp, #-52]	; 0xffffffcc
    e2cc:	e2833001 	add	r3, r3, #1
    e2d0:	e50b3034 	str	r3, [fp, #-52]	; 0xffffffcc
    e2d4:	e51b3034 	ldr	r3, [fp, #-52]	; 0xffffffcc
    e2d8:	e3530003 	cmp	r3, #3
    e2dc:	dafffff0 	ble	e2a4 <run+0xd94>
    e2e0:	e3040eec 	movw	r0, #20204	; 0x4eec
    e2e4:	e3400001 	movt	r0, #1
    e2e8:	eb001654 	bl	13c40 <tfp_printf>
    e2ec:	e24b3070 	sub	r3, fp, #112	; 0x70
    e2f0:	e3a01003 	mov	r1, #3
    e2f4:	e1a00003 	mov	r0, r3
    e2f8:	ebfffc20 	bl	d380 <g>
    e2fc:	e1a03000 	mov	r3, r0
    e300:	e1a02003 	mov	r2, r3
    e304:	e3063d7c 	movw	r3, #28028	; 0x6d7c
    e308:	e3403001 	movt	r3, #1
    e30c:	e7934102 	ldr	r4, [r3, r2, lsl #2]
    e310:	e24b3070 	sub	r3, fp, #112	; 0x70
    e314:	e3a01002 	mov	r1, #2
    e318:	e1a00003 	mov	r0, r3
    e31c:	ebfffc17 	bl	d380 <g>
    e320:	e1a03000 	mov	r3, r0
    e324:	e1a02003 	mov	r2, r3
    e328:	e307317c 	movw	r3, #29052	; 0x717c
    e32c:	e3403001 	movt	r3, #1
    e330:	e7933102 	ldr	r3, [r3, r2, lsl #2]
    e334:	e0244003 	eor	r4, r4, r3
    e338:	e24b3070 	sub	r3, fp, #112	; 0x70
    e33c:	e3a0100c 	mov	r1, #12
    e340:	e1a00003 	mov	r0, r3
    e344:	ebfffc0d 	bl	d380 <g>
    e348:	e1a03000 	mov	r3, r0
    e34c:	e1a02003 	mov	r2, r3
    e350:	e307357c 	movw	r3, #30076	; 0x757c
    e354:	e3403001 	movt	r3, #1
    e358:	e7933102 	ldr	r3, [r3, r2, lsl #2]
    e35c:	e0244003 	eor	r4, r4, r3
    e360:	e24b3070 	sub	r3, fp, #112	; 0x70
    e364:	e3a0100d 	mov	r1, #13
    e368:	e1a00003 	mov	r0, r3
    e36c:	ebfffc03 	bl	d380 <g>
    e370:	e1a03000 	mov	r3, r0
    e374:	e1a02003 	mov	r2, r3
    e378:	e307397c 	movw	r3, #31100	; 0x797c
    e37c:	e3403001 	movt	r3, #1
    e380:	e7933102 	ldr	r3, [r3, r2, lsl #2]
    e384:	e0244003 	eor	r4, r4, r3
    e388:	e24b3070 	sub	r3, fp, #112	; 0x70
    e38c:	e3a01008 	mov	r1, #8
    e390:	e1a00003 	mov	r0, r3
    e394:	ebfffbf9 	bl	d380 <g>
    e398:	e1a03000 	mov	r3, r0
    e39c:	e1a02003 	mov	r2, r3
    e3a0:	e3063d7c 	movw	r3, #28028	; 0x6d7c
    e3a4:	e3403001 	movt	r3, #1
    e3a8:	e7932102 	ldr	r2, [r3, r2, lsl #2]
    e3ac:	e51b301c 	ldr	r3, [fp, #-28]	; 0xffffffe4
    e3b0:	e1a03203 	lsl	r3, r3, #4
    e3b4:	e2833004 	add	r3, r3, #4
    e3b8:	e0222004 	eor	r2, r2, r4
    e3bc:	e1a03103 	lsl	r3, r3, #2
    e3c0:	e2433014 	sub	r3, r3, #20
    e3c4:	e083300b 	add	r3, r3, fp
    e3c8:	e50320ec 	str	r2, [r3, #-236]	; 0xffffff14
    e3cc:	e24b3070 	sub	r3, fp, #112	; 0x70
    e3d0:	e3a01001 	mov	r1, #1
    e3d4:	e1a00003 	mov	r0, r3
    e3d8:	ebfffbe8 	bl	d380 <g>
    e3dc:	e1a03000 	mov	r3, r0
    e3e0:	e1a02003 	mov	r2, r3
    e3e4:	e3063d7c 	movw	r3, #28028	; 0x6d7c
    e3e8:	e3403001 	movt	r3, #1
    e3ec:	e7934102 	ldr	r4, [r3, r2, lsl #2]
    e3f0:	e24b3070 	sub	r3, fp, #112	; 0x70
    e3f4:	e3a01000 	mov	r1, #0
    e3f8:	e1a00003 	mov	r0, r3
    e3fc:	ebfffbdf 	bl	d380 <g>
    e400:	e1a03000 	mov	r3, r0
    e404:	e1a02003 	mov	r2, r3
    e408:	e307317c 	movw	r3, #29052	; 0x717c
    e40c:	e3403001 	movt	r3, #1
    e410:	e7933102 	ldr	r3, [r3, r2, lsl #2]
    e414:	e0244003 	eor	r4, r4, r3
    e418:	e24b3070 	sub	r3, fp, #112	; 0x70
    e41c:	e3a0100e 	mov	r1, #14
    e420:	e1a00003 	mov	r0, r3
    e424:	ebfffbd5 	bl	d380 <g>
    e428:	e1a03000 	mov	r3, r0
    e42c:	e1a02003 	mov	r2, r3
    e430:	e307357c 	movw	r3, #30076	; 0x757c
    e434:	e3403001 	movt	r3, #1
    e438:	e7933102 	ldr	r3, [r3, r2, lsl #2]
    e43c:	e0244003 	eor	r4, r4, r3
    e440:	e24b3070 	sub	r3, fp, #112	; 0x70
    e444:	e3a0100f 	mov	r1, #15
    e448:	e1a00003 	mov	r0, r3
    e44c:	ebfffbcb 	bl	d380 <g>
    e450:	e1a03000 	mov	r3, r0
    e454:	e1a02003 	mov	r2, r3
    e458:	e307397c 	movw	r3, #31100	; 0x797c
    e45c:	e3403001 	movt	r3, #1
    e460:	e7933102 	ldr	r3, [r3, r2, lsl #2]
    e464:	e0244003 	eor	r4, r4, r3
    e468:	e24b3070 	sub	r3, fp, #112	; 0x70
    e46c:	e3a0100d 	mov	r1, #13
    e470:	e1a00003 	mov	r0, r3
    e474:	ebfffbc1 	bl	d380 <g>
    e478:	e1a03000 	mov	r3, r0
    e47c:	e1a02003 	mov	r2, r3
    e480:	e307317c 	movw	r3, #29052	; 0x717c
    e484:	e3403001 	movt	r3, #1
    e488:	e7932102 	ldr	r2, [r3, r2, lsl #2]
    e48c:	e51b301c 	ldr	r3, [fp, #-28]	; 0xffffffe4
    e490:	e1a03203 	lsl	r3, r3, #4
    e494:	e2833005 	add	r3, r3, #5
    e498:	e0222004 	eor	r2, r2, r4
    e49c:	e1a03103 	lsl	r3, r3, #2
    e4a0:	e2433014 	sub	r3, r3, #20
    e4a4:	e083300b 	add	r3, r3, fp
    e4a8:	e50320ec 	str	r2, [r3, #-236]	; 0xffffff14
    e4ac:	e24b3070 	sub	r3, fp, #112	; 0x70
    e4b0:	e3a01007 	mov	r1, #7
    e4b4:	e1a00003 	mov	r0, r3
    e4b8:	ebfffbb0 	bl	d380 <g>
    e4bc:	e1a03000 	mov	r3, r0
    e4c0:	e1a02003 	mov	r2, r3
    e4c4:	e3063d7c 	movw	r3, #28028	; 0x6d7c
    e4c8:	e3403001 	movt	r3, #1
    e4cc:	e7934102 	ldr	r4, [r3, r2, lsl #2]
    e4d0:	e24b3070 	sub	r3, fp, #112	; 0x70
    e4d4:	e3a01006 	mov	r1, #6
    e4d8:	e1a00003 	mov	r0, r3
    e4dc:	ebfffba7 	bl	d380 <g>
    e4e0:	e1a03000 	mov	r3, r0
    e4e4:	e1a02003 	mov	r2, r3
    e4e8:	e307317c 	movw	r3, #29052	; 0x717c
    e4ec:	e3403001 	movt	r3, #1
    e4f0:	e7933102 	ldr	r3, [r3, r2, lsl #2]
    e4f4:	e0244003 	eor	r4, r4, r3
    e4f8:	e24b3070 	sub	r3, fp, #112	; 0x70
    e4fc:	e3a01008 	mov	r1, #8
    e500:	e1a00003 	mov	r0, r3
    e504:	ebfffb9d 	bl	d380 <g>
    e508:	e1a03000 	mov	r3, r0
    e50c:	e1a02003 	mov	r2, r3
    e510:	e307357c 	movw	r3, #30076	; 0x757c
    e514:	e3403001 	movt	r3, #1
    e518:	e7933102 	ldr	r3, [r3, r2, lsl #2]
    e51c:	e0244003 	eor	r4, r4, r3
    e520:	e24b3070 	sub	r3, fp, #112	; 0x70
    e524:	e3a01009 	mov	r1, #9
    e528:	e1a00003 	mov	r0, r3
    e52c:	ebfffb93 	bl	d380 <g>
    e530:	e1a03000 	mov	r3, r0
    e534:	e1a02003 	mov	r2, r3
    e538:	e307397c 	movw	r3, #31100	; 0x797c
    e53c:	e3403001 	movt	r3, #1
    e540:	e7933102 	ldr	r3, [r3, r2, lsl #2]
    e544:	e0244003 	eor	r4, r4, r3
    e548:	e24b3070 	sub	r3, fp, #112	; 0x70
    e54c:	e3a01003 	mov	r1, #3
    e550:	e1a00003 	mov	r0, r3
    e554:	ebfffb89 	bl	d380 <g>
    e558:	e1a03000 	mov	r3, r0
    e55c:	e1a02003 	mov	r2, r3
    e560:	e307357c 	movw	r3, #30076	; 0x757c
    e564:	e3403001 	movt	r3, #1
    e568:	e7932102 	ldr	r2, [r3, r2, lsl #2]
    e56c:	e51b301c 	ldr	r3, [fp, #-28]	; 0xffffffe4
    e570:	e1a03203 	lsl	r3, r3, #4
    e574:	e2833006 	add	r3, r3, #6
    e578:	e0222004 	eor	r2, r2, r4
    e57c:	e1a03103 	lsl	r3, r3, #2
    e580:	e2433014 	sub	r3, r3, #20
    e584:	e083300b 	add	r3, r3, fp
    e588:	e50320ec 	str	r2, [r3, #-236]	; 0xffffff14
    e58c:	e24b3070 	sub	r3, fp, #112	; 0x70
    e590:	e3a01005 	mov	r1, #5
    e594:	e1a00003 	mov	r0, r3
    e598:	ebfffb78 	bl	d380 <g>
    e59c:	e1a03000 	mov	r3, r0
    e5a0:	e1a02003 	mov	r2, r3
    e5a4:	e3063d7c 	movw	r3, #28028	; 0x6d7c
    e5a8:	e3403001 	movt	r3, #1
    e5ac:	e7934102 	ldr	r4, [r3, r2, lsl #2]
    e5b0:	e24b3070 	sub	r3, fp, #112	; 0x70
    e5b4:	e3a01004 	mov	r1, #4
    e5b8:	e1a00003 	mov	r0, r3
    e5bc:	ebfffb6f 	bl	d380 <g>
    e5c0:	e1a03000 	mov	r3, r0
    e5c4:	e1a02003 	mov	r2, r3
    e5c8:	e307317c 	movw	r3, #29052	; 0x717c
    e5cc:	e3403001 	movt	r3, #1
    e5d0:	e7933102 	ldr	r3, [r3, r2, lsl #2]
    e5d4:	e0244003 	eor	r4, r4, r3
    e5d8:	e24b3070 	sub	r3, fp, #112	; 0x70
    e5dc:	e3a0100a 	mov	r1, #10
    e5e0:	e1a00003 	mov	r0, r3
    e5e4:	ebfffb65 	bl	d380 <g>
    e5e8:	e1a03000 	mov	r3, r0
    e5ec:	e1a02003 	mov	r2, r3
    e5f0:	e307357c 	movw	r3, #30076	; 0x757c
    e5f4:	e3403001 	movt	r3, #1
    e5f8:	e7933102 	ldr	r3, [r3, r2, lsl #2]
    e5fc:	e0244003 	eor	r4, r4, r3
    e600:	e24b3070 	sub	r3, fp, #112	; 0x70
    e604:	e3a0100b 	mov	r1, #11
    e608:	e1a00003 	mov	r0, r3
    e60c:	ebfffb5b 	bl	d380 <g>
    e610:	e1a03000 	mov	r3, r0
    e614:	e1a02003 	mov	r2, r3
    e618:	e307397c 	movw	r3, #31100	; 0x797c
    e61c:	e3403001 	movt	r3, #1
    e620:	e7933102 	ldr	r3, [r3, r2, lsl #2]
    e624:	e0244003 	eor	r4, r4, r3
    e628:	e24b3070 	sub	r3, fp, #112	; 0x70
    e62c:	e3a01007 	mov	r1, #7
    e630:	e1a00003 	mov	r0, r3
    e634:	ebfffb51 	bl	d380 <g>
    e638:	e1a03000 	mov	r3, r0
    e63c:	e1a02003 	mov	r2, r3
    e640:	e307397c 	movw	r3, #31100	; 0x797c
    e644:	e3403001 	movt	r3, #1
    e648:	e7932102 	ldr	r2, [r3, r2, lsl #2]
    e64c:	e51b301c 	ldr	r3, [fp, #-28]	; 0xffffffe4
    e650:	e1a03203 	lsl	r3, r3, #4
    e654:	e2833007 	add	r3, r3, #7
    e658:	e0222004 	eor	r2, r2, r4
    e65c:	e1a03103 	lsl	r3, r3, #2
    e660:	e2433014 	sub	r3, r3, #20
    e664:	e083300b 	add	r3, r3, fp
    e668:	e50320ec 	str	r2, [r3, #-236]	; 0xffffff14
    e66c:	e59b3008 	ldr	r3, [fp, #8]
    e670:	e3530000 	cmp	r3, #0
    e674:	0a000021 	beq	e700 <run+0x11f0>
    e678:	e51b301c 	ldr	r3, [fp, #-28]	; 0xffffffe4
    e67c:	e1a03203 	lsl	r3, r3, #4
    e680:	e2831004 	add	r1, r3, #4
    e684:	e51b301c 	ldr	r3, [fp, #-28]	; 0xffffffe4
    e688:	e1a03203 	lsl	r3, r3, #4
    e68c:	e2833007 	add	r3, r3, #7
    e690:	e1a02003 	mov	r2, r3
    e694:	e30500b4 	movw	r0, #20660	; 0x50b4
    e698:	e3400001 	movt	r0, #1
    e69c:	eb001567 	bl	13c40 <tfp_printf>
    e6a0:	e3a03004 	mov	r3, #4
    e6a4:	e50b3038 	str	r3, [fp, #-56]	; 0xffffffc8
    e6a8:	ea00000e 	b	e6e8 <run+0x11d8>
    e6ac:	e51b301c 	ldr	r3, [fp, #-28]	; 0xffffffe4
    e6b0:	e1a02203 	lsl	r2, r3, #4
    e6b4:	e51b3038 	ldr	r3, [fp, #-56]	; 0xffffffc8
    e6b8:	e0823003 	add	r3, r2, r3
    e6bc:	e1a03103 	lsl	r3, r3, #2
    e6c0:	e2433014 	sub	r3, r3, #20
    e6c4:	e083300b 	add	r3, r3, fp
    e6c8:	e51330ec 	ldr	r3, [r3, #-236]	; 0xffffff14
    e6cc:	e1a01003 	mov	r1, r3
    e6d0:	e3050080 	movw	r0, #20608	; 0x5080
    e6d4:	e3400001 	movt	r0, #1
    e6d8:	eb001558 	bl	13c40 <tfp_printf>
    e6dc:	e51b3038 	ldr	r3, [fp, #-56]	; 0xffffffc8
    e6e0:	e2833001 	add	r3, r3, #1
    e6e4:	e50b3038 	str	r3, [fp, #-56]	; 0xffffffc8
    e6e8:	e51b3038 	ldr	r3, [fp, #-56]	; 0xffffffc8
    e6ec:	e3530007 	cmp	r3, #7
    e6f0:	daffffed 	ble	e6ac <run+0x119c>
    e6f4:	e3040eec 	movw	r0, #20204	; 0x4eec
    e6f8:	e3400001 	movt	r0, #1
    e6fc:	eb00154f 	bl	13c40 <tfp_printf>
    e700:	e51b4070 	ldr	r4, [fp, #-112]	; 0xffffff90
    e704:	e24b3070 	sub	r3, fp, #112	; 0x70
    e708:	e3a0100d 	mov	r1, #13
    e70c:	e1a00003 	mov	r0, r3
    e710:	ebfffb1a 	bl	d380 <g>
    e714:	e1a03000 	mov	r3, r0
    e718:	e1a02003 	mov	r2, r3
    e71c:	e3063d7c 	movw	r3, #28028	; 0x6d7c
    e720:	e3403001 	movt	r3, #1
    e724:	e7933102 	ldr	r3, [r3, r2, lsl #2]
    e728:	e0244003 	eor	r4, r4, r3
    e72c:	e24b3070 	sub	r3, fp, #112	; 0x70
    e730:	e3a0100f 	mov	r1, #15
    e734:	e1a00003 	mov	r0, r3
    e738:	ebfffb10 	bl	d380 <g>
    e73c:	e1a03000 	mov	r3, r0
    e740:	e1a02003 	mov	r2, r3
    e744:	e307317c 	movw	r3, #29052	; 0x717c
    e748:	e3403001 	movt	r3, #1
    e74c:	e7933102 	ldr	r3, [r3, r2, lsl #2]
    e750:	e0244003 	eor	r4, r4, r3
    e754:	e24b3070 	sub	r3, fp, #112	; 0x70
    e758:	e3a0100c 	mov	r1, #12
    e75c:	e1a00003 	mov	r0, r3
    e760:	ebfffb06 	bl	d380 <g>
    e764:	e1a03000 	mov	r3, r0
    e768:	e1a02003 	mov	r2, r3
    e76c:	e307357c 	movw	r3, #30076	; 0x757c
    e770:	e3403001 	movt	r3, #1
    e774:	e7933102 	ldr	r3, [r3, r2, lsl #2]
    e778:	e0244003 	eor	r4, r4, r3
    e77c:	e24b3070 	sub	r3, fp, #112	; 0x70
    e780:	e3a0100e 	mov	r1, #14
    e784:	e1a00003 	mov	r0, r3
    e788:	ebfffafc 	bl	d380 <g>
    e78c:	e1a03000 	mov	r3, r0
    e790:	e1a02003 	mov	r2, r3
    e794:	e307397c 	movw	r3, #31100	; 0x797c
    e798:	e3403001 	movt	r3, #1
    e79c:	e7933102 	ldr	r3, [r3, r2, lsl #2]
    e7a0:	e0244003 	eor	r4, r4, r3
    e7a4:	e24b3070 	sub	r3, fp, #112	; 0x70
    e7a8:	e3a01008 	mov	r1, #8
    e7ac:	e1a00003 	mov	r0, r3
    e7b0:	ebfffaf2 	bl	d380 <g>
    e7b4:	e1a03000 	mov	r3, r0
    e7b8:	e1a02003 	mov	r2, r3
    e7bc:	e307357c 	movw	r3, #30076	; 0x757c
    e7c0:	e3403001 	movt	r3, #1
    e7c4:	e7933102 	ldr	r3, [r3, r2, lsl #2]
    e7c8:	e0233004 	eor	r3, r3, r4
    e7cc:	e50b3080 	str	r3, [fp, #-128]	; 0xffffff80
    e7d0:	e51b4068 	ldr	r4, [fp, #-104]	; 0xffffff98
    e7d4:	e24b3080 	sub	r3, fp, #128	; 0x80
    e7d8:	e3a01000 	mov	r1, #0
    e7dc:	e1a00003 	mov	r0, r3
    e7e0:	ebfffae6 	bl	d380 <g>
    e7e4:	e1a03000 	mov	r3, r0
    e7e8:	e1a02003 	mov	r2, r3
    e7ec:	e3063d7c 	movw	r3, #28028	; 0x6d7c
    e7f0:	e3403001 	movt	r3, #1
    e7f4:	e7933102 	ldr	r3, [r3, r2, lsl #2]
    e7f8:	e0244003 	eor	r4, r4, r3
    e7fc:	e24b3080 	sub	r3, fp, #128	; 0x80
    e800:	e3a01002 	mov	r1, #2
    e804:	e1a00003 	mov	r0, r3
    e808:	ebfffadc 	bl	d380 <g>
    e80c:	e1a03000 	mov	r3, r0
    e810:	e1a02003 	mov	r2, r3
    e814:	e307317c 	movw	r3, #29052	; 0x717c
    e818:	e3403001 	movt	r3, #1
    e81c:	e7933102 	ldr	r3, [r3, r2, lsl #2]
    e820:	e0244003 	eor	r4, r4, r3
    e824:	e24b3080 	sub	r3, fp, #128	; 0x80
    e828:	e3a01001 	mov	r1, #1
    e82c:	e1a00003 	mov	r0, r3
    e830:	ebfffad2 	bl	d380 <g>
    e834:	e1a03000 	mov	r3, r0
    e838:	e1a02003 	mov	r2, r3
    e83c:	e307357c 	movw	r3, #30076	; 0x757c
    e840:	e3403001 	movt	r3, #1
    e844:	e7933102 	ldr	r3, [r3, r2, lsl #2]
    e848:	e0244003 	eor	r4, r4, r3
    e84c:	e24b3080 	sub	r3, fp, #128	; 0x80
    e850:	e3a01003 	mov	r1, #3
    e854:	e1a00003 	mov	r0, r3
    e858:	ebfffac8 	bl	d380 <g>
    e85c:	e1a03000 	mov	r3, r0
    e860:	e1a02003 	mov	r2, r3
    e864:	e307397c 	movw	r3, #31100	; 0x797c
    e868:	e3403001 	movt	r3, #1
    e86c:	e7933102 	ldr	r3, [r3, r2, lsl #2]
    e870:	e0244003 	eor	r4, r4, r3
    e874:	e24b3070 	sub	r3, fp, #112	; 0x70
    e878:	e3a0100a 	mov	r1, #10
    e87c:	e1a00003 	mov	r0, r3
    e880:	ebfffabe 	bl	d380 <g>
    e884:	e1a03000 	mov	r3, r0
    e888:	e1a02003 	mov	r2, r3
    e88c:	e307397c 	movw	r3, #31100	; 0x797c
    e890:	e3403001 	movt	r3, #1
    e894:	e7933102 	ldr	r3, [r3, r2, lsl #2]
    e898:	e0233004 	eor	r3, r3, r4
    e89c:	e50b307c 	str	r3, [fp, #-124]	; 0xffffff84
    e8a0:	e51b4064 	ldr	r4, [fp, #-100]	; 0xffffff9c
    e8a4:	e24b3080 	sub	r3, fp, #128	; 0x80
    e8a8:	e3a01007 	mov	r1, #7
    e8ac:	e1a00003 	mov	r0, r3
    e8b0:	ebfffab2 	bl	d380 <g>
    e8b4:	e1a03000 	mov	r3, r0
    e8b8:	e1a02003 	mov	r2, r3
    e8bc:	e3063d7c 	movw	r3, #28028	; 0x6d7c
    e8c0:	e3403001 	movt	r3, #1
    e8c4:	e7933102 	ldr	r3, [r3, r2, lsl #2]
    e8c8:	e0244003 	eor	r4, r4, r3
    e8cc:	e24b3080 	sub	r3, fp, #128	; 0x80
    e8d0:	e3a01006 	mov	r1, #6
    e8d4:	e1a00003 	mov	r0, r3
    e8d8:	ebfffaa8 	bl	d380 <g>
    e8dc:	e1a03000 	mov	r3, r0
    e8e0:	e1a02003 	mov	r2, r3
    e8e4:	e307317c 	movw	r3, #29052	; 0x717c
    e8e8:	e3403001 	movt	r3, #1
    e8ec:	e7933102 	ldr	r3, [r3, r2, lsl #2]
    e8f0:	e0244003 	eor	r4, r4, r3
    e8f4:	e24b3080 	sub	r3, fp, #128	; 0x80
    e8f8:	e3a01005 	mov	r1, #5
    e8fc:	e1a00003 	mov	r0, r3
    e900:	ebfffa9e 	bl	d380 <g>
    e904:	e1a03000 	mov	r3, r0
    e908:	e1a02003 	mov	r2, r3
    e90c:	e307357c 	movw	r3, #30076	; 0x757c
    e910:	e3403001 	movt	r3, #1
    e914:	e7933102 	ldr	r3, [r3, r2, lsl #2]
    e918:	e0244003 	eor	r4, r4, r3
    e91c:	e24b3080 	sub	r3, fp, #128	; 0x80
    e920:	e3a01004 	mov	r1, #4
    e924:	e1a00003 	mov	r0, r3
    e928:	ebfffa94 	bl	d380 <g>
    e92c:	e1a03000 	mov	r3, r0
    e930:	e1a02003 	mov	r2, r3
    e934:	e307397c 	movw	r3, #31100	; 0x797c
    e938:	e3403001 	movt	r3, #1
    e93c:	e7933102 	ldr	r3, [r3, r2, lsl #2]
    e940:	e0244003 	eor	r4, r4, r3
    e944:	e24b3070 	sub	r3, fp, #112	; 0x70
    e948:	e3a01009 	mov	r1, #9
    e94c:	e1a00003 	mov	r0, r3
    e950:	ebfffa8a 	bl	d380 <g>
    e954:	e1a03000 	mov	r3, r0
    e958:	e1a02003 	mov	r2, r3
    e95c:	e3063d7c 	movw	r3, #28028	; 0x6d7c
    e960:	e3403001 	movt	r3, #1
    e964:	e7933102 	ldr	r3, [r3, r2, lsl #2]
    e968:	e0233004 	eor	r3, r3, r4
    e96c:	e50b3078 	str	r3, [fp, #-120]	; 0xffffff88
    e970:	e51b406c 	ldr	r4, [fp, #-108]	; 0xffffff94
    e974:	e24b3080 	sub	r3, fp, #128	; 0x80
    e978:	e3a0100a 	mov	r1, #10
    e97c:	e1a00003 	mov	r0, r3
    e980:	ebfffa7e 	bl	d380 <g>
    e984:	e1a03000 	mov	r3, r0
    e988:	e1a02003 	mov	r2, r3
    e98c:	e3063d7c 	movw	r3, #28028	; 0x6d7c
    e990:	e3403001 	movt	r3, #1
    e994:	e7933102 	ldr	r3, [r3, r2, lsl #2]
    e998:	e0244003 	eor	r4, r4, r3
    e99c:	e24b3080 	sub	r3, fp, #128	; 0x80
    e9a0:	e3a01009 	mov	r1, #9
    e9a4:	e1a00003 	mov	r0, r3
    e9a8:	ebfffa74 	bl	d380 <g>
    e9ac:	e1a03000 	mov	r3, r0
    e9b0:	e1a02003 	mov	r2, r3
    e9b4:	e307317c 	movw	r3, #29052	; 0x717c
    e9b8:	e3403001 	movt	r3, #1
    e9bc:	e7933102 	ldr	r3, [r3, r2, lsl #2]
    e9c0:	e0244003 	eor	r4, r4, r3
    e9c4:	e24b3080 	sub	r3, fp, #128	; 0x80
    e9c8:	e3a0100b 	mov	r1, #11
    e9cc:	e1a00003 	mov	r0, r3
    e9d0:	ebfffa6a 	bl	d380 <g>
    e9d4:	e1a03000 	mov	r3, r0
    e9d8:	e1a02003 	mov	r2, r3
    e9dc:	e307357c 	movw	r3, #30076	; 0x757c
    e9e0:	e3403001 	movt	r3, #1
    e9e4:	e7933102 	ldr	r3, [r3, r2, lsl #2]
    e9e8:	e0244003 	eor	r4, r4, r3
    e9ec:	e24b3080 	sub	r3, fp, #128	; 0x80
    e9f0:	e3a01008 	mov	r1, #8
    e9f4:	e1a00003 	mov	r0, r3
    e9f8:	ebfffa60 	bl	d380 <g>
    e9fc:	e1a03000 	mov	r3, r0
    ea00:	e1a02003 	mov	r2, r3
    ea04:	e307397c 	movw	r3, #31100	; 0x797c
    ea08:	e3403001 	movt	r3, #1
    ea0c:	e7933102 	ldr	r3, [r3, r2, lsl #2]
    ea10:	e0244003 	eor	r4, r4, r3
    ea14:	e24b3070 	sub	r3, fp, #112	; 0x70
    ea18:	e3a0100b 	mov	r1, #11
    ea1c:	e1a00003 	mov	r0, r3
    ea20:	ebfffa56 	bl	d380 <g>
    ea24:	e1a03000 	mov	r3, r0
    ea28:	e1a02003 	mov	r2, r3
    ea2c:	e307317c 	movw	r3, #29052	; 0x717c
    ea30:	e3403001 	movt	r3, #1
    ea34:	e7933102 	ldr	r3, [r3, r2, lsl #2]
    ea38:	e0233004 	eor	r3, r3, r4
    ea3c:	e50b3074 	str	r3, [fp, #-116]	; 0xffffff8c
    ea40:	e59b3008 	ldr	r3, [fp, #8]
    ea44:	e3530000 	cmp	r3, #0
    ea48:	0a000017 	beq	eaac <run+0x159c>
    ea4c:	e30500f4 	movw	r0, #20724	; 0x50f4
    ea50:	e3400001 	movt	r0, #1
    ea54:	eb001479 	bl	13c40 <tfp_printf>
    ea58:	e3a03000 	mov	r3, #0
    ea5c:	e50b303c 	str	r3, [fp, #-60]	; 0xffffffc4
    ea60:	ea00000b 	b	ea94 <run+0x1584>
    ea64:	e51b303c 	ldr	r3, [fp, #-60]	; 0xffffffc4
    ea68:	e1a03103 	lsl	r3, r3, #2
    ea6c:	e2433014 	sub	r3, r3, #20
    ea70:	e083300b 	add	r3, r3, fp
    ea74:	e513306c 	ldr	r3, [r3, #-108]	; 0xffffff94
    ea78:	e1a01003 	mov	r1, r3
    ea7c:	e3050080 	movw	r0, #20608	; 0x5080
    ea80:	e3400001 	movt	r0, #1
    ea84:	eb00146d 	bl	13c40 <tfp_printf>
    ea88:	e51b303c 	ldr	r3, [fp, #-60]	; 0xffffffc4
    ea8c:	e2833001 	add	r3, r3, #1
    ea90:	e50b303c 	str	r3, [fp, #-60]	; 0xffffffc4
    ea94:	e51b303c 	ldr	r3, [fp, #-60]	; 0xffffffc4
    ea98:	e3530003 	cmp	r3, #3
    ea9c:	dafffff0 	ble	ea64 <run+0x1554>
    eaa0:	e3040eec 	movw	r0, #20204	; 0x4eec
    eaa4:	e3400001 	movt	r0, #1
    eaa8:	eb001464 	bl	13c40 <tfp_printf>
    eaac:	e24b3080 	sub	r3, fp, #128	; 0x80
    eab0:	e3a01003 	mov	r1, #3
    eab4:	e1a00003 	mov	r0, r3
    eab8:	ebfffa30 	bl	d380 <g>
    eabc:	e1a03000 	mov	r3, r0
    eac0:	e1a02003 	mov	r2, r3
    eac4:	e3063d7c 	movw	r3, #28028	; 0x6d7c
    eac8:	e3403001 	movt	r3, #1
    eacc:	e7934102 	ldr	r4, [r3, r2, lsl #2]
    ead0:	e24b3080 	sub	r3, fp, #128	; 0x80
    ead4:	e3a01002 	mov	r1, #2
    ead8:	e1a00003 	mov	r0, r3
    eadc:	ebfffa27 	bl	d380 <g>
    eae0:	e1a03000 	mov	r3, r0
    eae4:	e1a02003 	mov	r2, r3
    eae8:	e307317c 	movw	r3, #29052	; 0x717c
    eaec:	e3403001 	movt	r3, #1
    eaf0:	e7933102 	ldr	r3, [r3, r2, lsl #2]
    eaf4:	e0244003 	eor	r4, r4, r3
    eaf8:	e24b3080 	sub	r3, fp, #128	; 0x80
    eafc:	e3a0100c 	mov	r1, #12
    eb00:	e1a00003 	mov	r0, r3
    eb04:	ebfffa1d 	bl	d380 <g>
    eb08:	e1a03000 	mov	r3, r0
    eb0c:	e1a02003 	mov	r2, r3
    eb10:	e307357c 	movw	r3, #30076	; 0x757c
    eb14:	e3403001 	movt	r3, #1
    eb18:	e7933102 	ldr	r3, [r3, r2, lsl #2]
    eb1c:	e0244003 	eor	r4, r4, r3
    eb20:	e24b3080 	sub	r3, fp, #128	; 0x80
    eb24:	e3a0100d 	mov	r1, #13
    eb28:	e1a00003 	mov	r0, r3
    eb2c:	ebfffa13 	bl	d380 <g>
    eb30:	e1a03000 	mov	r3, r0
    eb34:	e1a02003 	mov	r2, r3
    eb38:	e307397c 	movw	r3, #31100	; 0x797c
    eb3c:	e3403001 	movt	r3, #1
    eb40:	e7933102 	ldr	r3, [r3, r2, lsl #2]
    eb44:	e0244003 	eor	r4, r4, r3
    eb48:	e24b3080 	sub	r3, fp, #128	; 0x80
    eb4c:	e3a01009 	mov	r1, #9
    eb50:	e1a00003 	mov	r0, r3
    eb54:	ebfffa09 	bl	d380 <g>
    eb58:	e1a03000 	mov	r3, r0
    eb5c:	e1a02003 	mov	r2, r3
    eb60:	e3063d7c 	movw	r3, #28028	; 0x6d7c
    eb64:	e3403001 	movt	r3, #1
    eb68:	e7932102 	ldr	r2, [r3, r2, lsl #2]
    eb6c:	e51b301c 	ldr	r3, [fp, #-28]	; 0xffffffe4
    eb70:	e1a03203 	lsl	r3, r3, #4
    eb74:	e2833008 	add	r3, r3, #8
    eb78:	e0222004 	eor	r2, r2, r4
    eb7c:	e1a03103 	lsl	r3, r3, #2
    eb80:	e2433014 	sub	r3, r3, #20
    eb84:	e083300b 	add	r3, r3, fp
    eb88:	e50320ec 	str	r2, [r3, #-236]	; 0xffffff14
    eb8c:	e24b3080 	sub	r3, fp, #128	; 0x80
    eb90:	e3a01001 	mov	r1, #1
    eb94:	e1a00003 	mov	r0, r3
    eb98:	ebfff9f8 	bl	d380 <g>
    eb9c:	e1a03000 	mov	r3, r0
    eba0:	e1a02003 	mov	r2, r3
    eba4:	e3063d7c 	movw	r3, #28028	; 0x6d7c
    eba8:	e3403001 	movt	r3, #1
    ebac:	e7934102 	ldr	r4, [r3, r2, lsl #2]
    ebb0:	e24b3080 	sub	r3, fp, #128	; 0x80
    ebb4:	e3a01000 	mov	r1, #0
    ebb8:	e1a00003 	mov	r0, r3
    ebbc:	ebfff9ef 	bl	d380 <g>
    ebc0:	e1a03000 	mov	r3, r0
    ebc4:	e1a02003 	mov	r2, r3
    ebc8:	e307317c 	movw	r3, #29052	; 0x717c
    ebcc:	e3403001 	movt	r3, #1
    ebd0:	e7933102 	ldr	r3, [r3, r2, lsl #2]
    ebd4:	e0244003 	eor	r4, r4, r3
    ebd8:	e24b3080 	sub	r3, fp, #128	; 0x80
    ebdc:	e3a0100e 	mov	r1, #14
    ebe0:	e1a00003 	mov	r0, r3
    ebe4:	ebfff9e5 	bl	d380 <g>
    ebe8:	e1a03000 	mov	r3, r0
    ebec:	e1a02003 	mov	r2, r3
    ebf0:	e307357c 	movw	r3, #30076	; 0x757c
    ebf4:	e3403001 	movt	r3, #1
    ebf8:	e7933102 	ldr	r3, [r3, r2, lsl #2]
    ebfc:	e0244003 	eor	r4, r4, r3
    ec00:	e24b3080 	sub	r3, fp, #128	; 0x80
    ec04:	e3a0100f 	mov	r1, #15
    ec08:	e1a00003 	mov	r0, r3
    ec0c:	ebfff9db 	bl	d380 <g>
    ec10:	e1a03000 	mov	r3, r0
    ec14:	e1a02003 	mov	r2, r3
    ec18:	e307397c 	movw	r3, #31100	; 0x797c
    ec1c:	e3403001 	movt	r3, #1
    ec20:	e7933102 	ldr	r3, [r3, r2, lsl #2]
    ec24:	e0244003 	eor	r4, r4, r3
    ec28:	e24b3080 	sub	r3, fp, #128	; 0x80
    ec2c:	e3a0100c 	mov	r1, #12
    ec30:	e1a00003 	mov	r0, r3
    ec34:	ebfff9d1 	bl	d380 <g>
    ec38:	e1a03000 	mov	r3, r0
    ec3c:	e1a02003 	mov	r2, r3
    ec40:	e307317c 	movw	r3, #29052	; 0x717c
    ec44:	e3403001 	movt	r3, #1
    ec48:	e7932102 	ldr	r2, [r3, r2, lsl #2]
    ec4c:	e51b301c 	ldr	r3, [fp, #-28]	; 0xffffffe4
    ec50:	e1a03203 	lsl	r3, r3, #4
    ec54:	e2833009 	add	r3, r3, #9
    ec58:	e0222004 	eor	r2, r2, r4
    ec5c:	e1a03103 	lsl	r3, r3, #2
    ec60:	e2433014 	sub	r3, r3, #20
    ec64:	e083300b 	add	r3, r3, fp
    ec68:	e50320ec 	str	r2, [r3, #-236]	; 0xffffff14
    ec6c:	e24b3080 	sub	r3, fp, #128	; 0x80
    ec70:	e3a01007 	mov	r1, #7
    ec74:	e1a00003 	mov	r0, r3
    ec78:	ebfff9c0 	bl	d380 <g>
    ec7c:	e1a03000 	mov	r3, r0
    ec80:	e1a02003 	mov	r2, r3
    ec84:	e3063d7c 	movw	r3, #28028	; 0x6d7c
    ec88:	e3403001 	movt	r3, #1
    ec8c:	e7934102 	ldr	r4, [r3, r2, lsl #2]
    ec90:	e24b3080 	sub	r3, fp, #128	; 0x80
    ec94:	e3a01006 	mov	r1, #6
    ec98:	e1a00003 	mov	r0, r3
    ec9c:	ebfff9b7 	bl	d380 <g>
    eca0:	e1a03000 	mov	r3, r0
    eca4:	e1a02003 	mov	r2, r3
    eca8:	e307317c 	movw	r3, #29052	; 0x717c
    ecac:	e3403001 	movt	r3, #1
    ecb0:	e7933102 	ldr	r3, [r3, r2, lsl #2]
    ecb4:	e0244003 	eor	r4, r4, r3
    ecb8:	e24b3080 	sub	r3, fp, #128	; 0x80
    ecbc:	e3a01008 	mov	r1, #8
    ecc0:	e1a00003 	mov	r0, r3
    ecc4:	ebfff9ad 	bl	d380 <g>
    ecc8:	e1a03000 	mov	r3, r0
    eccc:	e1a02003 	mov	r2, r3
    ecd0:	e307357c 	movw	r3, #30076	; 0x757c
    ecd4:	e3403001 	movt	r3, #1
    ecd8:	e7933102 	ldr	r3, [r3, r2, lsl #2]
    ecdc:	e0244003 	eor	r4, r4, r3
    ece0:	e24b3080 	sub	r3, fp, #128	; 0x80
    ece4:	e3a01009 	mov	r1, #9
    ece8:	e1a00003 	mov	r0, r3
    ecec:	ebfff9a3 	bl	d380 <g>
    ecf0:	e1a03000 	mov	r3, r0
    ecf4:	e1a02003 	mov	r2, r3
    ecf8:	e307397c 	movw	r3, #31100	; 0x797c
    ecfc:	e3403001 	movt	r3, #1
    ed00:	e7933102 	ldr	r3, [r3, r2, lsl #2]
    ed04:	e0244003 	eor	r4, r4, r3
    ed08:	e24b3080 	sub	r3, fp, #128	; 0x80
    ed0c:	e3a01002 	mov	r1, #2
    ed10:	e1a00003 	mov	r0, r3
    ed14:	ebfff999 	bl	d380 <g>
    ed18:	e1a03000 	mov	r3, r0
    ed1c:	e1a02003 	mov	r2, r3
    ed20:	e307357c 	movw	r3, #30076	; 0x757c
    ed24:	e3403001 	movt	r3, #1
    ed28:	e7932102 	ldr	r2, [r3, r2, lsl #2]
    ed2c:	e51b301c 	ldr	r3, [fp, #-28]	; 0xffffffe4
    ed30:	e1a03203 	lsl	r3, r3, #4
    ed34:	e283300a 	add	r3, r3, #10
    ed38:	e0222004 	eor	r2, r2, r4
    ed3c:	e1a03103 	lsl	r3, r3, #2
    ed40:	e2433014 	sub	r3, r3, #20
    ed44:	e083300b 	add	r3, r3, fp
    ed48:	e50320ec 	str	r2, [r3, #-236]	; 0xffffff14
    ed4c:	e24b3080 	sub	r3, fp, #128	; 0x80
    ed50:	e3a01005 	mov	r1, #5
    ed54:	e1a00003 	mov	r0, r3
    ed58:	ebfff988 	bl	d380 <g>
    ed5c:	e1a03000 	mov	r3, r0
    ed60:	e1a02003 	mov	r2, r3
    ed64:	e3063d7c 	movw	r3, #28028	; 0x6d7c
    ed68:	e3403001 	movt	r3, #1
    ed6c:	e7934102 	ldr	r4, [r3, r2, lsl #2]
    ed70:	e24b3080 	sub	r3, fp, #128	; 0x80
    ed74:	e3a01004 	mov	r1, #4
    ed78:	e1a00003 	mov	r0, r3
    ed7c:	ebfff97f 	bl	d380 <g>
    ed80:	e1a03000 	mov	r3, r0
    ed84:	e1a02003 	mov	r2, r3
    ed88:	e307317c 	movw	r3, #29052	; 0x717c
    ed8c:	e3403001 	movt	r3, #1
    ed90:	e7933102 	ldr	r3, [r3, r2, lsl #2]
    ed94:	e0244003 	eor	r4, r4, r3
    ed98:	e24b3080 	sub	r3, fp, #128	; 0x80
    ed9c:	e3a0100a 	mov	r1, #10
    eda0:	e1a00003 	mov	r0, r3
    eda4:	ebfff975 	bl	d380 <g>
    eda8:	e1a03000 	mov	r3, r0
    edac:	e1a02003 	mov	r2, r3
    edb0:	e307357c 	movw	r3, #30076	; 0x757c
    edb4:	e3403001 	movt	r3, #1
    edb8:	e7933102 	ldr	r3, [r3, r2, lsl #2]
    edbc:	e0244003 	eor	r4, r4, r3
    edc0:	e24b3080 	sub	r3, fp, #128	; 0x80
    edc4:	e3a0100b 	mov	r1, #11
    edc8:	e1a00003 	mov	r0, r3
    edcc:	ebfff96b 	bl	d380 <g>
    edd0:	e1a03000 	mov	r3, r0
    edd4:	e1a02003 	mov	r2, r3
    edd8:	e307397c 	movw	r3, #31100	; 0x797c
    eddc:	e3403001 	movt	r3, #1
    ede0:	e7933102 	ldr	r3, [r3, r2, lsl #2]
    ede4:	e0244003 	eor	r4, r4, r3
    ede8:	e24b3080 	sub	r3, fp, #128	; 0x80
    edec:	e3a01006 	mov	r1, #6
    edf0:	e1a00003 	mov	r0, r3
    edf4:	ebfff961 	bl	d380 <g>
    edf8:	e1a03000 	mov	r3, r0
    edfc:	e1a02003 	mov	r2, r3
    ee00:	e307397c 	movw	r3, #31100	; 0x797c
    ee04:	e3403001 	movt	r3, #1
    ee08:	e7932102 	ldr	r2, [r3, r2, lsl #2]
    ee0c:	e51b301c 	ldr	r3, [fp, #-28]	; 0xffffffe4
    ee10:	e1a03203 	lsl	r3, r3, #4
    ee14:	e283300b 	add	r3, r3, #11
    ee18:	e0222004 	eor	r2, r2, r4
    ee1c:	e1a03103 	lsl	r3, r3, #2
    ee20:	e2433014 	sub	r3, r3, #20
    ee24:	e083300b 	add	r3, r3, fp
    ee28:	e50320ec 	str	r2, [r3, #-236]	; 0xffffff14
    ee2c:	e59b3008 	ldr	r3, [fp, #8]
    ee30:	e3530000 	cmp	r3, #0
    ee34:	0a000021 	beq	eec0 <run+0x19b0>
    ee38:	e51b301c 	ldr	r3, [fp, #-28]	; 0xffffffe4
    ee3c:	e1a03203 	lsl	r3, r3, #4
    ee40:	e2831008 	add	r1, r3, #8
    ee44:	e51b301c 	ldr	r3, [fp, #-28]	; 0xffffffe4
    ee48:	e1a03203 	lsl	r3, r3, #4
    ee4c:	e283300b 	add	r3, r3, #11
    ee50:	e1a02003 	mov	r2, r3
    ee54:	e30500b4 	movw	r0, #20660	; 0x50b4
    ee58:	e3400001 	movt	r0, #1
    ee5c:	eb001377 	bl	13c40 <tfp_printf>
    ee60:	e3a03008 	mov	r3, #8
    ee64:	e50b3040 	str	r3, [fp, #-64]	; 0xffffffc0
    ee68:	ea00000e 	b	eea8 <run+0x1998>
    ee6c:	e51b301c 	ldr	r3, [fp, #-28]	; 0xffffffe4
    ee70:	e1a02203 	lsl	r2, r3, #4
    ee74:	e51b3040 	ldr	r3, [fp, #-64]	; 0xffffffc0
    ee78:	e0823003 	add	r3, r2, r3
    ee7c:	e1a03103 	lsl	r3, r3, #2
    ee80:	e2433014 	sub	r3, r3, #20
    ee84:	e083300b 	add	r3, r3, fp
    ee88:	e51330ec 	ldr	r3, [r3, #-236]	; 0xffffff14
    ee8c:	e1a01003 	mov	r1, r3
    ee90:	e3050080 	movw	r0, #20608	; 0x5080
    ee94:	e3400001 	movt	r0, #1
    ee98:	eb001368 	bl	13c40 <tfp_printf>
    ee9c:	e51b3040 	ldr	r3, [fp, #-64]	; 0xffffffc0
    eea0:	e2833001 	add	r3, r3, #1
    eea4:	e50b3040 	str	r3, [fp, #-64]	; 0xffffffc0
    eea8:	e51b3040 	ldr	r3, [fp, #-64]	; 0xffffffc0
    eeac:	e353000b 	cmp	r3, #11
    eeb0:	daffffed 	ble	ee6c <run+0x195c>
    eeb4:	e3040eec 	movw	r0, #20204	; 0x4eec
    eeb8:	e3400001 	movt	r0, #1
    eebc:	eb00135f 	bl	13c40 <tfp_printf>
    eec0:	e51b4078 	ldr	r4, [fp, #-120]	; 0xffffff88
    eec4:	e24b3080 	sub	r3, fp, #128	; 0x80
    eec8:	e3a01005 	mov	r1, #5
    eecc:	e1a00003 	mov	r0, r3
    eed0:	ebfff92a 	bl	d380 <g>
    eed4:	e1a03000 	mov	r3, r0
    eed8:	e1a02003 	mov	r2, r3
    eedc:	e3063d7c 	movw	r3, #28028	; 0x6d7c
    eee0:	e3403001 	movt	r3, #1
    eee4:	e7933102 	ldr	r3, [r3, r2, lsl #2]
    eee8:	e0244003 	eor	r4, r4, r3
    eeec:	e24b3080 	sub	r3, fp, #128	; 0x80
    eef0:	e3a01007 	mov	r1, #7
    eef4:	e1a00003 	mov	r0, r3
    eef8:	ebfff920 	bl	d380 <g>
    eefc:	e1a03000 	mov	r3, r0
    ef00:	e1a02003 	mov	r2, r3
    ef04:	e307317c 	movw	r3, #29052	; 0x717c
    ef08:	e3403001 	movt	r3, #1
    ef0c:	e7933102 	ldr	r3, [r3, r2, lsl #2]
    ef10:	e0244003 	eor	r4, r4, r3
    ef14:	e24b3080 	sub	r3, fp, #128	; 0x80
    ef18:	e3a01004 	mov	r1, #4
    ef1c:	e1a00003 	mov	r0, r3
    ef20:	ebfff916 	bl	d380 <g>
    ef24:	e1a03000 	mov	r3, r0
    ef28:	e1a02003 	mov	r2, r3
    ef2c:	e307357c 	movw	r3, #30076	; 0x757c
    ef30:	e3403001 	movt	r3, #1
    ef34:	e7933102 	ldr	r3, [r3, r2, lsl #2]
    ef38:	e0244003 	eor	r4, r4, r3
    ef3c:	e24b3080 	sub	r3, fp, #128	; 0x80
    ef40:	e3a01006 	mov	r1, #6
    ef44:	e1a00003 	mov	r0, r3
    ef48:	ebfff90c 	bl	d380 <g>
    ef4c:	e1a03000 	mov	r3, r0
    ef50:	e1a02003 	mov	r2, r3
    ef54:	e307397c 	movw	r3, #31100	; 0x797c
    ef58:	e3403001 	movt	r3, #1
    ef5c:	e7933102 	ldr	r3, [r3, r2, lsl #2]
    ef60:	e0244003 	eor	r4, r4, r3
    ef64:	e24b3080 	sub	r3, fp, #128	; 0x80
    ef68:	e3a01000 	mov	r1, #0
    ef6c:	e1a00003 	mov	r0, r3
    ef70:	ebfff902 	bl	d380 <g>
    ef74:	e1a03000 	mov	r3, r0
    ef78:	e1a02003 	mov	r2, r3
    ef7c:	e307357c 	movw	r3, #30076	; 0x757c
    ef80:	e3403001 	movt	r3, #1
    ef84:	e7933102 	ldr	r3, [r3, r2, lsl #2]
    ef88:	e0233004 	eor	r3, r3, r4
    ef8c:	e50b3070 	str	r3, [fp, #-112]	; 0xffffff90
    ef90:	e51b4080 	ldr	r4, [fp, #-128]	; 0xffffff80
    ef94:	e24b3070 	sub	r3, fp, #112	; 0x70
    ef98:	e3a01000 	mov	r1, #0
    ef9c:	e1a00003 	mov	r0, r3
    efa0:	ebfff8f6 	bl	d380 <g>
    efa4:	e1a03000 	mov	r3, r0
    efa8:	e1a02003 	mov	r2, r3
    efac:	e3063d7c 	movw	r3, #28028	; 0x6d7c
    efb0:	e3403001 	movt	r3, #1
    efb4:	e7933102 	ldr	r3, [r3, r2, lsl #2]
    efb8:	e0244003 	eor	r4, r4, r3
    efbc:	e24b3070 	sub	r3, fp, #112	; 0x70
    efc0:	e3a01002 	mov	r1, #2
    efc4:	e1a00003 	mov	r0, r3
    efc8:	ebfff8ec 	bl	d380 <g>
    efcc:	e1a03000 	mov	r3, r0
    efd0:	e1a02003 	mov	r2, r3
    efd4:	e307317c 	movw	r3, #29052	; 0x717c
    efd8:	e3403001 	movt	r3, #1
    efdc:	e7933102 	ldr	r3, [r3, r2, lsl #2]
    efe0:	e0244003 	eor	r4, r4, r3
    efe4:	e24b3070 	sub	r3, fp, #112	; 0x70
    efe8:	e3a01001 	mov	r1, #1
    efec:	e1a00003 	mov	r0, r3
    eff0:	ebfff8e2 	bl	d380 <g>
    eff4:	e1a03000 	mov	r3, r0
    eff8:	e1a02003 	mov	r2, r3
    effc:	e307357c 	movw	r3, #30076	; 0x757c
    f000:	e3403001 	movt	r3, #1
    f004:	e7933102 	ldr	r3, [r3, r2, lsl #2]
    f008:	e0244003 	eor	r4, r4, r3
    f00c:	e24b3070 	sub	r3, fp, #112	; 0x70
    f010:	e3a01003 	mov	r1, #3
    f014:	e1a00003 	mov	r0, r3
    f018:	ebfff8d8 	bl	d380 <g>
    f01c:	e1a03000 	mov	r3, r0
    f020:	e1a02003 	mov	r2, r3
    f024:	e307397c 	movw	r3, #31100	; 0x797c
    f028:	e3403001 	movt	r3, #1
    f02c:	e7933102 	ldr	r3, [r3, r2, lsl #2]
    f030:	e0244003 	eor	r4, r4, r3
    f034:	e24b3080 	sub	r3, fp, #128	; 0x80
    f038:	e3a01002 	mov	r1, #2
    f03c:	e1a00003 	mov	r0, r3
    f040:	ebfff8ce 	bl	d380 <g>
    f044:	e1a03000 	mov	r3, r0
    f048:	e1a02003 	mov	r2, r3
    f04c:	e307397c 	movw	r3, #31100	; 0x797c
    f050:	e3403001 	movt	r3, #1
    f054:	e7933102 	ldr	r3, [r3, r2, lsl #2]
    f058:	e0233004 	eor	r3, r3, r4
    f05c:	e50b306c 	str	r3, [fp, #-108]	; 0xffffff94
    f060:	e51b407c 	ldr	r4, [fp, #-124]	; 0xffffff84
    f064:	e24b3070 	sub	r3, fp, #112	; 0x70
    f068:	e3a01007 	mov	r1, #7
    f06c:	e1a00003 	mov	r0, r3
    f070:	ebfff8c2 	bl	d380 <g>
    f074:	e1a03000 	mov	r3, r0
    f078:	e1a02003 	mov	r2, r3
    f07c:	e3063d7c 	movw	r3, #28028	; 0x6d7c
    f080:	e3403001 	movt	r3, #1
    f084:	e7933102 	ldr	r3, [r3, r2, lsl #2]
    f088:	e0244003 	eor	r4, r4, r3
    f08c:	e24b3070 	sub	r3, fp, #112	; 0x70
    f090:	e3a01006 	mov	r1, #6
    f094:	e1a00003 	mov	r0, r3
    f098:	ebfff8b8 	bl	d380 <g>
    f09c:	e1a03000 	mov	r3, r0
    f0a0:	e1a02003 	mov	r2, r3
    f0a4:	e307317c 	movw	r3, #29052	; 0x717c
    f0a8:	e3403001 	movt	r3, #1
    f0ac:	e7933102 	ldr	r3, [r3, r2, lsl #2]
    f0b0:	e0244003 	eor	r4, r4, r3
    f0b4:	e24b3070 	sub	r3, fp, #112	; 0x70
    f0b8:	e3a01005 	mov	r1, #5
    f0bc:	e1a00003 	mov	r0, r3
    f0c0:	ebfff8ae 	bl	d380 <g>
    f0c4:	e1a03000 	mov	r3, r0
    f0c8:	e1a02003 	mov	r2, r3
    f0cc:	e307357c 	movw	r3, #30076	; 0x757c
    f0d0:	e3403001 	movt	r3, #1
    f0d4:	e7933102 	ldr	r3, [r3, r2, lsl #2]
    f0d8:	e0244003 	eor	r4, r4, r3
    f0dc:	e24b3070 	sub	r3, fp, #112	; 0x70
    f0e0:	e3a01004 	mov	r1, #4
    f0e4:	e1a00003 	mov	r0, r3
    f0e8:	ebfff8a4 	bl	d380 <g>
    f0ec:	e1a03000 	mov	r3, r0
    f0f0:	e1a02003 	mov	r2, r3
    f0f4:	e307397c 	movw	r3, #31100	; 0x797c
    f0f8:	e3403001 	movt	r3, #1
    f0fc:	e7933102 	ldr	r3, [r3, r2, lsl #2]
    f100:	e0244003 	eor	r4, r4, r3
    f104:	e24b3080 	sub	r3, fp, #128	; 0x80
    f108:	e3a01001 	mov	r1, #1
    f10c:	e1a00003 	mov	r0, r3
    f110:	ebfff89a 	bl	d380 <g>
    f114:	e1a03000 	mov	r3, r0
    f118:	e1a02003 	mov	r2, r3
    f11c:	e3063d7c 	movw	r3, #28028	; 0x6d7c
    f120:	e3403001 	movt	r3, #1
    f124:	e7933102 	ldr	r3, [r3, r2, lsl #2]
    f128:	e0233004 	eor	r3, r3, r4
    f12c:	e50b3068 	str	r3, [fp, #-104]	; 0xffffff98
    f130:	e51b4074 	ldr	r4, [fp, #-116]	; 0xffffff8c
    f134:	e24b3070 	sub	r3, fp, #112	; 0x70
    f138:	e3a0100a 	mov	r1, #10
    f13c:	e1a00003 	mov	r0, r3
    f140:	ebfff88e 	bl	d380 <g>
    f144:	e1a03000 	mov	r3, r0
    f148:	e1a02003 	mov	r2, r3
    f14c:	e3063d7c 	movw	r3, #28028	; 0x6d7c
    f150:	e3403001 	movt	r3, #1
    f154:	e7933102 	ldr	r3, [r3, r2, lsl #2]
    f158:	e0244003 	eor	r4, r4, r3
    f15c:	e24b3070 	sub	r3, fp, #112	; 0x70
    f160:	e3a01009 	mov	r1, #9
    f164:	e1a00003 	mov	r0, r3
    f168:	ebfff884 	bl	d380 <g>
    f16c:	e1a03000 	mov	r3, r0
    f170:	e1a02003 	mov	r2, r3
    f174:	e307317c 	movw	r3, #29052	; 0x717c
    f178:	e3403001 	movt	r3, #1
    f17c:	e7933102 	ldr	r3, [r3, r2, lsl #2]
    f180:	e0244003 	eor	r4, r4, r3
    f184:	e24b3070 	sub	r3, fp, #112	; 0x70
    f188:	e3a0100b 	mov	r1, #11
    f18c:	e1a00003 	mov	r0, r3
    f190:	ebfff87a 	bl	d380 <g>
    f194:	e1a03000 	mov	r3, r0
    f198:	e1a02003 	mov	r2, r3
    f19c:	e307357c 	movw	r3, #30076	; 0x757c
    f1a0:	e3403001 	movt	r3, #1
    f1a4:	e7933102 	ldr	r3, [r3, r2, lsl #2]
    f1a8:	e0244003 	eor	r4, r4, r3
    f1ac:	e24b3070 	sub	r3, fp, #112	; 0x70
    f1b0:	e3a01008 	mov	r1, #8
    f1b4:	e1a00003 	mov	r0, r3
    f1b8:	ebfff870 	bl	d380 <g>
    f1bc:	e1a03000 	mov	r3, r0
    f1c0:	e1a02003 	mov	r2, r3
    f1c4:	e307397c 	movw	r3, #31100	; 0x797c
    f1c8:	e3403001 	movt	r3, #1
    f1cc:	e7933102 	ldr	r3, [r3, r2, lsl #2]
    f1d0:	e0244003 	eor	r4, r4, r3
    f1d4:	e24b3080 	sub	r3, fp, #128	; 0x80
    f1d8:	e3a01003 	mov	r1, #3
    f1dc:	e1a00003 	mov	r0, r3
    f1e0:	ebfff866 	bl	d380 <g>
    f1e4:	e1a03000 	mov	r3, r0
    f1e8:	e1a02003 	mov	r2, r3
    f1ec:	e307317c 	movw	r3, #29052	; 0x717c
    f1f0:	e3403001 	movt	r3, #1
    f1f4:	e7933102 	ldr	r3, [r3, r2, lsl #2]
    f1f8:	e0233004 	eor	r3, r3, r4
    f1fc:	e50b3064 	str	r3, [fp, #-100]	; 0xffffff9c
    f200:	e59b3008 	ldr	r3, [fp, #8]
    f204:	e3530000 	cmp	r3, #0
    f208:	0a000017 	beq	f26c <run+0x1d5c>
    f20c:	e3050108 	movw	r0, #20744	; 0x5108
    f210:	e3400001 	movt	r0, #1
    f214:	eb001289 	bl	13c40 <tfp_printf>
    f218:	e3a03000 	mov	r3, #0
    f21c:	e50b3044 	str	r3, [fp, #-68]	; 0xffffffbc
    f220:	ea00000b 	b	f254 <run+0x1d44>
    f224:	e51b3044 	ldr	r3, [fp, #-68]	; 0xffffffbc
    f228:	e1a03103 	lsl	r3, r3, #2
    f22c:	e2433014 	sub	r3, r3, #20
    f230:	e083300b 	add	r3, r3, fp
    f234:	e513305c 	ldr	r3, [r3, #-92]	; 0xffffffa4
    f238:	e1a01003 	mov	r1, r3
    f23c:	e3050080 	movw	r0, #20608	; 0x5080
    f240:	e3400001 	movt	r0, #1
    f244:	eb00127d 	bl	13c40 <tfp_printf>
    f248:	e51b3044 	ldr	r3, [fp, #-68]	; 0xffffffbc
    f24c:	e2833001 	add	r3, r3, #1
    f250:	e50b3044 	str	r3, [fp, #-68]	; 0xffffffbc
    f254:	e51b3044 	ldr	r3, [fp, #-68]	; 0xffffffbc
    f258:	e3530003 	cmp	r3, #3
    f25c:	dafffff0 	ble	f224 <run+0x1d14>
    f260:	e3040eec 	movw	r0, #20204	; 0x4eec
    f264:	e3400001 	movt	r0, #1
    f268:	eb001274 	bl	13c40 <tfp_printf>
    f26c:	e24b3070 	sub	r3, fp, #112	; 0x70
    f270:	e3a01008 	mov	r1, #8
    f274:	e1a00003 	mov	r0, r3
    f278:	ebfff840 	bl	d380 <g>
    f27c:	e1a03000 	mov	r3, r0
    f280:	e1a02003 	mov	r2, r3
    f284:	e3063d7c 	movw	r3, #28028	; 0x6d7c
    f288:	e3403001 	movt	r3, #1
    f28c:	e7934102 	ldr	r4, [r3, r2, lsl #2]
    f290:	e24b3070 	sub	r3, fp, #112	; 0x70
    f294:	e3a01009 	mov	r1, #9
    f298:	e1a00003 	mov	r0, r3
    f29c:	ebfff837 	bl	d380 <g>
    f2a0:	e1a03000 	mov	r3, r0
    f2a4:	e1a02003 	mov	r2, r3
    f2a8:	e307317c 	movw	r3, #29052	; 0x717c
    f2ac:	e3403001 	movt	r3, #1
    f2b0:	e7933102 	ldr	r3, [r3, r2, lsl #2]
    f2b4:	e0244003 	eor	r4, r4, r3
    f2b8:	e24b3070 	sub	r3, fp, #112	; 0x70
    f2bc:	e3a01007 	mov	r1, #7
    f2c0:	e1a00003 	mov	r0, r3
    f2c4:	ebfff82d 	bl	d380 <g>
    f2c8:	e1a03000 	mov	r3, r0
    f2cc:	e1a02003 	mov	r2, r3
    f2d0:	e307357c 	movw	r3, #30076	; 0x757c
    f2d4:	e3403001 	movt	r3, #1
    f2d8:	e7933102 	ldr	r3, [r3, r2, lsl #2]
    f2dc:	e0244003 	eor	r4, r4, r3
    f2e0:	e24b3070 	sub	r3, fp, #112	; 0x70
    f2e4:	e3a01006 	mov	r1, #6
    f2e8:	e1a00003 	mov	r0, r3
    f2ec:	ebfff823 	bl	d380 <g>
    f2f0:	e1a03000 	mov	r3, r0
    f2f4:	e1a02003 	mov	r2, r3
    f2f8:	e307397c 	movw	r3, #31100	; 0x797c
    f2fc:	e3403001 	movt	r3, #1
    f300:	e7933102 	ldr	r3, [r3, r2, lsl #2]
    f304:	e0244003 	eor	r4, r4, r3
    f308:	e24b3070 	sub	r3, fp, #112	; 0x70
    f30c:	e3a01003 	mov	r1, #3
    f310:	e1a00003 	mov	r0, r3
    f314:	ebfff819 	bl	d380 <g>
    f318:	e1a03000 	mov	r3, r0
    f31c:	e1a02003 	mov	r2, r3
    f320:	e3063d7c 	movw	r3, #28028	; 0x6d7c
    f324:	e3403001 	movt	r3, #1
    f328:	e7932102 	ldr	r2, [r3, r2, lsl #2]
    f32c:	e51b301c 	ldr	r3, [fp, #-28]	; 0xffffffe4
    f330:	e1a03203 	lsl	r3, r3, #4
    f334:	e283300c 	add	r3, r3, #12
    f338:	e0222004 	eor	r2, r2, r4
    f33c:	e1a03103 	lsl	r3, r3, #2
    f340:	e2433014 	sub	r3, r3, #20
    f344:	e083300b 	add	r3, r3, fp
    f348:	e50320ec 	str	r2, [r3, #-236]	; 0xffffff14
    f34c:	e24b3070 	sub	r3, fp, #112	; 0x70
    f350:	e3a0100a 	mov	r1, #10
    f354:	e1a00003 	mov	r0, r3
    f358:	ebfff808 	bl	d380 <g>
    f35c:	e1a03000 	mov	r3, r0
    f360:	e1a02003 	mov	r2, r3
    f364:	e3063d7c 	movw	r3, #28028	; 0x6d7c
    f368:	e3403001 	movt	r3, #1
    f36c:	e7934102 	ldr	r4, [r3, r2, lsl #2]
    f370:	e24b3070 	sub	r3, fp, #112	; 0x70
    f374:	e3a0100b 	mov	r1, #11
    f378:	e1a00003 	mov	r0, r3
    f37c:	ebfff7ff 	bl	d380 <g>
    f380:	e1a03000 	mov	r3, r0
    f384:	e1a02003 	mov	r2, r3
    f388:	e307317c 	movw	r3, #29052	; 0x717c
    f38c:	e3403001 	movt	r3, #1
    f390:	e7933102 	ldr	r3, [r3, r2, lsl #2]
    f394:	e0244003 	eor	r4, r4, r3
    f398:	e24b3070 	sub	r3, fp, #112	; 0x70
    f39c:	e3a01005 	mov	r1, #5
    f3a0:	e1a00003 	mov	r0, r3
    f3a4:	ebfff7f5 	bl	d380 <g>
    f3a8:	e1a03000 	mov	r3, r0
    f3ac:	e1a02003 	mov	r2, r3
    f3b0:	e307357c 	movw	r3, #30076	; 0x757c
    f3b4:	e3403001 	movt	r3, #1
    f3b8:	e7933102 	ldr	r3, [r3, r2, lsl #2]
    f3bc:	e0244003 	eor	r4, r4, r3
    f3c0:	e24b3070 	sub	r3, fp, #112	; 0x70
    f3c4:	e3a01004 	mov	r1, #4
    f3c8:	e1a00003 	mov	r0, r3
    f3cc:	ebfff7eb 	bl	d380 <g>
    f3d0:	e1a03000 	mov	r3, r0
    f3d4:	e1a02003 	mov	r2, r3
    f3d8:	e307397c 	movw	r3, #31100	; 0x797c
    f3dc:	e3403001 	movt	r3, #1
    f3e0:	e7933102 	ldr	r3, [r3, r2, lsl #2]
    f3e4:	e0244003 	eor	r4, r4, r3
    f3e8:	e24b3070 	sub	r3, fp, #112	; 0x70
    f3ec:	e3a01007 	mov	r1, #7
    f3f0:	e1a00003 	mov	r0, r3
    f3f4:	ebfff7e1 	bl	d380 <g>
    f3f8:	e1a03000 	mov	r3, r0
    f3fc:	e1a02003 	mov	r2, r3
    f400:	e307317c 	movw	r3, #29052	; 0x717c
    f404:	e3403001 	movt	r3, #1
    f408:	e7932102 	ldr	r2, [r3, r2, lsl #2]
    f40c:	e51b301c 	ldr	r3, [fp, #-28]	; 0xffffffe4
    f410:	e1a03203 	lsl	r3, r3, #4
    f414:	e283300d 	add	r3, r3, #13
    f418:	e0222004 	eor	r2, r2, r4
    f41c:	e1a03103 	lsl	r3, r3, #2
    f420:	e2433014 	sub	r3, r3, #20
    f424:	e083300b 	add	r3, r3, fp
    f428:	e50320ec 	str	r2, [r3, #-236]	; 0xffffff14
    f42c:	e24b3070 	sub	r3, fp, #112	; 0x70
    f430:	e3a0100c 	mov	r1, #12
    f434:	e1a00003 	mov	r0, r3
    f438:	ebfff7d0 	bl	d380 <g>
    f43c:	e1a03000 	mov	r3, r0
    f440:	e1a02003 	mov	r2, r3
    f444:	e3063d7c 	movw	r3, #28028	; 0x6d7c
    f448:	e3403001 	movt	r3, #1
    f44c:	e7934102 	ldr	r4, [r3, r2, lsl #2]
    f450:	e24b3070 	sub	r3, fp, #112	; 0x70
    f454:	e3a0100d 	mov	r1, #13
    f458:	e1a00003 	mov	r0, r3
    f45c:	ebfff7c7 	bl	d380 <g>
    f460:	e1a03000 	mov	r3, r0
    f464:	e1a02003 	mov	r2, r3
    f468:	e307317c 	movw	r3, #29052	; 0x717c
    f46c:	e3403001 	movt	r3, #1
    f470:	e7933102 	ldr	r3, [r3, r2, lsl #2]
    f474:	e0244003 	eor	r4, r4, r3
    f478:	e24b3070 	sub	r3, fp, #112	; 0x70
    f47c:	e3a01003 	mov	r1, #3
    f480:	e1a00003 	mov	r0, r3
    f484:	ebfff7bd 	bl	d380 <g>
    f488:	e1a03000 	mov	r3, r0
    f48c:	e1a02003 	mov	r2, r3
    f490:	e307357c 	movw	r3, #30076	; 0x757c
    f494:	e3403001 	movt	r3, #1
    f498:	e7933102 	ldr	r3, [r3, r2, lsl #2]
    f49c:	e0244003 	eor	r4, r4, r3
    f4a0:	e24b3070 	sub	r3, fp, #112	; 0x70
    f4a4:	e3a01002 	mov	r1, #2
    f4a8:	e1a00003 	mov	r0, r3
    f4ac:	ebfff7b3 	bl	d380 <g>
    f4b0:	e1a03000 	mov	r3, r0
    f4b4:	e1a02003 	mov	r2, r3
    f4b8:	e307397c 	movw	r3, #31100	; 0x797c
    f4bc:	e3403001 	movt	r3, #1
    f4c0:	e7933102 	ldr	r3, [r3, r2, lsl #2]
    f4c4:	e0244003 	eor	r4, r4, r3
    f4c8:	e24b3070 	sub	r3, fp, #112	; 0x70
    f4cc:	e3a01008 	mov	r1, #8
    f4d0:	e1a00003 	mov	r0, r3
    f4d4:	ebfff7a9 	bl	d380 <g>
    f4d8:	e1a03000 	mov	r3, r0
    f4dc:	e1a02003 	mov	r2, r3
    f4e0:	e307357c 	movw	r3, #30076	; 0x757c
    f4e4:	e3403001 	movt	r3, #1
    f4e8:	e7932102 	ldr	r2, [r3, r2, lsl #2]
    f4ec:	e51b301c 	ldr	r3, [fp, #-28]	; 0xffffffe4
    f4f0:	e1a03203 	lsl	r3, r3, #4
    f4f4:	e283300e 	add	r3, r3, #14
    f4f8:	e0222004 	eor	r2, r2, r4
    f4fc:	e1a03103 	lsl	r3, r3, #2
    f500:	e2433014 	sub	r3, r3, #20
    f504:	e083300b 	add	r3, r3, fp
    f508:	e50320ec 	str	r2, [r3, #-236]	; 0xffffff14
    f50c:	e24b3070 	sub	r3, fp, #112	; 0x70
    f510:	e3a0100e 	mov	r1, #14
    f514:	e1a00003 	mov	r0, r3
    f518:	ebfff798 	bl	d380 <g>
    f51c:	e1a03000 	mov	r3, r0
    f520:	e1a02003 	mov	r2, r3
    f524:	e3063d7c 	movw	r3, #28028	; 0x6d7c
    f528:	e3403001 	movt	r3, #1
    f52c:	e7934102 	ldr	r4, [r3, r2, lsl #2]
    f530:	e24b3070 	sub	r3, fp, #112	; 0x70
    f534:	e3a0100f 	mov	r1, #15
    f538:	e1a00003 	mov	r0, r3
    f53c:	ebfff78f 	bl	d380 <g>
    f540:	e1a03000 	mov	r3, r0
    f544:	e1a02003 	mov	r2, r3
    f548:	e307317c 	movw	r3, #29052	; 0x717c
    f54c:	e3403001 	movt	r3, #1
    f550:	e7933102 	ldr	r3, [r3, r2, lsl #2]
    f554:	e0244003 	eor	r4, r4, r3
    f558:	e24b3070 	sub	r3, fp, #112	; 0x70
    f55c:	e3a01001 	mov	r1, #1
    f560:	e1a00003 	mov	r0, r3
    f564:	ebfff785 	bl	d380 <g>
    f568:	e1a03000 	mov	r3, r0
    f56c:	e1a02003 	mov	r2, r3
    f570:	e307357c 	movw	r3, #30076	; 0x757c
    f574:	e3403001 	movt	r3, #1
    f578:	e7933102 	ldr	r3, [r3, r2, lsl #2]
    f57c:	e0244003 	eor	r4, r4, r3
    f580:	e24b3070 	sub	r3, fp, #112	; 0x70
    f584:	e3a01000 	mov	r1, #0
    f588:	e1a00003 	mov	r0, r3
    f58c:	ebfff77b 	bl	d380 <g>
    f590:	e1a03000 	mov	r3, r0
    f594:	e1a02003 	mov	r2, r3
    f598:	e307397c 	movw	r3, #31100	; 0x797c
    f59c:	e3403001 	movt	r3, #1
    f5a0:	e7933102 	ldr	r3, [r3, r2, lsl #2]
    f5a4:	e0244003 	eor	r4, r4, r3
    f5a8:	e24b3070 	sub	r3, fp, #112	; 0x70
    f5ac:	e3a0100d 	mov	r1, #13
    f5b0:	e1a00003 	mov	r0, r3
    f5b4:	ebfff771 	bl	d380 <g>
    f5b8:	e1a03000 	mov	r3, r0
    f5bc:	e1a02003 	mov	r2, r3
    f5c0:	e307397c 	movw	r3, #31100	; 0x797c
    f5c4:	e3403001 	movt	r3, #1
    f5c8:	e7932102 	ldr	r2, [r3, r2, lsl #2]
    f5cc:	e51b301c 	ldr	r3, [fp, #-28]	; 0xffffffe4
    f5d0:	e1a03203 	lsl	r3, r3, #4
    f5d4:	e283300f 	add	r3, r3, #15
    f5d8:	e0222004 	eor	r2, r2, r4
    f5dc:	e1a03103 	lsl	r3, r3, #2
    f5e0:	e2433014 	sub	r3, r3, #20
    f5e4:	e083300b 	add	r3, r3, fp
    f5e8:	e50320ec 	str	r2, [r3, #-236]	; 0xffffff14
    f5ec:	e59b3008 	ldr	r3, [fp, #8]
    f5f0:	e3530000 	cmp	r3, #0
    f5f4:	0a000021 	beq	f680 <run+0x2170>
    f5f8:	e51b301c 	ldr	r3, [fp, #-28]	; 0xffffffe4
    f5fc:	e1a03203 	lsl	r3, r3, #4
    f600:	e283100c 	add	r1, r3, #12
    f604:	e51b301c 	ldr	r3, [fp, #-28]	; 0xffffffe4
    f608:	e1a03203 	lsl	r3, r3, #4
    f60c:	e283300f 	add	r3, r3, #15
    f610:	e1a02003 	mov	r2, r3
    f614:	e30500b4 	movw	r0, #20660	; 0x50b4
    f618:	e3400001 	movt	r0, #1
    f61c:	eb001187 	bl	13c40 <tfp_printf>
    f620:	e3a0300c 	mov	r3, #12
    f624:	e50b3048 	str	r3, [fp, #-72]	; 0xffffffb8
    f628:	ea00000e 	b	f668 <run+0x2158>
    f62c:	e51b301c 	ldr	r3, [fp, #-28]	; 0xffffffe4
    f630:	e1a02203 	lsl	r2, r3, #4
    f634:	e51b3048 	ldr	r3, [fp, #-72]	; 0xffffffb8
    f638:	e0823003 	add	r3, r2, r3
    f63c:	e1a03103 	lsl	r3, r3, #2
    f640:	e2433014 	sub	r3, r3, #20
    f644:	e083300b 	add	r3, r3, fp
    f648:	e51330ec 	ldr	r3, [r3, #-236]	; 0xffffff14
    f64c:	e1a01003 	mov	r1, r3
    f650:	e3050080 	movw	r0, #20608	; 0x5080
    f654:	e3400001 	movt	r0, #1
    f658:	eb001178 	bl	13c40 <tfp_printf>
    f65c:	e51b3048 	ldr	r3, [fp, #-72]	; 0xffffffb8
    f660:	e2833001 	add	r3, r3, #1
    f664:	e50b3048 	str	r3, [fp, #-72]	; 0xffffffb8
    f668:	e51b3048 	ldr	r3, [fp, #-72]	; 0xffffffb8
    f66c:	e353000f 	cmp	r3, #15
    f670:	daffffed 	ble	f62c <run+0x211c>
    f674:	e3040eec 	movw	r0, #20204	; 0x4eec
    f678:	e3400001 	movt	r0, #1
    f67c:	eb00116f 	bl	13c40 <tfp_printf>
    f680:	e51b301c 	ldr	r3, [fp, #-28]	; 0xffffffe4
    f684:	e2833001 	add	r3, r3, #1
    f688:	e50b301c 	str	r3, [fp, #-28]	; 0xffffffe4
    f68c:	e51b301c 	ldr	r3, [fp, #-28]	; 0xffffffe4
    f690:	e3530001 	cmp	r3, #1
    f694:	dafff7e2 	ble	d624 <run+0x114>
    f698:	e24b3f51 	sub	r3, fp, #324	; 0x144
    f69c:	e3a02044 	mov	r2, #68	; 0x44
    f6a0:	e3a01000 	mov	r1, #0
    f6a4:	e1a00003 	mov	r0, r3
    f6a8:	eb0003c0 	bl	105b0 <memset>
    f6ac:	e51b319c 	ldr	r3, [fp, #-412]	; 0xfffffe64
    f6b0:	e50b3144 	str	r3, [fp, #-324]	; 0xfffffebc
    f6b4:	e24b3f62 	sub	r3, fp, #392	; 0x188
    f6b8:	e3a02044 	mov	r2, #68	; 0x44
    f6bc:	e3a01000 	mov	r1, #0
    f6c0:	e1a00003 	mov	r0, r3
    f6c4:	eb0003b9 	bl	105b0 <memset>
    f6c8:	e51b3198 	ldr	r3, [fp, #-408]	; 0xfffffe68
    f6cc:	e50b3188 	str	r3, [fp, #-392]	; 0xfffffe78
    f6d0:	e59b3008 	ldr	r3, [fp, #8]
    f6d4:	e3530000 	cmp	r3, #0
    f6d8:	0a000002 	beq	f6e8 <run+0x21d8>
    f6dc:	e3050120 	movw	r0, #20768	; 0x5120
    f6e0:	e3400001 	movt	r0, #1
    f6e4:	eb001155 	bl	13c40 <tfp_printf>
    f6e8:	e3a03000 	mov	r3, #0
    f6ec:	e50b304c 	str	r3, [fp, #-76]	; 0xffffffb4
    f6f0:	ea000222 	b	ff80 <run+0x2a70>
    f6f4:	e59b3004 	ldr	r3, [fp, #4]
    f6f8:	e3530000 	cmp	r3, #0
    f6fc:	0a000002 	beq	f70c <run+0x21fc>
    f700:	e51b304c 	ldr	r3, [fp, #-76]	; 0xffffffb4
    f704:	e263300f 	rsb	r3, r3, #15
    f708:	ea000000 	b	f710 <run+0x2200>
    f70c:	e51b304c 	ldr	r3, [fp, #-76]	; 0xffffffb4
    f710:	e50b3054 	str	r3, [fp, #-84]	; 0xffffffac
    f714:	e51b3054 	ldr	r3, [fp, #-84]	; 0xffffffac
    f718:	e1a03103 	lsl	r3, r3, #2
    f71c:	e2433014 	sub	r3, r3, #20
    f720:	e083300b 	add	r3, r3, fp
    f724:	e51330ec 	ldr	r3, [r3, #-236]	; 0xffffff14
    f728:	e50b3058 	str	r3, [fp, #-88]	; 0xffffffa8
    f72c:	e51b3054 	ldr	r3, [fp, #-84]	; 0xffffffac
    f730:	e2833010 	add	r3, r3, #16
    f734:	e1a03103 	lsl	r3, r3, #2
    f738:	e2433014 	sub	r3, r3, #20
    f73c:	e083300b 	add	r3, r3, fp
    f740:	e51330ec 	ldr	r3, [r3, #-236]	; 0xffffff14
    f744:	e6ef3073 	uxtb	r3, r3
    f748:	e203301f 	and	r3, r3, #31
    f74c:	e54b3059 	strb	r3, [fp, #-89]	; 0xffffffa7
    f750:	e59b3008 	ldr	r3, [fp, #8]
    f754:	e3530000 	cmp	r3, #0
    f758:	0a000022 	beq	f7e8 <run+0x22d8>
    f75c:	e51b104c 	ldr	r1, [fp, #-76]	; 0xffffffb4
    f760:	e305013c 	movw	r0, #20796	; 0x513c
    f764:	e3400001 	movt	r0, #1
    f768:	eb001134 	bl	13c40 <tfp_printf>
    f76c:	e51b3054 	ldr	r3, [fp, #-84]	; 0xffffffac
    f770:	e2831010 	add	r1, r3, #16
    f774:	e51b3054 	ldr	r3, [fp, #-84]	; 0xffffffac
    f778:	e2833010 	add	r3, r3, #16
    f77c:	e1a03103 	lsl	r3, r3, #2
    f780:	e2433014 	sub	r3, r3, #20
    f784:	e083300b 	add	r3, r3, fp
    f788:	e51330ec 	ldr	r3, [r3, #-236]	; 0xffffff14
    f78c:	e55b2059 	ldrb	r2, [fp, #-89]	; 0xffffffa7
    f790:	e58d2004 	str	r2, [sp, #4]
    f794:	e58d3000 	str	r3, [sp]
    f798:	e1a03001 	mov	r3, r1
    f79c:	e51b2058 	ldr	r2, [fp, #-88]	; 0xffffffa8
    f7a0:	e51b1054 	ldr	r1, [fp, #-84]	; 0xffffffac
    f7a4:	e305014c 	movw	r0, #20812	; 0x514c
    f7a8:	e3400001 	movt	r0, #1
    f7ac:	eb001123 	bl	13c40 <tfp_printf>
    f7b0:	e51b304c 	ldr	r3, [fp, #-76]	; 0xffffffb4
    f7b4:	e1a03103 	lsl	r3, r3, #2
    f7b8:	e2433014 	sub	r3, r3, #20
    f7bc:	e083300b 	add	r3, r3, fp
    f7c0:	e5131130 	ldr	r1, [r3, #-304]	; 0xfffffed0
    f7c4:	e51b304c 	ldr	r3, [fp, #-76]	; 0xffffffb4
    f7c8:	e1a03103 	lsl	r3, r3, #2
    f7cc:	e2433014 	sub	r3, r3, #20
    f7d0:	e083300b 	add	r3, r3, fp
    f7d4:	e5133174 	ldr	r3, [r3, #-372]	; 0xfffffe8c
    f7d8:	e1a02003 	mov	r2, r3
    f7dc:	e305017c 	movw	r0, #20860	; 0x517c
    f7e0:	e3400001 	movt	r0, #1
    f7e4:	eb001115 	bl	13c40 <tfp_printf>
    f7e8:	e3a03000 	mov	r3, #0
    f7ec:	e50b3060 	str	r3, [fp, #-96]	; 0xffffffa0
    f7f0:	e3a03000 	mov	r3, #0
    f7f4:	e50b3050 	str	r3, [fp, #-80]	; 0xffffffb0
    f7f8:	e51b2054 	ldr	r2, [fp, #-84]	; 0xffffffac
    f7fc:	e3053556 	movw	r3, #21846	; 0x5556
    f800:	e3453555 	movt	r3, #21845	; 0x5555
    f804:	e0c13293 	smull	r3, r1, r3, r2
    f808:	e1a03fc2 	asr	r3, r2, #31
    f80c:	e0413003 	sub	r3, r1, r3
    f810:	e3a01003 	mov	r1, #3
    f814:	e0030391 	mul	r3, r1, r3
    f818:	e0423003 	sub	r3, r2, r3
    f81c:	e3530002 	cmp	r3, #2
    f820:	0a00010b 	beq	fc54 <run+0x2744>
    f824:	e3530002 	cmp	r3, #2
    f828:	ca000191 	bgt	fe74 <run+0x2964>
    f82c:	e3530000 	cmp	r3, #0
    f830:	0a000002 	beq	f840 <run+0x2330>
    f834:	e3530001 	cmp	r3, #1
    f838:	0a000083 	beq	fa4c <run+0x253c>
    f83c:	ea00018c 	b	fe74 <run+0x2964>
    f840:	e51b304c 	ldr	r3, [fp, #-76]	; 0xffffffb4
    f844:	e1a03103 	lsl	r3, r3, #2
    f848:	e2433014 	sub	r3, r3, #20
    f84c:	e083300b 	add	r3, r3, fp
    f850:	e5133174 	ldr	r3, [r3, #-372]	; 0xfffffe8c
    f854:	e1a01003 	mov	r1, r3
    f858:	e51b0058 	ldr	r0, [fp, #-88]	; 0xffffffa8
    f85c:	ebfff6f7 	bl	d440 <sumMod2_32b>
    f860:	e1a02000 	mov	r2, r0
    f864:	e55b3059 	ldrb	r3, [fp, #-89]	; 0xffffffa7
    f868:	e1a01003 	mov	r1, r3
    f86c:	e1a00002 	mov	r0, r2
    f870:	ebfff715 	bl	d4cc <cyclicShift>
    f874:	e50b0060 	str	r0, [fp, #-96]	; 0xffffffa0
    f878:	e59b3008 	ldr	r3, [fp, #8]
    f87c:	e3530000 	cmp	r3, #0
    f880:	0a00000c 	beq	f8b8 <run+0x23a8>
    f884:	e51b304c 	ldr	r3, [fp, #-76]	; 0xffffffb4
    f888:	e1a03103 	lsl	r3, r3, #2
    f88c:	e2433014 	sub	r3, r3, #20
    f890:	e083300b 	add	r3, r3, fp
    f894:	e5132174 	ldr	r2, [r3, #-372]	; 0xfffffe8c
    f898:	e55b1059 	ldrb	r1, [fp, #-89]	; 0xffffffa7
    f89c:	e51b3060 	ldr	r3, [fp, #-96]	; 0xffffffa0
    f8a0:	e58d3000 	str	r3, [sp]
    f8a4:	e1a03001 	mov	r3, r1
    f8a8:	e51b1058 	ldr	r1, [fp, #-88]	; 0xffffffa8
    f8ac:	e3050194 	movw	r0, #20884	; 0x5194
    f8b0:	e3400001 	movt	r0, #1
    f8b4:	eb0010e1 	bl	13c40 <tfp_printf>
    f8b8:	e24b3f62 	sub	r3, fp, #392	; 0x188
    f8bc:	e2433003 	sub	r3, r3, #3
    f8c0:	e24b2f62 	sub	r2, fp, #392	; 0x188
    f8c4:	e2422002 	sub	r2, r2, #2
    f8c8:	e24b1f62 	sub	r1, fp, #392	; 0x188
    f8cc:	e2411001 	sub	r1, r1, #1
    f8d0:	e24b0f63 	sub	r0, fp, #396	; 0x18c
    f8d4:	e58d0000 	str	r0, [sp]
    f8d8:	e51b0060 	ldr	r0, [fp, #-96]	; 0xffffffa0
    f8dc:	ebfff6b9 	bl	d3c8 <splitI>
    f8e0:	e59b3008 	ldr	r3, [fp, #8]
    f8e4:	e3530000 	cmp	r3, #0
    f8e8:	0a00000b 	beq	f91c <run+0x240c>
    f8ec:	e55b3189 	ldrb	r3, [fp, #-393]	; 0xfffffe77
    f8f0:	e1a01003 	mov	r1, r3
    f8f4:	e55b318a 	ldrb	r3, [fp, #-394]	; 0xfffffe76
    f8f8:	e1a02003 	mov	r2, r3
    f8fc:	e55b318b 	ldrb	r3, [fp, #-395]	; 0xfffffe75
    f900:	e1a00003 	mov	r0, r3
    f904:	e55b318c 	ldrb	r3, [fp, #-396]	; 0xfffffe74
    f908:	e58d3000 	str	r3, [sp]
    f90c:	e1a03000 	mov	r3, r0
    f910:	e30501d4 	movw	r0, #20948	; 0x51d4
    f914:	e3400001 	movt	r0, #1
    f918:	eb0010c8 	bl	13c40 <tfp_printf>
    f91c:	e55b3189 	ldrb	r3, [fp, #-393]	; 0xfffffe77
    f920:	e1a02003 	mov	r2, r3
    f924:	e3053d7c 	movw	r3, #23932	; 0x5d7c
    f928:	e3403001 	movt	r3, #1
    f92c:	e7932102 	ldr	r2, [r3, r2, lsl #2]
    f930:	e55b318a 	ldrb	r3, [fp, #-394]	; 0xfffffe76
    f934:	e1a01003 	mov	r1, r3
    f938:	e306317c 	movw	r3, #24956	; 0x617c
    f93c:	e3403001 	movt	r3, #1
    f940:	e7933101 	ldr	r3, [r3, r1, lsl #2]
    f944:	e0222003 	eor	r2, r2, r3
    f948:	e55b318b 	ldrb	r3, [fp, #-395]	; 0xfffffe75
    f94c:	e1a01003 	mov	r1, r3
    f950:	e306357c 	movw	r3, #25980	; 0x657c
    f954:	e3403001 	movt	r3, #1
    f958:	e7933101 	ldr	r3, [r3, r1, lsl #2]
    f95c:	e1a01003 	mov	r1, r3
    f960:	e1a00002 	mov	r0, r2
    f964:	ebfff6c1 	bl	d470 <subtractMod2_32b>
    f968:	e1a02000 	mov	r2, r0
    f96c:	e55b318c 	ldrb	r3, [fp, #-396]	; 0xfffffe74
    f970:	e1a01003 	mov	r1, r3
    f974:	e306397c 	movw	r3, #27004	; 0x697c
    f978:	e3403001 	movt	r3, #1
    f97c:	e7933101 	ldr	r3, [r3, r1, lsl #2]
    f980:	e1a01003 	mov	r1, r3
    f984:	e1a00002 	mov	r0, r2
    f988:	ebfff6ac 	bl	d440 <sumMod2_32b>
    f98c:	e50b0050 	str	r0, [fp, #-80]	; 0xffffffb0
    f990:	e59b3008 	ldr	r3, [fp, #8]
    f994:	e3530000 	cmp	r3, #0
    f998:	0a000130 	beq	fe60 <run+0x2950>
    f99c:	e55b3189 	ldrb	r3, [fp, #-393]	; 0xfffffe77
    f9a0:	e1a05003 	mov	r5, r3
    f9a4:	e55b3189 	ldrb	r3, [fp, #-393]	; 0xfffffe77
    f9a8:	e1a02003 	mov	r2, r3
    f9ac:	e3053d7c 	movw	r3, #23932	; 0x5d7c
    f9b0:	e3403001 	movt	r3, #1
    f9b4:	e7930102 	ldr	r0, [r3, r2, lsl #2]
    f9b8:	e55b318a 	ldrb	r3, [fp, #-394]	; 0xfffffe76
    f9bc:	e1a06003 	mov	r6, r3
    f9c0:	e55b318a 	ldrb	r3, [fp, #-394]	; 0xfffffe76
    f9c4:	e1a02003 	mov	r2, r3
    f9c8:	e306317c 	movw	r3, #24956	; 0x617c
    f9cc:	e3403001 	movt	r3, #1
    f9d0:	e7932102 	ldr	r2, [r3, r2, lsl #2]
    f9d4:	e55b318b 	ldrb	r3, [fp, #-395]	; 0xfffffe75
    f9d8:	e1a0c003 	mov	ip, r3
    f9dc:	e55b318b 	ldrb	r3, [fp, #-395]	; 0xfffffe75
    f9e0:	e1a01003 	mov	r1, r3
    f9e4:	e306357c 	movw	r3, #25980	; 0x657c
    f9e8:	e3403001 	movt	r3, #1
    f9ec:	e7931101 	ldr	r1, [r3, r1, lsl #2]
    f9f0:	e55b318c 	ldrb	r3, [fp, #-396]	; 0xfffffe74
    f9f4:	e1a0e003 	mov	lr, r3
    f9f8:	e55b318c 	ldrb	r3, [fp, #-396]	; 0xfffffe74
    f9fc:	e1a04003 	mov	r4, r3
    fa00:	e306397c 	movw	r3, #27004	; 0x697c
    fa04:	e3403001 	movt	r3, #1
    fa08:	e7933104 	ldr	r3, [r3, r4, lsl #2]
    fa0c:	e58d3010 	str	r3, [sp, #16]
    fa10:	e58de00c 	str	lr, [sp, #12]
    fa14:	e58d1008 	str	r1, [sp, #8]
    fa18:	e58dc004 	str	ip, [sp, #4]
    fa1c:	e58d2000 	str	r2, [sp]
    fa20:	e1a03006 	mov	r3, r6
    fa24:	e1a02000 	mov	r2, r0
    fa28:	e1a01005 	mov	r1, r5
    fa2c:	e30501f4 	movw	r0, #20980	; 0x51f4
    fa30:	e3400001 	movt	r0, #1
    fa34:	eb001081 	bl	13c40 <tfp_printf>
    fa38:	e51b1050 	ldr	r1, [fp, #-80]	; 0xffffffb0
    fa3c:	e305023c 	movw	r0, #21052	; 0x523c
    fa40:	e3400001 	movt	r0, #1
    fa44:	eb00107d 	bl	13c40 <tfp_printf>
    fa48:	ea000104 	b	fe60 <run+0x2950>
    fa4c:	e51b304c 	ldr	r3, [fp, #-76]	; 0xffffffb4
    fa50:	e1a03103 	lsl	r3, r3, #2
    fa54:	e2433014 	sub	r3, r3, #20
    fa58:	e083300b 	add	r3, r3, fp
    fa5c:	e5132174 	ldr	r2, [r3, #-372]	; 0xfffffe8c
    fa60:	e51b3058 	ldr	r3, [fp, #-88]	; 0xffffffa8
    fa64:	e0233002 	eor	r3, r3, r2
    fa68:	e55b2059 	ldrb	r2, [fp, #-89]	; 0xffffffa7
    fa6c:	e1a01002 	mov	r1, r2
    fa70:	e1a00003 	mov	r0, r3
    fa74:	ebfff694 	bl	d4cc <cyclicShift>
    fa78:	e50b0060 	str	r0, [fp, #-96]	; 0xffffffa0
    fa7c:	e59b3008 	ldr	r3, [fp, #8]
    fa80:	e3530000 	cmp	r3, #0
    fa84:	0a00000c 	beq	fabc <run+0x25ac>
    fa88:	e51b304c 	ldr	r3, [fp, #-76]	; 0xffffffb4
    fa8c:	e1a03103 	lsl	r3, r3, #2
    fa90:	e2433014 	sub	r3, r3, #20
    fa94:	e083300b 	add	r3, r3, fp
    fa98:	e5132174 	ldr	r2, [r3, #-372]	; 0xfffffe8c
    fa9c:	e55b1059 	ldrb	r1, [fp, #-89]	; 0xffffffa7
    faa0:	e51b3060 	ldr	r3, [fp, #-96]	; 0xffffffa0
    faa4:	e58d3000 	str	r3, [sp]
    faa8:	e1a03001 	mov	r3, r1
    faac:	e51b1058 	ldr	r1, [fp, #-88]	; 0xffffffa8
    fab0:	e3050254 	movw	r0, #21076	; 0x5254
    fab4:	e3400001 	movt	r0, #1
    fab8:	eb001060 	bl	13c40 <tfp_printf>
    fabc:	e24b3f62 	sub	r3, fp, #392	; 0x188
    fac0:	e2433003 	sub	r3, r3, #3
    fac4:	e24b2f62 	sub	r2, fp, #392	; 0x188
    fac8:	e2422002 	sub	r2, r2, #2
    facc:	e24b1f62 	sub	r1, fp, #392	; 0x188
    fad0:	e2411001 	sub	r1, r1, #1
    fad4:	e24b0f63 	sub	r0, fp, #396	; 0x18c
    fad8:	e58d0000 	str	r0, [sp]
    fadc:	e51b0060 	ldr	r0, [fp, #-96]	; 0xffffffa0
    fae0:	ebfff638 	bl	d3c8 <splitI>
    fae4:	e59b3008 	ldr	r3, [fp, #8]
    fae8:	e3530000 	cmp	r3, #0
    faec:	0a00000b 	beq	fb20 <run+0x2610>
    faf0:	e55b3189 	ldrb	r3, [fp, #-393]	; 0xfffffe77
    faf4:	e1a01003 	mov	r1, r3
    faf8:	e55b318a 	ldrb	r3, [fp, #-394]	; 0xfffffe76
    fafc:	e1a02003 	mov	r2, r3
    fb00:	e55b318b 	ldrb	r3, [fp, #-395]	; 0xfffffe75
    fb04:	e1a00003 	mov	r0, r3
    fb08:	e55b318c 	ldrb	r3, [fp, #-396]	; 0xfffffe74
    fb0c:	e58d3000 	str	r3, [sp]
    fb10:	e1a03000 	mov	r3, r0
    fb14:	e30501d4 	movw	r0, #20948	; 0x51d4
    fb18:	e3400001 	movt	r0, #1
    fb1c:	eb001047 	bl	13c40 <tfp_printf>
    fb20:	e55b3189 	ldrb	r3, [fp, #-393]	; 0xfffffe77
    fb24:	e1a02003 	mov	r2, r3
    fb28:	e3053d7c 	movw	r3, #23932	; 0x5d7c
    fb2c:	e3403001 	movt	r3, #1
    fb30:	e7932102 	ldr	r2, [r3, r2, lsl #2]
    fb34:	e55b318a 	ldrb	r3, [fp, #-394]	; 0xfffffe76
    fb38:	e1a01003 	mov	r1, r3
    fb3c:	e306317c 	movw	r3, #24956	; 0x617c
    fb40:	e3403001 	movt	r3, #1
    fb44:	e7933101 	ldr	r3, [r3, r1, lsl #2]
    fb48:	e1a01003 	mov	r1, r3
    fb4c:	e1a00002 	mov	r0, r2
    fb50:	ebfff646 	bl	d470 <subtractMod2_32b>
    fb54:	e1a02000 	mov	r2, r0
    fb58:	e55b318b 	ldrb	r3, [fp, #-395]	; 0xfffffe75
    fb5c:	e1a01003 	mov	r1, r3
    fb60:	e306357c 	movw	r3, #25980	; 0x657c
    fb64:	e3403001 	movt	r3, #1
    fb68:	e7933101 	ldr	r3, [r3, r1, lsl #2]
    fb6c:	e1a01003 	mov	r1, r3
    fb70:	e1a00002 	mov	r0, r2
    fb74:	ebfff631 	bl	d440 <sumMod2_32b>
    fb78:	e1a02000 	mov	r2, r0
    fb7c:	e55b318c 	ldrb	r3, [fp, #-396]	; 0xfffffe74
    fb80:	e1a01003 	mov	r1, r3
    fb84:	e306397c 	movw	r3, #27004	; 0x697c
    fb88:	e3403001 	movt	r3, #1
    fb8c:	e7933101 	ldr	r3, [r3, r1, lsl #2]
    fb90:	e0233002 	eor	r3, r3, r2
    fb94:	e50b3050 	str	r3, [fp, #-80]	; 0xffffffb0
    fb98:	e59b3008 	ldr	r3, [fp, #8]
    fb9c:	e3530000 	cmp	r3, #0
    fba0:	0a0000b0 	beq	fe68 <run+0x2958>
    fba4:	e55b3189 	ldrb	r3, [fp, #-393]	; 0xfffffe77
    fba8:	e1a05003 	mov	r5, r3
    fbac:	e55b3189 	ldrb	r3, [fp, #-393]	; 0xfffffe77
    fbb0:	e1a02003 	mov	r2, r3
    fbb4:	e3053d7c 	movw	r3, #23932	; 0x5d7c
    fbb8:	e3403001 	movt	r3, #1
    fbbc:	e7930102 	ldr	r0, [r3, r2, lsl #2]
    fbc0:	e55b318a 	ldrb	r3, [fp, #-394]	; 0xfffffe76
    fbc4:	e1a06003 	mov	r6, r3
    fbc8:	e55b318a 	ldrb	r3, [fp, #-394]	; 0xfffffe76
    fbcc:	e1a02003 	mov	r2, r3
    fbd0:	e306317c 	movw	r3, #24956	; 0x617c
    fbd4:	e3403001 	movt	r3, #1
    fbd8:	e7932102 	ldr	r2, [r3, r2, lsl #2]
    fbdc:	e55b318b 	ldrb	r3, [fp, #-395]	; 0xfffffe75
    fbe0:	e1a0c003 	mov	ip, r3
    fbe4:	e55b318b 	ldrb	r3, [fp, #-395]	; 0xfffffe75
    fbe8:	e1a01003 	mov	r1, r3
    fbec:	e306357c 	movw	r3, #25980	; 0x657c
    fbf0:	e3403001 	movt	r3, #1
    fbf4:	e7931101 	ldr	r1, [r3, r1, lsl #2]
    fbf8:	e55b318c 	ldrb	r3, [fp, #-396]	; 0xfffffe74
    fbfc:	e1a0e003 	mov	lr, r3
    fc00:	e55b318c 	ldrb	r3, [fp, #-396]	; 0xfffffe74
    fc04:	e1a04003 	mov	r4, r3
    fc08:	e306397c 	movw	r3, #27004	; 0x697c
    fc0c:	e3403001 	movt	r3, #1
    fc10:	e7933104 	ldr	r3, [r3, r4, lsl #2]
    fc14:	e58d3010 	str	r3, [sp, #16]
    fc18:	e58de00c 	str	lr, [sp, #12]
    fc1c:	e58d1008 	str	r1, [sp, #8]
    fc20:	e58dc004 	str	ip, [sp, #4]
    fc24:	e58d2000 	str	r2, [sp]
    fc28:	e1a03006 	mov	r3, r6
    fc2c:	e1a02000 	mov	r2, r0
    fc30:	e1a01005 	mov	r1, r5
    fc34:	e30501f4 	movw	r0, #20980	; 0x51f4
    fc38:	e3400001 	movt	r0, #1
    fc3c:	eb000fff 	bl	13c40 <tfp_printf>
    fc40:	e51b1050 	ldr	r1, [fp, #-80]	; 0xffffffb0
    fc44:	e305023c 	movw	r0, #21052	; 0x523c
    fc48:	e3400001 	movt	r0, #1
    fc4c:	eb000ffb 	bl	13c40 <tfp_printf>
    fc50:	ea000084 	b	fe68 <run+0x2958>
    fc54:	e51b304c 	ldr	r3, [fp, #-76]	; 0xffffffb4
    fc58:	e1a03103 	lsl	r3, r3, #2
    fc5c:	e2433014 	sub	r3, r3, #20
    fc60:	e083300b 	add	r3, r3, fp
    fc64:	e5133174 	ldr	r3, [r3, #-372]	; 0xfffffe8c
    fc68:	e1a01003 	mov	r1, r3
    fc6c:	e51b0058 	ldr	r0, [fp, #-88]	; 0xffffffa8
    fc70:	ebfff5fe 	bl	d470 <subtractMod2_32b>
    fc74:	e1a02000 	mov	r2, r0
    fc78:	e55b3059 	ldrb	r3, [fp, #-89]	; 0xffffffa7
    fc7c:	e1a01003 	mov	r1, r3
    fc80:	e1a00002 	mov	r0, r2
    fc84:	ebfff610 	bl	d4cc <cyclicShift>
    fc88:	e50b0060 	str	r0, [fp, #-96]	; 0xffffffa0
    fc8c:	e59b3008 	ldr	r3, [fp, #8]
    fc90:	e3530000 	cmp	r3, #0
    fc94:	0a00000c 	beq	fccc <run+0x27bc>
    fc98:	e51b304c 	ldr	r3, [fp, #-76]	; 0xffffffb4
    fc9c:	e1a03103 	lsl	r3, r3, #2
    fca0:	e2433014 	sub	r3, r3, #20
    fca4:	e083300b 	add	r3, r3, fp
    fca8:	e5132174 	ldr	r2, [r3, #-372]	; 0xfffffe8c
    fcac:	e55b1059 	ldrb	r1, [fp, #-89]	; 0xffffffa7
    fcb0:	e51b3060 	ldr	r3, [fp, #-96]	; 0xffffffa0
    fcb4:	e58d3000 	str	r3, [sp]
    fcb8:	e1a03001 	mov	r3, r1
    fcbc:	e51b1058 	ldr	r1, [fp, #-88]	; 0xffffffa8
    fcc0:	e3050288 	movw	r0, #21128	; 0x5288
    fcc4:	e3400001 	movt	r0, #1
    fcc8:	eb000fdc 	bl	13c40 <tfp_printf>
    fccc:	e24b3f62 	sub	r3, fp, #392	; 0x188
    fcd0:	e2433003 	sub	r3, r3, #3
    fcd4:	e24b2f62 	sub	r2, fp, #392	; 0x188
    fcd8:	e2422002 	sub	r2, r2, #2
    fcdc:	e24b1f62 	sub	r1, fp, #392	; 0x188
    fce0:	e2411001 	sub	r1, r1, #1
    fce4:	e24b0f63 	sub	r0, fp, #396	; 0x18c
    fce8:	e58d0000 	str	r0, [sp]
    fcec:	e51b0060 	ldr	r0, [fp, #-96]	; 0xffffffa0
    fcf0:	ebfff5b4 	bl	d3c8 <splitI>
    fcf4:	e59b3008 	ldr	r3, [fp, #8]
    fcf8:	e3530000 	cmp	r3, #0
    fcfc:	0a00000b 	beq	fd30 <run+0x2820>
    fd00:	e55b3189 	ldrb	r3, [fp, #-393]	; 0xfffffe77
    fd04:	e1a01003 	mov	r1, r3
    fd08:	e55b318a 	ldrb	r3, [fp, #-394]	; 0xfffffe76
    fd0c:	e1a02003 	mov	r2, r3
    fd10:	e55b318b 	ldrb	r3, [fp, #-395]	; 0xfffffe75
    fd14:	e1a00003 	mov	r0, r3
    fd18:	e55b318c 	ldrb	r3, [fp, #-396]	; 0xfffffe74
    fd1c:	e58d3000 	str	r3, [sp]
    fd20:	e1a03000 	mov	r3, r0
    fd24:	e30501d4 	movw	r0, #20948	; 0x51d4
    fd28:	e3400001 	movt	r0, #1
    fd2c:	eb000fc3 	bl	13c40 <tfp_printf>
    fd30:	e55b3189 	ldrb	r3, [fp, #-393]	; 0xfffffe77
    fd34:	e1a02003 	mov	r2, r3
    fd38:	e3053d7c 	movw	r3, #23932	; 0x5d7c
    fd3c:	e3403001 	movt	r3, #1
    fd40:	e7932102 	ldr	r2, [r3, r2, lsl #2]
    fd44:	e55b318a 	ldrb	r3, [fp, #-394]	; 0xfffffe76
    fd48:	e1a01003 	mov	r1, r3
    fd4c:	e306317c 	movw	r3, #24956	; 0x617c
    fd50:	e3403001 	movt	r3, #1
    fd54:	e7933101 	ldr	r3, [r3, r1, lsl #2]
    fd58:	e1a01003 	mov	r1, r3
    fd5c:	e1a00002 	mov	r0, r2
    fd60:	ebfff5b6 	bl	d440 <sumMod2_32b>
    fd64:	e1a02000 	mov	r2, r0
    fd68:	e55b318b 	ldrb	r3, [fp, #-395]	; 0xfffffe75
    fd6c:	e1a01003 	mov	r1, r3
    fd70:	e306357c 	movw	r3, #25980	; 0x657c
    fd74:	e3403001 	movt	r3, #1
    fd78:	e7933101 	ldr	r3, [r3, r1, lsl #2]
    fd7c:	e0222003 	eor	r2, r2, r3
    fd80:	e55b318c 	ldrb	r3, [fp, #-396]	; 0xfffffe74
    fd84:	e1a01003 	mov	r1, r3
    fd88:	e306397c 	movw	r3, #27004	; 0x697c
    fd8c:	e3403001 	movt	r3, #1
    fd90:	e7933101 	ldr	r3, [r3, r1, lsl #2]
    fd94:	e1a01003 	mov	r1, r3
    fd98:	e1a00002 	mov	r0, r2
    fd9c:	ebfff5b3 	bl	d470 <subtractMod2_32b>
    fda0:	e50b0050 	str	r0, [fp, #-80]	; 0xffffffb0
    fda4:	e59b3008 	ldr	r3, [fp, #8]
    fda8:	e3530000 	cmp	r3, #0
    fdac:	0a00002f 	beq	fe70 <run+0x2960>
    fdb0:	e55b3189 	ldrb	r3, [fp, #-393]	; 0xfffffe77
    fdb4:	e1a05003 	mov	r5, r3
    fdb8:	e55b3189 	ldrb	r3, [fp, #-393]	; 0xfffffe77
    fdbc:	e1a02003 	mov	r2, r3
    fdc0:	e3053d7c 	movw	r3, #23932	; 0x5d7c
    fdc4:	e3403001 	movt	r3, #1
    fdc8:	e7930102 	ldr	r0, [r3, r2, lsl #2]
    fdcc:	e55b318a 	ldrb	r3, [fp, #-394]	; 0xfffffe76
    fdd0:	e1a06003 	mov	r6, r3
    fdd4:	e55b318a 	ldrb	r3, [fp, #-394]	; 0xfffffe76
    fdd8:	e1a02003 	mov	r2, r3
    fddc:	e306317c 	movw	r3, #24956	; 0x617c
    fde0:	e3403001 	movt	r3, #1
    fde4:	e7932102 	ldr	r2, [r3, r2, lsl #2]
    fde8:	e55b318b 	ldrb	r3, [fp, #-395]	; 0xfffffe75
    fdec:	e1a0c003 	mov	ip, r3
    fdf0:	e55b318b 	ldrb	r3, [fp, #-395]	; 0xfffffe75
    fdf4:	e1a01003 	mov	r1, r3
    fdf8:	e306357c 	movw	r3, #25980	; 0x657c
    fdfc:	e3403001 	movt	r3, #1
    fe00:	e7931101 	ldr	r1, [r3, r1, lsl #2]
    fe04:	e55b318c 	ldrb	r3, [fp, #-396]	; 0xfffffe74
    fe08:	e1a0e003 	mov	lr, r3
    fe0c:	e55b318c 	ldrb	r3, [fp, #-396]	; 0xfffffe74
    fe10:	e1a04003 	mov	r4, r3
    fe14:	e306397c 	movw	r3, #27004	; 0x697c
    fe18:	e3403001 	movt	r3, #1
    fe1c:	e7933104 	ldr	r3, [r3, r4, lsl #2]
    fe20:	e58d3010 	str	r3, [sp, #16]
    fe24:	e58de00c 	str	lr, [sp, #12]
    fe28:	e58d1008 	str	r1, [sp, #8]
    fe2c:	e58dc004 	str	ip, [sp, #4]
    fe30:	e58d2000 	str	r2, [sp]
    fe34:	e1a03006 	mov	r3, r6
    fe38:	e1a02000 	mov	r2, r0
    fe3c:	e1a01005 	mov	r1, r5
    fe40:	e30501f4 	movw	r0, #20980	; 0x51f4
    fe44:	e3400001 	movt	r0, #1
    fe48:	eb000f7c 	bl	13c40 <tfp_printf>
    fe4c:	e51b1050 	ldr	r1, [fp, #-80]	; 0xffffffb0
    fe50:	e305023c 	movw	r0, #21052	; 0x523c
    fe54:	e3400001 	movt	r0, #1
    fe58:	eb000f78 	bl	13c40 <tfp_printf>
    fe5c:	ea000003 	b	fe70 <run+0x2960>
    fe60:	e320f000 	nop	{0}
    fe64:	ea000002 	b	fe74 <run+0x2964>
    fe68:	e320f000 	nop	{0}
    fe6c:	ea000000 	b	fe74 <run+0x2964>
    fe70:	e320f000 	nop	{0}
    fe74:	e51b304c 	ldr	r3, [fp, #-76]	; 0xffffffb4
    fe78:	e2831001 	add	r1, r3, #1
    fe7c:	e51b304c 	ldr	r3, [fp, #-76]	; 0xffffffb4
    fe80:	e1a03103 	lsl	r3, r3, #2
    fe84:	e2433014 	sub	r3, r3, #20
    fe88:	e083300b 	add	r3, r3, fp
    fe8c:	e5132174 	ldr	r2, [r3, #-372]	; 0xfffffe8c
    fe90:	e1a03101 	lsl	r3, r1, #2
    fe94:	e2433014 	sub	r3, r3, #20
    fe98:	e083300b 	add	r3, r3, fp
    fe9c:	e5032130 	str	r2, [r3, #-304]	; 0xfffffed0
    fea0:	e51b304c 	ldr	r3, [fp, #-76]	; 0xffffffb4
    fea4:	e1a03103 	lsl	r3, r3, #2
    fea8:	e2433014 	sub	r3, r3, #20
    feac:	e083300b 	add	r3, r3, fp
    feb0:	e5131130 	ldr	r1, [r3, #-304]	; 0xfffffed0
    feb4:	e51b304c 	ldr	r3, [fp, #-76]	; 0xffffffb4
    feb8:	e2833001 	add	r3, r3, #1
    febc:	e51b2050 	ldr	r2, [fp, #-80]	; 0xffffffb0
    fec0:	e0222001 	eor	r2, r2, r1
    fec4:	e1a03103 	lsl	r3, r3, #2
    fec8:	e2433014 	sub	r3, r3, #20
    fecc:	e083300b 	add	r3, r3, fp
    fed0:	e5032174 	str	r2, [r3, #-372]	; 0xfffffe8c
    fed4:	e59b3008 	ldr	r3, [fp, #8]
    fed8:	e3530000 	cmp	r3, #0
    fedc:	0a000024 	beq	ff74 <run+0x2a64>
    fee0:	e51b104c 	ldr	r1, [fp, #-76]	; 0xffffffb4
    fee4:	e30502cc 	movw	r0, #21196	; 0x52cc
    fee8:	e3400001 	movt	r0, #1
    feec:	eb000f53 	bl	13c40 <tfp_printf>
    fef0:	e51b304c 	ldr	r3, [fp, #-76]	; 0xffffffb4
    fef4:	e2831001 	add	r1, r3, #1
    fef8:	e51b304c 	ldr	r3, [fp, #-76]	; 0xffffffb4
    fefc:	e2833001 	add	r3, r3, #1
    ff00:	e1a03103 	lsl	r3, r3, #2
    ff04:	e2433014 	sub	r3, r3, #20
    ff08:	e083300b 	add	r3, r3, fp
    ff0c:	e5133130 	ldr	r3, [r3, #-304]	; 0xfffffed0
    ff10:	e51b204c 	ldr	r2, [fp, #-76]	; 0xffffffb4
    ff14:	e30502e0 	movw	r0, #21216	; 0x52e0
    ff18:	e3400001 	movt	r0, #1
    ff1c:	eb000f47 	bl	13c40 <tfp_printf>
    ff20:	e51b304c 	ldr	r3, [fp, #-76]	; 0xffffffb4
    ff24:	e2831001 	add	r1, r3, #1
    ff28:	e51b304c 	ldr	r3, [fp, #-76]	; 0xffffffb4
    ff2c:	e1a03103 	lsl	r3, r3, #2
    ff30:	e2433014 	sub	r3, r3, #20
    ff34:	e083300b 	add	r3, r3, fp
    ff38:	e5132130 	ldr	r2, [r3, #-304]	; 0xfffffed0
    ff3c:	e51b304c 	ldr	r3, [fp, #-76]	; 0xffffffb4
    ff40:	e2833001 	add	r3, r3, #1
    ff44:	e1a03103 	lsl	r3, r3, #2
    ff48:	e2433014 	sub	r3, r3, #20
    ff4c:	e083300b 	add	r3, r3, fp
    ff50:	e5133174 	ldr	r3, [r3, #-372]	; 0xfffffe8c
    ff54:	e58d3004 	str	r3, [sp, #4]
    ff58:	e51b3050 	ldr	r3, [fp, #-80]	; 0xffffffb0
    ff5c:	e58d3000 	str	r3, [sp]
    ff60:	e1a03002 	mov	r3, r2
    ff64:	e51b204c 	ldr	r2, [fp, #-76]	; 0xffffffb4
    ff68:	e30502f8 	movw	r0, #21240	; 0x52f8
    ff6c:	e3400001 	movt	r0, #1
    ff70:	eb000f32 	bl	13c40 <tfp_printf>
    ff74:	e51b304c 	ldr	r3, [fp, #-76]	; 0xffffffb4
    ff78:	e2833001 	add	r3, r3, #1
    ff7c:	e50b304c 	str	r3, [fp, #-76]	; 0xffffffb4
    ff80:	e51b304c 	ldr	r3, [fp, #-76]	; 0xffffffb4
    ff84:	e353000f 	cmp	r3, #15
    ff88:	dafffdd9 	ble	f6f4 <run+0x21e4>
    ff8c:	e51b3148 	ldr	r3, [fp, #-328]	; 0xfffffeb8
    ff90:	e50b319c 	str	r3, [fp, #-412]	; 0xfffffe64
    ff94:	e51b3104 	ldr	r3, [fp, #-260]	; 0xfffffefc
    ff98:	e50b3198 	str	r3, [fp, #-408]	; 0xfffffe68
    ff9c:	e59b3008 	ldr	r3, [fp, #8]
    ffa0:	e3530000 	cmp	r3, #0
    ffa4:	0a000008 	beq	ffcc <run+0x2abc>
    ffa8:	e3050324 	movw	r0, #21284	; 0x5324
    ffac:	e3400001 	movt	r0, #1
    ffb0:	eb000f22 	bl	13c40 <tfp_printf>
    ffb4:	e51b319c 	ldr	r3, [fp, #-412]	; 0xfffffe64
    ffb8:	e51b2198 	ldr	r2, [fp, #-408]	; 0xfffffe68
    ffbc:	e1a01003 	mov	r1, r3
    ffc0:	e305033c 	movw	r0, #21308	; 0x533c
    ffc4:	e3400001 	movt	r0, #1
    ffc8:	eb000f1c 	bl	13c40 <tfp_printf>
    ffcc:	e51b3190 	ldr	r3, [fp, #-400]	; 0xfffffe70
    ffd0:	e1a02003 	mov	r2, r3
    ffd4:	e24b3f67 	sub	r3, fp, #412	; 0x19c
    ffd8:	e8930003 	ldm	r3, {r0, r1}
    ffdc:	e8820003 	stm	r2, {r0, r1}
    ffe0:	e51b0190 	ldr	r0, [fp, #-400]	; 0xfffffe70
    ffe4:	e24bd010 	sub	sp, fp, #16
    ffe8:	e8bd8870 	pop	{r4, r5, r6, fp, pc}

0000ffec <encrypt>:
    ffec:	e92d4800 	push	{fp, lr}
    fff0:	e28db004 	add	fp, sp, #4
    fff4:	e24dd018 	sub	sp, sp, #24
    fff8:	e50b0008 	str	r0, [fp, #-8]
    fffc:	e50b100c 	str	r1, [fp, #-12]
   10000:	e24b1014 	sub	r1, fp, #20
   10004:	e881000c 	stm	r1, {r2, r3}
   10008:	e51b0008 	ldr	r0, [fp, #-8]
   1000c:	e59b3004 	ldr	r3, [fp, #4]
   10010:	e58d3004 	str	r3, [sp, #4]
   10014:	e3a03000 	mov	r3, #0
   10018:	e58d3000 	str	r3, [sp]
   1001c:	e24b3014 	sub	r3, fp, #20
   10020:	e893000c 	ldm	r3, {r2, r3}
   10024:	e51b100c 	ldr	r1, [fp, #-12]
   10028:	ebfff538 	bl	d510 <run>
   1002c:	e51b0008 	ldr	r0, [fp, #-8]
   10030:	e24bd004 	sub	sp, fp, #4
   10034:	e8bd8800 	pop	{fp, pc}

00010038 <blockFromBytes>:
   10038:	e52db004 	push	{fp}		; (str fp, [sp, #-4]!)
   1003c:	e28db000 	add	fp, sp, #0
   10040:	e24dd01c 	sub	sp, sp, #28
   10044:	e50b0018 	str	r0, [fp, #-24]	; 0xffffffe8
   10048:	e50b101c 	str	r1, [fp, #-28]	; 0xffffffe4
   1004c:	e3a03000 	mov	r3, #0
   10050:	e50b3010 	str	r3, [fp, #-16]
   10054:	e3a03000 	mov	r3, #0
   10058:	e50b300c 	str	r3, [fp, #-12]
   1005c:	e3a03000 	mov	r3, #0
   10060:	e50b3008 	str	r3, [fp, #-8]
   10064:	ea000016 	b	100c4 <blockFromBytes+0x8c>
   10068:	e51b3008 	ldr	r3, [fp, #-8]
   1006c:	e3530003 	cmp	r3, #3
   10070:	ca000008 	bgt	10098 <blockFromBytes+0x60>
   10074:	e51b3010 	ldr	r3, [fp, #-16]
   10078:	e1a03403 	lsl	r3, r3, #8
   1007c:	e51b2008 	ldr	r2, [fp, #-8]
   10080:	e51b101c 	ldr	r1, [fp, #-28]	; 0xffffffe4
   10084:	e0812002 	add	r2, r1, r2
   10088:	e5d22000 	ldrb	r2, [r2]
   1008c:	e1833002 	orr	r3, r3, r2
   10090:	e50b3010 	str	r3, [fp, #-16]
   10094:	ea000007 	b	100b8 <blockFromBytes+0x80>
   10098:	e51b300c 	ldr	r3, [fp, #-12]
   1009c:	e1a03403 	lsl	r3, r3, #8
   100a0:	e51b2008 	ldr	r2, [fp, #-8]
   100a4:	e51b101c 	ldr	r1, [fp, #-28]	; 0xffffffe4
   100a8:	e0812002 	add	r2, r1, r2
   100ac:	e5d22000 	ldrb	r2, [r2]
   100b0:	e1833002 	orr	r3, r3, r2
   100b4:	e50b300c 	str	r3, [fp, #-12]
   100b8:	e51b3008 	ldr	r3, [fp, #-8]
   100bc:	e2833001 	add	r3, r3, #1
   100c0:	e50b3008 	str	r3, [fp, #-8]
   100c4:	e51b3008 	ldr	r3, [fp, #-8]
   100c8:	e3530007 	cmp	r3, #7
   100cc:	daffffe5 	ble	10068 <blockFromBytes+0x30>
   100d0:	e51b3018 	ldr	r3, [fp, #-24]	; 0xffffffe8
   100d4:	e1a02003 	mov	r2, r3
   100d8:	e24b3010 	sub	r3, fp, #16
   100dc:	e8930003 	ldm	r3, {r0, r1}
   100e0:	e8820003 	stm	r2, {r0, r1}
   100e4:	e51b0018 	ldr	r0, [fp, #-24]	; 0xffffffe8
   100e8:	e28bd000 	add	sp, fp, #0
   100ec:	e49db004 	pop	{fp}		; (ldr fp, [sp], #4)
   100f0:	e12fff1e 	bx	lr

000100f4 <malloc>:
   100f4:	e92d4800 	push	{fp, lr}
   100f8:	e28db004 	add	fp, sp, #4
   100fc:	e24dd018 	sub	sp, sp, #24
   10100:	e50b0018 	str	r0, [fp, #-24]	; 0xffffffe8
   10104:	e30e3024 	movw	r3, #57380	; 0xe024
   10108:	e3403004 	movt	r3, #4
   1010c:	e5d33000 	ldrb	r3, [r3]
   10110:	e3530000 	cmp	r3, #0
   10114:	1a000000 	bne	1011c <malloc+0x28>
   10118:	ebffdfbb 	bl	800c <init_heap>
   1011c:	e51b3018 	ldr	r3, [fp, #-24]	; 0xffffffe8
   10120:	e3530000 	cmp	r3, #0
   10124:	1a000001 	bne	10130 <malloc+0x3c>
   10128:	e3a03000 	mov	r3, #0
   1012c:	ea00003f 	b	10230 <malloc+0x13c>
   10130:	e51b3018 	ldr	r3, [fp, #-24]	; 0xffffffe8
   10134:	e283301b 	add	r3, r3, #27
   10138:	e3c3300f 	bic	r3, r3, #15
   1013c:	e50b3018 	str	r3, [fp, #-24]	; 0xffffffe8
   10140:	e30e300c 	movw	r3, #57356	; 0xe00c
   10144:	e3403004 	movt	r3, #4
   10148:	e5933000 	ldr	r3, [r3]
   1014c:	e50b3008 	str	r3, [fp, #-8]
   10150:	e3a03000 	mov	r3, #0
   10154:	e50b300c 	str	r3, [fp, #-12]
   10158:	ea000030 	b	10220 <malloc+0x12c>
   1015c:	e51b3008 	ldr	r3, [fp, #-8]
   10160:	e5d33004 	ldrb	r3, [r3, #4]
   10164:	e3530000 	cmp	r3, #0
   10168:	0a000027 	beq	1020c <malloc+0x118>
   1016c:	e51b3008 	ldr	r3, [fp, #-8]
   10170:	e5933000 	ldr	r3, [r3]
   10174:	e51b2018 	ldr	r2, [fp, #-24]	; 0xffffffe8
   10178:	e1520003 	cmp	r2, r3
   1017c:	8a000022 	bhi	1020c <malloc+0x118>
   10180:	e51b3008 	ldr	r3, [fp, #-8]
   10184:	e5932000 	ldr	r2, [r3]
   10188:	e51b3018 	ldr	r3, [fp, #-24]	; 0xffffffe8
   1018c:	e283301c 	add	r3, r3, #28
   10190:	e1520003 	cmp	r2, r3
   10194:	3a000016 	bcc	101f4 <malloc+0x100>
   10198:	e51b2008 	ldr	r2, [fp, #-8]
   1019c:	e51b3018 	ldr	r3, [fp, #-24]	; 0xffffffe8
   101a0:	e0823003 	add	r3, r2, r3
   101a4:	e50b3010 	str	r3, [fp, #-16]
   101a8:	e51b3008 	ldr	r3, [fp, #-8]
   101ac:	e5932000 	ldr	r2, [r3]
   101b0:	e51b3018 	ldr	r3, [fp, #-24]	; 0xffffffe8
   101b4:	e0422003 	sub	r2, r2, r3
   101b8:	e51b3010 	ldr	r3, [fp, #-16]
   101bc:	e5832000 	str	r2, [r3]
   101c0:	e51b3010 	ldr	r3, [fp, #-16]
   101c4:	e3a02001 	mov	r2, #1
   101c8:	e5c32004 	strb	r2, [r3, #4]
   101cc:	e51b3008 	ldr	r3, [fp, #-8]
   101d0:	e5932008 	ldr	r2, [r3, #8]
   101d4:	e51b3010 	ldr	r3, [fp, #-16]
   101d8:	e5832008 	str	r2, [r3, #8]
   101dc:	e51b3008 	ldr	r3, [fp, #-8]
   101e0:	e51b2018 	ldr	r2, [fp, #-24]	; 0xffffffe8
   101e4:	e5832000 	str	r2, [r3]
   101e8:	e51b3008 	ldr	r3, [fp, #-8]
   101ec:	e51b2010 	ldr	r2, [fp, #-16]
   101f0:	e5832008 	str	r2, [r3, #8]
   101f4:	e51b3008 	ldr	r3, [fp, #-8]
   101f8:	e3a02000 	mov	r2, #0
   101fc:	e5c32004 	strb	r2, [r3, #4]
   10200:	e51b3008 	ldr	r3, [fp, #-8]
   10204:	e283300c 	add	r3, r3, #12
   10208:	ea000008 	b	10230 <malloc+0x13c>
   1020c:	e51b3008 	ldr	r3, [fp, #-8]
   10210:	e50b300c 	str	r3, [fp, #-12]
   10214:	e51b3008 	ldr	r3, [fp, #-8]
   10218:	e5933008 	ldr	r3, [r3, #8]
   1021c:	e50b3008 	str	r3, [fp, #-8]
   10220:	e51b3008 	ldr	r3, [fp, #-8]
   10224:	e3530000 	cmp	r3, #0
   10228:	1affffcb 	bne	1015c <malloc+0x68>
   1022c:	e3a03000 	mov	r3, #0
   10230:	e1a00003 	mov	r0, r3
   10234:	e24bd004 	sub	sp, fp, #4
   10238:	e8bd8800 	pop	{fp, pc}

0001023c <free>:
   1023c:	e52db004 	push	{fp}		; (str fp, [sp, #-4]!)
   10240:	e28db000 	add	fp, sp, #0
   10244:	e24dd014 	sub	sp, sp, #20
   10248:	e50b0010 	str	r0, [fp, #-16]
   1024c:	e51b3010 	ldr	r3, [fp, #-16]
   10250:	e3530000 	cmp	r3, #0
   10254:	0a000042 	beq	10364 <free+0x128>
   10258:	e51b3010 	ldr	r3, [fp, #-16]
   1025c:	e243300c 	sub	r3, r3, #12
   10260:	e50b300c 	str	r3, [fp, #-12]
   10264:	e51b300c 	ldr	r3, [fp, #-12]
   10268:	e3a02001 	mov	r2, #1
   1026c:	e5c32004 	strb	r2, [r3, #4]
   10270:	e51b300c 	ldr	r3, [fp, #-12]
   10274:	e5933008 	ldr	r3, [r3, #8]
   10278:	e3530000 	cmp	r3, #0
   1027c:	0a000011 	beq	102c8 <free+0x8c>
   10280:	e51b300c 	ldr	r3, [fp, #-12]
   10284:	e5933008 	ldr	r3, [r3, #8]
   10288:	e5d33004 	ldrb	r3, [r3, #4]
   1028c:	e3530000 	cmp	r3, #0
   10290:	0a00000c 	beq	102c8 <free+0x8c>
   10294:	e51b300c 	ldr	r3, [fp, #-12]
   10298:	e5932000 	ldr	r2, [r3]
   1029c:	e51b300c 	ldr	r3, [fp, #-12]
   102a0:	e5933008 	ldr	r3, [r3, #8]
   102a4:	e5933000 	ldr	r3, [r3]
   102a8:	e0822003 	add	r2, r2, r3
   102ac:	e51b300c 	ldr	r3, [fp, #-12]
   102b0:	e5832000 	str	r2, [r3]
   102b4:	e51b300c 	ldr	r3, [fp, #-12]
   102b8:	e5933008 	ldr	r3, [r3, #8]
   102bc:	e5932008 	ldr	r2, [r3, #8]
   102c0:	e51b300c 	ldr	r3, [fp, #-12]
   102c4:	e5832008 	str	r2, [r3, #8]
   102c8:	e30e300c 	movw	r3, #57356	; 0xe00c
   102cc:	e3403004 	movt	r3, #4
   102d0:	e5933000 	ldr	r3, [r3]
   102d4:	e50b3008 	str	r3, [fp, #-8]
   102d8:	ea000019 	b	10344 <free+0x108>
   102dc:	e51b3008 	ldr	r3, [fp, #-8]
   102e0:	e5d33004 	ldrb	r3, [r3, #4]
   102e4:	e3530000 	cmp	r3, #0
   102e8:	0a000012 	beq	10338 <free+0xfc>
   102ec:	e51b3008 	ldr	r3, [fp, #-8]
   102f0:	e5933000 	ldr	r3, [r3]
   102f4:	e51b2008 	ldr	r2, [fp, #-8]
   102f8:	e0823003 	add	r3, r2, r3
   102fc:	e51b200c 	ldr	r2, [fp, #-12]
   10300:	e1520003 	cmp	r2, r3
   10304:	1a00000b 	bne	10338 <free+0xfc>
   10308:	e51b3008 	ldr	r3, [fp, #-8]
   1030c:	e5932000 	ldr	r2, [r3]
   10310:	e51b300c 	ldr	r3, [fp, #-12]
   10314:	e5933000 	ldr	r3, [r3]
   10318:	e0822003 	add	r2, r2, r3
   1031c:	e51b3008 	ldr	r3, [fp, #-8]
   10320:	e5832000 	str	r2, [r3]
   10324:	e51b300c 	ldr	r3, [fp, #-12]
   10328:	e5932008 	ldr	r2, [r3, #8]
   1032c:	e51b3008 	ldr	r3, [fp, #-8]
   10330:	e5832008 	str	r2, [r3, #8]
   10334:	ea00000b 	b	10368 <free+0x12c>
   10338:	e51b3008 	ldr	r3, [fp, #-8]
   1033c:	e5933008 	ldr	r3, [r3, #8]
   10340:	e50b3008 	str	r3, [fp, #-8]
   10344:	e51b3008 	ldr	r3, [fp, #-8]
   10348:	e3530000 	cmp	r3, #0
   1034c:	0a000005 	beq	10368 <free+0x12c>
   10350:	e51b3008 	ldr	r3, [fp, #-8]
   10354:	e5933008 	ldr	r3, [r3, #8]
   10358:	e3530000 	cmp	r3, #0
   1035c:	1affffde 	bne	102dc <free+0xa0>
   10360:	ea000000 	b	10368 <free+0x12c>
   10364:	e320f000 	nop	{0}
   10368:	e28bd000 	add	sp, fp, #0
   1036c:	e49db004 	pop	{fp}		; (ldr fp, [sp], #4)
   10370:	e12fff1e 	bx	lr

00010374 <xmalloc>:
   10374:	e92d4800 	push	{fp, lr}
   10378:	e28db004 	add	fp, sp, #4
   1037c:	e24dd010 	sub	sp, sp, #16
   10380:	e50b0010 	str	r0, [fp, #-16]
   10384:	e51b3010 	ldr	r3, [fp, #-16]
   10388:	e3530000 	cmp	r3, #0
   1038c:	1a000001 	bne	10398 <xmalloc+0x24>
   10390:	e3a03001 	mov	r3, #1
   10394:	e50b3010 	str	r3, [fp, #-16]
   10398:	e51b0010 	ldr	r0, [fp, #-16]
   1039c:	ebffff54 	bl	100f4 <malloc>
   103a0:	e50b0008 	str	r0, [fp, #-8]
   103a4:	e51b3008 	ldr	r3, [fp, #-8]
   103a8:	e3530000 	cmp	r3, #0
   103ac:	1a000005 	bne	103c8 <xmalloc+0x54>
   103b0:	e51b1010 	ldr	r1, [fp, #-16]
   103b4:	e3050354 	movw	r0, #21332	; 0x5354
   103b8:	e3400001 	movt	r0, #1
   103bc:	eb000e1f 	bl	13c40 <tfp_printf>
   103c0:	e3a03000 	mov	r3, #0
   103c4:	ea000004 	b	103dc <xmalloc+0x68>
   103c8:	e51b2010 	ldr	r2, [fp, #-16]
   103cc:	e3a01000 	mov	r1, #0
   103d0:	e51b0008 	ldr	r0, [fp, #-8]
   103d4:	eb000075 	bl	105b0 <memset>
   103d8:	e51b3008 	ldr	r3, [fp, #-8]
   103dc:	e1a00003 	mov	r0, r3
   103e0:	e24bd004 	sub	sp, fp, #4
   103e4:	e8bd8800 	pop	{fp, pc}

000103e8 <xmalloc_clear>:
   103e8:	e92d4800 	push	{fp, lr}
   103ec:	e28db004 	add	fp, sp, #4
   103f0:	e24dd010 	sub	sp, sp, #16
   103f4:	e50b0010 	str	r0, [fp, #-16]
   103f8:	e51b0010 	ldr	r0, [fp, #-16]
   103fc:	ebffff3c 	bl	100f4 <malloc>
   10400:	e50b0008 	str	r0, [fp, #-8]
   10404:	e51b3008 	ldr	r3, [fp, #-8]
   10408:	e3530000 	cmp	r3, #0
   1040c:	0a000003 	beq	10420 <xmalloc_clear+0x38>
   10410:	e51b2010 	ldr	r2, [fp, #-16]
   10414:	e3a01000 	mov	r1, #0
   10418:	e51b0008 	ldr	r0, [fp, #-8]
   1041c:	eb000063 	bl	105b0 <memset>
   10420:	e51b3008 	ldr	r3, [fp, #-8]
   10424:	e1a00003 	mov	r0, r3
   10428:	e24bd004 	sub	sp, fp, #4
   1042c:	e8bd8800 	pop	{fp, pc}

00010430 <xcalloc>:
   10430:	e92d4800 	push	{fp, lr}
   10434:	e28db004 	add	fp, sp, #4
   10438:	e24dd010 	sub	sp, sp, #16
   1043c:	e50b0010 	str	r0, [fp, #-16]
   10440:	e50b1014 	str	r1, [fp, #-20]	; 0xffffffec
   10444:	e51b3010 	ldr	r3, [fp, #-16]
   10448:	e3530000 	cmp	r3, #0
   1044c:	0a000007 	beq	10470 <xcalloc+0x40>
   10450:	e3e02000 	mvn	r2, #0
   10454:	e51b3010 	ldr	r3, [fp, #-16]
   10458:	e733f312 	udiv	r3, r2, r3
   1045c:	e51b2014 	ldr	r2, [fp, #-20]	; 0xffffffec
   10460:	e1520003 	cmp	r2, r3
   10464:	9a000001 	bls	10470 <xcalloc+0x40>
   10468:	e3a03000 	mov	r3, #0
   1046c:	ea00000e 	b	104ac <xcalloc+0x7c>
   10470:	e51b3010 	ldr	r3, [fp, #-16]
   10474:	e51b2014 	ldr	r2, [fp, #-20]	; 0xffffffec
   10478:	e0030392 	mul	r3, r2, r3
   1047c:	e50b3008 	str	r3, [fp, #-8]
   10480:	e51b0008 	ldr	r0, [fp, #-8]
   10484:	ebffff1a 	bl	100f4 <malloc>
   10488:	e50b000c 	str	r0, [fp, #-12]
   1048c:	e51b300c 	ldr	r3, [fp, #-12]
   10490:	e3530000 	cmp	r3, #0
   10494:	0a000003 	beq	104a8 <xcalloc+0x78>
   10498:	e51b2008 	ldr	r2, [fp, #-8]
   1049c:	e3a01000 	mov	r1, #0
   104a0:	e51b000c 	ldr	r0, [fp, #-12]
   104a4:	eb000041 	bl	105b0 <memset>
   104a8:	e51b300c 	ldr	r3, [fp, #-12]
   104ac:	e1a00003 	mov	r0, r3
   104b0:	e24bd004 	sub	sp, fp, #4
   104b4:	e8bd8800 	pop	{fp, pc}

000104b8 <xfree>:
   104b8:	e92d4800 	push	{fp, lr}
   104bc:	e28db004 	add	fp, sp, #4
   104c0:	e24dd008 	sub	sp, sp, #8
   104c4:	e50b0008 	str	r0, [fp, #-8]
   104c8:	e51b3008 	ldr	r3, [fp, #-8]
   104cc:	e3530000 	cmp	r3, #0
   104d0:	0a000001 	beq	104dc <xfree+0x24>
   104d4:	e51b0008 	ldr	r0, [fp, #-8]
   104d8:	ebffff57 	bl	1023c <free>
   104dc:	e320f000 	nop	{0}
   104e0:	e24bd004 	sub	sp, fp, #4
   104e4:	e8bd8800 	pop	{fp, pc}

000104e8 <xrealloc>:
   104e8:	e92d4800 	push	{fp, lr}
   104ec:	e28db004 	add	fp, sp, #4
   104f0:	e24dd018 	sub	sp, sp, #24
   104f4:	e50b0018 	str	r0, [fp, #-24]	; 0xffffffe8
   104f8:	e50b101c 	str	r1, [fp, #-28]	; 0xffffffe4
   104fc:	e51b3018 	ldr	r3, [fp, #-24]	; 0xffffffe8
   10500:	e3530000 	cmp	r3, #0
   10504:	1a000003 	bne	10518 <xrealloc+0x30>
   10508:	e51b001c 	ldr	r0, [fp, #-28]	; 0xffffffe4
   1050c:	ebfffef8 	bl	100f4 <malloc>
   10510:	e1a03000 	mov	r3, r0
   10514:	ea000022 	b	105a4 <xrealloc+0xbc>
   10518:	e51b301c 	ldr	r3, [fp, #-28]	; 0xffffffe4
   1051c:	e3530000 	cmp	r3, #0
   10520:	1a000003 	bne	10534 <xrealloc+0x4c>
   10524:	e51b0018 	ldr	r0, [fp, #-24]	; 0xffffffe8
   10528:	ebffff43 	bl	1023c <free>
   1052c:	e3a03000 	mov	r3, #0
   10530:	ea00001b 	b	105a4 <xrealloc+0xbc>
   10534:	e51b3018 	ldr	r3, [fp, #-24]	; 0xffffffe8
   10538:	e243300c 	sub	r3, r3, #12
   1053c:	e50b3008 	str	r3, [fp, #-8]
   10540:	e51b3008 	ldr	r3, [fp, #-8]
   10544:	e5933000 	ldr	r3, [r3]
   10548:	e243300c 	sub	r3, r3, #12
   1054c:	e50b300c 	str	r3, [fp, #-12]
   10550:	e51b201c 	ldr	r2, [fp, #-28]	; 0xffffffe4
   10554:	e51b300c 	ldr	r3, [fp, #-12]
   10558:	e1520003 	cmp	r2, r3
   1055c:	8a000001 	bhi	10568 <xrealloc+0x80>
   10560:	e51b3018 	ldr	r3, [fp, #-24]	; 0xffffffe8
   10564:	ea00000e 	b	105a4 <xrealloc+0xbc>
   10568:	e51b001c 	ldr	r0, [fp, #-28]	; 0xffffffe4
   1056c:	ebfffee0 	bl	100f4 <malloc>
   10570:	e50b0010 	str	r0, [fp, #-16]
   10574:	e51b3010 	ldr	r3, [fp, #-16]
   10578:	e3530000 	cmp	r3, #0
   1057c:	1a000001 	bne	10588 <xrealloc+0xa0>
   10580:	e3a03000 	mov	r3, #0
   10584:	ea000006 	b	105a4 <xrealloc+0xbc>
   10588:	e51b200c 	ldr	r2, [fp, #-12]
   1058c:	e51b1018 	ldr	r1, [fp, #-24]	; 0xffffffe8
   10590:	e51b0010 	ldr	r0, [fp, #-16]
   10594:	eb00001e 	bl	10614 <memcpy>
   10598:	e51b0018 	ldr	r0, [fp, #-24]	; 0xffffffe8
   1059c:	ebffff26 	bl	1023c <free>
   105a0:	e51b3010 	ldr	r3, [fp, #-16]
   105a4:	e1a00003 	mov	r0, r3
   105a8:	e24bd004 	sub	sp, fp, #4
   105ac:	e8bd8800 	pop	{fp, pc}

000105b0 <memset>:
   105b0:	e52db004 	push	{fp}		; (str fp, [sp, #-4]!)
   105b4:	e28db000 	add	fp, sp, #0
   105b8:	e24dd01c 	sub	sp, sp, #28
   105bc:	e50b0010 	str	r0, [fp, #-16]
   105c0:	e50b1014 	str	r1, [fp, #-20]	; 0xffffffec
   105c4:	e50b2018 	str	r2, [fp, #-24]	; 0xffffffe8
   105c8:	e51b3010 	ldr	r3, [fp, #-16]
   105cc:	e50b3008 	str	r3, [fp, #-8]
   105d0:	ea000005 	b	105ec <memset+0x3c>
   105d4:	e51b3008 	ldr	r3, [fp, #-8]
   105d8:	e2832001 	add	r2, r3, #1
   105dc:	e50b2008 	str	r2, [fp, #-8]
   105e0:	e51b2014 	ldr	r2, [fp, #-20]	; 0xffffffec
   105e4:	e6ef2072 	uxtb	r2, r2
   105e8:	e5c32000 	strb	r2, [r3]
   105ec:	e51b3018 	ldr	r3, [fp, #-24]	; 0xffffffe8
   105f0:	e2432001 	sub	r2, r3, #1
   105f4:	e50b2018 	str	r2, [fp, #-24]	; 0xffffffe8
   105f8:	e3530000 	cmp	r3, #0
   105fc:	1afffff4 	bne	105d4 <memset+0x24>
   10600:	e51b3010 	ldr	r3, [fp, #-16]
   10604:	e1a00003 	mov	r0, r3
   10608:	e28bd000 	add	sp, fp, #0
   1060c:	e49db004 	pop	{fp}		; (ldr fp, [sp], #4)
   10610:	e12fff1e 	bx	lr

00010614 <memcpy>:
   10614:	e52db004 	push	{fp}		; (str fp, [sp, #-4]!)
   10618:	e28db000 	add	fp, sp, #0
   1061c:	e24dd01c 	sub	sp, sp, #28
   10620:	e50b0010 	str	r0, [fp, #-16]
   10624:	e50b1014 	str	r1, [fp, #-20]	; 0xffffffec
   10628:	e50b2018 	str	r2, [fp, #-24]	; 0xffffffe8
   1062c:	e51b3010 	ldr	r3, [fp, #-16]
   10630:	e50b3008 	str	r3, [fp, #-8]
   10634:	e51b3014 	ldr	r3, [fp, #-20]	; 0xffffffec
   10638:	e50b300c 	str	r3, [fp, #-12]
   1063c:	ea000007 	b	10660 <memcpy+0x4c>
   10640:	e51b200c 	ldr	r2, [fp, #-12]
   10644:	e2823001 	add	r3, r2, #1
   10648:	e50b300c 	str	r3, [fp, #-12]
   1064c:	e51b3008 	ldr	r3, [fp, #-8]
   10650:	e2831001 	add	r1, r3, #1
   10654:	e50b1008 	str	r1, [fp, #-8]
   10658:	e5d22000 	ldrb	r2, [r2]
   1065c:	e5c32000 	strb	r2, [r3]
   10660:	e51b3018 	ldr	r3, [fp, #-24]	; 0xffffffe8
   10664:	e2432001 	sub	r2, r3, #1
   10668:	e50b2018 	str	r2, [fp, #-24]	; 0xffffffe8
   1066c:	e3530000 	cmp	r3, #0
   10670:	1afffff2 	bne	10640 <memcpy+0x2c>
   10674:	e51b3010 	ldr	r3, [fp, #-16]
   10678:	e1a00003 	mov	r0, r3
   1067c:	e28bd000 	add	sp, fp, #0
   10680:	e49db004 	pop	{fp}		; (ldr fp, [sp], #4)
   10684:	e12fff1e 	bx	lr

00010688 <memmove>:
   10688:	e52db004 	push	{fp}		; (str fp, [sp, #-4]!)
   1068c:	e28db000 	add	fp, sp, #0
   10690:	e24dd01c 	sub	sp, sp, #28
   10694:	e50b0010 	str	r0, [fp, #-16]
   10698:	e50b1014 	str	r1, [fp, #-20]	; 0xffffffec
   1069c:	e50b2018 	str	r2, [fp, #-24]	; 0xffffffe8
   106a0:	e51b3010 	ldr	r3, [fp, #-16]
   106a4:	e50b3008 	str	r3, [fp, #-8]
   106a8:	e51b3014 	ldr	r3, [fp, #-20]	; 0xffffffec
   106ac:	e50b300c 	str	r3, [fp, #-12]
   106b0:	e51b2008 	ldr	r2, [fp, #-8]
   106b4:	e51b300c 	ldr	r3, [fp, #-12]
   106b8:	e1520003 	cmp	r2, r3
   106bc:	9a000026 	bls	1075c <memmove+0xd4>
   106c0:	e51b200c 	ldr	r2, [fp, #-12]
   106c4:	e51b3018 	ldr	r3, [fp, #-24]	; 0xffffffe8
   106c8:	e0823003 	add	r3, r2, r3
   106cc:	e51b2008 	ldr	r2, [fp, #-8]
   106d0:	e1520003 	cmp	r2, r3
   106d4:	2a000020 	bcs	1075c <memmove+0xd4>
   106d8:	e51b2008 	ldr	r2, [fp, #-8]
   106dc:	e51b3018 	ldr	r3, [fp, #-24]	; 0xffffffe8
   106e0:	e0823003 	add	r3, r2, r3
   106e4:	e50b3008 	str	r3, [fp, #-8]
   106e8:	e51b200c 	ldr	r2, [fp, #-12]
   106ec:	e51b3018 	ldr	r3, [fp, #-24]	; 0xffffffe8
   106f0:	e0823003 	add	r3, r2, r3
   106f4:	e50b300c 	str	r3, [fp, #-12]
   106f8:	ea000009 	b	10724 <memmove+0x9c>
   106fc:	e51b300c 	ldr	r3, [fp, #-12]
   10700:	e2433001 	sub	r3, r3, #1
   10704:	e50b300c 	str	r3, [fp, #-12]
   10708:	e51b3008 	ldr	r3, [fp, #-8]
   1070c:	e2433001 	sub	r3, r3, #1
   10710:	e50b3008 	str	r3, [fp, #-8]
   10714:	e51b300c 	ldr	r3, [fp, #-12]
   10718:	e5d32000 	ldrb	r2, [r3]
   1071c:	e51b3008 	ldr	r3, [fp, #-8]
   10720:	e5c32000 	strb	r2, [r3]
   10724:	e51b3018 	ldr	r3, [fp, #-24]	; 0xffffffe8
   10728:	e2432001 	sub	r2, r3, #1
   1072c:	e50b2018 	str	r2, [fp, #-24]	; 0xffffffe8
   10730:	e3530000 	cmp	r3, #0
   10734:	1afffff0 	bne	106fc <memmove+0x74>
   10738:	ea00000c 	b	10770 <memmove+0xe8>
   1073c:	e51b200c 	ldr	r2, [fp, #-12]
   10740:	e2823001 	add	r3, r2, #1
   10744:	e50b300c 	str	r3, [fp, #-12]
   10748:	e51b3008 	ldr	r3, [fp, #-8]
   1074c:	e2831001 	add	r1, r3, #1
   10750:	e50b1008 	str	r1, [fp, #-8]
   10754:	e5d22000 	ldrb	r2, [r2]
   10758:	e5c32000 	strb	r2, [r3]
   1075c:	e51b3018 	ldr	r3, [fp, #-24]	; 0xffffffe8
   10760:	e2432001 	sub	r2, r3, #1
   10764:	e50b2018 	str	r2, [fp, #-24]	; 0xffffffe8
   10768:	e3530000 	cmp	r3, #0
   1076c:	1afffff2 	bne	1073c <memmove+0xb4>
   10770:	e51b3010 	ldr	r3, [fp, #-16]
   10774:	e1a00003 	mov	r0, r3
   10778:	e28bd000 	add	sp, fp, #0
   1077c:	e49db004 	pop	{fp}		; (ldr fp, [sp], #4)
   10780:	e12fff1e 	bx	lr

00010784 <wipememory>:
   10784:	e52db004 	push	{fp}		; (str fp, [sp, #-4]!)
   10788:	e28db000 	add	fp, sp, #0
   1078c:	e24dd014 	sub	sp, sp, #20
   10790:	e50b0010 	str	r0, [fp, #-16]
   10794:	e50b1014 	str	r1, [fp, #-20]	; 0xffffffec
   10798:	e51b3010 	ldr	r3, [fp, #-16]
   1079c:	e50b3008 	str	r3, [fp, #-8]
   107a0:	ea000004 	b	107b8 <wipememory+0x34>
   107a4:	e51b3008 	ldr	r3, [fp, #-8]
   107a8:	e2832001 	add	r2, r3, #1
   107ac:	e50b2008 	str	r2, [fp, #-8]
   107b0:	e3a02000 	mov	r2, #0
   107b4:	e5c32000 	strb	r2, [r3]
   107b8:	e51b3014 	ldr	r3, [fp, #-20]	; 0xffffffec
   107bc:	e2432001 	sub	r2, r3, #1
   107c0:	e50b2014 	str	r2, [fp, #-20]	; 0xffffffec
   107c4:	e3530000 	cmp	r3, #0
   107c8:	1afffff5 	bne	107a4 <wipememory+0x20>
   107cc:	e320f000 	nop	{0}
   107d0:	e320f000 	nop	{0}
   107d4:	e28bd000 	add	sp, fp, #0
   107d8:	e49db004 	pop	{fp}		; (ldr fp, [sp], #4)
   107dc:	e12fff1e 	bx	lr

000107e0 <strcpy>:
   107e0:	e52db004 	push	{fp}		; (str fp, [sp, #-4]!)
   107e4:	e28db000 	add	fp, sp, #0
   107e8:	e24dd00c 	sub	sp, sp, #12
   107ec:	e50b0008 	str	r0, [fp, #-8]
   107f0:	e50b100c 	str	r1, [fp, #-12]
   107f4:	e320f000 	nop	{0}
   107f8:	e51b200c 	ldr	r2, [fp, #-12]
   107fc:	e2823001 	add	r3, r2, #1
   10800:	e50b300c 	str	r3, [fp, #-12]
   10804:	e51b3008 	ldr	r3, [fp, #-8]
   10808:	e2831001 	add	r1, r3, #1
   1080c:	e50b1008 	str	r1, [fp, #-8]
   10810:	e5d22000 	ldrb	r2, [r2]
   10814:	e5c32000 	strb	r2, [r3]
   10818:	e5d33000 	ldrb	r3, [r3]
   1081c:	e3530000 	cmp	r3, #0
   10820:	1afffff4 	bne	107f8 <strcpy+0x18>
   10824:	e320f000 	nop	{0}
   10828:	e320f000 	nop	{0}
   1082c:	e28bd000 	add	sp, fp, #0
   10830:	e49db004 	pop	{fp}		; (ldr fp, [sp], #4)
   10834:	e12fff1e 	bx	lr

00010838 <xtrycalloc>:
   10838:	e92d4800 	push	{fp, lr}
   1083c:	e28db004 	add	fp, sp, #4
   10840:	e24dd010 	sub	sp, sp, #16
   10844:	e50b0010 	str	r0, [fp, #-16]
   10848:	e50b1014 	str	r1, [fp, #-20]	; 0xffffffec
   1084c:	e51b3010 	ldr	r3, [fp, #-16]
   10850:	e3530000 	cmp	r3, #0
   10854:	0a00000c 	beq	1088c <xtrycalloc+0x54>
   10858:	e51b3014 	ldr	r3, [fp, #-20]	; 0xffffffec
   1085c:	e3530000 	cmp	r3, #0
   10860:	0a000009 	beq	1088c <xtrycalloc+0x54>
   10864:	e51b3010 	ldr	r3, [fp, #-16]
   10868:	e51b2014 	ldr	r2, [fp, #-20]	; 0xffffffec
   1086c:	e0020392 	mul	r2, r2, r3
   10870:	e51b3010 	ldr	r3, [fp, #-16]
   10874:	e733f312 	udiv	r3, r2, r3
   10878:	e51b2014 	ldr	r2, [fp, #-20]	; 0xffffffec
   1087c:	e1520003 	cmp	r2, r3
   10880:	0a000001 	beq	1088c <xtrycalloc+0x54>
   10884:	e3a03000 	mov	r3, #0
   10888:	ea00000e 	b	108c8 <xtrycalloc+0x90>
   1088c:	e51b3010 	ldr	r3, [fp, #-16]
   10890:	e51b2014 	ldr	r2, [fp, #-20]	; 0xffffffec
   10894:	e0030392 	mul	r3, r2, r3
   10898:	e50b3008 	str	r3, [fp, #-8]
   1089c:	e51b0008 	ldr	r0, [fp, #-8]
   108a0:	ebfffe13 	bl	100f4 <malloc>
   108a4:	e50b000c 	str	r0, [fp, #-12]
   108a8:	e51b300c 	ldr	r3, [fp, #-12]
   108ac:	e3530000 	cmp	r3, #0
   108b0:	0a000003 	beq	108c4 <xtrycalloc+0x8c>
   108b4:	e51b2008 	ldr	r2, [fp, #-8]
   108b8:	e3a01000 	mov	r1, #0
   108bc:	e51b000c 	ldr	r0, [fp, #-12]
   108c0:	ebffff3a 	bl	105b0 <memset>
   108c4:	e51b300c 	ldr	r3, [fp, #-12]
   108c8:	e1a00003 	mov	r0, r3
   108cc:	e24bd004 	sub	sp, fp, #4
   108d0:	e8bd8800 	pop	{fp, pc}

000108d4 <open>:
   108d4:	e92d000e 	push	{r1, r2, r3}
   108d8:	e92d4800 	push	{fp, lr}
   108dc:	e28db004 	add	fp, sp, #4
   108e0:	e24dd00c 	sub	sp, sp, #12
   108e4:	e50b000c 	str	r0, [fp, #-12]
   108e8:	e305137c 	movw	r1, #21372	; 0x537c
   108ec:	e3401001 	movt	r1, #1
   108f0:	e51b000c 	ldr	r0, [fp, #-12]
   108f4:	eb00002c 	bl	109ac <strcmp>
   108f8:	e1a03000 	mov	r3, r0
   108fc:	e3530000 	cmp	r3, #0
   10900:	1a000001 	bne	1090c <open+0x38>
   10904:	e3a03001 	mov	r3, #1
   10908:	ea000009 	b	10934 <open+0x60>
   1090c:	e3051384 	movw	r1, #21380	; 0x5384
   10910:	e3401001 	movt	r1, #1
   10914:	e51b000c 	ldr	r0, [fp, #-12]
   10918:	eb000023 	bl	109ac <strcmp>
   1091c:	e1a03000 	mov	r3, r0
   10920:	e3530000 	cmp	r3, #0
   10924:	1a000001 	bne	10930 <open+0x5c>
   10928:	e3a03000 	mov	r3, #0
   1092c:	ea000000 	b	10934 <open+0x60>
   10930:	e3e03000 	mvn	r3, #0
   10934:	e1a00003 	mov	r0, r3
   10938:	e24bd004 	sub	sp, fp, #4
   1093c:	e8bd4800 	pop	{fp, lr}
   10940:	e28dd00c 	add	sp, sp, #12
   10944:	e12fff1e 	bx	lr

00010948 <strchr>:
   10948:	e52db004 	push	{fp}		; (str fp, [sp, #-4]!)
   1094c:	e28db000 	add	fp, sp, #0
   10950:	e24dd00c 	sub	sp, sp, #12
   10954:	e50b0008 	str	r0, [fp, #-8]
   10958:	e50b100c 	str	r1, [fp, #-12]
   1095c:	ea000007 	b	10980 <strchr+0x38>
   10960:	e51b3008 	ldr	r3, [fp, #-8]
   10964:	e2832001 	add	r2, r3, #1
   10968:	e50b2008 	str	r2, [fp, #-8]
   1096c:	e5d33000 	ldrb	r3, [r3]
   10970:	e3530000 	cmp	r3, #0
   10974:	1a000001 	bne	10980 <strchr+0x38>
   10978:	e3a03000 	mov	r3, #0
   1097c:	ea000006 	b	1099c <strchr+0x54>
   10980:	e51b3008 	ldr	r3, [fp, #-8]
   10984:	e5d32000 	ldrb	r2, [r3]
   10988:	e51b300c 	ldr	r3, [fp, #-12]
   1098c:	e6ef3073 	uxtb	r3, r3
   10990:	e1520003 	cmp	r2, r3
   10994:	1afffff1 	bne	10960 <strchr+0x18>
   10998:	e51b3008 	ldr	r3, [fp, #-8]
   1099c:	e1a00003 	mov	r0, r3
   109a0:	e28bd000 	add	sp, fp, #0
   109a4:	e49db004 	pop	{fp}		; (ldr fp, [sp], #4)
   109a8:	e12fff1e 	bx	lr

000109ac <strcmp>:
   109ac:	e52db004 	push	{fp}		; (str fp, [sp, #-4]!)
   109b0:	e28db000 	add	fp, sp, #0
   109b4:	e24dd00c 	sub	sp, sp, #12
   109b8:	e50b0008 	str	r0, [fp, #-8]
   109bc:	e50b100c 	str	r1, [fp, #-12]
   109c0:	ea000005 	b	109dc <strcmp+0x30>
   109c4:	e51b3008 	ldr	r3, [fp, #-8]
   109c8:	e2833001 	add	r3, r3, #1
   109cc:	e50b3008 	str	r3, [fp, #-8]
   109d0:	e51b300c 	ldr	r3, [fp, #-12]
   109d4:	e2833001 	add	r3, r3, #1
   109d8:	e50b300c 	str	r3, [fp, #-12]
   109dc:	e51b3008 	ldr	r3, [fp, #-8]
   109e0:	e5d33000 	ldrb	r3, [r3]
   109e4:	e3530000 	cmp	r3, #0
   109e8:	0a000005 	beq	10a04 <strcmp+0x58>
   109ec:	e51b3008 	ldr	r3, [fp, #-8]
   109f0:	e5d32000 	ldrb	r2, [r3]
   109f4:	e51b300c 	ldr	r3, [fp, #-12]
   109f8:	e5d33000 	ldrb	r3, [r3]
   109fc:	e1520003 	cmp	r2, r3
   10a00:	0affffef 	beq	109c4 <strcmp+0x18>
   10a04:	e51b3008 	ldr	r3, [fp, #-8]
   10a08:	e5d33000 	ldrb	r3, [r3]
   10a0c:	e1a02003 	mov	r2, r3
   10a10:	e51b300c 	ldr	r3, [fp, #-12]
   10a14:	e5d33000 	ldrb	r3, [r3]
   10a18:	e0423003 	sub	r3, r2, r3
   10a1c:	e1a00003 	mov	r0, r3
   10a20:	e28bd000 	add	sp, fp, #0
   10a24:	e49db004 	pop	{fp}		; (ldr fp, [sp], #4)
   10a28:	e12fff1e 	bx	lr

00010a2c <strdup>:
   10a2c:	e92d4800 	push	{fp, lr}
   10a30:	e28db004 	add	fp, sp, #4
   10a34:	e24dd010 	sub	sp, sp, #16
   10a38:	e50b0010 	str	r0, [fp, #-16]
   10a3c:	e51b0010 	ldr	r0, [fp, #-16]
   10a40:	eb000c92 	bl	13c90 <strlen>
   10a44:	e1a03000 	mov	r3, r0
   10a48:	e2833001 	add	r3, r3, #1
   10a4c:	e50b3008 	str	r3, [fp, #-8]
   10a50:	e51b0008 	ldr	r0, [fp, #-8]
   10a54:	ebfffda6 	bl	100f4 <malloc>
   10a58:	e50b000c 	str	r0, [fp, #-12]
   10a5c:	e51b300c 	ldr	r3, [fp, #-12]
   10a60:	e3530000 	cmp	r3, #0
   10a64:	0a000003 	beq	10a78 <strdup+0x4c>
   10a68:	e51b2008 	ldr	r2, [fp, #-8]
   10a6c:	e51b1010 	ldr	r1, [fp, #-16]
   10a70:	e51b000c 	ldr	r0, [fp, #-12]
   10a74:	ebfffee6 	bl	10614 <memcpy>
   10a78:	e51b300c 	ldr	r3, [fp, #-12]
   10a7c:	e1a00003 	mov	r0, r3
   10a80:	e24bd004 	sub	sp, fp, #4
   10a84:	e8bd8800 	pop	{fp, pc}

00010a88 <xstrdup>:
   10a88:	e92d4800 	push	{fp, lr}
   10a8c:	e28db004 	add	fp, sp, #4
   10a90:	e24dd010 	sub	sp, sp, #16
   10a94:	e50b0010 	str	r0, [fp, #-16]
   10a98:	e51b0010 	ldr	r0, [fp, #-16]
   10a9c:	ebffffe2 	bl	10a2c <strdup>
   10aa0:	e50b0008 	str	r0, [fp, #-8]
   10aa4:	e51b3008 	ldr	r3, [fp, #-8]
   10aa8:	e3530000 	cmp	r3, #0
   10aac:	1a000000 	bne	10ab4 <xstrdup+0x2c>
   10ab0:	eafffffe 	b	10ab0 <xstrdup+0x28>
   10ab4:	e51b3008 	ldr	r3, [fp, #-8]
   10ab8:	e1a00003 	mov	r0, r3
   10abc:	e24bd004 	sub	sp, fp, #4
   10ac0:	e8bd8800 	pop	{fp, pc}

00010ac4 <gpg_err_make>:
   10ac4:	e52db004 	push	{fp}		; (str fp, [sp, #-4]!)
   10ac8:	e28db000 	add	fp, sp, #0
   10acc:	e24dd00c 	sub	sp, sp, #12
   10ad0:	e1a03000 	mov	r3, r0
   10ad4:	e50b100c 	str	r1, [fp, #-12]
   10ad8:	e54b3005 	strb	r3, [fp, #-5]
   10adc:	e51b300c 	ldr	r3, [fp, #-12]
   10ae0:	e3530000 	cmp	r3, #0
   10ae4:	0a000006 	beq	10b04 <gpg_err_make+0x40>
   10ae8:	e55b3005 	ldrb	r3, [fp, #-5]
   10aec:	e1a03c03 	lsl	r3, r3, #24
   10af0:	e203247f 	and	r2, r3, #2130706432	; 0x7f000000
   10af4:	e51b300c 	ldr	r3, [fp, #-12]
   10af8:	e6ff3073 	uxth	r3, r3
   10afc:	e1823003 	orr	r3, r2, r3
   10b00:	ea000000 	b	10b08 <gpg_err_make+0x44>
   10b04:	e3a03000 	mov	r3, #0
   10b08:	e1a00003 	mov	r0, r3
   10b0c:	e28bd000 	add	sp, fp, #0
   10b10:	e49db004 	pop	{fp}		; (ldr fp, [sp], #4)
   10b14:	e12fff1e 	bx	lr

00010b18 <gpg_error>:
   10b18:	e92d4800 	push	{fp, lr}
   10b1c:	e28db004 	add	fp, sp, #4
   10b20:	e24dd008 	sub	sp, sp, #8
   10b24:	e50b0008 	str	r0, [fp, #-8]
   10b28:	e51b1008 	ldr	r1, [fp, #-8]
   10b2c:	e3a00002 	mov	r0, #2
   10b30:	ebffffe3 	bl	10ac4 <gpg_err_make>
   10b34:	e1a03000 	mov	r3, r0
   10b38:	e1a00003 	mov	r0, r3
   10b3c:	e24bd004 	sub	sp, fp, #4
   10b40:	e8bd8800 	pop	{fp, pc}

00010b44 <gpg_err_code>:
   10b44:	e52db004 	push	{fp}		; (str fp, [sp, #-4]!)
   10b48:	e28db000 	add	fp, sp, #0
   10b4c:	e24dd00c 	sub	sp, sp, #12
   10b50:	e50b0008 	str	r0, [fp, #-8]
   10b54:	e51b3008 	ldr	r3, [fp, #-8]
   10b58:	e6ff3073 	uxth	r3, r3
   10b5c:	e1a00003 	mov	r0, r3
   10b60:	e28bd000 	add	sp, fp, #0
   10b64:	e49db004 	pop	{fp}		; (ldr fp, [sp], #4)
   10b68:	e12fff1e 	bx	lr

00010b6c <buf32_to_ulong>:
   10b6c:	e52db004 	push	{fp}		; (str fp, [sp, #-4]!)
   10b70:	e28db000 	add	fp, sp, #0
   10b74:	e24dd014 	sub	sp, sp, #20
   10b78:	e50b0010 	str	r0, [fp, #-16]
   10b7c:	e51b3010 	ldr	r3, [fp, #-16]
   10b80:	e50b3008 	str	r3, [fp, #-8]
   10b84:	e51b3008 	ldr	r3, [fp, #-8]
   10b88:	e5d33000 	ldrb	r3, [r3]
   10b8c:	e1a03c03 	lsl	r3, r3, #24
   10b90:	e51b2008 	ldr	r2, [fp, #-8]
   10b94:	e2822001 	add	r2, r2, #1
   10b98:	e5d22000 	ldrb	r2, [r2]
   10b9c:	e1a02802 	lsl	r2, r2, #16
   10ba0:	e1833002 	orr	r3, r3, r2
   10ba4:	e51b2008 	ldr	r2, [fp, #-8]
   10ba8:	e2822002 	add	r2, r2, #2
   10bac:	e5d22000 	ldrb	r2, [r2]
   10bb0:	e1a02402 	lsl	r2, r2, #8
   10bb4:	e1833002 	orr	r3, r3, r2
   10bb8:	e51b2008 	ldr	r2, [fp, #-8]
   10bbc:	e2822003 	add	r2, r2, #3
   10bc0:	e5d22000 	ldrb	r2, [r2]
   10bc4:	e1833002 	orr	r3, r3, r2
   10bc8:	e1a00003 	mov	r0, r3
   10bcc:	e28bd000 	add	sp, fp, #0
   10bd0:	e49db004 	pop	{fp}		; (ldr fp, [sp], #4)
   10bd4:	e12fff1e 	bx	lr

00010bd8 <read_32>:
   10bd8:	e92d4800 	push	{fp, lr}
   10bdc:	e28db004 	add	fp, sp, #4
   10be0:	e24dd010 	sub	sp, sp, #16
   10be4:	e50b0010 	str	r0, [fp, #-16]
   10be8:	e51b3010 	ldr	r3, [fp, #-16]
   10bec:	e5933010 	ldr	r3, [r3, #16]
   10bf0:	e3530000 	cmp	r3, #0
   10bf4:	1a000005 	bne	10c10 <read_32+0x38>
   10bf8:	e51b3010 	ldr	r3, [fp, #-16]
   10bfc:	e5932018 	ldr	r2, [r3, #24]
   10c00:	e51b3010 	ldr	r3, [fp, #-16]
   10c04:	e593301c 	ldr	r3, [r3, #28]
   10c08:	e1520003 	cmp	r2, r3
   10c0c:	3a000004 	bcc	10c24 <read_32+0x4c>
   10c10:	e51b0010 	ldr	r0, [fp, #-16]
   10c14:	ebffe613 	bl	a468 <iobuf_readbyte>
   10c18:	e1a03000 	mov	r3, r0
   10c1c:	e1a03c03 	lsl	r3, r3, #24
   10c20:	ea00000e 	b	10c60 <read_32+0x88>
   10c24:	e51b3010 	ldr	r3, [fp, #-16]
   10c28:	e5933008 	ldr	r3, [r3, #8]
   10c2c:	e2832001 	add	r2, r3, #1
   10c30:	e51b3010 	ldr	r3, [fp, #-16]
   10c34:	e5832008 	str	r2, [r3, #8]
   10c38:	e51b3010 	ldr	r3, [fp, #-16]
   10c3c:	e5932020 	ldr	r2, [r3, #32]
   10c40:	e51b3010 	ldr	r3, [fp, #-16]
   10c44:	e5933018 	ldr	r3, [r3, #24]
   10c48:	e2830001 	add	r0, r3, #1
   10c4c:	e51b1010 	ldr	r1, [fp, #-16]
   10c50:	e5810018 	str	r0, [r1, #24]
   10c54:	e0823003 	add	r3, r2, r3
   10c58:	e5d33000 	ldrb	r3, [r3]
   10c5c:	e1a03c03 	lsl	r3, r3, #24
   10c60:	e50b3008 	str	r3, [fp, #-8]
   10c64:	e51b3010 	ldr	r3, [fp, #-16]
   10c68:	e5933010 	ldr	r3, [r3, #16]
   10c6c:	e3530000 	cmp	r3, #0
   10c70:	1a000005 	bne	10c8c <read_32+0xb4>
   10c74:	e51b3010 	ldr	r3, [fp, #-16]
   10c78:	e5932018 	ldr	r2, [r3, #24]
   10c7c:	e51b3010 	ldr	r3, [fp, #-16]
   10c80:	e593301c 	ldr	r3, [r3, #28]
   10c84:	e1520003 	cmp	r2, r3
   10c88:	3a000005 	bcc	10ca4 <read_32+0xcc>
   10c8c:	e51b0010 	ldr	r0, [fp, #-16]
   10c90:	ebffe5f4 	bl	a468 <iobuf_readbyte>
   10c94:	e1a03000 	mov	r3, r0
   10c98:	e1a03803 	lsl	r3, r3, #16
   10c9c:	e20338ff 	and	r3, r3, #16711680	; 0xff0000
   10ca0:	ea00000e 	b	10ce0 <read_32+0x108>
   10ca4:	e51b3010 	ldr	r3, [fp, #-16]
   10ca8:	e5933008 	ldr	r3, [r3, #8]
   10cac:	e2832001 	add	r2, r3, #1
   10cb0:	e51b3010 	ldr	r3, [fp, #-16]
   10cb4:	e5832008 	str	r2, [r3, #8]
   10cb8:	e51b3010 	ldr	r3, [fp, #-16]
   10cbc:	e5932020 	ldr	r2, [r3, #32]
   10cc0:	e51b3010 	ldr	r3, [fp, #-16]
   10cc4:	e5933018 	ldr	r3, [r3, #24]
   10cc8:	e2830001 	add	r0, r3, #1
   10ccc:	e51b1010 	ldr	r1, [fp, #-16]
   10cd0:	e5810018 	str	r0, [r1, #24]
   10cd4:	e0823003 	add	r3, r2, r3
   10cd8:	e5d33000 	ldrb	r3, [r3]
   10cdc:	e1a03803 	lsl	r3, r3, #16
   10ce0:	e1a02003 	mov	r2, r3
   10ce4:	e51b3008 	ldr	r3, [fp, #-8]
   10ce8:	e1833002 	orr	r3, r3, r2
   10cec:	e50b3008 	str	r3, [fp, #-8]
   10cf0:	e51b3010 	ldr	r3, [fp, #-16]
   10cf4:	e5933010 	ldr	r3, [r3, #16]
   10cf8:	e3530000 	cmp	r3, #0
   10cfc:	1a000005 	bne	10d18 <read_32+0x140>
   10d00:	e51b3010 	ldr	r3, [fp, #-16]
   10d04:	e5932018 	ldr	r2, [r3, #24]
   10d08:	e51b3010 	ldr	r3, [fp, #-16]
   10d0c:	e593301c 	ldr	r3, [r3, #28]
   10d10:	e1520003 	cmp	r2, r3
   10d14:	3a000005 	bcc	10d30 <read_32+0x158>
   10d18:	e51b0010 	ldr	r0, [fp, #-16]
   10d1c:	ebffe5d1 	bl	a468 <iobuf_readbyte>
   10d20:	e1a03000 	mov	r3, r0
   10d24:	e1a03403 	lsl	r3, r3, #8
   10d28:	e2033cff 	and	r3, r3, #65280	; 0xff00
   10d2c:	ea00000e 	b	10d6c <read_32+0x194>
   10d30:	e51b3010 	ldr	r3, [fp, #-16]
   10d34:	e5933008 	ldr	r3, [r3, #8]
   10d38:	e2832001 	add	r2, r3, #1
   10d3c:	e51b3010 	ldr	r3, [fp, #-16]
   10d40:	e5832008 	str	r2, [r3, #8]
   10d44:	e51b3010 	ldr	r3, [fp, #-16]
   10d48:	e5932020 	ldr	r2, [r3, #32]
   10d4c:	e51b3010 	ldr	r3, [fp, #-16]
   10d50:	e5933018 	ldr	r3, [r3, #24]
   10d54:	e2830001 	add	r0, r3, #1
   10d58:	e51b1010 	ldr	r1, [fp, #-16]
   10d5c:	e5810018 	str	r0, [r1, #24]
   10d60:	e0823003 	add	r3, r2, r3
   10d64:	e5d33000 	ldrb	r3, [r3]
   10d68:	e1a03403 	lsl	r3, r3, #8
   10d6c:	e1a02003 	mov	r2, r3
   10d70:	e51b3008 	ldr	r3, [fp, #-8]
   10d74:	e1833002 	orr	r3, r3, r2
   10d78:	e50b3008 	str	r3, [fp, #-8]
   10d7c:	e51b3010 	ldr	r3, [fp, #-16]
   10d80:	e5933010 	ldr	r3, [r3, #16]
   10d84:	e3530000 	cmp	r3, #0
   10d88:	1a000005 	bne	10da4 <read_32+0x1cc>
   10d8c:	e51b3010 	ldr	r3, [fp, #-16]
   10d90:	e5932018 	ldr	r2, [r3, #24]
   10d94:	e51b3010 	ldr	r3, [fp, #-16]
   10d98:	e593301c 	ldr	r3, [r3, #28]
   10d9c:	e1520003 	cmp	r2, r3
   10da0:	3a000004 	bcc	10db8 <read_32+0x1e0>
   10da4:	e51b0010 	ldr	r0, [fp, #-16]
   10da8:	ebffe5ae 	bl	a468 <iobuf_readbyte>
   10dac:	e1a03000 	mov	r3, r0
   10db0:	e6ef3073 	uxtb	r3, r3
   10db4:	ea00000d 	b	10df0 <read_32+0x218>
   10db8:	e51b3010 	ldr	r3, [fp, #-16]
   10dbc:	e5933008 	ldr	r3, [r3, #8]
   10dc0:	e2832001 	add	r2, r3, #1
   10dc4:	e51b3010 	ldr	r3, [fp, #-16]
   10dc8:	e5832008 	str	r2, [r3, #8]
   10dcc:	e51b3010 	ldr	r3, [fp, #-16]
   10dd0:	e5932020 	ldr	r2, [r3, #32]
   10dd4:	e51b3010 	ldr	r3, [fp, #-16]
   10dd8:	e5933018 	ldr	r3, [r3, #24]
   10ddc:	e2830001 	add	r0, r3, #1
   10de0:	e51b1010 	ldr	r1, [fp, #-16]
   10de4:	e5810018 	str	r0, [r1, #24]
   10de8:	e0823003 	add	r3, r2, r3
   10dec:	e5d33000 	ldrb	r3, [r3]
   10df0:	e1a02003 	mov	r2, r3
   10df4:	e51b3008 	ldr	r3, [fp, #-8]
   10df8:	e1833002 	orr	r3, r3, r2
   10dfc:	e50b3008 	str	r3, [fp, #-8]
   10e00:	e51b3008 	ldr	r3, [fp, #-8]
   10e04:	e1a00003 	mov	r0, r3
   10e08:	e24bd004 	sub	sp, fp, #4
   10e0c:	e8bd8800 	pop	{fp, pc}

00010e10 <dbg_parse_packet>:
   10e10:	e92d4800 	push	{fp, lr}
   10e14:	e28db004 	add	fp, sp, #4
   10e18:	e24dd030 	sub	sp, sp, #48	; 0x30
   10e1c:	e50b0010 	str	r0, [fp, #-16]
   10e20:	e50b1014 	str	r1, [fp, #-20]	; 0xffffffec
   10e24:	e50b2018 	str	r2, [fp, #-24]	; 0xffffffe8
   10e28:	e50b301c 	str	r3, [fp, #-28]	; 0xffffffe4
   10e2c:	e51b301c 	ldr	r3, [fp, #-28]	; 0xffffffe4
   10e30:	e58d3014 	str	r3, [sp, #20]
   10e34:	e51b3018 	ldr	r3, [fp, #-24]	; 0xffffffe8
   10e38:	e58d3010 	str	r3, [sp, #16]
   10e3c:	e305338c 	movw	r3, #21388	; 0x538c
   10e40:	e3403001 	movt	r3, #1
   10e44:	e58d300c 	str	r3, [sp, #12]
   10e48:	e3a03000 	mov	r3, #0
   10e4c:	e58d3008 	str	r3, [sp, #8]
   10e50:	e3a03000 	mov	r3, #0
   10e54:	e58d3004 	str	r3, [sp, #4]
   10e58:	e24b300c 	sub	r3, fp, #12
   10e5c:	e58d3000 	str	r3, [sp]
   10e60:	e3a03000 	mov	r3, #0
   10e64:	e3a02000 	mov	r2, #0
   10e68:	e51b1014 	ldr	r1, [fp, #-20]	; 0xffffffec
   10e6c:	e51b0010 	ldr	r0, [fp, #-16]
   10e70:	eb00000a 	bl	10ea0 <parse>
   10e74:	e50b0008 	str	r0, [fp, #-8]
   10e78:	e51b300c 	ldr	r3, [fp, #-12]
   10e7c:	e3530000 	cmp	r3, #0
   10e80:	0a000002 	beq	10e90 <dbg_parse_packet+0x80>
   10e84:	e51b3008 	ldr	r3, [fp, #-8]
   10e88:	e3530000 	cmp	r3, #0
   10e8c:	0affffe6 	beq	10e2c <dbg_parse_packet+0x1c>
   10e90:	e51b3008 	ldr	r3, [fp, #-8]
   10e94:	e1a00003 	mov	r0, r3
   10e98:	e24bd004 	sub	sp, fp, #4
   10e9c:	e8bd8800 	pop	{fp, pc}

00010ea0 <parse>:
   10ea0:	e92d4800 	push	{fp, lr}
   10ea4:	e28db004 	add	fp, sp, #4
   10ea8:	e24dd058 	sub	sp, sp, #88	; 0x58
   10eac:	e50b0048 	str	r0, [fp, #-72]	; 0xffffffb8
   10eb0:	e50b104c 	str	r1, [fp, #-76]	; 0xffffffb4
   10eb4:	e50b2050 	str	r2, [fp, #-80]	; 0xffffffb0
   10eb8:	e50b3054 	str	r3, [fp, #-84]	; 0xffffffac
   10ebc:	e3a03000 	mov	r3, #0
   10ec0:	e50b3008 	str	r3, [fp, #-8]
   10ec4:	e3a03000 	mov	r3, #0
   10ec8:	e50b3024 	str	r3, [fp, #-36]	; 0xffffffdc
   10ecc:	e3a03000 	mov	r3, #0
   10ed0:	e50b301c 	str	r3, [fp, #-28]	; 0xffffffe4
   10ed4:	e51b3050 	ldr	r3, [fp, #-80]	; 0xffffffb0
   10ed8:	e3530002 	cmp	r3, #2
   10edc:	03a03001 	moveq	r3, #1
   10ee0:	13a03000 	movne	r3, #0
   10ee4:	e6ef3073 	uxtb	r3, r3
   10ee8:	e50b3028 	str	r3, [fp, #-40]	; 0xffffffd8
   10eec:	e59b3004 	ldr	r3, [fp, #4]
   10ef0:	e3a02000 	mov	r2, #0
   10ef4:	e5832000 	str	r2, [r3]
   10ef8:	e51b3048 	ldr	r3, [fp, #-72]	; 0xffffffb8
   10efc:	e5933000 	ldr	r3, [r3]
   10f00:	e50b302c 	str	r3, [fp, #-44]	; 0xffffffd4
   10f04:	e51b3054 	ldr	r3, [fp, #-84]	; 0xffffffac
   10f08:	e3530000 	cmp	r3, #0
   10f0c:	1a000004 	bne	10f24 <parse+0x84>
   10f10:	e30e3010 	movw	r3, #57360	; 0xe010
   10f14:	e3403004 	movt	r3, #4
   10f18:	e5933000 	ldr	r3, [r3]
   10f1c:	e3530000 	cmp	r3, #0
   10f20:	0a00000e 	beq	10f60 <parse+0xc0>
   10f24:	e51b002c 	ldr	r0, [fp, #-44]	; 0xffffffd4
   10f28:	ebffe6bd 	bl	aa24 <iobuf_tell>
   10f2c:	e50b0030 	str	r0, [fp, #-48]	; 0xffffffd0
   10f30:	e51b3030 	ldr	r3, [fp, #-48]	; 0xffffffd0
   10f34:	e1a01003 	mov	r1, r3
   10f38:	e30503dc 	movw	r0, #21468	; 0x53dc
   10f3c:	e3400001 	movt	r0, #1
   10f40:	eb000b3e 	bl	13c40 <tfp_printf>
   10f44:	e51b3054 	ldr	r3, [fp, #-84]	; 0xffffffac
   10f48:	e3530000 	cmp	r3, #0
   10f4c:	0a000005 	beq	10f68 <parse+0xc8>
   10f50:	e51b3054 	ldr	r3, [fp, #-84]	; 0xffffffac
   10f54:	e51b2030 	ldr	r2, [fp, #-48]	; 0xffffffd0
   10f58:	e5832000 	str	r2, [r3]
   10f5c:	ea000001 	b	10f68 <parse+0xc8>
   10f60:	e3a03000 	mov	r3, #0
   10f64:	e50b3030 	str	r3, [fp, #-48]	; 0xffffffd0
   10f68:	e51b302c 	ldr	r3, [fp, #-44]	; 0xffffffd4
   10f6c:	e5933010 	ldr	r3, [r3, #16]
   10f70:	e3530000 	cmp	r3, #0
   10f74:	1a000005 	bne	10f90 <parse+0xf0>
   10f78:	e51b302c 	ldr	r3, [fp, #-44]	; 0xffffffd4
   10f7c:	e5932018 	ldr	r2, [r3, #24]
   10f80:	e51b302c 	ldr	r3, [fp, #-44]	; 0xffffffd4
   10f84:	e593301c 	ldr	r3, [r3, #28]
   10f88:	e1520003 	cmp	r2, r3
   10f8c:	3a000003 	bcc	10fa0 <parse+0x100>
   10f90:	e51b002c 	ldr	r0, [fp, #-44]	; 0xffffffd4
   10f94:	ebffe533 	bl	a468 <iobuf_readbyte>
   10f98:	e1a03000 	mov	r3, r0
   10f9c:	ea00000d 	b	10fd8 <parse+0x138>
   10fa0:	e51b302c 	ldr	r3, [fp, #-44]	; 0xffffffd4
   10fa4:	e5933008 	ldr	r3, [r3, #8]
   10fa8:	e2832001 	add	r2, r3, #1
   10fac:	e51b302c 	ldr	r3, [fp, #-44]	; 0xffffffd4
   10fb0:	e5832008 	str	r2, [r3, #8]
   10fb4:	e51b302c 	ldr	r3, [fp, #-44]	; 0xffffffd4
   10fb8:	e5932020 	ldr	r2, [r3, #32]
   10fbc:	e51b302c 	ldr	r3, [fp, #-44]	; 0xffffffd4
   10fc0:	e5933018 	ldr	r3, [r3, #24]
   10fc4:	e2830001 	add	r0, r3, #1
   10fc8:	e51b102c 	ldr	r1, [fp, #-44]	; 0xffffffd4
   10fcc:	e5810018 	str	r0, [r1, #24]
   10fd0:	e0823003 	add	r3, r2, r3
   10fd4:	e5d33000 	ldrb	r3, [r3]
   10fd8:	e50b3034 	str	r3, [fp, #-52]	; 0xffffffcc
   10fdc:	e51b3034 	ldr	r3, [fp, #-52]	; 0xffffffcc
   10fe0:	e3730001 	cmn	r3, #1
   10fe4:	1a000002 	bne	10ff4 <parse+0x154>
   10fe8:	e3e03000 	mvn	r3, #0
   10fec:	e50b3008 	str	r3, [fp, #-8]
   10ff0:	ea00023d 	b	118ec <parse+0xa4c>
   10ff4:	e3a03000 	mov	r3, #0
   10ff8:	e50b3018 	str	r3, [fp, #-24]	; 0xffffffe8
   10ffc:	e51b3018 	ldr	r3, [fp, #-24]	; 0xffffffe8
   11000:	e2832001 	add	r2, r3, #1
   11004:	e50b2018 	str	r2, [fp, #-24]	; 0xffffffe8
   11008:	e51b2034 	ldr	r2, [fp, #-52]	; 0xffffffcc
   1100c:	e6ef2072 	uxtb	r2, r2
   11010:	e2433004 	sub	r3, r3, #4
   11014:	e083300b 	add	r3, r3, fp
   11018:	e543203c 	strb	r2, [r3, #-60]	; 0xffffffc4
   1101c:	e51b3034 	ldr	r3, [fp, #-52]	; 0xffffffcc
   11020:	e2033080 	and	r3, r3, #128	; 0x80
   11024:	e3530000 	cmp	r3, #0
   11028:	1a00000a 	bne	11058 <parse+0x1b8>
   1102c:	e51b2034 	ldr	r2, [fp, #-52]	; 0xffffffcc
   11030:	e30513ec 	movw	r1, #21484	; 0x53ec
   11034:	e3401001 	movt	r1, #1
   11038:	e30503fc 	movw	r0, #21500	; 0x53fc
   1103c:	e3400001 	movt	r0, #1
   11040:	eb000afe 	bl	13c40 <tfp_printf>
   11044:	e3a0000e 	mov	r0, #14
   11048:	ebfffeb2 	bl	10b18 <gpg_error>
   1104c:	e1a03000 	mov	r3, r0
   11050:	e50b3008 	str	r3, [fp, #-8]
   11054:	ea000224 	b	118ec <parse+0xa4c>
   11058:	e3a03000 	mov	r3, #0
   1105c:	e50b3014 	str	r3, [fp, #-20]	; 0xffffffec
   11060:	e51b3034 	ldr	r3, [fp, #-52]	; 0xffffffcc
   11064:	e2033040 	and	r3, r3, #64	; 0x40
   11068:	e3530000 	cmp	r3, #0
   1106c:	13a03001 	movne	r3, #1
   11070:	03a03000 	moveq	r3, #0
   11074:	e6ef3073 	uxtb	r3, r3
   11078:	e50b3024 	str	r3, [fp, #-36]	; 0xffffffdc
   1107c:	e51b3024 	ldr	r3, [fp, #-36]	; 0xffffffdc
   11080:	e3530000 	cmp	r3, #0
   11084:	0a0000eb 	beq	11438 <parse+0x598>
   11088:	e51b3034 	ldr	r3, [fp, #-52]	; 0xffffffcc
   1108c:	e203303f 	and	r3, r3, #63	; 0x3f
   11090:	e50b300c 	str	r3, [fp, #-12]
   11094:	e51b302c 	ldr	r3, [fp, #-44]	; 0xffffffd4
   11098:	e5933010 	ldr	r3, [r3, #16]
   1109c:	e3530000 	cmp	r3, #0
   110a0:	1a000005 	bne	110bc <parse+0x21c>
   110a4:	e51b302c 	ldr	r3, [fp, #-44]	; 0xffffffd4
   110a8:	e5932018 	ldr	r2, [r3, #24]
   110ac:	e51b302c 	ldr	r3, [fp, #-44]	; 0xffffffd4
   110b0:	e593301c 	ldr	r3, [r3, #28]
   110b4:	e1520003 	cmp	r2, r3
   110b8:	3a000003 	bcc	110cc <parse+0x22c>
   110bc:	e51b002c 	ldr	r0, [fp, #-44]	; 0xffffffd4
   110c0:	ebffe4e8 	bl	a468 <iobuf_readbyte>
   110c4:	e1a03000 	mov	r3, r0
   110c8:	ea00000d 	b	11104 <parse+0x264>
   110cc:	e51b302c 	ldr	r3, [fp, #-44]	; 0xffffffd4
   110d0:	e5933008 	ldr	r3, [r3, #8]
   110d4:	e2832001 	add	r2, r3, #1
   110d8:	e51b302c 	ldr	r3, [fp, #-44]	; 0xffffffd4
   110dc:	e5832008 	str	r2, [r3, #8]
   110e0:	e51b302c 	ldr	r3, [fp, #-44]	; 0xffffffd4
   110e4:	e5932020 	ldr	r2, [r3, #32]
   110e8:	e51b302c 	ldr	r3, [fp, #-44]	; 0xffffffd4
   110ec:	e5933018 	ldr	r3, [r3, #24]
   110f0:	e2830001 	add	r0, r3, #1
   110f4:	e51b102c 	ldr	r1, [fp, #-44]	; 0xffffffd4
   110f8:	e5810018 	str	r0, [r1, #24]
   110fc:	e0823003 	add	r3, r2, r3
   11100:	e5d33000 	ldrb	r3, [r3]
   11104:	e50b3038 	str	r3, [fp, #-56]	; 0xffffffc8
   11108:	e51b3038 	ldr	r3, [fp, #-56]	; 0xffffffc8
   1110c:	e3730001 	cmn	r3, #1
   11110:	1a000009 	bne	1113c <parse+0x29c>
   11114:	e30513ec 	movw	r1, #21484	; 0x53ec
   11118:	e3401001 	movt	r1, #1
   1111c:	e305041c 	movw	r0, #21532	; 0x541c
   11120:	e3400001 	movt	r0, #1
   11124:	eb000ac5 	bl	13c40 <tfp_printf>
   11128:	e3a0000e 	mov	r0, #14
   1112c:	ebfffe79 	bl	10b18 <gpg_error>
   11130:	e1a03000 	mov	r3, r0
   11134:	e50b3008 	str	r3, [fp, #-8]
   11138:	ea0001eb 	b	118ec <parse+0xa4c>
   1113c:	e51b3018 	ldr	r3, [fp, #-24]	; 0xffffffe8
   11140:	e2832001 	add	r2, r3, #1
   11144:	e50b2018 	str	r2, [fp, #-24]	; 0xffffffe8
   11148:	e51b2038 	ldr	r2, [fp, #-56]	; 0xffffffc8
   1114c:	e6ef2072 	uxtb	r2, r2
   11150:	e2433004 	sub	r3, r3, #4
   11154:	e083300b 	add	r3, r3, fp
   11158:	e543203c 	strb	r2, [r3, #-60]	; 0xffffffc4
   1115c:	e51b3038 	ldr	r3, [fp, #-56]	; 0xffffffc8
   11160:	e35300bf 	cmp	r3, #191	; 0xbf
   11164:	ca000002 	bgt	11174 <parse+0x2d4>
   11168:	e51b3038 	ldr	r3, [fp, #-56]	; 0xffffffc8
   1116c:	e50b3014 	str	r3, [fp, #-20]	; 0xffffffec
   11170:	ea00011c 	b	115e8 <parse+0x748>
   11174:	e51b3038 	ldr	r3, [fp, #-56]	; 0xffffffc8
   11178:	e35300df 	cmp	r3, #223	; 0xdf
   1117c:	ca00003b 	bgt	11270 <parse+0x3d0>
   11180:	e51b3038 	ldr	r3, [fp, #-56]	; 0xffffffc8
   11184:	e24330c0 	sub	r3, r3, #192	; 0xc0
   11188:	e1a03403 	lsl	r3, r3, #8
   1118c:	e50b3014 	str	r3, [fp, #-20]	; 0xffffffec
   11190:	e51b302c 	ldr	r3, [fp, #-44]	; 0xffffffd4
   11194:	e5933010 	ldr	r3, [r3, #16]
   11198:	e3530000 	cmp	r3, #0
   1119c:	1a000005 	bne	111b8 <parse+0x318>
   111a0:	e51b302c 	ldr	r3, [fp, #-44]	; 0xffffffd4
   111a4:	e5932018 	ldr	r2, [r3, #24]
   111a8:	e51b302c 	ldr	r3, [fp, #-44]	; 0xffffffd4
   111ac:	e593301c 	ldr	r3, [r3, #28]
   111b0:	e1520003 	cmp	r2, r3
   111b4:	3a000003 	bcc	111c8 <parse+0x328>
   111b8:	e51b002c 	ldr	r0, [fp, #-44]	; 0xffffffd4
   111bc:	ebffe4a9 	bl	a468 <iobuf_readbyte>
   111c0:	e1a03000 	mov	r3, r0
   111c4:	ea00000d 	b	11200 <parse+0x360>
   111c8:	e51b302c 	ldr	r3, [fp, #-44]	; 0xffffffd4
   111cc:	e5933008 	ldr	r3, [r3, #8]
   111d0:	e2832001 	add	r2, r3, #1
   111d4:	e51b302c 	ldr	r3, [fp, #-44]	; 0xffffffd4
   111d8:	e5832008 	str	r2, [r3, #8]
   111dc:	e51b302c 	ldr	r3, [fp, #-44]	; 0xffffffd4
   111e0:	e5932020 	ldr	r2, [r3, #32]
   111e4:	e51b302c 	ldr	r3, [fp, #-44]	; 0xffffffd4
   111e8:	e5933018 	ldr	r3, [r3, #24]
   111ec:	e2830001 	add	r0, r3, #1
   111f0:	e51b102c 	ldr	r1, [fp, #-44]	; 0xffffffd4
   111f4:	e5810018 	str	r0, [r1, #24]
   111f8:	e0823003 	add	r3, r2, r3
   111fc:	e5d33000 	ldrb	r3, [r3]
   11200:	e50b3038 	str	r3, [fp, #-56]	; 0xffffffc8
   11204:	e51b3038 	ldr	r3, [fp, #-56]	; 0xffffffc8
   11208:	e3730001 	cmn	r3, #1
   1120c:	1a000009 	bne	11238 <parse+0x398>
   11210:	e30513ec 	movw	r1, #21484	; 0x53ec
   11214:	e3401001 	movt	r1, #1
   11218:	e305043c 	movw	r0, #21564	; 0x543c
   1121c:	e3400001 	movt	r0, #1
   11220:	eb000a86 	bl	13c40 <tfp_printf>
   11224:	e3a0000e 	mov	r0, #14
   11228:	ebfffe3a 	bl	10b18 <gpg_error>
   1122c:	e1a03000 	mov	r3, r0
   11230:	e50b3008 	str	r3, [fp, #-8]
   11234:	ea0001ac 	b	118ec <parse+0xa4c>
   11238:	e51b3018 	ldr	r3, [fp, #-24]	; 0xffffffe8
   1123c:	e2832001 	add	r2, r3, #1
   11240:	e50b2018 	str	r2, [fp, #-24]	; 0xffffffe8
   11244:	e51b2038 	ldr	r2, [fp, #-56]	; 0xffffffc8
   11248:	e6ef2072 	uxtb	r2, r2
   1124c:	e2433004 	sub	r3, r3, #4
   11250:	e083300b 	add	r3, r3, fp
   11254:	e543203c 	strb	r2, [r3, #-60]	; 0xffffffc4
   11258:	e51b2038 	ldr	r2, [fp, #-56]	; 0xffffffc8
   1125c:	e51b3014 	ldr	r3, [fp, #-20]	; 0xffffffec
   11260:	e0823003 	add	r3, r2, r3
   11264:	e28330c0 	add	r3, r3, #192	; 0xc0
   11268:	e50b3014 	str	r3, [fp, #-20]	; 0xffffffec
   1126c:	ea0000dd 	b	115e8 <parse+0x748>
   11270:	e51b3038 	ldr	r3, [fp, #-56]	; 0xffffffc8
   11274:	e35300ff 	cmp	r3, #255	; 0xff
   11278:	1a000047 	bne	1139c <parse+0x4fc>
   1127c:	e3a03000 	mov	r3, #0
   11280:	e50b3020 	str	r3, [fp, #-32]	; 0xffffffe0
   11284:	ea00003c 	b	1137c <parse+0x4dc>
   11288:	e51b302c 	ldr	r3, [fp, #-44]	; 0xffffffd4
   1128c:	e5933010 	ldr	r3, [r3, #16]
   11290:	e3530000 	cmp	r3, #0
   11294:	1a000005 	bne	112b0 <parse+0x410>
   11298:	e51b302c 	ldr	r3, [fp, #-44]	; 0xffffffd4
   1129c:	e5932018 	ldr	r2, [r3, #24]
   112a0:	e51b302c 	ldr	r3, [fp, #-44]	; 0xffffffd4
   112a4:	e593301c 	ldr	r3, [r3, #28]
   112a8:	e1520003 	cmp	r2, r3
   112ac:	3a000003 	bcc	112c0 <parse+0x420>
   112b0:	e51b002c 	ldr	r0, [fp, #-44]	; 0xffffffd4
   112b4:	ebffe46b 	bl	a468 <iobuf_readbyte>
   112b8:	e1a03000 	mov	r3, r0
   112bc:	ea00000d 	b	112f8 <parse+0x458>
   112c0:	e51b302c 	ldr	r3, [fp, #-44]	; 0xffffffd4
   112c4:	e5933008 	ldr	r3, [r3, #8]
   112c8:	e2832001 	add	r2, r3, #1
   112cc:	e51b302c 	ldr	r3, [fp, #-44]	; 0xffffffd4
   112d0:	e5832008 	str	r2, [r3, #8]
   112d4:	e51b302c 	ldr	r3, [fp, #-44]	; 0xffffffd4
   112d8:	e5932020 	ldr	r2, [r3, #32]
   112dc:	e51b302c 	ldr	r3, [fp, #-44]	; 0xffffffd4
   112e0:	e5933018 	ldr	r3, [r3, #24]
   112e4:	e2830001 	add	r0, r3, #1
   112e8:	e51b102c 	ldr	r1, [fp, #-44]	; 0xffffffd4
   112ec:	e5810018 	str	r0, [r1, #24]
   112f0:	e0823003 	add	r3, r2, r3
   112f4:	e5d33000 	ldrb	r3, [r3]
   112f8:	e50b3038 	str	r3, [fp, #-56]	; 0xffffffc8
   112fc:	e51b3038 	ldr	r3, [fp, #-56]	; 0xffffffc8
   11300:	e3730001 	cmn	r3, #1
   11304:	1a000009 	bne	11330 <parse+0x490>
   11308:	e30513ec 	movw	r1, #21484	; 0x53ec
   1130c:	e3401001 	movt	r1, #1
   11310:	e305045c 	movw	r0, #21596	; 0x545c
   11314:	e3400001 	movt	r0, #1
   11318:	eb000a48 	bl	13c40 <tfp_printf>
   1131c:	e3a0000e 	mov	r0, #14
   11320:	ebfffdfc 	bl	10b18 <gpg_error>
   11324:	e1a03000 	mov	r3, r0
   11328:	e50b3008 	str	r3, [fp, #-8]
   1132c:	ea00016e 	b	118ec <parse+0xa4c>
   11330:	e51b3018 	ldr	r3, [fp, #-24]	; 0xffffffe8
   11334:	e2832001 	add	r2, r3, #1
   11338:	e50b2018 	str	r2, [fp, #-24]	; 0xffffffe8
   1133c:	e51b2038 	ldr	r2, [fp, #-56]	; 0xffffffc8
   11340:	e6ef1072 	uxtb	r1, r2
   11344:	e2432004 	sub	r2, r3, #4
   11348:	e082200b 	add	r2, r2, fp
   1134c:	e542103c 	strb	r1, [r2, #-60]	; 0xffffffc4
   11350:	e2433004 	sub	r3, r3, #4
   11354:	e083300b 	add	r3, r3, fp
   11358:	e553103c 	ldrb	r1, [r3, #-60]	; 0xffffffc4
   1135c:	e24b2044 	sub	r2, fp, #68	; 0x44
   11360:	e51b3020 	ldr	r3, [fp, #-32]	; 0xffffffe0
   11364:	e0823003 	add	r3, r2, r3
   11368:	e1a02001 	mov	r2, r1
   1136c:	e5c32000 	strb	r2, [r3]
   11370:	e51b3020 	ldr	r3, [fp, #-32]	; 0xffffffe0
   11374:	e2833001 	add	r3, r3, #1
   11378:	e50b3020 	str	r3, [fp, #-32]	; 0xffffffe0
   1137c:	e51b3020 	ldr	r3, [fp, #-32]	; 0xffffffe0
   11380:	e3530003 	cmp	r3, #3
   11384:	daffffbf 	ble	11288 <parse+0x3e8>
   11388:	e24b3044 	sub	r3, fp, #68	; 0x44
   1138c:	e1a00003 	mov	r0, r3
   11390:	ebfffdf5 	bl	10b6c <buf32_to_ulong>
   11394:	e50b0014 	str	r0, [fp, #-20]	; 0xffffffec
   11398:	ea000092 	b	115e8 <parse+0x748>
   1139c:	e51b300c 	ldr	r3, [fp, #-12]
   113a0:	e2433008 	sub	r3, r3, #8
   113a4:	e353000c 	cmp	r3, #12
   113a8:	979ff103 	ldrls	pc, [pc, r3, lsl #2]
   113ac:	ea000016 	b	1140c <parse+0x56c>
   113b0:	000113e4 	.word	0x000113e4
   113b4:	000113e4 	.word	0x000113e4
   113b8:	0001140c 	.word	0x0001140c
   113bc:	000113e4 	.word	0x000113e4
   113c0:	0001140c 	.word	0x0001140c
   113c4:	0001140c 	.word	0x0001140c
   113c8:	0001140c 	.word	0x0001140c
   113cc:	0001140c 	.word	0x0001140c
   113d0:	0001140c 	.word	0x0001140c
   113d4:	0001140c 	.word	0x0001140c
   113d8:	000113e4 	.word	0x000113e4
   113dc:	0001140c 	.word	0x0001140c
   113e0:	000113e4 	.word	0x000113e4
   113e4:	e51b3038 	ldr	r3, [fp, #-56]	; 0xffffffc8
   113e8:	e6ef3073 	uxtb	r3, r3
   113ec:	e1a01003 	mov	r1, r3
   113f0:	e51b002c 	ldr	r0, [fp, #-44]	; 0xffffffd4
   113f4:	ebffe597 	bl	aa58 <iobuf_set_partial_body_length_mode>
   113f8:	e3a03000 	mov	r3, #0
   113fc:	e50b3014 	str	r3, [fp, #-20]	; 0xffffffec
   11400:	e3a03001 	mov	r3, #1
   11404:	e50b301c 	str	r3, [fp, #-28]	; 0xffffffe4
   11408:	ea000076 	b	115e8 <parse+0x748>
   1140c:	e51b200c 	ldr	r2, [fp, #-12]
   11410:	e30513ec 	movw	r1, #21484	; 0x53ec
   11414:	e3401001 	movt	r1, #1
   11418:	e3050478 	movw	r0, #21624	; 0x5478
   1141c:	e3400001 	movt	r0, #1
   11420:	eb000a06 	bl	13c40 <tfp_printf>
   11424:	e3a0000e 	mov	r0, #14
   11428:	ebfffdba 	bl	10b18 <gpg_error>
   1142c:	e1a03000 	mov	r3, r0
   11430:	e50b3008 	str	r3, [fp, #-8]
   11434:	ea00012c 	b	118ec <parse+0xa4c>
   11438:	e51b3034 	ldr	r3, [fp, #-52]	; 0xffffffcc
   1143c:	e1a03143 	asr	r3, r3, #2
   11440:	e203300f 	and	r3, r3, #15
   11444:	e50b300c 	str	r3, [fp, #-12]
   11448:	e51b3034 	ldr	r3, [fp, #-52]	; 0xffffffcc
   1144c:	e2033003 	and	r3, r3, #3
   11450:	e3530003 	cmp	r3, #3
   11454:	0a000004 	beq	1146c <parse+0x5cc>
   11458:	e51b3034 	ldr	r3, [fp, #-52]	; 0xffffffcc
   1145c:	e2033003 	and	r3, r3, #3
   11460:	e3a02001 	mov	r2, #1
   11464:	e1a03312 	lsl	r3, r2, r3
   11468:	ea000000 	b	11470 <parse+0x5d0>
   1146c:	e3a03000 	mov	r3, #0
   11470:	e50b3010 	str	r3, [fp, #-16]
   11474:	e51b3010 	ldr	r3, [fp, #-16]
   11478:	e3530000 	cmp	r3, #0
   1147c:	1a000056 	bne	115dc <parse+0x73c>
   11480:	e3a03000 	mov	r3, #0
   11484:	e50b3014 	str	r3, [fp, #-20]	; 0xffffffec
   11488:	e3a03001 	mov	r3, #1
   1148c:	e50b301c 	str	r3, [fp, #-28]	; 0xffffffe4
   11490:	e51b300c 	ldr	r3, [fp, #-12]
   11494:	e3530009 	cmp	r3, #9
   11498:	0a000052 	beq	115e8 <parse+0x748>
   1149c:	e51b300c 	ldr	r3, [fp, #-12]
   114a0:	e353000b 	cmp	r3, #11
   114a4:	0a00004f 	beq	115e8 <parse+0x748>
   114a8:	e51b300c 	ldr	r3, [fp, #-12]
   114ac:	e3530008 	cmp	r3, #8
   114b0:	0a00004c 	beq	115e8 <parse+0x748>
   114b4:	e51b200c 	ldr	r2, [fp, #-12]
   114b8:	e30513ec 	movw	r1, #21484	; 0x53ec
   114bc:	e3401001 	movt	r1, #1
   114c0:	e30504a8 	movw	r0, #21672	; 0x54a8
   114c4:	e3400001 	movt	r0, #1
   114c8:	eb0009dc 	bl	13c40 <tfp_printf>
   114cc:	e3a0000e 	mov	r0, #14
   114d0:	ebfffd90 	bl	10b18 <gpg_error>
   114d4:	e1a03000 	mov	r3, r0
   114d8:	e50b3008 	str	r3, [fp, #-8]
   114dc:	ea000102 	b	118ec <parse+0xa4c>
   114e0:	e51b3014 	ldr	r3, [fp, #-20]	; 0xffffffec
   114e4:	e1a03403 	lsl	r3, r3, #8
   114e8:	e50b3014 	str	r3, [fp, #-20]	; 0xffffffec
   114ec:	e51b302c 	ldr	r3, [fp, #-44]	; 0xffffffd4
   114f0:	e5933010 	ldr	r3, [r3, #16]
   114f4:	e3530000 	cmp	r3, #0
   114f8:	1a000005 	bne	11514 <parse+0x674>
   114fc:	e51b302c 	ldr	r3, [fp, #-44]	; 0xffffffd4
   11500:	e5932018 	ldr	r2, [r3, #24]
   11504:	e51b302c 	ldr	r3, [fp, #-44]	; 0xffffffd4
   11508:	e593301c 	ldr	r3, [r3, #28]
   1150c:	e1520003 	cmp	r2, r3
   11510:	3a000003 	bcc	11524 <parse+0x684>
   11514:	e51b002c 	ldr	r0, [fp, #-44]	; 0xffffffd4
   11518:	ebffe3d2 	bl	a468 <iobuf_readbyte>
   1151c:	e1a03000 	mov	r3, r0
   11520:	ea00000d 	b	1155c <parse+0x6bc>
   11524:	e51b302c 	ldr	r3, [fp, #-44]	; 0xffffffd4
   11528:	e5933008 	ldr	r3, [r3, #8]
   1152c:	e2832001 	add	r2, r3, #1
   11530:	e51b302c 	ldr	r3, [fp, #-44]	; 0xffffffd4
   11534:	e5832008 	str	r2, [r3, #8]
   11538:	e51b302c 	ldr	r3, [fp, #-44]	; 0xffffffd4
   1153c:	e5932020 	ldr	r2, [r3, #32]
   11540:	e51b302c 	ldr	r3, [fp, #-44]	; 0xffffffd4
   11544:	e5933018 	ldr	r3, [r3, #24]
   11548:	e2830001 	add	r0, r3, #1
   1154c:	e51b102c 	ldr	r1, [fp, #-44]	; 0xffffffd4
   11550:	e5810018 	str	r0, [r1, #24]
   11554:	e0823003 	add	r3, r2, r3
   11558:	e5d33000 	ldrb	r3, [r3]
   1155c:	e50b3038 	str	r3, [fp, #-56]	; 0xffffffc8
   11560:	e51b3038 	ldr	r3, [fp, #-56]	; 0xffffffc8
   11564:	e3730001 	cmn	r3, #1
   11568:	1a000009 	bne	11594 <parse+0x6f4>
   1156c:	e30513ec 	movw	r1, #21484	; 0x53ec
   11570:	e3401001 	movt	r1, #1
   11574:	e30504e0 	movw	r0, #21728	; 0x54e0
   11578:	e3400001 	movt	r0, #1
   1157c:	eb0009af 	bl	13c40 <tfp_printf>
   11580:	e3a0000e 	mov	r0, #14
   11584:	ebfffd63 	bl	10b18 <gpg_error>
   11588:	e1a03000 	mov	r3, r0
   1158c:	e50b3008 	str	r3, [fp, #-8]
   11590:	ea0000d5 	b	118ec <parse+0xa4c>
   11594:	e51b3018 	ldr	r3, [fp, #-24]	; 0xffffffe8
   11598:	e2832001 	add	r2, r3, #1
   1159c:	e50b2018 	str	r2, [fp, #-24]	; 0xffffffe8
   115a0:	e51b2038 	ldr	r2, [fp, #-56]	; 0xffffffc8
   115a4:	e6ef1072 	uxtb	r1, r2
   115a8:	e2432004 	sub	r2, r3, #4
   115ac:	e082200b 	add	r2, r2, fp
   115b0:	e542103c 	strb	r1, [r2, #-60]	; 0xffffffc4
   115b4:	e2433004 	sub	r3, r3, #4
   115b8:	e083300b 	add	r3, r3, fp
   115bc:	e553303c 	ldrb	r3, [r3, #-60]	; 0xffffffc4
   115c0:	e1a02003 	mov	r2, r3
   115c4:	e51b3014 	ldr	r3, [fp, #-20]	; 0xffffffec
   115c8:	e1833002 	orr	r3, r3, r2
   115cc:	e50b3014 	str	r3, [fp, #-20]	; 0xffffffec
   115d0:	e51b3010 	ldr	r3, [fp, #-16]
   115d4:	e2433001 	sub	r3, r3, #1
   115d8:	e50b3010 	str	r3, [fp, #-16]
   115dc:	e51b3010 	ldr	r3, [fp, #-16]
   115e0:	e3530000 	cmp	r3, #0
   115e4:	1affffbd 	bne	114e0 <parse+0x640>
   115e8:	e51b300c 	ldr	r3, [fp, #-12]
   115ec:	e353003f 	cmp	r3, #63	; 0x3f
   115f0:	1a000009 	bne	1161c <parse+0x77c>
   115f4:	e51b3014 	ldr	r3, [fp, #-20]	; 0xffffffec
   115f8:	e3730001 	cmn	r3, #1
   115fc:	1a000006 	bne	1161c <parse+0x77c>
   11600:	e30513ec 	movw	r1, #21484	; 0x53ec
   11604:	e3401001 	movt	r1, #1
   11608:	e30504f4 	movw	r0, #21748	; 0x54f4
   1160c:	e3400001 	movt	r0, #1
   11610:	eb00098a 	bl	13c40 <tfp_printf>
   11614:	e3e03000 	mvn	r3, #0
   11618:	ea0000c5 	b	11934 <parse+0xa94>
   1161c:	e59b3008 	ldr	r3, [fp, #8]
   11620:	e3530000 	cmp	r3, #0
   11624:	0a00001f 	beq	116a8 <parse+0x808>
   11628:	e51b300c 	ldr	r3, [fp, #-12]
   1162c:	e3530000 	cmp	r3, #0
   11630:	0a00001c 	beq	116a8 <parse+0x808>
   11634:	e51b301c 	ldr	r3, [fp, #-28]	; 0xffffffe4
   11638:	e3530000 	cmp	r3, #0
   1163c:	0a000007 	beq	11660 <parse+0x7c0>
   11640:	e3050514 	movw	r0, #21780	; 0x5514
   11644:	e3400001 	movt	r0, #1
   11648:	eb00097c 	bl	13c40 <tfp_printf>
   1164c:	e3a0000e 	mov	r0, #14
   11650:	ebfffd30 	bl	10b18 <gpg_error>
   11654:	e1a03000 	mov	r3, r0
   11658:	e50b3008 	str	r3, [fp, #-8]
   1165c:	ea0000a2 	b	118ec <parse+0xa4c>
   11660:	e51b2018 	ldr	r2, [fp, #-24]	; 0xffffffe8
   11664:	e24b3040 	sub	r3, fp, #64	; 0x40
   11668:	e1a01003 	mov	r1, r3
   1166c:	e59b0008 	ldr	r0, [fp, #8]
   11670:	ebffe490 	bl	a8b8 <iobuf_write>
   11674:	e50b0008 	str	r0, [fp, #-8]
   11678:	e51b3008 	ldr	r3, [fp, #-8]
   1167c:	e3530000 	cmp	r3, #0
   11680:	1a000096 	bne	118e0 <parse+0xa40>
   11684:	e51b301c 	ldr	r3, [fp, #-28]	; 0xffffffe4
   11688:	e58d3000 	str	r3, [sp]
   1168c:	e51b3014 	ldr	r3, [fp, #-20]	; 0xffffffec
   11690:	e51b200c 	ldr	r2, [fp, #-12]
   11694:	e59b1008 	ldr	r1, [fp, #8]
   11698:	e51b002c 	ldr	r0, [fp, #-44]	; 0xffffffd4
   1169c:	eb0000a7 	bl	11940 <copy_packet>
   116a0:	e50b0008 	str	r0, [fp, #-8]
   116a4:	ea00008d 	b	118e0 <parse+0xa40>
   116a8:	e51b3028 	ldr	r3, [fp, #-40]	; 0xffffffd8
   116ac:	e3530000 	cmp	r3, #0
   116b0:	0a000002 	beq	116c0 <parse+0x820>
   116b4:	e51b300c 	ldr	r3, [fp, #-12]
   116b8:	e353000d 	cmp	r3, #13
   116bc:	0a00001e 	beq	1173c <parse+0x89c>
   116c0:	e59b300c 	ldr	r3, [fp, #12]
   116c4:	e3530000 	cmp	r3, #0
   116c8:	1a000011 	bne	11714 <parse+0x874>
   116cc:	e51b300c 	ldr	r3, [fp, #-12]
   116d0:	e3530000 	cmp	r3, #0
   116d4:	0a00000e 	beq	11714 <parse+0x874>
   116d8:	e51b3050 	ldr	r3, [fp, #-80]	; 0xffffffb0
   116dc:	e3530000 	cmp	r3, #0
   116e0:	0a000015 	beq	1173c <parse+0x89c>
   116e4:	e51b300c 	ldr	r3, [fp, #-12]
   116e8:	e353000e 	cmp	r3, #14
   116ec:	0a000012 	beq	1173c <parse+0x89c>
   116f0:	e51b300c 	ldr	r3, [fp, #-12]
   116f4:	e3530006 	cmp	r3, #6
   116f8:	0a00000f 	beq	1173c <parse+0x89c>
   116fc:	e51b300c 	ldr	r3, [fp, #-12]
   11700:	e3530007 	cmp	r3, #7
   11704:	0a00000c 	beq	1173c <parse+0x89c>
   11708:	e51b300c 	ldr	r3, [fp, #-12]
   1170c:	e3530005 	cmp	r3, #5
   11710:	0a000009 	beq	1173c <parse+0x89c>
   11714:	e51b201c 	ldr	r2, [fp, #-28]	; 0xffffffe4
   11718:	e51b1014 	ldr	r1, [fp, #-20]	; 0xffffffec
   1171c:	e51b002c 	ldr	r0, [fp, #-44]	; 0xffffffd4
   11720:	ebffe513 	bl	ab74 <iobuf_skip_rest>
   11724:	e59b3004 	ldr	r3, [fp, #4]
   11728:	e3a02001 	mov	r2, #1
   1172c:	e5832000 	str	r2, [r3]
   11730:	e3a03000 	mov	r3, #0
   11734:	e50b3008 	str	r3, [fp, #-8]
   11738:	ea00006b 	b	118ec <parse+0xa4c>
   1173c:	e51b3048 	ldr	r3, [fp, #-72]	; 0xffffffb8
   11740:	e5933014 	ldr	r3, [r3, #20]
   11744:	e2832001 	add	r2, r3, #1
   11748:	e51b3048 	ldr	r3, [fp, #-72]	; 0xffffffb8
   1174c:	e5832014 	str	r2, [r3, #20]
   11750:	e51b300c 	ldr	r3, [fp, #-12]
   11754:	e6ef2073 	uxtb	r2, r3
   11758:	e51b304c 	ldr	r3, [fp, #-76]	; 0xffffffb4
   1175c:	e5c32000 	strb	r2, [r3]
   11760:	e3a03002 	mov	r3, #2
   11764:	e50b3008 	str	r3, [fp, #-8]
   11768:	e51b300c 	ldr	r3, [fp, #-12]
   1176c:	e2433003 	sub	r3, r3, #3
   11770:	e3530010 	cmp	r3, #16
   11774:	979ff103 	ldrls	pc, [pc, r3, lsl #2]
   11778:	ea00003c 	b	11870 <parse+0x9d0>
   1177c:	000117c0 	.word	0x000117c0
   11780:	00011870 	.word	0x00011870
   11784:	00011870 	.word	0x00011870
   11788:	00011870 	.word	0x00011870
   1178c:	00011870 	.word	0x00011870
   11790:	00011870 	.word	0x00011870
   11794:	00011808 	.word	0x00011808
   11798:	00011858 	.word	0x00011858
   1179c:	000117dc 	.word	0x000117dc
   117a0:	00011870 	.word	0x00011870
   117a4:	00011870 	.word	0x00011870
   117a8:	00011870 	.word	0x00011870
   117ac:	00011870 	.word	0x00011870
   117b0:	00011870 	.word	0x00011870
   117b4:	00011870 	.word	0x00011870
   117b8:	00011808 	.word	0x00011808
   117bc:	00011834 	.word	0x00011834
   117c0:	e51b304c 	ldr	r3, [fp, #-76]	; 0xffffffb4
   117c4:	e51b2014 	ldr	r2, [fp, #-20]	; 0xffffffec
   117c8:	e51b100c 	ldr	r1, [fp, #-12]
   117cc:	e51b002c 	ldr	r0, [fp, #-44]	; 0xffffffd4
   117d0:	eb000156 	bl	11d30 <parse_symkeyenc>
   117d4:	e50b0008 	str	r0, [fp, #-8]
   117d8:	ea000025 	b	11874 <parse+0x9d4>
   117dc:	e51b301c 	ldr	r3, [fp, #-28]	; 0xffffffe4
   117e0:	e58d3004 	str	r3, [sp, #4]
   117e4:	e51b3024 	ldr	r3, [fp, #-36]	; 0xffffffdc
   117e8:	e58d3000 	str	r3, [sp]
   117ec:	e51b304c 	ldr	r3, [fp, #-76]	; 0xffffffb4
   117f0:	e51b2014 	ldr	r2, [fp, #-20]	; 0xffffffec
   117f4:	e51b100c 	ldr	r1, [fp, #-12]
   117f8:	e51b002c 	ldr	r0, [fp, #-44]	; 0xffffffd4
   117fc:	eb000370 	bl	125c4 <parse_plaintext>
   11800:	e50b0008 	str	r0, [fp, #-8]
   11804:	ea00001a 	b	11874 <parse+0x9d4>
   11808:	e51b301c 	ldr	r3, [fp, #-28]	; 0xffffffe4
   1180c:	e58d3004 	str	r3, [sp, #4]
   11810:	e51b3024 	ldr	r3, [fp, #-36]	; 0xffffffdc
   11814:	e58d3000 	str	r3, [sp]
   11818:	e51b304c 	ldr	r3, [fp, #-76]	; 0xffffffb4
   1181c:	e51b2014 	ldr	r2, [fp, #-20]	; 0xffffffec
   11820:	e51b100c 	ldr	r1, [fp, #-12]
   11824:	e51b002c 	ldr	r0, [fp, #-44]	; 0xffffffd4
   11828:	eb0004b0 	bl	12af0 <parse_encrypted>
   1182c:	e50b0008 	str	r0, [fp, #-8]
   11830:	ea00000f 	b	11874 <parse+0x9d4>
   11834:	e51b3024 	ldr	r3, [fp, #-36]	; 0xffffffdc
   11838:	e58d3000 	str	r3, [sp]
   1183c:	e51b304c 	ldr	r3, [fp, #-76]	; 0xffffffb4
   11840:	e51b2014 	ldr	r2, [fp, #-20]	; 0xffffffec
   11844:	e51b100c 	ldr	r1, [fp, #-12]
   11848:	e51b002c 	ldr	r0, [fp, #-44]	; 0xffffffd4
   1184c:	eb000555 	bl	12da8 <parse_mdc>
   11850:	e50b0008 	str	r0, [fp, #-8]
   11854:	ea000006 	b	11874 <parse+0x9d4>
   11858:	e51b2014 	ldr	r2, [fp, #-20]	; 0xffffffec
   1185c:	e51b100c 	ldr	r1, [fp, #-12]
   11860:	e51b002c 	ldr	r0, [fp, #-44]	; 0xffffffd4
   11864:	eb00009c 	bl	11adc <parse_marker>
   11868:	e50b0008 	str	r0, [fp, #-8]
   1186c:	ea000000 	b	11874 <parse+0x9d4>
   11870:	e320f000 	nop	{0}
   11874:	e51b1048 	ldr	r1, [fp, #-72]	; 0xffffffb8
   11878:	e3a00000 	mov	r0, #0
   1187c:	ebffe9be 	bl	bf7c <free_packet>
   11880:	e51b3008 	ldr	r3, [fp, #-8]
   11884:	e3530000 	cmp	r3, #0
   11888:	1a000016 	bne	118e8 <parse+0xa48>
   1188c:	e51b300c 	ldr	r3, [fp, #-12]
   11890:	e3530006 	cmp	r3, #6
   11894:	0a00000b 	beq	118c8 <parse+0xa28>
   11898:	e51b300c 	ldr	r3, [fp, #-12]
   1189c:	e3530005 	cmp	r3, #5
   118a0:	0a000008 	beq	118c8 <parse+0xa28>
   118a4:	e51b300c 	ldr	r3, [fp, #-12]
   118a8:	e353000d 	cmp	r3, #13
   118ac:	0a000005 	beq	118c8 <parse+0xa28>
   118b0:	e51b300c 	ldr	r3, [fp, #-12]
   118b4:	e3530011 	cmp	r3, #17
   118b8:	0a000002 	beq	118c8 <parse+0xa28>
   118bc:	e51b300c 	ldr	r3, [fp, #-12]
   118c0:	e3530002 	cmp	r3, #2
   118c4:	1a000007 	bne	118e8 <parse+0xa48>
   118c8:	e51b3048 	ldr	r3, [fp, #-72]	; 0xffffffb8
   118cc:	e51b204c 	ldr	r2, [fp, #-76]	; 0xffffffb4
   118d0:	e2833004 	add	r3, r3, #4
   118d4:	e8920003 	ldm	r2, {r0, r1}
   118d8:	e8830003 	stm	r3, {r0, r1}
   118dc:	ea000002 	b	118ec <parse+0xa4c>
   118e0:	e320f000 	nop	{0}
   118e4:	ea000000 	b	118ec <parse+0xa4c>
   118e8:	e320f000 	nop	{0}
   118ec:	e51b3008 	ldr	r3, [fp, #-8]
   118f0:	e3530000 	cmp	r3, #0
   118f4:	1a000005 	bne	11910 <parse+0xa70>
   118f8:	e51b302c 	ldr	r3, [fp, #-44]	; 0xffffffd4
   118fc:	e5933028 	ldr	r3, [r3, #40]	; 0x28
   11900:	e3530000 	cmp	r3, #0
   11904:	0a000001 	beq	11910 <parse+0xa70>
   11908:	e3a03022 	mov	r3, #34	; 0x22
   1190c:	e50b3008 	str	r3, [fp, #-8]
   11910:	e51b3008 	ldr	r3, [fp, #-8]
   11914:	e3730001 	cmn	r3, #1
   11918:	0a000004 	beq	11930 <parse+0xa90>
   1191c:	e51b3008 	ldr	r3, [fp, #-8]
   11920:	e1a00003 	mov	r0, r3
   11924:	ebfffc86 	bl	10b44 <gpg_err_code>
   11928:	e1a03000 	mov	r3, r0
   1192c:	ea000000 	b	11934 <parse+0xa94>
   11930:	e3e03000 	mvn	r3, #0
   11934:	e1a00003 	mov	r0, r3
   11938:	e24bd004 	sub	sp, fp, #4
   1193c:	e8bd8800 	pop	{fp, pc}

00011940 <copy_packet>:
   11940:	e92d4800 	push	{fp, lr}
   11944:	e28db004 	add	fp, sp, #4
   11948:	e24dd080 	sub	sp, sp, #128	; 0x80
   1194c:	e50b0078 	str	r0, [fp, #-120]	; 0xffffff88
   11950:	e50b107c 	str	r1, [fp, #-124]	; 0xffffff84
   11954:	e50b2080 	str	r2, [fp, #-128]	; 0xffffff80
   11958:	e50b3084 	str	r3, [fp, #-132]	; 0xffffff7c
   1195c:	e59b3004 	ldr	r3, [fp, #4]
   11960:	e3530000 	cmp	r3, #0
   11964:	0a000015 	beq	119c0 <copy_packet+0x80>
   11968:	ea00000a 	b	11998 <copy_packet+0x58>
   1196c:	e51b2008 	ldr	r2, [fp, #-8]
   11970:	e24b3070 	sub	r3, fp, #112	; 0x70
   11974:	e1a01003 	mov	r1, r3
   11978:	e51b007c 	ldr	r0, [fp, #-124]	; 0xffffff84
   1197c:	ebffe3cd 	bl	a8b8 <iobuf_write>
   11980:	e50b000c 	str	r0, [fp, #-12]
   11984:	e51b300c 	ldr	r3, [fp, #-12]
   11988:	e3530000 	cmp	r3, #0
   1198c:	0a000001 	beq	11998 <copy_packet+0x58>
   11990:	e51b300c 	ldr	r3, [fp, #-12]
   11994:	ea00004d 	b	11ad0 <copy_packet+0x190>
   11998:	e24b3070 	sub	r3, fp, #112	; 0x70
   1199c:	e3a02064 	mov	r2, #100	; 0x64
   119a0:	e1a01003 	mov	r1, r3
   119a4:	e51b0078 	ldr	r0, [fp, #-120]	; 0xffffff88
   119a8:	ebffe2ee 	bl	a568 <iobuf_read>
   119ac:	e50b0008 	str	r0, [fp, #-8]
   119b0:	e51b3008 	ldr	r3, [fp, #-8]
   119b4:	e3730001 	cmn	r3, #1
   119b8:	1affffeb 	bne	1196c <copy_packet+0x2c>
   119bc:	ea000042 	b	11acc <copy_packet+0x18c>
   119c0:	e51b3084 	ldr	r3, [fp, #-132]	; 0xffffff7c
   119c4:	e3530000 	cmp	r3, #0
   119c8:	1a00003c 	bne	11ac0 <copy_packet+0x180>
   119cc:	e51b3080 	ldr	r3, [fp, #-128]	; 0xffffff80
   119d0:	e3530008 	cmp	r3, #8
   119d4:	1a000039 	bne	11ac0 <copy_packet+0x180>
   119d8:	e3050544 	movw	r0, #21828	; 0x5544
   119dc:	e3400001 	movt	r0, #1
   119e0:	eb000896 	bl	13c40 <tfp_printf>
   119e4:	ea00000a 	b	11a14 <copy_packet+0xd4>
   119e8:	e51b2008 	ldr	r2, [fp, #-8]
   119ec:	e24b3070 	sub	r3, fp, #112	; 0x70
   119f0:	e1a01003 	mov	r1, r3
   119f4:	e51b007c 	ldr	r0, [fp, #-124]	; 0xffffff84
   119f8:	ebffe3ae 	bl	a8b8 <iobuf_write>
   119fc:	e50b000c 	str	r0, [fp, #-12]
   11a00:	e51b300c 	ldr	r3, [fp, #-12]
   11a04:	e3530000 	cmp	r3, #0
   11a08:	0a000001 	beq	11a14 <copy_packet+0xd4>
   11a0c:	e51b300c 	ldr	r3, [fp, #-12]
   11a10:	ea00002e 	b	11ad0 <copy_packet+0x190>
   11a14:	e24b3070 	sub	r3, fp, #112	; 0x70
   11a18:	e3a02064 	mov	r2, #100	; 0x64
   11a1c:	e1a01003 	mov	r1, r3
   11a20:	e51b0078 	ldr	r0, [fp, #-120]	; 0xffffff88
   11a24:	ebffe2cf 	bl	a568 <iobuf_read>
   11a28:	e50b0008 	str	r0, [fp, #-8]
   11a2c:	e51b3008 	ldr	r3, [fp, #-8]
   11a30:	e3730001 	cmn	r3, #1
   11a34:	1affffeb 	bne	119e8 <copy_packet+0xa8>
   11a38:	ea000023 	b	11acc <copy_packet+0x18c>
   11a3c:	e51b3084 	ldr	r3, [fp, #-132]	; 0xffffff7c
   11a40:	e3530064 	cmp	r3, #100	; 0x64
   11a44:	31a03003 	movcc	r3, r3
   11a48:	23a03064 	movcs	r3, #100	; 0x64
   11a4c:	e50b3008 	str	r3, [fp, #-8]
   11a50:	e51b2008 	ldr	r2, [fp, #-8]
   11a54:	e24b3070 	sub	r3, fp, #112	; 0x70
   11a58:	e1a01003 	mov	r1, r3
   11a5c:	e51b0078 	ldr	r0, [fp, #-120]	; 0xffffff88
   11a60:	ebffe2c0 	bl	a568 <iobuf_read>
   11a64:	e50b0008 	str	r0, [fp, #-8]
   11a68:	e51b3008 	ldr	r3, [fp, #-8]
   11a6c:	e3730001 	cmn	r3, #1
   11a70:	1a000003 	bne	11a84 <copy_packet+0x144>
   11a74:	e3030fff 	movw	r0, #16383	; 0x3fff
   11a78:	ebfffc26 	bl	10b18 <gpg_error>
   11a7c:	e1a03000 	mov	r3, r0
   11a80:	ea000012 	b	11ad0 <copy_packet+0x190>
   11a84:	e51b2008 	ldr	r2, [fp, #-8]
   11a88:	e24b3070 	sub	r3, fp, #112	; 0x70
   11a8c:	e1a01003 	mov	r1, r3
   11a90:	e51b007c 	ldr	r0, [fp, #-124]	; 0xffffff84
   11a94:	ebffe387 	bl	a8b8 <iobuf_write>
   11a98:	e50b000c 	str	r0, [fp, #-12]
   11a9c:	e51b300c 	ldr	r3, [fp, #-12]
   11aa0:	e3530000 	cmp	r3, #0
   11aa4:	0a000001 	beq	11ab0 <copy_packet+0x170>
   11aa8:	e51b300c 	ldr	r3, [fp, #-12]
   11aac:	ea000007 	b	11ad0 <copy_packet+0x190>
   11ab0:	e51b3008 	ldr	r3, [fp, #-8]
   11ab4:	e51b2084 	ldr	r2, [fp, #-132]	; 0xffffff7c
   11ab8:	e0423003 	sub	r3, r2, r3
   11abc:	e50b3084 	str	r3, [fp, #-132]	; 0xffffff7c
   11ac0:	e51b3084 	ldr	r3, [fp, #-132]	; 0xffffff7c
   11ac4:	e3530000 	cmp	r3, #0
   11ac8:	1affffdb 	bne	11a3c <copy_packet+0xfc>
   11acc:	e3a03000 	mov	r3, #0
   11ad0:	e1a00003 	mov	r0, r3
   11ad4:	e24bd004 	sub	sp, fp, #4
   11ad8:	e8bd8800 	pop	{fp, pc}

00011adc <parse_marker>:
   11adc:	e92d4800 	push	{fp, lr}
   11ae0:	e28db004 	add	fp, sp, #4
   11ae4:	e24dd010 	sub	sp, sp, #16
   11ae8:	e50b0008 	str	r0, [fp, #-8]
   11aec:	e50b100c 	str	r1, [fp, #-12]
   11af0:	e50b2010 	str	r2, [fp, #-16]
   11af4:	e51b3010 	ldr	r3, [fp, #-16]
   11af8:	e3530003 	cmp	r3, #3
   11afc:	1a00007f 	bne	11d00 <parse_marker+0x224>
   11b00:	e51b3008 	ldr	r3, [fp, #-8]
   11b04:	e5933010 	ldr	r3, [r3, #16]
   11b08:	e3530000 	cmp	r3, #0
   11b0c:	1a000005 	bne	11b28 <parse_marker+0x4c>
   11b10:	e51b3008 	ldr	r3, [fp, #-8]
   11b14:	e5932018 	ldr	r2, [r3, #24]
   11b18:	e51b3008 	ldr	r3, [fp, #-8]
   11b1c:	e593301c 	ldr	r3, [r3, #28]
   11b20:	e1520003 	cmp	r2, r3
   11b24:	3a000007 	bcc	11b48 <parse_marker+0x6c>
   11b28:	e51b0008 	ldr	r0, [fp, #-8]
   11b2c:	ebffe24d 	bl	a468 <iobuf_readbyte>
   11b30:	e1a03000 	mov	r3, r0
   11b34:	e3530050 	cmp	r3, #80	; 0x50
   11b38:	13a03001 	movne	r3, #1
   11b3c:	03a03000 	moveq	r3, #0
   11b40:	e6ef3073 	uxtb	r3, r3
   11b44:	ea000011 	b	11b90 <parse_marker+0xb4>
   11b48:	e51b3008 	ldr	r3, [fp, #-8]
   11b4c:	e5933008 	ldr	r3, [r3, #8]
   11b50:	e2832001 	add	r2, r3, #1
   11b54:	e51b3008 	ldr	r3, [fp, #-8]
   11b58:	e5832008 	str	r2, [r3, #8]
   11b5c:	e51b3008 	ldr	r3, [fp, #-8]
   11b60:	e5932020 	ldr	r2, [r3, #32]
   11b64:	e51b3008 	ldr	r3, [fp, #-8]
   11b68:	e5933018 	ldr	r3, [r3, #24]
   11b6c:	e2830001 	add	r0, r3, #1
   11b70:	e51b1008 	ldr	r1, [fp, #-8]
   11b74:	e5810018 	str	r0, [r1, #24]
   11b78:	e0823003 	add	r3, r2, r3
   11b7c:	e5d33000 	ldrb	r3, [r3]
   11b80:	e3530050 	cmp	r3, #80	; 0x50
   11b84:	13a03001 	movne	r3, #1
   11b88:	03a03000 	moveq	r3, #0
   11b8c:	e6ef3073 	uxtb	r3, r3
   11b90:	e3530000 	cmp	r3, #0
   11b94:	0a000003 	beq	11ba8 <parse_marker+0xcc>
   11b98:	e51b3010 	ldr	r3, [fp, #-16]
   11b9c:	e2433001 	sub	r3, r3, #1
   11ba0:	e50b3010 	str	r3, [fp, #-16]
   11ba4:	ea000056 	b	11d04 <parse_marker+0x228>
   11ba8:	e51b3008 	ldr	r3, [fp, #-8]
   11bac:	e5933010 	ldr	r3, [r3, #16]
   11bb0:	e3530000 	cmp	r3, #0
   11bb4:	1a000005 	bne	11bd0 <parse_marker+0xf4>
   11bb8:	e51b3008 	ldr	r3, [fp, #-8]
   11bbc:	e5932018 	ldr	r2, [r3, #24]
   11bc0:	e51b3008 	ldr	r3, [fp, #-8]
   11bc4:	e593301c 	ldr	r3, [r3, #28]
   11bc8:	e1520003 	cmp	r2, r3
   11bcc:	3a000007 	bcc	11bf0 <parse_marker+0x114>
   11bd0:	e51b0008 	ldr	r0, [fp, #-8]
   11bd4:	ebffe223 	bl	a468 <iobuf_readbyte>
   11bd8:	e1a03000 	mov	r3, r0
   11bdc:	e3530047 	cmp	r3, #71	; 0x47
   11be0:	13a03001 	movne	r3, #1
   11be4:	03a03000 	moveq	r3, #0
   11be8:	e6ef3073 	uxtb	r3, r3
   11bec:	ea000011 	b	11c38 <parse_marker+0x15c>
   11bf0:	e51b3008 	ldr	r3, [fp, #-8]
   11bf4:	e5933008 	ldr	r3, [r3, #8]
   11bf8:	e2832001 	add	r2, r3, #1
   11bfc:	e51b3008 	ldr	r3, [fp, #-8]
   11c00:	e5832008 	str	r2, [r3, #8]
   11c04:	e51b3008 	ldr	r3, [fp, #-8]
   11c08:	e5932020 	ldr	r2, [r3, #32]
   11c0c:	e51b3008 	ldr	r3, [fp, #-8]
   11c10:	e5933018 	ldr	r3, [r3, #24]
   11c14:	e2830001 	add	r0, r3, #1
   11c18:	e51b1008 	ldr	r1, [fp, #-8]
   11c1c:	e5810018 	str	r0, [r1, #24]
   11c20:	e0823003 	add	r3, r2, r3
   11c24:	e5d33000 	ldrb	r3, [r3]
   11c28:	e3530047 	cmp	r3, #71	; 0x47
   11c2c:	13a03001 	movne	r3, #1
   11c30:	03a03000 	moveq	r3, #0
   11c34:	e6ef3073 	uxtb	r3, r3
   11c38:	e3530000 	cmp	r3, #0
   11c3c:	0a000003 	beq	11c50 <parse_marker+0x174>
   11c40:	e51b3010 	ldr	r3, [fp, #-16]
   11c44:	e2433001 	sub	r3, r3, #1
   11c48:	e50b3010 	str	r3, [fp, #-16]
   11c4c:	ea00002c 	b	11d04 <parse_marker+0x228>
   11c50:	e51b3008 	ldr	r3, [fp, #-8]
   11c54:	e5933010 	ldr	r3, [r3, #16]
   11c58:	e3530000 	cmp	r3, #0
   11c5c:	1a000005 	bne	11c78 <parse_marker+0x19c>
   11c60:	e51b3008 	ldr	r3, [fp, #-8]
   11c64:	e5932018 	ldr	r2, [r3, #24]
   11c68:	e51b3008 	ldr	r3, [fp, #-8]
   11c6c:	e593301c 	ldr	r3, [r3, #28]
   11c70:	e1520003 	cmp	r2, r3
   11c74:	3a000007 	bcc	11c98 <parse_marker+0x1bc>
   11c78:	e51b0008 	ldr	r0, [fp, #-8]
   11c7c:	ebffe1f9 	bl	a468 <iobuf_readbyte>
   11c80:	e1a03000 	mov	r3, r0
   11c84:	e3530050 	cmp	r3, #80	; 0x50
   11c88:	13a03001 	movne	r3, #1
   11c8c:	03a03000 	moveq	r3, #0
   11c90:	e6ef3073 	uxtb	r3, r3
   11c94:	ea000011 	b	11ce0 <parse_marker+0x204>
   11c98:	e51b3008 	ldr	r3, [fp, #-8]
   11c9c:	e5933008 	ldr	r3, [r3, #8]
   11ca0:	e2832001 	add	r2, r3, #1
   11ca4:	e51b3008 	ldr	r3, [fp, #-8]
   11ca8:	e5832008 	str	r2, [r3, #8]
   11cac:	e51b3008 	ldr	r3, [fp, #-8]
   11cb0:	e5932020 	ldr	r2, [r3, #32]
   11cb4:	e51b3008 	ldr	r3, [fp, #-8]
   11cb8:	e5933018 	ldr	r3, [r3, #24]
   11cbc:	e2830001 	add	r0, r3, #1
   11cc0:	e51b1008 	ldr	r1, [fp, #-8]
   11cc4:	e5810018 	str	r0, [r1, #24]
   11cc8:	e0823003 	add	r3, r2, r3
   11ccc:	e5d33000 	ldrb	r3, [r3]
   11cd0:	e3530050 	cmp	r3, #80	; 0x50
   11cd4:	13a03001 	movne	r3, #1
   11cd8:	03a03000 	moveq	r3, #0
   11cdc:	e6ef3073 	uxtb	r3, r3
   11ce0:	e3530000 	cmp	r3, #0
   11ce4:	0a000003 	beq	11cf8 <parse_marker+0x21c>
   11ce8:	e51b3010 	ldr	r3, [fp, #-16]
   11cec:	e2433001 	sub	r3, r3, #1
   11cf0:	e50b3010 	str	r3, [fp, #-16]
   11cf4:	ea000002 	b	11d04 <parse_marker+0x228>
   11cf8:	e3a03000 	mov	r3, #0
   11cfc:	ea000008 	b	11d24 <parse_marker+0x248>
   11d00:	e320f000 	nop	{0}
   11d04:	e305058c 	movw	r0, #21900	; 0x558c
   11d08:	e3400001 	movt	r0, #1
   11d0c:	eb0007cb 	bl	13c40 <tfp_printf>
   11d10:	e3a02000 	mov	r2, #0
   11d14:	e51b1010 	ldr	r1, [fp, #-16]
   11d18:	e51b0008 	ldr	r0, [fp, #-8]
   11d1c:	ebffe394 	bl	ab74 <iobuf_skip_rest>
   11d20:	e3a0300e 	mov	r3, #14
   11d24:	e1a00003 	mov	r0, r3
   11d28:	e24bd004 	sub	sp, fp, #4
   11d2c:	e8bd8800 	pop	{fp, pc}

00011d30 <parse_symkeyenc>:
   11d30:	e92d4800 	push	{fp, lr}
   11d34:	e28db004 	add	fp, sp, #4
   11d38:	e24dd038 	sub	sp, sp, #56	; 0x38
   11d3c:	e50b0030 	str	r0, [fp, #-48]	; 0xffffffd0
   11d40:	e50b1034 	str	r1, [fp, #-52]	; 0xffffffcc
   11d44:	e50b2038 	str	r2, [fp, #-56]	; 0xffffffc8
   11d48:	e50b303c 	str	r3, [fp, #-60]	; 0xffffffc4
   11d4c:	e3a03000 	mov	r3, #0
   11d50:	e50b3008 	str	r3, [fp, #-8]
   11d54:	e51b3038 	ldr	r3, [fp, #-56]	; 0xffffffc8
   11d58:	e3530003 	cmp	r3, #3
   11d5c:	9a0001fd 	bls	12558 <parse_symkeyenc+0x828>
   11d60:	e51b3030 	ldr	r3, [fp, #-48]	; 0xffffffd0
   11d64:	e5933010 	ldr	r3, [r3, #16]
   11d68:	e3530000 	cmp	r3, #0
   11d6c:	1a000005 	bne	11d88 <parse_symkeyenc+0x58>
   11d70:	e51b3030 	ldr	r3, [fp, #-48]	; 0xffffffd0
   11d74:	e5932018 	ldr	r2, [r3, #24]
   11d78:	e51b3030 	ldr	r3, [fp, #-48]	; 0xffffffd0
   11d7c:	e593301c 	ldr	r3, [r3, #28]
   11d80:	e1520003 	cmp	r2, r3
   11d84:	3a000004 	bcc	11d9c <parse_symkeyenc+0x6c>
   11d88:	e51b0030 	ldr	r0, [fp, #-48]	; 0xffffffd0
   11d8c:	ebffe1b5 	bl	a468 <iobuf_readbyte>
   11d90:	e1a03000 	mov	r3, r0
   11d94:	e6ef3073 	uxtb	r3, r3
   11d98:	ea00000d 	b	11dd4 <parse_symkeyenc+0xa4>
   11d9c:	e51b3030 	ldr	r3, [fp, #-48]	; 0xffffffd0
   11da0:	e5933008 	ldr	r3, [r3, #8]
   11da4:	e2832001 	add	r2, r3, #1
   11da8:	e51b3030 	ldr	r3, [fp, #-48]	; 0xffffffd0
   11dac:	e5832008 	str	r2, [r3, #8]
   11db0:	e51b3030 	ldr	r3, [fp, #-48]	; 0xffffffd0
   11db4:	e5932020 	ldr	r2, [r3, #32]
   11db8:	e51b3030 	ldr	r3, [fp, #-48]	; 0xffffffd0
   11dbc:	e5933018 	ldr	r3, [r3, #24]
   11dc0:	e2830001 	add	r0, r3, #1
   11dc4:	e51b1030 	ldr	r1, [fp, #-48]	; 0xffffffd0
   11dc8:	e5810018 	str	r0, [r1, #24]
   11dcc:	e0823003 	add	r3, r2, r3
   11dd0:	e5d33000 	ldrb	r3, [r3]
   11dd4:	e50b3018 	str	r3, [fp, #-24]	; 0xffffffe8
   11dd8:	e51b3038 	ldr	r3, [fp, #-56]	; 0xffffffc8
   11ddc:	e2433001 	sub	r3, r3, #1
   11de0:	e50b3038 	str	r3, [fp, #-56]	; 0xffffffc8
   11de4:	e51b3018 	ldr	r3, [fp, #-24]	; 0xffffffe8
   11de8:	e3530004 	cmp	r3, #4
   11dec:	0a000018 	beq	11e54 <parse_symkeyenc+0x124>
   11df0:	e51b3018 	ldr	r3, [fp, #-24]	; 0xffffffe8
   11df4:	e3530005 	cmp	r3, #5
   11df8:	0a000015 	beq	11e54 <parse_symkeyenc+0x124>
   11dfc:	e51b2018 	ldr	r2, [fp, #-24]	; 0xffffffe8
   11e00:	e51b1034 	ldr	r1, [fp, #-52]	; 0xffffffcc
   11e04:	e30505a4 	movw	r0, #21924	; 0x55a4
   11e08:	e3400001 	movt	r0, #1
   11e0c:	eb00078b 	bl	13c40 <tfp_printf>
   11e10:	e30e3010 	movw	r3, #57360	; 0xe010
   11e14:	e3403004 	movt	r3, #4
   11e18:	e5933000 	ldr	r3, [r3]
   11e1c:	e3530000 	cmp	r3, #0
   11e20:	0a000006 	beq	11e40 <parse_symkeyenc+0x110>
   11e24:	e30e3014 	movw	r3, #57364	; 0xe014
   11e28:	e3403004 	movt	r3, #4
   11e2c:	e5933000 	ldr	r3, [r3]
   11e30:	e30515c8 	movw	r1, #21960	; 0x55c8
   11e34:	e3401001 	movt	r1, #1
   11e38:	e1a00003 	mov	r0, r3
   11e3c:	eb00077f 	bl	13c40 <tfp_printf>
   11e40:	e3a0000e 	mov	r0, #14
   11e44:	ebfffb33 	bl	10b18 <gpg_error>
   11e48:	e1a03000 	mov	r3, r0
   11e4c:	e50b3008 	str	r3, [fp, #-8]
   11e50:	ea0001ba 	b	12540 <parse_symkeyenc+0x810>
   11e54:	e51b3038 	ldr	r3, [fp, #-56]	; 0xffffffc8
   11e58:	e35300c8 	cmp	r3, #200	; 0xc8
   11e5c:	9a000014 	bls	11eb4 <parse_symkeyenc+0x184>
   11e60:	e51b1034 	ldr	r1, [fp, #-52]	; 0xffffffcc
   11e64:	e30505f0 	movw	r0, #22000	; 0x55f0
   11e68:	e3400001 	movt	r0, #1
   11e6c:	eb000773 	bl	13c40 <tfp_printf>
   11e70:	e30e3010 	movw	r3, #57360	; 0xe010
   11e74:	e3403004 	movt	r3, #4
   11e78:	e5933000 	ldr	r3, [r3]
   11e7c:	e3530000 	cmp	r3, #0
   11e80:	0a000006 	beq	11ea0 <parse_symkeyenc+0x170>
   11e84:	e30e3014 	movw	r3, #57364	; 0xe014
   11e88:	e3403004 	movt	r3, #4
   11e8c:	e5933000 	ldr	r3, [r3]
   11e90:	e3051608 	movw	r1, #22024	; 0x5608
   11e94:	e3401001 	movt	r1, #1
   11e98:	e1a00003 	mov	r0, r3
   11e9c:	eb000767 	bl	13c40 <tfp_printf>
   11ea0:	e3a0000e 	mov	r0, #14
   11ea4:	ebfffb1b 	bl	10b18 <gpg_error>
   11ea8:	e1a03000 	mov	r3, r0
   11eac:	e50b3008 	str	r3, [fp, #-8]
   11eb0:	ea0001a2 	b	12540 <parse_symkeyenc+0x810>
   11eb4:	e51b3030 	ldr	r3, [fp, #-48]	; 0xffffffd0
   11eb8:	e5933010 	ldr	r3, [r3, #16]
   11ebc:	e3530000 	cmp	r3, #0
   11ec0:	1a000005 	bne	11edc <parse_symkeyenc+0x1ac>
   11ec4:	e51b3030 	ldr	r3, [fp, #-48]	; 0xffffffd0
   11ec8:	e5932018 	ldr	r2, [r3, #24]
   11ecc:	e51b3030 	ldr	r3, [fp, #-48]	; 0xffffffd0
   11ed0:	e593301c 	ldr	r3, [r3, #28]
   11ed4:	e1520003 	cmp	r2, r3
   11ed8:	3a000004 	bcc	11ef0 <parse_symkeyenc+0x1c0>
   11edc:	e51b0030 	ldr	r0, [fp, #-48]	; 0xffffffd0
   11ee0:	ebffe160 	bl	a468 <iobuf_readbyte>
   11ee4:	e1a03000 	mov	r3, r0
   11ee8:	e6ef3073 	uxtb	r3, r3
   11eec:	ea00000d 	b	11f28 <parse_symkeyenc+0x1f8>
   11ef0:	e51b3030 	ldr	r3, [fp, #-48]	; 0xffffffd0
   11ef4:	e5933008 	ldr	r3, [r3, #8]
   11ef8:	e2832001 	add	r2, r3, #1
   11efc:	e51b3030 	ldr	r3, [fp, #-48]	; 0xffffffd0
   11f00:	e5832008 	str	r2, [r3, #8]
   11f04:	e51b3030 	ldr	r3, [fp, #-48]	; 0xffffffd0
   11f08:	e5932020 	ldr	r2, [r3, #32]
   11f0c:	e51b3030 	ldr	r3, [fp, #-48]	; 0xffffffd0
   11f10:	e5933018 	ldr	r3, [r3, #24]
   11f14:	e2830001 	add	r0, r3, #1
   11f18:	e51b1030 	ldr	r1, [fp, #-48]	; 0xffffffd0
   11f1c:	e5810018 	str	r0, [r1, #24]
   11f20:	e0823003 	add	r3, r2, r3
   11f24:	e5d33000 	ldrb	r3, [r3]
   11f28:	e50b301c 	str	r3, [fp, #-28]	; 0xffffffe4
   11f2c:	e51b3038 	ldr	r3, [fp, #-56]	; 0xffffffc8
   11f30:	e2433001 	sub	r3, r3, #1
   11f34:	e50b3038 	str	r3, [fp, #-56]	; 0xffffffc8
   11f38:	e51b3018 	ldr	r3, [fp, #-24]	; 0xffffffe8
   11f3c:	e3530005 	cmp	r3, #5
   11f40:	1a000021 	bne	11fcc <parse_symkeyenc+0x29c>
   11f44:	e51b3030 	ldr	r3, [fp, #-48]	; 0xffffffd0
   11f48:	e5933010 	ldr	r3, [r3, #16]
   11f4c:	e3530000 	cmp	r3, #0
   11f50:	1a000005 	bne	11f6c <parse_symkeyenc+0x23c>
   11f54:	e51b3030 	ldr	r3, [fp, #-48]	; 0xffffffd0
   11f58:	e5932018 	ldr	r2, [r3, #24]
   11f5c:	e51b3030 	ldr	r3, [fp, #-48]	; 0xffffffd0
   11f60:	e593301c 	ldr	r3, [r3, #28]
   11f64:	e1520003 	cmp	r2, r3
   11f68:	3a000004 	bcc	11f80 <parse_symkeyenc+0x250>
   11f6c:	e51b0030 	ldr	r0, [fp, #-48]	; 0xffffffd0
   11f70:	ebffe13c 	bl	a468 <iobuf_readbyte>
   11f74:	e1a03000 	mov	r3, r0
   11f78:	e6ef3073 	uxtb	r3, r3
   11f7c:	ea00000d 	b	11fb8 <parse_symkeyenc+0x288>
   11f80:	e51b3030 	ldr	r3, [fp, #-48]	; 0xffffffd0
   11f84:	e5933008 	ldr	r3, [r3, #8]
   11f88:	e2832001 	add	r2, r3, #1
   11f8c:	e51b3030 	ldr	r3, [fp, #-48]	; 0xffffffd0
   11f90:	e5832008 	str	r2, [r3, #8]
   11f94:	e51b3030 	ldr	r3, [fp, #-48]	; 0xffffffd0
   11f98:	e5932020 	ldr	r2, [r3, #32]
   11f9c:	e51b3030 	ldr	r3, [fp, #-48]	; 0xffffffd0
   11fa0:	e5933018 	ldr	r3, [r3, #24]
   11fa4:	e2830001 	add	r0, r3, #1
   11fa8:	e51b1030 	ldr	r1, [fp, #-48]	; 0xffffffd0
   11fac:	e5810018 	str	r0, [r1, #24]
   11fb0:	e0823003 	add	r3, r2, r3
   11fb4:	e5d33000 	ldrb	r3, [r3]
   11fb8:	e50b3010 	str	r3, [fp, #-16]
   11fbc:	e51b3038 	ldr	r3, [fp, #-56]	; 0xffffffc8
   11fc0:	e2433001 	sub	r3, r3, #1
   11fc4:	e50b3038 	str	r3, [fp, #-56]	; 0xffffffc8
   11fc8:	ea000001 	b	11fd4 <parse_symkeyenc+0x2a4>
   11fcc:	e3a03000 	mov	r3, #0
   11fd0:	e50b3010 	str	r3, [fp, #-16]
   11fd4:	e51b3038 	ldr	r3, [fp, #-56]	; 0xffffffc8
   11fd8:	e3530001 	cmp	r3, #1
   11fdc:	9a00015f 	bls	12560 <parse_symkeyenc+0x830>
   11fe0:	e51b3030 	ldr	r3, [fp, #-48]	; 0xffffffd0
   11fe4:	e5933010 	ldr	r3, [r3, #16]
   11fe8:	e3530000 	cmp	r3, #0
   11fec:	1a000005 	bne	12008 <parse_symkeyenc+0x2d8>
   11ff0:	e51b3030 	ldr	r3, [fp, #-48]	; 0xffffffd0
   11ff4:	e5932018 	ldr	r2, [r3, #24]
   11ff8:	e51b3030 	ldr	r3, [fp, #-48]	; 0xffffffd0
   11ffc:	e593301c 	ldr	r3, [r3, #28]
   12000:	e1520003 	cmp	r2, r3
   12004:	3a000004 	bcc	1201c <parse_symkeyenc+0x2ec>
   12008:	e51b0030 	ldr	r0, [fp, #-48]	; 0xffffffd0
   1200c:	ebffe115 	bl	a468 <iobuf_readbyte>
   12010:	e1a03000 	mov	r3, r0
   12014:	e6ef3073 	uxtb	r3, r3
   12018:	ea00000d 	b	12054 <parse_symkeyenc+0x324>
   1201c:	e51b3030 	ldr	r3, [fp, #-48]	; 0xffffffd0
   12020:	e5933008 	ldr	r3, [r3, #8]
   12024:	e2832001 	add	r2, r3, #1
   12028:	e51b3030 	ldr	r3, [fp, #-48]	; 0xffffffd0
   1202c:	e5832008 	str	r2, [r3, #8]
   12030:	e51b3030 	ldr	r3, [fp, #-48]	; 0xffffffd0
   12034:	e5932020 	ldr	r2, [r3, #32]
   12038:	e51b3030 	ldr	r3, [fp, #-48]	; 0xffffffd0
   1203c:	e5933018 	ldr	r3, [r3, #24]
   12040:	e2830001 	add	r0, r3, #1
   12044:	e51b1030 	ldr	r1, [fp, #-48]	; 0xffffffd0
   12048:	e5810018 	str	r0, [r1, #24]
   1204c:	e0823003 	add	r3, r2, r3
   12050:	e5d33000 	ldrb	r3, [r3]
   12054:	e50b3020 	str	r3, [fp, #-32]	; 0xffffffe0
   12058:	e51b3038 	ldr	r3, [fp, #-56]	; 0xffffffc8
   1205c:	e2433001 	sub	r3, r3, #1
   12060:	e50b3038 	str	r3, [fp, #-56]	; 0xffffffc8
   12064:	e51b3030 	ldr	r3, [fp, #-48]	; 0xffffffd0
   12068:	e5933010 	ldr	r3, [r3, #16]
   1206c:	e3530000 	cmp	r3, #0
   12070:	1a000005 	bne	1208c <parse_symkeyenc+0x35c>
   12074:	e51b3030 	ldr	r3, [fp, #-48]	; 0xffffffd0
   12078:	e5932018 	ldr	r2, [r3, #24]
   1207c:	e51b3030 	ldr	r3, [fp, #-48]	; 0xffffffd0
   12080:	e593301c 	ldr	r3, [r3, #28]
   12084:	e1520003 	cmp	r2, r3
   12088:	3a000004 	bcc	120a0 <parse_symkeyenc+0x370>
   1208c:	e51b0030 	ldr	r0, [fp, #-48]	; 0xffffffd0
   12090:	ebffe0f4 	bl	a468 <iobuf_readbyte>
   12094:	e1a03000 	mov	r3, r0
   12098:	e6ef3073 	uxtb	r3, r3
   1209c:	ea00000d 	b	120d8 <parse_symkeyenc+0x3a8>
   120a0:	e51b3030 	ldr	r3, [fp, #-48]	; 0xffffffd0
   120a4:	e5933008 	ldr	r3, [r3, #8]
   120a8:	e2832001 	add	r2, r3, #1
   120ac:	e51b3030 	ldr	r3, [fp, #-48]	; 0xffffffd0
   120b0:	e5832008 	str	r2, [r3, #8]
   120b4:	e51b3030 	ldr	r3, [fp, #-48]	; 0xffffffd0
   120b8:	e5932020 	ldr	r2, [r3, #32]
   120bc:	e51b3030 	ldr	r3, [fp, #-48]	; 0xffffffd0
   120c0:	e5933018 	ldr	r3, [r3, #24]
   120c4:	e2830001 	add	r0, r3, #1
   120c8:	e51b1030 	ldr	r1, [fp, #-48]	; 0xffffffd0
   120cc:	e5810018 	str	r0, [r1, #24]
   120d0:	e0823003 	add	r3, r2, r3
   120d4:	e5d33000 	ldrb	r3, [r3]
   120d8:	e50b3024 	str	r3, [fp, #-36]	; 0xffffffdc
   120dc:	e51b3038 	ldr	r3, [fp, #-56]	; 0xffffffc8
   120e0:	e2433001 	sub	r3, r3, #1
   120e4:	e50b3038 	str	r3, [fp, #-56]	; 0xffffffc8
   120e8:	e51b3020 	ldr	r3, [fp, #-32]	; 0xffffffe0
   120ec:	e3530003 	cmp	r3, #3
   120f0:	0a00000f 	beq	12134 <parse_symkeyenc+0x404>
   120f4:	e51b3020 	ldr	r3, [fp, #-32]	; 0xffffffe0
   120f8:	e3530003 	cmp	r3, #3
   120fc:	ca00000f 	bgt	12140 <parse_symkeyenc+0x410>
   12100:	e51b3020 	ldr	r3, [fp, #-32]	; 0xffffffe0
   12104:	e3530000 	cmp	r3, #0
   12108:	0a000003 	beq	1211c <parse_symkeyenc+0x3ec>
   1210c:	e51b3020 	ldr	r3, [fp, #-32]	; 0xffffffe0
   12110:	e3530001 	cmp	r3, #1
   12114:	0a000003 	beq	12128 <parse_symkeyenc+0x3f8>
   12118:	ea000008 	b	12140 <parse_symkeyenc+0x410>
   1211c:	e3a03000 	mov	r3, #0
   12120:	e50b3014 	str	r3, [fp, #-20]	; 0xffffffec
   12124:	ea000016 	b	12184 <parse_symkeyenc+0x454>
   12128:	e3a03008 	mov	r3, #8
   1212c:	e50b3014 	str	r3, [fp, #-20]	; 0xffffffec
   12130:	ea000013 	b	12184 <parse_symkeyenc+0x454>
   12134:	e3a03009 	mov	r3, #9
   12138:	e50b3014 	str	r3, [fp, #-20]	; 0xffffffec
   1213c:	ea000010 	b	12184 <parse_symkeyenc+0x454>
   12140:	e51b1020 	ldr	r1, [fp, #-32]	; 0xffffffe0
   12144:	e305062c 	movw	r0, #22060	; 0x562c
   12148:	e3400001 	movt	r0, #1
   1214c:	eb0006bb 	bl	13c40 <tfp_printf>
   12150:	e30e3010 	movw	r3, #57360	; 0xe010
   12154:	e3403004 	movt	r3, #4
   12158:	e5933000 	ldr	r3, [r3]
   1215c:	e3530000 	cmp	r3, #0
   12160:	0a0000f5 	beq	1253c <parse_symkeyenc+0x80c>
   12164:	e30e3014 	movw	r3, #57364	; 0xe014
   12168:	e3403004 	movt	r3, #4
   1216c:	e5933000 	ldr	r3, [r3]
   12170:	e3051644 	movw	r1, #22084	; 0x5644
   12174:	e3401001 	movt	r1, #1
   12178:	e1a00003 	mov	r0, r3
   1217c:	eb0006af 	bl	13c40 <tfp_printf>
   12180:	ea0000ed 	b	1253c <parse_symkeyenc+0x80c>
   12184:	e51b3014 	ldr	r3, [fp, #-20]	; 0xffffffec
   12188:	e51b2038 	ldr	r2, [fp, #-56]	; 0xffffffc8
   1218c:	e1520003 	cmp	r2, r3
   12190:	2a000014 	bcs	121e8 <parse_symkeyenc+0x4b8>
   12194:	e51b1020 	ldr	r1, [fp, #-32]	; 0xffffffe0
   12198:	e305066c 	movw	r0, #22124	; 0x566c
   1219c:	e3400001 	movt	r0, #1
   121a0:	eb0006a6 	bl	13c40 <tfp_printf>
   121a4:	e30e3010 	movw	r3, #57360	; 0xe010
   121a8:	e3403004 	movt	r3, #4
   121ac:	e5933000 	ldr	r3, [r3]
   121b0:	e3530000 	cmp	r3, #0
   121b4:	0a000006 	beq	121d4 <parse_symkeyenc+0x4a4>
   121b8:	e30e3014 	movw	r3, #57364	; 0xe014
   121bc:	e3403004 	movt	r3, #4
   121c0:	e5933000 	ldr	r3, [r3]
   121c4:	e305168c 	movw	r1, #22156	; 0x568c
   121c8:	e3401001 	movt	r1, #1
   121cc:	e1a00003 	mov	r0, r3
   121d0:	eb00069a 	bl	13c40 <tfp_printf>
   121d4:	e3a0000e 	mov	r0, #14
   121d8:	ebfffa4e 	bl	10b18 <gpg_error>
   121dc:	e1a03000 	mov	r3, r0
   121e0:	e50b3008 	str	r3, [fp, #-8]
   121e4:	ea0000d5 	b	12540 <parse_symkeyenc+0x810>
   121e8:	e51b3014 	ldr	r3, [fp, #-20]	; 0xffffffec
   121ec:	e51b2038 	ldr	r2, [fp, #-56]	; 0xffffffc8
   121f0:	e0423003 	sub	r3, r2, r3
   121f4:	e50b3028 	str	r3, [fp, #-40]	; 0xffffffd8
   121f8:	e51b3028 	ldr	r3, [fp, #-40]	; 0xffffffd8
   121fc:	e283301b 	add	r3, r3, #27
   12200:	e1a00003 	mov	r0, r3
   12204:	ebfff877 	bl	103e8 <xmalloc_clear>
   12208:	e1a02000 	mov	r2, r0
   1220c:	e51b303c 	ldr	r3, [fp, #-60]	; 0xffffffc4
   12210:	e5832004 	str	r2, [r3, #4]
   12214:	e51b303c 	ldr	r3, [fp, #-60]	; 0xffffffc4
   12218:	e5933004 	ldr	r3, [r3, #4]
   1221c:	e50b302c 	str	r3, [fp, #-44]	; 0xffffffd4
   12220:	e51b3018 	ldr	r3, [fp, #-24]	; 0xffffffe8
   12224:	e6ef2073 	uxtb	r2, r3
   12228:	e51b302c 	ldr	r3, [fp, #-44]	; 0xffffffd4
   1222c:	e5c32000 	strb	r2, [r3]
   12230:	e51b301c 	ldr	r3, [fp, #-28]	; 0xffffffe4
   12234:	e6ef2073 	uxtb	r2, r3
   12238:	e51b302c 	ldr	r3, [fp, #-44]	; 0xffffffd4
   1223c:	e5c32001 	strb	r2, [r3, #1]
   12240:	e51b3010 	ldr	r3, [fp, #-16]
   12244:	e6ef2073 	uxtb	r2, r3
   12248:	e51b302c 	ldr	r3, [fp, #-44]	; 0xffffffd4
   1224c:	e5c32002 	strb	r2, [r3, #2]
   12250:	e51b302c 	ldr	r3, [fp, #-44]	; 0xffffffd4
   12254:	e51b2020 	ldr	r2, [fp, #-32]	; 0xffffffe0
   12258:	e5832004 	str	r2, [r3, #4]
   1225c:	e51b3024 	ldr	r3, [fp, #-36]	; 0xffffffdc
   12260:	e6ef2073 	uxtb	r2, r3
   12264:	e51b302c 	ldr	r3, [fp, #-44]	; 0xffffffd4
   12268:	e5c32008 	strb	r2, [r3, #8]
   1226c:	e51b3020 	ldr	r3, [fp, #-32]	; 0xffffffe0
   12270:	e3530001 	cmp	r3, #1
   12274:	0a000002 	beq	12284 <parse_symkeyenc+0x554>
   12278:	e51b3020 	ldr	r3, [fp, #-32]	; 0xffffffe0
   1227c:	e3530003 	cmp	r3, #3
   12280:	1a000030 	bne	12348 <parse_symkeyenc+0x618>
   12284:	e3a03000 	mov	r3, #0
   12288:	e50b300c 	str	r3, [fp, #-12]
   1228c:	ea000027 	b	12330 <parse_symkeyenc+0x600>
   12290:	e51b3030 	ldr	r3, [fp, #-48]	; 0xffffffd0
   12294:	e5933010 	ldr	r3, [r3, #16]
   12298:	e3530000 	cmp	r3, #0
   1229c:	1a000005 	bne	122b8 <parse_symkeyenc+0x588>
   122a0:	e51b3030 	ldr	r3, [fp, #-48]	; 0xffffffd0
   122a4:	e5932018 	ldr	r2, [r3, #24]
   122a8:	e51b3030 	ldr	r3, [fp, #-48]	; 0xffffffd0
   122ac:	e593301c 	ldr	r3, [r3, #28]
   122b0:	e1520003 	cmp	r2, r3
   122b4:	3a000004 	bcc	122cc <parse_symkeyenc+0x59c>
   122b8:	e51b0030 	ldr	r0, [fp, #-48]	; 0xffffffd0
   122bc:	ebffe069 	bl	a468 <iobuf_readbyte>
   122c0:	e1a03000 	mov	r3, r0
   122c4:	e6ef3073 	uxtb	r3, r3
   122c8:	ea00000d 	b	12304 <parse_symkeyenc+0x5d4>
   122cc:	e51b3030 	ldr	r3, [fp, #-48]	; 0xffffffd0
   122d0:	e5933008 	ldr	r3, [r3, #8]
   122d4:	e2832001 	add	r2, r3, #1
   122d8:	e51b3030 	ldr	r3, [fp, #-48]	; 0xffffffd0
   122dc:	e5832008 	str	r2, [r3, #8]
   122e0:	e51b3030 	ldr	r3, [fp, #-48]	; 0xffffffd0
   122e4:	e5932020 	ldr	r2, [r3, #32]
   122e8:	e51b3030 	ldr	r3, [fp, #-48]	; 0xffffffd0
   122ec:	e5933018 	ldr	r3, [r3, #24]
   122f0:	e2830001 	add	r0, r3, #1
   122f4:	e51b1030 	ldr	r1, [fp, #-48]	; 0xffffffd0
   122f8:	e5810018 	str	r0, [r1, #24]
   122fc:	e0823003 	add	r3, r2, r3
   12300:	e5d33000 	ldrb	r3, [r3]
   12304:	e51b102c 	ldr	r1, [fp, #-44]	; 0xffffffd4
   12308:	e51b200c 	ldr	r2, [fp, #-12]
   1230c:	e0812002 	add	r2, r1, r2
   12310:	e2822009 	add	r2, r2, #9
   12314:	e5c23000 	strb	r3, [r2]
   12318:	e51b300c 	ldr	r3, [fp, #-12]
   1231c:	e2833001 	add	r3, r3, #1
   12320:	e50b300c 	str	r3, [fp, #-12]
   12324:	e51b3038 	ldr	r3, [fp, #-56]	; 0xffffffc8
   12328:	e2433001 	sub	r3, r3, #1
   1232c:	e50b3038 	str	r3, [fp, #-56]	; 0xffffffc8
   12330:	e51b300c 	ldr	r3, [fp, #-12]
   12334:	e3530007 	cmp	r3, #7
   12338:	ca000002 	bgt	12348 <parse_symkeyenc+0x618>
   1233c:	e51b3038 	ldr	r3, [fp, #-56]	; 0xffffffc8
   12340:	e3530000 	cmp	r3, #0
   12344:	1affffd1 	bne	12290 <parse_symkeyenc+0x560>
   12348:	e51b3020 	ldr	r3, [fp, #-32]	; 0xffffffe0
   1234c:	e3530003 	cmp	r3, #3
   12350:	1a000021 	bne	123dc <parse_symkeyenc+0x6ac>
   12354:	e51b3030 	ldr	r3, [fp, #-48]	; 0xffffffd0
   12358:	e5933010 	ldr	r3, [r3, #16]
   1235c:	e3530000 	cmp	r3, #0
   12360:	1a000005 	bne	1237c <parse_symkeyenc+0x64c>
   12364:	e51b3030 	ldr	r3, [fp, #-48]	; 0xffffffd0
   12368:	e5932018 	ldr	r2, [r3, #24]
   1236c:	e51b3030 	ldr	r3, [fp, #-48]	; 0xffffffd0
   12370:	e593301c 	ldr	r3, [r3, #28]
   12374:	e1520003 	cmp	r2, r3
   12378:	3a000004 	bcc	12390 <parse_symkeyenc+0x660>
   1237c:	e51b0030 	ldr	r0, [fp, #-48]	; 0xffffffd0
   12380:	ebffe038 	bl	a468 <iobuf_readbyte>
   12384:	e1a03000 	mov	r3, r0
   12388:	e6ef3073 	uxtb	r3, r3
   1238c:	ea00000d 	b	123c8 <parse_symkeyenc+0x698>
   12390:	e51b3030 	ldr	r3, [fp, #-48]	; 0xffffffd0
   12394:	e5933008 	ldr	r3, [r3, #8]
   12398:	e2832001 	add	r2, r3, #1
   1239c:	e51b3030 	ldr	r3, [fp, #-48]	; 0xffffffd0
   123a0:	e5832008 	str	r2, [r3, #8]
   123a4:	e51b3030 	ldr	r3, [fp, #-48]	; 0xffffffd0
   123a8:	e5932020 	ldr	r2, [r3, #32]
   123ac:	e51b3030 	ldr	r3, [fp, #-48]	; 0xffffffd0
   123b0:	e5933018 	ldr	r3, [r3, #24]
   123b4:	e2830001 	add	r0, r3, #1
   123b8:	e51b1030 	ldr	r1, [fp, #-48]	; 0xffffffd0
   123bc:	e5810018 	str	r0, [r1, #24]
   123c0:	e0823003 	add	r3, r2, r3
   123c4:	e5d33000 	ldrb	r3, [r3]
   123c8:	e51b202c 	ldr	r2, [fp, #-44]	; 0xffffffd4
   123cc:	e5823014 	str	r3, [r2, #20]
   123d0:	e51b3038 	ldr	r3, [fp, #-56]	; 0xffffffc8
   123d4:	e2433001 	sub	r3, r3, #1
   123d8:	e50b3038 	str	r3, [fp, #-56]	; 0xffffffc8
   123dc:	e51b3028 	ldr	r3, [fp, #-40]	; 0xffffffd8
   123e0:	e6ef2073 	uxtb	r2, r3
   123e4:	e51b302c 	ldr	r3, [fp, #-44]	; 0xffffffd4
   123e8:	e5c32018 	strb	r2, [r3, #24]
   123ec:	e51b302c 	ldr	r3, [fp, #-44]	; 0xffffffd4
   123f0:	e5d33018 	ldrb	r3, [r3, #24]
   123f4:	e3530000 	cmp	r3, #0
   123f8:	0a00003a 	beq	124e8 <parse_symkeyenc+0x7b8>
   123fc:	e3a03000 	mov	r3, #0
   12400:	e50b300c 	str	r3, [fp, #-12]
   12404:	ea000027 	b	124a8 <parse_symkeyenc+0x778>
   12408:	e51b3030 	ldr	r3, [fp, #-48]	; 0xffffffd0
   1240c:	e5933010 	ldr	r3, [r3, #16]
   12410:	e3530000 	cmp	r3, #0
   12414:	1a000005 	bne	12430 <parse_symkeyenc+0x700>
   12418:	e51b3030 	ldr	r3, [fp, #-48]	; 0xffffffd0
   1241c:	e5932018 	ldr	r2, [r3, #24]
   12420:	e51b3030 	ldr	r3, [fp, #-48]	; 0xffffffd0
   12424:	e593301c 	ldr	r3, [r3, #28]
   12428:	e1520003 	cmp	r2, r3
   1242c:	3a000004 	bcc	12444 <parse_symkeyenc+0x714>
   12430:	e51b0030 	ldr	r0, [fp, #-48]	; 0xffffffd0
   12434:	ebffe00b 	bl	a468 <iobuf_readbyte>
   12438:	e1a03000 	mov	r3, r0
   1243c:	e6ef3073 	uxtb	r3, r3
   12440:	ea00000d 	b	1247c <parse_symkeyenc+0x74c>
   12444:	e51b3030 	ldr	r3, [fp, #-48]	; 0xffffffd0
   12448:	e5933008 	ldr	r3, [r3, #8]
   1244c:	e2832001 	add	r2, r3, #1
   12450:	e51b3030 	ldr	r3, [fp, #-48]	; 0xffffffd0
   12454:	e5832008 	str	r2, [r3, #8]
   12458:	e51b3030 	ldr	r3, [fp, #-48]	; 0xffffffd0
   1245c:	e5932020 	ldr	r2, [r3, #32]
   12460:	e51b3030 	ldr	r3, [fp, #-48]	; 0xffffffd0
   12464:	e5933018 	ldr	r3, [r3, #24]
   12468:	e2830001 	add	r0, r3, #1
   1246c:	e51b1030 	ldr	r1, [fp, #-48]	; 0xffffffd0
   12470:	e5810018 	str	r0, [r1, #24]
   12474:	e0823003 	add	r3, r2, r3
   12478:	e5d33000 	ldrb	r3, [r3]
   1247c:	e51b102c 	ldr	r1, [fp, #-44]	; 0xffffffd4
   12480:	e51b200c 	ldr	r2, [fp, #-12]
   12484:	e0812002 	add	r2, r1, r2
   12488:	e2822019 	add	r2, r2, #25
   1248c:	e5c23000 	strb	r3, [r2]
   12490:	e51b300c 	ldr	r3, [fp, #-12]
   12494:	e2833001 	add	r3, r3, #1
   12498:	e50b300c 	str	r3, [fp, #-12]
   1249c:	e51b3038 	ldr	r3, [fp, #-56]	; 0xffffffc8
   124a0:	e2433001 	sub	r3, r3, #1
   124a4:	e50b3038 	str	r3, [fp, #-56]	; 0xffffffc8
   124a8:	e51b200c 	ldr	r2, [fp, #-12]
   124ac:	e51b3028 	ldr	r3, [fp, #-40]	; 0xffffffd8
   124b0:	e1520003 	cmp	r2, r3
   124b4:	aa000002 	bge	124c4 <parse_symkeyenc+0x794>
   124b8:	e51b3038 	ldr	r3, [fp, #-56]	; 0xffffffc8
   124bc:	e3530000 	cmp	r3, #0
   124c0:	1affffd0 	bne	12408 <parse_symkeyenc+0x6d8>
   124c4:	e51b3020 	ldr	r3, [fp, #-32]	; 0xffffffe0
   124c8:	e3530001 	cmp	r3, #1
   124cc:	0a000005 	beq	124e8 <parse_symkeyenc+0x7b8>
   124d0:	e51b3020 	ldr	r3, [fp, #-32]	; 0xffffffe0
   124d4:	e3530003 	cmp	r3, #3
   124d8:	0a000002 	beq	124e8 <parse_symkeyenc+0x7b8>
   124dc:	e30506b0 	movw	r0, #22192	; 0x56b0
   124e0:	e3400001 	movt	r0, #1
   124e4:	eb0005d5 	bl	13c40 <tfp_printf>
   124e8:	e51b3028 	ldr	r3, [fp, #-40]	; 0xffffffd8
   124ec:	e3530000 	cmp	r3, #0
   124f0:	0a00000e 	beq	12530 <parse_symkeyenc+0x800>
   124f4:	e51b3010 	ldr	r3, [fp, #-16]
   124f8:	e3530000 	cmp	r3, #0
   124fc:	0a000004 	beq	12514 <parse_symkeyenc+0x7e4>
   12500:	e51b1028 	ldr	r1, [fp, #-40]	; 0xffffffd8
   12504:	e30506f4 	movw	r0, #22260	; 0x56f4
   12508:	e3400001 	movt	r0, #1
   1250c:	eb0005cb 	bl	13c40 <tfp_printf>
   12510:	ea000006 	b	12530 <parse_symkeyenc+0x800>
   12514:	e51b3028 	ldr	r3, [fp, #-40]	; 0xffffffd8
   12518:	e2433001 	sub	r3, r3, #1
   1251c:	e1a03183 	lsl	r3, r3, #3
   12520:	e1a01003 	mov	r1, r3
   12524:	e3050710 	movw	r0, #22288	; 0x5710
   12528:	e3400001 	movt	r0, #1
   1252c:	eb0005c3 	bl	13c40 <tfp_printf>
   12530:	e51b3020 	ldr	r3, [fp, #-32]	; 0xffffffe0
   12534:	e3530001 	cmp	r3, #1
   12538:	ea000000 	b	12540 <parse_symkeyenc+0x810>
   1253c:	e320f000 	nop	{0}
   12540:	e3a02000 	mov	r2, #0
   12544:	e51b1038 	ldr	r1, [fp, #-56]	; 0xffffffc8
   12548:	e51b0030 	ldr	r0, [fp, #-48]	; 0xffffffd0
   1254c:	ebffe188 	bl	ab74 <iobuf_skip_rest>
   12550:	e51b3008 	ldr	r3, [fp, #-8]
   12554:	ea000017 	b	125b8 <parse_symkeyenc+0x888>
   12558:	e320f000 	nop	{0}
   1255c:	ea000000 	b	12564 <parse_symkeyenc+0x834>
   12560:	e320f000 	nop	{0}
   12564:	e51b1034 	ldr	r1, [fp, #-52]	; 0xffffffcc
   12568:	e3050724 	movw	r0, #22308	; 0x5724
   1256c:	e3400001 	movt	r0, #1
   12570:	eb0005b2 	bl	13c40 <tfp_printf>
   12574:	e30e3010 	movw	r3, #57360	; 0xe010
   12578:	e3403004 	movt	r3, #4
   1257c:	e5933000 	ldr	r3, [r3]
   12580:	e3530000 	cmp	r3, #0
   12584:	0a000006 	beq	125a4 <parse_symkeyenc+0x874>
   12588:	e30e3014 	movw	r3, #57364	; 0xe014
   1258c:	e3403004 	movt	r3, #4
   12590:	e5933000 	ldr	r3, [r3]
   12594:	e305168c 	movw	r1, #22156	; 0x568c
   12598:	e3401001 	movt	r1, #1
   1259c:	e1a00003 	mov	r0, r3
   125a0:	eb0005a6 	bl	13c40 <tfp_printf>
   125a4:	e3a0000e 	mov	r0, #14
   125a8:	ebfff95a 	bl	10b18 <gpg_error>
   125ac:	e1a03000 	mov	r3, r0
   125b0:	e50b3008 	str	r3, [fp, #-8]
   125b4:	eaffffe1 	b	12540 <parse_symkeyenc+0x810>
   125b8:	e1a00003 	mov	r0, r3
   125bc:	e24bd004 	sub	sp, fp, #4
   125c0:	e8bd8800 	pop	{fp, pc}

000125c4 <parse_plaintext>:
   125c4:	e92d4800 	push	{fp, lr}
   125c8:	e28db004 	add	fp, sp, #4
   125cc:	e24dd038 	sub	sp, sp, #56	; 0x38
   125d0:	e50b0028 	str	r0, [fp, #-40]	; 0xffffffd8
   125d4:	e50b102c 	str	r1, [fp, #-44]	; 0xffffffd4
   125d8:	e50b2030 	str	r2, [fp, #-48]	; 0xffffffd0
   125dc:	e50b3034 	str	r3, [fp, #-52]	; 0xffffffcc
   125e0:	e3a03000 	mov	r3, #0
   125e4:	e50b3008 	str	r3, [fp, #-8]
   125e8:	e59b3008 	ldr	r3, [fp, #8]
   125ec:	e3530000 	cmp	r3, #0
   125f0:	1a00000c 	bne	12628 <parse_plaintext+0x64>
   125f4:	e51b3030 	ldr	r3, [fp, #-48]	; 0xffffffd0
   125f8:	e3530005 	cmp	r3, #5
   125fc:	8a000009 	bhi	12628 <parse_plaintext+0x64>
   12600:	e51b2030 	ldr	r2, [fp, #-48]	; 0xffffffd0
   12604:	e51b102c 	ldr	r1, [fp, #-44]	; 0xffffffd4
   12608:	e30507e8 	movw	r0, #22504	; 0x57e8
   1260c:	e3400001 	movt	r0, #1
   12610:	eb00058a 	bl	13c40 <tfp_printf>
   12614:	e3a0000e 	mov	r0, #14
   12618:	ebfff93e 	bl	10b18 <gpg_error>
   1261c:	e1a03000 	mov	r3, r0
   12620:	e50b3008 	str	r3, [fp, #-8]
   12624:	ea00012d 	b	12ae0 <parse_plaintext+0x51c>
   12628:	e51b3028 	ldr	r3, [fp, #-40]	; 0xffffffd8
   1262c:	e5933010 	ldr	r3, [r3, #16]
   12630:	e3530000 	cmp	r3, #0
   12634:	1a000005 	bne	12650 <parse_plaintext+0x8c>
   12638:	e51b3028 	ldr	r3, [fp, #-40]	; 0xffffffd8
   1263c:	e5932018 	ldr	r2, [r3, #24]
   12640:	e51b3028 	ldr	r3, [fp, #-40]	; 0xffffffd8
   12644:	e593301c 	ldr	r3, [r3, #28]
   12648:	e1520003 	cmp	r2, r3
   1264c:	3a000004 	bcc	12664 <parse_plaintext+0xa0>
   12650:	e51b0028 	ldr	r0, [fp, #-40]	; 0xffffffd8
   12654:	ebffdf83 	bl	a468 <iobuf_readbyte>
   12658:	e1a03000 	mov	r3, r0
   1265c:	e6ef3073 	uxtb	r3, r3
   12660:	ea00000d 	b	1269c <parse_plaintext+0xd8>
   12664:	e51b3028 	ldr	r3, [fp, #-40]	; 0xffffffd8
   12668:	e5933008 	ldr	r3, [r3, #8]
   1266c:	e2832001 	add	r2, r3, #1
   12670:	e51b3028 	ldr	r3, [fp, #-40]	; 0xffffffd8
   12674:	e5832008 	str	r2, [r3, #8]
   12678:	e51b3028 	ldr	r3, [fp, #-40]	; 0xffffffd8
   1267c:	e5932020 	ldr	r2, [r3, #32]
   12680:	e51b3028 	ldr	r3, [fp, #-40]	; 0xffffffd8
   12684:	e5933018 	ldr	r3, [r3, #24]
   12688:	e2830001 	add	r0, r3, #1
   1268c:	e51b1028 	ldr	r1, [fp, #-40]	; 0xffffffd8
   12690:	e5810018 	str	r0, [r1, #24]
   12694:	e0823003 	add	r3, r2, r3
   12698:	e5d33000 	ldrb	r3, [r3]
   1269c:	e50b3014 	str	r3, [fp, #-20]	; 0xffffffec
   126a0:	e51b3030 	ldr	r3, [fp, #-48]	; 0xffffffd0
   126a4:	e3530000 	cmp	r3, #0
   126a8:	0a000002 	beq	126b8 <parse_plaintext+0xf4>
   126ac:	e51b3030 	ldr	r3, [fp, #-48]	; 0xffffffd0
   126b0:	e2433001 	sub	r3, r3, #1
   126b4:	e50b3030 	str	r3, [fp, #-48]	; 0xffffffd0
   126b8:	e51b3028 	ldr	r3, [fp, #-40]	; 0xffffffd8
   126bc:	e5933010 	ldr	r3, [r3, #16]
   126c0:	e3530000 	cmp	r3, #0
   126c4:	1a000005 	bne	126e0 <parse_plaintext+0x11c>
   126c8:	e51b3028 	ldr	r3, [fp, #-40]	; 0xffffffd8
   126cc:	e5932018 	ldr	r2, [r3, #24]
   126d0:	e51b3028 	ldr	r3, [fp, #-40]	; 0xffffffd8
   126d4:	e593301c 	ldr	r3, [r3, #28]
   126d8:	e1520003 	cmp	r2, r3
   126dc:	3a000004 	bcc	126f4 <parse_plaintext+0x130>
   126e0:	e51b0028 	ldr	r0, [fp, #-40]	; 0xffffffd8
   126e4:	ebffdf5f 	bl	a468 <iobuf_readbyte>
   126e8:	e1a03000 	mov	r3, r0
   126ec:	e6ef3073 	uxtb	r3, r3
   126f0:	ea00000d 	b	1272c <parse_plaintext+0x168>
   126f4:	e51b3028 	ldr	r3, [fp, #-40]	; 0xffffffd8
   126f8:	e5933008 	ldr	r3, [r3, #8]
   126fc:	e2832001 	add	r2, r3, #1
   12700:	e51b3028 	ldr	r3, [fp, #-40]	; 0xffffffd8
   12704:	e5832008 	str	r2, [r3, #8]
   12708:	e51b3028 	ldr	r3, [fp, #-40]	; 0xffffffd8
   1270c:	e5932020 	ldr	r2, [r3, #32]
   12710:	e51b3028 	ldr	r3, [fp, #-40]	; 0xffffffd8
   12714:	e5933018 	ldr	r3, [r3, #24]
   12718:	e2830001 	add	r0, r3, #1
   1271c:	e51b1028 	ldr	r1, [fp, #-40]	; 0xffffffd8
   12720:	e5810018 	str	r0, [r1, #24]
   12724:	e0823003 	add	r3, r2, r3
   12728:	e5d33000 	ldrb	r3, [r3]
   1272c:	e50b3018 	str	r3, [fp, #-24]	; 0xffffffe8
   12730:	e51b3030 	ldr	r3, [fp, #-48]	; 0xffffffd0
   12734:	e3530000 	cmp	r3, #0
   12738:	0a000002 	beq	12748 <parse_plaintext+0x184>
   1273c:	e51b3030 	ldr	r3, [fp, #-48]	; 0xffffffd0
   12740:	e2433001 	sub	r3, r3, #1
   12744:	e50b3030 	str	r3, [fp, #-48]	; 0xffffffd0
   12748:	e51b3018 	ldr	r3, [fp, #-24]	; 0xffffffe8
   1274c:	e283301b 	add	r3, r3, #27
   12750:	e1a00003 	mov	r0, r3
   12754:	ebfff706 	bl	10374 <xmalloc>
   12758:	e1a02000 	mov	r2, r0
   1275c:	e51b3034 	ldr	r3, [fp, #-52]	; 0xffffffcc
   12760:	e5832004 	str	r2, [r3, #4]
   12764:	e51b3034 	ldr	r3, [fp, #-52]	; 0xffffffcc
   12768:	e5933004 	ldr	r3, [r3, #4]
   1276c:	e50b301c 	str	r3, [fp, #-28]	; 0xffffffe4
   12770:	e59b3004 	ldr	r3, [fp, #4]
   12774:	e6ef2073 	uxtb	r2, r3
   12778:	e51b301c 	ldr	r3, [fp, #-28]	; 0xffffffe4
   1277c:	e5c32008 	strb	r2, [r3, #8]
   12780:	e51b301c 	ldr	r3, [fp, #-28]	; 0xffffffe4
   12784:	e51b2014 	ldr	r2, [fp, #-20]	; 0xffffffec
   12788:	e583200c 	str	r2, [r3, #12]
   1278c:	e51b301c 	ldr	r3, [fp, #-28]	; 0xffffffe4
   12790:	e51b2018 	ldr	r2, [fp, #-24]	; 0xffffffe8
   12794:	e5832014 	str	r2, [r3, #20]
   12798:	e59b3008 	ldr	r3, [fp, #8]
   1279c:	e6ef2073 	uxtb	r2, r3
   127a0:	e51b301c 	ldr	r3, [fp, #-28]	; 0xffffffe4
   127a4:	e5c32009 	strb	r2, [r3, #9]
   127a8:	e51b3030 	ldr	r3, [fp, #-48]	; 0xffffffd0
   127ac:	e3530000 	cmp	r3, #0
   127b0:	0a000032 	beq	12880 <parse_plaintext+0x2bc>
   127b4:	e3a03000 	mov	r3, #0
   127b8:	e50b3010 	str	r3, [fp, #-16]
   127bc:	ea000027 	b	12860 <parse_plaintext+0x29c>
   127c0:	e51b3028 	ldr	r3, [fp, #-40]	; 0xffffffd8
   127c4:	e5933010 	ldr	r3, [r3, #16]
   127c8:	e3530000 	cmp	r3, #0
   127cc:	1a000005 	bne	127e8 <parse_plaintext+0x224>
   127d0:	e51b3028 	ldr	r3, [fp, #-40]	; 0xffffffd8
   127d4:	e5932018 	ldr	r2, [r3, #24]
   127d8:	e51b3028 	ldr	r3, [fp, #-40]	; 0xffffffd8
   127dc:	e593301c 	ldr	r3, [r3, #28]
   127e0:	e1520003 	cmp	r2, r3
   127e4:	3a000004 	bcc	127fc <parse_plaintext+0x238>
   127e8:	e51b0028 	ldr	r0, [fp, #-40]	; 0xffffffd8
   127ec:	ebffdf1d 	bl	a468 <iobuf_readbyte>
   127f0:	e1a03000 	mov	r3, r0
   127f4:	e6ef3073 	uxtb	r3, r3
   127f8:	ea00000d 	b	12834 <parse_plaintext+0x270>
   127fc:	e51b3028 	ldr	r3, [fp, #-40]	; 0xffffffd8
   12800:	e5933008 	ldr	r3, [r3, #8]
   12804:	e2832001 	add	r2, r3, #1
   12808:	e51b3028 	ldr	r3, [fp, #-40]	; 0xffffffd8
   1280c:	e5832008 	str	r2, [r3, #8]
   12810:	e51b3028 	ldr	r3, [fp, #-40]	; 0xffffffd8
   12814:	e5932020 	ldr	r2, [r3, #32]
   12818:	e51b3028 	ldr	r3, [fp, #-40]	; 0xffffffd8
   1281c:	e5933018 	ldr	r3, [r3, #24]
   12820:	e2830001 	add	r0, r3, #1
   12824:	e51b1028 	ldr	r1, [fp, #-40]	; 0xffffffd8
   12828:	e5810018 	str	r0, [r1, #24]
   1282c:	e0823003 	add	r3, r2, r3
   12830:	e5d33000 	ldrb	r3, [r3]
   12834:	e51b101c 	ldr	r1, [fp, #-28]	; 0xffffffe4
   12838:	e51b2010 	ldr	r2, [fp, #-16]
   1283c:	e0812002 	add	r2, r1, r2
   12840:	e2822018 	add	r2, r2, #24
   12844:	e5c23000 	strb	r3, [r2]
   12848:	e51b3030 	ldr	r3, [fp, #-48]	; 0xffffffd0
   1284c:	e2433001 	sub	r3, r3, #1
   12850:	e50b3030 	str	r3, [fp, #-48]	; 0xffffffd0
   12854:	e51b3010 	ldr	r3, [fp, #-16]
   12858:	e2833001 	add	r3, r3, #1
   1285c:	e50b3010 	str	r3, [fp, #-16]
   12860:	e51b3030 	ldr	r3, [fp, #-48]	; 0xffffffd0
   12864:	e3530004 	cmp	r3, #4
   12868:	9a000042 	bls	12978 <parse_plaintext+0x3b4>
   1286c:	e51b2010 	ldr	r2, [fp, #-16]
   12870:	e51b3018 	ldr	r3, [fp, #-24]	; 0xffffffe8
   12874:	e1520003 	cmp	r2, r3
   12878:	baffffd0 	blt	127c0 <parse_plaintext+0x1fc>
   1287c:	ea00003d 	b	12978 <parse_plaintext+0x3b4>
   12880:	e3a03000 	mov	r3, #0
   12884:	e50b3010 	str	r3, [fp, #-16]
   12888:	ea00002a 	b	12938 <parse_plaintext+0x374>
   1288c:	e51b3028 	ldr	r3, [fp, #-40]	; 0xffffffd8
   12890:	e5933010 	ldr	r3, [r3, #16]
   12894:	e3530000 	cmp	r3, #0
   12898:	1a000005 	bne	128b4 <parse_plaintext+0x2f0>
   1289c:	e51b3028 	ldr	r3, [fp, #-40]	; 0xffffffd8
   128a0:	e5932018 	ldr	r2, [r3, #24]
   128a4:	e51b3028 	ldr	r3, [fp, #-40]	; 0xffffffd8
   128a8:	e593301c 	ldr	r3, [r3, #28]
   128ac:	e1520003 	cmp	r2, r3
   128b0:	3a000003 	bcc	128c4 <parse_plaintext+0x300>
   128b4:	e51b0028 	ldr	r0, [fp, #-40]	; 0xffffffd8
   128b8:	ebffdeea 	bl	a468 <iobuf_readbyte>
   128bc:	e1a03000 	mov	r3, r0
   128c0:	ea00000d 	b	128fc <parse_plaintext+0x338>
   128c4:	e51b3028 	ldr	r3, [fp, #-40]	; 0xffffffd8
   128c8:	e5933008 	ldr	r3, [r3, #8]
   128cc:	e2832001 	add	r2, r3, #1
   128d0:	e51b3028 	ldr	r3, [fp, #-40]	; 0xffffffd8
   128d4:	e5832008 	str	r2, [r3, #8]
   128d8:	e51b3028 	ldr	r3, [fp, #-40]	; 0xffffffd8
   128dc:	e5932020 	ldr	r2, [r3, #32]
   128e0:	e51b3028 	ldr	r3, [fp, #-40]	; 0xffffffd8
   128e4:	e5933018 	ldr	r3, [r3, #24]
   128e8:	e2830001 	add	r0, r3, #1
   128ec:	e51b1028 	ldr	r1, [fp, #-40]	; 0xffffffd8
   128f0:	e5810018 	str	r0, [r1, #24]
   128f4:	e0823003 	add	r3, r2, r3
   128f8:	e5d33000 	ldrb	r3, [r3]
   128fc:	e50b3020 	str	r3, [fp, #-32]	; 0xffffffe0
   12900:	e51b3020 	ldr	r3, [fp, #-32]	; 0xffffffe0
   12904:	e3730001 	cmn	r3, #1
   12908:	0a00000f 	beq	1294c <parse_plaintext+0x388>
   1290c:	e51b3020 	ldr	r3, [fp, #-32]	; 0xffffffe0
   12910:	e6ef1073 	uxtb	r1, r3
   12914:	e51b201c 	ldr	r2, [fp, #-28]	; 0xffffffe4
   12918:	e51b3010 	ldr	r3, [fp, #-16]
   1291c:	e0823003 	add	r3, r2, r3
   12920:	e2833018 	add	r3, r3, #24
   12924:	e1a02001 	mov	r2, r1
   12928:	e5c32000 	strb	r2, [r3]
   1292c:	e51b3010 	ldr	r3, [fp, #-16]
   12930:	e2833001 	add	r3, r3, #1
   12934:	e50b3010 	str	r3, [fp, #-16]
   12938:	e51b2010 	ldr	r2, [fp, #-16]
   1293c:	e51b3018 	ldr	r3, [fp, #-24]	; 0xffffffe8
   12940:	e1520003 	cmp	r2, r3
   12944:	baffffd0 	blt	1288c <parse_plaintext+0x2c8>
   12948:	ea00000a 	b	12978 <parse_plaintext+0x3b4>
   1294c:	e320f000 	nop	{0}
   12950:	ea000008 	b	12978 <parse_plaintext+0x3b4>
   12954:	e51b201c 	ldr	r2, [fp, #-28]	; 0xffffffe4
   12958:	e51b3010 	ldr	r3, [fp, #-16]
   1295c:	e0823003 	add	r3, r2, r3
   12960:	e2833018 	add	r3, r3, #24
   12964:	e3a02000 	mov	r2, #0
   12968:	e5c32000 	strb	r2, [r3]
   1296c:	e51b3010 	ldr	r3, [fp, #-16]
   12970:	e2833001 	add	r3, r3, #1
   12974:	e50b3010 	str	r3, [fp, #-16]
   12978:	e51b2010 	ldr	r2, [fp, #-16]
   1297c:	e51b3018 	ldr	r3, [fp, #-24]	; 0xffffffe8
   12980:	e1520003 	cmp	r2, r3
   12984:	bafffff2 	blt	12954 <parse_plaintext+0x390>
   12988:	e51b0028 	ldr	r0, [fp, #-40]	; 0xffffffd8
   1298c:	ebfff891 	bl	10bd8 <read_32>
   12990:	e1a02000 	mov	r2, r0
   12994:	e51b301c 	ldr	r3, [fp, #-28]	; 0xffffffe4
   12998:	e5832010 	str	r2, [r3, #16]
   1299c:	e51b3030 	ldr	r3, [fp, #-48]	; 0xffffffd0
   129a0:	e3530000 	cmp	r3, #0
   129a4:	0a000002 	beq	129b4 <parse_plaintext+0x3f0>
   129a8:	e51b3030 	ldr	r3, [fp, #-48]	; 0xffffffd0
   129ac:	e2433004 	sub	r3, r3, #4
   129b0:	e50b3030 	str	r3, [fp, #-48]	; 0xffffffd0
   129b4:	e51b301c 	ldr	r3, [fp, #-28]	; 0xffffffe4
   129b8:	e51b2030 	ldr	r2, [fp, #-48]	; 0xffffffd0
   129bc:	e5832000 	str	r2, [r3]
   129c0:	e51b301c 	ldr	r3, [fp, #-28]	; 0xffffffe4
   129c4:	e51b2028 	ldr	r2, [fp, #-40]	; 0xffffffd8
   129c8:	e5832004 	str	r2, [r3, #4]
   129cc:	e30e3010 	movw	r3, #57360	; 0xe010
   129d0:	e3403004 	movt	r3, #4
   129d4:	e5933000 	ldr	r3, [r3]
   129d8:	e3530000 	cmp	r3, #0
   129dc:	0a00003e 	beq	12adc <parse_plaintext+0x518>
   129e0:	e30e3014 	movw	r3, #57364	; 0xe014
   129e4:	e3403004 	movt	r3, #4
   129e8:	e5930000 	ldr	r0, [r3]
   129ec:	e51b3014 	ldr	r3, [fp, #-20]	; 0xffffffec
   129f0:	e353001f 	cmp	r3, #31
   129f4:	da000004 	ble	12a0c <parse_plaintext+0x448>
   129f8:	e51b3014 	ldr	r3, [fp, #-20]	; 0xffffffec
   129fc:	e3530079 	cmp	r3, #121	; 0x79
   12a00:	ca000001 	bgt	12a0c <parse_plaintext+0x448>
   12a04:	e51b2014 	ldr	r2, [fp, #-20]	; 0xffffffec
   12a08:	ea000000 	b	12a10 <parse_plaintext+0x44c>
   12a0c:	e3a0203f 	mov	r2, #63	; 0x3f
   12a10:	e51b301c 	ldr	r3, [fp, #-28]	; 0xffffffe4
   12a14:	e5933010 	ldr	r3, [r3, #16]
   12a18:	e58d3000 	str	r3, [sp]
   12a1c:	e51b3014 	ldr	r3, [fp, #-20]	; 0xffffffec
   12a20:	e3051804 	movw	r1, #22532	; 0x5804
   12a24:	e3401001 	movt	r1, #1
   12a28:	eb000484 	bl	13c40 <tfp_printf>
   12a2c:	e51b301c 	ldr	r3, [fp, #-28]	; 0xffffffe4
   12a30:	e2833018 	add	r3, r3, #24
   12a34:	e50b300c 	str	r3, [fp, #-12]
   12a38:	e3a03000 	mov	r3, #0
   12a3c:	e50b3010 	str	r3, [fp, #-16]
   12a40:	ea000005 	b	12a5c <parse_plaintext+0x498>
   12a44:	e51b300c 	ldr	r3, [fp, #-12]
   12a48:	e2833001 	add	r3, r3, #1
   12a4c:	e50b300c 	str	r3, [fp, #-12]
   12a50:	e51b3010 	ldr	r3, [fp, #-16]
   12a54:	e2833001 	add	r3, r3, #1
   12a58:	e50b3010 	str	r3, [fp, #-16]
   12a5c:	e51b2010 	ldr	r2, [fp, #-16]
   12a60:	e51b3018 	ldr	r3, [fp, #-24]	; 0xffffffe8
   12a64:	e1520003 	cmp	r2, r3
   12a68:	bafffff5 	blt	12a44 <parse_plaintext+0x480>
   12a6c:	e30e3014 	movw	r3, #57364	; 0xe014
   12a70:	e3403004 	movt	r3, #4
   12a74:	e5933000 	ldr	r3, [r3]
   12a78:	e3051840 	movw	r1, #22592	; 0x5840
   12a7c:	e3401001 	movt	r1, #1
   12a80:	e1a00003 	mov	r0, r3
   12a84:	eb00046d 	bl	13c40 <tfp_printf>
   12a88:	e59b3008 	ldr	r3, [fp, #8]
   12a8c:	e3530000 	cmp	r3, #0
   12a90:	0a000007 	beq	12ab4 <parse_plaintext+0x4f0>
   12a94:	e30e3014 	movw	r3, #57364	; 0xe014
   12a98:	e3403004 	movt	r3, #4
   12a9c:	e5933000 	ldr	r3, [r3]
   12aa0:	e3051850 	movw	r1, #22608	; 0x5850
   12aa4:	e3401001 	movt	r1, #1
   12aa8:	e1a00003 	mov	r0, r3
   12aac:	eb000463 	bl	13c40 <tfp_printf>
   12ab0:	ea00000a 	b	12ae0 <parse_plaintext+0x51c>
   12ab4:	e30e3014 	movw	r3, #57364	; 0xe014
   12ab8:	e3403004 	movt	r3, #4
   12abc:	e5930000 	ldr	r0, [r3]
   12ac0:	e51b301c 	ldr	r3, [fp, #-28]	; 0xffffffe4
   12ac4:	e5933000 	ldr	r3, [r3]
   12ac8:	e1a02003 	mov	r2, r3
   12acc:	e3051860 	movw	r1, #22624	; 0x5860
   12ad0:	e3401001 	movt	r1, #1
   12ad4:	eb000459 	bl	13c40 <tfp_printf>
   12ad8:	ea000000 	b	12ae0 <parse_plaintext+0x51c>
   12adc:	e320f000 	nop	{0}
   12ae0:	e51b3008 	ldr	r3, [fp, #-8]
   12ae4:	e1a00003 	mov	r0, r3
   12ae8:	e24bd004 	sub	sp, fp, #4
   12aec:	e8bd8800 	pop	{fp, pc}

00012af0 <parse_encrypted>:
   12af0:	e92d4800 	push	{fp, lr}
   12af4:	e28db004 	add	fp, sp, #4
   12af8:	e24dd020 	sub	sp, sp, #32
   12afc:	e50b0018 	str	r0, [fp, #-24]	; 0xffffffe8
   12b00:	e50b101c 	str	r1, [fp, #-28]	; 0xffffffe4
   12b04:	e50b2020 	str	r2, [fp, #-32]	; 0xffffffe0
   12b08:	e50b3024 	str	r3, [fp, #-36]	; 0xffffffdc
   12b0c:	e3a03000 	mov	r3, #0
   12b10:	e50b3008 	str	r3, [fp, #-8]
   12b14:	e51b3020 	ldr	r3, [fp, #-32]	; 0xffffffe0
   12b18:	e50b300c 	str	r3, [fp, #-12]
   12b1c:	e3a00014 	mov	r0, #20
   12b20:	ebfff613 	bl	10374 <xmalloc>
   12b24:	e1a02000 	mov	r2, r0
   12b28:	e51b3024 	ldr	r3, [fp, #-36]	; 0xffffffdc
   12b2c:	e5832004 	str	r2, [r3, #4]
   12b30:	e51b3024 	ldr	r3, [fp, #-36]	; 0xffffffdc
   12b34:	e5933004 	ldr	r3, [r3, #4]
   12b38:	e50b3010 	str	r3, [fp, #-16]
   12b3c:	e51b3010 	ldr	r3, [fp, #-16]
   12b40:	e3a02000 	mov	r2, #0
   12b44:	e5832004 	str	r2, [r3, #4]
   12b48:	e51b3010 	ldr	r3, [fp, #-16]
   12b4c:	e3a02000 	mov	r2, #0
   12b50:	e5832010 	str	r2, [r3, #16]
   12b54:	e59b3004 	ldr	r3, [fp, #4]
   12b58:	e6ef2073 	uxtb	r2, r3
   12b5c:	e51b3010 	ldr	r3, [fp, #-16]
   12b60:	e5c32008 	strb	r2, [r3, #8]
   12b64:	e59b3008 	ldr	r3, [fp, #8]
   12b68:	e6ef2073 	uxtb	r2, r3
   12b6c:	e51b3010 	ldr	r3, [fp, #-16]
   12b70:	e5c32009 	strb	r2, [r3, #9]
   12b74:	e51b3010 	ldr	r3, [fp, #-16]
   12b78:	e3a02000 	mov	r2, #0
   12b7c:	e5c3200b 	strb	r2, [r3, #11]
   12b80:	e51b3010 	ldr	r3, [fp, #-16]
   12b84:	e3a02000 	mov	r2, #0
   12b88:	e5c3200c 	strb	r2, [r3, #12]
   12b8c:	e51b3010 	ldr	r3, [fp, #-16]
   12b90:	e3a02000 	mov	r2, #0
   12b94:	e5c3200d 	strb	r2, [r3, #13]
   12b98:	e51b301c 	ldr	r3, [fp, #-28]	; 0xffffffe4
   12b9c:	e3530012 	cmp	r3, #18
   12ba0:	1a000033 	bne	12c74 <parse_encrypted+0x184>
   12ba4:	e51b3018 	ldr	r3, [fp, #-24]	; 0xffffffe8
   12ba8:	e5933010 	ldr	r3, [r3, #16]
   12bac:	e3530000 	cmp	r3, #0
   12bb0:	1a000005 	bne	12bcc <parse_encrypted+0xdc>
   12bb4:	e51b3018 	ldr	r3, [fp, #-24]	; 0xffffffe8
   12bb8:	e5932018 	ldr	r2, [r3, #24]
   12bbc:	e51b3018 	ldr	r3, [fp, #-24]	; 0xffffffe8
   12bc0:	e593301c 	ldr	r3, [r3, #28]
   12bc4:	e1520003 	cmp	r2, r3
   12bc8:	3a000004 	bcc	12be0 <parse_encrypted+0xf0>
   12bcc:	e51b0018 	ldr	r0, [fp, #-24]	; 0xffffffe8
   12bd0:	ebffde24 	bl	a468 <iobuf_readbyte>
   12bd4:	e1a03000 	mov	r3, r0
   12bd8:	e6ef3073 	uxtb	r3, r3
   12bdc:	ea00000d 	b	12c18 <parse_encrypted+0x128>
   12be0:	e51b3018 	ldr	r3, [fp, #-24]	; 0xffffffe8
   12be4:	e5933008 	ldr	r3, [r3, #8]
   12be8:	e2832001 	add	r2, r3, #1
   12bec:	e51b3018 	ldr	r3, [fp, #-24]	; 0xffffffe8
   12bf0:	e5832008 	str	r2, [r3, #8]
   12bf4:	e51b3018 	ldr	r3, [fp, #-24]	; 0xffffffe8
   12bf8:	e5932020 	ldr	r2, [r3, #32]
   12bfc:	e51b3018 	ldr	r3, [fp, #-24]	; 0xffffffe8
   12c00:	e5933018 	ldr	r3, [r3, #24]
   12c04:	e2830001 	add	r0, r3, #1
   12c08:	e51b1018 	ldr	r1, [fp, #-24]	; 0xffffffe8
   12c0c:	e5810018 	str	r0, [r1, #24]
   12c10:	e0823003 	add	r3, r2, r3
   12c14:	e5d33000 	ldrb	r3, [r3]
   12c18:	e50b3014 	str	r3, [fp, #-20]	; 0xffffffec
   12c1c:	e51b300c 	ldr	r3, [fp, #-12]
   12c20:	e3530000 	cmp	r3, #0
   12c24:	0a000002 	beq	12c34 <parse_encrypted+0x144>
   12c28:	e51b3020 	ldr	r3, [fp, #-32]	; 0xffffffe0
   12c2c:	e2433001 	sub	r3, r3, #1
   12c30:	e50b3020 	str	r3, [fp, #-32]	; 0xffffffe0
   12c34:	e51b3014 	ldr	r3, [fp, #-20]	; 0xffffffec
   12c38:	e3530001 	cmp	r3, #1
   12c3c:	0a000008 	beq	12c64 <parse_encrypted+0x174>
   12c40:	e51b1014 	ldr	r1, [fp, #-20]	; 0xffffffec
   12c44:	e305088c 	movw	r0, #22668	; 0x588c
   12c48:	e3400001 	movt	r0, #1
   12c4c:	eb0003fb 	bl	13c40 <tfp_printf>
   12c50:	e3a0000e 	mov	r0, #14
   12c54:	ebfff7af 	bl	10b18 <gpg_error>
   12c58:	e1a03000 	mov	r3, r0
   12c5c:	e50b3008 	str	r3, [fp, #-8]
   12c60:	ea00004c 	b	12d98 <parse_encrypted+0x2a8>
   12c64:	e51b3010 	ldr	r3, [fp, #-16]
   12c68:	e3a02002 	mov	r2, #2
   12c6c:	e5c3200a 	strb	r2, [r3, #10]
   12c70:	ea000002 	b	12c80 <parse_encrypted+0x190>
   12c74:	e51b3010 	ldr	r3, [fp, #-16]
   12c78:	e3a02000 	mov	r2, #0
   12c7c:	e5c3200a 	strb	r2, [r3, #10]
   12c80:	e51b300c 	ldr	r3, [fp, #-12]
   12c84:	e3530000 	cmp	r3, #0
   12c88:	0a00000d 	beq	12cc4 <parse_encrypted+0x1d4>
   12c8c:	e51b3020 	ldr	r3, [fp, #-32]	; 0xffffffe0
   12c90:	e3530009 	cmp	r3, #9
   12c94:	8a00000a 	bhi	12cc4 <parse_encrypted+0x1d4>
   12c98:	e51b101c 	ldr	r1, [fp, #-28]	; 0xffffffe4
   12c9c:	e3050724 	movw	r0, #22308	; 0x5724
   12ca0:	e3400001 	movt	r0, #1
   12ca4:	eb0003e5 	bl	13c40 <tfp_printf>
   12ca8:	e3a0300e 	mov	r3, #14
   12cac:	e50b3008 	str	r3, [fp, #-8]
   12cb0:	e59b2008 	ldr	r2, [fp, #8]
   12cb4:	e51b1020 	ldr	r1, [fp, #-32]	; 0xffffffe0
   12cb8:	e51b0018 	ldr	r0, [fp, #-24]	; 0xffffffe8
   12cbc:	ebffdfac 	bl	ab74 <iobuf_skip_rest>
   12cc0:	ea000034 	b	12d98 <parse_encrypted+0x2a8>
   12cc4:	e51b3010 	ldr	r3, [fp, #-16]
   12cc8:	e51b2020 	ldr	r2, [fp, #-32]	; 0xffffffe0
   12ccc:	e5832000 	str	r2, [r3]
   12cd0:	e51b3010 	ldr	r3, [fp, #-16]
   12cd4:	e5933000 	ldr	r3, [r3]
   12cd8:	e3530000 	cmp	r3, #0
   12cdc:	0a000005 	beq	12cf8 <parse_encrypted+0x208>
   12ce0:	e51b3010 	ldr	r3, [fp, #-16]
   12ce4:	e5933000 	ldr	r3, [r3]
   12ce8:	e1a01003 	mov	r1, r3
   12cec:	e30508bc 	movw	r0, #22716	; 0x58bc
   12cf0:	e3400001 	movt	r0, #1
   12cf4:	eb0003d1 	bl	13c40 <tfp_printf>
   12cf8:	e30e3010 	movw	r3, #57360	; 0xe010
   12cfc:	e3403004 	movt	r3, #4
   12d00:	e5933000 	ldr	r3, [r3]
   12d04:	e3530000 	cmp	r3, #0
   12d08:	0a00001f 	beq	12d8c <parse_encrypted+0x29c>
   12d0c:	e51b300c 	ldr	r3, [fp, #-12]
   12d10:	e3530000 	cmp	r3, #0
   12d14:	0a000008 	beq	12d3c <parse_encrypted+0x24c>
   12d18:	e30e3014 	movw	r3, #57364	; 0xe014
   12d1c:	e3403004 	movt	r3, #4
   12d20:	e5933000 	ldr	r3, [r3]
   12d24:	e51b200c 	ldr	r2, [fp, #-12]
   12d28:	e30518d8 	movw	r1, #22744	; 0x58d8
   12d2c:	e3401001 	movt	r1, #1
   12d30:	e1a00003 	mov	r0, r3
   12d34:	eb0003c1 	bl	13c40 <tfp_printf>
   12d38:	ea000006 	b	12d58 <parse_encrypted+0x268>
   12d3c:	e30e3014 	movw	r3, #57364	; 0xe014
   12d40:	e3403004 	movt	r3, #4
   12d44:	e5933000 	ldr	r3, [r3]
   12d48:	e3051900 	movw	r1, #22784	; 0x5900
   12d4c:	e3401001 	movt	r1, #1
   12d50:	e1a00003 	mov	r0, r3
   12d54:	eb0003b9 	bl	13c40 <tfp_printf>
   12d58:	e51b3010 	ldr	r3, [fp, #-16]
   12d5c:	e5d3300a 	ldrb	r3, [r3, #10]
   12d60:	e3530000 	cmp	r3, #0
   12d64:	0a000008 	beq	12d8c <parse_encrypted+0x29c>
   12d68:	e30e3014 	movw	r3, #57364	; 0xe014
   12d6c:	e3403004 	movt	r3, #4
   12d70:	e5930000 	ldr	r0, [r3]
   12d74:	e51b3010 	ldr	r3, [fp, #-16]
   12d78:	e5d3300a 	ldrb	r3, [r3, #10]
   12d7c:	e1a02003 	mov	r2, r3
   12d80:	e305192c 	movw	r1, #22828	; 0x592c
   12d84:	e3401001 	movt	r1, #1
   12d88:	eb0003ac 	bl	13c40 <tfp_printf>
   12d8c:	e51b3010 	ldr	r3, [fp, #-16]
   12d90:	e51b2018 	ldr	r2, [fp, #-24]	; 0xffffffe8
   12d94:	e5832010 	str	r2, [r3, #16]
   12d98:	e51b3008 	ldr	r3, [fp, #-8]
   12d9c:	e1a00003 	mov	r0, r3
   12da0:	e24bd004 	sub	sp, fp, #4
   12da4:	e8bd8800 	pop	{fp, pc}

00012da8 <parse_mdc>:
   12da8:	e92d4800 	push	{fp, lr}
   12dac:	e28db004 	add	fp, sp, #4
   12db0:	e24dd020 	sub	sp, sp, #32
   12db4:	e50b0018 	str	r0, [fp, #-24]	; 0xffffffe8
   12db8:	e50b101c 	str	r1, [fp, #-28]	; 0xffffffe4
   12dbc:	e50b2020 	str	r2, [fp, #-32]	; 0xffffffe0
   12dc0:	e50b3024 	str	r3, [fp, #-36]	; 0xffffffdc
   12dc4:	e3a03000 	mov	r3, #0
   12dc8:	e50b3008 	str	r3, [fp, #-8]
   12dcc:	e3a00014 	mov	r0, #20
   12dd0:	ebfff567 	bl	10374 <xmalloc>
   12dd4:	e1a02000 	mov	r2, r0
   12dd8:	e51b3024 	ldr	r3, [fp, #-36]	; 0xffffffdc
   12ddc:	e5832004 	str	r2, [r3, #4]
   12de0:	e51b3024 	ldr	r3, [fp, #-36]	; 0xffffffdc
   12de4:	e5933004 	ldr	r3, [r3, #4]
   12de8:	e50b3010 	str	r3, [fp, #-16]
   12dec:	e30e3010 	movw	r3, #57360	; 0xe010
   12df0:	e3403004 	movt	r3, #4
   12df4:	e5933000 	ldr	r3, [r3]
   12df8:	e3530000 	cmp	r3, #0
   12dfc:	0a000007 	beq	12e20 <parse_mdc+0x78>
   12e00:	e30e3014 	movw	r3, #57364	; 0xe014
   12e04:	e3403004 	movt	r3, #4
   12e08:	e5933000 	ldr	r3, [r3]
   12e0c:	e51b2020 	ldr	r2, [fp, #-32]	; 0xffffffe0
   12e10:	e3051940 	movw	r1, #22848	; 0x5940
   12e14:	e3401001 	movt	r1, #1
   12e18:	e1a00003 	mov	r0, r3
   12e1c:	eb000387 	bl	13c40 <tfp_printf>
   12e20:	e59b3004 	ldr	r3, [fp, #4]
   12e24:	e3530000 	cmp	r3, #0
   12e28:	0a000002 	beq	12e38 <parse_mdc+0x90>
   12e2c:	e51b3020 	ldr	r3, [fp, #-32]	; 0xffffffe0
   12e30:	e3530014 	cmp	r3, #20
   12e34:	0a000007 	beq	12e58 <parse_mdc+0xb0>
   12e38:	e305095c 	movw	r0, #22876	; 0x595c
   12e3c:	e3400001 	movt	r0, #1
   12e40:	eb00037e 	bl	13c40 <tfp_printf>
   12e44:	e3a0000e 	mov	r0, #14
   12e48:	ebfff732 	bl	10b18 <gpg_error>
   12e4c:	e1a03000 	mov	r3, r0
   12e50:	e50b3008 	str	r3, [fp, #-8]
   12e54:	ea00002b 	b	12f08 <parse_mdc+0x160>
   12e58:	e51b3010 	ldr	r3, [fp, #-16]
   12e5c:	e50b300c 	str	r3, [fp, #-12]
   12e60:	ea000024 	b	12ef8 <parse_mdc+0x150>
   12e64:	e51b3018 	ldr	r3, [fp, #-24]	; 0xffffffe8
   12e68:	e5933010 	ldr	r3, [r3, #16]
   12e6c:	e3530000 	cmp	r3, #0
   12e70:	1a000005 	bne	12e8c <parse_mdc+0xe4>
   12e74:	e51b3018 	ldr	r3, [fp, #-24]	; 0xffffffe8
   12e78:	e5932018 	ldr	r2, [r3, #24]
   12e7c:	e51b3018 	ldr	r3, [fp, #-24]	; 0xffffffe8
   12e80:	e593301c 	ldr	r3, [r3, #28]
   12e84:	e1520003 	cmp	r2, r3
   12e88:	3a000004 	bcc	12ea0 <parse_mdc+0xf8>
   12e8c:	e51b0018 	ldr	r0, [fp, #-24]	; 0xffffffe8
   12e90:	ebffdd74 	bl	a468 <iobuf_readbyte>
   12e94:	e1a03000 	mov	r3, r0
   12e98:	e6ef3073 	uxtb	r3, r3
   12e9c:	ea00000d 	b	12ed8 <parse_mdc+0x130>
   12ea0:	e51b3018 	ldr	r3, [fp, #-24]	; 0xffffffe8
   12ea4:	e5933008 	ldr	r3, [r3, #8]
   12ea8:	e2832001 	add	r2, r3, #1
   12eac:	e51b3018 	ldr	r3, [fp, #-24]	; 0xffffffe8
   12eb0:	e5832008 	str	r2, [r3, #8]
   12eb4:	e51b3018 	ldr	r3, [fp, #-24]	; 0xffffffe8
   12eb8:	e5932020 	ldr	r2, [r3, #32]
   12ebc:	e51b3018 	ldr	r3, [fp, #-24]	; 0xffffffe8
   12ec0:	e5933018 	ldr	r3, [r3, #24]
   12ec4:	e2830001 	add	r0, r3, #1
   12ec8:	e51b1018 	ldr	r1, [fp, #-24]	; 0xffffffe8
   12ecc:	e5810018 	str	r0, [r1, #24]
   12ed0:	e0823003 	add	r3, r2, r3
   12ed4:	e5d33000 	ldrb	r3, [r3]
   12ed8:	e51b200c 	ldr	r2, [fp, #-12]
   12edc:	e5c23000 	strb	r3, [r2]
   12ee0:	e51b3020 	ldr	r3, [fp, #-32]	; 0xffffffe0
   12ee4:	e2433001 	sub	r3, r3, #1
   12ee8:	e50b3020 	str	r3, [fp, #-32]	; 0xffffffe0
   12eec:	e51b300c 	ldr	r3, [fp, #-12]
   12ef0:	e2833001 	add	r3, r3, #1
   12ef4:	e50b300c 	str	r3, [fp, #-12]
   12ef8:	e51b3020 	ldr	r3, [fp, #-32]	; 0xffffffe0
   12efc:	e3530000 	cmp	r3, #0
   12f00:	1affffd7 	bne	12e64 <parse_mdc+0xbc>
   12f04:	e320f000 	nop	{0}
   12f08:	e51b3008 	ldr	r3, [fp, #-8]
   12f0c:	e1a00003 	mov	r0, r3
   12f10:	e24bd004 	sub	sp, fp, #4
   12f14:	e8bd8800 	pop	{fp, pc}

00012f18 <size2a>:
   12f18:	e52db004 	push	{fp}		; (str fp, [sp, #-4]!)
   12f1c:	e28db000 	add	fp, sp, #0
   12f20:	e24dd01c 	sub	sp, sp, #28
   12f24:	e50b0018 	str	r0, [fp, #-24]	; 0xffffffe8
   12f28:	e50b101c 	str	r1, [fp, #-28]	; 0xffffffe4
   12f2c:	e3a03000 	mov	r3, #0
   12f30:	e50b3008 	str	r3, [fp, #-8]
   12f34:	e3a03001 	mov	r3, #1
   12f38:	e50b300c 	str	r3, [fp, #-12]
   12f3c:	ea000003 	b	12f50 <size2a+0x38>
   12f40:	e51b300c 	ldr	r3, [fp, #-12]
   12f44:	e3a0200a 	mov	r2, #10
   12f48:	e0030392 	mul	r3, r2, r3
   12f4c:	e50b300c 	str	r3, [fp, #-12]
   12f50:	e51b2018 	ldr	r2, [fp, #-24]	; 0xffffffe8
   12f54:	e51b300c 	ldr	r3, [fp, #-12]
   12f58:	e733f312 	udiv	r3, r2, r3
   12f5c:	e3530009 	cmp	r3, #9
   12f60:	8afffff6 	bhi	12f40 <size2a+0x28>
   12f64:	ea000024 	b	12ffc <size2a+0xe4>
   12f68:	e51b2018 	ldr	r2, [fp, #-24]	; 0xffffffe8
   12f6c:	e51b300c 	ldr	r3, [fp, #-12]
   12f70:	e733f312 	udiv	r3, r2, r3
   12f74:	e50b3010 	str	r3, [fp, #-16]
   12f78:	e51b3018 	ldr	r3, [fp, #-24]	; 0xffffffe8
   12f7c:	e51b200c 	ldr	r2, [fp, #-12]
   12f80:	e732f213 	udiv	r2, r3, r2
   12f84:	e51b100c 	ldr	r1, [fp, #-12]
   12f88:	e0020291 	mul	r2, r1, r2
   12f8c:	e0433002 	sub	r3, r3, r2
   12f90:	e50b3018 	str	r3, [fp, #-24]	; 0xffffffe8
   12f94:	e51b200c 	ldr	r2, [fp, #-12]
   12f98:	e30c3ccd 	movw	r3, #52429	; 0xcccd
   12f9c:	e34c3ccc 	movt	r3, #52428	; 0xcccc
   12fa0:	e0832293 	umull	r2, r3, r3, r2
   12fa4:	e1a031a3 	lsr	r3, r3, #3
   12fa8:	e50b300c 	str	r3, [fp, #-12]
   12fac:	e51b3008 	ldr	r3, [fp, #-8]
   12fb0:	e3530000 	cmp	r3, #0
   12fb4:	1a000005 	bne	12fd0 <size2a+0xb8>
   12fb8:	e51b3010 	ldr	r3, [fp, #-16]
   12fbc:	e3530000 	cmp	r3, #0
   12fc0:	ca000002 	bgt	12fd0 <size2a+0xb8>
   12fc4:	e51b300c 	ldr	r3, [fp, #-12]
   12fc8:	e3530000 	cmp	r3, #0
   12fcc:	1a00000a 	bne	12ffc <size2a+0xe4>
   12fd0:	e51b3010 	ldr	r3, [fp, #-16]
   12fd4:	e6ef2073 	uxtb	r2, r3
   12fd8:	e51b301c 	ldr	r3, [fp, #-28]	; 0xffffffe4
   12fdc:	e2831001 	add	r1, r3, #1
   12fe0:	e50b101c 	str	r1, [fp, #-28]	; 0xffffffe4
   12fe4:	e2822030 	add	r2, r2, #48	; 0x30
   12fe8:	e6ef2072 	uxtb	r2, r2
   12fec:	e5c32000 	strb	r2, [r3]
   12ff0:	e51b3008 	ldr	r3, [fp, #-8]
   12ff4:	e2833001 	add	r3, r3, #1
   12ff8:	e50b3008 	str	r3, [fp, #-8]
   12ffc:	e51b300c 	ldr	r3, [fp, #-12]
   13000:	e3530000 	cmp	r3, #0
   13004:	1affffd7 	bne	12f68 <size2a+0x50>
   13008:	e51b301c 	ldr	r3, [fp, #-28]	; 0xffffffe4
   1300c:	e3a02000 	mov	r2, #0
   13010:	e5c32000 	strb	r2, [r3]
   13014:	e320f000 	nop	{0}
   13018:	e28bd000 	add	sp, fp, #0
   1301c:	e49db004 	pop	{fp}		; (ldr fp, [sp], #4)
   13020:	e12fff1e 	bx	lr

00013024 <uli2a>:
   13024:	e52db004 	push	{fp}		; (str fp, [sp, #-4]!)
   13028:	e28db000 	add	fp, sp, #0
   1302c:	e24dd024 	sub	sp, sp, #36	; 0x24
   13030:	e50b0018 	str	r0, [fp, #-24]	; 0xffffffe8
   13034:	e50b101c 	str	r1, [fp, #-28]	; 0xffffffe4
   13038:	e50b2020 	str	r2, [fp, #-32]	; 0xffffffe0
   1303c:	e50b3024 	str	r3, [fp, #-36]	; 0xffffffdc
   13040:	e3a03000 	mov	r3, #0
   13044:	e50b3008 	str	r3, [fp, #-8]
   13048:	e3a03001 	mov	r3, #1
   1304c:	e50b300c 	str	r3, [fp, #-12]
   13050:	ea000003 	b	13064 <uli2a+0x40>
   13054:	e51b300c 	ldr	r3, [fp, #-12]
   13058:	e51b201c 	ldr	r2, [fp, #-28]	; 0xffffffe4
   1305c:	e0030392 	mul	r3, r2, r3
   13060:	e50b300c 	str	r3, [fp, #-12]
   13064:	e51b2018 	ldr	r2, [fp, #-24]	; 0xffffffe8
   13068:	e51b300c 	ldr	r3, [fp, #-12]
   1306c:	e733f312 	udiv	r3, r2, r3
   13070:	e51b201c 	ldr	r2, [fp, #-28]	; 0xffffffe4
   13074:	e1520003 	cmp	r2, r3
   13078:	9afffff5 	bls	13054 <uli2a+0x30>
   1307c:	ea00002d 	b	13138 <uli2a+0x114>
   13080:	e51b2018 	ldr	r2, [fp, #-24]	; 0xffffffe8
   13084:	e51b300c 	ldr	r3, [fp, #-12]
   13088:	e733f312 	udiv	r3, r2, r3
   1308c:	e50b3010 	str	r3, [fp, #-16]
   13090:	e51b3018 	ldr	r3, [fp, #-24]	; 0xffffffe8
   13094:	e51b200c 	ldr	r2, [fp, #-12]
   13098:	e732f213 	udiv	r2, r3, r2
   1309c:	e51b100c 	ldr	r1, [fp, #-12]
   130a0:	e0020291 	mul	r2, r1, r2
   130a4:	e0433002 	sub	r3, r3, r2
   130a8:	e50b3018 	str	r3, [fp, #-24]	; 0xffffffe8
   130ac:	e51b200c 	ldr	r2, [fp, #-12]
   130b0:	e51b301c 	ldr	r3, [fp, #-28]	; 0xffffffe4
   130b4:	e733f312 	udiv	r3, r2, r3
   130b8:	e50b300c 	str	r3, [fp, #-12]
   130bc:	e51b3008 	ldr	r3, [fp, #-8]
   130c0:	e3530000 	cmp	r3, #0
   130c4:	1a000005 	bne	130e0 <uli2a+0xbc>
   130c8:	e51b3010 	ldr	r3, [fp, #-16]
   130cc:	e3530000 	cmp	r3, #0
   130d0:	ca000002 	bgt	130e0 <uli2a+0xbc>
   130d4:	e51b300c 	ldr	r3, [fp, #-12]
   130d8:	e3530000 	cmp	r3, #0
   130dc:	1a000015 	bne	13138 <uli2a+0x114>
   130e0:	e51b3010 	ldr	r3, [fp, #-16]
   130e4:	e3530009 	cmp	r3, #9
   130e8:	da000006 	ble	13108 <uli2a+0xe4>
   130ec:	e51b3020 	ldr	r3, [fp, #-32]	; 0xffffffe0
   130f0:	e3530000 	cmp	r3, #0
   130f4:	0a000001 	beq	13100 <uli2a+0xdc>
   130f8:	e3a03037 	mov	r3, #55	; 0x37
   130fc:	ea000002 	b	1310c <uli2a+0xe8>
   13100:	e3a03057 	mov	r3, #87	; 0x57
   13104:	ea000000 	b	1310c <uli2a+0xe8>
   13108:	e3a03030 	mov	r3, #48	; 0x30
   1310c:	e51b2010 	ldr	r2, [fp, #-16]
   13110:	e6ef1072 	uxtb	r1, r2
   13114:	e51b2024 	ldr	r2, [fp, #-36]	; 0xffffffdc
   13118:	e2820001 	add	r0, r2, #1
   1311c:	e50b0024 	str	r0, [fp, #-36]	; 0xffffffdc
   13120:	e0833001 	add	r3, r3, r1
   13124:	e6ef3073 	uxtb	r3, r3
   13128:	e5c23000 	strb	r3, [r2]
   1312c:	e51b3008 	ldr	r3, [fp, #-8]
   13130:	e2833001 	add	r3, r3, #1
   13134:	e50b3008 	str	r3, [fp, #-8]
   13138:	e51b300c 	ldr	r3, [fp, #-12]
   1313c:	e3530000 	cmp	r3, #0
   13140:	1affffce 	bne	13080 <uli2a+0x5c>
   13144:	e51b3024 	ldr	r3, [fp, #-36]	; 0xffffffdc
   13148:	e3a02000 	mov	r2, #0
   1314c:	e5c32000 	strb	r2, [r3]
   13150:	e320f000 	nop	{0}
   13154:	e28bd000 	add	sp, fp, #0
   13158:	e49db004 	pop	{fp}		; (ldr fp, [sp], #4)
   1315c:	e12fff1e 	bx	lr

00013160 <li2a>:
   13160:	e92d4800 	push	{fp, lr}
   13164:	e28db004 	add	fp, sp, #4
   13168:	e24dd008 	sub	sp, sp, #8
   1316c:	e50b0008 	str	r0, [fp, #-8]
   13170:	e50b100c 	str	r1, [fp, #-12]
   13174:	e51b3008 	ldr	r3, [fp, #-8]
   13178:	e3530000 	cmp	r3, #0
   1317c:	aa000007 	bge	131a0 <li2a+0x40>
   13180:	e51b3008 	ldr	r3, [fp, #-8]
   13184:	e2633000 	rsb	r3, r3, #0
   13188:	e50b3008 	str	r3, [fp, #-8]
   1318c:	e51b300c 	ldr	r3, [fp, #-12]
   13190:	e2832001 	add	r2, r3, #1
   13194:	e50b200c 	str	r2, [fp, #-12]
   13198:	e3a0202d 	mov	r2, #45	; 0x2d
   1319c:	e5c32000 	strb	r2, [r3]
   131a0:	e51b0008 	ldr	r0, [fp, #-8]
   131a4:	e51b300c 	ldr	r3, [fp, #-12]
   131a8:	e3a02000 	mov	r2, #0
   131ac:	e3a0100a 	mov	r1, #10
   131b0:	ebffff9b 	bl	13024 <uli2a>
   131b4:	e320f000 	nop	{0}
   131b8:	e24bd004 	sub	sp, fp, #4
   131bc:	e8bd8800 	pop	{fp, pc}

000131c0 <ui2a>:
   131c0:	e52db004 	push	{fp}		; (str fp, [sp, #-4]!)
   131c4:	e28db000 	add	fp, sp, #0
   131c8:	e24dd024 	sub	sp, sp, #36	; 0x24
   131cc:	e50b0018 	str	r0, [fp, #-24]	; 0xffffffe8
   131d0:	e50b101c 	str	r1, [fp, #-28]	; 0xffffffe4
   131d4:	e50b2020 	str	r2, [fp, #-32]	; 0xffffffe0
   131d8:	e50b3024 	str	r3, [fp, #-36]	; 0xffffffdc
   131dc:	e3a03000 	mov	r3, #0
   131e0:	e50b3008 	str	r3, [fp, #-8]
   131e4:	e3a03001 	mov	r3, #1
   131e8:	e50b300c 	str	r3, [fp, #-12]
   131ec:	ea000003 	b	13200 <ui2a+0x40>
   131f0:	e51b300c 	ldr	r3, [fp, #-12]
   131f4:	e51b201c 	ldr	r2, [fp, #-28]	; 0xffffffe4
   131f8:	e0030392 	mul	r3, r2, r3
   131fc:	e50b300c 	str	r3, [fp, #-12]
   13200:	e51b2018 	ldr	r2, [fp, #-24]	; 0xffffffe8
   13204:	e51b300c 	ldr	r3, [fp, #-12]
   13208:	e733f312 	udiv	r3, r2, r3
   1320c:	e51b201c 	ldr	r2, [fp, #-28]	; 0xffffffe4
   13210:	e1520003 	cmp	r2, r3
   13214:	9afffff5 	bls	131f0 <ui2a+0x30>
   13218:	ea00002d 	b	132d4 <ui2a+0x114>
   1321c:	e51b2018 	ldr	r2, [fp, #-24]	; 0xffffffe8
   13220:	e51b300c 	ldr	r3, [fp, #-12]
   13224:	e733f312 	udiv	r3, r2, r3
   13228:	e50b3010 	str	r3, [fp, #-16]
   1322c:	e51b3018 	ldr	r3, [fp, #-24]	; 0xffffffe8
   13230:	e51b200c 	ldr	r2, [fp, #-12]
   13234:	e732f213 	udiv	r2, r3, r2
   13238:	e51b100c 	ldr	r1, [fp, #-12]
   1323c:	e0020291 	mul	r2, r1, r2
   13240:	e0433002 	sub	r3, r3, r2
   13244:	e50b3018 	str	r3, [fp, #-24]	; 0xffffffe8
   13248:	e51b200c 	ldr	r2, [fp, #-12]
   1324c:	e51b301c 	ldr	r3, [fp, #-28]	; 0xffffffe4
   13250:	e733f312 	udiv	r3, r2, r3
   13254:	e50b300c 	str	r3, [fp, #-12]
   13258:	e51b3008 	ldr	r3, [fp, #-8]
   1325c:	e3530000 	cmp	r3, #0
   13260:	1a000005 	bne	1327c <ui2a+0xbc>
   13264:	e51b3010 	ldr	r3, [fp, #-16]
   13268:	e3530000 	cmp	r3, #0
   1326c:	ca000002 	bgt	1327c <ui2a+0xbc>
   13270:	e51b300c 	ldr	r3, [fp, #-12]
   13274:	e3530000 	cmp	r3, #0
   13278:	1a000015 	bne	132d4 <ui2a+0x114>
   1327c:	e51b3010 	ldr	r3, [fp, #-16]
   13280:	e3530009 	cmp	r3, #9
   13284:	da000006 	ble	132a4 <ui2a+0xe4>
   13288:	e51b3020 	ldr	r3, [fp, #-32]	; 0xffffffe0
   1328c:	e3530000 	cmp	r3, #0
   13290:	0a000001 	beq	1329c <ui2a+0xdc>
   13294:	e3a03037 	mov	r3, #55	; 0x37
   13298:	ea000002 	b	132a8 <ui2a+0xe8>
   1329c:	e3a03057 	mov	r3, #87	; 0x57
   132a0:	ea000000 	b	132a8 <ui2a+0xe8>
   132a4:	e3a03030 	mov	r3, #48	; 0x30
   132a8:	e51b2010 	ldr	r2, [fp, #-16]
   132ac:	e6ef1072 	uxtb	r1, r2
   132b0:	e51b2024 	ldr	r2, [fp, #-36]	; 0xffffffdc
   132b4:	e2820001 	add	r0, r2, #1
   132b8:	e50b0024 	str	r0, [fp, #-36]	; 0xffffffdc
   132bc:	e0833001 	add	r3, r3, r1
   132c0:	e6ef3073 	uxtb	r3, r3
   132c4:	e5c23000 	strb	r3, [r2]
   132c8:	e51b3008 	ldr	r3, [fp, #-8]
   132cc:	e2833001 	add	r3, r3, #1
   132d0:	e50b3008 	str	r3, [fp, #-8]
   132d4:	e51b300c 	ldr	r3, [fp, #-12]
   132d8:	e3530000 	cmp	r3, #0
   132dc:	1affffce 	bne	1321c <ui2a+0x5c>
   132e0:	e51b3024 	ldr	r3, [fp, #-36]	; 0xffffffdc
   132e4:	e3a02000 	mov	r2, #0
   132e8:	e5c32000 	strb	r2, [r3]
   132ec:	e320f000 	nop	{0}
   132f0:	e28bd000 	add	sp, fp, #0
   132f4:	e49db004 	pop	{fp}		; (ldr fp, [sp], #4)
   132f8:	e12fff1e 	bx	lr

000132fc <i2a>:
   132fc:	e92d4800 	push	{fp, lr}
   13300:	e28db004 	add	fp, sp, #4
   13304:	e24dd008 	sub	sp, sp, #8
   13308:	e50b0008 	str	r0, [fp, #-8]
   1330c:	e50b100c 	str	r1, [fp, #-12]
   13310:	e51b3008 	ldr	r3, [fp, #-8]
   13314:	e3530000 	cmp	r3, #0
   13318:	aa000007 	bge	1333c <i2a+0x40>
   1331c:	e51b3008 	ldr	r3, [fp, #-8]
   13320:	e2633000 	rsb	r3, r3, #0
   13324:	e50b3008 	str	r3, [fp, #-8]
   13328:	e51b300c 	ldr	r3, [fp, #-12]
   1332c:	e2832001 	add	r2, r3, #1
   13330:	e50b200c 	str	r2, [fp, #-12]
   13334:	e3a0202d 	mov	r2, #45	; 0x2d
   13338:	e5c32000 	strb	r2, [r3]
   1333c:	e51b0008 	ldr	r0, [fp, #-8]
   13340:	e51b300c 	ldr	r3, [fp, #-12]
   13344:	e3a02000 	mov	r2, #0
   13348:	e3a0100a 	mov	r1, #10
   1334c:	ebffff9b 	bl	131c0 <ui2a>
   13350:	e320f000 	nop	{0}
   13354:	e24bd004 	sub	sp, fp, #4
   13358:	e8bd8800 	pop	{fp, pc}

0001335c <a2d>:
   1335c:	e52db004 	push	{fp}		; (str fp, [sp, #-4]!)
   13360:	e28db000 	add	fp, sp, #0
   13364:	e24dd00c 	sub	sp, sp, #12
   13368:	e1a03000 	mov	r3, r0
   1336c:	e54b3005 	strb	r3, [fp, #-5]
   13370:	e55b3005 	ldrb	r3, [fp, #-5]
   13374:	e353002f 	cmp	r3, #47	; 0x2f
   13378:	9a000005 	bls	13394 <a2d+0x38>
   1337c:	e55b3005 	ldrb	r3, [fp, #-5]
   13380:	e3530039 	cmp	r3, #57	; 0x39
   13384:	8a000002 	bhi	13394 <a2d+0x38>
   13388:	e55b3005 	ldrb	r3, [fp, #-5]
   1338c:	e2433030 	sub	r3, r3, #48	; 0x30
   13390:	ea000012 	b	133e0 <a2d+0x84>
   13394:	e55b3005 	ldrb	r3, [fp, #-5]
   13398:	e3530060 	cmp	r3, #96	; 0x60
   1339c:	9a000005 	bls	133b8 <a2d+0x5c>
   133a0:	e55b3005 	ldrb	r3, [fp, #-5]
   133a4:	e3530066 	cmp	r3, #102	; 0x66
   133a8:	8a000002 	bhi	133b8 <a2d+0x5c>
   133ac:	e55b3005 	ldrb	r3, [fp, #-5]
   133b0:	e2433057 	sub	r3, r3, #87	; 0x57
   133b4:	ea000009 	b	133e0 <a2d+0x84>
   133b8:	e55b3005 	ldrb	r3, [fp, #-5]
   133bc:	e3530040 	cmp	r3, #64	; 0x40
   133c0:	9a000005 	bls	133dc <a2d+0x80>
   133c4:	e55b3005 	ldrb	r3, [fp, #-5]
   133c8:	e3530046 	cmp	r3, #70	; 0x46
   133cc:	8a000002 	bhi	133dc <a2d+0x80>
   133d0:	e55b3005 	ldrb	r3, [fp, #-5]
   133d4:	e2433037 	sub	r3, r3, #55	; 0x37
   133d8:	ea000000 	b	133e0 <a2d+0x84>
   133dc:	e3e03000 	mvn	r3, #0
   133e0:	e1a00003 	mov	r0, r3
   133e4:	e28bd000 	add	sp, fp, #0
   133e8:	e49db004 	pop	{fp}		; (ldr fp, [sp], #4)
   133ec:	e12fff1e 	bx	lr

000133f0 <a2i>:
   133f0:	e92d4800 	push	{fp, lr}
   133f4:	e28db004 	add	fp, sp, #4
   133f8:	e24dd020 	sub	sp, sp, #32
   133fc:	e50b101c 	str	r1, [fp, #-28]	; 0xffffffe4
   13400:	e50b2020 	str	r2, [fp, #-32]	; 0xffffffe0
   13404:	e50b3024 	str	r3, [fp, #-36]	; 0xffffffdc
   13408:	e1a03000 	mov	r3, r0
   1340c:	e54b3015 	strb	r3, [fp, #-21]	; 0xffffffeb
   13410:	e51b301c 	ldr	r3, [fp, #-28]	; 0xffffffe4
   13414:	e5933000 	ldr	r3, [r3]
   13418:	e50b3008 	str	r3, [fp, #-8]
   1341c:	e3a03000 	mov	r3, #0
   13420:	e50b300c 	str	r3, [fp, #-12]
   13424:	ea00000e 	b	13464 <a2i+0x74>
   13428:	e51b2010 	ldr	r2, [fp, #-16]
   1342c:	e51b3020 	ldr	r3, [fp, #-32]	; 0xffffffe0
   13430:	e1520003 	cmp	r2, r3
   13434:	ca000012 	bgt	13484 <a2i+0x94>
   13438:	e51b300c 	ldr	r3, [fp, #-12]
   1343c:	e51b2020 	ldr	r2, [fp, #-32]	; 0xffffffe0
   13440:	e0030392 	mul	r3, r2, r3
   13444:	e51b2010 	ldr	r2, [fp, #-16]
   13448:	e0823003 	add	r3, r2, r3
   1344c:	e50b300c 	str	r3, [fp, #-12]
   13450:	e51b3008 	ldr	r3, [fp, #-8]
   13454:	e2832001 	add	r2, r3, #1
   13458:	e50b2008 	str	r2, [fp, #-8]
   1345c:	e5d33000 	ldrb	r3, [r3]
   13460:	e54b3015 	strb	r3, [fp, #-21]	; 0xffffffeb
   13464:	e55b3015 	ldrb	r3, [fp, #-21]	; 0xffffffeb
   13468:	e1a00003 	mov	r0, r3
   1346c:	ebffffba 	bl	1335c <a2d>
   13470:	e50b0010 	str	r0, [fp, #-16]
   13474:	e51b3010 	ldr	r3, [fp, #-16]
   13478:	e3530000 	cmp	r3, #0
   1347c:	aaffffe9 	bge	13428 <a2i+0x38>
   13480:	ea000000 	b	13488 <a2i+0x98>
   13484:	e320f000 	nop	{0}
   13488:	e51b301c 	ldr	r3, [fp, #-28]	; 0xffffffe4
   1348c:	e51b2008 	ldr	r2, [fp, #-8]
   13490:	e5832000 	str	r2, [r3]
   13494:	e51b3024 	ldr	r3, [fp, #-36]	; 0xffffffdc
   13498:	e51b200c 	ldr	r2, [fp, #-12]
   1349c:	e5832000 	str	r2, [r3]
   134a0:	e55b3015 	ldrb	r3, [fp, #-21]	; 0xffffffeb
   134a4:	e1a00003 	mov	r0, r3
   134a8:	e24bd004 	sub	sp, fp, #4
   134ac:	e8bd8800 	pop	{fp, pc}

000134b0 <ptr2a>:
   134b0:	e92d4800 	push	{fp, lr}
   134b4:	e28db004 	add	fp, sp, #4
   134b8:	e24dd010 	sub	sp, sp, #16
   134bc:	e50b0010 	str	r0, [fp, #-16]
   134c0:	e50b1014 	str	r1, [fp, #-20]	; 0xffffffec
   134c4:	e51b3010 	ldr	r3, [fp, #-16]
   134c8:	e50b3008 	str	r3, [fp, #-8]
   134cc:	e51b3014 	ldr	r3, [fp, #-20]	; 0xffffffec
   134d0:	e3a02001 	mov	r2, #1
   134d4:	e3a01010 	mov	r1, #16
   134d8:	e51b0008 	ldr	r0, [fp, #-8]
   134dc:	ebffff37 	bl	131c0 <ui2a>
   134e0:	e320f000 	nop	{0}
   134e4:	e24bd004 	sub	sp, fp, #4
   134e8:	e8bd8800 	pop	{fp, pc}

000134ec <putchw>:
   134ec:	e92d4800 	push	{fp, lr}
   134f0:	e28db004 	add	fp, sp, #4
   134f4:	e24dd018 	sub	sp, sp, #24
   134f8:	e50b0010 	str	r0, [fp, #-16]
   134fc:	e50b1014 	str	r1, [fp, #-20]	; 0xffffffec
   13500:	e50b2018 	str	r2, [fp, #-24]	; 0xffffffe8
   13504:	e54b3019 	strb	r3, [fp, #-25]	; 0xffffffe7
   13508:	e55b3019 	ldrb	r3, [fp, #-25]	; 0xffffffe7
   1350c:	e3530000 	cmp	r3, #0
   13510:	0a000001 	beq	1351c <putchw+0x30>
   13514:	e3a03030 	mov	r3, #48	; 0x30
   13518:	ea000000 	b	13520 <putchw+0x34>
   1351c:	e3a03020 	mov	r3, #32
   13520:	e54b3009 	strb	r3, [fp, #-9]
   13524:	e59b3004 	ldr	r3, [fp, #4]
   13528:	e50b3008 	str	r3, [fp, #-8]
   1352c:	ea000002 	b	1353c <putchw+0x50>
   13530:	e51b3018 	ldr	r3, [fp, #-24]	; 0xffffffe8
   13534:	e2433001 	sub	r3, r3, #1
   13538:	e50b3018 	str	r3, [fp, #-24]	; 0xffffffe8
   1353c:	e51b3008 	ldr	r3, [fp, #-8]
   13540:	e2832001 	add	r2, r3, #1
   13544:	e50b2008 	str	r2, [fp, #-8]
   13548:	e5d33000 	ldrb	r3, [r3]
   1354c:	e3530000 	cmp	r3, #0
   13550:	0a000008 	beq	13578 <putchw+0x8c>
   13554:	e51b3018 	ldr	r3, [fp, #-24]	; 0xffffffe8
   13558:	e3530000 	cmp	r3, #0
   1355c:	cafffff3 	bgt	13530 <putchw+0x44>
   13560:	ea000004 	b	13578 <putchw+0x8c>
   13564:	e55b2009 	ldrb	r2, [fp, #-9]
   13568:	e51b3014 	ldr	r3, [fp, #-20]	; 0xffffffec
   1356c:	e1a01002 	mov	r1, r2
   13570:	e51b0010 	ldr	r0, [fp, #-16]
   13574:	e12fff33 	blx	r3
   13578:	e51b3018 	ldr	r3, [fp, #-24]	; 0xffffffe8
   1357c:	e2432001 	sub	r2, r3, #1
   13580:	e50b2018 	str	r2, [fp, #-24]	; 0xffffffe8
   13584:	e3530000 	cmp	r3, #0
   13588:	cafffff5 	bgt	13564 <putchw+0x78>
   1358c:	ea000004 	b	135a4 <putchw+0xb8>
   13590:	e55b200a 	ldrb	r2, [fp, #-10]
   13594:	e51b3014 	ldr	r3, [fp, #-20]	; 0xffffffec
   13598:	e1a01002 	mov	r1, r2
   1359c:	e51b0010 	ldr	r0, [fp, #-16]
   135a0:	e12fff33 	blx	r3
   135a4:	e59b3004 	ldr	r3, [fp, #4]
   135a8:	e2832001 	add	r2, r3, #1
   135ac:	e58b2004 	str	r2, [fp, #4]
   135b0:	e5d33000 	ldrb	r3, [r3]
   135b4:	e54b300a 	strb	r3, [fp, #-10]
   135b8:	e55b300a 	ldrb	r3, [fp, #-10]
   135bc:	e3530000 	cmp	r3, #0
   135c0:	1afffff2 	bne	13590 <putchw+0xa4>
   135c4:	e320f000 	nop	{0}
   135c8:	e320f000 	nop	{0}
   135cc:	e24bd004 	sub	sp, fp, #4
   135d0:	e8bd8800 	pop	{fp, pc}

000135d4 <size_t2a>:
   135d4:	e52db004 	push	{fp}		; (str fp, [sp, #-4]!)
   135d8:	e28db000 	add	fp, sp, #0
   135dc:	e24dd024 	sub	sp, sp, #36	; 0x24
   135e0:	e50b0018 	str	r0, [fp, #-24]	; 0xffffffe8
   135e4:	e50b101c 	str	r1, [fp, #-28]	; 0xffffffe4
   135e8:	e50b2020 	str	r2, [fp, #-32]	; 0xffffffe0
   135ec:	e50b3024 	str	r3, [fp, #-36]	; 0xffffffdc
   135f0:	e3a03000 	mov	r3, #0
   135f4:	e50b3008 	str	r3, [fp, #-8]
   135f8:	e3a03001 	mov	r3, #1
   135fc:	e50b300c 	str	r3, [fp, #-12]
   13600:	ea000003 	b	13614 <size_t2a+0x40>
   13604:	e51b300c 	ldr	r3, [fp, #-12]
   13608:	e51b201c 	ldr	r2, [fp, #-28]	; 0xffffffe4
   1360c:	e0030392 	mul	r3, r2, r3
   13610:	e50b300c 	str	r3, [fp, #-12]
   13614:	e51b2018 	ldr	r2, [fp, #-24]	; 0xffffffe8
   13618:	e51b300c 	ldr	r3, [fp, #-12]
   1361c:	e733f312 	udiv	r3, r2, r3
   13620:	e51b201c 	ldr	r2, [fp, #-28]	; 0xffffffe4
   13624:	e1520003 	cmp	r2, r3
   13628:	9afffff5 	bls	13604 <size_t2a+0x30>
   1362c:	ea00002d 	b	136e8 <size_t2a+0x114>
   13630:	e51b2018 	ldr	r2, [fp, #-24]	; 0xffffffe8
   13634:	e51b300c 	ldr	r3, [fp, #-12]
   13638:	e733f312 	udiv	r3, r2, r3
   1363c:	e50b3010 	str	r3, [fp, #-16]
   13640:	e51b3018 	ldr	r3, [fp, #-24]	; 0xffffffe8
   13644:	e51b200c 	ldr	r2, [fp, #-12]
   13648:	e732f213 	udiv	r2, r3, r2
   1364c:	e51b100c 	ldr	r1, [fp, #-12]
   13650:	e0020291 	mul	r2, r1, r2
   13654:	e0433002 	sub	r3, r3, r2
   13658:	e50b3018 	str	r3, [fp, #-24]	; 0xffffffe8
   1365c:	e51b200c 	ldr	r2, [fp, #-12]
   13660:	e51b301c 	ldr	r3, [fp, #-28]	; 0xffffffe4
   13664:	e733f312 	udiv	r3, r2, r3
   13668:	e50b300c 	str	r3, [fp, #-12]
   1366c:	e51b3008 	ldr	r3, [fp, #-8]
   13670:	e3530000 	cmp	r3, #0
   13674:	1a000005 	bne	13690 <size_t2a+0xbc>
   13678:	e51b3010 	ldr	r3, [fp, #-16]
   1367c:	e3530000 	cmp	r3, #0
   13680:	ca000002 	bgt	13690 <size_t2a+0xbc>
   13684:	e51b300c 	ldr	r3, [fp, #-12]
   13688:	e3530000 	cmp	r3, #0
   1368c:	1a000015 	bne	136e8 <size_t2a+0x114>
   13690:	e51b3010 	ldr	r3, [fp, #-16]
   13694:	e3530009 	cmp	r3, #9
   13698:	da000006 	ble	136b8 <size_t2a+0xe4>
   1369c:	e51b3020 	ldr	r3, [fp, #-32]	; 0xffffffe0
   136a0:	e3530000 	cmp	r3, #0
   136a4:	0a000001 	beq	136b0 <size_t2a+0xdc>
   136a8:	e3a03037 	mov	r3, #55	; 0x37
   136ac:	ea000002 	b	136bc <size_t2a+0xe8>
   136b0:	e3a03057 	mov	r3, #87	; 0x57
   136b4:	ea000000 	b	136bc <size_t2a+0xe8>
   136b8:	e3a03030 	mov	r3, #48	; 0x30
   136bc:	e51b2010 	ldr	r2, [fp, #-16]
   136c0:	e6ef1072 	uxtb	r1, r2
   136c4:	e51b2024 	ldr	r2, [fp, #-36]	; 0xffffffdc
   136c8:	e2820001 	add	r0, r2, #1
   136cc:	e50b0024 	str	r0, [fp, #-36]	; 0xffffffdc
   136d0:	e0833001 	add	r3, r3, r1
   136d4:	e6ef3073 	uxtb	r3, r3
   136d8:	e5c23000 	strb	r3, [r2]
   136dc:	e51b3008 	ldr	r3, [fp, #-8]
   136e0:	e2833001 	add	r3, r3, #1
   136e4:	e50b3008 	str	r3, [fp, #-8]
   136e8:	e51b300c 	ldr	r3, [fp, #-12]
   136ec:	e3530000 	cmp	r3, #0
   136f0:	1affffce 	bne	13630 <size_t2a+0x5c>
   136f4:	e51b3024 	ldr	r3, [fp, #-36]	; 0xffffffdc
   136f8:	e3a02000 	mov	r2, #0
   136fc:	e5c32000 	strb	r2, [r3]
   13700:	e320f000 	nop	{0}
   13704:	e28bd000 	add	sp, fp, #0
   13708:	e49db004 	pop	{fp}		; (ldr fp, [sp], #4)
   1370c:	e12fff1e 	bx	lr

00013710 <tfp_format>:
   13710:	e92d4800 	push	{fp, lr}
   13714:	e28db004 	add	fp, sp, #4
   13718:	e24dd030 	sub	sp, sp, #48	; 0x30
   1371c:	e50b0020 	str	r0, [fp, #-32]	; 0xffffffe0
   13720:	e50b1024 	str	r1, [fp, #-36]	; 0xffffffdc
   13724:	e50b2028 	str	r2, [fp, #-40]	; 0xffffffd8
   13728:	e50b302c 	str	r3, [fp, #-44]	; 0xffffffd4
   1372c:	ea000136 	b	13c0c <tfp_format+0x4fc>
   13730:	e55b3005 	ldrb	r3, [fp, #-5]
   13734:	e3530025 	cmp	r3, #37	; 0x25
   13738:	0a000005 	beq	13754 <tfp_format+0x44>
   1373c:	e55b2005 	ldrb	r2, [fp, #-5]
   13740:	e51b3024 	ldr	r3, [fp, #-36]	; 0xffffffdc
   13744:	e1a01002 	mov	r1, r2
   13748:	e51b0020 	ldr	r0, [fp, #-32]	; 0xffffffe0
   1374c:	e12fff33 	blx	r3
   13750:	ea00012d 	b	13c0c <tfp_format+0x4fc>
   13754:	e3a03000 	mov	r3, #0
   13758:	e54b3006 	strb	r3, [fp, #-6]
   1375c:	e3a03000 	mov	r3, #0
   13760:	e54b3007 	strb	r3, [fp, #-7]
   13764:	e3a03000 	mov	r3, #0
   13768:	e54b3008 	strb	r3, [fp, #-8]
   1376c:	e3a03000 	mov	r3, #0
   13770:	e50b3018 	str	r3, [fp, #-24]	; 0xffffffe8
   13774:	e51b3028 	ldr	r3, [fp, #-40]	; 0xffffffd8
   13778:	e2832001 	add	r2, r3, #1
   1377c:	e50b2028 	str	r2, [fp, #-40]	; 0xffffffd8
   13780:	e5d33000 	ldrb	r3, [r3]
   13784:	e54b3005 	strb	r3, [fp, #-5]
   13788:	e55b3005 	ldrb	r3, [fp, #-5]
   1378c:	e3530030 	cmp	r3, #48	; 0x30
   13790:	1a000006 	bne	137b0 <tfp_format+0xa0>
   13794:	e51b3028 	ldr	r3, [fp, #-40]	; 0xffffffd8
   13798:	e2832001 	add	r2, r3, #1
   1379c:	e50b2028 	str	r2, [fp, #-40]	; 0xffffffd8
   137a0:	e5d33000 	ldrb	r3, [r3]
   137a4:	e54b3005 	strb	r3, [fp, #-5]
   137a8:	e3a03001 	mov	r3, #1
   137ac:	e54b3006 	strb	r3, [fp, #-6]
   137b0:	e55b3005 	ldrb	r3, [fp, #-5]
   137b4:	e353002f 	cmp	r3, #47	; 0x2f
   137b8:	9a000009 	bls	137e4 <tfp_format+0xd4>
   137bc:	e55b3005 	ldrb	r3, [fp, #-5]
   137c0:	e3530039 	cmp	r3, #57	; 0x39
   137c4:	8a000006 	bhi	137e4 <tfp_format+0xd4>
   137c8:	e24b3018 	sub	r3, fp, #24
   137cc:	e24b1028 	sub	r1, fp, #40	; 0x28
   137d0:	e55b0005 	ldrb	r0, [fp, #-5]
   137d4:	e3a0200a 	mov	r2, #10
   137d8:	ebffff04 	bl	133f0 <a2i>
   137dc:	e1a03000 	mov	r3, r0
   137e0:	e54b3005 	strb	r3, [fp, #-5]
   137e4:	e55b3005 	ldrb	r3, [fp, #-5]
   137e8:	e353006c 	cmp	r3, #108	; 0x6c
   137ec:	1a000006 	bne	1380c <tfp_format+0xfc>
   137f0:	e51b3028 	ldr	r3, [fp, #-40]	; 0xffffffd8
   137f4:	e2832001 	add	r2, r3, #1
   137f8:	e50b2028 	str	r2, [fp, #-40]	; 0xffffffd8
   137fc:	e5d33000 	ldrb	r3, [r3]
   13800:	e54b3005 	strb	r3, [fp, #-5]
   13804:	e3a03001 	mov	r3, #1
   13808:	e54b3007 	strb	r3, [fp, #-7]
   1380c:	e55b3005 	ldrb	r3, [fp, #-5]
   13810:	e353007a 	cmp	r3, #122	; 0x7a
   13814:	ca0000f9 	bgt	13c00 <tfp_format+0x4f0>
   13818:	e3530058 	cmp	r3, #88	; 0x58
   1381c:	aa000004 	bge	13834 <tfp_format+0x124>
   13820:	e3530000 	cmp	r3, #0
   13824:	0a000101 	beq	13c30 <tfp_format+0x520>
   13828:	e3530025 	cmp	r3, #37	; 0x25
   1382c:	0a0000ee 	beq	13bec <tfp_format+0x4dc>
   13830:	ea0000f2 	b	13c00 <tfp_format+0x4f0>
   13834:	e2433058 	sub	r3, r3, #88	; 0x58
   13838:	e3530022 	cmp	r3, #34	; 0x22
   1383c:	979ff103 	ldrls	pc, [pc, r3, lsl #2]
   13840:	ea0000ee 	b	13c00 <tfp_format+0x4f0>
   13844:	00013a3c 	.word	0x00013a3c
   13848:	00013c00 	.word	0x00013c00
   1384c:	00013c00 	.word	0x00013c00
   13850:	00013c00 	.word	0x00013c00
   13854:	00013c00 	.word	0x00013c00
   13858:	00013c00 	.word	0x00013c00
   1385c:	00013c00 	.word	0x00013c00
   13860:	00013c00 	.word	0x00013c00
   13864:	00013c00 	.word	0x00013c00
   13868:	00013c00 	.word	0x00013c00
   1386c:	00013c00 	.word	0x00013c00
   13870:	00013b94 	.word	0x00013b94
   13874:	00013b1c 	.word	0x00013b1c
   13878:	00013c00 	.word	0x00013c00
   1387c:	00013c00 	.word	0x00013c00
   13880:	00013c00 	.word	0x00013c00
   13884:	00013c00 	.word	0x00013c00
   13888:	00013b1c 	.word	0x00013b1c
   1388c:	00013c00 	.word	0x00013c00
   13890:	00013c00 	.word	0x00013c00
   13894:	00013c00 	.word	0x00013c00
   13898:	00013c00 	.word	0x00013c00
   1389c:	00013c00 	.word	0x00013c00
   138a0:	00013c00 	.word	0x00013c00
   138a4:	00013934 	.word	0x00013934
   138a8:	00013c00 	.word	0x00013c00
   138ac:	00013c00 	.word	0x00013c00
   138b0:	00013bbc 	.word	0x00013bbc
   138b4:	00013c00 	.word	0x00013c00
   138b8:	00013998 	.word	0x00013998
   138bc:	00013c00 	.word	0x00013c00
   138c0:	00013c00 	.word	0x00013c00
   138c4:	00013a3c 	.word	0x00013a3c
   138c8:	00013c00 	.word	0x00013c00
   138cc:	000138d0 	.word	0x000138d0
   138d0:	e51b3028 	ldr	r3, [fp, #-40]	; 0xffffffd8
   138d4:	e2832001 	add	r2, r3, #1
   138d8:	e50b2028 	str	r2, [fp, #-40]	; 0xffffffd8
   138dc:	e5d33000 	ldrb	r3, [r3]
   138e0:	e54b3005 	strb	r3, [fp, #-5]
   138e4:	e55b3005 	ldrb	r3, [fp, #-5]
   138e8:	e3530075 	cmp	r3, #117	; 0x75
   138ec:	1a0000c5 	bne	13c08 <tfp_format+0x4f8>
   138f0:	e51b302c 	ldr	r3, [fp, #-44]	; 0xffffffd4
   138f4:	e2832004 	add	r2, r3, #4
   138f8:	e50b202c 	str	r2, [fp, #-44]	; 0xffffffd4
   138fc:	e5933000 	ldr	r3, [r3]
   13900:	e24b2014 	sub	r2, fp, #20
   13904:	e1a01002 	mov	r1, r2
   13908:	e1a00003 	mov	r0, r3
   1390c:	ebfffd81 	bl	12f18 <size2a>
   13910:	e51b2018 	ldr	r2, [fp, #-24]	; 0xffffffe8
   13914:	e55b1006 	ldrb	r1, [fp, #-6]
   13918:	e24b3014 	sub	r3, fp, #20
   1391c:	e58d3000 	str	r3, [sp]
   13920:	e1a03001 	mov	r3, r1
   13924:	e51b1024 	ldr	r1, [fp, #-36]	; 0xffffffdc
   13928:	e51b0020 	ldr	r0, [fp, #-32]	; 0xffffffe0
   1392c:	ebfffeee 	bl	134ec <putchw>
   13930:	ea0000b4 	b	13c08 <tfp_format+0x4f8>
   13934:	e51b3024 	ldr	r3, [fp, #-36]	; 0xffffffdc
   13938:	e3a01030 	mov	r1, #48	; 0x30
   1393c:	e51b0020 	ldr	r0, [fp, #-32]	; 0xffffffe0
   13940:	e12fff33 	blx	r3
   13944:	e51b3024 	ldr	r3, [fp, #-36]	; 0xffffffdc
   13948:	e3a01078 	mov	r1, #120	; 0x78
   1394c:	e51b0020 	ldr	r0, [fp, #-32]	; 0xffffffe0
   13950:	e12fff33 	blx	r3
   13954:	e51b302c 	ldr	r3, [fp, #-44]	; 0xffffffd4
   13958:	e2832004 	add	r2, r3, #4
   1395c:	e50b202c 	str	r2, [fp, #-44]	; 0xffffffd4
   13960:	e5933000 	ldr	r3, [r3]
   13964:	e24b2014 	sub	r2, fp, #20
   13968:	e1a01002 	mov	r1, r2
   1396c:	e1a00003 	mov	r0, r3
   13970:	ebfffece 	bl	134b0 <ptr2a>
   13974:	e51b2018 	ldr	r2, [fp, #-24]	; 0xffffffe8
   13978:	e55b1006 	ldrb	r1, [fp, #-6]
   1397c:	e24b3014 	sub	r3, fp, #20
   13980:	e58d3000 	str	r3, [sp]
   13984:	e1a03001 	mov	r3, r1
   13988:	e51b1024 	ldr	r1, [fp, #-36]	; 0xffffffdc
   1398c:	e51b0020 	ldr	r0, [fp, #-32]	; 0xffffffe0
   13990:	ebfffed5 	bl	134ec <putchw>
   13994:	ea00009c 	b	13c0c <tfp_format+0x4fc>
   13998:	e55b3008 	ldrb	r3, [fp, #-8]
   1399c:	e3530000 	cmp	r3, #0
   139a0:	0a000008 	beq	139c8 <tfp_format+0x2b8>
   139a4:	e51b302c 	ldr	r3, [fp, #-44]	; 0xffffffd4
   139a8:	e2832004 	add	r2, r3, #4
   139ac:	e50b202c 	str	r2, [fp, #-44]	; 0xffffffd4
   139b0:	e5930000 	ldr	r0, [r3]
   139b4:	e24b3014 	sub	r3, fp, #20
   139b8:	e3a02000 	mov	r2, #0
   139bc:	e3a0100a 	mov	r1, #10
   139c0:	ebffff03 	bl	135d4 <size_t2a>
   139c4:	ea000013 	b	13a18 <tfp_format+0x308>
   139c8:	e55b3007 	ldrb	r3, [fp, #-7]
   139cc:	e3530000 	cmp	r3, #0
   139d0:	0a000008 	beq	139f8 <tfp_format+0x2e8>
   139d4:	e51b302c 	ldr	r3, [fp, #-44]	; 0xffffffd4
   139d8:	e2832004 	add	r2, r3, #4
   139dc:	e50b202c 	str	r2, [fp, #-44]	; 0xffffffd4
   139e0:	e5930000 	ldr	r0, [r3]
   139e4:	e24b3014 	sub	r3, fp, #20
   139e8:	e3a02000 	mov	r2, #0
   139ec:	e3a0100a 	mov	r1, #10
   139f0:	ebfffd8b 	bl	13024 <uli2a>
   139f4:	ea000007 	b	13a18 <tfp_format+0x308>
   139f8:	e51b302c 	ldr	r3, [fp, #-44]	; 0xffffffd4
   139fc:	e2832004 	add	r2, r3, #4
   13a00:	e50b202c 	str	r2, [fp, #-44]	; 0xffffffd4
   13a04:	e5930000 	ldr	r0, [r3]
   13a08:	e24b3014 	sub	r3, fp, #20
   13a0c:	e3a02000 	mov	r2, #0
   13a10:	e3a0100a 	mov	r1, #10
   13a14:	ebfffde9 	bl	131c0 <ui2a>
   13a18:	e51b2018 	ldr	r2, [fp, #-24]	; 0xffffffe8
   13a1c:	e55b1006 	ldrb	r1, [fp, #-6]
   13a20:	e24b3014 	sub	r3, fp, #20
   13a24:	e58d3000 	str	r3, [sp]
   13a28:	e1a03001 	mov	r3, r1
   13a2c:	e51b1024 	ldr	r1, [fp, #-36]	; 0xffffffdc
   13a30:	e51b0020 	ldr	r0, [fp, #-32]	; 0xffffffe0
   13a34:	ebfffeac 	bl	134ec <putchw>
   13a38:	ea000073 	b	13c0c <tfp_format+0x4fc>
   13a3c:	e55b3008 	ldrb	r3, [fp, #-8]
   13a40:	e3530000 	cmp	r3, #0
   13a44:	0a00000d 	beq	13a80 <tfp_format+0x370>
   13a48:	e51b302c 	ldr	r3, [fp, #-44]	; 0xffffffd4
   13a4c:	e2832004 	add	r2, r3, #4
   13a50:	e50b202c 	str	r2, [fp, #-44]	; 0xffffffd4
   13a54:	e5930000 	ldr	r0, [r3]
   13a58:	e55b3005 	ldrb	r3, [fp, #-5]
   13a5c:	e3530058 	cmp	r3, #88	; 0x58
   13a60:	03a03001 	moveq	r3, #1
   13a64:	13a03000 	movne	r3, #0
   13a68:	e6ef3073 	uxtb	r3, r3
   13a6c:	e1a02003 	mov	r2, r3
   13a70:	e24b3014 	sub	r3, fp, #20
   13a74:	e3a01010 	mov	r1, #16
   13a78:	ebfffed5 	bl	135d4 <size_t2a>
   13a7c:	ea00001d 	b	13af8 <tfp_format+0x3e8>
   13a80:	e55b3007 	ldrb	r3, [fp, #-7]
   13a84:	e3530000 	cmp	r3, #0
   13a88:	0a00000d 	beq	13ac4 <tfp_format+0x3b4>
   13a8c:	e51b302c 	ldr	r3, [fp, #-44]	; 0xffffffd4
   13a90:	e2832004 	add	r2, r3, #4
   13a94:	e50b202c 	str	r2, [fp, #-44]	; 0xffffffd4
   13a98:	e5930000 	ldr	r0, [r3]
   13a9c:	e55b3005 	ldrb	r3, [fp, #-5]
   13aa0:	e3530058 	cmp	r3, #88	; 0x58
   13aa4:	03a03001 	moveq	r3, #1
   13aa8:	13a03000 	movne	r3, #0
   13aac:	e6ef3073 	uxtb	r3, r3
   13ab0:	e1a02003 	mov	r2, r3
   13ab4:	e24b3014 	sub	r3, fp, #20
   13ab8:	e3a01010 	mov	r1, #16
   13abc:	ebfffd58 	bl	13024 <uli2a>
   13ac0:	ea00000c 	b	13af8 <tfp_format+0x3e8>
   13ac4:	e51b302c 	ldr	r3, [fp, #-44]	; 0xffffffd4
   13ac8:	e2832004 	add	r2, r3, #4
   13acc:	e50b202c 	str	r2, [fp, #-44]	; 0xffffffd4
   13ad0:	e5930000 	ldr	r0, [r3]
   13ad4:	e55b3005 	ldrb	r3, [fp, #-5]
   13ad8:	e3530058 	cmp	r3, #88	; 0x58
   13adc:	03a03001 	moveq	r3, #1
   13ae0:	13a03000 	movne	r3, #0
   13ae4:	e6ef3073 	uxtb	r3, r3
   13ae8:	e1a02003 	mov	r2, r3
   13aec:	e24b3014 	sub	r3, fp, #20
   13af0:	e3a01010 	mov	r1, #16
   13af4:	ebfffdb1 	bl	131c0 <ui2a>
   13af8:	e51b2018 	ldr	r2, [fp, #-24]	; 0xffffffe8
   13afc:	e55b1006 	ldrb	r1, [fp, #-6]
   13b00:	e24b3014 	sub	r3, fp, #20
   13b04:	e58d3000 	str	r3, [sp]
   13b08:	e1a03001 	mov	r3, r1
   13b0c:	e51b1024 	ldr	r1, [fp, #-36]	; 0xffffffdc
   13b10:	e51b0020 	ldr	r0, [fp, #-32]	; 0xffffffe0
   13b14:	ebfffe74 	bl	134ec <putchw>
   13b18:	ea00003b 	b	13c0c <tfp_format+0x4fc>
   13b1c:	e55b3007 	ldrb	r3, [fp, #-7]
   13b20:	e3530000 	cmp	r3, #0
   13b24:	0a000009 	beq	13b50 <tfp_format+0x440>
   13b28:	e51b302c 	ldr	r3, [fp, #-44]	; 0xffffffd4
   13b2c:	e2832004 	add	r2, r3, #4
   13b30:	e50b202c 	str	r2, [fp, #-44]	; 0xffffffd4
   13b34:	e5933000 	ldr	r3, [r3]
   13b38:	e1a02003 	mov	r2, r3
   13b3c:	e24b3014 	sub	r3, fp, #20
   13b40:	e1a01003 	mov	r1, r3
   13b44:	e1a00002 	mov	r0, r2
   13b48:	ebfffd84 	bl	13160 <li2a>
   13b4c:	ea000007 	b	13b70 <tfp_format+0x460>
   13b50:	e51b302c 	ldr	r3, [fp, #-44]	; 0xffffffd4
   13b54:	e2832004 	add	r2, r3, #4
   13b58:	e50b202c 	str	r2, [fp, #-44]	; 0xffffffd4
   13b5c:	e5933000 	ldr	r3, [r3]
   13b60:	e24b2014 	sub	r2, fp, #20
   13b64:	e1a01002 	mov	r1, r2
   13b68:	e1a00003 	mov	r0, r3
   13b6c:	ebfffde2 	bl	132fc <i2a>
   13b70:	e51b2018 	ldr	r2, [fp, #-24]	; 0xffffffe8
   13b74:	e55b1006 	ldrb	r1, [fp, #-6]
   13b78:	e24b3014 	sub	r3, fp, #20
   13b7c:	e58d3000 	str	r3, [sp]
   13b80:	e1a03001 	mov	r3, r1
   13b84:	e51b1024 	ldr	r1, [fp, #-36]	; 0xffffffdc
   13b88:	e51b0020 	ldr	r0, [fp, #-32]	; 0xffffffe0
   13b8c:	ebfffe56 	bl	134ec <putchw>
   13b90:	ea00001d 	b	13c0c <tfp_format+0x4fc>
   13b94:	e51b302c 	ldr	r3, [fp, #-44]	; 0xffffffd4
   13b98:	e2832004 	add	r2, r3, #4
   13b9c:	e50b202c 	str	r2, [fp, #-44]	; 0xffffffd4
   13ba0:	e5933000 	ldr	r3, [r3]
   13ba4:	e6ef2073 	uxtb	r2, r3
   13ba8:	e51b3024 	ldr	r3, [fp, #-36]	; 0xffffffdc
   13bac:	e1a01002 	mov	r1, r2
   13bb0:	e51b0020 	ldr	r0, [fp, #-32]	; 0xffffffe0
   13bb4:	e12fff33 	blx	r3
   13bb8:	ea000013 	b	13c0c <tfp_format+0x4fc>
   13bbc:	e51b1018 	ldr	r1, [fp, #-24]	; 0xffffffe8
   13bc0:	e51b302c 	ldr	r3, [fp, #-44]	; 0xffffffd4
   13bc4:	e2832004 	add	r2, r3, #4
   13bc8:	e50b202c 	str	r2, [fp, #-44]	; 0xffffffd4
   13bcc:	e5933000 	ldr	r3, [r3]
   13bd0:	e58d3000 	str	r3, [sp]
   13bd4:	e3a03000 	mov	r3, #0
   13bd8:	e1a02001 	mov	r2, r1
   13bdc:	e51b1024 	ldr	r1, [fp, #-36]	; 0xffffffdc
   13be0:	e51b0020 	ldr	r0, [fp, #-32]	; 0xffffffe0
   13be4:	ebfffe40 	bl	134ec <putchw>
   13be8:	ea000007 	b	13c0c <tfp_format+0x4fc>
   13bec:	e55b2005 	ldrb	r2, [fp, #-5]
   13bf0:	e51b3024 	ldr	r3, [fp, #-36]	; 0xffffffdc
   13bf4:	e1a01002 	mov	r1, r2
   13bf8:	e51b0020 	ldr	r0, [fp, #-32]	; 0xffffffe0
   13bfc:	e12fff33 	blx	r3
   13c00:	e320f000 	nop	{0}
   13c04:	ea000000 	b	13c0c <tfp_format+0x4fc>
   13c08:	e320f000 	nop	{0}
   13c0c:	e51b3028 	ldr	r3, [fp, #-40]	; 0xffffffd8
   13c10:	e2832001 	add	r2, r3, #1
   13c14:	e50b2028 	str	r2, [fp, #-40]	; 0xffffffd8
   13c18:	e5d33000 	ldrb	r3, [r3]
   13c1c:	e54b3005 	strb	r3, [fp, #-5]
   13c20:	e55b3005 	ldrb	r3, [fp, #-5]
   13c24:	e3530000 	cmp	r3, #0
   13c28:	1afffec0 	bne	13730 <tfp_format+0x20>
   13c2c:	ea000000 	b	13c34 <tfp_format+0x524>
   13c30:	e320f000 	nop	{0}
   13c34:	e320f000 	nop	{0}
   13c38:	e24bd004 	sub	sp, fp, #4
   13c3c:	e8bd8800 	pop	{fp, pc}

00013c40 <tfp_printf>:
   13c40:	e92d000f 	push	{r0, r1, r2, r3}
   13c44:	e92d4800 	push	{fp, lr}
   13c48:	e28db004 	add	fp, sp, #4
   13c4c:	e24dd008 	sub	sp, sp, #8
   13c50:	e28b3008 	add	r3, fp, #8
   13c54:	e50b3008 	str	r3, [fp, #-8]
   13c58:	e30e301c 	movw	r3, #57372	; 0xe01c
   13c5c:	e3403004 	movt	r3, #4
   13c60:	e5930000 	ldr	r0, [r3]
   13c64:	e30e3018 	movw	r3, #57368	; 0xe018
   13c68:	e3403004 	movt	r3, #4
   13c6c:	e5931000 	ldr	r1, [r3]
   13c70:	e51b3008 	ldr	r3, [fp, #-8]
   13c74:	e59b2004 	ldr	r2, [fp, #4]
   13c78:	ebfffea4 	bl	13710 <tfp_format>
   13c7c:	e320f000 	nop	{0}
   13c80:	e24bd004 	sub	sp, fp, #4
   13c84:	e8bd4800 	pop	{fp, lr}
   13c88:	e28dd010 	add	sp, sp, #16
   13c8c:	e12fff1e 	bx	lr

00013c90 <strlen>:
   13c90:	e52db004 	push	{fp}		; (str fp, [sp, #-4]!)
   13c94:	e28db000 	add	fp, sp, #0
   13c98:	e24dd014 	sub	sp, sp, #20
   13c9c:	e50b0010 	str	r0, [fp, #-16]
   13ca0:	e51b3010 	ldr	r3, [fp, #-16]
   13ca4:	e50b3008 	str	r3, [fp, #-8]
   13ca8:	ea000002 	b	13cb8 <strlen+0x28>
   13cac:	e51b3008 	ldr	r3, [fp, #-8]
   13cb0:	e2833001 	add	r3, r3, #1
   13cb4:	e50b3008 	str	r3, [fp, #-8]
   13cb8:	e51b3008 	ldr	r3, [fp, #-8]
   13cbc:	e5d33000 	ldrb	r3, [r3]
   13cc0:	e3530000 	cmp	r3, #0
   13cc4:	1afffff8 	bne	13cac <strlen+0x1c>
   13cc8:	e51b2008 	ldr	r2, [fp, #-8]
   13ccc:	e51b3010 	ldr	r3, [fp, #-16]
   13cd0:	e0423003 	sub	r3, r2, r3
   13cd4:	e1a00003 	mov	r0, r3
   13cd8:	e28bd000 	add	sp, fp, #0
   13cdc:	e49db004 	pop	{fp}		; (ldr fp, [sp], #4)
   13ce0:	e12fff1e 	bx	lr

00013ce4 <uart_putc>:
   13ce4:	e52db004 	push	{fp}		; (str fp, [sp, #-4]!)
   13ce8:	e28db000 	add	fp, sp, #0
   13cec:	e24dd00c 	sub	sp, sp, #12
   13cf0:	e1a03000 	mov	r3, r0
   13cf4:	e54b3005 	strb	r3, [fp, #-5]
   13cf8:	e3a03a01 	mov	r3, #4096	; 0x1000
   13cfc:	e341301f 	movt	r3, #4127	; 0x101f
   13d00:	e55b2005 	ldrb	r2, [fp, #-5]
   13d04:	e5832000 	str	r2, [r3]
   13d08:	e320f000 	nop	{0}
   13d0c:	e28bd000 	add	sp, fp, #0
   13d10:	e49db004 	pop	{fp}		; (ldr fp, [sp], #4)
   13d14:	e12fff1e 	bx	lr

00013d18 <putc_uart>:
   13d18:	e92d4800 	push	{fp, lr}
   13d1c:	e28db004 	add	fp, sp, #4
   13d20:	e24dd008 	sub	sp, sp, #8
   13d24:	e50b0008 	str	r0, [fp, #-8]
   13d28:	e1a03001 	mov	r3, r1
   13d2c:	e54b3009 	strb	r3, [fp, #-9]
   13d30:	e55b3009 	ldrb	r3, [fp, #-9]
   13d34:	e1a00003 	mov	r0, r3
   13d38:	ebffffe9 	bl	13ce4 <uart_putc>
   13d3c:	e320f000 	nop	{0}
   13d40:	e24bd004 	sub	sp, fp, #4
   13d44:	e8bd8800 	pop	{fp, pc}

00013d48 <main>:
   13d48:	e92d4800 	push	{fp, lr}
   13d4c:	e28db004 	add	fp, sp, #4
   13d50:	e24dd020 	sub	sp, sp, #32
   13d54:	e3031d18 	movw	r1, #15640	; 0x3d18
   13d58:	e3401001 	movt	r1, #1
   13d5c:	e3a00000 	mov	r0, #0
   13d60:	ebffd0cd 	bl	809c <init_printf>
   13d64:	e3a00024 	mov	r0, #36	; 0x24
   13d68:	ebfff0e1 	bl	100f4 <malloc>
   13d6c:	e1a03000 	mov	r3, r0
   13d70:	e50b3008 	str	r3, [fp, #-8]
   13d74:	e51b3008 	ldr	r3, [fp, #-8]
   13d78:	e3530000 	cmp	r3, #0
   13d7c:	0a00002b 	beq	13e30 <main+0xe8>
   13d80:	e3a02024 	mov	r2, #36	; 0x24
   13d84:	e3a01000 	mov	r1, #0
   13d88:	e51b0008 	ldr	r0, [fp, #-8]
   13d8c:	ebfff207 	bl	105b0 <memset>
   13d90:	e3053bc8 	movw	r3, #23496	; 0x5bc8
   13d94:	e3403001 	movt	r3, #1
   13d98:	e24bc020 	sub	ip, fp, #32
   13d9c:	e893000f 	ldm	r3, {r0, r1, r2, r3}
   13da0:	e88c000f 	stm	ip, {r0, r1, r2, r3}
   13da4:	e3a03010 	mov	r3, #16
   13da8:	e50b300c 	str	r3, [fp, #-12]
   13dac:	e51b000c 	ldr	r0, [fp, #-12]
   13db0:	ebfff0cf 	bl	100f4 <malloc>
   13db4:	e1a03000 	mov	r3, r0
   13db8:	e1a02003 	mov	r2, r3
   13dbc:	e51b3008 	ldr	r3, [fp, #-8]
   13dc0:	e583201c 	str	r2, [r3, #28]
   13dc4:	e51b3008 	ldr	r3, [fp, #-8]
   13dc8:	e593301c 	ldr	r3, [r3, #28]
   13dcc:	e3530000 	cmp	r3, #0
   13dd0:	0a000018 	beq	13e38 <main+0xf0>
   13dd4:	e51b3008 	ldr	r3, [fp, #-8]
   13dd8:	e593301c 	ldr	r3, [r3, #28]
   13ddc:	e24b1020 	sub	r1, fp, #32
   13de0:	e51b200c 	ldr	r2, [fp, #-12]
   13de4:	e1a00003 	mov	r0, r3
   13de8:	ebfff209 	bl	10614 <memcpy>
   13dec:	e30d3280 	movw	r3, #53888	; 0xd280
   13df0:	e3403002 	movt	r3, #2
   13df4:	e5933000 	ldr	r3, [r3]
   13df8:	e1a02003 	mov	r2, r3
   13dfc:	e3071d8c 	movw	r1, #32140	; 0x7d8c
   13e00:	e3401001 	movt	r1, #1
   13e04:	e51b0008 	ldr	r0, [fp, #-8]
   13e08:	ebffdc8d 	bl	b044 <decrypt_memory>
   13e0c:	e50b0010 	str	r0, [fp, #-16]
   13e10:	e51b3010 	ldr	r3, [fp, #-16]
   13e14:	e3530000 	cmp	r3, #0
   13e18:	0a000008 	beq	13e40 <main+0xf8>
   13e1c:	e51b1010 	ldr	r1, [fp, #-16]
   13e20:	e3050ba4 	movw	r0, #23460	; 0x5ba4
   13e24:	e3400001 	movt	r0, #1
   13e28:	ebffff84 	bl	13c40 <tfp_printf>
   13e2c:	ea000004 	b	13e44 <main+0xfc>
   13e30:	e320f000 	nop	{0}
   13e34:	ea000002 	b	13e44 <main+0xfc>
   13e38:	e320f000 	nop	{0}
   13e3c:	ea000000 	b	13e44 <main+0xfc>
   13e40:	e320f000 	nop	{0}
   13e44:	e320f003 	wfi
   13e48:	eafffffd 	b	13e44 <main+0xfc>

00013e4c <proc_symkey_enc>:
   13e4c:	e92d4810 	push	{r4, fp, lr}
   13e50:	e28db008 	add	fp, sp, #8
   13e54:	e24dd024 	sub	sp, sp, #36	; 0x24
   13e58:	e50b0028 	str	r0, [fp, #-40]	; 0xffffffd8
   13e5c:	e50b102c 	str	r1, [fp, #-44]	; 0xffffffd4
   13e60:	e51b302c 	ldr	r3, [fp, #-44]	; 0xffffffd4
   13e64:	e5933004 	ldr	r3, [r3, #4]
   13e68:	e50b3010 	str	r3, [fp, #-16]
   13e6c:	e51b3010 	ldr	r3, [fp, #-16]
   13e70:	e3530000 	cmp	r3, #0
   13e74:	1a000003 	bne	13e88 <proc_symkey_enc+0x3c>
   13e78:	e3050ca8 	movw	r0, #23720	; 0x5ca8
   13e7c:	e3400001 	movt	r0, #1
   13e80:	ebffff6e 	bl	13c40 <tfp_printf>
   13e84:	ea000045 	b	13fa0 <proc_symkey_enc+0x154>
   13e88:	e51b3028 	ldr	r3, [fp, #-40]	; 0xffffffd8
   13e8c:	e593302c 	ldr	r3, [r3, #44]	; 0x2c
   13e90:	e3530000 	cmp	r3, #0
   13e94:	1a00003e 	bne	13f94 <proc_symkey_enc+0x148>
   13e98:	e51b3010 	ldr	r3, [fp, #-16]
   13e9c:	e5d33001 	ldrb	r3, [r3, #1]
   13ea0:	e50b3014 	str	r3, [fp, #-20]	; 0xffffffec
   13ea4:	e3053ccc 	movw	r3, #23756	; 0x5ccc
   13ea8:	e3403001 	movt	r3, #1
   13eac:	e50b3018 	str	r3, [fp, #-24]	; 0xffffffe8
   13eb0:	e3053cd4 	movw	r3, #23764	; 0x5cd4
   13eb4:	e3403001 	movt	r3, #1
   13eb8:	e50b301c 	str	r3, [fp, #-28]	; 0xffffffe4
   13ebc:	e51b3028 	ldr	r3, [fp, #-40]	; 0xffffffd8
   13ec0:	e3a02002 	mov	r2, #2
   13ec4:	e5832038 	str	r2, [r3, #56]	; 0x38
   13ec8:	e51b3018 	ldr	r3, [fp, #-24]	; 0xffffffe8
   13ecc:	e3530000 	cmp	r3, #0
   13ed0:	0a000031 	beq	13f9c <proc_symkey_enc+0x150>
   13ed4:	e51b3028 	ldr	r3, [fp, #-40]	; 0xffffffd8
   13ed8:	e5933034 	ldr	r3, [r3, #52]	; 0x34
   13edc:	e1a00003 	mov	r0, r3
   13ee0:	ebffff6a 	bl	13c90 <strlen>
   13ee4:	e1a03000 	mov	r3, r0
   13ee8:	e2833001 	add	r3, r3, #1
   13eec:	e50b3020 	str	r3, [fp, #-32]	; 0xffffffe0
   13ef0:	e51b3028 	ldr	r3, [fp, #-40]	; 0xffffffd8
   13ef4:	e593402c 	ldr	r4, [r3, #44]	; 0x2c
   13ef8:	e51b0020 	ldr	r0, [fp, #-32]	; 0xffffffe0
   13efc:	ebfff07c 	bl	100f4 <malloc>
   13f00:	e1a03000 	mov	r3, r0
   13f04:	e584300c 	str	r3, [r4, #12]
   13f08:	e51b3028 	ldr	r3, [fp, #-40]	; 0xffffffd8
   13f0c:	e593302c 	ldr	r3, [r3, #44]	; 0x2c
   13f10:	e593000c 	ldr	r0, [r3, #12]
   13f14:	e51b3028 	ldr	r3, [fp, #-40]	; 0xffffffd8
   13f18:	e5933034 	ldr	r3, [r3, #52]	; 0x34
   13f1c:	e51b2020 	ldr	r2, [fp, #-32]	; 0xffffffe0
   13f20:	e1a01003 	mov	r1, r3
   13f24:	ebfff1ba 	bl	10614 <memcpy>
   13f28:	e51b3028 	ldr	r3, [fp, #-40]	; 0xffffffd8
   13f2c:	e593302c 	ldr	r3, [r3, #44]	; 0x2c
   13f30:	e3530000 	cmp	r3, #0
   13f34:	0a000016 	beq	13f94 <proc_symkey_enc+0x148>
   13f38:	e51b3028 	ldr	r3, [fp, #-40]	; 0xffffffd8
   13f3c:	e593202c 	ldr	r2, [r3, #44]	; 0x2c
   13f40:	e5d23008 	ldrb	r3, [r2, #8]
   13f44:	e3833040 	orr	r3, r3, #64	; 0x40
   13f48:	e5c23008 	strb	r3, [r2, #8]
   13f4c:	e51b3010 	ldr	r3, [fp, #-16]
   13f50:	e5d31002 	ldrb	r1, [r3, #2]
   13f54:	e51b3028 	ldr	r3, [fp, #-40]	; 0xffffffd8
   13f58:	e593202c 	ldr	r2, [r3, #44]	; 0x2c
   13f5c:	e1a03001 	mov	r3, r1
   13f60:	e1a03203 	lsl	r3, r3, #4
   13f64:	e6af3073 	sxtb	r3, r3
   13f68:	e1a03243 	asr	r3, r3, #4
   13f6c:	e6af1073 	sxtb	r1, r3
   13f70:	e5d23008 	ldrb	r3, [r2, #8]
   13f74:	e7c43091 	bfi	r3, r1, #1, #4
   13f78:	e5c23008 	strb	r3, [r2, #8]
   13f7c:	e51b3028 	ldr	r3, [fp, #-40]	; 0xffffffd8
   13f80:	e593202c 	ldr	r2, [r3, #44]	; 0x2c
   13f84:	e5d23008 	ldrb	r3, [r2, #8]
   13f88:	e3833001 	orr	r3, r3, #1
   13f8c:	e5c23008 	strb	r3, [r2, #8]
   13f90:	ea000002 	b	13fa0 <proc_symkey_enc+0x154>
   13f94:	e320f000 	nop	{0}
   13f98:	ea000000 	b	13fa0 <proc_symkey_enc+0x154>
   13f9c:	e320f000 	nop	{0}
   13fa0:	e3a01010 	mov	r1, #16
   13fa4:	e3a00001 	mov	r0, #1
   13fa8:	ebfff120 	bl	10430 <xcalloc>
   13fac:	e1a03000 	mov	r3, r0
   13fb0:	e50b3024 	str	r3, [fp, #-36]	; 0xffffffdc
   13fb4:	e51b3010 	ldr	r3, [fp, #-16]
   13fb8:	e3530000 	cmp	r3, #0
   13fbc:	0a00000e 	beq	13ffc <proc_symkey_enc+0x1b0>
   13fc0:	e51b3010 	ldr	r3, [fp, #-16]
   13fc4:	e5d33001 	ldrb	r3, [r3, #1]
   13fc8:	e1a02003 	mov	r2, r3
   13fcc:	e51b3024 	ldr	r3, [fp, #-36]	; 0xffffffdc
   13fd0:	e5832004 	str	r2, [r3, #4]
   13fd4:	e51b3010 	ldr	r3, [fp, #-16]
   13fd8:	e5d33002 	ldrb	r3, [r3, #2]
   13fdc:	e3530000 	cmp	r3, #0
   13fe0:	03a03001 	moveq	r3, #1
   13fe4:	13a03000 	movne	r3, #0
   13fe8:	e6ef3073 	uxtb	r3, r3
   13fec:	e1a02003 	mov	r2, r3
   13ff0:	e51b3024 	ldr	r3, [fp, #-36]	; 0xffffffdc
   13ff4:	e5832008 	str	r2, [r3, #8]
   13ff8:	ea000002 	b	14008 <proc_symkey_enc+0x1bc>
   13ffc:	e51b3024 	ldr	r3, [fp, #-36]	; 0xffffffdc
   14000:	e3a02001 	mov	r2, #1
   14004:	e583200c 	str	r2, [r3, #12]
   14008:	e51b3028 	ldr	r3, [fp, #-40]	; 0xffffffd8
   1400c:	e5932050 	ldr	r2, [r3, #80]	; 0x50
   14010:	e51b3024 	ldr	r3, [fp, #-36]	; 0xffffffdc
   14014:	e5832000 	str	r2, [r3]
   14018:	e51b3028 	ldr	r3, [fp, #-40]	; 0xffffffd8
   1401c:	e51b2024 	ldr	r2, [fp, #-36]	; 0xffffffdc
   14020:	e5832050 	str	r2, [r3, #80]	; 0x50
   14024:	e51b3028 	ldr	r3, [fp, #-40]	; 0xffffffd8
   14028:	e5933048 	ldr	r3, [r3, #72]	; 0x48
   1402c:	e2832001 	add	r2, r3, #1
   14030:	e51b3028 	ldr	r3, [fp, #-40]	; 0xffffffd8
   14034:	e5832048 	str	r2, [r3, #72]	; 0x48
   14038:	e320f000 	nop	{0}
   1403c:	e24bd008 	sub	sp, fp, #8
   14040:	e8bd8810 	pop	{r4, fp, pc}

00014044 <proc_encrypted>:
   14044:	e92d4800 	push	{fp, lr}
   14048:	e28db004 	add	fp, sp, #4
   1404c:	e24dd020 	sub	sp, sp, #32
   14050:	e50b0018 	str	r0, [fp, #-24]	; 0xffffffe8
   14054:	e50b101c 	str	r1, [fp, #-28]	; 0xffffffe4
   14058:	e3a03000 	mov	r3, #0
   1405c:	e50b3008 	str	r3, [fp, #-8]
   14060:	e30e3020 	movw	r3, #57376	; 0xe020
   14064:	e3403004 	movt	r3, #4
   14068:	e5933000 	ldr	r3, [r3]
   1406c:	e50b3010 	str	r3, [fp, #-16]
   14070:	e3a03000 	mov	r3, #0
   14074:	e50b300c 	str	r3, [fp, #-12]
   14078:	e51b301c 	ldr	r3, [fp, #-28]	; 0xffffffe4
   1407c:	e5d33000 	ldrb	r3, [r3]
   14080:	e3530014 	cmp	r3, #20
   14084:	1a000002 	bne	14094 <proc_encrypted+0x50>
   14088:	e51b3018 	ldr	r3, [fp, #-24]	; 0xffffffe8
   1408c:	e3a02001 	mov	r2, #1
   14090:	e5832054 	str	r2, [r3, #84]	; 0x54
   14094:	e51b301c 	ldr	r3, [fp, #-28]	; 0xffffffe4
   14098:	e5d33000 	ldrb	r3, [r3]
   1409c:	e3530012 	cmp	r3, #18
   140a0:	1a000002 	bne	140b0 <proc_encrypted+0x6c>
   140a4:	e51b3018 	ldr	r3, [fp, #-24]	; 0xffffffe8
   140a8:	e3a02001 	mov	r2, #1
   140ac:	e5832058 	str	r2, [r3, #88]	; 0x58
   140b0:	e51b3010 	ldr	r3, [fp, #-16]
   140b4:	e3530000 	cmp	r3, #0
   140b8:	0a000006 	beq	140d8 <proc_encrypted+0x94>
   140bc:	e3050cd8 	movw	r0, #23768	; 0x5cd8
   140c0:	e3400001 	movt	r0, #1
   140c4:	ebfffedd 	bl	13c40 <tfp_printf>
   140c8:	e3a01059 	mov	r1, #89	; 0x59
   140cc:	e3050cfc 	movw	r0, #23804	; 0x5cfc
   140d0:	e3400001 	movt	r0, #1
   140d4:	ebfffed9 	bl	13c40 <tfp_printf>
   140d8:	e51b3008 	ldr	r3, [fp, #-8]
   140dc:	e3530000 	cmp	r3, #0
   140e0:	1a000014 	bne	14138 <proc_encrypted+0xf4>
   140e4:	e51b3018 	ldr	r3, [fp, #-24]	; 0xffffffe8
   140e8:	e5930000 	ldr	r0, [r3]
   140ec:	e51b301c 	ldr	r3, [fp, #-28]	; 0xffffffe4
   140f0:	e5932004 	ldr	r2, [r3, #4]
   140f4:	e51b3018 	ldr	r3, [fp, #-24]	; 0xffffffe8
   140f8:	e593102c 	ldr	r1, [r3, #44]	; 0x2c
   140fc:	e24b3014 	sub	r3, fp, #20
   14100:	e58d3000 	str	r3, [sp]
   14104:	e1a03001 	mov	r3, r1
   14108:	e51b1018 	ldr	r1, [fp, #-24]	; 0xffffffe8
   1410c:	ebffdc8a 	bl	b33c <decrypt_data>
   14110:	e50b0008 	str	r0, [fp, #-8]
   14114:	e51b3008 	ldr	r3, [fp, #-8]
   14118:	e3530000 	cmp	r3, #0
   1411c:	1a000005 	bne	14138 <proc_encrypted+0xf4>
   14120:	e51b3014 	ldr	r3, [fp, #-20]	; 0xffffffec
   14124:	e3530000 	cmp	r3, #0
   14128:	1a000002 	bne	14138 <proc_encrypted+0xf4>
   1412c:	e51b300c 	ldr	r3, [fp, #-12]
   14130:	e3833002 	orr	r3, r3, #2
   14134:	e50b300c 	str	r3, [fp, #-12]
   14138:	e3050d18 	movw	r0, #23832	; 0x5d18
   1413c:	e3400001 	movt	r0, #1
   14140:	ebfffebe 	bl	13c40 <tfp_printf>
   14144:	e320f000 	nop	{0}
   14148:	e320f000 	nop	{0}
   1414c:	e24bd004 	sub	sp, fp, #4
   14150:	e8bd8800 	pop	{fp, pc}

00014154 <proc_packets>:
   14154:	e92d4800 	push	{fp, lr}
   14158:	e28db004 	add	fp, sp, #4
   1415c:	e24dd018 	sub	sp, sp, #24
   14160:	e50b0010 	str	r0, [fp, #-16]
   14164:	e50b1014 	str	r1, [fp, #-20]	; 0xffffffec
   14168:	e50b2018 	str	r2, [fp, #-24]	; 0xffffffe8
   1416c:	e3050d2c 	movw	r0, #23852	; 0x5d2c
   14170:	e3400001 	movt	r0, #1
   14174:	ebfffeb1 	bl	13c40 <tfp_printf>
   14178:	e3a00060 	mov	r0, #96	; 0x60
   1417c:	ebfff099 	bl	103e8 <xmalloc_clear>
   14180:	e1a03000 	mov	r3, r0
   14184:	e50b3008 	str	r3, [fp, #-8]
   14188:	e51b3008 	ldr	r3, [fp, #-8]
   1418c:	e51b2010 	ldr	r2, [fp, #-16]
   14190:	e5832000 	str	r2, [r3]
   14194:	e51b3008 	ldr	r3, [fp, #-8]
   14198:	e51b2014 	ldr	r2, [fp, #-20]	; 0xffffffec
   1419c:	e5832004 	str	r2, [r3, #4]
   141a0:	e51b2018 	ldr	r2, [fp, #-24]	; 0xffffffe8
   141a4:	e51b1008 	ldr	r1, [fp, #-8]
   141a8:	e51b0010 	ldr	r0, [fp, #-16]
   141ac:	eb000042 	bl	142bc <do_proc_packets>
   141b0:	e50b000c 	str	r0, [fp, #-12]
   141b4:	e51b0008 	ldr	r0, [fp, #-8]
   141b8:	ebfff0be 	bl	104b8 <xfree>
   141bc:	e51b300c 	ldr	r3, [fp, #-12]
   141c0:	e1a00003 	mov	r0, r3
   141c4:	e24bd004 	sub	sp, fp, #4
   141c8:	e8bd8800 	pop	{fp, pc}

000141cc <proc_encryption_packets>:
   141cc:	e92d4800 	push	{fp, lr}
   141d0:	e28db004 	add	fp, sp, #4
   141d4:	e24dd018 	sub	sp, sp, #24
   141d8:	e50b0010 	str	r0, [fp, #-16]
   141dc:	e50b1014 	str	r1, [fp, #-20]	; 0xffffffec
   141e0:	e50b2018 	str	r2, [fp, #-24]	; 0xffffffe8
   141e4:	e3a00060 	mov	r0, #96	; 0x60
   141e8:	ebfff07e 	bl	103e8 <xmalloc_clear>
   141ec:	e1a03000 	mov	r3, r0
   141f0:	e50b3008 	str	r3, [fp, #-8]
   141f4:	e51b3008 	ldr	r3, [fp, #-8]
   141f8:	e51b2010 	ldr	r2, [fp, #-16]
   141fc:	e5832000 	str	r2, [r3]
   14200:	e51b3008 	ldr	r3, [fp, #-8]
   14204:	e51b2014 	ldr	r2, [fp, #-20]	; 0xffffffec
   14208:	e5832004 	str	r2, [r3, #4]
   1420c:	e51b3008 	ldr	r3, [fp, #-8]
   14210:	e3a02001 	mov	r2, #1
   14214:	e5832014 	str	r2, [r3, #20]
   14218:	e51b2018 	ldr	r2, [fp, #-24]	; 0xffffffe8
   1421c:	e51b1008 	ldr	r1, [fp, #-8]
   14220:	e51b0010 	ldr	r0, [fp, #-16]
   14224:	eb000024 	bl	142bc <do_proc_packets>
   14228:	e50b000c 	str	r0, [fp, #-12]
   1422c:	e51b300c 	ldr	r3, [fp, #-12]
   14230:	e1a00003 	mov	r0, r3
   14234:	e24bd004 	sub	sp, fp, #4
   14238:	e8bd8800 	pop	{fp, pc}

0001423c <check_nesting>:
   1423c:	e92d4800 	push	{fp, lr}
   14240:	e28db004 	add	fp, sp, #4
   14244:	e24dd010 	sub	sp, sp, #16
   14248:	e50b0010 	str	r0, [fp, #-16]
   1424c:	e3a03000 	mov	r3, #0
   14250:	e50b3008 	str	r3, [fp, #-8]
   14254:	ea000005 	b	14270 <check_nesting+0x34>
   14258:	e51b3008 	ldr	r3, [fp, #-8]
   1425c:	e2833001 	add	r3, r3, #1
   14260:	e50b3008 	str	r3, [fp, #-8]
   14264:	e51b3010 	ldr	r3, [fp, #-16]
   14268:	e5933004 	ldr	r3, [r3, #4]
   1426c:	e50b3010 	str	r3, [fp, #-16]
   14270:	e51b3010 	ldr	r3, [fp, #-16]
   14274:	e3530000 	cmp	r3, #0
   14278:	1afffff6 	bne	14258 <check_nesting+0x1c>
   1427c:	e51b3008 	ldr	r3, [fp, #-8]
   14280:	e3530020 	cmp	r3, #32
   14284:	da000008 	ble	142ac <check_nesting+0x70>
   14288:	e3050d3c 	movw	r0, #23868	; 0x5d3c
   1428c:	e3400001 	movt	r0, #1
   14290:	ebfffe6a 	bl	13c40 <tfp_printf>
   14294:	e3051d68 	movw	r1, #23912	; 0x5d68
   14298:	e3401001 	movt	r1, #1
   1429c:	e3a0003c 	mov	r0, #60	; 0x3c
   142a0:	ebfffe66 	bl	13c40 <tfp_printf>
   142a4:	e3a03059 	mov	r3, #89	; 0x59
   142a8:	ea000000 	b	142b0 <check_nesting+0x74>
   142ac:	e3a03000 	mov	r3, #0
   142b0:	e1a00003 	mov	r0, r3
   142b4:	e24bd004 	sub	sp, fp, #4
   142b8:	e8bd8800 	pop	{fp, pc}

000142bc <do_proc_packets>:
   142bc:	e92d4800 	push	{fp, lr}
   142c0:	e28db004 	add	fp, sp, #4
   142c4:	e24dd040 	sub	sp, sp, #64	; 0x40
   142c8:	e50b0038 	str	r0, [fp, #-56]	; 0xffffffc8
   142cc:	e50b103c 	str	r1, [fp, #-60]	; 0xffffffc4
   142d0:	e50b2040 	str	r2, [fp, #-64]	; 0xffffffc0
   142d4:	e51b3038 	ldr	r3, [fp, #-56]	; 0xffffffc8
   142d8:	e593301c 	ldr	r3, [r3, #28]
   142dc:	e3530000 	cmp	r3, #0
   142e0:	0a000017 	beq	14344 <do_proc_packets+0x88>
   142e4:	e51b3038 	ldr	r3, [fp, #-56]	; 0xffffffc8
   142e8:	e593301c 	ldr	r3, [r3, #28]
   142ec:	e1a00003 	mov	r0, r3
   142f0:	ebfffe66 	bl	13c90 <strlen>
   142f4:	e1a03000 	mov	r3, r0
   142f8:	e2833001 	add	r3, r3, #1
   142fc:	e50b3018 	str	r3, [fp, #-24]	; 0xffffffe8
   14300:	e51b0018 	ldr	r0, [fp, #-24]	; 0xffffffe8
   14304:	ebffef7a 	bl	100f4 <malloc>
   14308:	e1a03000 	mov	r3, r0
   1430c:	e1a02003 	mov	r2, r3
   14310:	e51b303c 	ldr	r3, [fp, #-60]	; 0xffffffc4
   14314:	e5832034 	str	r2, [r3, #52]	; 0x34
   14318:	e51b303c 	ldr	r3, [fp, #-60]	; 0xffffffc4
   1431c:	e5933034 	ldr	r3, [r3, #52]	; 0x34
   14320:	e3530000 	cmp	r3, #0
   14324:	0a000006 	beq	14344 <do_proc_packets+0x88>
   14328:	e51b303c 	ldr	r3, [fp, #-60]	; 0xffffffc4
   1432c:	e5930034 	ldr	r0, [r3, #52]	; 0x34
   14330:	e51b3038 	ldr	r3, [fp, #-56]	; 0xffffffc8
   14334:	e593301c 	ldr	r3, [r3, #28]
   14338:	e51b2018 	ldr	r2, [fp, #-24]	; 0xffffffe8
   1433c:	e1a01003 	mov	r1, r3
   14340:	ebfff0b3 	bl	10614 <memcpy>
   14344:	e51b3038 	ldr	r3, [fp, #-56]	; 0xffffffc8
   14348:	e5932020 	ldr	r2, [r3, #32]
   1434c:	e51b303c 	ldr	r3, [fp, #-60]	; 0xffffffc4
   14350:	e583201c 	str	r2, [r3, #28]
   14354:	e3a03000 	mov	r3, #0
   14358:	e50b300c 	str	r3, [fp, #-12]
   1435c:	e3a03000 	mov	r3, #0
   14360:	e50b3010 	str	r3, [fp, #-16]
   14364:	e51b003c 	ldr	r0, [fp, #-60]	; 0xffffffc4
   14368:	ebffffb3 	bl	1423c <check_nesting>
   1436c:	e50b000c 	str	r0, [fp, #-12]
   14370:	e51b300c 	ldr	r3, [fp, #-12]
   14374:	e3530000 	cmp	r3, #0
   14378:	0a000001 	beq	14384 <do_proc_packets+0xc8>
   1437c:	e51b300c 	ldr	r3, [fp, #-12]
   14380:	ea00009f 	b	14604 <do_proc_packets+0x348>
   14384:	e3a00008 	mov	r0, #8
   14388:	ebffeff9 	bl	10374 <xmalloc>
   1438c:	e1a03000 	mov	r3, r0
   14390:	e50b3008 	str	r3, [fp, #-8]
   14394:	e51b303c 	ldr	r3, [fp, #-60]	; 0xffffffc4
   14398:	e51b2040 	ldr	r2, [fp, #-64]	; 0xffffffc0
   1439c:	e5832040 	str	r2, [r3, #64]	; 0x40
   143a0:	e51b3008 	ldr	r3, [fp, #-8]
   143a4:	e3a02000 	mov	r2, #0
   143a8:	e5c32000 	strb	r2, [r3]
   143ac:	e51b3008 	ldr	r3, [fp, #-8]
   143b0:	e3a02000 	mov	r2, #0
   143b4:	e5832004 	str	r2, [r3, #4]
   143b8:	e51b3040 	ldr	r3, [fp, #-64]	; 0xffffffc0
   143bc:	e50b3030 	str	r3, [fp, #-48]	; 0xffffffd0
   143c0:	e3a03000 	mov	r3, #0
   143c4:	e54b302c 	strb	r3, [fp, #-44]	; 0xffffffd4
   143c8:	e3a03000 	mov	r3, #0
   143cc:	e50b3028 	str	r3, [fp, #-40]	; 0xffffffd8
   143d0:	e3a03000 	mov	r3, #0
   143d4:	e50b3024 	str	r3, [fp, #-36]	; 0xffffffdc
   143d8:	e3a03000 	mov	r3, #0
   143dc:	e50b3020 	str	r3, [fp, #-32]	; 0xffffffe0
   143e0:	e3a03000 	mov	r3, #0
   143e4:	e50b301c 	str	r3, [fp, #-28]	; 0xffffffe4
   143e8:	ea000060 	b	14570 <do_proc_packets+0x2b4>
   143ec:	e3a03001 	mov	r3, #1
   143f0:	e50b3010 	str	r3, [fp, #-16]
   143f4:	e51b300c 	ldr	r3, [fp, #-12]
   143f8:	e3530000 	cmp	r3, #0
   143fc:	0a000004 	beq	14414 <do_proc_packets+0x158>
   14400:	e24b3030 	sub	r3, fp, #48	; 0x30
   14404:	e1a01003 	mov	r1, r3
   14408:	e51b0008 	ldr	r0, [fp, #-8]
   1440c:	ebffdeda 	bl	bf7c <free_packet>
   14410:	ea000069 	b	145bc <do_proc_packets+0x300>
   14414:	e3e03000 	mvn	r3, #0
   14418:	e50b3014 	str	r3, [fp, #-20]	; 0xffffffec
   1441c:	e51b303c 	ldr	r3, [fp, #-60]	; 0xffffffc4
   14420:	e5933014 	ldr	r3, [r3, #20]
   14424:	e3530000 	cmp	r3, #0
   14428:	0a000025 	beq	144c4 <do_proc_packets+0x208>
   1442c:	e51b3008 	ldr	r3, [fp, #-8]
   14430:	e5d33000 	ldrb	r3, [r3]
   14434:	e2433003 	sub	r3, r3, #3
   14438:	e3530011 	cmp	r3, #17
   1443c:	979ff103 	ldrls	pc, [pc, r3, lsl #2]
   14440:	ea00001c 	b	144b8 <do_proc_packets+0x1fc>
   14444:	00014498 	.word	0x00014498
   14448:	000144b8 	.word	0x000144b8
   1444c:	0001448c 	.word	0x0001448c
   14450:	0001448c 	.word	0x0001448c
   14454:	000144b8 	.word	0x000144b8
   14458:	000144b8 	.word	0x000144b8
   1445c:	000144a8 	.word	0x000144a8
   14460:	000144b8 	.word	0x000144b8
   14464:	000144b8 	.word	0x000144b8
   14468:	000144b8 	.word	0x000144b8
   1446c:	0001448c 	.word	0x0001448c
   14470:	000144b8 	.word	0x000144b8
   14474:	000144b8 	.word	0x000144b8
   14478:	000144b8 	.word	0x000144b8
   1447c:	000144b8 	.word	0x000144b8
   14480:	000144a8 	.word	0x000144a8
   14484:	000144b8 	.word	0x000144b8
   14488:	000144a8 	.word	0x000144a8
   1448c:	e3a03026 	mov	r3, #38	; 0x26
   14490:	e50b300c 	str	r3, [fp, #-12]
   14494:	ea000048 	b	145bc <do_proc_packets+0x300>
   14498:	e51b1008 	ldr	r1, [fp, #-8]
   1449c:	e51b003c 	ldr	r0, [fp, #-60]	; 0xffffffc4
   144a0:	ebfffe69 	bl	13e4c <proc_symkey_enc>
   144a4:	ea000007 	b	144c8 <do_proc_packets+0x20c>
   144a8:	e51b1008 	ldr	r1, [fp, #-8]
   144ac:	e51b003c 	ldr	r0, [fp, #-60]	; 0xffffffc4
   144b0:	ebfffee3 	bl	14044 <proc_encrypted>
   144b4:	ea000003 	b	144c8 <do_proc_packets+0x20c>
   144b8:	e3a03000 	mov	r3, #0
   144bc:	e50b3014 	str	r3, [fp, #-20]	; 0xffffffec
   144c0:	ea000000 	b	144c8 <do_proc_packets+0x20c>
   144c4:	e320f000 	nop	{0}
   144c8:	e51b300c 	ldr	r3, [fp, #-12]
   144cc:	e3530000 	cmp	r3, #0
   144d0:	1a000036 	bne	145b0 <do_proc_packets+0x2f4>
   144d4:	e51b3008 	ldr	r3, [fp, #-8]
   144d8:	e5d33000 	ldrb	r3, [r3]
   144dc:	e3530002 	cmp	r3, #2
   144e0:	0a00000d 	beq	1451c <do_proc_packets+0x260>
   144e4:	e51b3008 	ldr	r3, [fp, #-8]
   144e8:	e5d33000 	ldrb	r3, [r3]
   144ec:	e3530013 	cmp	r3, #19
   144f0:	0a000009 	beq	1451c <do_proc_packets+0x260>
   144f4:	e51b3008 	ldr	r3, [fp, #-8]
   144f8:	e5d33000 	ldrb	r3, [r3]
   144fc:	e353000b 	cmp	r3, #11
   14500:	03a03001 	moveq	r3, #1
   14504:	13a03000 	movne	r3, #0
   14508:	e6ef1073 	uxtb	r1, r3
   1450c:	e51b203c 	ldr	r2, [fp, #-60]	; 0xffffffc4
   14510:	e5d2305c 	ldrb	r3, [r2, #92]	; 0x5c
   14514:	e7c13091 	bfi	r3, r1, #1, #1
   14518:	e5c2305c 	strb	r3, [r2, #92]	; 0x5c
   1451c:	e51b3014 	ldr	r3, [fp, #-20]	; 0xffffffec
   14520:	e3730001 	cmn	r3, #1
   14524:	0a000011 	beq	14570 <do_proc_packets+0x2b4>
   14528:	e51b3014 	ldr	r3, [fp, #-20]	; 0xffffffec
   1452c:	e3530000 	cmp	r3, #0
   14530:	0a00000a 	beq	14560 <do_proc_packets+0x2a4>
   14534:	e3a00008 	mov	r0, #8
   14538:	ebffef8d 	bl	10374 <xmalloc>
   1453c:	e1a03000 	mov	r3, r0
   14540:	e50b3008 	str	r3, [fp, #-8]
   14544:	e51b3008 	ldr	r3, [fp, #-8]
   14548:	e3a02000 	mov	r2, #0
   1454c:	e5c32000 	strb	r2, [r3]
   14550:	e51b3008 	ldr	r3, [fp, #-8]
   14554:	e3a02000 	mov	r2, #0
   14558:	e5832004 	str	r2, [r3, #4]
   1455c:	ea000003 	b	14570 <do_proc_packets+0x2b4>
   14560:	e24b3030 	sub	r3, fp, #48	; 0x30
   14564:	e1a01003 	mov	r1, r3
   14568:	e51b0008 	ldr	r0, [fp, #-8]
   1456c:	ebffde82 	bl	bf7c <free_packet>
   14570:	e24b0030 	sub	r0, fp, #48	; 0x30
   14574:	e30037a7 	movw	r3, #1959	; 0x7a7
   14578:	e3052d6c 	movw	r2, #23916	; 0x5d6c
   1457c:	e3402001 	movt	r2, #1
   14580:	e51b1008 	ldr	r1, [fp, #-8]
   14584:	ebfff221 	bl	10e10 <dbg_parse_packet>
   14588:	e50b000c 	str	r0, [fp, #-12]
   1458c:	e51b300c 	ldr	r3, [fp, #-12]
   14590:	e3730001 	cmn	r3, #1
   14594:	1affff94 	bne	143ec <do_proc_packets+0x130>
   14598:	e51b3010 	ldr	r3, [fp, #-16]
   1459c:	e3530000 	cmp	r3, #0
   145a0:	0a000004 	beq	145b8 <do_proc_packets+0x2fc>
   145a4:	e3a03000 	mov	r3, #0
   145a8:	e50b300c 	str	r3, [fp, #-12]
   145ac:	ea000002 	b	145bc <do_proc_packets+0x300>
   145b0:	e320f000 	nop	{0}
   145b4:	ea000000 	b	145bc <do_proc_packets+0x300>
   145b8:	e320f000 	nop	{0}
   145bc:	e51b303c 	ldr	r3, [fp, #-60]	; 0xffffffc4
   145c0:	e593302c 	ldr	r3, [r3, #44]	; 0x2c
   145c4:	e1a00003 	mov	r0, r3
   145c8:	ebffefba 	bl	104b8 <xfree>
   145cc:	e24b3030 	sub	r3, fp, #48	; 0x30
   145d0:	e1a01003 	mov	r1, r3
   145d4:	e51b0008 	ldr	r0, [fp, #-8]
   145d8:	ebffde67 	bl	bf7c <free_packet>
   145dc:	e51b3024 	ldr	r3, [fp, #-36]	; 0xffffffdc
   145e0:	e3530000 	cmp	r3, #0
   145e4:	0a000003 	beq	145f8 <do_proc_packets+0x33c>
   145e8:	e24b3030 	sub	r3, fp, #48	; 0x30
   145ec:	e1a01003 	mov	r1, r3
   145f0:	e3a00000 	mov	r0, #0
   145f4:	ebffde60 	bl	bf7c <free_packet>
   145f8:	e51b0008 	ldr	r0, [fp, #-8]
   145fc:	ebffefad 	bl	104b8 <xfree>
   14600:	e51b300c 	ldr	r3, [fp, #-12]
   14604:	e1a00003 	mov	r0, r3
   14608:	e24bd004 	sub	sp, fp, #4
   1460c:	e8bd8800 	pop	{fp, pc}
