	.cpu cortex-a7
	.eabi_attribute 20, 1	@ Tag_ABI_FP_denormal
	.eabi_attribute 21, 1	@ Tag_ABI_FP_exceptions
	.eabi_attribute 23, 3	@ Tag_ABI_FP_number_model
	.eabi_attribute 24, 1	@ Tag_ABI_align8_needed
	.eabi_attribute 25, 1	@ Tag_ABI_align8_preserved
	.eabi_attribute 26, 1	@ Tag_ABI_enum_size
	.eabi_attribute 30, 2	@ Tag_ABI_optimization_goals
	.eabi_attribute 34, 1	@ Tag_CPU_unaligned_access
	.eabi_attribute 18, 4	@ Tag_ABI_PCS_wchar_t
	.file	"iobuf.c"
@ GNU C17 (15:10.3-2021.07-4) version 10.3.1 20210621 (release) (arm-none-eabi)
@	compiled by GNU C version 11.2.0, GMP version 6.2.1, MPFR version 4.1.0, MPC version 1.2.1, isl version isl-0.24-GMP

@ GGC heuristics: --param ggc-min-expand=100 --param ggc-min-heapsize=131072
@ options passed:  -I src -I src/common -imultilib thumb/v7-a/nofp
@ -D__USES_INITFINI__ src/common/iobuf.c -mcpu=cortex-a7 -mfloat-abi=soft
@ -marm -mlibarch=armv7ve -march=armv7ve
@ -auxbase-strip build/asm_output/common/iobuf.s -g -O2 -Wall -Wextra -fpic
@ -ffreestanding -ffunction-sections -fdata-sections -fno-common
@ -fverbose-asm
@ options enabled:  -faggressive-loop-optimizations -falign-functions
@ -falign-jumps -falign-labels -falign-loops -fallocation-dce
@ -fauto-inc-dec -fbranch-count-reg -fcaller-saves
@ -fcombine-stack-adjustments -fcompare-elim -fcprop-registers
@ -fcrossjumping -fcse-follow-jumps -fdata-sections -fdefer-pop
@ -fdelete-null-pointer-checks -fdevirtualize -fdevirtualize-speculatively
@ -fdwarf2-cfi-asm -fearly-inlining -feliminate-unused-debug-symbols
@ -feliminate-unused-debug-types -fexpensive-optimizations
@ -fforward-propagate -ffp-int-builtin-inexact -ffunction-cse
@ -ffunction-sections -fgcse -fgcse-lm -fgnu-unique
@ -fguess-branch-probability -fhoist-adjacent-loads -fident -fif-conversion
@ -fif-conversion2 -findirect-inlining -finline -finline-atomics
@ -finline-functions -finline-functions-called-once
@ -finline-small-functions -fipa-bit-cp -fipa-cp -fipa-icf
@ -fipa-icf-functions -fipa-icf-variables -fipa-profile -fipa-pure-const
@ -fipa-ra -fipa-reference -fipa-reference-addressable -fipa-sra
@ -fipa-stack-alignment -fipa-vrp -fira-hoist-pressure
@ -fira-share-save-slots -fira-share-spill-slots
@ -fisolate-erroneous-paths-dereference -fivopts -fkeep-static-consts
@ -fleading-underscore -flifetime-dse -flra-remat -fmath-errno
@ -fmerge-constants -fmerge-debug-strings -fmove-loop-invariants
@ -fomit-frame-pointer -foptimize-sibling-calls -foptimize-strlen
@ -fpartial-inlining -fpeephole -fpeephole2 -fpic -fplt
@ -fprefetch-loop-arrays -freg-struct-return -freorder-blocks
@ -freorder-functions -frerun-cse-after-loop
@ -fsched-critical-path-heuristic -fsched-dep-count-heuristic
@ -fsched-group-heuristic -fsched-interblock -fsched-last-insn-heuristic
@ -fsched-pressure -fsched-rank-heuristic -fsched-spec
@ -fsched-spec-insn-heuristic -fsched-stalled-insns-dep -fschedule-insns
@ -fschedule-insns2 -fsection-anchors -fsemantic-interposition
@ -fshow-column -fshrink-wrap -fshrink-wrap-separate -fsigned-zeros
@ -fsplit-ivs-in-unroller -fsplit-wide-types -fssa-backprop -fssa-phiopt
@ -fstdarg-opt -fstore-merging -fstrict-aliasing
@ -fstrict-volatile-bitfields -fsync-libcalls -fthread-jumps
@ -ftoplevel-reorder -ftrapping-math -ftree-bit-ccp -ftree-builtin-call-dce
@ -ftree-ccp -ftree-ch -ftree-coalesce-vars -ftree-copy-prop -ftree-cselim
@ -ftree-dce -ftree-dominator-opts -ftree-dse -ftree-forwprop -ftree-fre
@ -ftree-loop-if-convert -ftree-loop-im -ftree-loop-ivcanon
@ -ftree-loop-optimize -ftree-parallelize-loops= -ftree-phiprop -ftree-pre
@ -ftree-pta -ftree-reassoc -ftree-scev-cprop -ftree-sink -ftree-slsr
@ -ftree-sra -ftree-switch-conversion -ftree-tail-merge -ftree-ter
@ -ftree-vrp -funit-at-a-time -fvar-tracking -fvar-tracking-assignments
@ -fverbose-asm -fzero-initialized-in-bss -marm -mbe32 -mlittle-endian
@ -mpic-data-is-text-relative -msched-prolog -munaligned-access
@ -mvectorize-with-neon-quad -mword-relocations

	.text
.Ltext0:
	.cfi_sections	.debug_frame
	.section	.text.fd_cache_strcmp,"ax",%progbits
	.align	2
	.arch armv7ve
	.syntax unified
	.arm
	.fpu softvfp
	.type	fd_cache_strcmp, %function
fd_cache_strcmp:
.LVL0:
.LFB36:
	.file 1 "src/common/iobuf.c"
	.loc 1 172 1 view -0
	.cfi_startproc
	@ args = 0, pretend = 0, frame = 0
	@ frame_needed = 0, uses_anonymous_args = 0
	@ link register save eliminated.
	.loc 1 174 3 view .LVU1
	.loc 1 174 10 view .LVU2
	ldrb	r3, [r0]	@ zero_extendqisi2	@ _3, *a_10(D)
@ src/common/iobuf.c:174:   for (; *a && *b; a++, b++)
	.loc 1 174 3 is_stmt 0 view .LVU3
	cmp	r3, #0	@ _3,
@ src/common/iobuf.c:180:   return *(const unsigned char *)a - *(const unsigned char *)b;
	.loc 1 180 38 view .LVU4
	ldrbeq	r2, [r1]	@ zero_extendqisi2	@ _4, MEM[(const unsigned char *)b_11(D)]
@ src/common/iobuf.c:174:   for (; *a && *b; a++, b++)
	.loc 1 174 3 view .LVU5
	bne	.L6		@,
	b	.L3		@
.LVL1:
.L7:
@ src/common/iobuf.c:176:       if (*a != *b && !((*a == '/' && *b == '\\')
	.loc 1 176 10 view .LVU6
	cmp	r2, r3	@ _4, _3
	beq	.L4		@,
@ src/common/iobuf.c:176:       if (*a != *b && !((*a == '/' && *b == '\\')
	.loc 1 176 36 discriminator 3 view .LVU7
	cmp	r3, #47	@ _3,
	cmpeq	r2, #92	@, _4,
	beq	.L4		@,
@ src/common/iobuf.c:176:       if (*a != *b && !((*a == '/' && *b == '\\')
	.loc 1 176 23 discriminator 4 view .LVU8
	cmp	r3, #92	@ _3,
	bne	.L3		@,
@ src/common/iobuf.c:177:                         || (*a == '\\' && *b == '/')) )
	.loc 1 177 40 view .LVU9
	cmp	r2, #47	@ _4,
	bne	.L3		@,
.L4:
@ src/common/iobuf.c:174:   for (; *a && *b; a++, b++)
	.loc 1 174 10 view .LVU10
	ldrb	r3, [r0, #1]!	@ zero_extendqisi2	@ _3, MEM[base: a_13, offset: 0B]
.LVL2:
@ src/common/iobuf.c:174:   for (; *a && *b; a++, b++)
	.loc 1 174 3 view .LVU11
	cmp	r3, #0	@ _3,
	beq	.L14		@,
.LVL3:
.L6:
	.loc 1 176 7 is_stmt 1 discriminator 2 view .LVU12
	.loc 1 174 20 discriminator 2 view .LVU13
	mov	ip, r1	@ b, ivtmp.147
.LVL4:
@ src/common/iobuf.c:174:   for (; *a && *b; a++, b++)
	.loc 1 174 16 is_stmt 0 discriminator 2 view .LVU14
	ldrb	r2, [r1], #1	@ zero_extendqisi2	@ _4, MEM[base: b_17, offset: 0B]
.LVL5:
	.loc 1 174 10 is_stmt 1 discriminator 2 view .LVU15
@ src/common/iobuf.c:174:   for (; *a && *b; a++, b++)
	.loc 1 174 13 is_stmt 0 discriminator 2 view .LVU16
	cmp	r2, #0	@ _4,
	bne	.L7		@,
.LVL6:
.L3:
	.loc 1 180 3 is_stmt 1 view .LVU17
@ src/common/iobuf.c:184: }
	.loc 1 184 1 is_stmt 0 view .LVU18
	sub	r0, r3, r2	@, _3, _4
	bx	lr	@
.LVL7:
.L14:
@ src/common/iobuf.c:180:   return *(const unsigned char *)a - *(const unsigned char *)b;
	.loc 1 180 38 view .LVU19
	ldrb	r2, [ip, #1]	@ zero_extendqisi2	@ _4, MEM[(const unsigned char *)b_17 + 1B]
	.loc 1 180 3 is_stmt 1 view .LVU20
@ src/common/iobuf.c:184: }
	.loc 1 184 1 is_stmt 0 view .LVU21
	sub	r0, r3, r2	@, _3, _4
.LVL8:
	.loc 1 184 1 view .LVU22
	bx	lr	@
	.cfi_endproc
.LFE36:
	.size	fd_cache_strcmp, .-fd_cache_strcmp
	.section	.rodata.fd_cache_invalidate.str1.4,"aMS",%progbits,1
	.align	2
.LC0:
	.ascii	"fd_cache_invalidate (%s)\012\000"
	.section	.text.fd_cache_invalidate,"ax",%progbits
	.align	2
	.syntax unified
	.arm
	.fpu softvfp
	.type	fd_cache_invalidate, %function
fd_cache_invalidate:
.LVL9:
.LFB37:
	.loc 1 192 1 is_stmt 1 view -0
	.cfi_startproc
	@ args = 0, pretend = 0, frame = 0
	@ frame_needed = 0, uses_anonymous_args = 0
	.loc 1 193 3 view .LVU24
	.loc 1 194 3 view .LVU25
	.loc 1 196 3 view .LVU26
@ src/common/iobuf.c:192: {
	.loc 1 192 1 is_stmt 0 view .LVU27
	push	{r4, r5, r6, lr}	@
	.cfi_def_cfa_offset 16
	.cfi_offset 4, -16
	.cfi_offset 5, -12
	.cfi_offset 6, -8
	.cfi_offset 14, -4
@ src/common/iobuf.c:192: {
	.loc 1 192 1 view .LVU28
	mov	r5, r0	@ fname, tmp122
	ldr	r4, .L22	@ tmp117,
@ src/common/iobuf.c:196:   printf (fname);
	.loc 1 196 3 view .LVU29
	bl	tfp_printf(PLT)	@
.LVL10:
	.loc 1 197 3 is_stmt 1 view .LVU30
@ src/common/iobuf.c:197:   if (DBG_IOBUF)
	.loc 1 197 7 is_stmt 0 view .LVU31
	ldr	r2, .L22+4	@ tmp123,
@ src/common/iobuf.c:192: {
	.loc 1 192 1 view .LVU32
.LPIC0:
	add	r4, pc, r4	@ tmp117, tmp117
	mov	r3, r4	@ tmp117, tmp117
@ src/common/iobuf.c:197:   if (DBG_IOBUF)
	.loc 1 197 7 view .LVU33
	ldr	r3, [r4, r2]	@ tmp116,
@ src/common/iobuf.c:197:   if (DBG_IOBUF)
	.loc 1 197 6 view .LVU34
	ldr	r3, [r3]	@ iobuf_debug_mode, iobuf_debug_mode
	cmp	r3, #0	@ iobuf_debug_mode,
	bne	.L21		@,
	.loc 1 200 3 is_stmt 1 view .LVU35
.LVL11:
	.loc 1 200 26 view .LVU36
	.loc 1 215 3 view .LVU37
@ src/common/iobuf.c:216: }
	.loc 1 216 1 is_stmt 0 view .LVU38
	mov	r0, #0	@,
	pop	{r4, r5, r6, pc}	@
.LVL12:
.L21:
	.loc 1 198 5 is_stmt 1 view .LVU39
	ldr	r0, .L22+8	@,
	mov	r1, r5	@, fname
.LPIC1:
	add	r0, pc, r0	@,
	bl	tfp_printf(PLT)	@
.LVL13:
	.loc 1 200 3 view .LVU40
	.loc 1 200 26 view .LVU41
	.loc 1 215 3 view .LVU42
@ src/common/iobuf.c:216: }
	.loc 1 216 1 is_stmt 0 view .LVU43
	mov	r0, #0	@,
	pop	{r4, r5, r6, pc}	@
.L23:
	.align	2
.L22:
	.word	_GLOBAL_OFFSET_TABLE_-(.LPIC0+8)
	.word	iobuf_debug_mode(GOT)
	.word	.LC0-(.LPIC1+8)
	.cfi_endproc
.LFE37:
	.size	fd_cache_invalidate, .-fd_cache_invalidate
	.section	.rodata.file_filter.str1.4,"aMS",%progbits,1
	.align	2
.LC1:
	.ascii	"%s: close fd/handle %d\012\000"
	.section	.text.file_filter,"ax",%progbits
	.align	2
	.global	file_filter
	.syntax unified
	.arm
	.fpu softvfp
	.type	file_filter, %function
file_filter:
.LVL14:
.LFB86:
	.loc 1 2645 1 is_stmt 1 view -0
	.cfi_startproc
	@ args = 4, pretend = 0, frame = 0
	@ frame_needed = 0, uses_anonymous_args = 0
	.loc 1 2645 1 is_stmt 0 view .LVU45
	push	{r4, r5, r6, r7, r8, lr}	@
	.cfi_def_cfa_offset 24
	.cfi_offset 4, -24
	.cfi_offset 5, -20
	.cfi_offset 6, -16
	.cfi_offset 7, -12
	.cfi_offset 8, -8
	.cfi_offset 14, -4
@ src/common/iobuf.c:2654:   if (control == IOBUFCTRL_UNDERFLOW)
	.loc 1 2654 6 view .LVU46
	cmp	r1, #3	@ control,
@ src/common/iobuf.c:2645: {
	.loc 1 2645 1 view .LVU47
	ldr	r6, [sp, #24]	@ ret_len, ret_len
	mov	r4, r0	@ opaque, tmp180
	ldr	ip, .L52	@ tmp174,
	mov	r5, r3	@ buf, tmp182
@ src/common/iobuf.c:2648:   size_t size = *ret_len;
	.loc 1 2648 10 view .LVU48
	ldr	r7, [r6]	@ size, *ret_len_35(D)
@ src/common/iobuf.c:2645: {
	.loc 1 2645 1 view .LVU49
.LPIC2:
	add	ip, pc, ip	@ tmp174, tmp174
	.loc 1 2646 3 is_stmt 1 view .LVU50
.LVL15:
	.loc 1 2647 3 view .LVU51
	.loc 1 2648 3 view .LVU52
	.loc 1 2649 3 view .LVU53
	.loc 1 2650 3 view .LVU54
	.loc 1 2652 3 view .LVU55
	.loc 1 2654 3 view .LVU56
@ src/common/iobuf.c:2654:   if (control == IOBUFCTRL_UNDERFLOW)
	.loc 1 2654 6 is_stmt 0 view .LVU57
	beq	.L46		@,
	.loc 1 2729 8 is_stmt 1 view .LVU58
@ src/common/iobuf.c:2729:   else if (control == IOBUFCTRL_FLUSH)
	.loc 1 2729 11 is_stmt 0 view .LVU59
	cmp	r1, #4	@ control,
	beq	.L47		@,
	.loc 1 2782 8 is_stmt 1 view .LVU60
@ src/common/iobuf.c:2782:   else if (control == IOBUFCTRL_INIT)
	.loc 1 2782 11 is_stmt 0 view .LVU61
	cmp	r1, #1	@ control,
	beq	.L48		@,
	.loc 1 2790 8 is_stmt 1 view .LVU62
@ src/common/iobuf.c:2790:   else if (control == IOBUFCTRL_PEEK)
	.loc 1 2790 11 is_stmt 0 view .LVU63
	cmp	r1, #7	@ control,
	beq	.L49		@,
	.loc 1 2851 8 is_stmt 1 view .LVU64
	.loc 1 2855 8 view .LVU65
@ src/common/iobuf.c:2855:   else if (control == IOBUFCTRL_FREE)
	.loc 1 2855 11 is_stmt 0 view .LVU66
	cmp	r1, #2	@ control,
	beq	.L50		@,
@ src/common/iobuf.c:2650:   int rc = 0;
	.loc 1 2650 7 view .LVU67
	mov	r0, #0	@ <retval>,
.LVL16:
	.loc 1 2867 3 is_stmt 1 view .LVU68
@ src/common/iobuf.c:2868: }
	.loc 1 2868 1 is_stmt 0 view .LVU69
	pop	{r4, r5, r6, r7, r8, pc}	@
.LVL17:
.L47:
	.loc 1 2731 7 is_stmt 1 view .LVU70
@ src/common/iobuf.c:2780:       *ret_len = nbytes;
	.loc 1 2780 16 is_stmt 0 view .LVU71
	mov	r3, #0	@ tmp160,
.LVL18:
	.loc 1 2780 16 view .LVU72
	str	r3, [r6]	@ tmp160, *ret_len_35(D)
.LVL19:
.LBB42:
@ src/common/iobuf.c:2772: 	  if (n == -1)
	.loc 1 2772 7 view .LVU73
	mov	r0, r3	@ <retval>, tmp160
.LVL20:
	.loc 1 2772 7 view .LVU74
.LBE42:
	.loc 1 2780 7 is_stmt 1 view .LVU75
	pop	{r4, r5, r6, r7, r8, pc}	@
.LVL21:
.L46:
	.loc 1 2656 7 view .LVU76
	mov	r0, r7	@, size
.LVL22:
	.loc 1 2656 7 is_stmt 0 view .LVU77
	bl	tfp_printf(PLT)	@
.LVL23:
	.loc 1 2657 7 is_stmt 1 view .LVU78
@ src/common/iobuf.c:2657:       if (a->npeeked > a->upeeked)
	.loc 1 2657 12 is_stmt 0 view .LVU79
	ldrb	r3, [r4, #52]	@ zero_extendqisi2	@ _2, MEM[(struct file_filter_ctx_t *)opaque_32(D)].npeeked
@ src/common/iobuf.c:2657:       if (a->npeeked > a->upeeked)
	.loc 1 2657 25 view .LVU80
	ldrb	r2, [r4, #53]	@ zero_extendqisi2	@ _3, MEM[(struct file_filter_ctx_t *)opaque_32(D)].upeeked
@ src/common/iobuf.c:2657:       if (a->npeeked > a->upeeked)
	.loc 1 2657 10 view .LVU81
	cmp	r3, r2	@ _2, _3
	bhi	.L51		@,
	.loc 1 2666 12 is_stmt 1 view .LVU82
@ src/common/iobuf.c:2666:       else if (a->eof_seen)
	.loc 1 2666 17 is_stmt 0 view .LVU83
	ldr	r0, [r4, #12]	@ <retval>, MEM[(struct file_filter_ctx_t *)opaque_32(D)].eof_seen
@ src/common/iobuf.c:2666:       else if (a->eof_seen)
	.loc 1 2666 15 view .LVU84
	cmp	r0, #0	@ <retval>,
	.loc 1 2668 4 is_stmt 1 view .LVU85
.LVL24:
	.loc 1 2669 4 view .LVU86
.LBB43:
@ src/common/iobuf.c:2719: 	      rc = -1;
	.loc 1 2719 11 is_stmt 0 view .LVU87
	mvn	r0, #0	@ <retval>,
.LBE43:
@ src/common/iobuf.c:2669: 	  *ret_len = 0;
	.loc 1 2669 13 view .LVU88
	movne	r3, #0	@ tmp155,
.LBB44:
	.loc 1 2716 9 is_stmt 1 view .LVU89
	.loc 1 2718 8 view .LVU90
@ src/common/iobuf.c:2718: 	      a->eof_seen = 1;
	.loc 1 2718 20 is_stmt 0 view .LVU91
	moveq	r2, #1	@ tmp156,
	streq	r2, [r4, #12]	@ tmp156, MEM[(struct file_filter_ctx_t *)opaque_32(D)].eof_seen
	.loc 1 2719 8 is_stmt 1 view .LVU92
.LVL25:
	.loc 1 2726 4 view .LVU93
@ src/common/iobuf.c:2726: 	  *ret_len = nbytes;
	.loc 1 2726 13 is_stmt 0 view .LVU94
	moveq	r3, #0	@ tmp157,
	str	r3, [r6]	@ tmp157, *ret_len_35(D)
	pop	{r4, r5, r6, r7, r8, pc}	@
.LVL26:
.L48:
	.loc 1 2726 13 view .LVU95
.LBE44:
	.loc 1 2784 7 is_stmt 1 view .LVU96
@ src/common/iobuf.c:2784:       a->eof_seen = 0;
	.loc 1 2784 19 is_stmt 0 view .LVU97
	mov	r3, #0	@ tmp161,
.LVL27:
	.loc 1 2784 19 view .LVU98
	str	r3, [r0, #12]	@ tmp161, MEM[(struct file_filter_ctx_t *)opaque_32(D)].eof_seen
	.loc 1 2785 7 is_stmt 1 view .LVU99
@ src/common/iobuf.c:2650:   int rc = 0;
	.loc 1 2650 7 is_stmt 0 view .LVU100
	mov	r0, r3	@ <retval>, tmp161
.LVL28:
@ src/common/iobuf.c:2785:       a->keep_open = 0;
	.loc 1 2785 20 view .LVU101
	str	r3, [r4, #4]	@ tmp161, MEM[(struct file_filter_ctx_t *)opaque_32(D)].keep_open
	.loc 1 2786 7 is_stmt 1 view .LVU102
@ src/common/iobuf.c:2786:       a->no_cache = 0;
	.loc 1 2786 19 is_stmt 0 view .LVU103
	str	r3, [r4, #8]	@ tmp161, MEM[(struct file_filter_ctx_t *)opaque_32(D)].no_cache
	.loc 1 2787 7 is_stmt 1 view .LVU104
	.loc 1 2788 7 view .LVU105
@ src/common/iobuf.c:2787:       a->npeeked = 0;
	.loc 1 2787 18 is_stmt 0 view .LVU106
	strh	r3, [r4, #52]	@ movhi	@ tmp161, MEM <unsigned short> [(unsigned char *)opaque_32(D) + 52B]
	pop	{r4, r5, r6, r7, r8, pc}	@
.LVL29:
.L51:
	.loc 1 2659 11 is_stmt 1 view .LVU107
@ src/common/iobuf.c:2659:           nbytes = a->npeeked - a->upeeked;
	.loc 1 2659 31 is_stmt 0 view .LVU108
	sub	r3, r3, r2	@ nbytes, _2, _3
.LVL30:
	.loc 1 2660 11 is_stmt 1 view .LVU109
@ src/common/iobuf.c:2662:           memcpy (buf, a->peeked + a->upeeked, nbytes);
	.loc 1 2662 24 is_stmt 0 view .LVU110
	add	r1, r4, #20	@ tmp148, opaque,
	cmp	r7, r3	@ size, nbytes
@ src/common/iobuf.c:2662:           memcpy (buf, a->peeked + a->upeeked, nbytes);
	.loc 1 2662 11 view .LVU111
	mov	r0, r5	@, buf
	add	r1, r1, r2	@, tmp148, _3
	movcs	r7, r3	@ nbytes, nbytes
.LVL31:
	.loc 1 2662 11 is_stmt 1 view .LVU112
	mov	r2, r7	@, nbytes
	bl	memcpy(PLT)	@
.LVL32:
	.loc 1 2663 11 view .LVU113
@ src/common/iobuf.c:2663:           a->upeeked += nbytes;
	.loc 1 2663 22 is_stmt 0 view .LVU114
	ldrb	r3, [r4, #53]	@ zero_extendqisi2	@ MEM[(struct file_filter_ctx_t *)opaque_32(D)].upeeked, MEM[(struct file_filter_ctx_t *)opaque_32(D)].upeeked
@ src/common/iobuf.c:2650:   int rc = 0;
	.loc 1 2650 7 view .LVU115
	mov	r0, #0	@ <retval>,
@ src/common/iobuf.c:2663:           a->upeeked += nbytes;
	.loc 1 2663 22 view .LVU116
	add	r3, r3, r7	@ tmp153, MEM[(struct file_filter_ctx_t *)opaque_32(D)].upeeked, nbytes
	strb	r3, [r4, #53]	@ tmp153, MEM[(struct file_filter_ctx_t *)opaque_32(D)].upeeked
	.loc 1 2664 11 is_stmt 1 view .LVU117
@ src/common/iobuf.c:2664:           *ret_len = nbytes;
	.loc 1 2664 20 is_stmt 0 view .LVU118
	str	r7, [r6]	@ nbytes, *ret_len_35(D)
	pop	{r4, r5, r6, r7, r8, pc}	@
.LVL33:
.L50:
@ src/common/iobuf.c:2647:   gnupg_fd_t f = a->fp;
	.loc 1 2647 14 view .LVU119
	ldr	r2, [r0]	@ f, MEM[(struct file_filter_ctx_t *)opaque_32(D)].fp
.LVL34:
	.loc 1 2857 7 is_stmt 1 view .LVU120
@ src/common/iobuf.c:2857:       if (f != FD_FOR_STDIN && f != FD_FOR_STDOUT)
	.loc 1 2857 10 is_stmt 0 view .LVU121
	cmp	r2, #1	@ f,
	bls	.L37		@,
	.loc 1 2859 4 is_stmt 1 view .LVU122
@ src/common/iobuf.c:2859: 	  if (DBG_IOBUF)
	.loc 1 2859 8 is_stmt 0 view .LVU123
	ldr	r3, .L52+4	@ tmp185,
.LVL35:
	.loc 1 2859 8 view .LVU124
	ldr	r3, [ip, r3]	@ tmp173,
@ src/common/iobuf.c:2859: 	  if (DBG_IOBUF)
	.loc 1 2859 7 view .LVU125
	ldr	r3, [r3]	@ iobuf_debug_mode, iobuf_debug_mode
	cmp	r3, #0	@ iobuf_debug_mode,
	beq	.L37		@,
	.loc 1 2860 6 is_stmt 1 view .LVU126
	ldr	r0, .L52+8	@,
.LVL36:
	.loc 1 2860 6 is_stmt 0 view .LVU127
	add	r1, r4, #54	@, opaque,
.LVL37:
	.loc 1 2860 6 view .LVU128
.LPIC3:
	add	r0, pc, r0	@,
	bl	tfp_printf(PLT)	@
.LVL38:
.L37:
	.loc 1 2864 7 is_stmt 1 view .LVU129
	mov	r0, r4	@, opaque
	bl	xfree(PLT)	@
.LVL39:
@ src/common/iobuf.c:2650:   int rc = 0;
	.loc 1 2650 7 is_stmt 0 view .LVU130
	mov	r0, #0	@ <retval>,
	pop	{r4, r5, r6, r7, r8, pc}	@
.LVL40:
.L49:
.L34:
.LBB45:
	.loc 1 2820 7 is_stmt 1 view .LVU131
	.loc 1 2828 7 view .LVU132
@ src/common/iobuf.c:2830:           a->npeeked += n;
	.loc 1 2830 22 is_stmt 0 view .LVU133
	ldrb	r2, [r0, #52]	@ zero_extendqisi2	@ _16, MEM[(struct file_filter_ctx_t *)opaque_32(D)].npeeked
.LVL41:
@ src/common/iobuf.c:2828:       if (n > 0)
	.loc 1 2828 10 view .LVU134
	mov	r3, #0	@ n,
.LVL42:
	.loc 1 2828 10 view .LVU135
	cmp	r3, r3	@ n,
	.loc 1 2834 12 is_stmt 1 view .LVU136
	.loc 1 2836 11 view .LVU137
.LVL43:
	.loc 1 2846 7 view .LVU138
@ src/common/iobuf.c:2847:       memcpy (buf, a->peeked, size);
	.loc 1 2847 7 is_stmt 0 view .LVU139
	add	r1, r0, #20	@, opaque,
.LVL44:
@ src/common/iobuf.c:2836:           a->eof_seen = 1;
	.loc 1 2836 23 view .LVU140
	moveq	r3, #1	@ tmp171,
	streq	r3, [r0, #12]	@ tmp171, MEM[(struct file_filter_ctx_t *)opaque_32(D)].eof_seen
@ src/common/iobuf.c:2847:       memcpy (buf, a->peeked, size);
	.loc 1 2847 7 view .LVU141
	mov	r0, r5	@, buf
.LVL45:
@ src/common/iobuf.c:2846:       size = a->npeeked < size? a->npeeked : size;
	.loc 1 2846 12 view .LVU142
	cmp	r2, r7	@ _16, size
	movcc	r7, r2	@ size, _16
.LVL46:
	.loc 1 2847 7 is_stmt 1 view .LVU143
	mov	r2, r7	@, size
	bl	memcpy(PLT)	@
.LVL47:
	.loc 1 2848 7 view .LVU144
@ src/common/iobuf.c:2848:       *ret_len = size;
	.loc 1 2848 16 is_stmt 0 view .LVU145
	str	r7, [r6]	@ size, *ret_len_35(D)
	.loc 1 2849 7 is_stmt 1 view .LVU146
.LVL48:
@ src/common/iobuf.c:2849:       rc = 0;  /* Return success - the user needs to check ret_len.  */
	.loc 1 2849 10 is_stmt 0 view .LVU147
	mov	r0, #0	@ <retval>,
.LBE45:
	pop	{r4, r5, r6, r7, r8, pc}	@
.L53:
	.align	2
.L52:
	.word	_GLOBAL_OFFSET_TABLE_-(.LPIC2+8)
	.word	iobuf_debug_mode(GOT)
	.word	.LC1-(.LPIC3+8)
	.cfi_endproc
.LFE86:
	.size	file_filter, .-file_filter
	.section	.rodata.filter_flush.str1.4,"aMS",%progbits,1
	.align	2
.LC2:
	.ascii	"increasing temp iobuf from %lu to %lu\012\000"
	.align	2
.LC3:
	.ascii	"flush on non-output iobuf\012\000"
	.align	2
.LC4:
	.ascii	"filter_flush: no filter\012\000"
	.align	2
.LC5:
	.ascii	"filter_flush did not write all!\012\000"
	.section	.text.filter_flush,"ax",%progbits
	.align	2
	.syntax unified
	.arm
	.fpu softvfp
	.type	filter_flush, %function
filter_flush:
.LVL49:
.LFB63:
	.loc 1 1823 1 is_stmt 1 view -0
	.cfi_startproc
	@ args = 0, pretend = 0, frame = 8
	@ frame_needed = 0, uses_anonymous_args = 0
	.loc 1 1824 3 view .LVU149
	.loc 1 1825 3 view .LVU150
	.loc 1 1827 3 view .LVU151
@ src/common/iobuf.c:1823: {
	.loc 1 1823 1 is_stmt 0 view .LVU152
	push	{r4, r5, lr}	@
	.cfi_def_cfa_offset 12
	.cfi_offset 4, -12
	.cfi_offset 5, -8
	.cfi_offset 14, -4
	mov	r4, r0	@ a, tmp149
@ src/common/iobuf.c:1827:   if (a->use == IOBUF_OUTPUT_TEMP)
	.loc 1 1827 8 view .LVU153
	ldrb	r3, [r0]	@ zero_extendqisi2	@ _1, a_21(D)->use
@ src/common/iobuf.c:1823: {
	.loc 1 1823 1 view .LVU154
	sub	sp, sp, #20	@,,
	.cfi_def_cfa_offset 32
@ src/common/iobuf.c:1823: {
	.loc 1 1823 1 view .LVU155
	ldr	r2, .L70	@ tmp129,
@ src/common/iobuf.c:1827:   if (a->use == IOBUF_OUTPUT_TEMP)
	.loc 1 1827 6 view .LVU156
	cmp	r3, #3	@ _1,
@ src/common/iobuf.c:1823: {
	.loc 1 1823 1 view .LVU157
.LPIC4:
	add	r2, pc, r2	@ tmp129, tmp129
@ src/common/iobuf.c:1827:   if (a->use == IOBUF_OUTPUT_TEMP)
	.loc 1 1827 6 view .LVU158
	beq	.L66		@,
	.loc 1 1839 8 is_stmt 1 view .LVU159
@ src/common/iobuf.c:1839:   else if (a->use != IOBUF_OUTPUT)
	.loc 1 1839 11 is_stmt 0 view .LVU160
	cmp	r3, #2	@ _1,
	bne	.L67		@,
	.loc 1 1841 8 is_stmt 1 view .LVU161
@ src/common/iobuf.c:1841:   else if (!a->filter)
	.loc 1 1841 14 is_stmt 0 view .LVU162
	ldr	r5, [r0, #44]	@ _6, a_21(D)->filter
@ src/common/iobuf.c:1841:   else if (!a->filter)
	.loc 1 1841 11 view .LVU163
	cmp	r5, #0	@ _6,
	beq	.L68		@,
.LVL50:
.L59:
	.loc 1 1843 3 is_stmt 1 view .LVU164
@ src/common/iobuf.c:1843:   len = a->d.len;
	.loc 1 1843 7 is_stmt 0 view .LVU165
	ldr	r1, [r4, #28]	@ a_21(D)->d.len, a_21(D)->d.len
@ src/common/iobuf.c:1844:   rc = a->filter (a->filter_ov, IOBUFCTRL_FLUSH, a->chain, a->d.buf, &len);
	.loc 1 1844 8 view .LVU166
	add	r2, sp, #12	@ tmp142,,
	ldr	r3, [r4, #32]	@, a_21(D)->d.buf
@ src/common/iobuf.c:1843:   len = a->d.len;
	.loc 1 1843 7 view .LVU167
	str	r1, [sp, #12]	@ a_21(D)->d.len, len
	.loc 1 1844 3 is_stmt 1 view .LVU168
@ src/common/iobuf.c:1844:   rc = a->filter (a->filter_ov, IOBUFCTRL_FLUSH, a->chain, a->d.buf, &len);
	.loc 1 1844 8 is_stmt 0 view .LVU169
	mov	r1, #4	@,
	str	r2, [sp]	@ tmp142,
	ldr	r2, [r4, #60]	@, a_21(D)->chain
	ldr	r0, [r4, #48]	@, a_21(D)->filter_ov
	blx	r5		@ _6
.LVL51:
	.loc 1 1845 3 is_stmt 1 view .LVU170
@ src/common/iobuf.c:1845:   if (!rc && len != a->d.len)
	.loc 1 1845 6 is_stmt 0 view .LVU171
	cmp	r0, #0	@ <retval>
@ src/common/iobuf.c:1851:     a->error = rc;
	.loc 1 1851 14 view .LVU172
	strne	r0, [r4, #40]	@ <retval>, a_21(D)->error
@ src/common/iobuf.c:1845:   if (!rc && len != a->d.len)
	.loc 1 1845 6 view .LVU173
	bne	.L61		@,
@ src/common/iobuf.c:1845:   if (!rc && len != a->d.len)
	.loc 1 1845 11 discriminator 1 view .LVU174
	ldr	r2, [r4, #28]	@ a_21(D)->d.len, a_21(D)->d.len
	ldr	r3, [sp, #12]	@ len, len
	cmp	r2, r3	@ a_21(D)->d.len, len
	beq	.L61		@,
	.loc 1 1847 7 is_stmt 1 view .LVU175
	ldr	r0, .L70+4	@,
.LVL52:
	.loc 1 1847 7 is_stmt 0 view .LVU176
.LPIC8:
	add	r0, pc, r0	@,
	bl	tfp_printf(PLT)	@
.LVL53:
	.loc 1 1848 7 is_stmt 1 view .LVU177
@ src/common/iobuf.c:1848:       rc = GPG_ERR_INTERNAL;
	.loc 1 1848 10 is_stmt 0 view .LVU178
	mov	r0, #63	@ <retval>,
.LVL54:
.L61:
	.loc 1 1852 3 is_stmt 1 view .LVU179
@ src/common/iobuf.c:1852:   a->d.len = 0;
	.loc 1 1852 12 is_stmt 0 view .LVU180
	mov	r3, #0	@ tmp147,
	str	r3, [r4, #28]	@ tmp147, a_21(D)->d.len
	.loc 1 1854 3 is_stmt 1 view .LVU181
@ src/common/iobuf.c:1855: }
	.loc 1 1855 1 is_stmt 0 view .LVU182
	add	sp, sp, #20	@,,
	.cfi_remember_state
	.cfi_def_cfa_offset 12
	@ sp needed	@
	pop	{r4, r5, pc}	@
.LVL55:
.L67:
	.cfi_restore_state
	.loc 1 1840 5 is_stmt 1 view .LVU183
	ldr	r0, .L70+8	@,
.LVL56:
	.loc 1 1840 5 is_stmt 0 view .LVU184
.LPIC6:
	add	r0, pc, r0	@,
	bl	tfp_printf(PLT)	@
.LVL57:
@ src/common/iobuf.c:1844:   rc = a->filter (a->filter_ov, IOBUFCTRL_FLUSH, a->chain, a->d.buf, &len);
	.loc 1 1844 9 view .LVU185
	ldr	r5, [r4, #44]	@ _6, a_21(D)->filter
	b	.L59		@
.LVL58:
.L66:
.LBB46:
	.loc 1 1829 7 is_stmt 1 view .LVU186
@ src/common/iobuf.c:1831:       if (DBG_IOBUF)
	.loc 1 1831 11 is_stmt 0 view .LVU187
	ldr	r3, .L70+12	@ tmp152,
@ src/common/iobuf.c:1829:       size_t newsize = a->d.size + IOBUF_BUFFER_SIZE;
	.loc 1 1829 28 view .LVU188
	ldr	r1, [r0, #20]	@ _2, a_21(D)->d.size
@ src/common/iobuf.c:1831:       if (DBG_IOBUF)
	.loc 1 1831 11 view .LVU189
	ldr	r3, [r2, r3]	@ tmp128,
@ src/common/iobuf.c:1829:       size_t newsize = a->d.size + IOBUF_BUFFER_SIZE;
	.loc 1 1829 14 view .LVU190
	add	r5, r1, #8192	@ newsize, _2,
.LVL59:
	.loc 1 1831 7 is_stmt 1 view .LVU191
@ src/common/iobuf.c:1831:       if (DBG_IOBUF)
	.loc 1 1831 10 is_stmt 0 view .LVU192
	ldr	r3, [r3]	@ iobuf_debug_mode, iobuf_debug_mode
	cmp	r3, #0	@ iobuf_debug_mode,
	bne	.L69		@,
.LVL60:
.L56:
	.loc 1 1835 7 is_stmt 1 view .LVU193
@ src/common/iobuf.c:1835:       a->d.buf = xrealloc (a->d.buf, newsize);
	.loc 1 1835 18 is_stmt 0 view .LVU194
	ldr	r0, [r4, #32]	@, a_21(D)->d.buf
	mov	r1, r5	@, newsize
	bl	xrealloc(PLT)	@
.LVL61:
@ src/common/iobuf.c:1835:       a->d.buf = xrealloc (a->d.buf, newsize);
	.loc 1 1835 16 view .LVU195
	str	r0, [r4, #32]	@ tmp150, a_21(D)->d.buf
	.loc 1 1836 7 is_stmt 1 view .LVU196
@ src/common/iobuf.c:1837:       return 0;
	.loc 1 1837 14 is_stmt 0 view .LVU197
	mov	r0, #0	@ <retval>,
@ src/common/iobuf.c:1836:       a->d.size = newsize;
	.loc 1 1836 17 view .LVU198
	str	r5, [r4, #20]	@ newsize, a_21(D)->d.size
	.loc 1 1837 7 is_stmt 1 view .LVU199
.LBE46:
@ src/common/iobuf.c:1855: }
	.loc 1 1855 1 is_stmt 0 view .LVU200
	add	sp, sp, #20	@,,
	.cfi_remember_state
	.cfi_def_cfa_offset 12
	@ sp needed	@
	pop	{r4, r5, pc}	@
.LVL62:
.L69:
	.cfi_restore_state
.LBB47:
	.loc 1 1832 2 is_stmt 1 view .LVU201
	ldr	r0, .L70+16	@,
.LVL63:
	.loc 1 1832 2 is_stmt 0 view .LVU202
	mov	r2, r5	@, newsize
.LPIC5:
	add	r0, pc, r0	@,
	bl	tfp_printf(PLT)	@
.LVL64:
	b	.L56		@
.LVL65:
.L68:
	.loc 1 1832 2 view .LVU203
.LBE47:
	.loc 1 1842 5 is_stmt 1 view .LVU204
	ldr	r0, .L70+20	@,
.LVL66:
	.loc 1 1842 5 is_stmt 0 view .LVU205
.LPIC7:
	add	r0, pc, r0	@,
	bl	tfp_printf(PLT)	@
.LVL67:
@ src/common/iobuf.c:1844:   rc = a->filter (a->filter_ov, IOBUFCTRL_FLUSH, a->chain, a->d.buf, &len);
	.loc 1 1844 9 view .LVU206
	ldr	r5, [r4, #44]	@ _6, a_21(D)->filter
	b	.L59		@
.L71:
	.align	2
.L70:
	.word	_GLOBAL_OFFSET_TABLE_-(.LPIC4+8)
	.word	.LC5-(.LPIC8+8)
	.word	.LC3-(.LPIC6+8)
	.word	iobuf_debug_mode(GOT)
	.word	.LC2-(.LPIC5+8)
	.word	.LC4-(.LPIC7+8)
	.cfi_endproc
.LFE63:
	.size	filter_flush, .-filter_flush
	.section	.rodata.print_chain.part.0.str1.4,"aMS",%progbits,1
	.align	2
.LC6:
	.ascii	"?\000"
	.align	2
.LC7:
	.ascii	"iobuf chain: %d.%d '%s' filter_eof=%d start=%d len="
	.ascii	"%d\012\000"
	.section	.text.print_chain.part.0,"ax",%progbits
	.align	2
	.syntax unified
	.arm
	.fpu softvfp
	.type	print_chain.part.0, %function
print_chain.part.0:
.LVL68:
.LFB88:
	.loc 1 952 1 is_stmt 1 view -0
	.cfi_startproc
	@ args = 0, pretend = 0, frame = 40
	@ frame_needed = 0, uses_anonymous_args = 0
	.loc 1 956 10 view .LVU208
@ src/common/iobuf.c:952: print_chain (iobuf_t a)
	.loc 1 952 1 is_stmt 0 view .LVU209
	push	{r4, r5, r6, r7, r8, r9, r10, fp, lr}	@
	.cfi_def_cfa_offset 36
	.cfi_offset 4, -36
	.cfi_offset 5, -32
	.cfi_offset 6, -28
	.cfi_offset 7, -24
	.cfi_offset 8, -20
	.cfi_offset 9, -16
	.cfi_offset 10, -12
	.cfi_offset 11, -8
	.cfi_offset 14, -4
@ src/common/iobuf.c:956:   for (; a; a = a->chain)
	.loc 1 956 3 view .LVU210
	subs	r4, r0, #0	@ a, tmp138
@ src/common/iobuf.c:952: print_chain (iobuf_t a)
	.loc 1 952 1 view .LVU211
	sub	sp, sp, #60	@,,
	.cfi_def_cfa_offset 96
@ src/common/iobuf.c:956:   for (; a; a = a->chain)
	.loc 1 956 3 view .LVU212
	beq	.L72		@,
.LBB53:
.LBB54:
.LBB55:
.LBB56:
.LBB57:
@ src/common/iobuf.c:944:     memcpy (buf, "?", 2);
	.loc 1 944 5 view .LVU213
	ldr	fp, .L82	@ tmp137,
	add	r6, sp, #24	@ tmp136,,
.LBE57:
.LBE56:
.LBE55:
.LBE54:
@ src/common/iobuf.c:960:       printf ("iobuf chain: %d.%d '%s' filter_eof=%d start=%d len=%d\n",
	.loc 1 960 7 view .LVU214
	ldr	r10, .L82+4	@ tmp132,
.LBB67:
.LBB62:
@ src/common/iobuf.c:941:   size_t len = MAX_IOBUF_DESC;
	.loc 1 941 10 view .LVU215
	mov	r9, #32	@ tmp123,
.LBB60:
.LBB58:
@ src/common/iobuf.c:944:     memcpy (buf, "?", 2);
	.loc 1 944 5 view .LVU216
.LPIC9:
	add	fp, pc, fp	@ tmp137, tmp137
.LBE58:
.LBE60:
.LBE62:
.LBE67:
@ src/common/iobuf.c:960:       printf ("iobuf chain: %d.%d '%s' filter_eof=%d start=%d len=%d\n",
	.loc 1 960 7 view .LVU217
.LPIC10:
	add	r10, pc, r10	@ tmp132, tmp132
	b	.L76		@
.LVL69:
.L74:
.LBB68:
.LBB63:
@ src/common/iobuf.c:946:     a->filter (a->filter_ov, IOBUFCTRL_DESC, NULL, buf, &len);
	.loc 1 946 5 view .LVU218
	ldr	r0, [r4, #48]	@ a_24->filter_ov, a_24->filter_ov
	str	ip, [sp]	@ tmp129,
	blx	r5		@ _17
.LVL70:
.L75:
	.loc 1 948 3 is_stmt 1 view .LVU219
	.loc 1 948 3 is_stmt 0 view .LVU220
.LBE63:
.LBE68:
@ src/common/iobuf.c:960:       printf ("iobuf chain: %d.%d '%s' filter_eof=%d start=%d len=%d\n",
	.loc 1 960 7 view .LVU221
	ldr	r2, [r4, #28]	@ a_24->d.len, a_24->d.len
	mov	r3, r6	@, tmp136
	mov	r1, r7	@, _2
	mov	r0, r10	@, tmp132
	str	r2, [sp, #8]	@ a_24->d.len,
	ldr	r2, [r4, #24]	@ a_24->d.start, a_24->d.start
	str	r2, [sp, #4]	@ a_24->d.start,
	ldr	r2, [r4, #36]	@ a_24->filter_eof, a_24->filter_eof
	str	r2, [sp]	@ a_24->filter_eof,
	mov	r2, r8	@, _3
	bl	tfp_printf(PLT)	@
.LVL71:
.LBE53:
	.loc 1 956 13 is_stmt 1 view .LVU222
@ src/common/iobuf.c:956:   for (; a; a = a->chain)
	.loc 1 956 15 is_stmt 0 view .LVU223
	ldr	r4, [r4, #60]	@ a, a_24->chain
.LVL72:
	.loc 1 956 10 is_stmt 1 view .LVU224
@ src/common/iobuf.c:956:   for (; a; a = a->chain)
	.loc 1 956 3 is_stmt 0 view .LVU225
	cmp	r4, #0	@ a,
	beq	.L72		@,
.L76:
.LBB72:
	.loc 1 958 7 is_stmt 1 view .LVU226
	.loc 1 960 7 view .LVU227
.LBB69:
.LBB64:
	.loc 1 946 5 view .LVU228
@ src/common/iobuf.c:943:   if (! a || ! a->filter)
	.loc 1 943 17 is_stmt 0 view .LVU229
	ldr	r5, [r4, #44]	@ _17, a_24->filter
@ src/common/iobuf.c:946:     a->filter (a->filter_ov, IOBUFCTRL_DESC, NULL, buf, &len);
	.loc 1 946 5 view .LVU230
	add	ip, sp, #20	@ tmp129,,
.LBE64:
.LBE69:
@ src/common/iobuf.c:960:       printf ("iobuf chain: %d.%d '%s' filter_eof=%d start=%d len=%d\n",
	.loc 1 960 7 view .LVU231
	ldr	r7, [r4, #64]	@ _2, a_24->no
.LBB70:
.LBB65:
@ src/common/iobuf.c:946:     a->filter (a->filter_ov, IOBUFCTRL_DESC, NULL, buf, &len);
	.loc 1 946 5 view .LVU232
	mov	r3, r6	@, tmp136
.LBE65:
.LBE70:
@ src/common/iobuf.c:960:       printf ("iobuf chain: %d.%d '%s' filter_eof=%d start=%d len=%d\n",
	.loc 1 960 7 view .LVU233
	ldr	r8, [r4, #68]	@ _3, a_24->subno
.LVL73:
.LBB71:
.LBI54:
	.loc 1 939 1 is_stmt 1 view .LVU234
.LBB66:
	.loc 1 941 3 view .LVU235
@ src/common/iobuf.c:943:   if (! a || ! a->filter)
	.loc 1 943 11 is_stmt 0 view .LVU236
	cmp	r5, #0	@ _17,
@ src/common/iobuf.c:941:   size_t len = MAX_IOBUF_DESC;
	.loc 1 941 10 view .LVU237
	str	r9, [sp, #20]	@ tmp123, len
	.loc 1 943 3 is_stmt 1 view .LVU238
@ src/common/iobuf.c:946:     a->filter (a->filter_ov, IOBUFCTRL_DESC, NULL, buf, &len);
	.loc 1 946 5 is_stmt 0 view .LVU239
	mov	r2, #0	@,
	mov	r1, #5	@,
@ src/common/iobuf.c:943:   if (! a || ! a->filter)
	.loc 1 943 11 view .LVU240
	bne	.L74		@,
.LVL74:
.LBB61:
.LBI56:
	.loc 1 939 1 is_stmt 1 view .LVU241
.LBB59:
	.loc 1 944 5 view .LVU242
	mov	r2, #2	@,
	mov	r1, fp	@, tmp137
	mov	r0, r6	@, tmp136
	bl	memcpy(PLT)	@
.LVL75:
	b	.L75		@
.LVL76:
.L72:
	.loc 1 944 5 is_stmt 0 view .LVU243
.LBE59:
.LBE61:
.LBE66:
.LBE71:
.LBE72:
@ src/common/iobuf.c:964: }
	.loc 1 964 1 view .LVU244
	add	sp, sp, #60	@,,
	.cfi_def_cfa_offset 36
	@ sp needed	@
	pop	{r4, r5, r6, r7, r8, r9, r10, fp, pc}	@
.LVL77:
.L83:
	.loc 1 964 1 view .LVU245
	.align	2
.L82:
	.word	.LC6-(.LPIC9+8)
	.word	.LC7-(.LPIC10+8)
	.cfi_endproc
.LFE88:
	.size	print_chain.part.0, .-print_chain.part.0
	.section	.rodata.fd_cache_open.str1.4,"aMS",%progbits,1
	.align	2
.LC8:
	.ascii	"fd_cache_open (%s) not cached\012\000"
	.section	.text.fd_cache_open,"ax",%progbits
	.align	2
	.global	fd_cache_open
	.syntax unified
	.arm
	.fpu softvfp
	.type	fd_cache_open, %function
fd_cache_open:
.LVL78:
.LFB40:
	.loc 1 397 1 is_stmt 1 view -0
	.cfi_startproc
	@ args = 0, pretend = 0, frame = 0
	@ frame_needed = 0, uses_anonymous_args = 0
	.loc 1 398 3 view .LVU247
	.loc 1 401 3 view .LVU248
	.loc 1 401 26 view .LVU249
	.loc 1 427 3 view .LVU250
@ src/common/iobuf.c:397: {
	.loc 1 397 1 is_stmt 0 view .LVU251
	push	{r4, r5, r6, lr}	@
	.cfi_def_cfa_offset 16
	.cfi_offset 4, -16
	.cfi_offset 5, -12
	.cfi_offset 6, -8
	.cfi_offset 14, -4
@ src/common/iobuf.c:397: {
	.loc 1 397 1 view .LVU252
	mov	r4, r0	@ tmp125, fname
@ src/common/iobuf.c:427:   printf ("fd_cache_open (%s) not cached\n", fname);
	.loc 1 427 3 view .LVU253
	ldr	r0, .L96	@,
.LVL79:
@ src/common/iobuf.c:397: {
	.loc 1 397 1 view .LVU254
	mov	r5, r1	@ mode, tmp126
@ src/common/iobuf.c:427:   printf ("fd_cache_open (%s) not cached\n", fname);
	.loc 1 427 3 view .LVU255
	mov	r1, r4	@, fname
.LVL80:
	.loc 1 427 3 view .LVU256
.LPIC11:
	add	r0, pc, r0	@,
	bl	tfp_printf(PLT)	@
.LVL81:
	.loc 1 428 3 is_stmt 1 view .LVU257
.LBB76:
.LBI76:
	.loc 1 252 1 view .LVU258
.LBB77:
	.loc 1 307 3 view .LVU259
	.loc 1 308 3 view .LVU260
	.loc 1 310 3 view .LVU261
	.loc 1 311 5 view .LVU262
	.loc 1 314 3 view .LVU263
@ src/common/iobuf.c:314:   if (strchr (mode, '+'))
	.loc 1 314 7 is_stmt 0 view .LVU264
	mov	r1, #43	@,
	mov	r0, r5	@, mode
	bl	strchr(PLT)	@
.LVL82:
@ src/common/iobuf.c:314:   if (strchr (mode, '+'))
	.loc 1 314 6 view .LVU265
	cmp	r0, #0	@ tmp127,
	beq	.L85		@,
	.loc 1 316 7 is_stmt 1 view .LVU266
@ src/common/iobuf.c:316:       if (fd_cache_invalidate (fname))
	.loc 1 316 11 is_stmt 0 view .LVU267
	mov	r0, r4	@, fname
	bl	fd_cache_invalidate(PLT)	@
.LVL83:
@ src/common/iobuf.c:316:       if (fd_cache_invalidate (fname))
	.loc 1 316 10 view .LVU268
	cmp	r0, #0	@ tmp128,
@ src/common/iobuf.c:318:       oflag = O_RDWR;
	.loc 1 318 13 view .LVU269
	moveq	r6, #2	@ oflag,
@ src/common/iobuf.c:316:       if (fd_cache_invalidate (fname))
	.loc 1 316 10 view .LVU270
	bne	.L87		@,
.L86:
.LVL84:
	.loc 1 331 3 is_stmt 1 view .LVU271
@ src/common/iobuf.c:331:   if (strchr (mode, 'b'))
	.loc 1 331 7 is_stmt 0 view .LVU272
	mov	r1, #98	@,
	mov	r0, r5	@, mode
	bl	strchr(PLT)	@
.LVL85:
@ src/common/iobuf.c:331:   if (strchr (mode, 'b'))
	.loc 1 331 6 view .LVU273
	cmp	r0, #0	@ tmp131,
	.loc 1 332 5 is_stmt 1 view .LVU274
@ src/common/iobuf.c:344:   return open (fname, oflag, cflag);
	.loc 1 344 10 is_stmt 0 view .LVU275
	movw	r2, #438	@,
@ src/common/iobuf.c:332:     oflag |= O_BINARY;
	.loc 1 332 11 view .LVU276
	orrne	r6, r6, #65536	@ oflag, oflag,
.LVL86:
	.loc 1 344 3 is_stmt 1 view .LVU277
@ src/common/iobuf.c:344:   return open (fname, oflag, cflag);
	.loc 1 344 10 is_stmt 0 view .LVU278
	mov	r0, r4	@, fname
	mov	r1, r6	@, oflag
.LBE77:
.LBE76:
@ src/common/iobuf.c:429: }
	.loc 1 429 1 view .LVU279
	pop	{r4, r5, r6, lr}	@
	.cfi_remember_state
	.cfi_restore 14
	.cfi_restore 6
	.cfi_restore 5
	.cfi_restore 4
	.cfi_def_cfa_offset 0
.LVL87:
.LBB80:
.LBB78:
@ src/common/iobuf.c:344:   return open (fname, oflag, cflag);
	.loc 1 344 10 view .LVU280
	b	open(PLT)	@
.LVL88:
.L87:
	.cfi_restore_state
	.loc 1 344 10 view .LVU281
.LBE78:
.LBE80:
@ src/common/iobuf.c:429: }
	.loc 1 429 1 view .LVU282
	mvn	r0, #0	@,
	pop	{r4, r5, r6, pc}	@
.LVL89:
.L85:
.LBB81:
.LBB79:
	.loc 1 320 8 is_stmt 1 view .LVU283
@ src/common/iobuf.c:320:   else if (strchr (mode, 'w'))
	.loc 1 320 12 is_stmt 0 view .LVU284
	mov	r1, #119	@,
	mov	r0, r5	@, mode
	bl	strchr(PLT)	@
.LVL90:
@ src/common/iobuf.c:320:   else if (strchr (mode, 'w'))
	.loc 1 320 11 view .LVU285
	subs	r6, r0, #0	@ _34, tmp129
	beq	.L86		@,
	.loc 1 322 7 is_stmt 1 view .LVU286
@ src/common/iobuf.c:322:       if (fd_cache_invalidate (fname))
	.loc 1 322 11 is_stmt 0 view .LVU287
	mov	r0, r4	@, fname
	bl	fd_cache_invalidate(PLT)	@
.LVL91:
@ src/common/iobuf.c:322:       if (fd_cache_invalidate (fname))
	.loc 1 322 10 view .LVU288
	cmp	r0, #0	@ tmp130,
	bne	.L87		@,
@ src/common/iobuf.c:324:       oflag = O_WRONLY | O_CREAT | O_TRUNC;
	.loc 1 324 13 view .LVU289
	movw	r6, #1537	@ oflag,
	b	.L86		@
.L97:
	.align	2
.L96:
	.word	.LC8-(.LPIC11+8)
.LBE79:
.LBE81:
	.cfi_endproc
.LFE40:
	.size	fd_cache_open, .-fd_cache_open
	.section	.text.iobuf_print_chain,"ax",%progbits
	.align	2
	.global	iobuf_print_chain
	.syntax unified
	.arm
	.fpu softvfp
	.type	iobuf_print_chain, %function
iobuf_print_chain:
.LVL92:
.LFB44:
	.loc 1 968 1 is_stmt 1 view -0
	.cfi_startproc
	@ args = 0, pretend = 0, frame = 0
	@ frame_needed = 0, uses_anonymous_args = 0
	.loc 1 969 3 view .LVU291
.LBB82:
.LBI82:
	.loc 1 952 1 view .LVU292
.LBB83:
	.loc 1 954 3 view .LVU293
.LBE83:
.LBE82:
@ src/common/iobuf.c:968: {
	.loc 1 968 1 is_stmt 0 view .LVU294
	ldr	r3, .L107	@ tmp117,
.LBB87:
.LBB84:
@ src/common/iobuf.c:954:   if (!DBG_IOBUF)
	.loc 1 954 7 view .LVU295
	ldr	r2, .L107+4	@ tmp120,
.LBE84:
.LBE87:
@ src/common/iobuf.c:968: {
	.loc 1 968 1 view .LVU296
.LPIC12:
	add	r3, pc, r3	@ tmp117, tmp117
.LBB88:
.LBB85:
@ src/common/iobuf.c:954:   if (!DBG_IOBUF)
	.loc 1 954 7 view .LVU297
	ldr	r3, [r3, r2]	@ tmp116,
@ src/common/iobuf.c:954:   if (!DBG_IOBUF)
	.loc 1 954 6 view .LVU298
	ldr	r3, [r3]	@ iobuf_debug_mode, iobuf_debug_mode
	cmp	r3, #0	@ iobuf_debug_mode,
	beq	.L104		@,
.LBE85:
.LBE88:
@ src/common/iobuf.c:968: {
	.loc 1 968 1 view .LVU299
	push	{r4, lr}	@
	.cfi_def_cfa_offset 8
	.cfi_offset 4, -8
	.cfi_offset 14, -4
.LBB89:
.LBB86:
	bl	print_chain.part.0(PLT)	@
.LVL93:
	.loc 1 968 1 view .LVU300
.LBE86:
.LBE89:
	.loc 1 970 3 is_stmt 1 view .LVU301
@ src/common/iobuf.c:971: }
	.loc 1 971 1 is_stmt 0 view .LVU302
	mov	r0, #0	@,
	pop	{r4, pc}	@
.LVL94:
.L104:
	.cfi_def_cfa_offset 0
	.cfi_restore 4
	.cfi_restore 14
	.loc 1 970 3 is_stmt 1 view .LVU303
@ src/common/iobuf.c:971: }
	.loc 1 971 1 is_stmt 0 view .LVU304
	mov	r0, #0	@,
.LVL95:
	.loc 1 971 1 view .LVU305
	bx	lr	@
.L108:
	.align	2
.L107:
	.word	_GLOBAL_OFFSET_TABLE_-(.LPIC12+8)
	.word	iobuf_debug_mode(GOT)
	.cfi_endproc
.LFE44:
	.size	iobuf_print_chain, .-iobuf_print_chain
	.section	.rodata.iobuf_alloc.str1.4,"aMS",%progbits,1
	.align	2
.LC9:
	.ascii	"iobuf_alloc use:%d %d\012\000"
	.align	2
.LC10:
	.ascii	"iobuf_alloc() passed a bufsize of 0!\012\000"
	.section	.text.iobuf_alloc,"ax",%progbits
	.align	2
	.global	iobuf_alloc
	.syntax unified
	.arm
	.fpu softvfp
	.type	iobuf_alloc, %function
iobuf_alloc:
.LVL96:
.LFB45:
	.loc 1 975 1 is_stmt 1 view -0
	.cfi_startproc
	@ args = 0, pretend = 0, frame = 8
	@ frame_needed = 0, uses_anonymous_args = 0
	.loc 1 976 3 view .LVU307
	.loc 1 977 3 view .LVU308
	.loc 1 979 3 view .LVU309
@ src/common/iobuf.c:975: {
	.loc 1 975 1 is_stmt 0 view .LVU310
	mov	r3, r0	@ tmp138, use
	push	{r4, r5, lr}	@
	.cfi_def_cfa_offset 12
	.cfi_offset 4, -12
	.cfi_offset 5, -8
	.cfi_offset 14, -4
	sub	sp, sp, #12	@,,
	.cfi_def_cfa_offset 24
@ src/common/iobuf.c:979:   printf ("iobuf_alloc use:%d %d\n",use, use == IOBUF_INPUT || use == IOBUF_INPUT_TEMP || use == IOBUF_OUTPUT || use == IOBUF_OUTPUT_TEMP);
	.loc 1 979 3 view .LVU311
	ldr	r0, .L113	@,
.LVL97:
	.loc 1 979 3 view .LVU312
	cmp	r3, #3	@ use,
@ src/common/iobuf.c:975: {
	.loc 1 975 1 view .LVU313
	str	r1, [sp, #4]	@ tmp139, %sfp
@ src/common/iobuf.c:979:   printf ("iobuf_alloc use:%d %d\n",use, use == IOBUF_INPUT || use == IOBUF_INPUT_TEMP || use == IOBUF_OUTPUT || use == IOBUF_OUTPUT_TEMP);
	.loc 1 979 3 view .LVU314
	movhi	r2, #0	@,
.LPIC13:
	add	r0, pc, r0	@,
	mov	r1, r3	@, use
.LVL98:
	.loc 1 979 3 view .LVU315
	movls	r2, #1	@,
@ src/common/iobuf.c:975: {
	.loc 1 975 1 view .LVU316
	mov	r5, r3	@ use, use
@ src/common/iobuf.c:979:   printf ("iobuf_alloc use:%d %d\n",use, use == IOBUF_INPUT || use == IOBUF_INPUT_TEMP || use == IOBUF_OUTPUT || use == IOBUF_OUTPUT_TEMP);
	.loc 1 979 3 view .LVU317
	bl	tfp_printf(PLT)	@
.LVL99:
	.loc 1 980 3 is_stmt 1 view .LVU318
@ src/common/iobuf.c:980:   if (bufsize == 0)
	.loc 1 980 6 is_stmt 0 view .LVU319
	ldr	r3, [sp, #4]	@ bufsize, %sfp
	cmp	r3, #0	@ bufsize,
	beq	.L112		@,
.LVL100:
.L110:
	.loc 1 986 3 is_stmt 1 view .LVU320
@ src/common/iobuf.c:986:   a = xcalloc (1, sizeof *a);
	.loc 1 986 7 is_stmt 0 view .LVU321
	mov	r1, #72	@,
	mov	r0, #1	@,
	bl	xcalloc(PLT)	@
.LVL101:
	mov	r4, r0	@ <retval>, tmp140
.LVL102:
	.loc 1 987 3 is_stmt 1 view .LVU322
@ src/common/iobuf.c:993:   a->d.buf = xmalloc (bufsize);
	.loc 1 993 14 is_stmt 0 view .LVU323
	ldr	r0, [sp, #4]	@, %sfp
.LVL103:
@ src/common/iobuf.c:987:   a->use = use;
	.loc 1 987 10 view .LVU324
	strb	r5, [r4]	@ use, a_16->use
	.loc 1 993 3 is_stmt 1 view .LVU325
@ src/common/iobuf.c:993:   a->d.buf = xmalloc (bufsize);
	.loc 1 993 14 is_stmt 0 view .LVU326
	bl	xmalloc(PLT)	@
.LVL104:
@ src/common/iobuf.c:995:   a->no = ++number;
	.loc 1 995 11 view .LVU327
	ldr	r2, .L113+4	@ tmp131,
@ src/common/iobuf.c:996:   a->subno = 0;
	.loc 1 996 12 view .LVU328
	mov	r1, #0	@ tmp135,
@ src/common/iobuf.c:994:   a->d.size = bufsize;
	.loc 1 994 13 view .LVU329
	ldr	r3, [sp, #4]	@ bufsize, %sfp
@ src/common/iobuf.c:995:   a->no = ++number;
	.loc 1 995 11 view .LVU330
.LPIC15:
	add	r2, pc, r2	@ tmp131, tmp131
@ src/common/iobuf.c:994:   a->d.size = bufsize;
	.loc 1 994 13 view .LVU331
	str	r3, [r4, #20]	@ bufsize, a_16->d.size
@ src/common/iobuf.c:995:   a->no = ++number;
	.loc 1 995 11 view .LVU332
	ldr	r3, [r2]	@ number, number
@ src/common/iobuf.c:993:   a->d.buf = xmalloc (bufsize);
	.loc 1 993 12 view .LVU333
	str	r0, [r4, #32]	@ tmp141, a_16->d.buf
	.loc 1 994 3 is_stmt 1 view .LVU334
	.loc 1 995 3 view .LVU335
@ src/common/iobuf.c:999: }
	.loc 1 999 1 is_stmt 0 view .LVU336
	mov	r0, r4	@, <retval>
@ src/common/iobuf.c:996:   a->subno = 0;
	.loc 1 996 12 view .LVU337
	str	r1, [r4, #68]	@ tmp135, a_16->subno
@ src/common/iobuf.c:995:   a->no = ++number;
	.loc 1 995 11 view .LVU338
	add	r3, r3, #1	@ _7, number,
@ src/common/iobuf.c:997:   a->real_fname = NULL;
	.loc 1 997 17 view .LVU339
	str	r1, [r4, #56]	@ tmp135, a_16->real_fname
@ src/common/iobuf.c:995:   a->no = ++number;
	.loc 1 995 9 view .LVU340
	str	r3, [r2]	@ _7, number
	str	r3, [r4, #64]	@ _7, a_16->no
	.loc 1 996 3 is_stmt 1 view .LVU341
	.loc 1 997 3 view .LVU342
	.loc 1 998 3 view .LVU343
@ src/common/iobuf.c:999: }
	.loc 1 999 1 is_stmt 0 view .LVU344
	add	sp, sp, #12	@,,
	.cfi_remember_state
	.cfi_def_cfa_offset 12
	@ sp needed	@
	pop	{r4, r5, pc}	@
.LVL105:
.L112:
	.cfi_restore_state
	.loc 1 982 7 is_stmt 1 view .LVU345
	ldr	r0, .L113+8	@,
@ src/common/iobuf.c:983:       bufsize = IOBUF_BUFFER_SIZE;
	.loc 1 983 15 is_stmt 0 view .LVU346
	mov	r3, #8192	@ bufsize,
	str	r3, [sp, #4]	@ bufsize, %sfp
.LVL106:
@ src/common/iobuf.c:982:       printf ("iobuf_alloc() passed a bufsize of 0!\n");
	.loc 1 982 7 view .LVU347
.LPIC14:
	add	r0, pc, r0	@,
	bl	tfp_printf(PLT)	@
.LVL107:
	.loc 1 983 7 is_stmt 1 view .LVU348
	.loc 1 983 7 is_stmt 0 view .LVU349
	b	.L110		@
.L114:
	.align	2
.L113:
	.word	.LC9-(.LPIC13+8)
	.word	.LANCHOR0-(.LPIC15+8)
	.word	.LC10-(.LPIC14+8)
	.cfi_endproc
.LFE45:
	.size	iobuf_alloc, .-iobuf_alloc
	.section	.rodata.do_open.constprop.0.str1.4,"aMS",%progbits,1
	.align	2
.LC11:
	.ascii	"[stdin]\000"
	.align	2
.LC12:
	.ascii	"[stdout]\000"
	.align	2
.LC13:
	.ascii	"do_open %s %d %s\000"
	.align	2
.LC14:
	.ascii	"iobuf-%d.%d: open '%s' desc=%s fd=%d\012\000"
	.section	.text.do_open.constprop.0,"ax",%progbits
	.align	2
	.syntax unified
	.arm
	.fpu softvfp
	.type	do_open.constprop.0, %function
do_open.constprop.0:
.LVL108:
.LFB92:
	.loc 1 1121 1 is_stmt 1 view -0
	.cfi_startproc
	@ args = 0, pretend = 0, frame = 40
	@ frame_needed = 0, uses_anonymous_args = 0
	.loc 1 1125 3 view .LVU351
@ src/common/iobuf.c:1121: do_open (const char *fname, int special_filenames,
	.loc 1 1121 1 is_stmt 0 view .LVU352
	push	{r4, r5, r6, r7, r8, r9, r10, lr}	@
	.cfi_def_cfa_offset 32
	.cfi_offset 4, -32
	.cfi_offset 5, -28
	.cfi_offset 6, -24
	.cfi_offset 7, -20
	.cfi_offset 8, -16
	.cfi_offset 9, -12
	.cfi_offset 10, -8
	.cfi_offset 14, -4
	mov	r4, r0	@ tmp157, fname
@ src/common/iobuf.c:1125:   printf("do_open %s %d %s", fname, use, opentype);
	.loc 1 1125 3 view .LVU353
	ldr	r0, .L137	@,
.LVL109:
@ src/common/iobuf.c:1121: do_open (const char *fname, int special_filenames,
	.loc 1 1121 1 view .LVU354
	sub	sp, sp, #48	@,,
	.cfi_def_cfa_offset 80
@ src/common/iobuf.c:1121: do_open (const char *fname, int special_filenames,
	.loc 1 1121 1 view .LVU355
	ldr	r8, .L137+4	@ tmp140,
	mov	r6, r1	@ special_filenames, tmp158
@ src/common/iobuf.c:1125:   printf("do_open %s %d %s", fname, use, opentype);
	.loc 1 1125 3 view .LVU356
.LPIC19:
	add	r0, pc, r0	@,
	mov	r1, r4	@, fname
.LVL110:
@ src/common/iobuf.c:1121: do_open (const char *fname, int special_filenames,
	.loc 1 1121 1 view .LVU357
.LPIC20:
	add	r8, pc, r8	@ tmp140, tmp140
	mov	r5, r2	@ use, tmp159
@ src/common/iobuf.c:1125:   printf("do_open %s %d %s", fname, use, opentype);
	.loc 1 1125 3 view .LVU358
	bl	tfp_printf(PLT)	@
.LVL111:
	.loc 1 1126 3 is_stmt 1 view .LVU359
	.loc 1 1127 3 view .LVU360
	.loc 1 1128 3 view .LVU361
	.loc 1 1129 3 view .LVU362
@ src/common/iobuf.c:1129:   size_t len = 0;
	.loc 1 1129 10 is_stmt 0 view .LVU363
	mov	r3, #0	@ tmp134,
@ src/common/iobuf.c:1134:   printf (use == IOBUF_INPUT || use == IOBUF_OUTPUT);
	.loc 1 1134 3 view .LVU364
	mov	r0, #1	@,
@ src/common/iobuf.c:1129:   size_t len = 0;
	.loc 1 1129 10 view .LVU365
	str	r3, [sp, #8]	@ tmp134, len
	.loc 1 1130 3 is_stmt 1 view .LVU366
.LVL112:
	.loc 1 1131 3 view .LVU367
	.loc 1 1132 3 view .LVU368
	.loc 1 1134 3 view .LVU369
	bl	tfp_printf(PLT)	@
.LVL113:
	.loc 1 1136 3 view .LVU370
@ src/common/iobuf.c:1136:   if (special_filenames
	.loc 1 1136 6 is_stmt 0 view .LVU371
	cmp	r6, #0	@ special_filenames,
	beq	.L116		@,
@ src/common/iobuf.c:1138:       && (!fname || (*fname == '-' && !fname[1])))
	.loc 1 1138 7 view .LVU372
	cmp	r4, #0	@ fname,
	beq	.L117		@,
@ src/common/iobuf.c:1138:       && (!fname || (*fname == '-' && !fname[1])))
	.loc 1 1138 18 view .LVU373
	ldrb	r3, [r4]	@ zero_extendqisi2	@ *fname_1(D), *fname_1(D)
	cmp	r3, #45	@ *fname_1(D),
	beq	.L133		@,
.LVL114:
.L118:
	.loc 1 1164 7 is_stmt 1 view .LVU374
@ src/common/iobuf.c:1164:       if (fp == GNUPG_INVALID_FD)
	.loc 1 1164 10 is_stmt 0 view .LVU375
	mov	r9, #0	@ fp,
@ src/common/iobuf.c:1130:   int print_only = 0;
	.loc 1 1130 7 view .LVU376
	mov	r6, r9	@ special_filenames, fp
.LVL115:
.L119:
	.loc 1 1168 3 is_stmt 1 view .LVU377
@ src/common/iobuf.c:1168:   a = iobuf_alloc (use, IOBUF_BUFFER_SIZE);
	.loc 1 1168 7 is_stmt 0 view .LVU378
	mov	r1, #8192	@,
	mov	r0, r5	@, use
	bl	iobuf_alloc(PLT)	@
.LVL116:
	mov	r5, r0	@ <retval>, tmp160
.LVL117:
	.loc 1 1169 3 is_stmt 1 view .LVU379
@ src/common/iobuf.c:1169:   fcx = xmalloc (sizeof *fcx + strlen (fname));
	.loc 1 1169 32 is_stmt 0 view .LVU380
	mov	r0, r4	@, fname
.LVL118:
	.loc 1 1169 32 view .LVU381
	bl	strlen(PLT)	@
.LVL119:
@ src/common/iobuf.c:1169:   fcx = xmalloc (sizeof *fcx + strlen (fname));
	.loc 1 1169 9 view .LVU382
	add	r0, r0, #56	@, tmp161,
	bl	xmalloc(PLT)	@
.LVL120:
@ src/common/iobuf.c:1175:   a->filter = file_filter;
	.loc 1 1175 13 view .LVU383
	ldr	r3, .L137+8	@ tmp163,
@ src/common/iobuf.c:1177:   file_filter (fcx, IOBUFCTRL_INIT, NULL, NULL, &len);
	.loc 1 1177 3 view .LVU384
	add	r2, sp, #8	@ tmp141,,
@ src/common/iobuf.c:1170:   fcx->fp = fp;
	.loc 1 1170 11 view .LVU385
	str	r9, [r0]	@ fp, fcx_17->fp
@ src/common/iobuf.c:1177:   file_filter (fcx, IOBUFCTRL_INIT, NULL, NULL, &len);
	.loc 1 1177 3 view .LVU386
	mov	r1, #1	@,
@ src/common/iobuf.c:1171:   fcx->print_only_name = print_only;
	.loc 1 1171 24 view .LVU387
	str	r6, [r0, #16]	@ special_filenames, fcx_17->print_only_name
@ src/common/iobuf.c:1169:   fcx = xmalloc (sizeof *fcx + strlen (fname));
	.loc 1 1169 9 view .LVU388
	mov	r7, r0	@ fcx, tmp162
.LVL121:
	.loc 1 1170 3 is_stmt 1 view .LVU389
	.loc 1 1171 3 view .LVU390
	.loc 1 1175 3 view .LVU391
@ src/common/iobuf.c:1175:   a->filter = file_filter;
	.loc 1 1175 13 is_stmt 0 view .LVU392
	ldr	r3, [r8, r3]	@ tmp139,
@ src/common/iobuf.c:1176:   a->filter_ov = fcx;
	.loc 1 1176 16 view .LVU393
	str	r0, [r5, #48]	@ fcx, a_13->filter_ov
@ src/common/iobuf.c:1175:   a->filter = file_filter;
	.loc 1 1175 13 view .LVU394
	str	r3, [r5, #44]	@ tmp139, a_13->filter
	.loc 1 1176 3 is_stmt 1 view .LVU395
	.loc 1 1177 3 view .LVU396
	mov	r3, #0	@,
	str	r2, [sp]	@ tmp141,
	mov	r2, r3	@,
	bl	file_filter(PLT)	@
.LVL122:
	.loc 1 1178 3 view .LVU397
@ src/common/iobuf.c:1178:   if (DBG_IOBUF)
	.loc 1 1178 7 is_stmt 0 view .LVU398
	ldr	r3, .L137+12	@ tmp164,
	ldr	r3, [r8, r3]	@ tmp142,
@ src/common/iobuf.c:1178:   if (DBG_IOBUF)
	.loc 1 1178 6 view .LVU399
	ldr	r3, [r3]	@ iobuf_debug_mode, iobuf_debug_mode
	cmp	r3, #0	@ iobuf_debug_mode,
	bne	.L134		@,
.LVL123:
.L115:
@ src/common/iobuf.c:1183: }
	.loc 1 1183 1 view .LVU400
	mov	r0, r5	@, <retval>
	add	sp, sp, #48	@,,
	.cfi_remember_state
	.cfi_def_cfa_offset 32
	@ sp needed	@
	pop	{r4, r5, r6, r7, r8, r9, r10, pc}	@
.LVL124:
.L133:
	.cfi_restore_state
@ src/common/iobuf.c:1138:       && (!fname || (*fname == '-' && !fname[1])))
	.loc 1 1138 36 view .LVU401
	ldrb	r3, [r4, #1]	@ zero_extendqisi2	@ MEM[(const char *)fname_1(D) + 1B], MEM[(const char *)fname_1(D) + 1B]
	cmp	r3, #0	@ MEM[(const char *)fname_1(D) + 1B],
	bne	.L118		@,
.L117:
	.loc 1 1140 7 is_stmt 1 view .LVU402
@ src/common/iobuf.c:1140:       if (use == IOBUF_INPUT)
	.loc 1 1140 10 is_stmt 0 view .LVU403
	cmp	r5, #0	@ use,
	bne	.L135		@,
@ src/common/iobuf.c:1143: 	  fname = "[stdin]";
	.loc 1 1143 10 view .LVU404
	ldr	r4, .L137+16	@ fname,
.LVL125:
@ src/common/iobuf.c:1142: 	  fp = FD_FOR_STDIN;
	.loc 1 1142 7 view .LVU405
	mov	r9, r5	@ fp, use
@ src/common/iobuf.c:1143: 	  fname = "[stdin]";
	.loc 1 1143 10 view .LVU406
.LPIC17:
	add	r4, pc, r4	@ fname, fname
	b	.L119		@
.LVL126:
.L116:
	.loc 1 1152 8 is_stmt 1 view .LVU407
@ src/common/iobuf.c:1152:   else if (!fname)
	.loc 1 1152 11 is_stmt 0 view .LVU408
	cmp	r4, #0	@ fname,
@ src/common/iobuf.c:1153:     return NULL;
	.loc 1 1153 12 view .LVU409
	moveq	r5, r4	@ <retval>, fname
.LVL127:
@ src/common/iobuf.c:1152:   else if (!fname)
	.loc 1 1152 11 view .LVU410
	bne	.L118		@,
	b	.L115		@
.LVL128:
.L134:
	.loc 1 1179 5 is_stmt 1 view .LVU411
.LBB94:
.LBB95:
@ src/common/iobuf.c:943:   if (! a || ! a->filter)
	.loc 1 943 17 is_stmt 0 view .LVU412
	ldr	r8, [r5, #44]	@ _43, a_13->filter
@ src/common/iobuf.c:941:   size_t len = MAX_IOBUF_DESC;
	.loc 1 941 10 view .LVU413
	mov	r3, #32	@ tmp144,
.LBE95:
.LBE94:
@ src/common/iobuf.c:1179:     printf ("iobuf-%d.%d: open '%s' desc=%s fd=%d\n",
	.loc 1 1179 5 view .LVU414
	ldr	r9, [r5, #64]	@ _21, a_13->no
.LVL129:
	.loc 1 1179 5 view .LVU415
	ldr	r10, [r5, #68]	@ _22, a_13->subno
.LVL130:
.LBB100:
.LBI94:
	.loc 1 939 1 is_stmt 1 view .LVU416
.LBB98:
	.loc 1 941 3 view .LVU417
@ src/common/iobuf.c:943:   if (! a || ! a->filter)
	.loc 1 943 11 is_stmt 0 view .LVU418
	cmp	r8, #0	@ _43,
@ src/common/iobuf.c:941:   size_t len = MAX_IOBUF_DESC;
	.loc 1 941 10 view .LVU419
	str	r3, [sp, #12]	@ tmp144, len
	.loc 1 943 3 is_stmt 1 view .LVU420
@ src/common/iobuf.c:943:   if (! a || ! a->filter)
	.loc 1 943 11 is_stmt 0 view .LVU421
	beq	.L136		@,
	.loc 1 946 5 is_stmt 1 view .LVU422
	ldr	r0, [r5, #48]	@ a_13->filter_ov, a_13->filter_ov
	add	r3, sp, #12	@ tmp150,,
	str	r3, [sp]	@ tmp150,
	add	r6, sp, #16	@ tmp156,,
	mov	r3, r6	@, tmp156
	mov	r2, #0	@,
	mov	r1, #5	@,
	blx	r8		@ _43
.LVL131:
.L122:
	.loc 1 948 3 view .LVU423
	.loc 1 948 3 is_stmt 0 view .LVU424
.LBE98:
.LBE100:
@ src/common/iobuf.c:1179:     printf ("iobuf-%d.%d: open '%s' desc=%s fd=%d\n",
	.loc 1 1179 5 view .LVU425
	ldr	r3, [r7]	@ fcx_17->fp, fcx_17->fp
	mov	r2, r10	@, _22
	ldr	r0, .L137+20	@,
	mov	r1, r9	@, _21
	str	r3, [sp, #4]	@ fcx_17->fp,
	mov	r3, r4	@, fname
.LPIC22:
	add	r0, pc, r0	@,
	str	r6, [sp]	@ tmp156,
	bl	tfp_printf(PLT)	@
.LVL132:
@ src/common/iobuf.c:1183: }
	.loc 1 1183 1 view .LVU426
	mov	r0, r5	@, <retval>
	add	sp, sp, #48	@,,
	.cfi_remember_state
	.cfi_def_cfa_offset 32
	@ sp needed	@
	pop	{r4, r5, r6, r7, r8, r9, r10, pc}	@
.LVL133:
.L135:
	.cfi_restore_state
@ src/common/iobuf.c:1148: 	  fname = "[stdout]";
	.loc 1 1148 10 view .LVU427
	ldr	r4, .L137+24	@ fname,
.LVL134:
@ src/common/iobuf.c:1147: 	  fp = FD_FOR_STDOUT;
	.loc 1 1147 7 view .LVU428
	mov	r9, r6	@ fp, special_filenames
@ src/common/iobuf.c:1148: 	  fname = "[stdout]";
	.loc 1 1148 10 view .LVU429
.LPIC18:
	add	r4, pc, r4	@ fname, fname
	b	.L119		@
.LVL135:
.L136:
.LBB101:
.LBB99:
.LBB96:
.LBI96:
	.loc 1 939 1 is_stmt 1 view .LVU430
.LBB97:
	.loc 1 944 5 view .LVU431
	ldr	r1, .L137+28	@,
	add	r6, sp, #16	@ tmp156,,
	mov	r2, #2	@,
	mov	r0, r6	@, tmp156
.LPIC21:
	add	r1, pc, r1	@,
	bl	memcpy(PLT)	@
.LVL136:
	b	.L122		@
.L138:
	.align	2
.L137:
	.word	.LC13-(.LPIC19+8)
	.word	_GLOBAL_OFFSET_TABLE_-(.LPIC20+8)
	.word	file_filter(GOT)
	.word	iobuf_debug_mode(GOT)
	.word	.LC11-(.LPIC17+8)
	.word	.LC14-(.LPIC22+8)
	.word	.LC12-(.LPIC18+8)
	.word	.LC6-(.LPIC21+8)
.LBE97:
.LBE96:
.LBE99:
.LBE101:
	.cfi_endproc
.LFE92:
	.size	do_open.constprop.0, .-do_open.constprop.0
	.section	.rodata.iobuf_close.str1.4,"aMS",%progbits,1
	.align	2
.LC15:
	.ascii	"iobuf-%d.%d: close '%s'\012\000"
	.section	.text.iobuf_close,"ax",%progbits
	.align	2
	.global	iobuf_close
	.syntax unified
	.arm
	.fpu softvfp
	.type	iobuf_close, %function
iobuf_close:
.LVL137:
.LFB46:
	.loc 1 1003 1 view -0
	.cfi_startproc
	@ args = 0, pretend = 0, frame = 48
	@ frame_needed = 0, uses_anonymous_args = 0
	.loc 1 1005 3 view .LVU433
	.loc 1 1006 3 view .LVU434
@ src/common/iobuf.c:1003: {
	.loc 1 1003 1 is_stmt 0 view .LVU435
	push	{r4, r5, r6, r7, r8, r9, r10, fp, lr}	@
	.cfi_def_cfa_offset 36
	.cfi_offset 4, -36
	.cfi_offset 5, -32
	.cfi_offset 6, -28
	.cfi_offset 7, -24
	.cfi_offset 8, -20
	.cfi_offset 9, -16
	.cfi_offset 10, -12
	.cfi_offset 11, -8
	.cfi_offset 14, -4
@ src/common/iobuf.c:1009:   for (; a; a = a_chain)
	.loc 1 1009 3 view .LVU436
	subs	r5, r0, #0	@ a, tmp165
@ src/common/iobuf.c:1003: {
	.loc 1 1003 1 view .LVU437
	ldr	r2, .L161	@ tmp134,
	sub	sp, sp, #60	@,,
	.cfi_def_cfa_offset 96
@ src/common/iobuf.c:1006:   size_t dummy_len = 0;
	.loc 1 1006 10 view .LVU438
	mov	r6, #0	@ tmp132,
@ src/common/iobuf.c:1003: {
	.loc 1 1003 1 view .LVU439
.LPIC23:
	add	r2, pc, r2	@ tmp134, tmp134
@ src/common/iobuf.c:1006:   size_t dummy_len = 0;
	.loc 1 1006 10 view .LVU440
	str	r6, [sp, #16]	@ tmp132, dummy_len
	.loc 1 1007 3 is_stmt 1 view .LVU441
.LVL138:
	.loc 1 1009 3 view .LVU442
	.loc 1 1009 10 view .LVU443
@ src/common/iobuf.c:1009:   for (; a; a = a_chain)
	.loc 1 1009 3 is_stmt 0 view .LVU444
	beq	.L147		@,
.LBB107:
@ src/common/iobuf.c:1020: 	printf ("iobuf-%d.%d: close '%s'\n",
	.loc 1 1020 2 view .LVU445
	ldr	r1, .L161+4	@ tmp163,
	ldr	r3, .L161+8	@ tmp167,
.LPIC25:
	add	r1, pc, r1	@ tmp163, tmp163
	str	r1, [sp, #8]	@ tmp163, %sfp
	ldr	r8, [r2, r3]	@ tmp160,
.LBB108:
.LBB109:
.LBB110:
.LBB111:
@ src/common/iobuf.c:944:     memcpy (buf, "?", 2);
	.loc 1 944 5 view .LVU446
	ldr	r3, .L161+12	@ tmp164,
.LPIC24:
	add	r3, pc, r3	@ tmp164, tmp164
	str	r3, [sp, #12]	@ tmp164, %sfp
	b	.L146		@
.LVL139:
.L141:
	.loc 1 944 5 view .LVU447
.LBE111:
.LBE110:
.LBE109:
.LBE108:
	.loc 1 1023 7 is_stmt 1 view .LVU448
@ src/common/iobuf.c:1023:       if (a->filter && (rc2 = a->filter (a->filter_ov, IOBUFCTRL_FREE,
	.loc 1 1023 12 is_stmt 0 view .LVU449
	ldr	r7, [r4, #44]	@ _5, a_45->filter
@ src/common/iobuf.c:1023:       if (a->filter && (rc2 = a->filter (a->filter_ov, IOBUFCTRL_FREE,
	.loc 1 1023 31 view .LVU450
	mov	r3, #0	@,
	add	ip, sp, #16	@ tmp148,,
	mov	r1, #2	@,
@ src/common/iobuf.c:1023:       if (a->filter && (rc2 = a->filter (a->filter_ov, IOBUFCTRL_FREE,
	.loc 1 1023 10 view .LVU451
	cmp	r7, r3	@ _5,
	beq	.L144		@,
@ src/common/iobuf.c:1023:       if (a->filter && (rc2 = a->filter (a->filter_ov, IOBUFCTRL_FREE,
	.loc 1 1023 31 discriminator 1 view .LVU452
	ldr	r2, [r4, #60]	@ a_45->chain, a_45->chain
	ldr	r0, [r4, #48]	@ a_45->filter_ov, a_45->filter_ov
	str	ip, [sp]	@ tmp148,
	blx	r7		@ _5
.LVL140:
	.loc 1 1026 7 is_stmt 1 discriminator 1 view .LVU453
@ src/common/iobuf.c:1026:       if (! rc && rc2)
	.loc 1 1026 10 is_stmt 0 discriminator 1 view .LVU454
	clz	r3, r6	@ tmp155, <retval>
	cmp	r0, #0	@ tmp166,
	lsr	r3, r3, #5	@ tmp155, tmp155,
	moveq	r3, #0	@ tmp155,
	cmp	r3, #0	@ tmp155,
	movne	r6, r0	@ <retval>, tmp166
.LVL141:
.L144:
	.loc 1 1031 7 is_stmt 1 view .LVU455
	ldr	r0, [r4, #56]	@, a_45->real_fname
	bl	xfree(PLT)	@
.LVL142:
	.loc 1 1032 7 view .LVU456
	.loc 1 1034 4 view .LVU457
@ src/common/iobuf.c:1032:       if (a->d.buf)
	.loc 1 1032 15 is_stmt 0 view .LVU458
	ldr	r0, [r4, #32]	@ _11, a_45->d.buf
@ src/common/iobuf.c:1034: 	  memset (a->d.buf, 0, a->d.size);	/* erase the buffer */
	.loc 1 1034 4 view .LVU459
	mov	r1, #0	@,
@ src/common/iobuf.c:1032:       if (a->d.buf)
	.loc 1 1032 10 view .LVU460
	cmp	r0, r1	@ _11,
	beq	.L145		@,
@ src/common/iobuf.c:1034: 	  memset (a->d.buf, 0, a->d.size);	/* erase the buffer */
	.loc 1 1034 4 view .LVU461
	ldr	r2, [r4, #20]	@, a_45->d.size
	bl	memset(PLT)	@
.LVL143:
	.loc 1 1035 4 is_stmt 1 view .LVU462
	ldr	r0, [r4, #32]	@, a_45->d.buf
	bl	xfree(PLT)	@
.LVL144:
.L145:
	.loc 1 1037 7 view .LVU463
	mov	r0, r4	@, a
	bl	xfree(PLT)	@
.LVL145:
.LBE107:
	.loc 1 1009 13 view .LVU464
	.loc 1 1009 10 view .LVU465
@ src/common/iobuf.c:1009:   for (; a; a = a_chain)
	.loc 1 1009 3 is_stmt 0 view .LVU466
	cmp	r5, #0	@ a,
	beq	.L139		@,
.LVL146:
.L146:
.LBB122:
	.loc 1 1011 7 is_stmt 1 view .LVU467
	.loc 1 1012 7 view .LVU468
	.loc 1 1014 7 view .LVU469
@ src/common/iobuf.c:1019:       if (DBG_IOBUF)
	.loc 1 1019 10 is_stmt 0 view .LVU470
	ldr	r3, [r8]	@ iobuf_debug_mode, iobuf_debug_mode
	mov	r4, r5	@ a, a
@ src/common/iobuf.c:1014:       a_chain = a->chain;
	.loc 1 1014 15 view .LVU471
	ldr	r5, [r5, #60]	@ a, a_43->chain
.LVL147:
	.loc 1 1019 7 is_stmt 1 view .LVU472
@ src/common/iobuf.c:1019:       if (DBG_IOBUF)
	.loc 1 1019 10 is_stmt 0 view .LVU473
	cmp	r3, #0	@ iobuf_debug_mode,
	beq	.L141		@,
	.loc 1 1020 2 is_stmt 1 view .LVU474
.LBB118:
.LBB114:
	.loc 1 946 5 view .LVU475
@ src/common/iobuf.c:943:   if (! a || ! a->filter)
	.loc 1 943 17 is_stmt 0 view .LVU476
	ldr	r9, [r4, #44]	@ _35, a_45->filter
@ src/common/iobuf.c:941:   size_t len = MAX_IOBUF_DESC;
	.loc 1 941 10 view .LVU477
	mov	r3, #32	@ tmp175,
	str	r3, [sp, #20]	@ tmp175, len
@ src/common/iobuf.c:946:     a->filter (a->filter_ov, IOBUFCTRL_DESC, NULL, buf, &len);
	.loc 1 946 5 view .LVU478
	add	r7, sp, #24	@ tmp161,,
.LBE114:
.LBE118:
@ src/common/iobuf.c:1020: 	printf ("iobuf-%d.%d: close '%s'\n",
	.loc 1 1020 2 view .LVU479
	ldr	r10, [r4, #64]	@ _2, a_45->no
.LBB119:
.LBB115:
@ src/common/iobuf.c:943:   if (! a || ! a->filter)
	.loc 1 943 11 view .LVU480
	cmp	r9, #0	@ _35,
.LBE115:
.LBE119:
@ src/common/iobuf.c:1020: 	printf ("iobuf-%d.%d: close '%s'\n",
	.loc 1 1020 2 view .LVU481
	ldr	fp, [r4, #68]	@ _3, a_45->subno
.LVL148:
.LBB120:
.LBI108:
	.loc 1 939 1 is_stmt 1 view .LVU482
.LBB116:
	.loc 1 941 3 view .LVU483
	.loc 1 943 3 view .LVU484
@ src/common/iobuf.c:946:     a->filter (a->filter_ov, IOBUFCTRL_DESC, NULL, buf, &len);
	.loc 1 946 5 is_stmt 0 view .LVU485
	add	r2, sp, #20	@ tmp142,,
	mov	r3, r7	@, tmp161
@ src/common/iobuf.c:943:   if (! a || ! a->filter)
	.loc 1 943 11 view .LVU486
	beq	.L160		@,
@ src/common/iobuf.c:946:     a->filter (a->filter_ov, IOBUFCTRL_DESC, NULL, buf, &len);
	.loc 1 946 5 view .LVU487
	ldr	r0, [r4, #48]	@ a_45->filter_ov, a_45->filter_ov
	mov	r1, #5	@,
	str	r2, [sp]	@ tmp142,
	mov	r2, #0	@,
	blx	r9		@ _35
.LVL149:
.L143:
	.loc 1 948 3 is_stmt 1 view .LVU488
	.loc 1 948 3 is_stmt 0 view .LVU489
.LBE116:
.LBE120:
@ src/common/iobuf.c:1020: 	printf ("iobuf-%d.%d: close '%s'\n",
	.loc 1 1020 2 view .LVU490
	ldr	r0, [sp, #8]	@, %sfp
	mov	r3, r7	@, tmp161
	mov	r2, fp	@, _3
	mov	r1, r10	@, _2
	bl	tfp_printf(PLT)	@
.LVL150:
	b	.L141		@
.LVL151:
.L160:
.LBB121:
.LBB117:
.LBB113:
.LBI110:
	.loc 1 939 1 is_stmt 1 view .LVU491
.LBB112:
	.loc 1 944 5 view .LVU492
	ldr	r1, [sp, #12]	@, %sfp
	mov	r2, #2	@,
	mov	r0, r7	@, tmp161
	bl	memcpy(PLT)	@
.LVL152:
	b	.L143		@
.LVL153:
.L147:
	.loc 1 944 5 is_stmt 0 view .LVU493
.LBE112:
.LBE113:
.LBE117:
.LBE121:
.LBE122:
@ src/common/iobuf.c:1007:   int rc = 0;
	.loc 1 1007 7 view .LVU494
	mov	r6, r5	@ <retval>, a
	.loc 1 1039 3 is_stmt 1 view .LVU495
.LVL154:
.L139:
@ src/common/iobuf.c:1040: }
	.loc 1 1040 1 is_stmt 0 view .LVU496
	mov	r0, r6	@, <retval>
	add	sp, sp, #60	@,,
	.cfi_def_cfa_offset 36
	@ sp needed	@
	pop	{r4, r5, r6, r7, r8, r9, r10, fp, pc}	@
.L162:
	.align	2
.L161:
	.word	_GLOBAL_OFFSET_TABLE_-(.LPIC23+8)
	.word	.LC15-(.LPIC25+8)
	.word	iobuf_debug_mode(GOT)
	.word	.LC6-(.LPIC24+8)
	.cfi_endproc
.LFE46:
	.size	iobuf_close, .-iobuf_close
	.section	.text.iobuf_temp,"ax",%progbits
	.align	2
	.global	iobuf_temp
	.syntax unified
	.arm
	.fpu softvfp
	.type	iobuf_temp, %function
iobuf_temp:
.LFB48:
	.loc 1 1089 1 is_stmt 1 view -0
	.cfi_startproc
	@ args = 0, pretend = 0, frame = 0
	@ frame_needed = 0, uses_anonymous_args = 0
	@ link register save eliminated.
	.loc 1 1090 3 view .LVU498
@ src/common/iobuf.c:1090:   return iobuf_alloc (IOBUF_OUTPUT_TEMP, IOBUF_BUFFER_SIZE);
	.loc 1 1090 10 is_stmt 0 view .LVU499
	mov	r1, #8192	@,
	mov	r0, #3	@,
	b	iobuf_alloc(PLT)	@
.LVL155:
	.cfi_endproc
.LFE48:
	.size	iobuf_temp, .-iobuf_temp
	.section	.rodata.iobuf_temp_with_content.str1.4,"aMS",%progbits,1
	.align	2
.LC16:
	.ascii	"iobuf_temp_with_content: %d bytes\012\000"
	.section	.text.iobuf_temp_with_content,"ax",%progbits
	.align	2
	.global	iobuf_temp_with_content
	.syntax unified
	.arm
	.fpu softvfp
	.type	iobuf_temp_with_content, %function
iobuf_temp_with_content:
.LVL156:
.LFB49:
	.loc 1 1095 1 is_stmt 1 view -0
	.cfi_startproc
	@ args = 0, pretend = 0, frame = 0
	@ frame_needed = 0, uses_anonymous_args = 0
	.loc 1 1096 3 view .LVU501
	.loc 1 1097 3 view .LVU502
	.loc 1 1099 3 view .LVU503
@ src/common/iobuf.c:1095: {
	.loc 1 1095 1 is_stmt 0 view .LVU504
	push	{r4, r5, r6, lr}	@
	.cfi_def_cfa_offset 16
	.cfi_offset 4, -16
	.cfi_offset 5, -12
	.cfi_offset 6, -8
	.cfi_offset 14, -4
@ src/common/iobuf.c:1095: {
	.loc 1 1095 1 view .LVU505
	mov	r4, r0	@ tmp139, buffer
@ src/common/iobuf.c:1099:   a = iobuf_alloc (IOBUF_INPUT_TEMP, length);
	.loc 1 1099 7 view .LVU506
	mov	r0, #1	@,
.LVL157:
@ src/common/iobuf.c:1095: {
	.loc 1 1095 1 view .LVU507
	mov	r6, r1	@ length, tmp140
@ src/common/iobuf.c:1099:   a = iobuf_alloc (IOBUF_INPUT_TEMP, length);
	.loc 1 1099 7 view .LVU508
	bl	iobuf_alloc(PLT)	@
.LVL158:
	.loc 1 1099 7 view .LVU509
	mov	r5, r0	@ tmp141,
@ src/common/iobuf.c:1100:   printf ("iobuf_temp_with_content: %d bytes\n", a->d.size);
	.loc 1 1100 3 view .LVU510
	ldr	r0, .L172	@,
	ldr	r1, [r5, #20]	@, a_12->d.size
.LPIC26:
	add	r0, pc, r0	@,
.LVL159:
	.loc 1 1100 3 is_stmt 1 view .LVU511
	bl	tfp_printf(PLT)	@
.LVL160:
	.loc 1 1102 3 view .LVU512
	.loc 1 1102 13 view .LVU513
@ src/common/iobuf.c:1102:   for (i=0; i < length; i++)
	.loc 1 1102 3 is_stmt 0 view .LVU514
	cmp	r6, #0	@ length,
	beq	.L165		@,
	add	r1, r4, r6	@ tmp131, buffer, length
	sub	r3, r4, #1	@ ivtmp.194, buffer,
	sub	r1, r1, #1	@ _31, tmp131,
	rsb	r4, r4, #1	@ tmp137, buffer,
.LVL161:
.L166:
	.loc 1 1103 5 is_stmt 1 discriminator 3 view .LVU515
@ src/common/iobuf.c:1103:     a->d.buf[i] = buffer[i];
	.loc 1 1103 13 is_stmt 0 discriminator 3 view .LVU516
	add	r2, r4, r3	@ tmp133, tmp137, ivtmp.194
@ src/common/iobuf.c:1103:     a->d.buf[i] = buffer[i];
	.loc 1 1103 25 discriminator 3 view .LVU517
	ldrb	lr, [r3, #1]!	@ zero_extendqisi2	@ _5, MEM[base: _28, offset: 0B]
.LVL162:
@ src/common/iobuf.c:1103:     a->d.buf[i] = buffer[i];
	.loc 1 1103 13 discriminator 3 view .LVU518
	ldr	ip, [r5, #32]	@ a_12->d.buf, a_12->d.buf
@ src/common/iobuf.c:1102:   for (i=0; i < length; i++)
	.loc 1 1102 3 discriminator 3 view .LVU519
	cmp	r3, r1	@ ivtmp.194, _31
@ src/common/iobuf.c:1103:     a->d.buf[i] = buffer[i];
	.loc 1 1103 17 discriminator 3 view .LVU520
	strb	lr, [ip, r2]	@ _5, *_4
	.loc 1 1102 25 is_stmt 1 discriminator 3 view .LVU521
.LVL163:
	.loc 1 1102 13 discriminator 3 view .LVU522
@ src/common/iobuf.c:1102:   for (i=0; i < length; i++)
	.loc 1 1102 3 is_stmt 0 discriminator 3 view .LVU523
	bne	.L166		@,
.LVL164:
.L165:
	.loc 1 1104 3 is_stmt 1 view .LVU524
@ src/common/iobuf.c:1104:   a->d.len = length;
	.loc 1 1104 12 is_stmt 0 view .LVU525
	str	r6, [r5, #28]	@ length, a_12->d.len
	.loc 1 1106 3 is_stmt 1 view .LVU526
@ src/common/iobuf.c:1107: }
	.loc 1 1107 1 is_stmt 0 view .LVU527
	mov	r0, r5	@, <retval>
	pop	{r4, r5, r6, pc}	@
.L173:
	.align	2
.L172:
	.word	.LC16-(.LPIC26+8)
	.cfi_endproc
.LFE49:
	.size	iobuf_temp_with_content, .-iobuf_temp_with_content
	.section	.text.iobuf_is_pipe_filename,"ax",%progbits
	.align	2
	.global	iobuf_is_pipe_filename
	.syntax unified
	.arm
	.fpu softvfp
	.type	iobuf_is_pipe_filename, %function
iobuf_is_pipe_filename:
.LVL165:
.LFB50:
	.loc 1 1112 1 is_stmt 1 view -0
	.cfi_startproc
	@ args = 0, pretend = 0, frame = 0
	@ frame_needed = 0, uses_anonymous_args = 0
	@ link register save eliminated.
	.loc 1 1114 3 view .LVU529
	.loc 1 1115 5 view .LVU530
@ src/common/iobuf.c:1117: }
	.loc 1 1117 1 is_stmt 0 view .LVU531
	mov	r0, #1	@,
.LVL166:
	.loc 1 1117 1 view .LVU532
	bx	lr	@
	.cfi_endproc
.LFE50:
	.size	iobuf_is_pipe_filename, .-iobuf_is_pipe_filename
	.section	.rodata.iobuf_open.str1.4,"aMS",%progbits,1
	.align	2
.LC17:
	.ascii	"rb\000"
	.section	.text.iobuf_open,"ax",%progbits
	.align	2
	.global	iobuf_open
	.syntax unified
	.arm
	.fpu softvfp
	.type	iobuf_open, %function
iobuf_open:
.LVL167:
.LFB52:
	.loc 1 1187 1 is_stmt 1 view -0
	.cfi_startproc
	@ args = 0, pretend = 0, frame = 0
	@ frame_needed = 0, uses_anonymous_args = 0
	@ link register save eliminated.
	.loc 1 1188 3 view .LVU534
@ src/common/iobuf.c:1188:   return do_open (fname, 1, IOBUF_INPUT, "rb", 0);
	.loc 1 1188 10 is_stmt 0 view .LVU535
	ldr	r3, .L176	@,
	mov	r2, #0	@,
	mov	r1, #1	@,
.LPIC27:
	add	r3, pc, r3	@,
	b	do_open.constprop.0(PLT)	@
.LVL168:
.L177:
	.loc 1 1188 10 view .LVU536
	.align	2
.L176:
	.word	.LC17-(.LPIC27+8)
	.cfi_endproc
.LFE52:
	.size	iobuf_open, .-iobuf_open
	.section	.rodata.iobuf_create.str1.4,"aMS",%progbits,1
	.align	2
.LC18:
	.ascii	"wb\000"
	.section	.text.iobuf_create,"ax",%progbits
	.align	2
	.global	iobuf_create
	.syntax unified
	.arm
	.fpu softvfp
	.type	iobuf_create, %function
iobuf_create:
.LVL169:
.LFB53:
	.loc 1 1193 1 is_stmt 1 view -0
	.cfi_startproc
	@ args = 0, pretend = 0, frame = 0
	@ frame_needed = 0, uses_anonymous_args = 0
	@ link register save eliminated.
	.loc 1 1194 3 view .LVU538
@ src/common/iobuf.c:1194:   return do_open (fname, 1, IOBUF_OUTPUT, "wb", mode700);
	.loc 1 1194 10 is_stmt 0 view .LVU539
	ldr	r3, .L179	@,
	mov	r2, #2	@,
	mov	r1, #1	@,
.LVL170:
	.loc 1 1194 10 view .LVU540
.LPIC28:
	add	r3, pc, r3	@,
	b	do_open.constprop.0(PLT)	@
.LVL171:
.L180:
	.loc 1 1194 10 view .LVU541
	.align	2
.L179:
	.word	.LC18-(.LPIC28+8)
	.cfi_endproc
.LFE53:
	.size	iobuf_create, .-iobuf_create
	.section	.rodata.iobuf_openrw.str1.4,"aMS",%progbits,1
	.align	2
.LC19:
	.ascii	"r+b\000"
	.section	.text.iobuf_openrw,"ax",%progbits
	.align	2
	.global	iobuf_openrw
	.syntax unified
	.arm
	.fpu softvfp
	.type	iobuf_openrw, %function
iobuf_openrw:
.LVL172:
.LFB54:
	.loc 1 1199 1 is_stmt 1 view -0
	.cfi_startproc
	@ args = 0, pretend = 0, frame = 0
	@ frame_needed = 0, uses_anonymous_args = 0
	@ link register save eliminated.
	.loc 1 1200 3 view .LVU543
@ src/common/iobuf.c:1200:   return do_open (fname, 0, IOBUF_OUTPUT, "r+b", 0);
	.loc 1 1200 10 is_stmt 0 view .LVU544
	ldr	r3, .L182	@,
	mov	r2, #2	@,
	mov	r1, #0	@,
.LPIC29:
	add	r3, pc, r3	@,
	b	do_open.constprop.0(PLT)	@
.LVL173:
.L183:
	.loc 1 1200 10 view .LVU545
	.align	2
.L182:
	.word	.LC19-(.LPIC29+8)
	.cfi_endproc
.LFE54:
	.size	iobuf_openrw, .-iobuf_openrw
	.section	.rodata.iobuf_ioctl.str1.4,"aMS",%progbits,1
	.align	2
.LC20:
	.ascii	"iobuf_ioctl %d %d %d\012\000"
	.align	2
.LC21:
	.ascii	"iobuf-%d.%d: ioctl '%s' keep_open=%d\012\000"
	.align	2
.LC22:
	.ascii	"iobuf-*.*: ioctl '%s' invalidate\012\000"
	.align	2
.LC23:
	.ascii	"iobuf-%d.%d: ioctl '%s' no_cache=%d\012\000"
	.align	2
.LC24:
	.ascii	"iobuf-*.*: ioctl '%s' fsync\012\000"
	.align	2
.LC25:
	.ascii	"fd_cache_synchronize (%s)\012\000"
	.align	2
.LC26:
	.ascii	"iobuf-%d.%d: ioctl '%s' peek\012\000"
	.align	2
.LC27:
	.ascii	"iobuf_ioctl file_filter\012\000"
	.align	2
.LC28:
	.ascii	"<null>\000"
	.section	.text.iobuf_ioctl,"ax",%progbits
	.align	2
	.global	iobuf_ioctl
	.syntax unified
	.arm
	.fpu softvfp
	.type	iobuf_ioctl, %function
iobuf_ioctl:
.LVL174:
.LFB57:
	.loc 1 1297 1 is_stmt 1 view -0
	.cfi_startproc
	@ args = 0, pretend = 0, frame = 40
	@ frame_needed = 0, uses_anonymous_args = 0
	.loc 1 1298 3 view .LVU547
@ src/common/iobuf.c:1297: {
	.loc 1 1297 1 is_stmt 0 view .LVU548
	push	{r4, r5, r6, r7, r8, r9, r10, fp, lr}	@
	.cfi_def_cfa_offset 36
	.cfi_offset 4, -36
	.cfi_offset 5, -32
	.cfi_offset 6, -28
	.cfi_offset 7, -24
	.cfi_offset 8, -20
	.cfi_offset 9, -16
	.cfi_offset 10, -12
	.cfi_offset 11, -8
	.cfi_offset 14, -4
	mov	r4, r0	@ tmp276, a
@ src/common/iobuf.c:1298:   printf("iobuf_ioctl %d %d %d\n",cmd,intval, ptrval);
	.loc 1 1298 3 view .LVU549
	ldr	r0, .L256	@,
.LVL175:
@ src/common/iobuf.c:1297: {
	.loc 1 1297 1 view .LVU550
	mov	r5, r1	@ cmd, tmp277
	ldr	r8, .L256+4	@ tmp172,
	sub	sp, sp, #52	@,,
	.cfi_def_cfa_offset 88
@ src/common/iobuf.c:1298:   printf("iobuf_ioctl %d %d %d\n",cmd,intval, ptrval);
	.loc 1 1298 3 view .LVU551
.LPIC31:
	add	r0, pc, r0	@,
@ src/common/iobuf.c:1297: {
	.loc 1 1297 1 view .LVU552
	mov	r6, r2	@ intval, tmp278
.LPIC32:
	add	r8, pc, r8	@ tmp172, tmp172
	mov	r7, r3	@ ptrval, tmp279
@ src/common/iobuf.c:1298:   printf("iobuf_ioctl %d %d %d\n",cmd,intval, ptrval);
	.loc 1 1298 3 view .LVU553
	bl	tfp_printf(PLT)	@
.LVL176:
	.loc 1 1299 3 is_stmt 1 view .LVU554
	.loc 1 1301 3 view .LVU555
@ src/common/iobuf.c:1301:   if (cmd == IOBUF_IOCTL_KEEP_OPEN)
	.loc 1 1301 6 is_stmt 0 view .LVU556
	cmp	r5, #1	@ cmd,
	beq	.L247		@,
	.loc 1 1326 8 is_stmt 1 view .LVU557
@ src/common/iobuf.c:1326:   else if (cmd == IOBUF_IOCTL_INVALIDATE_CACHE)
	.loc 1 1326 11 is_stmt 0 view .LVU558
	cmp	r5, #2	@ cmd,
	beq	.L248		@,
	.loc 1 1338 8 is_stmt 1 view .LVU559
@ src/common/iobuf.c:1338:   else if (cmd == IOBUF_IOCTL_NO_CACHE)
	.loc 1 1338 11 is_stmt 0 view .LVU560
	cmp	r5, #3	@ cmd,
	beq	.L249		@,
	.loc 1 1361 8 is_stmt 1 view .LVU561
@ src/common/iobuf.c:1361:   else if (cmd == IOBUF_IOCTL_FSYNC)
	.loc 1 1361 11 is_stmt 0 view .LVU562
	cmp	r5, #4	@ cmd,
	beq	.L250		@,
	.loc 1 1374 8 is_stmt 1 view .LVU563
@ src/common/iobuf.c:1374:   else if (cmd == IOBUF_IOCTL_PEEK)
	.loc 1 1374 11 is_stmt 0 view .LVU564
	cmp	r5, #5	@ cmd,
	bne	.L213		@,
	.loc 1 1381 7 is_stmt 1 view .LVU565
@ src/common/iobuf.c:1381:       if (DBG_IOBUF)
	.loc 1 1381 11 is_stmt 0 view .LVU566
	ldr	r3, .L256+8	@ tmp283,
	ldr	r3, [r8, r3]	@ tmp232,
@ src/common/iobuf.c:1381:       if (DBG_IOBUF)
	.loc 1 1381 10 view .LVU567
	ldr	r3, [r3]	@ iobuf_debug_mode, iobuf_debug_mode
	cmp	r3, #0	@ iobuf_debug_mode,
	beq	.L209		@,
	.loc 1 1382 2 is_stmt 1 view .LVU568
	cmp	r4, #0	@ a,
	beq	.L210		@,
.LBB140:
.LBB141:
@ src/common/iobuf.c:943:   if (! a || ! a->filter)
	.loc 1 943 17 is_stmt 0 discriminator 1 view .LVU569
	ldr	r10, [r4, #44]	@ _107, a_51(D)->filter
@ src/common/iobuf.c:941:   size_t len = MAX_IOBUF_DESC;
	.loc 1 941 10 discriminator 1 view .LVU570
	mov	r3, #32	@ tmp234,
.LBE141:
.LBE140:
@ src/common/iobuf.c:1382: 	printf ("iobuf-%d.%d: ioctl '%s' peek\n",
	.loc 1 1382 2 discriminator 1 view .LVU571
	ldr	fp, [r4, #64]	@ iftmp.26_53, a_51(D)->no
	ldr	r9, [r4, #68]	@ iftmp.27_55, a_51(D)->subno
.LVL177:
.LBB148:
.LBI140:
	.loc 1 939 1 is_stmt 1 discriminator 1 view .LVU572
.LBB144:
	.loc 1 941 3 discriminator 1 view .LVU573
@ src/common/iobuf.c:943:   if (! a || ! a->filter)
	.loc 1 943 11 is_stmt 0 discriminator 1 view .LVU574
	cmp	r10, #0	@ _107,
@ src/common/iobuf.c:941:   size_t len = MAX_IOBUF_DESC;
	.loc 1 941 10 discriminator 1 view .LVU575
	str	r3, [sp, #12]	@ tmp234, MEM[(unsigned int *)_17]
	.loc 1 943 3 is_stmt 1 discriminator 1 view .LVU576
@ src/common/iobuf.c:943:   if (! a || ! a->filter)
	.loc 1 943 11 is_stmt 0 discriminator 1 view .LVU577
	beq	.L216		@,
	.loc 1 946 5 is_stmt 1 view .LVU578
	ldr	r0, [r4, #48]	@ a_51(D)->filter_ov, a_51(D)->filter_ov
	add	r3, sp, #12	@ tmp240,,
	str	r3, [sp]	@ tmp240,
	mov	r1, r5	@, cmd
	add	r5, sp, #16	@ tmp273,,
	mov	r2, #0	@,
	mov	r3, r5	@, tmp273
	blx	r10		@ _107
.LVL178:
.L212:
	.loc 1 948 3 view .LVU579
.LBE144:
.LBE148:
@ src/common/iobuf.c:1382: 	printf ("iobuf-%d.%d: ioctl '%s' peek\n",
	.loc 1 1382 2 is_stmt 0 view .LVU580
	ldr	r0, .L256+12	@,
	mov	r3, r5	@, tmp273
	mov	r2, r9	@, iftmp.27_55
	mov	r1, fp	@, iftmp.26_53
.LPIC41:
	add	r0, pc, r0	@,
	bl	tfp_printf(PLT)	@
.LVL179:
.L209:
	.loc 1 1384 7 is_stmt 1 view .LVU581
@ src/common/iobuf.c:1384:       if (a->filter == file_filter && ptrval && intval)
	.loc 1 1384 10 is_stmt 0 view .LVU582
	ldr	r3, .L256+16	@ tmp282,
	ldr	r2, [r4, #44]	@ a_51(D)->filter, a_51(D)->filter
	ldr	r3, [r8, r3]	@ tmp245,
	cmp	r2, r3	@ a_51(D)->filter, tmp245
	bne	.L213		@,
@ src/common/iobuf.c:1384:       if (a->filter == file_filter && ptrval && intval)
	.loc 1 1384 46 discriminator 1 view .LVU583
	cmp	r7, #0	@ ptrval,
	cmpne	r6, #0	@, intval,
	beq	.L213		@,
.LBB149:
	.loc 1 1386 11 is_stmt 1 view .LVU584
	ldr	r0, .L256+20	@,
.LPIC42:
	add	r0, pc, r0	@,
	bl	tfp_printf(PLT)	@
.LVL180:
	.loc 1 1387 11 view .LVU585
@ src/common/iobuf.c:1387:           file_filter_ctx_t *fcx = a->filter_ov;
	.loc 1 1387 30 is_stmt 0 view .LVU586
	ldr	r0, [r4, #48]	@ fcx, a_51(D)->filter_ov
.LVL181:
	.loc 1 1388 11 is_stmt 1 view .LVU587
@ src/common/iobuf.c:1390:           if (!file_filter (fcx, IOBUFCTRL_PEEK, NULL, ptrval, &len))
	.loc 1 1390 16 is_stmt 0 view .LVU588
	add	r3, sp, #12	@ tmp256,,
	str	r3, [sp]	@ tmp256,
	mov	r2, #0	@,
@ src/common/iobuf.c:1388:           size_t len = intval;
	.loc 1 1388 18 view .LVU589
	str	r6, [sp, #12]	@ intval, MEM[(unsigned int *)_17]
	.loc 1 1390 11 is_stmt 1 view .LVU590
@ src/common/iobuf.c:1390:           if (!file_filter (fcx, IOBUFCTRL_PEEK, NULL, ptrval, &len))
	.loc 1 1390 16 is_stmt 0 view .LVU591
	mov	r3, r7	@, ptrval
	mov	r1, #7	@,
	bl	file_filter(PLT)	@
.LVL182:
@ src/common/iobuf.c:1390:           if (!file_filter (fcx, IOBUFCTRL_PEEK, NULL, ptrval, &len))
	.loc 1 1390 14 view .LVU592
	cmp	r0, #0	@ tmp281,
	bne	.L213		@,
	.loc 1 1391 13 is_stmt 1 view .LVU593
@ src/common/iobuf.c:1391:             return (int)len;
	.loc 1 1391 20 is_stmt 0 view .LVU594
	ldr	r0, [sp, #12]	@ <retval>, MEM[(unsigned int *)_17]
.LBE149:
@ src/common/iobuf.c:1397: }
	.loc 1 1397 1 view .LVU595
	add	sp, sp, #52	@,,
	.cfi_remember_state
	.cfi_def_cfa_offset 36
	@ sp needed	@
	pop	{r4, r5, r6, r7, r8, r9, r10, fp, pc}	@
.LVL183:
.L248:
	.cfi_restore_state
	.loc 1 1328 7 is_stmt 1 view .LVU596
@ src/common/iobuf.c:1328:       if (DBG_IOBUF)
	.loc 1 1328 11 is_stmt 0 view .LVU597
	ldr	r3, .L256+8	@ tmp287,
	ldr	r3, [r8, r3]	@ tmp188,
@ src/common/iobuf.c:1328:       if (DBG_IOBUF)
	.loc 1 1328 10 view .LVU598
	ldr	r3, [r3]	@ iobuf_debug_mode, iobuf_debug_mode
	cmp	r3, #0	@ iobuf_debug_mode,
	bne	.L251		@,
.L195:
	.loc 1 1331 7 is_stmt 1 view .LVU599
@ src/common/iobuf.c:1331:       if (!a && !intval && ptrval)
	.loc 1 1331 25 is_stmt 0 view .LVU600
	subs	r3, r7, #0	@ tmp199, ptrval,
@ src/common/iobuf.c:1331:       if (!a && !intval && ptrval)
	.loc 1 1331 17 view .LVU601
	orr	r4, r4, r6	@ tmp194, a, intval
.LVL184:
@ src/common/iobuf.c:1331:       if (!a && !intval && ptrval)
	.loc 1 1331 25 view .LVU602
	movne	r3, #1	@ tmp199,
	cmp	r4, #0	@ tmp194,
	movne	r3, #0	@ tmp199,
	cmp	r3, #0	@ tmp199,
	beq	.L213		@,
	.loc 1 1333 4 is_stmt 1 view .LVU603
@ src/common/iobuf.c:1333: 	  if (fd_cache_invalidate (ptrval))
	.loc 1 1333 8 is_stmt 0 view .LVU604
	mov	r0, r7	@, ptrval
	bl	fd_cache_invalidate(PLT)	@
.LVL185:
@ src/common/iobuf.c:1333: 	  if (fd_cache_invalidate (ptrval))
	.loc 1 1333 7 view .LVU605
	subs	r0, r0, #0	@ tmp201, tmp280,
	movne	r0, #1	@ tmp201,
	rsb	r0, r0, #0	@ <retval>, tmp201
.LVL186:
.L184:
@ src/common/iobuf.c:1397: }
	.loc 1 1397 1 view .LVU606
	add	sp, sp, #52	@,,
	.cfi_remember_state
	.cfi_def_cfa_offset 36
	@ sp needed	@
	pop	{r4, r5, r6, r7, r8, r9, r10, fp, pc}	@
.LVL187:
.L193:
	.cfi_restore_state
@ src/common/iobuf.c:1311: 	if (!a->chain && a->filter == file_filter)
	.loc 1 1311 8 view .LVU607
	ldr	r0, [r4, #60]	@ _4, a_28->chain
@ src/common/iobuf.c:1311: 	if (!a->chain && a->filter == file_filter)
	.loc 1 1311 5 view .LVU608
	cmp	r0, #0	@ _4,
	beq	.L252		@,
	.loc 1 1311 5 view .LVU609
	mov	r4, r0	@ a, _4
.LVL188:
.L190:
	.loc 1 1311 2 is_stmt 1 discriminator 1 view .LVU610
	.loc 1 1310 14 discriminator 1 view .LVU611
@ src/common/iobuf.c:1310:       for (; a; a = a->chain)
	.loc 1 1310 7 is_stmt 0 discriminator 1 view .LVU612
	cmp	r4, #0	@ a,
	bne	.L193		@,
.LVL189:
.L213:
@ src/common/iobuf.c:1396:   return -1;
	.loc 1 1396 10 view .LVU613
	mvn	r0, #0	@ <retval>,
.L253:
@ src/common/iobuf.c:1397: }
	.loc 1 1397 1 view .LVU614
	add	sp, sp, #52	@,,
	.cfi_remember_state
	.cfi_def_cfa_offset 36
	@ sp needed	@
	pop	{r4, r5, r6, r7, r8, r9, r10, fp, pc}	@
.LVL190:
.L247:
	.cfi_restore_state
	.loc 1 1306 7 is_stmt 1 view .LVU615
@ src/common/iobuf.c:1306:       if (DBG_IOBUF)
	.loc 1 1306 11 is_stmt 0 view .LVU616
	ldr	r3, .L256+8	@ tmp289,
	ldr	r3, [r8, r3]	@ tmp171,
@ src/common/iobuf.c:1306:       if (DBG_IOBUF)
	.loc 1 1306 10 view .LVU617
	ldr	r3, [r3]	@ iobuf_debug_mode, iobuf_debug_mode
	cmp	r3, #0	@ iobuf_debug_mode,
	beq	.L190		@,
	.loc 1 1307 2 is_stmt 1 view .LVU618
	cmp	r4, #0	@ a,
	beq	.L187		@,
.LBB150:
.LBB151:
@ src/common/iobuf.c:943:   if (! a || ! a->filter)
	.loc 1 943 17 is_stmt 0 discriminator 1 view .LVU619
	ldr	r9, [r4, #44]	@ _90, a_51(D)->filter
@ src/common/iobuf.c:941:   size_t len = MAX_IOBUF_DESC;
	.loc 1 941 10 discriminator 1 view .LVU620
	mov	r3, #32	@ tmp174,
.LBE151:
.LBE150:
@ src/common/iobuf.c:1307: 	printf ("iobuf-%d.%d: ioctl '%s' keep_open=%d\n",
	.loc 1 1307 2 discriminator 1 view .LVU621
	ldr	r10, [r4, #64]	@ iftmp.16_78, a_51(D)->no
	ldr	r7, [r4, #68]	@ iftmp.17_79, a_51(D)->subno
.LVL191:
.LBB158:
.LBI150:
	.loc 1 939 1 is_stmt 1 discriminator 1 view .LVU622
.LBB154:
	.loc 1 941 3 discriminator 1 view .LVU623
@ src/common/iobuf.c:943:   if (! a || ! a->filter)
	.loc 1 943 11 is_stmt 0 discriminator 1 view .LVU624
	cmp	r9, #0	@ _90,
@ src/common/iobuf.c:941:   size_t len = MAX_IOBUF_DESC;
	.loc 1 941 10 discriminator 1 view .LVU625
	str	r3, [sp, #12]	@ tmp174, MEM[(unsigned int *)_17]
	.loc 1 943 3 is_stmt 1 discriminator 1 view .LVU626
@ src/common/iobuf.c:943:   if (! a || ! a->filter)
	.loc 1 943 11 is_stmt 0 discriminator 1 view .LVU627
	beq	.L214		@,
	.loc 1 946 5 is_stmt 1 view .LVU628
	ldr	r0, [r4, #48]	@ a_51(D)->filter_ov, a_51(D)->filter_ov
	add	r3, sp, #12	@ tmp180,,
	str	r3, [sp]	@ tmp180,
	add	r5, sp, #16	@ tmp273,,
	mov	r3, r5	@, tmp273
	mov	r2, #0	@,
	mov	r1, #5	@,
	blx	r9		@ _90
.LVL192:
.L189:
	.loc 1 948 3 view .LVU629
.LBE154:
.LBE158:
@ src/common/iobuf.c:1307: 	printf ("iobuf-%d.%d: ioctl '%s' keep_open=%d\n",
	.loc 1 1307 2 is_stmt 0 view .LVU630
	ldr	r0, .L256+24	@,
	mov	r3, r5	@, tmp273
	str	r6, [sp]	@ intval,
	mov	r2, r7	@, iftmp.17_79
.LPIC34:
	add	r0, pc, r0	@,
	mov	r1, r10	@, iftmp.16_78
	bl	tfp_printf(PLT)	@
.LVL193:
	b	.L190		@
.L252:
@ src/common/iobuf.c:1311: 	if (!a->chain && a->filter == file_filter)
	.loc 1 1311 16 discriminator 1 view .LVU631
	ldr	r3, .L256+16	@ tmp288,
	ldr	r2, [r4, #44]	@ a_28->filter, a_28->filter
	ldr	r3, [r8, r3]	@ tmp185,
	cmp	r2, r3	@ a_28->filter, tmp185
.LBB159:
@ src/common/iobuf.c:1314: 	    b->keep_open = intval;
	.loc 1 1314 19 discriminator 1 view .LVU632
	ldreq	r3, [r4, #48]	@ a_28->filter_ov, a_28->filter_ov
	streq	r6, [r3, #4]	@ intval, b_82->keep_open
.LBE159:
@ src/common/iobuf.c:1311: 	if (!a->chain && a->filter == file_filter)
	.loc 1 1311 16 discriminator 1 view .LVU633
	beq	.L184		@,
@ src/common/iobuf.c:1396:   return -1;
	.loc 1 1396 10 view .LVU634
	mvn	r0, #0	@ <retval>,
	b	.L253		@
.LVL194:
.L251:
	.loc 1 1329 2 is_stmt 1 view .LVU635
	cmp	r7, #0	@ ptrval,
	movne	r1, r7	@ iftmp.19_33, ptrval
	beq	.L254		@,
.L196:
@ src/common/iobuf.c:1329: 	printf ("iobuf-*.*: ioctl '%s' invalidate\n",
	.loc 1 1329 2 is_stmt 0 discriminator 4 view .LVU636
	ldr	r0, .L256+28	@,
.LPIC35:
	add	r0, pc, r0	@,
	bl	tfp_printf(PLT)	@
.LVL195:
	b	.L195		@
.L250:
	.loc 1 1365 7 is_stmt 1 view .LVU637
@ src/common/iobuf.c:1365:       if (DBG_IOBUF)
	.loc 1 1365 11 is_stmt 0 view .LVU638
	ldr	r3, .L256+8	@ tmp284,
	ldr	r5, [r8, r3]	@ tmp218,
	ldr	r0, [r5]	@ <retval>, iobuf_debug_mode
@ src/common/iobuf.c:1365:       if (DBG_IOBUF)
	.loc 1 1365 10 view .LVU639
	cmp	r0, #0	@ <retval>,
	beq	.L207		@,
	.loc 1 1366 9 is_stmt 1 view .LVU640
	cmp	r7, #0	@ ptrval,
	beq	.L208		@,
@ src/common/iobuf.c:1366:         printf ("iobuf-*.*: ioctl '%s' fsync\n",
	.loc 1 1366 9 is_stmt 0 discriminator 4 view .LVU641
	ldr	r0, .L256+32	@,
	mov	r1, r7	@, ptrval
.LPIC38:
	add	r0, pc, r0	@,
	bl	tfp_printf(PLT)	@
.LVL196:
	.loc 1 1369 7 is_stmt 1 discriminator 4 view .LVU642
@ src/common/iobuf.c:1369:       if (!a && !intval && ptrval)
	.loc 1 1369 25 is_stmt 0 discriminator 4 view .LVU643
	orrs	r3, r4, r6	@ tmp291, a, intval
	bne	.L213		@,
	.loc 1 1371 11 is_stmt 1 view .LVU644
.LVL197:
.LBB160:
.LBI160:
	.loc 1 223 1 view .LVU645
.LBB161:
	.loc 1 225 3 view .LVU646
	.loc 1 228 3 view .LVU647
	.loc 1 230 3 view .LVU648
@ src/common/iobuf.c:230:   if (DBG_IOBUF)
	.loc 1 230 7 is_stmt 0 view .LVU649
	ldr	r0, [r5]	@ <retval>, iobuf_debug_mode
@ src/common/iobuf.c:230:   if (DBG_IOBUF)
	.loc 1 230 6 view .LVU650
	cmp	r0, #0	@ <retval>,
	beq	.L184		@,
	.loc 1 231 5 is_stmt 1 view .LVU651
	ldr	r0, .L256+36	@,
	mov	r1, r7	@, ptrval
.LPIC39:
	add	r0, pc, r0	@,
	bl	tfp_printf(PLT)	@
.LVL198:
.LBE161:
.LBE160:
@ src/common/iobuf.c:1371:           return fd_cache_synchronize (ptrval);
	.loc 1 1371 18 is_stmt 0 view .LVU652
	mov	r0, #0	@ <retval>,
	b	.L184		@
.LVL199:
.L249:
	.loc 1 1340 7 is_stmt 1 view .LVU653
@ src/common/iobuf.c:1340:       if (DBG_IOBUF)
	.loc 1 1340 11 is_stmt 0 view .LVU654
	ldr	r3, .L256+8	@ tmp286,
	ldr	r3, [r8, r3]	@ tmp202,
@ src/common/iobuf.c:1340:       if (DBG_IOBUF)
	.loc 1 1340 10 view .LVU655
	ldr	r3, [r3]	@ iobuf_debug_mode, iobuf_debug_mode
	cmp	r3, #0	@ iobuf_debug_mode,
	beq	.L203		@,
	.loc 1 1341 2 is_stmt 1 view .LVU656
	cmp	r4, #0	@ a,
	beq	.L200		@,
.LBB162:
.LBB163:
@ src/common/iobuf.c:943:   if (! a || ! a->filter)
	.loc 1 943 17 is_stmt 0 discriminator 1 view .LVU657
	ldr	r9, [r4, #44]	@ _92, a_51(D)->filter
@ src/common/iobuf.c:941:   size_t len = MAX_IOBUF_DESC;
	.loc 1 941 10 discriminator 1 view .LVU658
	mov	r3, #32	@ tmp204,
.LBE163:
.LBE162:
@ src/common/iobuf.c:1341: 	printf ("iobuf-%d.%d: ioctl '%s' no_cache=%d\n",
	.loc 1 1341 2 discriminator 1 view .LVU659
	ldr	r10, [r4, #64]	@ iftmp.21_69, a_51(D)->no
	ldr	r7, [r4, #68]	@ iftmp.22_70, a_51(D)->subno
.LVL200:
.LBB170:
.LBI162:
	.loc 1 939 1 is_stmt 1 discriminator 1 view .LVU660
.LBB166:
	.loc 1 941 3 discriminator 1 view .LVU661
@ src/common/iobuf.c:943:   if (! a || ! a->filter)
	.loc 1 943 11 is_stmt 0 discriminator 1 view .LVU662
	cmp	r9, #0	@ _92,
@ src/common/iobuf.c:941:   size_t len = MAX_IOBUF_DESC;
	.loc 1 941 10 discriminator 1 view .LVU663
	str	r3, [sp, #12]	@ tmp204, MEM[(unsigned int *)_17]
	.loc 1 943 3 is_stmt 1 discriminator 1 view .LVU664
@ src/common/iobuf.c:943:   if (! a || ! a->filter)
	.loc 1 943 11 is_stmt 0 discriminator 1 view .LVU665
	beq	.L215		@,
	.loc 1 946 5 is_stmt 1 view .LVU666
	ldr	r0, [r4, #48]	@ a_51(D)->filter_ov, a_51(D)->filter_ov
	add	r3, sp, #12	@ tmp210,,
	str	r3, [sp]	@ tmp210,
	add	r5, sp, #16	@ tmp273,,
	mov	r3, r5	@, tmp273
	mov	r2, #0	@,
	mov	r1, #5	@,
	blx	r9		@ _92
.LVL201:
.L202:
	.loc 1 948 3 view .LVU667
.LBE166:
.LBE170:
@ src/common/iobuf.c:1341: 	printf ("iobuf-%d.%d: ioctl '%s' no_cache=%d\n",
	.loc 1 1341 2 is_stmt 0 view .LVU668
	ldr	r0, .L256+40	@,
	mov	r3, r5	@, tmp273
	str	r6, [sp]	@ intval,
	mov	r2, r7	@, iftmp.22_70
.LPIC37:
	add	r0, pc, r0	@,
	mov	r1, r10	@, iftmp.21_69
	bl	tfp_printf(PLT)	@
.LVL202:
	b	.L203		@
.L205:
@ src/common/iobuf.c:1345: 	if (!a->chain && a->filter == file_filter)
	.loc 1 1345 8 view .LVU669
	ldr	r3, [r4, #60]	@ _13, a_29->chain
@ src/common/iobuf.c:1345: 	if (!a->chain && a->filter == file_filter)
	.loc 1 1345 5 view .LVU670
	cmp	r3, #0	@ _13,
	beq	.L255		@,
	.loc 1 1345 5 view .LVU671
	mov	r4, r3	@ a, _13
.LVL203:
.L203:
	.loc 1 1345 2 is_stmt 1 discriminator 1 view .LVU672
	.loc 1 1344 14 discriminator 1 view .LVU673
@ src/common/iobuf.c:1344:       for (; a; a = a->chain)
	.loc 1 1344 7 is_stmt 0 discriminator 1 view .LVU674
	cmp	r4, #0	@ a,
	bne	.L205		@,
	b	.L213		@
.L255:
@ src/common/iobuf.c:1345: 	if (!a->chain && a->filter == file_filter)
	.loc 1 1345 16 discriminator 1 view .LVU675
	ldr	r2, .L256+16	@ tmp285,
	ldr	r1, [r4, #44]	@ a_29->filter, a_29->filter
	ldr	r2, [r8, r2]	@ tmp215,
	cmp	r1, r2	@ a_29->filter, tmp215
.LBB171:
@ src/common/iobuf.c:1350: 	    return 0;
	.loc 1 1350 13 discriminator 1 view .LVU676
	moveq	r0, r3	@ <retval>, _13
@ src/common/iobuf.c:1349: 	    b->no_cache = intval;
	.loc 1 1349 18 discriminator 1 view .LVU677
	ldreq	r2, [r4, #48]	@ a_29->filter_ov, a_29->filter_ov
	streq	r6, [r2, #8]	@ intval, b_73->no_cache
.LBE171:
@ src/common/iobuf.c:1345: 	if (!a->chain && a->filter == file_filter)
	.loc 1 1345 16 discriminator 1 view .LVU678
	beq	.L184		@,
@ src/common/iobuf.c:1396:   return -1;
	.loc 1 1396 10 view .LVU679
	mvn	r0, #0	@ <retval>,
	b	.L253		@
.LVL204:
.L187:
.LBB172:
	.loc 1 939 1 is_stmt 1 view .LVU680
.LBB155:
	.loc 1 941 3 view .LVU681
.LBE155:
.LBE172:
@ src/common/iobuf.c:1307: 	printf ("iobuf-%d.%d: ioctl '%s' keep_open=%d\n",
	.loc 1 1307 2 is_stmt 0 view .LVU682
	mvn	r7, #0	@ iftmp.17_79,
.LVL205:
.LBB173:
.LBB156:
@ src/common/iobuf.c:941:   size_t len = MAX_IOBUF_DESC;
	.loc 1 941 10 view .LVU683
	mov	r3, #32	@ tmp258,
	str	r3, [sp, #12]	@ tmp258, MEM[(unsigned int *)_17]
	.loc 1 943 3 is_stmt 1 view .LVU684
.LBE156:
.LBE173:
@ src/common/iobuf.c:1307: 	printf ("iobuf-%d.%d: ioctl '%s' keep_open=%d\n",
	.loc 1 1307 2 is_stmt 0 view .LVU685
	mov	r10, r7	@ iftmp.16_78, iftmp.17_79
.LVL206:
.L214:
.LBB174:
.LBB157:
.LBB152:
.LBI152:
	.loc 1 939 1 is_stmt 1 view .LVU686
.LBB153:
	.loc 1 944 5 view .LVU687
	ldr	r1, .L256+44	@,
	add	r5, sp, #16	@ tmp273,,
	mov	r2, #2	@,
	mov	r0, r5	@, tmp273
.LPIC33:
	add	r1, pc, r1	@,
	bl	memcpy(PLT)	@
.LVL207:
	b	.L189		@
.LVL208:
.L207:
	.loc 1 944 5 is_stmt 0 view .LVU688
.LBE153:
.LBE152:
.LBE157:
.LBE174:
	.loc 1 1369 7 is_stmt 1 view .LVU689
@ src/common/iobuf.c:1369:       if (!a && !intval && ptrval)
	.loc 1 1369 25 is_stmt 0 view .LVU690
	subs	r7, r7, #0	@ tmp268, tmp268,
@ src/common/iobuf.c:1369:       if (!a && !intval && ptrval)
	.loc 1 1369 17 view .LVU691
	orr	r4, r4, r6	@ tmp263, a, intval
.LVL209:
@ src/common/iobuf.c:1369:       if (!a && !intval && ptrval)
	.loc 1 1369 25 view .LVU692
	movne	r7, #1	@ tmp268,
.LVL210:
	.loc 1 1369 25 view .LVU693
	cmp	r4, #0	@ tmp263,
	movne	r7, #0	@ tmp268,
	cmp	r7, #0	@ tmp268,
	bne	.L184		@,
	b	.L213		@
.LVL211:
.L200:
.LBB175:
	.loc 1 939 1 is_stmt 1 view .LVU694
.LBB167:
	.loc 1 941 3 view .LVU695
.LBE167:
.LBE175:
@ src/common/iobuf.c:1341: 	printf ("iobuf-%d.%d: ioctl '%s' no_cache=%d\n",
	.loc 1 1341 2 is_stmt 0 view .LVU696
	mvn	r7, #0	@ iftmp.22_70,
.LVL212:
.LBB176:
.LBB168:
@ src/common/iobuf.c:941:   size_t len = MAX_IOBUF_DESC;
	.loc 1 941 10 view .LVU697
	mov	r3, #32	@ tmp259,
	str	r3, [sp, #12]	@ tmp259, MEM[(unsigned int *)_17]
	.loc 1 943 3 is_stmt 1 view .LVU698
.LBE168:
.LBE176:
@ src/common/iobuf.c:1341: 	printf ("iobuf-%d.%d: ioctl '%s' no_cache=%d\n",
	.loc 1 1341 2 is_stmt 0 view .LVU699
	mov	r10, r7	@ iftmp.21_69, iftmp.22_70
.LVL213:
.L215:
.LBB177:
.LBB169:
.LBB164:
.LBI164:
	.loc 1 939 1 is_stmt 1 view .LVU700
.LBB165:
	.loc 1 944 5 view .LVU701
	ldr	r1, .L256+48	@,
	add	r5, sp, #16	@ tmp273,,
	mov	r2, #2	@,
	mov	r0, r5	@, tmp273
.LPIC36:
	add	r1, pc, r1	@,
	bl	memcpy(PLT)	@
.LVL214:
	b	.L202		@
.LVL215:
.L210:
	.loc 1 944 5 is_stmt 0 view .LVU702
.LBE165:
.LBE164:
.LBE169:
.LBE177:
.LBB178:
	.loc 1 939 1 is_stmt 1 view .LVU703
.LBB145:
	.loc 1 941 3 view .LVU704
.LBE145:
.LBE178:
@ src/common/iobuf.c:1382: 	printf ("iobuf-%d.%d: ioctl '%s' peek\n",
	.loc 1 1382 2 is_stmt 0 view .LVU705
	mvn	r9, #0	@ iftmp.27_55,
.LBB179:
.LBB146:
@ src/common/iobuf.c:941:   size_t len = MAX_IOBUF_DESC;
	.loc 1 941 10 view .LVU706
	mov	r3, #32	@ tmp260,
	str	r3, [sp, #12]	@ tmp260, MEM[(unsigned int *)_17]
	.loc 1 943 3 is_stmt 1 view .LVU707
.LBE146:
.LBE179:
@ src/common/iobuf.c:1382: 	printf ("iobuf-%d.%d: ioctl '%s' peek\n",
	.loc 1 1382 2 is_stmt 0 view .LVU708
	mov	fp, r9	@ iftmp.26_53, iftmp.27_55
.LVL216:
.L216:
.LBB180:
.LBB147:
.LBB142:
.LBI142:
	.loc 1 939 1 is_stmt 1 view .LVU709
.LBB143:
	.loc 1 944 5 view .LVU710
	ldr	r1, .L256+52	@,
	add	r5, sp, #16	@ tmp273,,
	mov	r2, #2	@,
	mov	r0, r5	@, tmp273
.LPIC40:
	add	r1, pc, r1	@,
	bl	memcpy(PLT)	@
.LVL217:
	b	.L212		@
.LVL218:
.L254:
	.loc 1 944 5 is_stmt 0 view .LVU711
.LBE143:
.LBE142:
.LBE147:
.LBE180:
@ src/common/iobuf.c:1329: 	printf ("iobuf-*.*: ioctl '%s' invalidate\n",
	.loc 1 1329 2 view .LVU712
	ldr	r1, .L256+56	@ iftmp.19_33,
.LPIC30:
	add	r1, pc, r1	@ iftmp.19_33, iftmp.19_33
	b	.L196		@
.L208:
@ src/common/iobuf.c:1366:         printf ("iobuf-*.*: ioctl '%s' fsync\n",
	.loc 1 1366 9 view .LVU713
	ldr	r1, .L256+60	@,
	ldr	r0, .L256+64	@,
.LPIC43:
	add	r1, pc, r1	@,
.LPIC44:
	add	r0, pc, r0	@,
	bl	tfp_printf(PLT)	@
.LVL219:
	.loc 1 1369 7 is_stmt 1 view .LVU714
	b	.L213		@
.L257:
	.align	2
.L256:
	.word	.LC20-(.LPIC31+8)
	.word	_GLOBAL_OFFSET_TABLE_-(.LPIC32+8)
	.word	iobuf_debug_mode(GOT)
	.word	.LC26-(.LPIC41+8)
	.word	file_filter(GOT)
	.word	.LC27-(.LPIC42+8)
	.word	.LC21-(.LPIC34+8)
	.word	.LC22-(.LPIC35+8)
	.word	.LC24-(.LPIC38+8)
	.word	.LC25-(.LPIC39+8)
	.word	.LC23-(.LPIC37+8)
	.word	.LC6-(.LPIC33+8)
	.word	.LC6-(.LPIC36+8)
	.word	.LC6-(.LPIC40+8)
	.word	.LC6-(.LPIC30+8)
	.word	.LC28-(.LPIC43+8)
	.word	.LC24-(.LPIC44+8)
	.cfi_endproc
.LFE57:
	.size	iobuf_ioctl, .-iobuf_ioctl
	.section	.rodata.iobuf_fdopen.str1.4,"aMS",%progbits,1
	.align	2
.LC29:
	.ascii	"[fd %d]\000"
	.align	2
.LC30:
	.ascii	"\000"
	.align	2
.LC31:
	.ascii	"iobuf-%d.%d: fdopen%s '%s'\012\000"
	.section	.text.iobuf_fdopen,"ax",%progbits
	.align	2
	.global	iobuf_fdopen
	.syntax unified
	.arm
	.fpu softvfp
	.type	iobuf_fdopen, %function
iobuf_fdopen:
.LVL220:
.LFB56:
	.loc 1 1234 1 view -0
	.cfi_startproc
	@ args = 0, pretend = 0, frame = 8
	@ frame_needed = 0, uses_anonymous_args = 0
	.loc 1 1235 3 view .LVU716
@ src/common/iobuf.c:1234: {
	.loc 1 1234 1 is_stmt 0 view .LVU717
	mov	r3, r1	@ tmp141, mode
.LBB183:
.LBB184:
@ src/common/iobuf.c:1214:   a = iobuf_alloc (strchr (mode, 'w') ? IOBUF_OUTPUT : IOBUF_INPUT,
	.loc 1 1214 20 view .LVU718
	mov	r1, #119	@,
.LVL221:
	.loc 1 1214 20 view .LVU719
.LBE184:
.LBE183:
@ src/common/iobuf.c:1234: {
	.loc 1 1234 1 view .LVU720
	push	{r4, r5, r6, r7, r8, r9, lr}	@
	.cfi_def_cfa_offset 28
	.cfi_offset 4, -28
	.cfi_offset 5, -24
	.cfi_offset 6, -20
	.cfi_offset 7, -16
	.cfi_offset 8, -12
	.cfi_offset 9, -8
	.cfi_offset 14, -4
	mov	r7, r0	@ tmp140, fd
	ldr	r6, .L266	@ tmp129,
	sub	sp, sp, #20	@,,
	.cfi_def_cfa_offset 48
.LBB188:
.LBB185:
@ src/common/iobuf.c:1214:   a = iobuf_alloc (strchr (mode, 'w') ? IOBUF_OUTPUT : IOBUF_INPUT,
	.loc 1 1214 20 view .LVU721
	mov	r0, r3	@, tmp141
.LVL222:
	.loc 1 1214 20 view .LVU722
.LBE185:
.LBI183:
	.loc 1 1205 1 is_stmt 1 view .LVU723
.LBB186:
	.loc 1 1207 3 view .LVU724
	.loc 1 1208 3 view .LVU725
	.loc 1 1209 3 view .LVU726
	.loc 1 1210 3 view .LVU727
	.loc 1 1212 3 view .LVU728
	.loc 1 1214 3 view .LVU729
@ src/common/iobuf.c:1219:   fcx->keep_open = keep_open;
	.loc 1 1219 18 is_stmt 0 view .LVU730
	mov	r8, #0	@ tmp124,
.LBE186:
.LBE188:
@ src/common/iobuf.c:1234: {
	.loc 1 1234 1 view .LVU731
.LPIC46:
	add	r6, pc, r6	@ tmp129, tmp129
.LBB189:
.LBB187:
@ src/common/iobuf.c:1214:   a = iobuf_alloc (strchr (mode, 'w') ? IOBUF_OUTPUT : IOBUF_INPUT,
	.loc 1 1214 20 view .LVU732
	bl	strchr(PLT)	@
.LVL223:
@ src/common/iobuf.c:1214:   a = iobuf_alloc (strchr (mode, 'w') ? IOBUF_OUTPUT : IOBUF_INPUT,
	.loc 1 1214 7 view .LVU733
	cmp	r0, #0	@ tmp142,
	mov	r1, #8192	@,
	movne	r0, #2	@,
	moveq	r0, r8	@,
@ src/common/iobuf.c:1218:   fcx->print_only_name = 1;
	.loc 1 1218 24 view .LVU734
	mov	r9, #1	@ tmp123,
@ src/common/iobuf.c:1214:   a = iobuf_alloc (strchr (mode, 'w') ? IOBUF_OUTPUT : IOBUF_INPUT,
	.loc 1 1214 7 view .LVU735
	bl	iobuf_alloc(PLT)	@
.LVL224:
	mov	r5, r0	@ <retval>, tmp143
.LVL225:
	.loc 1 1216 3 is_stmt 1 view .LVU736
@ src/common/iobuf.c:1216:   fcx = xmalloc (sizeof *fcx + 20);
	.loc 1 1216 9 is_stmt 0 view .LVU737
	mov	r0, #76	@,
.LVL226:
	.loc 1 1216 9 view .LVU738
	bl	xmalloc(PLT)	@
.LVL227:
@ src/common/iobuf.c:1220:   sprintf (fcx->fname, "[fd %d]", fd);
	.loc 1 1220 3 view .LVU739
	ldr	r1, .L266+4	@,
	mov	r2, r7	@, fd
@ src/common/iobuf.c:1217:   fcx->fp = fp;
	.loc 1 1217 11 view .LVU740
	str	r7, [r0]	@ fd, fcx_9->fp
@ src/common/iobuf.c:1220:   sprintf (fcx->fname, "[fd %d]", fd);
	.loc 1 1220 15 view .LVU741
	add	r7, r0, #54	@ _10, fcx,
.LVL228:
@ src/common/iobuf.c:1220:   sprintf (fcx->fname, "[fd %d]", fd);
	.loc 1 1220 3 view .LVU742
.LPIC45:
	add	r1, pc, r1	@,
@ src/common/iobuf.c:1216:   fcx = xmalloc (sizeof *fcx + 20);
	.loc 1 1216 9 view .LVU743
	mov	r4, r0	@ fcx, tmp144
.LVL229:
	.loc 1 1217 3 is_stmt 1 view .LVU744
	.loc 1 1218 3 view .LVU745
@ src/common/iobuf.c:1218:   fcx->print_only_name = 1;
	.loc 1 1218 24 is_stmt 0 view .LVU746
	str	r9, [r0, #16]	@ tmp123, fcx_9->print_only_name
	.loc 1 1219 3 is_stmt 1 view .LVU747
@ src/common/iobuf.c:1219:   fcx->keep_open = keep_open;
	.loc 1 1219 18 is_stmt 0 view .LVU748
	str	r8, [r0, #4]	@ tmp124, fcx_9->keep_open
	.loc 1 1220 3 is_stmt 1 view .LVU749
	mov	r0, r7	@, _10
.LVL230:
	.loc 1 1220 3 is_stmt 0 view .LVU750
	bl	tfp_sprintf(PLT)	@
.LVL231:
	.loc 1 1221 3 is_stmt 1 view .LVU751
@ src/common/iobuf.c:1221:   a->filter = file_filter;
	.loc 1 1221 13 is_stmt 0 view .LVU752
	ldr	r3, .L266+8	@ tmp145,
@ src/common/iobuf.c:1223:   file_filter (fcx, IOBUFCTRL_INIT, NULL, NULL, &len);
	.loc 1 1223 3 view .LVU753
	mov	r1, r9	@, tmp123
	mov	r0, r4	@, fcx
	mov	r2, r8	@, tmp3
@ src/common/iobuf.c:1221:   a->filter = file_filter;
	.loc 1 1221 13 view .LVU754
	ldr	r3, [r6, r3]	@ tmp128,
@ src/common/iobuf.c:1222:   a->filter_ov = fcx;
	.loc 1 1222 16 view .LVU755
	str	r4, [r5, #48]	@ fcx, a_8->filter_ov
@ src/common/iobuf.c:1221:   a->filter = file_filter;
	.loc 1 1221 13 view .LVU756
	str	r3, [r5, #44]	@ tmp128, a_8->filter
	.loc 1 1222 3 is_stmt 1 view .LVU757
	.loc 1 1223 3 view .LVU758
	add	r3, sp, #12	@ tmp130,,
	str	r3, [sp]	@ tmp130,
	mov	r3, r8	@, tmp124
	bl	file_filter(PLT)	@
.LVL232:
	.loc 1 1224 3 view .LVU759
@ src/common/iobuf.c:1224:   if (DBG_IOBUF)
	.loc 1 1224 7 is_stmt 0 view .LVU760
	ldr	r3, .L266+12	@ tmp146,
	ldr	r3, [r6, r3]	@ tmp131,
@ src/common/iobuf.c:1224:   if (DBG_IOBUF)
	.loc 1 1224 6 view .LVU761
	ldr	r3, [r3]	@ iobuf_debug_mode, iobuf_debug_mode
	cmp	r3, r8	@ iobuf_debug_mode,
	beq	.L260		@,
	.loc 1 1225 5 is_stmt 1 view .LVU762
	ldr	r3, .L266+16	@,
	ldr	r0, .L266+20	@,
	ldr	r2, [r5, #68]	@ a_8->subno, a_8->subno
	ldr	r1, [r5, #64]	@ a_8->no, a_8->no
.LPIC47:
	add	r3, pc, r3	@,
.LPIC48:
	add	r0, pc, r0	@,
	str	r7, [sp]	@ _10,
	bl	tfp_printf(PLT)	@
.LVL233:
.L260:
	.loc 1 1227 3 view .LVU763
	mov	r3, #0	@,
	mov	r2, #1	@,
	mov	r1, #3	@,
	mov	r0, r5	@, <retval>
	bl	iobuf_ioctl(PLT)	@
.LVL234:
	.loc 1 1228 3 view .LVU764
	.loc 1 1228 3 is_stmt 0 view .LVU765
.LBE187:
.LBE189:
@ src/common/iobuf.c:1236: }
	.loc 1 1236 1 view .LVU766
	mov	r0, r5	@, <retval>
	add	sp, sp, #20	@,,
	.cfi_def_cfa_offset 28
	@ sp needed	@
	pop	{r4, r5, r6, r7, r8, r9, pc}	@
.L267:
	.align	2
.L266:
	.word	_GLOBAL_OFFSET_TABLE_-(.LPIC46+8)
	.word	.LC29-(.LPIC45+8)
	.word	file_filter(GOT)
	.word	iobuf_debug_mode(GOT)
	.word	.LC30-(.LPIC47+8)
	.word	.LC31-(.LPIC48+8)
	.cfi_endproc
.LFE56:
	.size	iobuf_fdopen, .-iobuf_fdopen
	.section	.rodata.iobuf_push_filter2.str1.4,"aMS",%progbits,1
	.align	2
.LC32:
	.ascii	"i/o filter too deeply nested - corrupted data?\012\000"
	.align	2
.LC33:
	.ascii	"iobuf-%d.%d: push '%s'\012\000"
	.section	.text.iobuf_push_filter2,"ax",%progbits
	.align	2
	.global	iobuf_push_filter2
	.syntax unified
	.arm
	.fpu softvfp
	.type	iobuf_push_filter2, %function
iobuf_push_filter2:
.LVL235:
.LFB59:
	.loc 1 1418 1 is_stmt 1 view -0
	.cfi_startproc
	@ args = 0, pretend = 0, frame = 40
	@ frame_needed = 0, uses_anonymous_args = 0
	.loc 1 1420 3 view .LVU768
	.loc 1 1421 3 view .LVU769
@ src/common/iobuf.c:1418: {
	.loc 1 1418 1 is_stmt 0 view .LVU770
	push	{r4, r5, r6, r7, r8, r9, lr}	@
	.cfi_def_cfa_offset 28
	.cfi_offset 4, -28
	.cfi_offset 5, -24
	.cfi_offset 6, -20
	.cfi_offset 7, -16
	.cfi_offset 8, -12
	.cfi_offset 9, -8
	.cfi_offset 14, -4
	sub	sp, sp, #52	@,,
	.cfi_def_cfa_offset 80
@ src/common/iobuf.c:1424:   if (a->use == IOBUF_OUTPUT && (rc = filter_flush (a)))
	.loc 1 1424 6 view .LVU771
	ldrb	ip, [r0]	@ zero_extendqisi2	@ a_25(D)->use, a_25(D)->use
@ src/common/iobuf.c:1418: {
	.loc 1 1418 1 view .LVU772
	mov	r9, r3	@ rel_ov, tmp181
	ldr	r8, .L298	@ tmp159,
@ src/common/iobuf.c:1421:   size_t dummy_len = 0;
	.loc 1 1421 10 view .LVU773
	mov	r3, #0	@ tmp134,
.LVL236:
	.loc 1 1421 10 view .LVU774
	str	r3, [sp, #8]	@ tmp134, dummy_len
	.loc 1 1422 3 is_stmt 1 view .LVU775
.LVL237:
	.loc 1 1424 3 view .LVU776
@ src/common/iobuf.c:1424:   if (a->use == IOBUF_OUTPUT && (rc = filter_flush (a)))
	.loc 1 1424 6 is_stmt 0 view .LVU777
	cmp	ip, #2	@ a_25(D)->use,
@ src/common/iobuf.c:1418: {
	.loc 1 1418 1 view .LVU778
.LPIC50:
	add	r8, pc, r8	@ tmp159, tmp159
	mov	r4, r0	@ a, tmp178
	mov	r5, r1	@ f, tmp179
	mov	r7, r2	@ ov, tmp180
@ src/common/iobuf.c:1424:   if (a->use == IOBUF_OUTPUT && (rc = filter_flush (a)))
	.loc 1 1424 6 view .LVU779
	beq	.L269		@,
.LVL238:
.L273:
	.loc 1 1427 3 is_stmt 1 view .LVU780
@ src/common/iobuf.c:1427:   if (a->subno >= MAX_NESTING_FILTER)
	.loc 1 1427 6 is_stmt 0 view .LVU781
	ldr	r3, [r4, #68]	@ a_25(D)->subno, a_25(D)->subno
	cmp	r3, #63	@ a_25(D)->subno,
	bgt	.L294		@,
	.loc 1 1478 3 is_stmt 1 view .LVU782
@ src/common/iobuf.c:1478:   b = xmalloc (sizeof *b);
	.loc 1 1478 7 is_stmt 0 view .LVU783
	mov	r0, #72	@,
	bl	xmalloc(PLT)	@
.LVL239:
@ src/common/iobuf.c:1479:   memcpy (b, a, sizeof *b);
	.loc 1 1479 3 view .LVU784
	mov	r2, #72	@,
	mov	r1, r4	@, a
@ src/common/iobuf.c:1478:   b = xmalloc (sizeof *b);
	.loc 1 1478 7 view .LVU785
	mov	r6, r0	@ b, tmp183
.LVL240:
	.loc 1 1479 3 is_stmt 1 view .LVU786
	bl	memcpy(PLT)	@
.LVL241:
	.loc 1 1485 3 view .LVU787
@ src/common/iobuf.c:1489:   if (a->use == IOBUF_OUTPUT_TEMP)
	.loc 1 1489 8 is_stmt 0 view .LVU788
	ldrb	r2, [r4]	@ zero_extendqisi2	@ _3, a_25(D)->use
@ src/common/iobuf.c:1485:   a->filter = NULL;
	.loc 1 1485 13 view .LVU789
	mov	r3, #0	@ tmp139,
	str	r3, [r4, #44]	@ tmp139, a_25(D)->filter
	.loc 1 1486 3 is_stmt 1 view .LVU790
@ src/common/iobuf.c:1486:   a->filter_ov = NULL;
	.loc 1 1486 16 is_stmt 0 view .LVU791
	str	r3, [r4, #48]	@ tmp139, a_25(D)->filter_ov
	.loc 1 1487 3 is_stmt 1 view .LVU792
@ src/common/iobuf.c:1489:   if (a->use == IOBUF_OUTPUT_TEMP)
	.loc 1 1489 6 is_stmt 0 view .LVU793
	cmp	r2, #3	@ _3,
@ src/common/iobuf.c:1487:   a->filter_ov_owner = 0;
	.loc 1 1487 22 view .LVU794
	str	r3, [r4, #52]	@ tmp139, a_25(D)->filter_ov_owner
	.loc 1 1488 3 is_stmt 1 view .LVU795
@ src/common/iobuf.c:1488:   a->filter_eof = 0;
	.loc 1 1488 17 is_stmt 0 view .LVU796
	str	r3, [r4, #36]	@ tmp139, a_25(D)->filter_eof
	.loc 1 1489 3 is_stmt 1 view .LVU797
@ src/common/iobuf.c:1489:   if (a->use == IOBUF_OUTPUT_TEMP)
	.loc 1 1489 6 is_stmt 0 view .LVU798
	beq	.L295		@,
	.loc 1 1505 8 is_stmt 1 view .LVU799
@ src/common/iobuf.c:1505:   else if (a->use == IOBUF_INPUT_TEMP)
	.loc 1 1505 11 is_stmt 0 view .LVU800
	cmp	r2, #1	@ _3,
@ src/common/iobuf.c:1508:       a->use = IOBUF_INPUT;
	.loc 1 1508 14 view .LVU801
	strbeq	r3, [r4]	@ tmp139, a_25(D)->use
@ src/common/iobuf.c:1509:       a->d.size = IOBUF_BUFFER_SIZE;
	.loc 1 1509 17 view .LVU802
	moveq	r0, #8192	@ tmp148,
@ src/common/iobuf.c:1523:   a->d.buf = xmalloc (a->d.size);
	.loc 1 1523 14 view .LVU803
	ldrne	r0, [r4, #20]	@ pretmp_77, a_25(D)->d.size
	.loc 1 1508 7 is_stmt 1 view .LVU804
	.loc 1 1509 7 view .LVU805
@ src/common/iobuf.c:1509:       a->d.size = IOBUF_BUFFER_SIZE;
	.loc 1 1509 17 is_stmt 0 view .LVU806
	streq	r0, [r4, #20]	@ tmp148, a_25(D)->d.size
.L275:
	.loc 1 1523 3 is_stmt 1 view .LVU807
@ src/common/iobuf.c:1523:   a->d.buf = xmalloc (a->d.size);
	.loc 1 1523 14 is_stmt 0 view .LVU808
	bl	xmalloc(PLT)	@
.LVL242:
@ src/common/iobuf.c:1528:   a->ntotal = b->ntotal + b->nbytes;
	.loc 1 1528 25 view .LVU809
	ldrd	r2, [r6, #8]	@, b,
@ src/common/iobuf.c:1532:   a->chain = b;
	.loc 1 1532 12 view .LVU810
	str	r6, [r4, #60]	@ b, a_25(D)->chain
@ src/common/iobuf.c:1539:   a->subno = b->subno + 1;
	.loc 1 1539 23 view .LVU811
	ldr	r6, [r6, #68]	@ b_29->subno, b_29->subno
.LVL243:
@ src/common/iobuf.c:1528:   a->ntotal = b->ntotal + b->nbytes;
	.loc 1 1528 25 view .LVU812
	add	r3, r3, r2	@ tmp151, b_29->ntotal, b_29->nbytes
@ src/common/iobuf.c:1541:   if (DBG_IOBUF)
	.loc 1 1541 7 view .LVU813
	ldr	r2, .L298+4	@ tmp186,
@ src/common/iobuf.c:1539:   a->subno = b->subno + 1;
	.loc 1 1539 23 view .LVU814
	add	r6, r6, #1	@ _10, b_29->subno,
@ src/common/iobuf.c:1528:   a->ntotal = b->ntotal + b->nbytes;
	.loc 1 1528 13 view .LVU815
	str	r3, [r4, #12]	@ tmp151, a_25(D)->ntotal
@ src/common/iobuf.c:1524:   a->d.len = 0;
	.loc 1 1524 12 view .LVU816
	mov	r3, #0	@ tmp149,
@ src/common/iobuf.c:1523:   a->d.buf = xmalloc (a->d.size);
	.loc 1 1523 12 view .LVU817
	str	r0, [r4, #32]	@ tmp184, a_25(D)->d.buf
	.loc 1 1524 3 is_stmt 1 view .LVU818
@ src/common/iobuf.c:1537:   a->filter_ov_owner = rel_ov;
	.loc 1 1537 22 is_stmt 0 view .LVU819
	str	r9, [r4, #52]	@ rel_ov, a_25(D)->filter_ov_owner
@ src/common/iobuf.c:1535:   a->filter = f;
	.loc 1 1535 13 view .LVU820
	str	r5, [r4, #44]	@ f, a_25(D)->filter
@ src/common/iobuf.c:1536:   a->filter_ov = ov;
	.loc 1 1536 16 view .LVU821
	str	r7, [r4, #48]	@ ov, a_25(D)->filter_ov
@ src/common/iobuf.c:1539:   a->subno = b->subno + 1;
	.loc 1 1539 12 view .LVU822
	str	r6, [r4, #68]	@ _10, a_25(D)->subno
@ src/common/iobuf.c:1524:   a->d.len = 0;
	.loc 1 1524 12 view .LVU823
	str	r3, [r4, #28]	@ tmp149, a_25(D)->d.len
	.loc 1 1525 3 is_stmt 1 view .LVU824
@ src/common/iobuf.c:1525:   a->d.start = 0;
	.loc 1 1525 14 is_stmt 0 view .LVU825
	str	r3, [r4, #24]	@ tmp149, a_25(D)->d.start
	.loc 1 1528 3 is_stmt 1 view .LVU826
	.loc 1 1529 3 view .LVU827
@ src/common/iobuf.c:1529:   a->nlimit = a->nbytes = 0;
	.loc 1 1529 25 is_stmt 0 view .LVU828
	str	r3, [r4, #8]	@ tmp149, a_25(D)->nbytes
@ src/common/iobuf.c:1529:   a->nlimit = a->nbytes = 0;
	.loc 1 1529 13 view .LVU829
	str	r3, [r4, #4]	@ tmp149, a_25(D)->nlimit
	.loc 1 1530 3 is_stmt 1 view .LVU830
@ src/common/iobuf.c:1530:   a->nofast = 0;
	.loc 1 1530 13 is_stmt 0 view .LVU831
	str	r3, [r4, #16]	@ tmp149, a_25(D)->nofast
	.loc 1 1532 3 is_stmt 1 view .LVU832
	.loc 1 1535 3 view .LVU833
	.loc 1 1536 3 view .LVU834
	.loc 1 1537 3 view .LVU835
	.loc 1 1539 3 view .LVU836
	.loc 1 1541 3 view .LVU837
@ src/common/iobuf.c:1541:   if (DBG_IOBUF)
	.loc 1 1541 7 is_stmt 0 view .LVU838
	ldr	r8, [r8, r2]	@ tmp177,
@ src/common/iobuf.c:1541:   if (DBG_IOBUF)
	.loc 1 1541 6 view .LVU839
	ldr	r2, [r8]	@ iobuf_debug_mode, iobuf_debug_mode
	cmp	r2, r3	@ iobuf_debug_mode,
	bne	.L296		@,
.LVL244:
.L277:
	.loc 1 1550 3 is_stmt 1 view .LVU840
@ src/common/iobuf.c:1550:   if (a->filter && (rc = a->filter (a->filter_ov, IOBUFCTRL_INIT, a->chain,
	.loc 1 1550 6 is_stmt 0 view .LVU841
	cmp	r5, #0	@ f,
	beq	.L268		@,
@ src/common/iobuf.c:1550:   if (a->filter && (rc = a->filter (a->filter_ov, IOBUFCTRL_INIT, a->chain,
	.loc 1 1550 26 discriminator 1 view .LVU842
	ldr	r2, [r4, #60]	@, a_25(D)->chain
	add	r1, sp, #8	@ tmp174,,
	ldr	r0, [r4, #48]	@, a_25(D)->filter_ov
	mov	r3, #0	@,
	str	r1, [sp]	@ tmp174,
	mov	r1, #1	@,
	blx	r5		@ f
.LVL245:
.L268:
@ src/common/iobuf.c:1554: }
	.loc 1 1554 1 view .LVU843
	add	sp, sp, #52	@,,
	.cfi_remember_state
	.cfi_def_cfa_offset 28
	@ sp needed	@
	pop	{r4, r5, r6, r7, r8, r9, pc}	@
.LVL246:
.L295:
	.cfi_restore_state
	.loc 1 1497 7 is_stmt 1 view .LVU844
@ src/common/iobuf.c:1503:       a->d.size = IOBUF_BUFFER_SIZE;
	.loc 1 1503 17 is_stmt 0 view .LVU845
	mov	r0, #8192	@ tmp145,
@ src/common/iobuf.c:1497:       a->use = IOBUF_OUTPUT;
	.loc 1 1497 14 view .LVU846
	mov	r3, #2	@ tmp143,
@ src/common/iobuf.c:1503:       a->d.size = IOBUF_BUFFER_SIZE;
	.loc 1 1503 17 view .LVU847
	str	r0, [r4, #20]	@ tmp145, a_25(D)->d.size
@ src/common/iobuf.c:1497:       a->use = IOBUF_OUTPUT;
	.loc 1 1497 14 view .LVU848
	strb	r3, [r4]	@ tmp143, a_25(D)->use
	.loc 1 1503 7 is_stmt 1 view .LVU849
	b	.L275		@
.LVL247:
.L294:
	.loc 1 1429 7 view .LVU850
	ldr	r0, .L298+8	@,
.LPIC49:
	add	r0, pc, r0	@,
	bl	tfp_printf(PLT)	@
.LVL248:
	.loc 1 1430 7 view .LVU851
@ src/common/iobuf.c:1430:       return GPG_ERR_BAD_DATA;
	.loc 1 1430 14 is_stmt 0 view .LVU852
	mov	r0, #89	@ <retval>,
@ src/common/iobuf.c:1554: }
	.loc 1 1554 1 view .LVU853
	add	sp, sp, #52	@,,
	.cfi_remember_state
	.cfi_def_cfa_offset 28
	@ sp needed	@
	pop	{r4, r5, r6, r7, r8, r9, pc}	@
.LVL249:
.L296:
	.cfi_restore_state
.LBB197:
	.loc 1 1543 7 is_stmt 1 view .LVU854
	.loc 1 1544 7 view .LVU855
.LBB198:
.LBB199:
@ src/common/iobuf.c:943:   if (! a || ! a->filter)
	.loc 1 943 11 is_stmt 0 view .LVU856
	cmp	r5, r3	@ f,
@ src/common/iobuf.c:941:   size_t len = MAX_IOBUF_DESC;
	.loc 1 941 10 view .LVU857
	mov	r2, #32	@ tmp161,
.LBE199:
.LBE198:
@ src/common/iobuf.c:1544:       printf ("iobuf-%d.%d: push '%s'\n",
	.loc 1 1544 7 view .LVU858
	ldr	r9, [r4, #64]	@ _12, a_25(D)->no
.LVL250:
.LBB204:
.LBI198:
	.loc 1 939 1 is_stmt 1 view .LVU859
.LBB202:
	.loc 1 941 3 view .LVU860
@ src/common/iobuf.c:941:   size_t len = MAX_IOBUF_DESC;
	.loc 1 941 10 is_stmt 0 view .LVU861
	str	r2, [sp, #12]	@ tmp161, len
	.loc 1 943 3 is_stmt 1 view .LVU862
@ src/common/iobuf.c:943:   if (! a || ! a->filter)
	.loc 1 943 11 is_stmt 0 view .LVU863
	beq	.L297		@,
	.loc 1 946 5 is_stmt 1 view .LVU864
	mov	r2, r3	@, tmp149
	mov	r0, r7	@, ov
	add	r3, sp, #12	@ tmp166,,
	add	r7, sp, #16	@ tmp176,,
	str	r3, [sp]	@ tmp166,
	mov	r1, #5	@,
	mov	r3, r7	@, tmp176
	blx	r5		@ f
.LVL251:
.L279:
	.loc 1 948 3 view .LVU865
	.loc 1 948 3 is_stmt 0 view .LVU866
.LBE202:
.LBE204:
@ src/common/iobuf.c:1544:       printf ("iobuf-%d.%d: push '%s'\n",
	.loc 1 1544 7 view .LVU867
	ldr	r0, .L298+12	@,
	mov	r3, r7	@, tmp176
	mov	r2, r6	@, _10
	mov	r1, r9	@, _12
.LPIC52:
	add	r0, pc, r0	@,
	bl	tfp_printf(PLT)	@
.LVL252:
	.loc 1 1546 7 is_stmt 1 view .LVU868
.LBB205:
.LBI205:
	.loc 1 952 1 view .LVU869
.LBB206:
	.loc 1 954 3 view .LVU870
@ src/common/iobuf.c:954:   if (!DBG_IOBUF)
	.loc 1 954 6 is_stmt 0 view .LVU871
	ldr	r3, [r8]	@ iobuf_debug_mode, iobuf_debug_mode
	cmp	r3, #0	@ iobuf_debug_mode,
	beq	.L280		@,
	mov	r0, r4	@, a
	bl	print_chain.part.0(PLT)	@
.LVL253:
.L280:
	.loc 1 954 6 view .LVU872
.LBE206:
.LBE205:
.LBE197:
@ src/common/iobuf.c:1550:   if (a->filter && (rc = a->filter (a->filter_ov, IOBUFCTRL_INIT, a->chain,
	.loc 1 1550 8 view .LVU873
	ldr	r5, [r4, #44]	@ f, a_25(D)->filter
.LVL254:
	.loc 1 1550 8 view .LVU874
	b	.L277		@
.LVL255:
.L269:
@ src/common/iobuf.c:1424:   if (a->use == IOBUF_OUTPUT && (rc = filter_flush (a)))
	.loc 1 1424 39 discriminator 1 view .LVU875
	bl	filter_flush(PLT)	@
.LVL256:
@ src/common/iobuf.c:1424:   if (a->use == IOBUF_OUTPUT && (rc = filter_flush (a)))
	.loc 1 1424 30 discriminator 1 view .LVU876
	cmp	r0, #0	@ <retval>
	.loc 1 1424 30 discriminator 1 view .LVU877
	beq	.L273		@,
	b	.L268		@
.LVL257:
.L297:
.LBB208:
.LBB207:
.LBB203:
.LBB200:
.LBI200:
	.loc 1 939 1 is_stmt 1 view .LVU878
.LBB201:
	.loc 1 944 5 view .LVU879
	ldr	r1, .L298+16	@,
	add	r7, sp, #16	@ tmp176,,
	mov	r2, #2	@,
	mov	r0, r7	@, tmp176
.LPIC51:
	add	r1, pc, r1	@,
	bl	memcpy(PLT)	@
.LVL258:
	.loc 1 944 5 is_stmt 0 view .LVU880
	b	.L279		@
.L299:
	.align	2
.L298:
	.word	_GLOBAL_OFFSET_TABLE_-(.LPIC50+8)
	.word	iobuf_debug_mode(GOT)
	.word	.LC32-(.LPIC49+8)
	.word	.LC33-(.LPIC52+8)
	.word	.LC6-(.LPIC51+8)
.LBE201:
.LBE200:
.LBE203:
.LBE207:
.LBE208:
	.cfi_endproc
.LFE59:
	.size	iobuf_push_filter2, .-iobuf_push_filter2
	.section	.text.iobuf_push_filter,"ax",%progbits
	.align	2
	.global	iobuf_push_filter
	.syntax unified
	.arm
	.fpu softvfp
	.type	iobuf_push_filter, %function
iobuf_push_filter:
.LVL259:
.LFB58:
	.loc 1 1408 1 is_stmt 1 view -0
	.cfi_startproc
	@ args = 0, pretend = 0, frame = 0
	@ frame_needed = 0, uses_anonymous_args = 0
	@ link register save eliminated.
	.loc 1 1410 3 view .LVU882
@ src/common/iobuf.c:1410:   return iobuf_push_filter2 (a, f, ov, 0);
	.loc 1 1410 10 is_stmt 0 view .LVU883
	mov	r3, #0	@,
	b	iobuf_push_filter2(PLT)	@
.LVL260:
	.loc 1 1410 10 view .LVU884
	.cfi_endproc
.LFE58:
	.size	iobuf_push_filter, .-iobuf_push_filter
	.section	.rodata.iobuf_pop_filter.str1.4,"aMS",%progbits,1
	.align	2
.LC34:
	.ascii	"iobuf_pop_filter %d %d\000"
	.align	2
.LC35:
	.ascii	"iobuf-%d.%d: pop '%s'\012\000"
	.align	2
.LC36:
	.ascii	"iobuf_pop_filter: no filter %d\012\000"
	.align	2
.LC37:
	.ascii	"can't remove the last filter from the chain\012\000"
	.align	2
.LC38:
	.ascii	"iobuf_pop_filter: removed first filter %d\012\000"
	.align	2
.LC39:
	.ascii	"iobuf-%d.%d: popped filter\012\000"
	.align	2
.LC40:
	.ascii	"Ohh jeee, trying to remove a head filter\012\000"
	.align	2
.LC41:
	.ascii	"Ohh jeee, trying to remove an intermediate filter\012"
	.ascii	"\000"
	.align	2
.LC42:
	.ascii	"iobuf_pop_filter(): filter function not found\012\000"
	.section	.text.iobuf_pop_filter,"ax",%progbits
	.align	2
	.global	iobuf_pop_filter
	.syntax unified
	.arm
	.fpu softvfp
	.type	iobuf_pop_filter, %function
iobuf_pop_filter:
.LVL261:
.LFB60:
	.loc 1 1563 1 is_stmt 1 view -0
	.cfi_startproc
	@ args = 0, pretend = 0, frame = 40
	@ frame_needed = 0, uses_anonymous_args = 0
	.loc 1 1564 3 view .LVU886
@ src/common/iobuf.c:1563: {
	.loc 1 1563 1 is_stmt 0 view .LVU887
	push	{r4, r5, r6, r7, r8, r9, r10, fp, lr}	@
	.cfi_def_cfa_offset 36
	.cfi_offset 4, -36
	.cfi_offset 5, -32
	.cfi_offset 6, -28
	.cfi_offset 7, -24
	.cfi_offset 8, -20
	.cfi_offset 9, -16
	.cfi_offset 10, -12
	.cfi_offset 11, -8
	.cfi_offset 14, -4
	mov	r6, r0	@ tmp200, a
@ src/common/iobuf.c:1564:   printf("iobuf_pop_filter %d %d",a->nbytes);
	.loc 1 1564 3 view .LVU888
	ldr	r0, .L342	@,
.LVL262:
@ src/common/iobuf.c:1563: {
	.loc 1 1563 1 view .LVU889
	sub	sp, sp, #52	@,,
	.cfi_def_cfa_offset 88
@ src/common/iobuf.c:1563: {
	.loc 1 1563 1 view .LVU890
	ldr	r4, .L342+4	@ tmp151,
	mov	r8, r1	@ tmp201, f
@ src/common/iobuf.c:1564:   printf("iobuf_pop_filter %d %d",a->nbytes);
	.loc 1 1564 3 view .LVU891
.LPIC53:
	add	r0, pc, r0	@,
@ src/common/iobuf.c:1563: {
	.loc 1 1563 1 view .LVU892
	mov	r9, r2	@ ov, tmp202
@ src/common/iobuf.c:1564:   printf("iobuf_pop_filter %d %d",a->nbytes);
	.loc 1 1564 3 view .LVU893
	ldr	r1, [r6, #8]	@, a_41(D)->nbytes
.LVL263:
@ src/common/iobuf.c:1563: {
	.loc 1 1563 1 view .LVU894
.LPIC54:
	add	r4, pc, r4	@ tmp151, tmp151
@ src/common/iobuf.c:1564:   printf("iobuf_pop_filter %d %d",a->nbytes);
	.loc 1 1564 3 view .LVU895
	bl	tfp_printf(PLT)	@
.LVL264:
	.loc 1 1565 3 is_stmt 1 view .LVU896
	.loc 1 1566 3 view .LVU897
@ src/common/iobuf.c:1570:   if (DBG_IOBUF)
	.loc 1 1570 7 is_stmt 0 view .LVU898
	ldr	r1, .L342+8	@ tmp205,
@ src/common/iobuf.c:1566:   size_t dummy_len = 0;
	.loc 1 1566 10 view .LVU899
	mov	r2, #0	@ tmp149,
	str	r2, [sp, #8]	@ tmp149, dummy_len
	.loc 1 1567 3 is_stmt 1 view .LVU900
.LVL265:
	.loc 1 1568 3 view .LVU901
	.loc 1 1570 3 view .LVU902
@ src/common/iobuf.c:1563: {
	.loc 1 1563 1 is_stmt 0 view .LVU903
	mov	r3, r4	@ tmp151, tmp151
@ src/common/iobuf.c:1570:   if (DBG_IOBUF)
	.loc 1 1570 7 view .LVU904
	ldr	r7, [r4, r1]	@ tmp199,
@ src/common/iobuf.c:1570:   if (DBG_IOBUF)
	.loc 1 1570 6 view .LVU905
	ldr	r3, [r7]	@ iobuf_debug_mode, iobuf_debug_mode
	cmp	r3, r2	@ iobuf_debug_mode,
	bne	.L334		@,
.L302:
	.loc 1 1573 3 is_stmt 1 view .LVU906
@ src/common/iobuf.c:1573:   if (a->use == IOBUF_INPUT_TEMP || a->use == IOBUF_OUTPUT_TEMP)
	.loc 1 1573 8 is_stmt 0 view .LVU907
	ldrb	r2, [r6]	@ zero_extendqisi2	@ _46, a_41(D)->use
@ src/common/iobuf.c:1573:   if (a->use == IOBUF_INPUT_TEMP || a->use == IOBUF_OUTPUT_TEMP)
	.loc 1 1573 6 view .LVU908
	and	r3, r2, #253	@ tmp164, _46,
	cmp	r3, #1	@ tmp164,
	beq	.L335		@,
	.loc 1 1579 3 is_stmt 1 view .LVU909
@ src/common/iobuf.c:1579:   if (!a->filter)
	.loc 1 1579 9 is_stmt 0 view .LVU910
	ldr	r5, [r6, #44]	@ pretmp_17, a_41(D)->filter
@ src/common/iobuf.c:1579:   if (!a->filter)
	.loc 1 1579 6 view .LVU911
	cmp	r5, #0	@ pretmp_17,
	movne	r4, r6	@ b, a
	bne	.L307		@,
	b	.L336		@
.LVL266:
.L308:
@ src/common/iobuf.c:1590:   for (b = a; b; b = b->chain)
	.loc 1 1590 20 discriminator 2 view .LVU912
	ldr	r4, [r4, #60]	@ b, b_111->chain
.LVL267:
	.loc 1 1590 15 is_stmt 1 discriminator 2 view .LVU913
@ src/common/iobuf.c:1590:   for (b = a; b; b = b->chain)
	.loc 1 1590 3 is_stmt 0 discriminator 2 view .LVU914
	cmp	r4, #0	@ b,
	beq	.L310		@,
@ src/common/iobuf.c:1591:     if (b->filter == f && (!ov || b->filter_ov == ov))
	.loc 1 1591 10 view .LVU915
	ldr	r5, [r4, #44]	@ pretmp_17, b_49->filter
.LVL268:
.L307:
	.loc 1 1591 5 is_stmt 1 view .LVU916
	.loc 1 1590 18 view .LVU917
@ src/common/iobuf.c:1591:     if (b->filter == f && (!ov || b->filter_ov == ov))
	.loc 1 1591 8 is_stmt 0 view .LVU918
	cmp	r8, r5	@ f, pretmp_17
	bne	.L308		@,
@ src/common/iobuf.c:1591:     if (b->filter == f && (!ov || b->filter_ov == ov))
	.loc 1 1591 24 discriminator 1 view .LVU919
	cmp	r9, #0	@ ov,
	beq	.L309		@,
@ src/common/iobuf.c:1591:     if (b->filter == f && (!ov || b->filter_ov == ov))
	.loc 1 1591 32 discriminator 2 view .LVU920
	ldr	r3, [r4, #48]	@ b_111->filter_ov, b_111->filter_ov
	cmp	r3, r9	@ b_111->filter_ov, ov
	bne	.L308		@,
.L309:
	.loc 1 1597 3 is_stmt 1 view .LVU921
@ src/common/iobuf.c:1597:   if (a->use == IOBUF_OUTPUT && (rc = filter_flush (b)))
	.loc 1 1597 6 is_stmt 0 view .LVU922
	cmp	r2, #2	@ _46,
	beq	.L311		@,
.LVL269:
.L314:
	.loc 1 1604 3 is_stmt 1 view .LVU923
@ src/common/iobuf.c:1604:   if (b->filter && (rc = b->filter (b->filter_ov, IOBUFCTRL_FREE, b->chain,
	.loc 1 1604 8 is_stmt 0 view .LVU924
	ldr	r5, [r4, #44]	@ _16, b_110->filter
@ src/common/iobuf.c:1604:   if (b->filter && (rc = b->filter (b->filter_ov, IOBUFCTRL_FREE, b->chain,
	.loc 1 1604 6 view .LVU925
	cmp	r5, #0	@ _16,
	beq	.L313		@,
@ src/common/iobuf.c:1604:   if (b->filter && (rc = b->filter (b->filter_ov, IOBUFCTRL_FREE, b->chain,
	.loc 1 1604 26 discriminator 1 view .LVU926
	ldr	r2, [r4, #60]	@ b_110->chain, b_110->chain
	add	r3, sp, #8	@ tmp175,,
	ldr	r0, [r4, #48]	@ b_110->filter_ov, b_110->filter_ov
	mov	r1, #2	@,
	str	r3, [sp]	@ tmp175,
	mov	r3, #0	@,
	blx	r5		@ _16
.LVL270:
@ src/common/iobuf.c:1604:   if (b->filter && (rc = b->filter (b->filter_ov, IOBUFCTRL_FREE, b->chain,
	.loc 1 1604 17 discriminator 1 view .LVU927
	cmp	r0, #0	@ <retval>
	.loc 1 1604 17 discriminator 1 view .LVU928
	bne	.L301		@,
.LVL271:
.L313:
	.loc 1 1610 3 is_stmt 1 view .LVU929
@ src/common/iobuf.c:1610:   if (b->filter_ov && b->filter_ov_owner)
	.loc 1 1610 8 is_stmt 0 view .LVU930
	ldr	r0, [r4, #48]	@ _20, b_110->filter_ov
@ src/common/iobuf.c:1610:   if (b->filter_ov && b->filter_ov_owner)
	.loc 1 1610 6 view .LVU931
	cmp	r0, #0	@ _20,
	beq	.L316		@,
@ src/common/iobuf.c:1610:   if (b->filter_ov && b->filter_ov_owner)
	.loc 1 1610 20 discriminator 1 view .LVU932
	ldr	r3, [r4, #52]	@ b_110->filter_ov_owner, b_110->filter_ov_owner
	cmp	r3, #0	@ b_110->filter_ov_owner,
	bne	.L337		@,
.L316:
	.loc 1 1618 3 is_stmt 1 view .LVU933
@ src/common/iobuf.c:1618:   if (a == b && !b->chain)
	.loc 1 1618 6 is_stmt 0 view .LVU934
	cmp	r6, r4	@ a, b
	beq	.L338		@,
	.loc 1 1620 8 is_stmt 1 view .LVU935
	.loc 1 1634 8 view .LVU936
@ src/common/iobuf.c:1634:   else if (!b->chain)
	.loc 1 1634 11 is_stmt 0 view .LVU937
	ldr	r5, [r4, #60]	@ b_110->chain, b_110->chain
	cmp	r5, #0	@ b_110->chain,
	beq	.L339		@,
	.loc 1 1640 7 is_stmt 1 view .LVU938
	ldr	r0, .L342+12	@,
.LPIC62:
	add	r0, pc, r0	@,
	bl	tfp_printf(PLT)	@
.LVL272:
@ src/common/iobuf.c:1643:   return rc;
	.loc 1 1643 10 is_stmt 0 view .LVU939
	mov	r0, #0	@ <retval>,
.LVL273:
.L301:
@ src/common/iobuf.c:1644: }
	.loc 1 1644 1 view .LVU940
	add	sp, sp, #52	@,,
	.cfi_remember_state
	.cfi_def_cfa_offset 36
	@ sp needed	@
	pop	{r4, r5, r6, r7, r8, r9, r10, fp, pc}	@
.LVL274:
.L335:
	.cfi_restore_state
	.loc 1 1576 7 is_stmt 1 view .LVU941
	ldr	r0, [r6, #60]	@ a_41(D)->chain, a_41(D)->chain
	clz	r0, r0	@, a_41(D)->chain
	lsr	r0, r0, #5	@,,
	bl	tfp_printf(PLT)	@
.LVL275:
	.loc 1 1577 7 view .LVU942
@ src/common/iobuf.c:1577:       return 0;
	.loc 1 1577 14 is_stmt 0 view .LVU943
	mov	r0, #0	@ <retval>,
@ src/common/iobuf.c:1644: }
	.loc 1 1644 1 view .LVU944
	add	sp, sp, #52	@,,
	.cfi_remember_state
	.cfi_def_cfa_offset 36
	@ sp needed	@
	pop	{r4, r5, r6, r7, r8, r9, r10, fp, pc}	@
.LVL276:
.L334:
	.cfi_restore_state
	.loc 1 1571 5 is_stmt 1 view .LVU945
.LBB213:
.LBB214:
@ src/common/iobuf.c:943:   if (! a || ! a->filter)
	.loc 1 943 17 is_stmt 0 view .LVU946
	ldr	r4, [r6, #44]	@ _77, a_41(D)->filter
@ src/common/iobuf.c:941:   size_t len = MAX_IOBUF_DESC;
	.loc 1 941 10 view .LVU947
	mov	r3, #32	@ tmp153,
.LBE214:
.LBE213:
@ src/common/iobuf.c:1571:     printf ("iobuf-%d.%d: pop '%s'\n",
	.loc 1 1571 5 view .LVU948
	ldr	r5, [r6, #64]	@ _3, a_41(D)->no
.LBB220:
.LBB217:
@ src/common/iobuf.c:943:   if (! a || ! a->filter)
	.loc 1 943 11 view .LVU949
	cmp	r4, r2	@ _77,
.LBE217:
.LBE220:
@ src/common/iobuf.c:1571:     printf ("iobuf-%d.%d: pop '%s'\n",
	.loc 1 1571 5 view .LVU950
	ldr	r10, [r6, #68]	@ _4, a_41(D)->subno
.LVL277:
.LBB221:
.LBI213:
	.loc 1 939 1 is_stmt 1 view .LVU951
.LBB218:
	.loc 1 941 3 view .LVU952
@ src/common/iobuf.c:941:   size_t len = MAX_IOBUF_DESC;
	.loc 1 941 10 is_stmt 0 view .LVU953
	str	r3, [sp, #12]	@ tmp153, len
	.loc 1 943 3 is_stmt 1 view .LVU954
@ src/common/iobuf.c:943:   if (! a || ! a->filter)
	.loc 1 943 11 is_stmt 0 view .LVU955
	beq	.L340		@,
	.loc 1 946 5 is_stmt 1 view .LVU956
	ldr	r0, [r6, #48]	@, a_41(D)->filter_ov
	add	r3, sp, #12	@ tmp159,,
	str	r3, [sp]	@ tmp159,
	add	fp, sp, #16	@ tmp198,,
	mov	r3, fp	@, tmp198
	mov	r1, #5	@,
	blx	r4		@ _77
.LVL278:
.L304:
	.loc 1 948 3 view .LVU957
	.loc 1 948 3 is_stmt 0 view .LVU958
.LBE218:
.LBE221:
@ src/common/iobuf.c:1571:     printf ("iobuf-%d.%d: pop '%s'\n",
	.loc 1 1571 5 view .LVU959
	ldr	r0, .L342+16	@,
	mov	r3, fp	@, tmp198
	mov	r2, r10	@, _4
	mov	r1, r5	@, _3
.LPIC56:
	add	r0, pc, r0	@,
	bl	tfp_printf(PLT)	@
.LVL279:
	b	.L302		@
.LVL280:
.L311:
@ src/common/iobuf.c:1597:   if (a->use == IOBUF_OUTPUT && (rc = filter_flush (b)))
	.loc 1 1597 39 discriminator 1 view .LVU960
	mov	r0, r4	@, b
	bl	filter_flush(PLT)	@
.LVL281:
@ src/common/iobuf.c:1597:   if (a->use == IOBUF_OUTPUT && (rc = filter_flush (b)))
	.loc 1 1597 30 discriminator 1 view .LVU961
	cmp	r0, #0	@ <retval>
	.loc 1 1597 30 discriminator 1 view .LVU962
	beq	.L314		@,
	.loc 1 1597 30 discriminator 1 view .LVU963
	b	.L301		@
.LVL282:
.L337:
	.loc 1 1612 7 is_stmt 1 view .LVU964
	bl	xfree(PLT)	@
.LVL283:
	.loc 1 1613 7 view .LVU965
@ src/common/iobuf.c:1613:       b->filter_ov = NULL;
	.loc 1 1613 20 is_stmt 0 view .LVU966
	mov	r3, #0	@ tmp177,
	str	r3, [r4, #48]	@ tmp177, b_110->filter_ov
	b	.L316		@
.LVL284:
.L340:
.LBB222:
.LBB219:
.LBB215:
.LBI215:
	.loc 1 939 1 is_stmt 1 view .LVU967
.LBB216:
	.loc 1 944 5 view .LVU968
	ldr	r1, .L342+20	@,
	add	fp, sp, #16	@ tmp198,,
	mov	r2, #2	@,
	mov	r0, fp	@, tmp198
.LPIC55:
	add	r1, pc, r1	@,
	bl	memcpy(PLT)	@
.LVL285:
	b	.L304		@
.LVL286:
.L338:
	.loc 1 944 5 is_stmt 0 view .LVU969
.LBE216:
.LBE215:
.LBE219:
.LBE222:
@ src/common/iobuf.c:1618:   if (a == b && !b->chain)
	.loc 1 1618 14 discriminator 1 view .LVU970
	ldr	r5, [r6, #60]	@ b_110->chain, b_110->chain
	cmp	r5, #0	@ b_110->chain,
	beq	.L341		@,
	.loc 1 1620 8 is_stmt 1 view .LVU971
	.loc 1 1625 7 view .LVU972
.LVL287:
	.loc 1 1626 7 view .LVU973
	ldr	r0, [r6, #32]	@, a_41(D)->d.buf
	bl	xfree(PLT)	@
.LVL288:
	.loc 1 1627 7 view .LVU974
	ldr	r0, [r6, #56]	@, a_41(D)->real_fname
	bl	xfree(PLT)	@
.LVL289:
	.loc 1 1628 7 view .LVU975
	mov	r2, #72	@,
	mov	r1, r5	@, b_110->chain
	mov	r0, r6	@, a
	bl	memcpy(PLT)	@
.LVL290:
	.loc 1 1629 7 view .LVU976
	mov	r0, r5	@, b_110->chain
	bl	xfree(PLT)	@
.LVL291:
	.loc 1 1630 7 view .LVU977
	ldr	r0, .L342+24	@,
	mov	r1, #72	@,
.LPIC59:
	add	r0, pc, r0	@,
	bl	tfp_printf(PLT)	@
.LVL292:
	.loc 1 1631 7 view .LVU978
@ src/common/iobuf.c:1631:       if (DBG_IOBUF)
	.loc 1 1631 11 is_stmt 0 view .LVU979
	ldr	r0, [r7]	@ <retval>, iobuf_debug_mode
@ src/common/iobuf.c:1631:       if (DBG_IOBUF)
	.loc 1 1631 10 view .LVU980
	cmp	r0, #0	@ <retval>,
	beq	.L301		@,
	.loc 1 1632 2 is_stmt 1 view .LVU981
	ldr	r0, .L342+28	@,
	ldr	r2, [r6, #68]	@, a_41(D)->subno
.LPIC60:
	add	r0, pc, r0	@,
	ldr	r1, [r6, #64]	@, a_41(D)->no
	bl	tfp_printf(PLT)	@
.LVL293:
@ src/common/iobuf.c:1643:   return rc;
	.loc 1 1643 10 is_stmt 0 view .LVU982
	mov	r0, #0	@ <retval>,
	b	.L301		@
.LVL294:
.L310:
	.loc 1 1593 3 is_stmt 1 view .LVU983
	.loc 1 1594 5 view .LVU984
	ldr	r0, .L342+32	@,
.LPIC63:
	add	r0, pc, r0	@,
	bl	tfp_printf(PLT)	@
.LVL295:
@ src/common/iobuf.c:1597:   if (a->use == IOBUF_OUTPUT && (rc = filter_flush (b)))
	.loc 1 1597 8 is_stmt 0 view .LVU985
	ldrb	r2, [r6]	@ zero_extendqisi2	@ _46, a_41(D)->use
	.loc 1 1597 3 is_stmt 1 view .LVU986
@ src/common/iobuf.c:1597:   if (a->use == IOBUF_OUTPUT && (rc = filter_flush (b)))
	.loc 1 1597 6 is_stmt 0 view .LVU987
	cmp	r2, #2	@ _46,
	bne	.L314		@,
	b	.L311		@
.L339:
	.loc 1 1636 7 is_stmt 1 view .LVU988
	ldr	r0, .L342+36	@,
.LPIC61:
	add	r0, pc, r0	@,
	bl	tfp_printf(PLT)	@
.LVL296:
@ src/common/iobuf.c:1643:   return rc;
	.loc 1 1643 10 is_stmt 0 view .LVU989
	mov	r0, r5	@ <retval>, b_110->chain
	b	.L301		@
.LVL297:
.L336:
	.loc 1 1581 7 is_stmt 1 view .LVU990
@ src/common/iobuf.c:1581:       b = a->chain;
	.loc 1 1581 9 is_stmt 0 view .LVU991
	ldr	r4, [r6, #60]	@ b, a_41(D)->chain
.LVL298:
	.loc 1 1582 7 is_stmt 1 view .LVU992
	mov	r0, r4	@, b
	bl	tfp_printf(PLT)	@
.LVL299:
	.loc 1 1583 7 view .LVU993
	ldr	r0, [r6, #32]	@, a_41(D)->d.buf
	bl	xfree(PLT)	@
.LVL300:
	.loc 1 1584 7 view .LVU994
	ldr	r0, [r6, #56]	@, a_41(D)->real_fname
	bl	xfree(PLT)	@
.LVL301:
	.loc 1 1585 7 view .LVU995
	ldr	r0, .L342+40	@,
	mov	r1, #72	@,
.LPIC57:
	add	r0, pc, r0	@,
	bl	tfp_printf(PLT)	@
.LVL302:
	.loc 1 1586 7 view .LVU996
	mov	r2, #72	@,
	mov	r1, r4	@, b
	mov	r0, r6	@, a
	bl	memcpy(PLT)	@
.LVL303:
	.loc 1 1587 7 view .LVU997
	mov	r0, r4	@, b
	bl	xfree(PLT)	@
.LVL304:
	.loc 1 1588 7 view .LVU998
@ src/common/iobuf.c:1588:       return 0;
	.loc 1 1588 14 is_stmt 0 view .LVU999
	mov	r0, r5	@ <retval>, pretmp_17
	b	.L301		@
.L341:
	.loc 1 1619 5 is_stmt 1 view .LVU1000
	ldr	r0, .L342+44	@,
.LPIC58:
	add	r0, pc, r0	@,
	bl	tfp_printf(PLT)	@
.LVL305:
@ src/common/iobuf.c:1643:   return rc;
	.loc 1 1643 10 is_stmt 0 view .LVU1001
	mov	r0, r5	@ <retval>, b_110->chain
@ src/common/iobuf.c:1619:     printf ("can't remove the last filter from the chain\n");
	.loc 1 1619 5 view .LVU1002
	b	.L301		@
.L343:
	.align	2
.L342:
	.word	.LC34-(.LPIC53+8)
	.word	_GLOBAL_OFFSET_TABLE_-(.LPIC54+8)
	.word	iobuf_debug_mode(GOT)
	.word	.LC41-(.LPIC62+8)
	.word	.LC35-(.LPIC56+8)
	.word	.LC6-(.LPIC55+8)
	.word	.LC38-(.LPIC59+8)
	.word	.LC39-(.LPIC60+8)
	.word	.LC42-(.LPIC63+8)
	.word	.LC40-(.LPIC61+8)
	.word	.LC36-(.LPIC57+8)
	.word	.LC37-(.LPIC58+8)
	.cfi_endproc
.LFE60:
	.size	iobuf_pop_filter, .-iobuf_pop_filter
	.section	.rodata.iobuf_readbyte.str1.4,"aMS",%progbits,1
	.align	2
.LC43:
	.ascii	"iobuf_readbyte called on a non-INPUT pipeline!\012\000"
	.align	2
.LC44:
	.ascii	"IOBUFCTRL_FREE failed: %s\012\000"
	.section	.text.iobuf_readbyte,"ax",%progbits
	.align	2
	.global	iobuf_readbyte
	.syntax unified
	.arm
	.fpu softvfp
	.type	iobuf_readbyte, %function
iobuf_readbyte:
.LVL306:
.LFB64:
	.loc 1 1860 1 is_stmt 1 view -0
	.cfi_startproc
	@ args = 0, pretend = 0, frame = 16
	@ frame_needed = 0, uses_anonymous_args = 0
	.loc 1 1861 3 view .LVU1004
	.loc 1 1863 3 view .LVU1005
@ src/common/iobuf.c:1860: {
	.loc 1 1860 1 is_stmt 0 view .LVU1006
	push	{r4, r5, r6, r7, lr}	@
	.cfi_def_cfa_offset 20
	.cfi_offset 4, -20
	.cfi_offset 5, -16
	.cfi_offset 6, -12
	.cfi_offset 7, -8
	.cfi_offset 14, -4
	sub	sp, sp, #28	@,,
	.cfi_def_cfa_offset 48
@ src/common/iobuf.c:1860: {
	.loc 1 1860 1 view .LVU1007
	ldr	r6, .L407	@ tmp176,
	mov	r4, r0	@ a, a
	str	r0, [sp, #12]	@ a, %sfp
@ src/common/iobuf.c:1863:   if (a->use == IOBUF_OUTPUT || a->use == IOBUF_OUTPUT_TEMP)
	.loc 1 1863 8 view .LVU1008
	ldrb	r0, [r0]	@ zero_extendqisi2	@ _1, a_18(D)->use
.LVL307:
@ src/common/iobuf.c:1860: {
	.loc 1 1860 1 view .LVU1009
.LPIC65:
	add	r6, pc, r6	@ tmp176, tmp176
@ src/common/iobuf.c:1863:   if (a->use == IOBUF_OUTPUT || a->use == IOBUF_OUTPUT_TEMP)
	.loc 1 1863 6 view .LVU1010
	sub	r3, r0, #2	@ tmp165, _1,
	cmp	r3, #1	@ tmp165,
	bls	.L401		@,
	.loc 1 1871 3 is_stmt 1 view .LVU1011
@ src/common/iobuf.c:1871:   if (a->nlimit && a->nbytes >= a->nlimit)
	.loc 1 1871 8 is_stmt 0 view .LVU1012
	ldr	r3, [r4, #4]	@ _3, a_18(D)->nlimit
@ src/common/iobuf.c:1871:   if (a->nlimit && a->nbytes >= a->nlimit)
	.loc 1 1871 6 view .LVU1013
	cmp	r3, #0	@ _3,
	bne	.L402		@,
.L347:
	.loc 1 1874 3 is_stmt 1 view .LVU1014
@ src/common/iobuf.c:1874:   if (a->d.start < a->d.len)
	.loc 1 1874 11 is_stmt 0 view .LVU1015
	ldr	r1, [r4, #24]	@ _5, a_18(D)->d.start
@ src/common/iobuf.c:1874:   if (a->d.start < a->d.len)
	.loc 1 1874 24 view .LVU1016
	ldr	r2, [r4, #28]	@ _6, a_18(D)->d.len
@ src/common/iobuf.c:1874:   if (a->d.start < a->d.len)
	.loc 1 1874 6 view .LVU1017
	cmp	r1, r2	@ _5, _6
	bcs	.L348		@,
	.loc 1 1876 7 is_stmt 1 view .LVU1018
@ src/common/iobuf.c:1876:       c = a->d.buf[a->d.start++];
	.loc 1 1876 15 is_stmt 0 view .LVU1019
	ldr	r3, [r4, #32]	@ _7, a_18(D)->d.buf
@ src/common/iobuf.c:1876:       c = a->d.buf[a->d.start++];
	.loc 1 1876 30 view .LVU1020
	add	r2, r1, #1	@ tmp169, _5,
	str	r2, [r4, #24]	@ tmp169, a_18(D)->d.start
@ src/common/iobuf.c:1876:       c = a->d.buf[a->d.start++];
	.loc 1 1876 9 view .LVU1021
	ldrb	r5, [r3, r1]	@ zero_extendqisi2	@ <retval>, *_9
.LVL308:
.L349:
	.loc 1 1886 3 is_stmt 1 view .LVU1022
@ src/common/iobuf.c:1886:   a->nbytes++;
	.loc 1 1886 12 is_stmt 0 view .LVU1023
	ldr	r3, [r4, #8]	@ a_18(D)->nbytes, a_18(D)->nbytes
	add	r3, r3, #1	@ tmp204, a_18(D)->nbytes,
	str	r3, [r4, #8]	@ tmp204, a_18(D)->nbytes
	.loc 1 1887 3 is_stmt 1 view .LVU1024
.LVL309:
.L344:
@ src/common/iobuf.c:1888: }
	.loc 1 1888 1 is_stmt 0 view .LVU1025
	mov	r0, r5	@, <retval>
	add	sp, sp, #28	@,,
	.cfi_remember_state
	.cfi_def_cfa_offset 20
	@ sp needed	@
	pop	{r4, r5, r6, r7, pc}	@
.LVL310:
.L402:
	.cfi_restore_state
@ src/common/iobuf.c:1871:   if (a->nlimit && a->nbytes >= a->nlimit)
	.loc 1 1871 17 discriminator 1 view .LVU1026
	ldr	r2, [r4, #8]	@ a_18(D)->nbytes, a_18(D)->nbytes
	cmp	r3, r2	@ _3, a_18(D)->nbytes
	bgt	.L347		@,
.L400:
.LVL311:
@ src/common/iobuf.c:1879:     return -1;			/* EOF */
	.loc 1 1879 12 view .LVU1027
	mvn	r5, #0	@ <retval>,
	b	.L344		@
.LVL312:
.L348:
	.loc 1 1878 8 is_stmt 1 view .LVU1028
.LBB234:
.LBI234:
	.loc 1 1652 1 view .LVU1029
.LBE234:
	.loc 1 1654 3 view .LVU1030
.LBB255:
.LBB235:
.LBI235:
	.loc 1 1663 1 view .LVU1031
.LBB236:
	.loc 1 1665 3 view .LVU1032
	.loc 1 1666 3 view .LVU1033
	.loc 1 1674 3 view .LVU1034
@ src/common/iobuf.c:1674:   if (a->use == IOBUF_INPUT_TEMP)
	.loc 1 1674 6 is_stmt 0 view .LVU1035
	cmp	r0, #1	@ _1,
	beq	.L400		@,
	.loc 1 1685 3 is_stmt 1 view .LVU1036
@ src/common/iobuf.c:1686:   memmove (a->d.buf, &a->d.buf[a->d.start], a->d.len);
	.loc 1 1686 16 is_stmt 0 view .LVU1037
	ldr	r0, [r4, #32]	@ _29, a_18(D)->d.buf
@ src/common/iobuf.c:1685:   a->d.len -= a->d.start;
	.loc 1 1685 12 view .LVU1038
	sub	r2, r2, r1	@ _28, _6, _5
	str	r2, [r4, #28]	@ _28, a_18(D)->d.len
	.loc 1 1686 3 is_stmt 1 view .LVU1039
	add	r1, r0, r1	@, _29, _5
	bl	memmove(PLT)	@
.LVL313:
	.loc 1 1687 3 view .LVU1040
@ src/common/iobuf.c:1689:   if (a->d.len < target && a->filter_eof)
	.loc 1 1689 11 is_stmt 0 view .LVU1041
	ldr	r3, [r4, #28]	@ _31, a_18(D)->d.len
@ src/common/iobuf.c:1687:   a->d.start = 0;
	.loc 1 1687 14 view .LVU1042
	mov	r2, #0	@ tmp171,
	str	r2, [r4, #24]	@ tmp171, a_18(D)->d.start
	.loc 1 1689 3 is_stmt 1 view .LVU1043
@ src/common/iobuf.c:1689:   if (a->d.len < target && a->filter_eof)
	.loc 1 1689 6 is_stmt 0 view .LVU1044
	cmp	r3, r2	@ _31,
	beq	.L403		@,
	.loc 1 1731 3 is_stmt 1 view .LVU1045
@ src/common/iobuf.c:1731:   if (a->filter && ! a->filter_eof && ! a->error)
	.loc 1 1731 8 is_stmt 0 view .LVU1046
	ldr	r5, [r4, #44]	@ _132, a_18(D)->filter
@ src/common/iobuf.c:1731:   if (a->filter && ! a->filter_eof && ! a->error)
	.loc 1 1731 6 view .LVU1047
	cmp	r5, #0	@ _132,
	beq	.L367		@,
@ src/common/iobuf.c:1731:   if (a->filter && ! a->filter_eof && ! a->error)
	.loc 1 1731 17 view .LVU1048
	ldr	r1, [r4, #36]	@ a_18(D)->filter_eof, a_18(D)->filter_eof
	cmp	r1, #0	@ a_18(D)->filter_eof,
	beq	.L404		@,
.L356:
	.loc 1 1814 5 is_stmt 1 view .LVU1049
@ src/common/iobuf.c:1814:     return a->d.buf[a->d.start++];
	.loc 1 1814 16 is_stmt 0 view .LVU1050
	ldr	r3, [r4, #32]	@ _66, a_18(D)->d.buf
@ src/common/iobuf.c:1814:     return a->d.buf[a->d.start++];
	.loc 1 1814 31 view .LVU1051
	add	r1, r2, #1	@ tmp203, prephitmp_23,
	str	r1, [r4, #24]	@ tmp203, a_18(D)->d.start
@ src/common/iobuf.c:1814:     return a->d.buf[a->d.start++];
	.loc 1 1814 20 view .LVU1052
	ldrb	r5, [r3, r2]	@ zero_extendqisi2	@ <retval>, *_68
.LVL314:
	.loc 1 1814 20 view .LVU1053
.LBE236:
.LBE235:
.LBE255:
	b	.L349		@
.LVL315:
.L403:
.LBB256:
.LBB252:
.LBB249:
@ src/common/iobuf.c:1689:   if (a->d.len < target && a->filter_eof)
	.loc 1 1689 25 view .LVU1054
	ldr	r2, [r4, #36]	@ a_18(D)->filter_eof, a_18(D)->filter_eof
	cmp	r2, #0	@ a_18(D)->filter_eof,
	beq	.L352		@,
	.loc 1 1698 7 is_stmt 1 view .LVU1055
	.loc 1 1701 7 view .LVU1056
@ src/common/iobuf.c:1701:       if (a->chain)
	.loc 1 1701 12 is_stmt 0 view .LVU1057
	ldr	r5, [r4, #60]	@ _33, a_18(D)->chain
@ src/common/iobuf.c:1701:       if (a->chain)
	.loc 1 1701 10 view .LVU1058
	cmp	r5, #0	@ _33,
	beq	.L353		@,
.LBB237:
	.loc 1 1704 4 is_stmt 1 view .LVU1059
.LVL316:
	.loc 1 1708 4 view .LVU1060
	ldr	r0, [r4, #32]	@, a_18(D)->d.buf
	bl	xfree(PLT)	@
.LVL317:
	.loc 1 1709 4 view .LVU1061
	ldr	r0, [r4, #56]	@, a_18(D)->real_fname
	bl	xfree(PLT)	@
.LVL318:
	.loc 1 1710 4 view .LVU1062
	mov	r2, #72	@,
	mov	r1, r5	@, _33
	mov	r0, r4	@, a
	bl	memcpy(PLT)	@
.LVL319:
	.loc 1 1711 4 view .LVU1063
	mov	r0, r5	@, _33
	bl	xfree(PLT)	@
.LVL320:
	.loc 1 1712 4 view .LVU1064
.LBB238:
.LBI238:
	.loc 1 952 1 view .LVU1065
.LBB239:
	.loc 1 954 3 view .LVU1066
@ src/common/iobuf.c:954:   if (!DBG_IOBUF)
	.loc 1 954 7 is_stmt 0 view .LVU1067
	ldr	r3, .L407+4	@ tmp211,
	ldr	r3, [r6, r3]	@ tmp175,
@ src/common/iobuf.c:954:   if (!DBG_IOBUF)
	.loc 1 954 6 view .LVU1068
	ldr	r3, [r3]	@ iobuf_debug_mode, iobuf_debug_mode
	cmp	r3, #0	@ iobuf_debug_mode,
	beq	.L400		@,
	mov	r0, r4	@, a
.LBE239:
.LBE238:
.LBE237:
.LBE249:
.LBE252:
.LBE256:
@ src/common/iobuf.c:1879:     return -1;			/* EOF */
	.loc 1 1879 12 view .LVU1069
	mvn	r5, #0	@ <retval>,
.LVL321:
.LBB257:
.LBB253:
.LBB250:
.LBB242:
.LBB241:
.LBB240:
	.loc 1 1879 12 view .LVU1070
	bl	print_chain.part.0(PLT)	@
.LVL322:
	.loc 1 1879 12 view .LVU1071
	b	.L344		@
.LVL323:
.L352:
	.loc 1 1879 12 view .LVU1072
.LBE240:
.LBE241:
.LBE242:
	.loc 1 1719 3 is_stmt 1 view .LVU1073
@ src/common/iobuf.c:1719:   if (a->d.len == 0 && a->error)
	.loc 1 1719 21 is_stmt 0 view .LVU1074
	ldr	r2, [r4, #40]	@ a_18(D)->error, a_18(D)->error
	cmp	r2, #0	@ a_18(D)->error,
	bne	.L400		@,
	.loc 1 1731 3 is_stmt 1 view .LVU1075
@ src/common/iobuf.c:1731:   if (a->filter && ! a->filter_eof && ! a->error)
	.loc 1 1731 8 is_stmt 0 view .LVU1076
	ldr	r5, [r4, #44]	@ _132, a_18(D)->filter
@ src/common/iobuf.c:1731:   if (a->filter && ! a->filter_eof && ! a->error)
	.loc 1 1731 6 view .LVU1077
	cmp	r5, #0	@ _132,
	beq	.L400		@,
.L365:
	.loc 1 1736 7 is_stmt 1 view .LVU1078
@ src/common/iobuf.c:1736:       len = a->d.size - a->d.len;
	.loc 1 1736 23 is_stmt 0 view .LVU1079
	ldr	r2, [r4, #20]	@ a_18(D)->d.size, a_18(D)->d.size
	sub	r2, r2, r3	@ prephitmp_23, a_18(D)->d.size, _31
@ src/common/iobuf.c:1736:       len = a->d.size - a->d.len;
	.loc 1 1736 11 view .LVU1080
	str	r2, [sp, #16]	@ prephitmp_23, len
	.loc 1 1740 7 is_stmt 1 view .LVU1081
@ src/common/iobuf.c:1740:       if (len == 0)
	.loc 1 1740 10 is_stmt 0 view .LVU1082
	cmp	r2, #0	@ prephitmp_23,
	beq	.L357		@,
	.loc 1 1745 2 is_stmt 1 view .LVU1083
@ src/common/iobuf.c:1745: 	rc = a->filter (a->filter_ov, IOBUFCTRL_UNDERFLOW, a->chain,
	.loc 1 1745 7 is_stmt 0 view .LVU1084
	ldr	r2, [r4, #32]	@ a_18(D)->d.buf, a_18(D)->d.buf
	add	r1, sp, #16	@ tmp187,,
	ldr	r0, [r4, #48]	@, a_18(D)->filter_ov
	add	r3, r2, r3	@, a_18(D)->d.buf, _31
	ldr	r2, [r4, #60]	@, a_18(D)->chain
	str	r1, [sp]	@ tmp187,
	mov	r1, #3	@,
	blx	r5		@ _132
.LVL324:
@ src/common/iobuf.c:1747:       a->d.len += len;
	.loc 1 1747 16 view .LVU1085
	ldr	r2, [r4, #28]	@ a_18(D)->d.len, a_18(D)->d.len
@ src/common/iobuf.c:1757:       if (rc == -1)
	.loc 1 1757 10 view .LVU1086
	cmn	r0, #1	@ <retval>,
@ src/common/iobuf.c:1747:       a->d.len += len;
	.loc 1 1747 16 view .LVU1087
	ldr	r3, [sp, #16]	@ len, len
@ src/common/iobuf.c:1745: 	rc = a->filter (a->filter_ov, IOBUFCTRL_UNDERFLOW, a->chain,
	.loc 1 1745 7 view .LVU1088
	mov	r5, r0	@ <retval>, tmp208
.LVL325:
	.loc 1 1747 7 is_stmt 1 view .LVU1089
@ src/common/iobuf.c:1747:       a->d.len += len;
	.loc 1 1747 16 is_stmt 0 view .LVU1090
	add	r3, r2, r3	@ _31, a_18(D)->d.len, len
	str	r3, [r4, #28]	@ _31, a_18(D)->d.len
	.loc 1 1757 7 is_stmt 1 view .LVU1091
@ src/common/iobuf.c:1757:       if (rc == -1)
	.loc 1 1757 10 is_stmt 0 view .LVU1092
	bne	.L358		@,
.LBB243:
	.loc 1 1760 4 is_stmt 1 view .LVU1093
@ src/common/iobuf.c:1763: 	  if ((rc = a->filter (a->filter_ov, IOBUFCTRL_FREE, a->chain,
	.loc 1 1763 14 is_stmt 0 view .LVU1094
	ldr	r7, [r4, #44]	@ a_18(D)->filter, a_18(D)->filter
@ src/common/iobuf.c:1760: 	  size_t dummy_len = 0;
	.loc 1 1760 11 view .LVU1095
	mov	r3, #0	@ tmp190,
@ src/common/iobuf.c:1763: 	  if ((rc = a->filter (a->filter_ov, IOBUFCTRL_FREE, a->chain,
	.loc 1 1763 14 view .LVU1096
	ldr	r2, [r4, #60]	@, a_18(D)->chain
	add	r1, sp, #20	@ tmp193,,
	str	r1, [sp]	@ tmp193,
	mov	r1, #2	@,
	ldr	r0, [r4, #48]	@, a_18(D)->filter_ov
.LVL326:
@ src/common/iobuf.c:1760: 	  size_t dummy_len = 0;
	.loc 1 1760 11 view .LVU1097
	str	r3, [sp, #20]	@ tmp190, dummy_len
	.loc 1 1763 4 is_stmt 1 view .LVU1098
@ src/common/iobuf.c:1763: 	  if ((rc = a->filter (a->filter_ov, IOBUFCTRL_FREE, a->chain,
	.loc 1 1763 14 is_stmt 0 view .LVU1099
	blx	r7		@ a_18(D)->filter
.LVL327:
@ src/common/iobuf.c:1763: 	  if ((rc = a->filter (a->filter_ov, IOBUFCTRL_FREE, a->chain,
	.loc 1 1763 7 view .LVU1100
	cmp	r0, #0	@ tmp209,
	bne	.L405		@,
.LVL328:
.L359:
	.loc 1 1768 4 is_stmt 1 view .LVU1101
@ src/common/iobuf.c:1768: 	  if (a->filter_ov && a->filter_ov_owner)
	.loc 1 1768 9 is_stmt 0 view .LVU1102
	ldr	r0, [r4, #48]	@ _56, a_18(D)->filter_ov
@ src/common/iobuf.c:1768: 	  if (a->filter_ov && a->filter_ov_owner)
	.loc 1 1768 7 view .LVU1103
	cmp	r0, #0	@ _56,
	beq	.L360		@,
@ src/common/iobuf.c:1768: 	  if (a->filter_ov && a->filter_ov_owner)
	.loc 1 1768 21 view .LVU1104
	ldr	r3, [r4, #52]	@ a_18(D)->filter_ov_owner, a_18(D)->filter_ov_owner
	cmp	r3, #0	@ a_18(D)->filter_ov_owner,
	bne	.L406		@,
.L360:
	.loc 1 1770 4 is_stmt 1 view .LVU1105
@ src/common/iobuf.c:1774: 	  if (clear_pending_eof && a->d.len == 0 && a->chain)
	.loc 1 1774 33 is_stmt 0 view .LVU1106
	ldr	r3, [r4, #28]	@ _31, a_18(D)->d.len
@ src/common/iobuf.c:1770: 	  a->filter_ov = NULL;
	.loc 1 1770 17 view .LVU1107
	mov	r2, #0	@ tmp198,
	str	r2, [r4, #48]	@ tmp198, a_18(D)->filter_ov
	.loc 1 1771 4 is_stmt 1 view .LVU1108
@ src/common/iobuf.c:1774: 	  if (clear_pending_eof && a->d.len == 0 && a->chain)
	.loc 1 1774 26 is_stmt 0 view .LVU1109
	cmp	r3, r2	@ _31,
@ src/common/iobuf.c:1771: 	  a->filter = NULL;
	.loc 1 1771 14 view .LVU1110
	str	r2, [r4, #44]	@ tmp198, a_18(D)->filter
	.loc 1 1772 4 is_stmt 1 view .LVU1111
@ src/common/iobuf.c:1772: 	  a->filter_eof = 1;
	.loc 1 1772 18 is_stmt 0 view .LVU1112
	mov	r2, #1	@ tmp200,
	str	r2, [r4, #36]	@ tmp200, a_18(D)->filter_eof
	.loc 1 1774 4 is_stmt 1 view .LVU1113
@ src/common/iobuf.c:1774: 	  if (clear_pending_eof && a->d.len == 0 && a->chain)
	.loc 1 1774 26 is_stmt 0 view .LVU1114
	bne	.L399		@,
@ src/common/iobuf.c:1774: 	  if (clear_pending_eof && a->d.len == 0 && a->chain)
	.loc 1 1774 47 view .LVU1115
	ldr	r7, [r4, #60]	@ _59, a_18(D)->chain
@ src/common/iobuf.c:1774: 	  if (clear_pending_eof && a->d.len == 0 && a->chain)
	.loc 1 1774 43 view .LVU1116
	cmp	r7, #0	@ _59,
	beq	.L344		@,
.LBB244:
	.loc 1 1783 8 is_stmt 1 view .LVU1117
.LVL329:
	.loc 1 1787 8 view .LVU1118
	ldr	r0, [r4, #32]	@, a_18(D)->d.buf
	bl	xfree(PLT)	@
.LVL330:
	.loc 1 1788 8 view .LVU1119
	ldr	r0, [r4, #56]	@, a_18(D)->real_fname
	bl	xfree(PLT)	@
.LVL331:
	.loc 1 1789 8 view .LVU1120
	mov	r2, #72	@,
	mov	r1, r7	@, _59
	mov	r0, r4	@, a
	bl	memcpy(PLT)	@
.LVL332:
	.loc 1 1790 8 view .LVU1121
	mov	r0, r7	@, _59
	bl	xfree(PLT)	@
.LVL333:
	.loc 1 1792 8 view .LVU1122
.LBB245:
.LBI245:
	.loc 1 952 1 view .LVU1123
.LBB246:
	.loc 1 954 3 view .LVU1124
@ src/common/iobuf.c:954:   if (!DBG_IOBUF)
	.loc 1 954 7 is_stmt 0 view .LVU1125
	ldr	r3, .L407+4	@ tmp210,
	ldr	r3, [r6, r3]	@ tmp201,
@ src/common/iobuf.c:954:   if (!DBG_IOBUF)
	.loc 1 954 6 view .LVU1126
	ldr	r3, [r3]	@ iobuf_debug_mode, iobuf_debug_mode
	cmp	r3, #0	@ iobuf_debug_mode,
	beq	.L344		@,
	mov	r0, r4	@, a
	bl	print_chain.part.0(PLT)	@
.LVL334:
	b	.L344		@
.LVL335:
.L358:
	.loc 1 954 6 view .LVU1127
.LBE246:
.LBE245:
.LBE244:
.LBE243:
	.loc 1 1801 12 is_stmt 1 view .LVU1128
@ src/common/iobuf.c:1801:       else if (rc)
	.loc 1 1801 15 is_stmt 0 view .LVU1129
	cmp	r0, #0	@ <retval>,
	beq	.L399		@,
	.loc 1 1804 4 is_stmt 1 view .LVU1130
@ src/common/iobuf.c:1804: 	  a->error = rc;
	.loc 1 1804 13 is_stmt 0 view .LVU1131
	str	r0, [r4, #40]	@ <retval>, a_18(D)->error
	.loc 1 1806 4 is_stmt 1 view .LVU1132
@ src/common/iobuf.c:1806: 	  if (a->d.len == 0)
	.loc 1 1806 7 is_stmt 0 view .LVU1133
	cmp	r3, #0	@ _31,
	beq	.L400		@,
.LVL336:
.L399:
@ src/common/iobuf.c:1813:   if (a->d.start < a->d.len)
	.loc 1 1813 11 view .LVU1134
	ldr	r2, [r4, #24]	@ prephitmp_23, a_18(D)->d.start
.L357:
	.loc 1 1813 3 is_stmt 1 view .LVU1135
@ src/common/iobuf.c:1813:   if (a->d.start < a->d.len)
	.loc 1 1813 6 is_stmt 0 view .LVU1136
	cmp	r2, r3	@ prephitmp_23, _31
	bcc	.L356		@,
	b	.L400		@
.L353:
	.loc 1 1715 2 is_stmt 1 view .LVU1137
@ src/common/iobuf.c:1715: 	a->filter_eof = 0;	/* for the top level filter */
	.loc 1 1715 16 is_stmt 0 view .LVU1138
	str	r5, [r4, #36]	@ _33, a_18(D)->filter_eof
	b	.L400		@
.L367:
	.loc 1 1715 16 view .LVU1139
	mov	r2, r5	@ prephitmp_23, _132
	b	.L356		@
.LVL337:
.L405:
.LBB247:
	.loc 1 1765 6 is_stmt 1 view .LVU1140
	ldr	r0, .L407+8	@,
.LVL338:
	.loc 1 1765 6 is_stmt 0 view .LVU1141
.LPIC66:
	add	r0, pc, r0	@,
	bl	tfp_printf(PLT)	@
.LVL339:
	b	.L359		@
.LVL340:
.L401:
	.loc 1 1765 6 view .LVU1142
.LBE247:
.LBE250:
.LBE253:
.LBE257:
	.loc 1 1865 7 is_stmt 1 view .LVU1143
	ldr	r0, .L407+12	@,
@ src/common/iobuf.c:1866:       return -1;
	.loc 1 1866 14 is_stmt 0 view .LVU1144
	mvn	r5, #0	@ <retval>,
@ src/common/iobuf.c:1865:       printf ("iobuf_readbyte called on a non-INPUT pipeline!\n");
	.loc 1 1865 7 view .LVU1145
.LPIC64:
	add	r0, pc, r0	@,
	bl	tfp_printf(PLT)	@
.LVL341:
	.loc 1 1866 7 is_stmt 1 view .LVU1146
@ src/common/iobuf.c:1866:       return -1;
	.loc 1 1866 14 is_stmt 0 view .LVU1147
	b	.L344		@
.LVL342:
.L406:
.LBB258:
.LBB254:
.LBB251:
.LBB248:
	.loc 1 1769 6 is_stmt 1 view .LVU1148
	bl	xfree(PLT)	@
.LVL343:
	b	.L360		@
.L404:
	.loc 1 1769 6 is_stmt 0 view .LVU1149
.LBE248:
@ src/common/iobuf.c:1731:   if (a->filter && ! a->filter_eof && ! a->error)
	.loc 1 1731 36 view .LVU1150
	ldr	r2, [r4, #40]	@ a_18(D)->error, a_18(D)->error
	cmp	r2, #0	@ a_18(D)->error,
	movne	r2, r1	@ prephitmp_23, a_18(D)->filter_eof
	bne	.L356		@,
	b	.L365		@
.L408:
	.align	2
.L407:
	.word	_GLOBAL_OFFSET_TABLE_-(.LPIC65+8)
	.word	iobuf_debug_mode(GOT)
	.word	.LC44-(.LPIC66+8)
	.word	.LC43-(.LPIC64+8)
.LBE251:
.LBE254:
.LBE258:
	.cfi_endproc
.LFE64:
	.size	iobuf_readbyte, .-iobuf_readbyte
	.section	.rodata.iobuf_read.str1.4,"aMS",%progbits,1
	.align	2
.LC45:
	.ascii	"iobuf_read %d a->nlimit %d\012\000"
	.align	2
.LC46:
	.ascii	"iobuf_read called on a non-INPUT pipeline!\012\000"
	.section	.text.iobuf_read,"ax",%progbits
	.align	2
	.global	iobuf_read
	.syntax unified
	.arm
	.fpu softvfp
	.type	iobuf_read, %function
iobuf_read:
.LVL344:
.LFB65:
	.loc 1 1893 1 is_stmt 1 view -0
	.cfi_startproc
	@ args = 0, pretend = 0, frame = 0
	@ frame_needed = 0, uses_anonymous_args = 0
	.loc 1 1894 3 view .LVU1152
@ src/common/iobuf.c:1893: {
	.loc 1 1893 1 is_stmt 0 view .LVU1153
	push	{r4, r5, r6, r7, r8, lr}	@
	.cfi_def_cfa_offset 24
	.cfi_offset 4, -24
	.cfi_offset 5, -20
	.cfi_offset 6, -16
	.cfi_offset 7, -12
	.cfi_offset 8, -8
	.cfi_offset 14, -4
@ src/common/iobuf.c:1893: {
	.loc 1 1893 1 view .LVU1154
	mov	r6, r0	@ tmp164, a
@ src/common/iobuf.c:1894:   printf("iobuf_read %d a->nlimit %d\n",buflen,a->nlimit);
	.loc 1 1894 3 view .LVU1155
	ldr	r0, .L435	@,
.LVL345:
@ src/common/iobuf.c:1893: {
	.loc 1 1893 1 view .LVU1156
	mov	r7, r2	@ tmp166, buflen
@ src/common/iobuf.c:1894:   printf("iobuf_read %d a->nlimit %d\n",buflen,a->nlimit);
	.loc 1 1894 3 view .LVU1157
	ldr	r2, [r6, #4]	@, a_46(D)->nlimit
.LVL346:
@ src/common/iobuf.c:1893: {
	.loc 1 1893 1 view .LVU1158
	mov	r4, r1	@ buffer, tmp165
@ src/common/iobuf.c:1894:   printf("iobuf_read %d a->nlimit %d\n",buflen,a->nlimit);
	.loc 1 1894 3 view .LVU1159
.LPIC67:
	add	r0, pc, r0	@,
	mov	r1, r7	@, buflen
.LVL347:
	.loc 1 1894 3 view .LVU1160
	bl	tfp_printf(PLT)	@
.LVL348:
	.loc 1 1895 3 is_stmt 1 view .LVU1161
	.loc 1 1896 3 view .LVU1162
	.loc 1 1898 3 view .LVU1163
@ src/common/iobuf.c:1898:   if (a->use == IOBUF_OUTPUT || a->use == IOBUF_OUTPUT_TEMP)
	.loc 1 1898 30 is_stmt 0 view .LVU1164
	ldrb	r3, [r6]	@ zero_extendqisi2	@ a_46(D)->use, a_46(D)->use
@ src/common/iobuf.c:1898:   if (a->use == IOBUF_OUTPUT || a->use == IOBUF_OUTPUT_TEMP)
	.loc 1 1898 6 view .LVU1165
	sub	r3, r3, #2	@ tmp150, a_46(D)->use,
	cmp	r3, #1	@ tmp150,
	bls	.L433		@,
	.loc 1 1904 3 is_stmt 1 view .LVU1166
@ src/common/iobuf.c:1904:   if (a->nlimit)
	.loc 1 1904 8 is_stmt 0 view .LVU1167
	ldr	r5, [r6, #4]	@ <retval>, a_46(D)->nlimit
@ src/common/iobuf.c:1904:   if (a->nlimit)
	.loc 1 1904 6 view .LVU1168
	cmp	r5, #0	@ <retval>,
	beq	.L412		@,
.LVL349:
	.loc 1 1907 19 is_stmt 1 view .LVU1169
@ src/common/iobuf.c:1907:       for (n = 0; n < buflen; n++)
	.loc 1 1907 7 is_stmt 0 view .LVU1170
	subs	r5, r7, #0	@ <retval>, buflen
	beq	.L409		@,
@ src/common/iobuf.c:1907:       for (n = 0; n < buflen; n++)
	.loc 1 1907 14 view .LVU1171
	mov	r8, #0	@ n,
	b	.L415		@
.LVL350:
.L413:
@ src/common/iobuf.c:1916: 	  if (buf)
	.loc 1 1916 7 view .LVU1172
	cmp	r4, #0	@ buffer,
@ src/common/iobuf.c:1907:       for (n = 0; n < buflen; n++)
	.loc 1 1907 32 view .LVU1173
	add	r8, r8, #1	@ n, n,
.LVL351:
@ src/common/iobuf.c:1918: 	      *buf = c;
	.loc 1 1918 13 view .LVU1174
	strbne	r0, [r4], #1	@ c, *buf_110
.LVL352:
	.loc 1 1919 8 is_stmt 1 view .LVU1175
	.loc 1 1907 31 view .LVU1176
	.loc 1 1907 19 view .LVU1177
@ src/common/iobuf.c:1907:       for (n = 0; n < buflen; n++)
	.loc 1 1907 7 is_stmt 0 view .LVU1178
	cmp	r8, r7	@ n, buflen
	beq	.L409		@,
.LVL353:
.L415:
	.loc 1 1909 4 is_stmt 1 view .LVU1179
@ src/common/iobuf.c:1909: 	  if ((c = iobuf_readbyte (a)) == -1)
	.loc 1 1909 13 is_stmt 0 view .LVU1180
	mov	r0, r6	@, a
	bl	iobuf_readbyte(PLT)	@
.LVL354:
	.loc 1 1916 4 is_stmt 1 view .LVU1181
	.loc 1 1918 8 view .LVU1182
@ src/common/iobuf.c:1909: 	  if ((c = iobuf_readbyte (a)) == -1)
	.loc 1 1909 7 is_stmt 0 view .LVU1183
	cmn	r0, #1	@ c,
	bne	.L413		@,
	.loc 1 1911 8 is_stmt 1 view .LVU1184
@ src/common/iobuf.c:1911: 	      if (!n)
	.loc 1 1911 11 is_stmt 0 view .LVU1185
	cmp	r8, #0	@ n,
	movne	r5, r8	@ <retval>, n
.LVL355:
	.loc 1 1911 11 view .LVU1186
	mvneq	r5, #0	@ <retval>,
@ src/common/iobuf.c:1961: }
	.loc 1 1961 1 view .LVU1187
	mov	r0, r5	@, <retval>
.LVL356:
	.loc 1 1961 1 view .LVU1188
	pop	{r4, r5, r6, r7, r8, pc}	@
.LVL357:
.L412:
	.loc 1 1926 3 is_stmt 1 view .LVU1189
	.loc 1 1928 7 view .LVU1190
@ src/common/iobuf.c:1928:       if (n < buflen && a->d.start < a->d.len)
	.loc 1 1928 10 is_stmt 0 view .LVU1191
	cmp	r5, r7	@ <retval>, buflen
	bcc	.L431		@,
.LVL358:
.L416:
	.loc 1 1959 3 is_stmt 1 view .LVU1192
@ src/common/iobuf.c:1959:   a->nbytes += n;
	.loc 1 1959 13 is_stmt 0 view .LVU1193
	ldr	r3, [r6, #8]	@ a_46(D)->nbytes, a_46(D)->nbytes
	add	r3, r3, r5	@ tmp160, a_46(D)->nbytes, <retval>
	str	r3, [r6, #8]	@ tmp160, a_46(D)->nbytes
	.loc 1 1960 3 is_stmt 1 view .LVU1194
.LVL359:
.L409:
@ src/common/iobuf.c:1961: }
	.loc 1 1961 1 is_stmt 0 view .LVU1195
	mov	r0, r5	@, <retval>
	pop	{r4, r5, r6, r7, r8, pc}	@
.LVL360:
.L434:
.LBB259:
	.loc 1 1935 6 is_stmt 1 view .LVU1196
	.loc 1 1936 4 view .LVU1197
	cmp	r8, r1	@ tmp154, size
	movcs	r8, r1	@ size, size
.LVL361:
	.loc 1 1934 4 view .LVU1198
@ src/common/iobuf.c:1934: 	  if (buf)
	.loc 1 1934 7 is_stmt 0 view .LVU1199
	cmp	r4, #0	@ buffer,
@ src/common/iobuf.c:1937: 	  a->d.start += size;
	.loc 1 1937 15 view .LVU1200
	add	r2, r3, r8	@ tmp163, _8, size
@ src/common/iobuf.c:1934: 	  if (buf)
	.loc 1 1934 7 view .LVU1201
	beq	.L418		@,
@ src/common/iobuf.c:1935: 	    memcpy (buf, a->d.buf + a->d.start, size);
	.loc 1 1935 28 view .LVU1202
	ldr	r1, [r6, #32]	@ a_46(D)->d.buf, a_46(D)->d.buf
@ src/common/iobuf.c:1935: 	    memcpy (buf, a->d.buf + a->d.start, size);
	.loc 1 1935 6 view .LVU1203
	mov	r0, r4	@, buffer
@ src/common/iobuf.c:1936: 	  n += size;
	.loc 1 1936 6 view .LVU1204
	add	r5, r5, r8	@ <retval>, <retval>, size
.LVL362:
@ src/common/iobuf.c:1935: 	    memcpy (buf, a->d.buf + a->d.start, size);
	.loc 1 1935 6 view .LVU1205
	mov	r2, r8	@, size
	add	r1, r1, r3	@, a_46(D)->d.buf, _8
@ src/common/iobuf.c:1939: 	    buf += size;
	.loc 1 1939 10 view .LVU1206
	add	r4, r4, r8	@ buffer, buffer, size
.LVL363:
@ src/common/iobuf.c:1935: 	    memcpy (buf, a->d.buf + a->d.start, size);
	.loc 1 1935 6 view .LVU1207
	bl	memcpy(PLT)	@
.LVL364:
	.loc 1 1936 4 is_stmt 1 view .LVU1208
	.loc 1 1937 4 view .LVU1209
@ src/common/iobuf.c:1937: 	  a->d.start += size;
	.loc 1 1937 15 is_stmt 0 view .LVU1210
	ldr	r3, [r6, #24]	@ a_46(D)->d.start, a_46(D)->d.start
.LBE259:
@ src/common/iobuf.c:1941:       if (n < buflen)
	.loc 1 1941 10 view .LVU1211
	cmp	r7, r5	@ buflen, <retval>
.LBB260:
@ src/common/iobuf.c:1937: 	  a->d.start += size;
	.loc 1 1937 15 view .LVU1212
	add	r3, r3, r8	@ tmp157, a_46(D)->d.start, size
	str	r3, [r6, #24]	@ tmp157, a_46(D)->d.start
	.loc 1 1938 4 is_stmt 1 view .LVU1213
	.loc 1 1939 6 view .LVU1214
.LVL365:
	.loc 1 1939 6 is_stmt 0 view .LVU1215
.LBE260:
	.loc 1 1941 7 is_stmt 1 view .LVU1216
@ src/common/iobuf.c:1941:       if (n < buflen)
	.loc 1 1941 10 is_stmt 0 view .LVU1217
	bls	.L416		@,
.LVL366:
.L421:
	.loc 1 1954 6 is_stmt 1 view .LVU1218
@ src/common/iobuf.c:1954: 	    *buf++ = c;
	.loc 1 1954 13 is_stmt 0 view .LVU1219
	mov	r3, #0	@ c,
	strb	r3, [r4], #1	@ c, *buf_105
.LVL367:
.L420:
	.loc 1 1955 4 is_stmt 1 view .LVU1220
@ src/common/iobuf.c:1955: 	  n++;
	.loc 1 1955 5 is_stmt 0 view .LVU1221
	add	r5, r5, #1	@ <retval>, <retval>,
.LVL368:
	.loc 1 1958 9 is_stmt 1 view .LVU1222
@ src/common/iobuf.c:1958:   while (n < buflen);
	.loc 1 1958 3 is_stmt 0 view .LVU1223
	cmp	r5, r7	@ <retval>, buflen
	bcs	.L416		@,
.L431:
.LBB261:
	.loc 1 1931 4 is_stmt 1 discriminator 1 view .LVU1224
	.loc 1 1931 4 is_stmt 0 discriminator 1 view .LVU1225
.LBE261:
	.loc 1 1941 7 is_stmt 1 discriminator 1 view .LVU1226
	.loc 1 1953 4 discriminator 1 view .LVU1227
@ src/common/iobuf.c:1928:       if (n < buflen && a->d.start < a->d.len)
	.loc 1 1928 29 is_stmt 0 discriminator 1 view .LVU1228
	ldr	r3, [r6, #24]	@ _8, a_46(D)->d.start
@ src/common/iobuf.c:1928:       if (n < buflen && a->d.start < a->d.len)
	.loc 1 1928 42 discriminator 1 view .LVU1229
	ldr	r2, [r6, #28]	@ _9, a_46(D)->d.len
.LBB262:
@ src/common/iobuf.c:1932: 	  if (size > buflen - n)
	.loc 1 1932 22 discriminator 1 view .LVU1230
	sub	r8, r7, r5	@ tmp154, buflen, <retval>
.LBE262:
@ src/common/iobuf.c:1928:       if (n < buflen && a->d.start < a->d.len)
	.loc 1 1928 22 discriminator 1 view .LVU1231
	cmp	r3, r2	@ _8, _9
.LBB263:
@ src/common/iobuf.c:1931: 	  unsigned size = a->d.len - a->d.start;
	.loc 1 1931 13 discriminator 1 view .LVU1232
	sub	r1, r2, r3	@ size, _9, _8
.LVL369:
	.loc 1 1932 4 is_stmt 1 discriminator 1 view .LVU1233
.LBE263:
@ src/common/iobuf.c:1928:       if (n < buflen && a->d.start < a->d.len)
	.loc 1 1928 22 is_stmt 0 discriminator 1 view .LVU1234
	bcc	.L434		@,
@ src/common/iobuf.c:1953: 	  if (buf)
	.loc 1 1953 7 view .LVU1235
	cmp	r4, #0	@ buffer,
	bne	.L421		@,
	b	.L420		@
.LVL370:
.L418:
.LBB264:
@ src/common/iobuf.c:1936: 	  n += size;
	.loc 1 1936 6 view .LVU1236
	add	r5, r5, r8	@ <retval>, <retval>, size
.LVL371:
	.loc 1 1937 4 is_stmt 1 view .LVU1237
	.loc 1 1938 4 view .LVU1238
	.loc 1 1938 4 is_stmt 0 view .LVU1239
.LBE264:
	.loc 1 1941 7 is_stmt 1 view .LVU1240
@ src/common/iobuf.c:1941:       if (n < buflen)
	.loc 1 1941 10 is_stmt 0 view .LVU1241
	cmp	r7, r5	@ buflen, <retval>
.LBB265:
@ src/common/iobuf.c:1937: 	  a->d.start += size;
	.loc 1 1937 15 view .LVU1242
	str	r2, [r6, #24]	@ tmp163, a_46(D)->d.start
.LBE265:
@ src/common/iobuf.c:1941:       if (n < buflen)
	.loc 1 1941 10 view .LVU1243
	bhi	.L420		@,
	b	.L416		@
.LVL372:
.L433:
	.loc 1 1900 7 is_stmt 1 view .LVU1244
	ldr	r0, .L435+4	@,
@ src/common/iobuf.c:1901:       return -1;
	.loc 1 1901 14 is_stmt 0 view .LVU1245
	mvn	r5, #0	@ <retval>,
@ src/common/iobuf.c:1900:       printf ("iobuf_read called on a non-INPUT pipeline!\n");
	.loc 1 1900 7 view .LVU1246
.LPIC68:
	add	r0, pc, r0	@,
	bl	tfp_printf(PLT)	@
.LVL373:
	.loc 1 1901 7 is_stmt 1 view .LVU1247
@ src/common/iobuf.c:1901:       return -1;
	.loc 1 1901 14 is_stmt 0 view .LVU1248
	b	.L409		@
.L436:
	.align	2
.L435:
	.word	.LC45-(.LPIC67+8)
	.word	.LC46-(.LPIC68+8)
	.cfi_endproc
.LFE65:
	.size	iobuf_read, .-iobuf_read
	.section	.text.iobuf_peek,"ax",%progbits
	.align	2
	.global	iobuf_peek
	.syntax unified
	.arm
	.fpu softvfp
	.type	iobuf_peek, %function
iobuf_peek:
.LVL374:
.LFB66:
	.loc 1 1967 1 is_stmt 1 view -0
	.cfi_startproc
	@ args = 0, pretend = 0, frame = 0
	@ frame_needed = 0, uses_anonymous_args = 0
	.loc 1 1968 3 view .LVU1250
	.loc 1 1973 3 view .LVU1251
	ldr	ip, [r0, #20]	@ a_16(D)->d.size, a_16(D)->d.size
@ src/common/iobuf.c:1967: {
	.loc 1 1967 1 is_stmt 0 view .LVU1252
	mov	r3, r0	@ a, tmp130
	push	{r4, lr}	@
	.cfi_def_cfa_offset 8
	.cfi_offset 4, -8
	.cfi_offset 14, -4
@ src/common/iobuf.c:1967: {
	.loc 1 1967 1 view .LVU1253
	mov	r0, r1	@ buf, tmp131
.LVL375:
	.loc 1 1967 1 view .LVU1254
	cmp	r2, ip	@ tmp132, a_16(D)->d.size
@ src/common/iobuf.c:1979:   while (buflen > a->d.len - a->d.start)
	.loc 1 1979 23 view .LVU1255
	ldr	r4, [r3, #28]	@ _9, a_16(D)->d.len
	movcs	r2, ip	@ buflen, a_16(D)->d.size
.LVL376:
	.loc 1 1979 9 is_stmt 1 view .LVU1256
@ src/common/iobuf.c:1979:   while (buflen > a->d.len - a->d.start)
	.loc 1 1979 34 is_stmt 0 view .LVU1257
	ldr	ip, [r3, #24]	@ _22, a_16(D)->d.start
@ src/common/iobuf.c:1979:   while (buflen > a->d.len - a->d.start)
	.loc 1 1979 28 view .LVU1258
	sub	r1, r4, ip	@ _24, _9, _22
.LVL377:
@ src/common/iobuf.c:1979:   while (buflen > a->d.len - a->d.start)
	.loc 1 1979 9 view .LVU1259
	cmp	r2, r1	@ buflen, _24
	bls	.L441		@,
.L439:
	.loc 1 1988 7 is_stmt 1 view .LVU1260
	.loc 1 1979 9 view .LVU1261
	cmp	r2, r4	@ buflen, _9
	bhi	.L439		@,
	mov	ip, #0	@ tmp126,
	str	ip, [r3, #24]	@ tmp126, a_16(D)->d.start
.L438:
	.loc 1 1991 3 view .LVU1262
.LVL378:
	.loc 1 1992 3 view .LVU1263
	cmp	r2, r4	@ buflen, _9
	movcc	r4, r2	@ <retval>, buflen
.LVL379:
	.loc 1 1995 3 view .LVU1264
@ src/common/iobuf.c:1995:   if (n == 0)
	.loc 1 1995 6 is_stmt 0 view .LVU1265
	cmp	r4, #0	@ <retval>,
	beq	.L442		@,
	.loc 1 1999 3 is_stmt 1 view .LVU1266
@ src/common/iobuf.c:1999:   memcpy (buf, &a->d.buf[a->d.start], n);
	.loc 1 1999 16 is_stmt 0 view .LVU1267
	ldr	r1, [r3, #32]	@ a_16(D)->d.buf, a_16(D)->d.buf
@ src/common/iobuf.c:1999:   memcpy (buf, &a->d.buf[a->d.start], n);
	.loc 1 1999 3 view .LVU1268
	mov	r2, r4	@, <retval>
.LVL380:
	.loc 1 1999 3 view .LVU1269
	add	r1, r1, ip	@, a_16(D)->d.buf, _22
	bl	memcpy(PLT)	@
.LVL381:
	.loc 1 2001 3 is_stmt 1 view .LVU1270
.L437:
@ src/common/iobuf.c:2002: }
	.loc 1 2002 1 is_stmt 0 view .LVU1271
	mov	r0, r4	@, <retval>
	pop	{r4, pc}	@
.LVL382:
.L441:
@ src/common/iobuf.c:1979:   while (buflen > a->d.len - a->d.start)
	.loc 1 1979 9 view .LVU1272
	mov	r4, r1	@ _9, _24
	b	.L438		@
.LVL383:
.L442:
@ src/common/iobuf.c:1997:     return -1;
	.loc 1 1997 12 view .LVU1273
	mvn	r4, #0	@ <retval>,
.LVL384:
	.loc 1 1997 12 view .LVU1274
	b	.L437		@
	.cfi_endproc
.LFE66:
	.size	iobuf_peek, .-iobuf_peek
	.section	.rodata.iobuf_writebyte.str1.4,"aMS",%progbits,1
	.align	2
.LC47:
	.ascii	"iobuf_writebyte %02X\000"
	.align	2
.LC48:
	.ascii	"iobuf_writebyte called on an input pipeline!\012\000"
	.align	2
.LC49:
	.ascii	"filter_flush\012\000"
	.section	.text.iobuf_writebyte,"ax",%progbits
	.align	2
	.global	iobuf_writebyte
	.syntax unified
	.arm
	.fpu softvfp
	.type	iobuf_writebyte, %function
iobuf_writebyte:
.LVL385:
.LFB67:
	.loc 1 2064 1 is_stmt 1 view -0
	.cfi_startproc
	@ args = 0, pretend = 0, frame = 0
	@ frame_needed = 0, uses_anonymous_args = 0
	.loc 1 2065 3 view .LVU1276
@ src/common/iobuf.c:2064: {
	.loc 1 2064 1 is_stmt 0 view .LVU1277
	push	{r4, r5, r6, lr}	@
	.cfi_def_cfa_offset 16
	.cfi_offset 4, -16
	.cfi_offset 5, -12
	.cfi_offset 6, -8
	.cfi_offset 14, -4
@ src/common/iobuf.c:2064: {
	.loc 1 2064 1 view .LVU1278
	mov	r4, r0	@ tmp140, a
@ src/common/iobuf.c:2065:   printf("iobuf_writebyte %02X",c);
	.loc 1 2065 3 view .LVU1279
	ldr	r0, .L453	@,
.LVL386:
@ src/common/iobuf.c:2064: {
	.loc 1 2064 1 view .LVU1280
	mov	r6, r1	@ c, tmp141
@ src/common/iobuf.c:2065:   printf("iobuf_writebyte %02X",c);
	.loc 1 2065 3 view .LVU1281
.LPIC69:
	add	r0, pc, r0	@,
	bl	tfp_printf(PLT)	@
.LVL387:
	.loc 1 2066 3 is_stmt 1 view .LVU1282
	.loc 1 2068 3 view .LVU1283
@ src/common/iobuf.c:2068:   if (a->use == IOBUF_INPUT || a->use == IOBUF_INPUT_TEMP)
	.loc 1 2068 6 is_stmt 0 view .LVU1284
	ldrb	r3, [r4]	@ zero_extendqisi2	@ a_18(D)->use, a_18(D)->use
	cmp	r3, #1	@ a_18(D)->use,
	bls	.L451		@,
	.loc 1 2074 3 is_stmt 1 view .LVU1285
@ src/common/iobuf.c:2074:   if (a->d.len == a->d.size)
	.loc 1 2074 11 is_stmt 0 view .LVU1286
	ldr	r0, [r4, #28]	@ _2, a_18(D)->d.len
@ src/common/iobuf.c:2074:   if (a->d.len == a->d.size)
	.loc 1 2074 23 view .LVU1287
	ldr	r3, [r4, #20]	@ _3, a_18(D)->d.size
@ src/common/iobuf.c:2074:   if (a->d.len == a->d.size)
	.loc 1 2074 6 view .LVU1288
	cmp	r0, r3	@ _2, _3
	beq	.L452		@,
.L448:
	.loc 1 2079 3 is_stmt 1 view .LVU1289
	cmp	r0, r3	@ _2, _3
@ src/common/iobuf.c:2084:   return 0;
	.loc 1 2084 10 is_stmt 0 view .LVU1290
	mov	r5, #0	@ <retval>,
@ src/common/iobuf.c:2079:   printf (a->d.len < a->d.size);
	.loc 1 2079 3 view .LVU1291
	movcs	r0, #0	@,
	movcc	r0, #1	@,
	bl	tfp_printf(PLT)	@
.LVL388:
	.loc 1 2080 3 is_stmt 1 view .LVU1292
@ src/common/iobuf.c:2080:   a->d.buf[a->d.len++] = c;
	.loc 1 2080 16 is_stmt 0 view .LVU1293
	ldr	r3, [r4, #28]	@ _7, a_18(D)->d.len
@ src/common/iobuf.c:2080:   a->d.buf[a->d.len++] = c;
	.loc 1 2080 7 view .LVU1294
	ldr	r2, [r4, #32]	@ _6, a_18(D)->d.buf
@ src/common/iobuf.c:2080:   a->d.buf[a->d.len++] = c;
	.loc 1 2080 20 view .LVU1295
	add	r1, r3, #1	@ tmp137, _7,
	str	r1, [r4, #28]	@ tmp137, a_18(D)->d.len
@ src/common/iobuf.c:2080:   a->d.buf[a->d.len++] = c;
	.loc 1 2080 24 view .LVU1296
	strb	r6, [r2, r3]	@ c, *_9
	.loc 1 2084 3 is_stmt 1 view .LVU1297
.L445:
@ src/common/iobuf.c:2085: }
	.loc 1 2085 1 is_stmt 0 view .LVU1298
	mov	r0, r5	@, <retval>
	pop	{r4, r5, r6, pc}	@
.L452:
	.loc 1 2075 5 is_stmt 1 view .LVU1299
@ src/common/iobuf.c:2075:     if ((rc=filter_flush (a))){
	.loc 1 2075 13 is_stmt 0 view .LVU1300
	mov	r0, r4	@, a
	bl	filter_flush(PLT)	@
.LVL389:
@ src/common/iobuf.c:2075:     if ((rc=filter_flush (a))){
	.loc 1 2075 8 view .LVU1301
	subs	r5, r0, #0	@ <retval>, tmp142
@ src/common/iobuf.c:2079:   printf (a->d.len < a->d.size);
	.loc 1 2079 15 view .LVU1302
	ldreq	r0, [r4, #28]	@ _2, a_18(D)->d.len
.LVL390:
@ src/common/iobuf.c:2079:   printf (a->d.len < a->d.size);
	.loc 1 2079 26 view .LVU1303
	ldreq	r3, [r4, #20]	@ _3, a_18(D)->d.size
	beq	.L448		@
.LVL391:
.L449:
	.loc 1 2076 7 is_stmt 1 view .LVU1304
	ldr	r0, .L453+4	@,
.LVL392:
	.loc 1 2076 7 is_stmt 0 view .LVU1305
.LPIC71:
	add	r0, pc, r0	@,
	bl	tfp_printf(PLT)	@
.LVL393:
	.loc 1 2077 7 is_stmt 1 view .LVU1306
@ src/common/iobuf.c:2077:       return rc;
	.loc 1 2077 14 is_stmt 0 view .LVU1307
	b	.L445		@
.LVL394:
.L451:
	.loc 1 2070 7 is_stmt 1 view .LVU1308
	ldr	r0, .L453+8	@,
@ src/common/iobuf.c:2071:       return -1;
	.loc 1 2071 14 is_stmt 0 view .LVU1309
	mvn	r5, #0	@ <retval>,
@ src/common/iobuf.c:2070:       printf ("iobuf_writebyte called on an input pipeline!\n");
	.loc 1 2070 7 view .LVU1310
.LPIC70:
	add	r0, pc, r0	@,
	bl	tfp_printf(PLT)	@
.LVL395:
	.loc 1 2071 7 is_stmt 1 view .LVU1311
@ src/common/iobuf.c:2071:       return -1;
	.loc 1 2071 14 is_stmt 0 view .LVU1312
	b	.L445		@
.L454:
	.align	2
.L453:
	.word	.LC47-(.LPIC69+8)
	.word	.LC49-(.LPIC71+8)
	.word	.LC48-(.LPIC70+8)
	.cfi_endproc
.LFE67:
	.size	iobuf_writebyte, .-iobuf_writebyte
	.section	.rodata.iobuf_write.str1.4,"aMS",%progbits,1
	.align	2
.LC50:
	.ascii	"iobuf_write %d\000"
	.align	2
.LC51:
	.ascii	"iobuf_write called on an input pipeline!\012\000"
	.align	2
.LC52:
	.ascii	"iobuf_WROTE: %d bytes\012\000"
	.section	.text.iobuf_write,"ax",%progbits
	.align	2
	.global	iobuf_write
	.syntax unified
	.arm
	.fpu softvfp
	.type	iobuf_write, %function
iobuf_write:
.LVL396:
.LFB68:
	.loc 1 2091 1 is_stmt 1 view -0
	.cfi_startproc
	@ args = 0, pretend = 0, frame = 0
	@ frame_needed = 0, uses_anonymous_args = 0
	.loc 1 2092 3 view .LVU1314
@ src/common/iobuf.c:2091: {
	.loc 1 2091 1 is_stmt 0 view .LVU1315
	push	{r4, r5, r6, r7, r8, lr}	@
	.cfi_def_cfa_offset 24
	.cfi_offset 4, -24
	.cfi_offset 5, -20
	.cfi_offset 6, -16
	.cfi_offset 7, -12
	.cfi_offset 8, -8
	.cfi_offset 14, -4
@ src/common/iobuf.c:2091: {
	.loc 1 2091 1 view .LVU1316
	mov	r6, r0	@ tmp141, a
@ src/common/iobuf.c:2092:   printf("iobuf_write %d",buflen);
	.loc 1 2092 3 view .LVU1317
	ldr	r0, .L472	@,
.LVL397:
@ src/common/iobuf.c:2091: {
	.loc 1 2091 1 view .LVU1318
	mov	r7, r1	@ tmp142, buffer
@ src/common/iobuf.c:2092:   printf("iobuf_write %d",buflen);
	.loc 1 2092 3 view .LVU1319
	mov	r1, r2	@, buflen
.LVL398:
@ src/common/iobuf.c:2091: {
	.loc 1 2091 1 view .LVU1320
	mov	r5, r2	@ buflen, tmp143
@ src/common/iobuf.c:2092:   printf("iobuf_write %d",buflen);
	.loc 1 2092 3 view .LVU1321
.LPIC72:
	add	r0, pc, r0	@,
	bl	tfp_printf(PLT)	@
.LVL399:
	.loc 1 2093 3 is_stmt 1 view .LVU1322
	.loc 1 2094 3 view .LVU1323
	.loc 1 2096 3 view .LVU1324
@ src/common/iobuf.c:2096:   if (a->use == IOBUF_INPUT || a->use == IOBUF_INPUT_TEMP)
	.loc 1 2096 6 is_stmt 0 view .LVU1325
	ldrb	r3, [r6]	@ zero_extendqisi2	@ a_12(D)->use, a_12(D)->use
	cmp	r3, #1	@ a_12(D)->use,
	bls	.L467		@,
.LBB269:
.LBB270:
.LBB271:
@ src/common/iobuf.c:2111:   printf("iobuf_WROTE: %d bytes\n", size);
	.loc 1 2111 3 view .LVU1326
	ldr	r8, .L472+4	@ tmp140,
.LBE271:
@ src/common/iobuf.c:2104:       if (buflen && a->d.len < a->d.size)
	.loc 1 2104 10 view .LVU1327
	cmp	r5, #0	@ buflen,
.LBB272:
@ src/common/iobuf.c:2111:   printf("iobuf_WROTE: %d bytes\n", size);
	.loc 1 2111 3 view .LVU1328
.LPIC74:
	add	r8, pc, r8	@ tmp140, tmp140
.LVL400:
	.loc 1 2111 3 view .LVU1329
.LBE272:
	.loc 1 2102 3 is_stmt 1 view .LVU1330
	.loc 1 2104 7 view .LVU1331
@ src/common/iobuf.c:2104:       if (buflen && a->d.len < a->d.size)
	.loc 1 2104 10 is_stmt 0 view .LVU1332
	beq	.L458		@,
.LVL401:
.L471:
@ src/common/iobuf.c:2104:       if (buflen && a->d.len < a->d.size)
	.loc 1 2104 25 view .LVU1333
	ldr	r2, [r6, #28]	@ _16, a_12(D)->d.len
@ src/common/iobuf.c:2104:       if (buflen && a->d.len < a->d.size)
	.loc 1 2104 36 view .LVU1334
	ldr	r3, [r6, #20]	@ _17, a_12(D)->d.size
@ src/common/iobuf.c:2104:       if (buflen && a->d.len < a->d.size)
	.loc 1 2104 18 view .LVU1335
	cmp	r2, r3	@ _16, _17
	bcc	.L470		@,
.LVL402:
.L459:
	.loc 1 2118 4 is_stmt 1 view .LVU1336
@ src/common/iobuf.c:2118: 	  rc = filter_flush (a);
	.loc 1 2118 9 is_stmt 0 view .LVU1337
	mov	r0, r6	@, a
	bl	filter_flush(PLT)	@
.LVL403:
	.loc 1 2119 11 is_stmt 1 view .LVU1338
@ src/common/iobuf.c:2119:           if (rc)
	.loc 1 2119 14 is_stmt 0 view .LVU1339
	cmp	r0, #0	@ <retval>
	.loc 1 2119 14 view .LVU1340
	popne	{r4, r5, r6, r7, r8, pc}	@
	.loc 1 2102 3 is_stmt 1 view .LVU1341
	.loc 1 2104 7 view .LVU1342
@ src/common/iobuf.c:2104:       if (buflen && a->d.len < a->d.size)
	.loc 1 2104 10 is_stmt 0 view .LVU1343
	cmp	r5, #0	@ buflen,
	bne	.L471		@,
.LVL404:
.L458:
@ src/common/iobuf.c:2125:   return 0;
	.loc 1 2125 10 view .LVU1344
	mov	r0, #0	@ <retval>,
.LBE270:
.LBE269:
@ src/common/iobuf.c:2126: }
	.loc 1 2126 1 view .LVU1345
	pop	{r4, r5, r6, r7, r8, pc}	@
.LVL405:
.L470:
.LBB277:
.LBB276:
.LBB273:
	.loc 1 2106 4 is_stmt 1 view .LVU1346
@ src/common/iobuf.c:2106: 	  unsigned size = a->d.size - a->d.len;
	.loc 1 2106 13 is_stmt 0 view .LVU1347
	sub	r3, r3, r2	@ size, _17, _16
.LVL406:
	.loc 1 2107 4 is_stmt 1 view .LVU1348
@ src/common/iobuf.c:2109: 	  memcpy (a->d.buf + a->d.len, buf, size);
	.loc 1 2109 4 is_stmt 0 view .LVU1349
	mov	r1, r7	@, buffer
	cmp	r5, r3	@ buflen, size
@ src/common/iobuf.c:2109: 	  memcpy (a->d.buf + a->d.len, buf, size);
	.loc 1 2109 21 view .LVU1350
	ldr	r0, [r6, #32]	@ a_12(D)->d.buf, a_12(D)->d.buf
	movcs	r4, r3	@ size, size
	movcc	r4, r5	@ size, buflen
.LVL407:
	.loc 1 2109 4 is_stmt 1 view .LVU1351
	add	r0, r0, r2	@, a_12(D)->d.buf, _16
	mov	r2, r4	@, size
	bl	memcpy(PLT)	@
.LVL408:
	.loc 1 2111 3 view .LVU1352
	mov	r1, r4	@, size
	mov	r0, r8	@, tmp140
	bl	tfp_printf(PLT)	@
.LVL409:
	.loc 1 2112 4 view .LVU1353
	.loc 1 2113 4 view .LVU1354
	.loc 1 2114 4 view .LVU1355
@ src/common/iobuf.c:2114: 	  a->d.len += size;
	.loc 1 2114 13 is_stmt 0 view .LVU1356
	ldr	r3, [r6, #28]	@ a_12(D)->d.len, a_12(D)->d.len
.LBE273:
@ src/common/iobuf.c:2116:       if (buflen)
	.loc 1 2116 10 view .LVU1357
	subs	r5, r5, r4	@ buflen, buflen, size
.LVL410:
.LBB274:
@ src/common/iobuf.c:2114: 	  a->d.len += size;
	.loc 1 2114 13 view .LVU1358
	add	r3, r3, r4	@ tmp137, a_12(D)->d.len, size
	str	r3, [r6, #28]	@ tmp137, a_12(D)->d.len
	.loc 1 2114 13 view .LVU1359
.LBE274:
	.loc 1 2116 7 is_stmt 1 view .LVU1360
@ src/common/iobuf.c:2116:       if (buflen)
	.loc 1 2116 10 is_stmt 0 view .LVU1361
	beq	.L458		@,
.LBB275:
@ src/common/iobuf.c:2113: 	  buf += size;
	.loc 1 2113 8 view .LVU1362
	add	r7, r7, r4	@ buffer, buffer, size
.LVL411:
	.loc 1 2113 8 view .LVU1363
	b	.L459		@
.LVL412:
.L467:
	.loc 1 2113 8 view .LVU1364
.LBE275:
.LBE276:
.LBE277:
	.loc 1 2098 7 is_stmt 1 view .LVU1365
	ldr	r0, .L472+8	@,
.LPIC73:
	add	r0, pc, r0	@,
	bl	tfp_printf(PLT)	@
.LVL413:
	.loc 1 2099 7 view .LVU1366
@ src/common/iobuf.c:2099:       return -1;
	.loc 1 2099 14 is_stmt 0 view .LVU1367
	mvn	r0, #0	@ <retval>,
	pop	{r4, r5, r6, r7, r8, pc}	@
.L473:
	.align	2
.L472:
	.word	.LC50-(.LPIC72+8)
	.word	.LC52-(.LPIC74+8)
	.word	.LC51-(.LPIC73+8)
	.cfi_endproc
.LFE68:
	.size	iobuf_write, .-iobuf_write
	.section	.rodata.block_filter.str1.4,"aMS",%progbits,1
	.align	2
.LC53:
	.ascii	"block_filter %s\012\000"
	.align	2
.LC54:
	.ascii	"IOBUFCTRL_UNDERFLOW %d\012\000"
	.align	2
.LC55:
	.ascii	"These OpenPGP introduced huffman like encoded lengt"
	.ascii	"h bytes are really a mess :-(\012\000"
	.align	2
.LC56:
	.ascii	"block_filter: 1st length byte missing\012\000"
	.align	2
.LC57:
	.ascii	"block_filter: 2nd length byte missing\012\000"
	.align	2
.LC58:
	.ascii	"block_filter: invalid 4 byte length\012\000"
	.align	2
.LC59:
	.ascii	"block_filter %p: read error (size=%lu,a->size=%lu)\012"
	.ascii	"\000"
	.align	2
.LC60:
	.ascii	"IOBUFCTRL_FLUSH %d\012\000"
	.align	2
.LC61:
	.ascii	"store the rest in the buffer\000"
	.align	2
.LC62:
	.ascii	"1 byte <192 partial: remaining length=%u\012\000"
	.align	2
.LC63:
	.ascii	"2 byte header partial: remaining length=%u\012\000"
	.align	2
.LC64:
	.ascii	"4 byte header partial: remaining length=%u\012\000"
	.align	2
.LC65:
	.ascii	"1 byte header partial: remaining length=%u\012\000"
	.align	2
.LC66:
	.ascii	"block_filter: pending bytes!\012\000"
	.section	.text.block_filter,"ax",%progbits
	.align	2
	.syntax unified
	.arm
	.fpu softvfp
	.type	block_filter, %function
block_filter:
.LVL414:
.LFB41:
	.loc 1 641 1 is_stmt 1 view -0
	.cfi_startproc
	@ args = 4, pretend = 0, frame = 0
	@ frame_needed = 0, uses_anonymous_args = 0
	.loc 1 641 1 is_stmt 0 view .LVU1369
	ldr	ip, .L587	@ tmp294,
	push	{r3, r4, r5, r6, r7, r8, r9, r10, fp, lr}	@
	.cfi_def_cfa_offset 40
	.cfi_offset 3, -40
	.cfi_offset 4, -36
	.cfi_offset 5, -32
	.cfi_offset 6, -28
	.cfi_offset 7, -24
	.cfi_offset 8, -20
	.cfi_offset 9, -16
	.cfi_offset 10, -12
	.cfi_offset 11, -8
	.cfi_offset 14, -4
@ src/common/iobuf.c:641: {
	.loc 1 641 1 view .LVU1370
	mov	r6, r1	@ control, tmp459
.LPIC75:
	add	ip, pc, ip	@ tmp294, tmp294
	mov	r5, r0	@ tmp458, opaque
@ src/common/iobuf.c:642: printf("block_filter %s\n", control_mode_str[control]);
	.loc 1 642 1 view .LVU1371
	ldr	lr, .L587+4	@ tmp482,
	mov	r1, ip	@ tmp294, tmp294
.LVL415:
@ src/common/iobuf.c:641: {
	.loc 1 641 1 view .LVU1372
	ldr	r8, [sp, #40]	@ ret_len, ret_len
	mov	r7, r2	@ chain, tmp460
@ src/common/iobuf.c:642: printf("block_filter %s\n", control_mode_str[control]);
	.loc 1 642 1 view .LVU1373
	ldr	r0, [ip, lr]	@ tmp293,
.LVL416:
@ src/common/iobuf.c:641: {
	.loc 1 641 1 view .LVU1374
	mov	r10, r3	@ buffer, tmp461
@ src/common/iobuf.c:642: printf("block_filter %s\n", control_mode_str[control]);
	.loc 1 642 1 view .LVU1375
	ldr	r1, [r0, r6, lsl #2]	@, control_mode_str[control_221(D)]
	.loc 1 642 1 is_stmt 1 view .LVU1376
	ldr	r0, .L587+8	@,
.LPIC76:
	add	r0, pc, r0	@,
	bl	tfp_printf(PLT)	@
.LVL417:
	.loc 1 643 3 view .LVU1377
	.loc 1 644 3 view .LVU1378
	.loc 1 645 3 view .LVU1379
@ src/common/iobuf.c:645:   size_t size = *ret_len;
	.loc 1 645 10 is_stmt 0 view .LVU1380
	ldr	r4, [r8]	@ size, *ret_len_227(D)
.LVL418:
	.loc 1 646 3 is_stmt 1 view .LVU1381
	.loc 1 647 3 view .LVU1382
	.loc 1 649 3 view .LVU1383
@ src/common/iobuf.c:649:   if (control == IOBUFCTRL_UNDERFLOW)
	.loc 1 649 6 is_stmt 0 view .LVU1384
	cmp	r6, #3	@ control,
	beq	.L572		@,
	.loc 1 772 8 is_stmt 1 view .LVU1385
@ src/common/iobuf.c:772:   else if (control == IOBUFCTRL_FLUSH)
	.loc 1 772 11 is_stmt 0 view .LVU1386
	cmp	r6, #4	@ control,
	beq	.L573		@,
	.loc 1 840 8 is_stmt 1 view .LVU1387
@ src/common/iobuf.c:840:   else if (control == IOBUFCTRL_INIT)
	.loc 1 840 11 is_stmt 0 view .LVU1388
	cmp	r6, #1	@ control,
	beq	.L574		@,
	.loc 1 856 8 is_stmt 1 view .LVU1389
	.loc 1 861 8 view .LVU1390
@ src/common/iobuf.c:861:   else if (control == IOBUFCTRL_FREE)
	.loc 1 861 11 is_stmt 0 view .LVU1391
	cmp	r6, #2	@ control,
	beq	.L575		@,
.L527:
@ src/common/iobuf.c:646:   int c, needed, rc = 0;
	.loc 1 646 18 view .LVU1392
	mov	r9, #0	@ <retval>,
.LVL419:
.L474:
@ src/common/iobuf.c:930: }
	.loc 1 930 1 view .LVU1393
	mov	r0, r9	@, <retval>
	pop	{r3, r4, r5, r6, r7, r8, r9, r10, fp, pc}	@
.LVL420:
.L574:
	.loc 1 846 7 is_stmt 1 view .LVU1394
@ src/common/iobuf.c:846:       if (a->partial)
	.loc 1 846 10 is_stmt 0 view .LVU1395
	ldr	r3, [r5, #12]	@ MEM[(struct block_filter_ctx_t *)opaque_223(D)].partial, MEM[(struct block_filter_ctx_t *)opaque_223(D)].partial
	cmp	r3, #0	@ MEM[(struct block_filter_ctx_t *)opaque_223(D)].partial,
@ src/common/iobuf.c:847: 	a->count = 0;
	.loc 1 847 11 view .LVU1396
	movne	r3, #0	@ tmp409,
	strne	r3, [r5, #8]	@ tmp409, MEM[(struct block_filter_ctx_t *)opaque_223(D)].count
@ src/common/iobuf.c:846:       if (a->partial)
	.loc 1 846 10 view .LVU1397
	bne	.L525		@,
	.loc 1 848 12 is_stmt 1 view .LVU1398
@ src/common/iobuf.c:848:       else if (a->use == IOBUF_INPUT)
	.loc 1 848 15 is_stmt 0 view .LVU1399
	ldr	r3, [r5]	@ MEM[(struct block_filter_ctx_t *)opaque_223(D)].use, MEM[(struct block_filter_ctx_t *)opaque_223(D)].use
	cmp	r3, #0	@ MEM[(struct block_filter_ctx_t *)opaque_223(D)].use,
	.loc 1 849 2 is_stmt 1 view .LVU1400
@ src/common/iobuf.c:849: 	a->count = a->size = 0;
	.loc 1 849 21 is_stmt 0 view .LVU1401
	streq	r3, [r5, #4]	@ MEM[(struct block_filter_ctx_t *)opaque_223(D)].use, MEM[(struct block_filter_ctx_t *)opaque_223(D)].size
	.loc 1 851 2 is_stmt 1 view .LVU1402
@ src/common/iobuf.c:851: 	a->count = a->size;	/* force first length bytes */
	.loc 1 851 11 is_stmt 0 view .LVU1403
	ldrne	r3, [r5, #4]	@ MEM[(struct block_filter_ctx_t *)opaque_223(D)].size, MEM[(struct block_filter_ctx_t *)opaque_223(D)].size
	str	r3, [r5, #8]	@ MEM[(struct block_filter_ctx_t *)opaque_223(D)].size, MEM[(struct block_filter_ctx_t *)opaque_223(D)].count
.L525:
	.loc 1 852 7 is_stmt 1 view .LVU1404
@ src/common/iobuf.c:852:       a->eof = 0;
	.loc 1 852 14 is_stmt 0 view .LVU1405
	mov	r3, #0	@ tmp414,
	str	r3, [r5, #28]	@ tmp414, MEM[(struct block_filter_ctx_t *)opaque_223(D)].eof
	.loc 1 853 7 is_stmt 1 view .LVU1406
@ src/common/iobuf.c:646:   int c, needed, rc = 0;
	.loc 1 646 18 is_stmt 0 view .LVU1407
	mov	r9, r3	@ <retval>, tmp414
@ src/common/iobuf.c:853:       a->buffer = NULL;
	.loc 1 853 17 view .LVU1408
	str	r3, [r5, #16]	@ tmp414, MEM[(struct block_filter_ctx_t *)opaque_223(D)].buffer
	.loc 1 854 7 is_stmt 1 view .LVU1409
@ src/common/iobuf.c:930: }
	.loc 1 930 1 is_stmt 0 view .LVU1410
	mov	r0, r9	@, <retval>
@ src/common/iobuf.c:854:       a->buflen = 0;
	.loc 1 854 17 view .LVU1411
	str	r3, [r5, #20]	@ tmp414, MEM[(struct block_filter_ctx_t *)opaque_223(D)].buflen
@ src/common/iobuf.c:930: }
	.loc 1 930 1 view .LVU1412
	pop	{r3, r4, r5, r6, r7, r8, r9, r10, fp, pc}	@
.L572:
.LBB278:
	.loc 1 651 7 is_stmt 1 view .LVU1413
	ldr	r0, .L587+12	@,
	mov	r1, r4	@, size
.LPIC77:
	add	r0, pc, r0	@,
	bl	tfp_printf(PLT)	@
.LVL421:
	.loc 1 652 7 view .LVU1414
	.loc 1 654 7 view .LVU1415
	.loc 1 655 7 view .LVU1416
	mov	r0, r4	@, size
	bl	tfp_printf(PLT)	@
.LVL422:
	.loc 1 656 7 view .LVU1417
@ src/common/iobuf.c:656:       if (a->eof)		/* don't read any further */
	.loc 1 656 12 is_stmt 0 view .LVU1418
	ldr	r9, [r5, #28]	@ <retval>, MEM[(struct block_filter_ctx_t *)opaque_223(D)].eof
@ src/common/iobuf.c:656:       if (a->eof)		/* don't read any further */
	.loc 1 656 10 view .LVU1419
	cmp	r9, #0	@ <retval>,
	movne	r6, #0	@ n,
.LVL423:
@ src/common/iobuf.c:657: 	rc = -1;
	.loc 1 657 5 view .LVU1420
	mvnne	r9, #0	@ <retval>,
@ src/common/iobuf.c:656:       if (a->eof)		/* don't read any further */
	.loc 1 656 10 view .LVU1421
	bne	.L476		@,
	.loc 1 658 13 is_stmt 1 view .LVU1422
	cmp	r4, #0	@ size,
	beq	.L536		@,
@ src/common/iobuf.c:660: 	  if (!a->size)
	.loc 1 660 10 is_stmt 0 view .LVU1423
	ldr	r3, [r5, #4]	@ _110, MEM[(struct block_filter_ctx_t *)opaque_223(D)].size
@ src/common/iobuf.c:660: 	  if (!a->size)
	.loc 1 660 7 view .LVU1424
	cmp	r3, #0	@ _110,
@ src/common/iobuf.c:660: 	  if (!a->size)
	.loc 1 660 10 view .LVU1425
	mov	r6, r3	@ n, _110
	.loc 1 660 4 is_stmt 1 view .LVU1426
	movne	r6, r9	@ n, <retval>
@ src/common/iobuf.c:660: 	  if (!a->size)
	.loc 1 660 7 is_stmt 0 view .LVU1427
	beq	.L512		@,
.LVL424:
.L506:
	.loc 1 748 10 is_stmt 1 view .LVU1428
@ src/common/iobuf.c:748: 	  while (!rc && size && a->size)
	.loc 1 748 27 is_stmt 0 view .LVU1429
	mov	r2, r3	@ _110, _110
.L510:
	.loc 1 750 8 is_stmt 1 discriminator 1 view .LVU1430
@ src/common/iobuf.c:748: 	  while (!rc && size && a->size)
	.loc 1 748 23 is_stmt 0 discriminator 1 view .LVU1431
	cmp	r2, #0	@ _110,
@ src/common/iobuf.c:751: 	      c = iobuf_read (chain, p, needed);
	.loc 1 751 12 discriminator 1 view .LVU1432
	mov	r1, r10	@, buffer
	mov	r0, r7	@, chain
@ src/common/iobuf.c:748: 	  while (!rc && size && a->size)
	.loc 1 748 23 discriminator 1 view .LVU1433
	beq	.L512		@,
.LVL425:
@ src/common/iobuf.c:750: 	      needed = size < a->size ? size : a->size;
	.loc 1 750 39 view .LVU1434
	cmp	r2, r4	@ _110, size
	movcc	fp, r2	@ _101, _110
	movcs	fp, r4	@ _101, size
.LVL426:
	.loc 1 751 8 is_stmt 1 view .LVU1435
@ src/common/iobuf.c:751: 	      c = iobuf_read (chain, p, needed);
	.loc 1 751 12 is_stmt 0 view .LVU1436
	mov	r2, fp	@, _101
	bl	iobuf_read(PLT)	@
.LVL427:
	.loc 1 763 5 is_stmt 1 view .LVU1437
	.loc 1 752 8 view .LVU1438
	.loc 1 764 5 view .LVU1439
@ src/common/iobuf.c:752: 	      if (c < needed)
	.loc 1 752 11 is_stmt 0 view .LVU1440
	cmp	fp, r0	@ _101, c
@ src/common/iobuf.c:765: 		  p += c;
	.loc 1 765 7 view .LVU1441
	add	r10, r10, r0	@ buffer, buffer, c
@ src/common/iobuf.c:752: 	      if (c < needed)
	.loc 1 752 11 view .LVU1442
	ble	.L507		@,
	.loc 1 754 5 is_stmt 1 view .LVU1443
@ src/common/iobuf.c:756: 		  printf
	.loc 1 756 5 is_stmt 0 view .LVU1444
	ldr	ip, [r5, #4]	@ MEM[(struct block_filter_ctx_t *)opaque_223(D)].size, MEM[(struct block_filter_ctx_t *)opaque_223(D)].size
@ src/common/iobuf.c:754: 		  if (c == -1)
	.loc 1 754 8 view .LVU1445
	cmn	r0, #1	@ c,
@ src/common/iobuf.c:756: 		  printf
	.loc 1 756 5 view .LVU1446
	movne	r3, r0	@ prephitmp_452, c
.LVL428:
	.loc 1 756 5 is_stmt 1 view .LVU1447
	moveq	r3, #0	@ prephitmp_452,
.LVL429:
	.loc 1 756 5 is_stmt 0 view .LVU1448
	ldr	r0, .L587+16	@,
	.loc 1 756 5 view .LVU1449
	mov	r1, r5	@, opaque
	addne	r4, r4, r3	@ size, size, prephitmp_452
@ src/common/iobuf.c:759: 		  rc = GPG_ERR_BAD_DATA;
	.loc 1 759 8 view .LVU1450
	mov	r9, #89	@ <retval>,
@ src/common/iobuf.c:756: 		  printf
	.loc 1 756 5 view .LVU1451
.LPIC82:
	add	r0, pc, r0	@,
	mov	r2, r4	@, size
	add	r3, r3, ip	@, prephitmp_452, MEM[(struct block_filter_ctx_t *)opaque_223(D)].size
	bl	tfp_printf(PLT)	@
.LVL430:
	.loc 1 759 5 is_stmt 1 view .LVU1452
	.loc 1 748 10 view .LVU1453
.L476:
	.loc 1 770 7 view .LVU1454
@ src/common/iobuf.c:770:       *ret_len = n;
	.loc 1 770 16 is_stmt 0 view .LVU1455
	str	r6, [r8]	@ n, *ret_len_227(D)
.LBE278:
@ src/common/iobuf.c:930: }
	.loc 1 930 1 view .LVU1456
	mov	r0, r9	@, <retval>
	pop	{r3, r4, r5, r6, r7, r8, r9, r10, fp, pc}	@
.LVL431:
.L512:
.LBB279:
	.loc 1 662 8 is_stmt 1 view .LVU1457
@ src/common/iobuf.c:662: 	      if (a->partial == 2)
	.loc 1 662 13 is_stmt 0 view .LVU1458
	ldr	r2, [r5, #12]	@ _5, MEM[(struct block_filter_ctx_t *)opaque_223(D)].partial
@ src/common/iobuf.c:662: 	      if (a->partial == 2)
	.loc 1 662 11 view .LVU1459
	cmp	r2, #2	@ _5,
	beq	.L568		@,
	.loc 1 669 13 is_stmt 1 view .LVU1460
@ src/common/iobuf.c:669: 	      else if (a->partial)
	.loc 1 669 16 is_stmt 0 view .LVU1461
	cmp	r2, #0	@ _5,
	beq	.L506		@,
	.loc 1 673 7 is_stmt 1 view .LVU1462
	ldr	r0, .L587+20	@,
.LPIC78:
	add	r0, pc, r0	@,
	bl	tfp_printf(PLT)	@
.LVL432:
	.loc 1 674 5 view .LVU1463
@ src/common/iobuf.c:674: 		  if (a->first_c)
	.loc 1 674 10 is_stmt 0 view .LVU1464
	ldr	r3, [r5, #24]	@ c, MEM[(struct block_filter_ctx_t *)opaque_223(D)].first_c
@ src/common/iobuf.c:674: 		  if (a->first_c)
	.loc 1 674 8 view .LVU1465
	cmp	r3, #0	@ c,
	beq	.L479		@,
	.loc 1 676 9 is_stmt 1 view .LVU1466
.LVL433:
	.loc 1 677 9 view .LVU1467
@ src/common/iobuf.c:685: 		  if (c < 192)
	.loc 1 685 8 is_stmt 0 view .LVU1468
	cmp	r3, #191	@ c,
@ src/common/iobuf.c:677: 		      a->first_c = 0;
	.loc 1 677 20 view .LVU1469
	mov	r2, #0	@ tmp305,
	str	r2, [r5, #24]	@ tmp305, MEM[(struct block_filter_ctx_t *)opaque_223(D)].first_c
	.loc 1 685 5 is_stmt 1 view .LVU1470
@ src/common/iobuf.c:685: 		  if (c < 192)
	.loc 1 685 8 is_stmt 0 view .LVU1471
	bgt	.L481		@,
	.loc 1 687 9 is_stmt 1 view .LVU1472
@ src/common/iobuf.c:687: 		      a->size = c;
	.loc 1 687 17 is_stmt 0 view .LVU1473
	str	r3, [r5, #4]	@ c, MEM[(struct block_filter_ctx_t *)opaque_223(D)].size
	.loc 1 688 9 is_stmt 1 view .LVU1474
@ src/common/iobuf.c:688: 		      a->partial = 2;
	.loc 1 688 20 is_stmt 0 view .LVU1475
	mov	r2, #2	@ tmp452,
	str	r2, [r5, #12]	@ tmp452, MEM[(struct block_filter_ctx_t *)opaque_223(D)].partial
	.loc 1 689 9 is_stmt 1 view .LVU1476
	b	.L506		@
.LVL434:
.L507:
@ src/common/iobuf.c:764: 		  a->size -= c;
	.loc 1 764 13 is_stmt 0 view .LVU1477
	ldr	r3, [r5, #4]	@ _110, MEM[(struct block_filter_ctx_t *)opaque_223(D)].size
@ src/common/iobuf.c:748: 	  while (!rc && size && a->size)
	.loc 1 748 10 view .LVU1478
	subs	r4, r4, r0	@ size, size, c
.LVL435:
@ src/common/iobuf.c:764: 		  a->size -= c;
	.loc 1 764 13 view .LVU1479
	sub	r2, r3, r0	@ _110, _110, c
@ src/common/iobuf.c:766: 		  n += c;
	.loc 1 766 7 view .LVU1480
	add	r6, r6, r0	@ n, n, c
.LVL436:
@ src/common/iobuf.c:764: 		  a->size -= c;
	.loc 1 764 13 view .LVU1481
	mov	r3, r2	@ _110, _110
	str	r2, [r5, #4]	@ _110, MEM[(struct block_filter_ctx_t *)opaque_223(D)].size
	.loc 1 765 5 is_stmt 1 view .LVU1482
	.loc 1 766 5 view .LVU1483
.LVL437:
	.loc 1 748 10 view .LVU1484
	bne	.L510		@,
	b	.L476		@
.LVL438:
.L479:
	.loc 1 679 10 view .LVU1485
@ src/common/iobuf.c:679: 		  else if ((c = iobuf_get (chain)) == -1)
	.loc 1 679 19 is_stmt 0 view .LVU1486
	ldr	r3, [r7, #16]	@ chain_233(D)->nofast, chain_233(D)->nofast
	cmp	r3, #0	@ chain_233(D)->nofast,
	bne	.L482		@,
@ src/common/iobuf.c:679: 		  else if ((c = iobuf_get (chain)) == -1)
	.loc 1 679 19 discriminator 2 view .LVU1487
	ldr	r3, [r7, #24]	@ _9, chain_233(D)->d.start
	ldr	r2, [r7, #28]	@ chain_233(D)->d.len, chain_233(D)->d.len
	cmp	r3, r2	@ _9, chain_233(D)->d.len
	bcs	.L482		@,
@ src/common/iobuf.c:679: 		  else if ((c = iobuf_get (chain)) == -1)
	.loc 1 679 19 discriminator 4 view .LVU1488
	ldr	r2, [r7, #8]	@ chain_233(D)->nbytes, chain_233(D)->nbytes
	ldr	r1, [r7, #32]	@ _13, chain_233(D)->d.buf
	add	r2, r2, #1	@ tmp308, chain_233(D)->nbytes,
	str	r2, [r7, #8]	@ tmp308, chain_233(D)->nbytes
	add	r2, r3, #1	@ tmp310, _9,
	str	r2, [r7, #24]	@ tmp310, chain_233(D)->d.start
	ldrb	r3, [r1, r3]	@ zero_extendqisi2	@ c, *_16
.LVL439:
.L485:
	.loc 1 685 5 is_stmt 1 view .LVU1489
@ src/common/iobuf.c:685: 		  if (c < 192)
	.loc 1 685 8 is_stmt 0 view .LVU1490
	cmp	r3, #191	@ c,
	ble	.L570		@,
.L481:
	.loc 1 697 10 is_stmt 1 view .LVU1491
@ src/common/iobuf.c:697: 		  else if (c < 224)
	.loc 1 697 13 is_stmt 0 view .LVU1492
	cmp	r3, #223	@ c,
	bgt	.L486		@,
	.loc 1 699 9 is_stmt 1 view .LVU1493
@ src/common/iobuf.c:700: 		      if ((c = iobuf_get (chain)) == -1)
	.loc 1 700 18 is_stmt 0 view .LVU1494
	ldr	r2, [r7, #16]	@ chain_233(D)->nofast, chain_233(D)->nofast
@ src/common/iobuf.c:699: 		      a->size = (c - 192) * 256;
	.loc 1 699 22 view .LVU1495
	sub	r3, r3, #192	@ tmp317, c,
.LVL440:
@ src/common/iobuf.c:699: 		      a->size = (c - 192) * 256;
	.loc 1 699 29 view .LVU1496
	lsl	r3, r3, #8	@ _22, tmp317,
.LVL441:
@ src/common/iobuf.c:700: 		      if ((c = iobuf_get (chain)) == -1)
	.loc 1 700 18 view .LVU1497
	cmp	r2, #0	@ chain_233(D)->nofast,
@ src/common/iobuf.c:699: 		      a->size = (c - 192) * 256;
	.loc 1 699 17 view .LVU1498
	str	r3, [r5, #4]	@ _22, MEM[(struct block_filter_ctx_t *)opaque_223(D)].size
	.loc 1 700 9 is_stmt 1 view .LVU1499
@ src/common/iobuf.c:700: 		      if ((c = iobuf_get (chain)) == -1)
	.loc 1 700 18 is_stmt 0 view .LVU1500
	bne	.L487		@,
@ src/common/iobuf.c:700: 		      if ((c = iobuf_get (chain)) == -1)
	.loc 1 700 18 discriminator 2 view .LVU1501
	ldr	r2, [r7, #24]	@ _24, chain_233(D)->d.start
	ldr	r1, [r7, #28]	@ chain_233(D)->d.len, chain_233(D)->d.len
	cmp	r2, r1	@ _24, chain_233(D)->d.len
	bcs	.L487		@,
@ src/common/iobuf.c:700: 		      if ((c = iobuf_get (chain)) == -1)
	.loc 1 700 18 discriminator 4 view .LVU1502
	ldr	r1, [r7, #8]	@ chain_233(D)->nbytes, chain_233(D)->nbytes
@ src/common/iobuf.c:707: 		      a->size += c + 192;
	.loc 1 707 17 discriminator 4 view .LVU1503
	add	r3, r3, #192	@ tmp324, _22,
@ src/common/iobuf.c:700: 		      if ((c = iobuf_get (chain)) == -1)
	.loc 1 700 18 discriminator 4 view .LVU1504
	ldr	r0, [r7, #32]	@ _28, chain_233(D)->d.buf
	add	r1, r1, #1	@ tmp320, chain_233(D)->nbytes,
	str	r1, [r7, #8]	@ tmp320, chain_233(D)->nbytes
	add	r1, r2, #1	@ tmp322, _24,
	str	r1, [r7, #24]	@ tmp322, chain_233(D)->d.start
.LVL442:
	.loc 1 707 9 is_stmt 1 discriminator 4 view .LVU1505
@ src/common/iobuf.c:707: 		      a->size += c + 192;
	.loc 1 707 17 is_stmt 0 discriminator 4 view .LVU1506
	ldrb	r2, [r0, r2]	@ zero_extendqisi2	@ *_31, *_31
.LVL443:
	.loc 1 707 17 discriminator 4 view .LVU1507
	add	r3, r2, r3	@ tmp325, *_31, tmp324
@ src/common/iobuf.c:708: 		      a->partial = 2;
	.loc 1 708 20 discriminator 4 view .LVU1508
	mov	r2, #2	@ tmp326,
.LVL444:
@ src/common/iobuf.c:707: 		      a->size += c + 192;
	.loc 1 707 17 discriminator 4 view .LVU1509
	str	r3, [r5, #4]	@ tmp325, MEM[(struct block_filter_ctx_t *)opaque_223(D)].size
.LVL445:
	.loc 1 708 9 is_stmt 1 discriminator 4 view .LVU1510
@ src/common/iobuf.c:708: 		      a->partial = 2;
	.loc 1 708 20 is_stmt 0 discriminator 4 view .LVU1511
	str	r2, [r5, #12]	@ tmp326, MEM[(struct block_filter_ctx_t *)opaque_223(D)].partial
	.loc 1 709 9 is_stmt 1 discriminator 4 view .LVU1512
	b	.L506		@
.L487:
@ src/common/iobuf.c:700: 		      if ((c = iobuf_get (chain)) == -1)
	.loc 1 700 18 is_stmt 0 discriminator 3 view .LVU1513
	mov	r0, r7	@, chain
	bl	iobuf_readbyte(PLT)	@
.LVL446:
@ src/common/iobuf.c:700: 		      if ((c = iobuf_get (chain)) == -1)
	.loc 1 700 12 discriminator 3 view .LVU1514
	cmn	r0, #1	@ iftmp.58_340,
@ src/common/iobuf.c:707: 		      a->size += c + 192;
	.loc 1 707 17 discriminator 3 view .LVU1515
	ldrne	r3, [r5, #4]	@ _110, MEM[(struct block_filter_ctx_t *)opaque_223(D)].size
	addne	r3, r3, #192	@ tmp329, _110,
	addne	r3, r3, r0	@ _110, tmp329, iftmp.58_340
@ src/common/iobuf.c:700: 		      if ((c = iobuf_get (chain)) == -1)
	.loc 1 700 12 discriminator 3 view .LVU1516
	beq	.L576		@,
.LVL447:
.L570:
@ src/common/iobuf.c:728: 		      a->size |= c;
	.loc 1 728 17 view .LVU1517
	str	r3, [r5, #4]	@ _95, MEM[(struct block_filter_ctx_t *)opaque_223(D)].size
	.loc 1 729 23 is_stmt 1 view .LVU1518
@ src/common/iobuf.c:730:                       if (!a->size)
	.loc 1 730 26 is_stmt 0 view .LVU1519
	cmp	r3, #0	@ _95,
@ src/common/iobuf.c:729:                       a->partial = 2;
	.loc 1 729 34 view .LVU1520
	mov	r2, #2	@ tmp366,
	str	r2, [r5, #12]	@ tmp366, MEM[(struct block_filter_ctx_t *)opaque_223(D)].partial
	.loc 1 730 23 is_stmt 1 view .LVU1521
@ src/common/iobuf.c:730:                       if (!a->size)
	.loc 1 730 26 is_stmt 0 view .LVU1522
	bne	.L506		@,
.L568:
	.loc 1 732 27 is_stmt 1 view .LVU1523
@ src/common/iobuf.c:733:                           if (!n)
	.loc 1 733 30 is_stmt 0 view .LVU1524
	clz	r9, r6	@ tmp369, n
@ src/common/iobuf.c:732:                           a->eof = 1;
	.loc 1 732 34 view .LVU1525
	mov	r3, #1	@ tmp367,
	str	r3, [r5, #28]	@ tmp367, MEM[(struct block_filter_ctx_t *)opaque_223(D)].eof
	.loc 1 733 27 is_stmt 1 view .LVU1526
@ src/common/iobuf.c:733:                           if (!n)
	.loc 1 733 30 is_stmt 0 view .LVU1527
	lsr	r9, r9, #5	@ tmp369, tmp369,
	rsb	r9, r9, #0	@ <retval>, tmp369
	b	.L476		@
.L482:
@ src/common/iobuf.c:679: 		  else if ((c = iobuf_get (chain)) == -1)
	.loc 1 679 19 discriminator 3 view .LVU1528
	mov	r0, r7	@, chain
	bl	iobuf_readbyte(PLT)	@
.LVL448:
@ src/common/iobuf.c:679: 		  else if ((c = iobuf_get (chain)) == -1)
	.loc 1 679 13 discriminator 3 view .LVU1529
	cmn	r0, #1	@ c,
@ src/common/iobuf.c:679: 		  else if ((c = iobuf_get (chain)) == -1)
	.loc 1 679 19 discriminator 3 view .LVU1530
	mov	r3, r0	@ c, tmp462
.LVL449:
@ src/common/iobuf.c:679: 		  else if ((c = iobuf_get (chain)) == -1)
	.loc 1 679 13 discriminator 3 view .LVU1531
	bne	.L485		@,
	.loc 1 681 9 is_stmt 1 view .LVU1532
	ldr	r0, .L587+24	@,
.LVL450:
@ src/common/iobuf.c:682: 		      rc = GPG_ERR_BAD_DATA;
	.loc 1 682 12 is_stmt 0 view .LVU1533
	mov	r9, #89	@ <retval>,
@ src/common/iobuf.c:681: 		      printf ("block_filter: 1st length byte missing\n");
	.loc 1 681 9 view .LVU1534
.LPIC79:
	add	r0, pc, r0	@,
	bl	tfp_printf(PLT)	@
.LVL451:
	.loc 1 682 9 is_stmt 1 view .LVU1535
	.loc 1 683 9 view .LVU1536
	b	.L476		@
.LVL452:
.L486:
	.loc 1 717 10 view .LVU1537
@ src/common/iobuf.c:717: 		  else if (c == 255)
	.loc 1 717 13 is_stmt 0 view .LVU1538
	cmp	r3, #255	@ c,
	beq	.L577		@,
	.loc 1 740 9 is_stmt 1 view .LVU1539
@ src/common/iobuf.c:740: 		      a->size = 1 << (c & 0x1f);
	.loc 1 740 27 is_stmt 0 view .LVU1540
	and	r3, r3, #31	@ tmp370, c,
.LVL453:
@ src/common/iobuf.c:740: 		      a->size = 1 << (c & 0x1f);
	.loc 1 740 21 view .LVU1541
	mov	r2, #1	@ tmp372,
	lsl	r3, r2, r3	@ tmp371, tmp372, tmp370
@ src/common/iobuf.c:740: 		      a->size = 1 << (c & 0x1f);
	.loc 1 740 17 view .LVU1542
	str	r3, [r5, #4]	@ tmp371, MEM[(struct block_filter_ctx_t *)opaque_223(D)].size
	b	.L506		@
.LVL454:
.L573:
	.loc 1 740 17 view .LVU1543
.LBE279:
	.loc 1 774 13 is_stmt 1 view .LVU1544
	ldr	r0, .L587+28	@,
	ldr	r1, [r5, #12]	@, MEM[(struct block_filter_ctx_t *)opaque_223(D)].partial
.LPIC83:
	add	r0, pc, r0	@,
	bl	tfp_printf(PLT)	@
.LVL455:
	.loc 1 776 7 view .LVU1545
@ src/common/iobuf.c:776:       if (a->partial)
	.loc 1 776 10 is_stmt 0 view .LVU1546
	ldr	r3, [r5, #12]	@ MEM[(struct block_filter_ctx_t *)opaque_223(D)].partial, MEM[(struct block_filter_ctx_t *)opaque_223(D)].partial
	cmp	r3, #0	@ MEM[(struct block_filter_ctx_t *)opaque_223(D)].partial,
	beq	.L527		@,
.LBB280:
	.loc 1 778 4 is_stmt 1 view .LVU1547
@ src/common/iobuf.c:778: 	  size_t blen, n, nbytes = size + a->buflen;
	.loc 1 778 37 is_stmt 0 view .LVU1548
	ldr	r0, [r5, #20]	@ _122, MEM[(struct block_filter_ctx_t *)opaque_223(D)].buflen
@ src/common/iobuf.c:778: 	  size_t blen, n, nbytes = size + a->buflen;
	.loc 1 778 20 view .LVU1549
	add	r6, r0, r4	@ nbytes, _122, size
.LVL456:
	.loc 1 781 4 is_stmt 1 view .LVU1550
@ src/common/iobuf.c:781: 	  if (nbytes < OP_MIN_PARTIAL_CHUNK)
	.loc 1 781 7 is_stmt 0 view .LVU1551
	cmp	r6, #512	@ nbytes,
	bcc	.L578		@,
.LVL457:
.L516:
	.loc 1 793 8 is_stmt 1 view .LVU1552
	.loc 1 797 5 view .LVU1553
	.loc 1 798 45 view .LVU1554
@ src/common/iobuf.c:797: 		  for (blen = OP_MIN_PARTIAL_CHUNK * 2,
	.loc 1 797 5 is_stmt 0 view .LVU1555
	cmp	r6, #1024	@ nbytes,
	bcc	.L539		@,
@ src/common/iobuf.c:797: 		  for (blen = OP_MIN_PARTIAL_CHUNK * 2,
	.loc 1 797 15 view .LVU1556
	mov	r3, #1024	@ blen,
@ src/common/iobuf.c:798: 		       c = OP_MIN_PARTIAL_CHUNK_2POW + 1; blen <= nbytes;
	.loc 1 798 12 view .LVU1557
	mov	r2, #10	@ c,
.LVL458:
.L519:
	.loc 1 800 7 is_stmt 1 view .LVU1558
	.loc 1 799 10 view .LVU1559
@ src/common/iobuf.c:799: 		       blen *= 2, c++)
	.loc 1 799 15 is_stmt 0 view .LVU1560
	lsl	r3, r3, #1	@ blen, blen,
.LVL459:
	.loc 1 799 15 view .LVU1561
	mov	r0, r2	@ c, c
@ src/common/iobuf.c:797: 		  for (blen = OP_MIN_PARTIAL_CHUNK * 2,
	.loc 1 797 5 view .LVU1562
	cmp	r6, r3	@ nbytes, blen
@ src/common/iobuf.c:799: 		       blen *= 2, c++)
	.loc 1 799 22 view .LVU1563
	add	r2, r2, #1	@ c, c,
.LVL460:
	.loc 1 798 45 is_stmt 1 view .LVU1564
@ src/common/iobuf.c:797: 		  for (blen = OP_MIN_PARTIAL_CHUNK * 2,
	.loc 1 797 5 is_stmt 0 view .LVU1565
	bcs	.L519		@,
@ src/common/iobuf.c:804: 		  printf (c <= 0x1f);	/*;-) */
	.loc 1 804 5 view .LVU1566
	cmp	r0, #31	@ c,
@ src/common/iobuf.c:805: 		  c |= 0xe0;
	.loc 1 805 7 view .LVU1567
	orr	r8, r0, #224	@ _145, c,
@ src/common/iobuf.c:801: 		  blen /= 2;
	.loc 1 801 10 view .LVU1568
	lsr	r4, r3, #1	@ _184, blen,
@ src/common/iobuf.c:804: 		  printf (c <= 0x1f);	/*;-) */
	.loc 1 804 5 view .LVU1569
	movgt	r0, #0	@ prephitmp_439,
	movle	r0, #1	@ prephitmp_439,
.LVL461:
.L518:
	.loc 1 801 5 is_stmt 1 view .LVU1570
	.loc 1 802 5 view .LVU1571
	.loc 1 804 5 view .LVU1572
	bl	tfp_printf(PLT)	@
.LVL462:
	.loc 1 805 5 view .LVU1573
	.loc 1 806 5 view .LVU1574
	mov	r1, r8	@, _145
	mov	r0, r7	@, chain
	bl	iobuf_writebyte(PLT)	@
.LVL463:
	.loc 1 807 5 view .LVU1575
@ src/common/iobuf.c:807: 		  if ((n = a->buflen))
	.loc 1 807 12 is_stmt 0 view .LVU1576
	ldr	r9, [r5, #20]	@ n, MEM[(struct block_filter_ctx_t *)opaque_223(D)].buflen
.LVL464:
@ src/common/iobuf.c:807: 		  if ((n = a->buflen))
	.loc 1 807 8 view .LVU1577
	cmp	r9, #0	@ n,
	bne	.L579		@,
	.loc 1 815 5 is_stmt 1 view .LVU1578
.LVL465:
	.loc 1 815 5 is_stmt 0 view .LVU1579
	cmp	r4, r6	@ _184, nbytes
	movcs	r4, r6	@ n, nbytes
.LVL466:
	.loc 1 817 5 is_stmt 1 view .LVU1580
.L534:
@ src/common/iobuf.c:817: 		  if (n && iobuf_write (chain, p, n))
	.loc 1 817 14 is_stmt 0 discriminator 1 view .LVU1581
	mov	r2, r4	@, n
	mov	r1, r10	@, buffer
	mov	r0, r7	@, chain
	bl	iobuf_write(PLT)	@
.LVL467:
@ src/common/iobuf.c:817: 		  if (n && iobuf_write (chain, p, n))
	.loc 1 817 11 discriminator 1 view .LVU1582
	cmp	r0, #0	@ tmp471,
	beq	.L521		@,
@ src/common/iobuf.c:818: 		    rc = gpg_error_from_syserror ();
	.loc 1 818 10 view .LVU1583
	mvn	r9, #0	@ <retval>,
.LVL468:
	.loc 1 818 10 view .LVU1584
.LBE280:
	.loc 1 929 3 is_stmt 1 view .LVU1585
@ src/common/iobuf.c:929:   return rc;
	.loc 1 929 10 is_stmt 0 view .LVU1586
	b	.L474		@
.LVL469:
.L579:
.LBB281:
	.loc 1 809 9 is_stmt 1 view .LVU1587
@ src/common/iobuf.c:813: 		      nbytes -= n;
	.loc 1 813 16 is_stmt 0 view .LVU1588
	sub	r6, r6, r9	@ nbytes, nbytes, n
.LVL470:
@ src/common/iobuf.c:809: 		      printf (n == OP_MIN_PARTIAL_CHUNK);
	.loc 1 809 9 view .LVU1589
	sub	r0, r9, #512	@, n,
	clz	r0, r0	@,
	lsr	r0, r0, #5	@,,
	bl	tfp_printf(PLT)	@
.LVL471:
	.loc 1 810 9 is_stmt 1 view .LVU1590
@ src/common/iobuf.c:810: 		      if (iobuf_write (chain, a->buffer, n))
	.loc 1 810 13 is_stmt 0 view .LVU1591
	ldr	r1, [r5, #16]	@, MEM[(struct block_filter_ctx_t *)opaque_223(D)].buffer
	mov	r2, r9	@, n
	mov	r0, r7	@, chain
	bl	iobuf_write(PLT)	@
.LVL472:
@ src/common/iobuf.c:810: 		      if (iobuf_write (chain, a->buffer, n))
	.loc 1 810 12 view .LVU1592
	subs	r9, r0, #0	@ tmp391, tmp470,
.LVL473:
@ src/common/iobuf.c:812: 		      a->buflen = 0;
	.loc 1 812 19 view .LVU1593
	mov	r3, #0	@ tmp392,
	str	r3, [r5, #20]	@ tmp392, MEM[(struct block_filter_ctx_t *)opaque_223(D)].buflen
@ src/common/iobuf.c:810: 		      if (iobuf_write (chain, a->buffer, n))
	.loc 1 810 12 view .LVU1594
	movne	r9, #1	@ tmp391,
	cmp	r4, r6	@ _184, nbytes
	rsb	r9, r9, #0	@ <retval>, tmp391
.LVL474:
	.loc 1 812 9 is_stmt 1 view .LVU1595
	.loc 1 813 9 view .LVU1596
	.loc 1 815 5 view .LVU1597
	movcs	r4, r6	@ n, nbytes
.LVL475:
	.loc 1 817 5 view .LVU1598
@ src/common/iobuf.c:817: 		  if (n && iobuf_write (chain, p, n))
	.loc 1 817 8 is_stmt 0 view .LVU1599
	cmp	r4, #0	@ n,
	bne	.L534		@,
.L521:
	.loc 1 819 5 is_stmt 1 view .LVU1600
.LVL476:
@ src/common/iobuf.c:822: 	      while (!rc && nbytes >= OP_MIN_PARTIAL_CHUNK);
	.loc 1 822 15 is_stmt 0 view .LVU1601
	clz	r3, r9	@ _134, <retval>
@ src/common/iobuf.c:820: 		  nbytes -= n;
	.loc 1 820 12 view .LVU1602
	sub	r6, r6, r4	@ nbytes, nbytes, n
.LVL477:
@ src/common/iobuf.c:822: 	      while (!rc && nbytes >= OP_MIN_PARTIAL_CHUNK);
	.loc 1 822 15 view .LVU1603
	lsr	r3, r3, #5	@ _134, _134,
@ src/common/iobuf.c:819: 		  p += n;
	.loc 1 819 7 view .LVU1604
	add	r10, r10, r4	@ buffer, buffer, n
.LVL478:
	.loc 1 820 5 is_stmt 1 view .LVU1605
	.loc 1 822 14 view .LVU1606
@ src/common/iobuf.c:822: 	      while (!rc && nbytes >= OP_MIN_PARTIAL_CHUNK);
	.loc 1 822 8 is_stmt 0 view .LVU1607
	cmp	r6, #512	@ nbytes,
	movcc	r2, #0	@, tmp400
	andcs	r2, r3, #1	@,, tmp400, _134
	cmp	r2, #0	@ tmp400,
	bne	.L516		@,
.LVL479:
	.loc 1 824 8 is_stmt 1 view .LVU1608
@ src/common/iobuf.c:824: 	      if (!rc && nbytes)
	.loc 1 824 11 is_stmt 0 view .LVU1609
	cmp	r6, #0	@ nbytes,
	moveq	r3, #0	@, tmp405
	andne	r3, r3, #1	@,, tmp405, _134
	cmp	r3, #0	@ tmp405,
	beq	.L474		@,
	.loc 1 826 14 is_stmt 1 view .LVU1610
	ldr	r0, .L587+32	@,
.LPIC84:
	add	r0, pc, r0	@,
	bl	tfp_printf(PLT)	@
.LVL480:
	.loc 1 830 5 view .LVU1611
@ src/common/iobuf.c:830: 		  if (!a->buffer)
	.loc 1 830 11 is_stmt 0 view .LVU1612
	ldr	r0, [r5, #16]	@ _140, MEM[(struct block_filter_ctx_t *)opaque_223(D)].buffer
@ src/common/iobuf.c:830: 		  if (!a->buffer)
	.loc 1 830 8 view .LVU1613
	cmp	r0, #0	@ _140,
	beq	.L580		@,
.L522:
	.loc 1 832 5 is_stmt 1 view .LVU1614
	mov	r2, r6	@, nbytes
	mov	r1, r10	@, buffer
@ src/common/iobuf.c:833: 		  a->buflen = nbytes;
	.loc 1 833 15 is_stmt 0 view .LVU1615
	mov	r9, #0	@ <retval>,
@ src/common/iobuf.c:832: 		  memcpy (a->buffer, p, nbytes);
	.loc 1 832 5 view .LVU1616
	bl	memcpy(PLT)	@
.LVL481:
	.loc 1 833 5 is_stmt 1 view .LVU1617
@ src/common/iobuf.c:833: 		  a->buflen = nbytes;
	.loc 1 833 15 is_stmt 0 view .LVU1618
	str	r6, [r5, #20]	@ nbytes, MEM[(struct block_filter_ctx_t *)opaque_223(D)].buflen
	b	.L474		@
.LVL482:
.L575:
	.loc 1 833 15 view .LVU1619
.LBE281:
	.loc 1 865 7 is_stmt 1 view .LVU1620
@ src/common/iobuf.c:865:       if (a->use == IOBUF_OUTPUT)
	.loc 1 865 10 is_stmt 0 view .LVU1621
	ldr	r3, [r5]	@ MEM[(struct block_filter_ctx_t *)opaque_223(D)].use, MEM[(struct block_filter_ctx_t *)opaque_223(D)].use
	cmp	r3, #2	@ MEM[(struct block_filter_ctx_t *)opaque_223(D)].use,
	beq	.L581		@,
	.loc 1 920 12 is_stmt 1 view .LVU1622
@ src/common/iobuf.c:920:       else if (a->size)
	.loc 1 920 15 is_stmt 0 view .LVU1623
	ldr	r9, [r5, #4]	@ MEM[(struct block_filter_ctx_t *)opaque_223(D)].size, MEM[(struct block_filter_ctx_t *)opaque_223(D)].size
	cmp	r9, #0	@ MEM[(struct block_filter_ctx_t *)opaque_223(D)].size,
	bne	.L582		@,
.LVL483:
.L529:
	.loc 1 926 7 is_stmt 1 view .LVU1624
	mov	r0, r5	@, opaque
	bl	xfree(PLT)	@
.LVL484:
	b	.L474		@
.LVL485:
.L577:
.LBB282:
	.loc 1 719 9 view .LVU1625
@ src/common/iobuf.c:719: 		      a->size = iobuf_get_noeof (chain) << 24;
	.loc 1 719 43 is_stmt 0 view .LVU1626
	ldr	r3, [r7, #16]	@ chain_233(D)->nofast, chain_233(D)->nofast
.LVL486:
	.loc 1 719 43 view .LVU1627
	cmp	r3, #0	@ chain_233(D)->nofast,
	bne	.L492		@,
@ src/common/iobuf.c:719: 		      a->size = iobuf_get_noeof (chain) << 24;
	.loc 1 719 19 discriminator 2 view .LVU1628
	ldr	r3, [r7, #24]	@ _39, chain_233(D)->d.start
	ldr	r2, [r7, #28]	@ chain_233(D)->d.len, chain_233(D)->d.len
	cmp	r3, r2	@ _39, chain_233(D)->d.len
	bcc	.L493		@,
.L492:
@ src/common/iobuf.c:719: 		      a->size = iobuf_get_noeof (chain) << 24;
	.loc 1 719 19 discriminator 3 view .LVU1629
	mov	r0, r7	@, chain
	bl	iobuf_readbyte(PLT)	@
.LVL487:
@ src/common/iobuf.c:720: 		      a->size |= iobuf_get_noeof (chain) << 16;
	.loc 1 720 20 discriminator 3 view .LVU1630
	ldr	r2, [r7, #16]	@ pretmp_428, chain_233(D)->nofast
@ src/common/iobuf.c:719: 		      a->size = iobuf_get_noeof (chain) << 24;
	.loc 1 719 43 discriminator 3 view .LVU1631
	lsl	r3, r0, #24	@ iftmp.60_198, tmp464,
@ src/common/iobuf.c:719: 		      a->size = iobuf_get_noeof (chain) << 24;
	.loc 1 719 17 discriminator 3 view .LVU1632
	str	r3, [r5, #4]	@ iftmp.60_198, MEM[(struct block_filter_ctx_t *)opaque_223(D)].size
	.loc 1 720 9 is_stmt 1 discriminator 3 view .LVU1633
@ src/common/iobuf.c:720: 		      a->size |= iobuf_get_noeof (chain) << 16;
	.loc 1 720 44 is_stmt 0 discriminator 3 view .LVU1634
	cmp	r2, #0	@ pretmp_428,
	ldreq	r2, [r7, #28]	@ chain_233(D)->d.len, chain_233(D)->d.len
	bne	.L494		@,
.L495:
@ src/common/iobuf.c:720: 		      a->size |= iobuf_get_noeof (chain) << 16;
	.loc 1 720 20 discriminator 2 view .LVU1635
	ldr	r1, [r7, #24]	@ _52, chain_233(D)->d.start
	cmp	r1, r2	@ _52, chain_233(D)->d.len
	bcc	.L496		@,
.L494:
@ src/common/iobuf.c:720: 		      a->size |= iobuf_get_noeof (chain) << 16;
	.loc 1 720 20 discriminator 3 view .LVU1636
	mov	r0, r7	@, chain
	bl	iobuf_readbyte(PLT)	@
.LVL488:
@ src/common/iobuf.c:721: 		      a->size |= iobuf_get_noeof (chain) << 8;
	.loc 1 721 20 discriminator 3 view .LVU1637
	ldr	r1, [r7, #16]	@ pretmp_421, chain_233(D)->nofast
@ src/common/iobuf.c:720: 		      a->size |= iobuf_get_noeof (chain) << 16;
	.loc 1 720 17 discriminator 3 view .LVU1638
	ldr	r2, [r5, #4]	@ MEM[(struct block_filter_ctx_t *)opaque_223(D)].size, MEM[(struct block_filter_ctx_t *)opaque_223(D)].size
@ src/common/iobuf.c:720: 		      a->size |= iobuf_get_noeof (chain) << 16;
	.loc 1 720 44 discriminator 3 view .LVU1639
	lsl	r3, r0, #16	@ tmp342, tmp465,
@ src/common/iobuf.c:721: 		      a->size |= iobuf_get_noeof (chain) << 8;
	.loc 1 721 44 discriminator 3 view .LVU1640
	cmp	r1, #0	@ pretmp_421,
@ src/common/iobuf.c:720: 		      a->size |= iobuf_get_noeof (chain) << 16;
	.loc 1 720 44 discriminator 3 view .LVU1641
	and	r3, r3, #16711680	@ tmp343, tmp342,
@ src/common/iobuf.c:720: 		      a->size |= iobuf_get_noeof (chain) << 16;
	.loc 1 720 17 discriminator 3 view .LVU1642
	orr	r3, r3, r2	@ _66, tmp343, MEM[(struct block_filter_ctx_t *)opaque_223(D)].size
	str	r3, [r5, #4]	@ _66, MEM[(struct block_filter_ctx_t *)opaque_223(D)].size
	.loc 1 721 9 is_stmt 1 discriminator 3 view .LVU1643
	ldreq	r2, [r7, #28]	@ chain_233(D)->d.len, chain_233(D)->d.len
@ src/common/iobuf.c:721: 		      a->size |= iobuf_get_noeof (chain) << 8;
	.loc 1 721 44 is_stmt 0 discriminator 3 view .LVU1644
	bne	.L497		@,
.L498:
@ src/common/iobuf.c:721: 		      a->size |= iobuf_get_noeof (chain) << 8;
	.loc 1 721 20 discriminator 2 view .LVU1645
	ldr	r1, [r7, #24]	@ _68, chain_233(D)->d.start
	cmp	r1, r2	@ _68, chain_233(D)->d.len
	bcc	.L499		@,
.L497:
@ src/common/iobuf.c:721: 		      a->size |= iobuf_get_noeof (chain) << 8;
	.loc 1 721 20 discriminator 3 view .LVU1646
	mov	r0, r7	@, chain
	bl	iobuf_readbyte(PLT)	@
.LVL489:
@ src/common/iobuf.c:722: 		      if ((c = iobuf_get (chain)) == -1)
	.loc 1 722 18 discriminator 3 view .LVU1647
	ldr	r1, [r7, #16]	@ pretmp_403, chain_233(D)->nofast
@ src/common/iobuf.c:721: 		      a->size |= iobuf_get_noeof (chain) << 8;
	.loc 1 721 17 discriminator 3 view .LVU1648
	ldr	r2, [r5, #4]	@ MEM[(struct block_filter_ctx_t *)opaque_223(D)].size, MEM[(struct block_filter_ctx_t *)opaque_223(D)].size
@ src/common/iobuf.c:721: 		      a->size |= iobuf_get_noeof (chain) << 8;
	.loc 1 721 44 discriminator 3 view .LVU1649
	lsl	r3, r0, #8	@ tmp351, tmp466,
@ src/common/iobuf.c:722: 		      if ((c = iobuf_get (chain)) == -1)
	.loc 1 722 18 discriminator 3 view .LVU1650
	cmp	r1, #0	@ pretmp_403,
@ src/common/iobuf.c:721: 		      a->size |= iobuf_get_noeof (chain) << 8;
	.loc 1 721 44 discriminator 3 view .LVU1651
	uxth	r3, r3	@ tmp352, tmp351
@ src/common/iobuf.c:721: 		      a->size |= iobuf_get_noeof (chain) << 8;
	.loc 1 721 17 discriminator 3 view .LVU1652
	orr	r3, r3, r2	@ _82, tmp352, MEM[(struct block_filter_ctx_t *)opaque_223(D)].size
	str	r3, [r5, #4]	@ _82, MEM[(struct block_filter_ctx_t *)opaque_223(D)].size
	.loc 1 722 9 is_stmt 1 discriminator 3 view .LVU1653
	ldreq	r2, [r7, #28]	@ chain_233(D)->d.len, chain_233(D)->d.len
@ src/common/iobuf.c:722: 		      if ((c = iobuf_get (chain)) == -1)
	.loc 1 722 18 is_stmt 0 discriminator 3 view .LVU1654
	bne	.L500		@,
.L501:
@ src/common/iobuf.c:722: 		      if ((c = iobuf_get (chain)) == -1)
	.loc 1 722 18 discriminator 2 view .LVU1655
	ldr	r1, [r7, #24]	@ _84, chain_233(D)->d.start
	cmp	r1, r2	@ _84, chain_233(D)->d.len
	bcc	.L502		@,
.L500:
@ src/common/iobuf.c:722: 		      if ((c = iobuf_get (chain)) == -1)
	.loc 1 722 18 discriminator 3 view .LVU1656
	mov	r0, r7	@, chain
	bl	iobuf_readbyte(PLT)	@
.LVL490:
@ src/common/iobuf.c:722: 		      if ((c = iobuf_get (chain)) == -1)
	.loc 1 722 12 discriminator 3 view .LVU1657
	cmn	r0, #1	@ iftmp.67_330,
@ src/common/iobuf.c:722: 		      if ((c = iobuf_get (chain)) == -1)
	.loc 1 722 18 discriminator 3 view .LVU1658
	mov	r2, r0	@ iftmp.67_330, tmp467
.LVL491:
@ src/common/iobuf.c:728: 		      a->size |= c;
	.loc 1 728 17 discriminator 3 view .LVU1659
	ldrne	r3, [r5, #4]	@ _82, MEM[(struct block_filter_ctx_t *)opaque_223(D)].size
@ src/common/iobuf.c:722: 		      if ((c = iobuf_get (chain)) == -1)
	.loc 1 722 12 discriminator 3 view .LVU1660
	beq	.L583		@,
.LVL492:
.L505:
	.loc 1 728 9 is_stmt 1 view .LVU1661
@ src/common/iobuf.c:728: 		      a->size |= c;
	.loc 1 728 17 is_stmt 0 view .LVU1662
	orr	r3, r2, r3	@ _95, iftmp.67_330, _82
	b	.L570		@
.LVL493:
.L578:
	.loc 1 728 17 view .LVU1663
.LBE282:
.LBB283:
	.loc 1 784 8 is_stmt 1 view .LVU1664
@ src/common/iobuf.c:784: 	      if (!a->buffer)
	.loc 1 784 14 is_stmt 0 view .LVU1665
	ldr	r3, [r5, #16]	@ _123, MEM[(struct block_filter_ctx_t *)opaque_223(D)].buffer
@ src/common/iobuf.c:784: 	      if (!a->buffer)
	.loc 1 784 11 view .LVU1666
	cmp	r3, #0	@ _123,
	beq	.L584		@,
.L517:
	.loc 1 786 8 is_stmt 1 view .LVU1667
	add	r0, r3, r0	@, _123, _122
	mov	r2, r4	@, size
	mov	r1, r10	@, buffer
.LBE283:
@ src/common/iobuf.c:646:   int c, needed, rc = 0;
	.loc 1 646 18 is_stmt 0 view .LVU1668
	mov	r9, #0	@ <retval>,
.LBB284:
@ src/common/iobuf.c:786: 	      memcpy (a->buffer + a->buflen, buf, size);
	.loc 1 786 8 view .LVU1669
	bl	memcpy(PLT)	@
.LVL494:
	.loc 1 787 8 is_stmt 1 view .LVU1670
@ src/common/iobuf.c:787: 	      a->buflen += size;
	.loc 1 787 18 is_stmt 0 view .LVU1671
	ldr	r3, [r5, #20]	@ MEM[(struct block_filter_ctx_t *)opaque_223(D)].buflen, MEM[(struct block_filter_ctx_t *)opaque_223(D)].buflen
	add	r4, r3, r4	@ tmp383, MEM[(struct block_filter_ctx_t *)opaque_223(D)].buflen, size
.LVL495:
	.loc 1 787 18 view .LVU1672
	str	r4, [r5, #20]	@ tmp383, MEM[(struct block_filter_ctx_t *)opaque_223(D)].buflen
	b	.L474		@
.LVL496:
.L496:
	.loc 1 787 18 view .LVU1673
.LBE284:
.LBB285:
@ src/common/iobuf.c:720: 		      a->size |= iobuf_get_noeof (chain) << 16;
	.loc 1 720 20 discriminator 4 view .LVU1674
	ldr	r0, [r7, #8]	@ chain_233(D)->nbytes, chain_233(D)->nbytes
	ldr	ip, [r7, #32]	@ _58, chain_233(D)->d.buf
	add	r0, r0, #1	@ tmp345, chain_233(D)->nbytes,
	str	r0, [r7, #8]	@ tmp345, chain_233(D)->nbytes
	add	r0, r1, #1	@ tmp347, _52,
	str	r0, [r7, #24]	@ tmp347, chain_233(D)->d.start
	ldrb	r1, [ip, r1]	@ zero_extendqisi2	@ *_61, *_61
@ src/common/iobuf.c:720: 		      a->size |= iobuf_get_noeof (chain) << 16;
	.loc 1 720 17 discriminator 4 view .LVU1675
	orr	r3, r3, r1, lsl #16	@ _66, iftmp.60_198, *_61,
	str	r3, [r5, #4]	@ _66, MEM[(struct block_filter_ctx_t *)opaque_223(D)].size
	.loc 1 721 9 is_stmt 1 discriminator 4 view .LVU1676
	b	.L498		@
.L499:
@ src/common/iobuf.c:721: 		      a->size |= iobuf_get_noeof (chain) << 8;
	.loc 1 721 20 is_stmt 0 discriminator 4 view .LVU1677
	ldr	r0, [r7, #8]	@ chain_233(D)->nbytes, chain_233(D)->nbytes
	ldr	ip, [r7, #32]	@ _74, chain_233(D)->d.buf
	add	r0, r0, #1	@ tmp355, chain_233(D)->nbytes,
	str	r0, [r7, #8]	@ tmp355, chain_233(D)->nbytes
	add	r0, r1, #1	@ tmp357, _68,
	str	r0, [r7, #24]	@ tmp357, chain_233(D)->d.start
	ldrb	r1, [ip, r1]	@ zero_extendqisi2	@ *_77, *_77
@ src/common/iobuf.c:721: 		      a->size |= iobuf_get_noeof (chain) << 8;
	.loc 1 721 17 discriminator 4 view .LVU1678
	orr	r3, r3, r1, lsl #8	@ _82, _66, *_77,
	str	r3, [r5, #4]	@ _82, MEM[(struct block_filter_ctx_t *)opaque_223(D)].size
	.loc 1 722 9 is_stmt 1 discriminator 4 view .LVU1679
	b	.L501		@
.L502:
@ src/common/iobuf.c:722: 		      if ((c = iobuf_get (chain)) == -1)
	.loc 1 722 18 is_stmt 0 discriminator 4 view .LVU1680
	ldr	r2, [r7, #8]	@ chain_233(D)->nbytes, chain_233(D)->nbytes
	ldr	r0, [r7, #32]	@ _88, chain_233(D)->d.buf
	add	r2, r2, #1	@ tmp361, chain_233(D)->nbytes,
	str	r2, [r7, #8]	@ tmp361, chain_233(D)->nbytes
	add	r2, r1, #1	@ tmp363, _84,
	str	r2, [r7, #24]	@ tmp363, chain_233(D)->d.start
	ldrb	r2, [r0, r1]	@ zero_extendqisi2	@ iftmp.67_330, *_91
.LVL497:
	.loc 1 722 18 discriminator 4 view .LVU1681
	b	.L505		@
.LVL498:
.L493:
@ src/common/iobuf.c:719: 		      a->size = iobuf_get_noeof (chain) << 24;
	.loc 1 719 19 discriminator 4 view .LVU1682
	ldr	r1, [r7, #8]	@ chain_233(D)->nbytes, chain_233(D)->nbytes
	ldr	r0, [r7, #32]	@ _45, chain_233(D)->d.buf
	add	r1, r1, #1	@ tmp337, chain_233(D)->nbytes,
	str	r1, [r7, #8]	@ tmp337, chain_233(D)->nbytes
	add	r1, r3, #1	@ tmp339, _39,
	str	r1, [r7, #24]	@ tmp339, chain_233(D)->d.start
	ldrb	r3, [r0, r3]	@ zero_extendqisi2	@ *_47, *_47
@ src/common/iobuf.c:719: 		      a->size = iobuf_get_noeof (chain) << 24;
	.loc 1 719 43 discriminator 4 view .LVU1683
	lsl	r3, r3, #24	@ iftmp.60_198, *_47,
@ src/common/iobuf.c:719: 		      a->size = iobuf_get_noeof (chain) << 24;
	.loc 1 719 17 discriminator 4 view .LVU1684
	str	r3, [r5, #4]	@ iftmp.60_198, MEM[(struct block_filter_ctx_t *)opaque_223(D)].size
	.loc 1 720 9 is_stmt 1 discriminator 4 view .LVU1685
	b	.L495		@
.LVL499:
.L582:
	.loc 1 720 9 is_stmt 0 discriminator 4 view .LVU1686
.LBE285:
	.loc 1 922 4 is_stmt 1 view .LVU1687
	ldr	r0, .L587+36	@,
@ src/common/iobuf.c:646:   int c, needed, rc = 0;
	.loc 1 646 18 is_stmt 0 view .LVU1688
	mov	r9, #0	@ <retval>,
@ src/common/iobuf.c:922: 	  printf ("block_filter: pending bytes!\n");
	.loc 1 922 4 view .LVU1689
.LPIC89:
	add	r0, pc, r0	@,
	bl	tfp_printf(PLT)	@
.LVL500:
	b	.L529		@
.LVL501:
.L576:
.LBB286:
	.loc 1 702 6 is_stmt 1 view .LVU1690
	ldr	r0, .L587+40	@,
.LVL502:
@ src/common/iobuf.c:704: 			  rc = GPG_ERR_BAD_DATA;
	.loc 1 704 9 is_stmt 0 view .LVU1691
	mov	r9, #89	@ <retval>,
@ src/common/iobuf.c:702: 			  printf
	.loc 1 702 6 view .LVU1692
.LPIC80:
	add	r0, pc, r0	@,
	bl	tfp_printf(PLT)	@
.LVL503:
	.loc 1 704 6 is_stmt 1 view .LVU1693
	.loc 1 705 6 view .LVU1694
	b	.L476		@
.LVL504:
.L539:
	.loc 1 705 6 is_stmt 0 view .LVU1695
.LBE286:
.LBB287:
@ src/common/iobuf.c:797: 		  for (blen = OP_MIN_PARTIAL_CHUNK * 2,
	.loc 1 797 5 view .LVU1696
	mov	r0, #1	@ prephitmp_439,
	mov	r4, #512	@ _184,
	mov	r8, #233	@ _145,
	b	.L518		@
.LVL505:
.L581:
	.loc 1 797 5 view .LVU1697
.LBE287:
	.loc 1 867 4 is_stmt 1 view .LVU1698
@ src/common/iobuf.c:867: 	  if (a->partial)
	.loc 1 867 9 is_stmt 0 view .LVU1699
	ldr	r9, [r5, #12]	@ <retval>, MEM[(struct block_filter_ctx_t *)opaque_223(D)].partial
@ src/common/iobuf.c:867: 	  if (a->partial)
	.loc 1 867 7 view .LVU1700
	cmp	r9, #0	@ <retval>,
	beq	.L529		@,
.LBB288:
	.loc 1 869 8 is_stmt 1 view .LVU1701
	.loc 1 881 8 view .LVU1702
@ src/common/iobuf.c:881: 	      len = a->buflen;
	.loc 1 881 12 is_stmt 0 view .LVU1703
	ldr	r6, [r5, #20]	@ len, MEM[(struct block_filter_ctx_t *)opaque_223(D)].buflen
.LVL506:
	.loc 1 882 8 is_stmt 1 view .LVU1704
@ src/common/iobuf.c:882: 	      if (len < 192){
	.loc 1 882 11 is_stmt 0 view .LVU1705
	cmp	r6, #191	@ len,
	bls	.L585		@,
	.loc 1 887 13 is_stmt 1 view .LVU1706
@ src/common/iobuf.c:887: 	      else if (len < 8384)
	.loc 1 887 16 is_stmt 0 view .LVU1707
	cmp	r6, #8384	@ len,
	bcs	.L532		@,
	.loc 1 889 7 is_stmt 1 view .LVU1708
	ldr	r0, .L587+44	@,
@ src/common/iobuf.c:890: 		  if (!(rc = iobuf_put (chain, ((len - 192) / 256) + 192)))
	.loc 1 890 16 is_stmt 0 view .LVU1709
	sub	r8, r6, #192	@ _149, len,
@ src/common/iobuf.c:889:       printf("2 byte header partial: remaining length=%u\n", len );
	.loc 1 889 7 view .LVU1710
	mov	r1, r6	@, len
.LPIC86:
	add	r0, pc, r0	@,
	bl	tfp_printf(PLT)	@
.LVL507:
	.loc 1 890 5 is_stmt 1 view .LVU1711
@ src/common/iobuf.c:890: 		  if (!(rc = iobuf_put (chain, ((len - 192) / 256) + 192)))
	.loc 1 890 16 is_stmt 0 view .LVU1712
	lsr	r1, r8, #8	@ tmp422, _149,
	mov	r0, r7	@, chain
	add	r1, r1, #192	@, tmp422,
	bl	iobuf_writebyte(PLT)	@
.LVL508:
@ src/common/iobuf.c:890: 		  if (!(rc = iobuf_put (chain, ((len - 192) / 256) + 192)))
	.loc 1 890 8 view .LVU1713
	subs	r4, r0, #0	@ rc, tmp474
.LVL509:
	.loc 1 890 8 view .LVU1714
	beq	.L586		@,
.LVL510:
.L533:
	.loc 1 907 8 is_stmt 1 view .LVU1715
@ src/common/iobuf.c:907: 	      if (rc)
	.loc 1 907 11 is_stmt 0 view .LVU1716
	subs	r4, r4, #0	@ tmp444, rc,
@ src/common/iobuf.c:913: 	      xfree (a->buffer);
	.loc 1 913 8 view .LVU1717
	ldr	r0, [r5, #16]	@, MEM[(struct block_filter_ctx_t *)opaque_223(D)].buffer
@ src/common/iobuf.c:907: 	      if (rc)
	.loc 1 907 11 view .LVU1718
	movne	r4, #1	@ tmp444,
.LVL511:
	.loc 1 907 11 view .LVU1719
	rsb	r9, r4, #0	@ <retval>, tmp444
.LVL512:
	.loc 1 913 8 is_stmt 1 view .LVU1720
	bl	xfree(PLT)	@
.LVL513:
	.loc 1 914 8 view .LVU1721
@ src/common/iobuf.c:914: 	      a->buffer = NULL;
	.loc 1 914 18 is_stmt 0 view .LVU1722
	mov	r3, #0	@ tmp446,
	str	r3, [r5, #16]	@ tmp446, MEM[(struct block_filter_ctx_t *)opaque_223(D)].buffer
	.loc 1 915 8 is_stmt 1 view .LVU1723
@ src/common/iobuf.c:915: 	      a->buflen = 0;
	.loc 1 915 18 is_stmt 0 view .LVU1724
	str	r3, [r5, #20]	@ tmp446, MEM[(struct block_filter_ctx_t *)opaque_223(D)].buflen
	b	.L529		@
.LVL514:
.L584:
	.loc 1 915 18 view .LVU1725
.LBE288:
.LBB289:
	.loc 1 785 3 is_stmt 1 view .LVU1726
@ src/common/iobuf.c:785: 		a->buffer = xmalloc (OP_MIN_PARTIAL_CHUNK);
	.loc 1 785 15 is_stmt 0 view .LVU1727
	mov	r0, #512	@,
	bl	xmalloc(PLT)	@
.LVL515:
	mov	r3, r0	@ tmp469,
@ src/common/iobuf.c:785: 		a->buffer = xmalloc (OP_MIN_PARTIAL_CHUNK);
	.loc 1 785 13 view .LVU1728
	str	r3, [r5, #16]	@ _123, MEM[(struct block_filter_ctx_t *)opaque_223(D)].buffer
@ src/common/iobuf.c:786: 	      memcpy (a->buffer + a->buflen, buf, size);
	.loc 1 786 29 view .LVU1729
	ldr	r0, [r5, #20]	@ _122, MEM[(struct block_filter_ctx_t *)opaque_223(D)].buflen
	b	.L517		@
.LVL516:
.L532:
	.loc 1 786 29 view .LVU1730
.LBE289:
.LBB290:
	.loc 1 895 7 is_stmt 1 view .LVU1731
	ldr	r0, .L587+48	@,
	mov	r1, r6	@, len
.LPIC87:
	add	r0, pc, r0	@,
	bl	tfp_printf(PLT)	@
.LVL517:
	.loc 1 897 5 view .LVU1732
@ src/common/iobuf.c:897: 		  if (!(rc = iobuf_put (chain, 0xff)))
	.loc 1 897 16 is_stmt 0 view .LVU1733
	mov	r1, #255	@,
	mov	r0, r7	@, chain
	bl	iobuf_writebyte(PLT)	@
.LVL518:
@ src/common/iobuf.c:897: 		  if (!(rc = iobuf_put (chain, 0xff)))
	.loc 1 897 8 view .LVU1734
	subs	r4, r0, #0	@ rc, tmp476
.LVL519:
	.loc 1 897 8 view .LVU1735
	bne	.L533		@,
	.loc 1 898 7 is_stmt 1 view .LVU1736
@ src/common/iobuf.c:898: 		    if (!(rc = iobuf_put (chain, (len >> 24) & 0xff)))
	.loc 1 898 18 is_stmt 0 view .LVU1737
	lsr	r1, r6, #24	@, len,
	mov	r0, r7	@, chain
.LVL520:
	.loc 1 898 18 view .LVU1738
	bl	iobuf_writebyte(PLT)	@
.LVL521:
@ src/common/iobuf.c:898: 		    if (!(rc = iobuf_put (chain, (len >> 24) & 0xff)))
	.loc 1 898 10 view .LVU1739
	subs	r4, r0, #0	@ rc, tmp477
	bne	.L533		@,
	.loc 1 899 9 is_stmt 1 view .LVU1740
@ src/common/iobuf.c:899: 		      if (!(rc = iobuf_put (chain, (len >> 16) & 0xff)))
	.loc 1 899 20 is_stmt 0 view .LVU1741
	ubfx	r1, r6, #16, #8	@, len,,
	mov	r0, r7	@, chain
.LVL522:
	.loc 1 899 20 view .LVU1742
	bl	iobuf_writebyte(PLT)	@
.LVL523:
@ src/common/iobuf.c:899: 		      if (!(rc = iobuf_put (chain, (len >> 16) & 0xff)))
	.loc 1 899 12 view .LVU1743
	subs	r4, r0, #0	@ rc, tmp478
	bne	.L533		@,
	.loc 1 900 4 is_stmt 1 view .LVU1744
@ src/common/iobuf.c:900: 			if (!(rc = iobuf_put (chain, (len >> 8) & 0xff)))
	.loc 1 900 15 is_stmt 0 view .LVU1745
	ubfx	r1, r6, #8, #8	@, len,,
	mov	r0, r7	@, chain
.LVL524:
	.loc 1 900 15 view .LVU1746
	bl	iobuf_writebyte(PLT)	@
.LVL525:
@ src/common/iobuf.c:900: 			if (!(rc = iobuf_put (chain, (len >> 8) & 0xff)))
	.loc 1 900 7 view .LVU1747
	subs	r4, r0, #0	@ rc, tmp479
	bne	.L533		@,
	.loc 1 901 6 is_stmt 1 view .LVU1748
@ src/common/iobuf.c:901: 			  rc = iobuf_put (chain, len & 0xff);
	.loc 1 901 11 is_stmt 0 view .LVU1749
	uxtb	r1, r6	@, len
	mov	r0, r7	@, chain
.LVL526:
	.loc 1 901 11 view .LVU1750
	bl	iobuf_writebyte(PLT)	@
.LVL527:
	mov	r4, r0	@ rc, tmp480
.LVL528:
.L531:
	.loc 1 903 8 is_stmt 1 view .LVU1751
@ src/common/iobuf.c:903: 	      if (!rc && len){
	.loc 1 903 11 is_stmt 0 view .LVU1752
	clz	r3, r4	@ tmp439, rc
	cmp	r6, #0	@ len,
	lsr	r3, r3, #5	@ tmp439, tmp439,
	moveq	r3, #0	@ tmp439,
	cmp	r3, #0	@ tmp439,
	beq	.L533		@,
	.loc 1 904 5 is_stmt 1 view .LVU1753
	ldr	r0, .L587+52	@,
	mov	r1, r6	@, len
.LPIC88:
	add	r0, pc, r0	@,
	bl	tfp_printf(PLT)	@
.LVL529:
	.loc 1 905 3 view .LVU1754
@ src/common/iobuf.c:905: 		rc = iobuf_write (chain, a->buffer, len);
	.loc 1 905 8 is_stmt 0 view .LVU1755
	ldr	r1, [r5, #16]	@, MEM[(struct block_filter_ctx_t *)opaque_223(D)].buffer
	mov	r2, r6	@, len
	mov	r0, r7	@, chain
	bl	iobuf_write(PLT)	@
.LVL530:
	mov	r4, r0	@ rc, tmp481
.LVL531:
	.loc 1 905 8 view .LVU1756
	b	.L533		@
.LVL532:
.L585:
	.loc 1 883 9 is_stmt 1 view .LVU1757
@ src/common/iobuf.c:883: 		      rc = iobuf_put (chain, len);
	.loc 1 883 14 is_stmt 0 view .LVU1758
	mov	r1, r6	@, len
	mov	r0, r7	@, chain
	bl	iobuf_writebyte(PLT)	@
.LVL533:
	mov	r4, r0	@ tmp473,
.LVL534:
@ src/common/iobuf.c:884:           printf("1 byte <192 partial: remaining length=%u\n", len );
	.loc 1 884 11 view .LVU1759
	mov	r1, r6	@, len
.LVL535:
	.loc 1 884 11 is_stmt 1 view .LVU1760
	ldr	r0, .L587+56	@,
.LVL536:
	.loc 1 884 11 is_stmt 0 view .LVU1761
.LPIC85:
	add	r0, pc, r0	@,
	bl	tfp_printf(PLT)	@
.LVL537:
	b	.L531		@
.LVL538:
.L583:
	.loc 1 884 11 view .LVU1762
.LBE290:
.LBB291:
	.loc 1 724 6 is_stmt 1 view .LVU1763
	ldr	r0, .L587+60	@,
.LVL539:
@ src/common/iobuf.c:725: 			  rc = GPG_ERR_BAD_DATA;
	.loc 1 725 9 is_stmt 0 view .LVU1764
	mov	r9, #89	@ <retval>,
@ src/common/iobuf.c:724: 			  printf ("block_filter: invalid 4 byte length\n");
	.loc 1 724 6 view .LVU1765
.LPIC81:
	add	r0, pc, r0	@,
	bl	tfp_printf(PLT)	@
.LVL540:
	.loc 1 725 6 is_stmt 1 view .LVU1766
	.loc 1 726 6 view .LVU1767
	b	.L476		@
.LVL541:
.L580:
	.loc 1 726 6 is_stmt 0 view .LVU1768
.LBE291:
.LBB292:
	.loc 1 831 7 is_stmt 1 view .LVU1769
@ src/common/iobuf.c:831: 		    a->buffer = xmalloc (OP_MIN_PARTIAL_CHUNK);
	.loc 1 831 19 is_stmt 0 view .LVU1770
	mov	r0, #512	@,
	bl	xmalloc(PLT)	@
.LVL542:
@ src/common/iobuf.c:831: 		    a->buffer = xmalloc (OP_MIN_PARTIAL_CHUNK);
	.loc 1 831 17 view .LVU1771
	str	r0, [r5, #16]	@ _140, MEM[(struct block_filter_ctx_t *)opaque_223(D)].buffer
	b	.L522		@
.LVL543:
.L536:
	.loc 1 831 17 view .LVU1772
.LBE292:
.LBB293:
@ src/common/iobuf.c:658:       while (!rc && size)
	.loc 1 658 13 view .LVU1773
	mov	r6, r9	@ n, <retval>
	b	.L476		@
.LVL544:
.L586:
	.loc 1 658 13 view .LVU1774
.LBE293:
.LBB294:
	.loc 1 891 7 is_stmt 1 view .LVU1775
@ src/common/iobuf.c:891: 		    rc = iobuf_put (chain, ((len - 192) % 256));
	.loc 1 891 12 is_stmt 0 view .LVU1776
	uxtb	r1, r8	@, _149
	mov	r0, r7	@, chain
.LVL545:
	.loc 1 891 12 view .LVU1777
	bl	iobuf_writebyte(PLT)	@
.LVL546:
	mov	r4, r0	@ rc, tmp475
.LVL547:
	.loc 1 891 12 view .LVU1778
	b	.L531		@
.L588:
	.align	2
.L587:
	.word	_GLOBAL_OFFSET_TABLE_-(.LPIC75+8)
	.word	control_mode_str(GOT)
	.word	.LC53-(.LPIC76+8)
	.word	.LC54-(.LPIC77+8)
	.word	.LC59-(.LPIC82+8)
	.word	.LC55-(.LPIC78+8)
	.word	.LC56-(.LPIC79+8)
	.word	.LC60-(.LPIC83+8)
	.word	.LC61-(.LPIC84+8)
	.word	.LC66-(.LPIC89+8)
	.word	.LC57-(.LPIC80+8)
	.word	.LC63-(.LPIC86+8)
	.word	.LC64-(.LPIC87+8)
	.word	.LC65-(.LPIC88+8)
	.word	.LC62-(.LPIC85+8)
	.word	.LC58-(.LPIC81+8)
.LBE294:
	.cfi_endproc
.LFE41:
	.size	block_filter, .-block_filter
	.section	.rodata.iobuf_writestr.str1.4,"aMS",%progbits,1
	.align	2
.LC67:
	.ascii	"iobuf_writestr called on an input pipeline!\012\000"
	.section	.text.iobuf_writestr,"ax",%progbits
	.align	2
	.global	iobuf_writestr
	.syntax unified
	.arm
	.fpu softvfp
	.type	iobuf_writestr, %function
iobuf_writestr:
.LVL548:
.LFB69:
	.loc 1 2131 1 is_stmt 1 view -0
	.cfi_startproc
	@ args = 0, pretend = 0, frame = 0
	@ frame_needed = 0, uses_anonymous_args = 0
	.loc 1 2132 3 view .LVU1780
@ src/common/iobuf.c:2131: {
	.loc 1 2131 1 is_stmt 0 view .LVU1781
	push	{r4, r5, r6, lr}	@
	.cfi_def_cfa_offset 16
	.cfi_offset 4, -16
	.cfi_offset 5, -12
	.cfi_offset 6, -8
	.cfi_offset 14, -4
@ src/common/iobuf.c:2132:   if (a->use == IOBUF_INPUT || a->use == IOBUF_INPUT_TEMP)
	.loc 1 2132 6 view .LVU1782
	ldrb	r3, [r0]	@ zero_extendqisi2	@ a_6(D)->use, a_6(D)->use
	cmp	r3, #1	@ a_6(D)->use,
	bls	.L593		@,
	.loc 1 2138 3 is_stmt 1 view .LVU1783
	mov	r4, r0	@ a, tmp124
@ src/common/iobuf.c:2138:   return iobuf_write (a, buf, strlen (buf));
	.loc 1 2138 10 is_stmt 0 view .LVU1784
	mov	r0, r1	@, buf
.LVL549:
	.loc 1 2138 10 view .LVU1785
	mov	r5, r1	@ buf, tmp125
	bl	strlen(PLT)	@
.LVL550:
	.loc 1 2138 10 view .LVU1786
	mov	r2, r0	@ tmp126,
	mov	r1, r5	@, buf
	mov	r0, r4	@, a
@ src/common/iobuf.c:2139: }
	.loc 1 2139 1 view .LVU1787
	pop	{r4, r5, r6, lr}	@
	.cfi_remember_state
	.cfi_restore 14
	.cfi_restore 6
	.cfi_restore 5
	.cfi_restore 4
	.cfi_def_cfa_offset 0
.LVL551:
@ src/common/iobuf.c:2138:   return iobuf_write (a, buf, strlen (buf));
	.loc 1 2138 10 view .LVU1788
	b	iobuf_write(PLT)	@
.LVL552:
.L593:
	.cfi_restore_state
	.loc 1 2134 7 is_stmt 1 view .LVU1789
	ldr	r0, .L595	@,
.LVL553:
	.loc 1 2134 7 is_stmt 0 view .LVU1790
.LPIC90:
	add	r0, pc, r0	@,
	bl	tfp_printf(PLT)	@
.LVL554:
	.loc 1 2135 7 is_stmt 1 view .LVU1791
@ src/common/iobuf.c:2139: }
	.loc 1 2139 1 is_stmt 0 view .LVU1792
	mvn	r0, #0	@,
	pop	{r4, r5, r6, pc}	@
.L596:
	.align	2
.L595:
	.word	.LC67-(.LPIC90+8)
	.cfi_endproc
.LFE69:
	.size	iobuf_writestr, .-iobuf_writestr
	.section	.rodata.iobuf_temp_to_buffer.str1.4,"aMS",%progbits,1
	.align	2
.LC68:
	.ascii	"Flushing iobuf %d.%d (%s) from iobuf_temp_to_buffer"
	.ascii	" failed.  Ignoring.\012\000"
	.section	.text.iobuf_temp_to_buffer,"ax",%progbits
	.align	2
	.global	iobuf_temp_to_buffer
	.syntax unified
	.arm
	.fpu softvfp
	.type	iobuf_temp_to_buffer, %function
iobuf_temp_to_buffer:
.LVL555:
.LFB71:
	.loc 1 2155 1 is_stmt 1 view -0
	.cfi_startproc
	@ args = 0, pretend = 0, frame = 48
	@ frame_needed = 0, uses_anonymous_args = 0
	.loc 1 2155 1 is_stmt 0 view .LVU1794
	push	{r4, r5, r6, r7, r8, r9, r10, fp, lr}	@
	.cfi_def_cfa_offset 36
	.cfi_offset 4, -36
	.cfi_offset 5, -32
	.cfi_offset 6, -28
	.cfi_offset 7, -24
	.cfi_offset 8, -20
	.cfi_offset 9, -16
	.cfi_offset 10, -12
	.cfi_offset 11, -8
	.cfi_offset 14, -4
	sub	sp, sp, #60	@,,
	.cfi_def_cfa_offset 96
.LBB300:
@ src/common/iobuf.c:2163: 	printf ("Flushing iobuf %d.%d (%s) from iobuf_temp_to_buffer failed.  Ignoring.\n",
	.loc 1 2163 2 view .LVU1795
	ldr	r10, .L609	@ tmp139,
.LBE300:
@ src/common/iobuf.c:2155: {
	.loc 1 2155 1 view .LVU1796
	mov	r4, r0	@ a, tmp141
.LBB319:
.LBB301:
.LBB302:
.LBB303:
.LBB304:
@ src/common/iobuf.c:944:     memcpy (buf, "?", 2);
	.loc 1 944 5 view .LVU1797
	ldr	fp, .L609+4	@ tmp140,
.LBE304:
.LBE303:
@ src/common/iobuf.c:941:   size_t len = MAX_IOBUF_DESC;
	.loc 1 941 10 view .LVU1798
	mov	r9, #32	@ tmp138,
.LBE302:
.LBE301:
@ src/common/iobuf.c:2163: 	printf ("Flushing iobuf %d.%d (%s) from iobuf_temp_to_buffer failed.  Ignoring.\n",
	.loc 1 2163 2 view .LVU1799
.LPIC92:
	add	r10, pc, r10	@ tmp139, tmp139
.LBB314:
.LBB309:
.LBB307:
.LBB305:
@ src/common/iobuf.c:944:     memcpy (buf, "?", 2);
	.loc 1 944 5 view .LVU1800
.LPIC91:
	add	fp, pc, fp	@ tmp140, tmp140
.LBE305:
.LBE307:
.LBE309:
.LBE314:
.LBE319:
@ src/common/iobuf.c:2155: {
	.loc 1 2155 1 view .LVU1801
	str	r1, [sp, #8]	@ tmp142, %sfp
	str	r2, [sp, #12]	@ tmp143, %sfp
	b	.L601		@
.LVL556:
.L598:
.LBB320:
	.loc 1 2165 7 is_stmt 1 view .LVU1802
@ src/common/iobuf.c:2165:       if (! a->chain)
	.loc 1 2165 14 is_stmt 0 view .LVU1803
	ldr	r3, [r4, #60]	@ _4, a_6->chain
@ src/common/iobuf.c:2165:       if (! a->chain)
	.loc 1 2165 10 view .LVU1804
	cmp	r3, #0	@ _4,
	beq	.L607		@,
.LVL557:
.L602:
	.loc 1 2165 10 view .LVU1805
	mov	r4, r3	@ a, _4
.LVL558:
.L601:
	.loc 1 2165 10 view .LVU1806
.LBE320:
	.loc 1 2156 3 is_stmt 1 view .LVU1807
	.loc 1 2157 3 view .LVU1808
	.loc 1 2159 3 view .LVU1809
.LBB321:
	.loc 1 2161 7 view .LVU1810
@ src/common/iobuf.c:2161:       int rc = filter_flush (a);
	.loc 1 2161 16 is_stmt 0 view .LVU1811
	mov	r0, r4	@, a
	bl	filter_flush(PLT)	@
.LVL559:
	.loc 1 2162 7 is_stmt 1 view .LVU1812
@ src/common/iobuf.c:2162:       if (rc)
	.loc 1 2162 10 is_stmt 0 view .LVU1813
	cmp	r0, #0	@ tmp144,
	beq	.L598		@,
	.loc 1 2163 2 is_stmt 1 view .LVU1814
.LBB315:
.LBB310:
	.loc 1 946 5 view .LVU1815
@ src/common/iobuf.c:943:   if (! a || ! a->filter)
	.loc 1 943 17 is_stmt 0 view .LVU1816
	ldr	r6, [r4, #44]	@ _22, a_6->filter
@ src/common/iobuf.c:946:     a->filter (a->filter_ov, IOBUFCTRL_DESC, NULL, buf, &len);
	.loc 1 946 5 view .LVU1817
	add	r5, sp, #24	@ tmp137,,
.LBE310:
.LBE315:
@ src/common/iobuf.c:2163: 	printf ("Flushing iobuf %d.%d (%s) from iobuf_temp_to_buffer failed.  Ignoring.\n",
	.loc 1 2163 2 view .LVU1818
	ldr	r7, [r4, #64]	@ _1, a_6->no
.LBB316:
.LBB311:
@ src/common/iobuf.c:946:     a->filter (a->filter_ov, IOBUFCTRL_DESC, NULL, buf, &len);
	.loc 1 946 5 view .LVU1819
	add	ip, sp, #20	@ tmp131,,
.LBE311:
.LBE316:
@ src/common/iobuf.c:2163: 	printf ("Flushing iobuf %d.%d (%s) from iobuf_temp_to_buffer failed.  Ignoring.\n",
	.loc 1 2163 2 view .LVU1820
	ldr	r8, [r4, #68]	@ _2, a_6->subno
.LVL560:
.LBB317:
.LBI301:
	.loc 1 939 1 is_stmt 1 view .LVU1821
.LBB312:
	.loc 1 941 3 view .LVU1822
@ src/common/iobuf.c:943:   if (! a || ! a->filter)
	.loc 1 943 11 is_stmt 0 view .LVU1823
	cmp	r6, #0	@ _22,
@ src/common/iobuf.c:941:   size_t len = MAX_IOBUF_DESC;
	.loc 1 941 10 view .LVU1824
	str	r9, [sp, #20]	@ tmp138, len
	.loc 1 943 3 is_stmt 1 view .LVU1825
@ src/common/iobuf.c:946:     a->filter (a->filter_ov, IOBUFCTRL_DESC, NULL, buf, &len);
	.loc 1 946 5 is_stmt 0 view .LVU1826
	mov	r3, r5	@, tmp137
	mov	r2, #0	@,
	mov	r1, #5	@,
@ src/common/iobuf.c:943:   if (! a || ! a->filter)
	.loc 1 943 11 view .LVU1827
	beq	.L608		@,
@ src/common/iobuf.c:946:     a->filter (a->filter_ov, IOBUFCTRL_DESC, NULL, buf, &len);
	.loc 1 946 5 view .LVU1828
	ldr	r0, [r4, #48]	@ a_6->filter_ov, a_6->filter_ov
.LVL561:
	.loc 1 946 5 view .LVU1829
	str	ip, [sp]	@ tmp131,
	blx	r6		@ _22
.LVL562:
.L600:
	.loc 1 948 3 is_stmt 1 view .LVU1830
	.loc 1 948 3 is_stmt 0 view .LVU1831
.LBE312:
.LBE317:
@ src/common/iobuf.c:2163: 	printf ("Flushing iobuf %d.%d (%s) from iobuf_temp_to_buffer failed.  Ignoring.\n",
	.loc 1 2163 2 view .LVU1832
	mov	r3, r5	@, tmp137
	mov	r2, r8	@, _2
	mov	r1, r7	@, _1
	mov	r0, r10	@, tmp139
	bl	tfp_printf(PLT)	@
.LVL563:
	.loc 1 2165 7 is_stmt 1 view .LVU1833
@ src/common/iobuf.c:2165:       if (! a->chain)
	.loc 1 2165 14 is_stmt 0 view .LVU1834
	ldr	r3, [r4, #60]	@ _4, a_6->chain
@ src/common/iobuf.c:2165:       if (! a->chain)
	.loc 1 2165 10 view .LVU1835
	cmp	r3, #0	@ _4,
	bne	.L602		@,
.L607:
	.loc 1 2165 10 view .LVU1836
.LBE321:
	.loc 1 2170 3 is_stmt 1 view .LVU1837
@ src/common/iobuf.c:2170:   n = a->d.len;
	.loc 1 2170 5 is_stmt 0 view .LVU1838
	ldr	r2, [r4, #28]	@ n, a_6->d.len
.LVL564:
	.loc 1 2171 3 is_stmt 1 view .LVU1839
	ldr	r3, [sp, #12]	@ buflen, %sfp
@ src/common/iobuf.c:2173:   memcpy (buffer, a->d.buf, n);
	.loc 1 2173 3 is_stmt 0 view .LVU1840
	ldr	r1, [r4, #32]	@, a_6->d.buf
	cmp	r2, r3	@ n, buflen
	ldr	r0, [sp, #8]	@, %sfp
	movcc	r4, r2	@ <retval>, n
.LVL565:
	.loc 1 2173 3 view .LVU1841
	movcs	r4, r3	@ <retval>, buflen
.LVL566:
	.loc 1 2173 3 is_stmt 1 view .LVU1842
	mov	r2, r4	@, <retval>
	bl	memcpy(PLT)	@
.LVL567:
	.loc 1 2174 3 view .LVU1843
@ src/common/iobuf.c:2175: }
	.loc 1 2175 1 is_stmt 0 view .LVU1844
	mov	r0, r4	@, <retval>
	add	sp, sp, #60	@,,
	.cfi_remember_state
	.cfi_def_cfa_offset 36
	@ sp needed	@
	pop	{r4, r5, r6, r7, r8, r9, r10, fp, pc}	@
.LVL568:
.L608:
	.cfi_restore_state
.LBB322:
.LBB318:
.LBB313:
.LBB308:
.LBI303:
	.loc 1 939 1 is_stmt 1 view .LVU1845
.LBB306:
	.loc 1 944 5 view .LVU1846
	mov	r2, #2	@,
	mov	r1, fp	@, tmp140
	mov	r0, r5	@, tmp137
.LVL569:
	.loc 1 944 5 is_stmt 0 view .LVU1847
	bl	memcpy(PLT)	@
.LVL570:
	b	.L600		@
.L610:
	.align	2
.L609:
	.word	.LC68-(.LPIC92+8)
	.word	.LC6-(.LPIC91+8)
.LBE306:
.LBE308:
.LBE313:
.LBE318:
.LBE322:
	.cfi_endproc
.LFE71:
	.size	iobuf_temp_to_buffer, .-iobuf_temp_to_buffer
	.section	.rodata.iobuf_copy.str1.4,"aMS",%progbits,1
	.align	2
.LC69:
	.ascii	"iobuf_copy\012\000"
	.section	.text.iobuf_copy,"ax",%progbits
	.align	2
	.global	iobuf_copy
	.syntax unified
	.arm
	.fpu softvfp
	.type	iobuf_copy, %function
iobuf_copy:
.LVL571:
.LFB72:
	.loc 1 2182 1 is_stmt 1 view -0
	.cfi_startproc
	@ args = 0, pretend = 0, frame = 0
	@ frame_needed = 0, uses_anonymous_args = 0
	.loc 1 2183 3 view .LVU1849
@ src/common/iobuf.c:2182: {
	.loc 1 2182 1 is_stmt 0 view .LVU1850
	push	{r4, r5, r6, r7, r8, r9, r10, lr}	@
	.cfi_def_cfa_offset 32
	.cfi_offset 4, -32
	.cfi_offset 5, -28
	.cfi_offset 6, -24
	.cfi_offset 7, -20
	.cfi_offset 8, -16
	.cfi_offset 9, -12
	.cfi_offset 10, -8
	.cfi_offset 14, -4
@ src/common/iobuf.c:2182: {
	.loc 1 2182 1 view .LVU1851
	mov	r8, r0	@ tmp127, dest
@ src/common/iobuf.c:2183:   printf("iobuf_copy\n");
	.loc 1 2183 3 view .LVU1852
	ldr	r0, .L626	@,
.LVL572:
@ src/common/iobuf.c:2182: {
	.loc 1 2182 1 view .LVU1853
	mov	r9, r1	@ source, tmp128
@ src/common/iobuf.c:2183:   printf("iobuf_copy\n");
	.loc 1 2183 3 view .LVU1854
.LPIC93:
	add	r0, pc, r0	@,
	bl	tfp_printf(PLT)	@
.LVL573:
	.loc 1 2184 3 is_stmt 1 view .LVU1855
	.loc 1 2186 3 view .LVU1856
	.loc 1 2188 3 view .LVU1857
	.loc 1 2189 3 view .LVU1858
	.loc 1 2190 3 view .LVU1859
	.loc 1 2191 3 view .LVU1860
	.loc 1 2196 3 view .LVU1861
@ src/common/iobuf.c:2196:   if (iobuf_error (dest))
	.loc 1 2196 6 is_stmt 0 view .LVU1862
	ldr	r5, [r8, #40]	@ dest_14(D)->error, dest_14(D)->error
	cmp	r5, #0	@ dest_14(D)->error,
@ src/common/iobuf.c:2197:     return (size_t)(-1);
	.loc 1 2197 12 view .LVU1863
	mvnne	r7, #0	@ <retval>,
@ src/common/iobuf.c:2196:   if (iobuf_error (dest))
	.loc 1 2196 6 view .LVU1864
	bne	.L611		@,
	.loc 1 2199 3 is_stmt 1 view .LVU1865
@ src/common/iobuf.c:2199:   temp = xmalloc (temp_size);
	.loc 1 2199 10 is_stmt 0 view .LVU1866
	mov	r0, #32768	@,
@ src/common/iobuf.c:2189:   size_t nwrote = 0;
	.loc 1 2189 10 view .LVU1867
	mov	r7, r5	@ <retval>, max_read
@ src/common/iobuf.c:2199:   temp = xmalloc (temp_size);
	.loc 1 2199 10 view .LVU1868
	bl	xmalloc(PLT)	@
.LVL574:
	mov	r6, r0	@ temp, tmp129
.LVL575:
	.loc 1 2199 10 view .LVU1869
	b	.L614		@
.LVL576:
.L624:
	.loc 1 2199 10 view .LVU1870
	cmp	r5, r4	@ max_read, _2
	movcc	r5, r4	@ max_read, _2
.LVL577:
	.loc 1 2210 7 is_stmt 1 view .LVU1871
@ src/common/iobuf.c:2210:       err = iobuf_write (dest, temp, nread);
	.loc 1 2210 13 is_stmt 0 view .LVU1872
	bl	iobuf_write(PLT)	@
.LVL578:
	.loc 1 2213 7 is_stmt 1 view .LVU1873
	.loc 1 2211 7 view .LVU1874
@ src/common/iobuf.c:2211:       if (err)
	.loc 1 2211 10 is_stmt 0 view .LVU1875
	cmp	r0, #0	@ tmp131,
	bne	.L613		@,
@ src/common/iobuf.c:2213:       nwrote += nread;
	.loc 1 2213 14 view .LVU1876
	add	r7, r7, r4	@ <retval>, <retval>, _2
.LVL579:
	.loc 1 2200 9 is_stmt 1 view .LVU1877
.L614:
	.loc 1 2200 3 view .LVU1878
	.loc 1 2202 7 view .LVU1879
@ src/common/iobuf.c:2202:       nread = iobuf_read (source, temp, temp_size);
	.loc 1 2202 15 is_stmt 0 view .LVU1880
	mov	r1, r6	@, temp
	mov	r2, #32768	@,
	mov	r0, r9	@, source
	bl	iobuf_read(PLT)	@
.LVL580:
	.loc 1 2207 7 is_stmt 1 view .LVU1881
@ src/common/iobuf.c:2202:       nread = iobuf_read (source, temp, temp_size);
	.loc 1 2202 15 is_stmt 0 view .LVU1882
	mov	r4, r0	@ tmp130,
@ src/common/iobuf.c:2210:       err = iobuf_write (dest, temp, nread);
	.loc 1 2210 13 view .LVU1883
	mov	r1, r6	@, temp
@ src/common/iobuf.c:2203:       if (nread == -1)
	.loc 1 2203 10 view .LVU1884
	cmn	r4, #1	@ _2,
@ src/common/iobuf.c:2210:       err = iobuf_write (dest, temp, nread);
	.loc 1 2210 13 view .LVU1885
	mov	r0, r8	@, dest
.LVL581:
	.loc 1 2203 7 is_stmt 1 view .LVU1886
@ src/common/iobuf.c:2210:       err = iobuf_write (dest, temp, nread);
	.loc 1 2210 13 is_stmt 0 view .LVU1887
	mov	r2, r4	@, _2
@ src/common/iobuf.c:2203:       if (nread == -1)
	.loc 1 2203 10 view .LVU1888
	bne	.L624		@,
.L613:
	.loc 1 2217 3 is_stmt 1 view .LVU1889
@ src/common/iobuf.c:2217:   if (max_read)
	.loc 1 2217 6 is_stmt 0 view .LVU1890
	cmp	r5, #0	@ max_read,
	bne	.L625		@,
.L615:
	.loc 1 2219 3 is_stmt 1 view .LVU1891
	mov	r0, r6	@, temp
	bl	xfree(PLT)	@
.LVL582:
	.loc 1 2221 3 view .LVU1892
.L611:
@ src/common/iobuf.c:2222: }
	.loc 1 2222 1 is_stmt 0 view .LVU1893
	mov	r0, r7	@, <retval>
	pop	{r4, r5, r6, r7, r8, r9, r10, pc}	@
.LVL583:
.L625:
	.loc 1 2218 5 is_stmt 1 view .LVU1894
	mov	r1, r5	@, max_read
	mov	r0, r6	@, temp
	bl	wipememory(PLT)	@
.LVL584:
	b	.L615		@
.L627:
	.align	2
.L626:
	.word	.LC69-(.LPIC93+8)
	.cfi_endproc
.LFE72:
	.size	iobuf_copy, .-iobuf_copy
	.section	.rodata.iobuf_flush_temp.str1.4,"aMS",%progbits,1
	.align	2
.LC70:
	.ascii	"iobuf_flush_temp called on an input pipeline!\012\000"
	.section	.text.iobuf_flush_temp,"ax",%progbits
	.align	2
	.global	iobuf_flush_temp
	.syntax unified
	.arm
	.fpu softvfp
	.type	iobuf_flush_temp, %function
iobuf_flush_temp:
.LVL585:
.LFB73:
	.loc 1 2227 1 view -0
	.cfi_startproc
	@ args = 0, pretend = 0, frame = 0
	@ frame_needed = 0, uses_anonymous_args = 0
	.loc 1 2228 3 view .LVU1896
@ src/common/iobuf.c:2227: {
	.loc 1 2227 1 is_stmt 0 view .LVU1897
	push	{r4, lr}	@
	.cfi_def_cfa_offset 8
	.cfi_offset 4, -8
	.cfi_offset 14, -4
@ src/common/iobuf.c:2227: {
	.loc 1 2227 1 view .LVU1898
	mov	r4, r0	@ temp, tmp127
@ src/common/iobuf.c:2228:   if (temp->use == IOBUF_INPUT || temp->use == IOBUF_INPUT_TEMP)
	.loc 1 2228 6 view .LVU1899
	ldrb	r3, [r0]	@ zero_extendqisi2	@ temp_6(D)->use, temp_6(D)->use
	cmp	r3, #1	@ temp_6(D)->use,
	bls	.L637		@,
.LVL586:
.L629:
	.loc 1 2230 9 is_stmt 1 view .LVU1900
	ldr	r3, [r4, #60]	@ temp_6(D)->chain, temp_6(D)->chain
	cmp	r3, #0	@ temp_6(D)->chain,
	popeq	{r4, pc}	@
.L631:
	.loc 1 2231 5 view .LVU1901
	ldr	r1, [r4, #44]	@, temp_6(D)->filter
	mov	r2, #0	@,
	mov	r0, r4	@, temp
	bl	iobuf_pop_filter(PLT)	@
.LVL587:
	.loc 1 2230 9 view .LVU1902
	ldr	r3, [r4, #60]	@ temp_6(D)->chain, temp_6(D)->chain
	cmp	r3, #0	@ temp_6(D)->chain,
	bne	.L631		@,
	pop	{r4, pc}	@
.LVL588:
.L637:
	.loc 1 2229 5 view .LVU1903
	ldr	r0, .L638	@,
.LVL589:
	.loc 1 2229 5 is_stmt 0 view .LVU1904
.LPIC94:
	add	r0, pc, r0	@,
	bl	tfp_printf(PLT)	@
.LVL590:
	b	.L629		@
.L639:
	.align	2
.L638:
	.word	.LC70-(.LPIC94+8)
	.cfi_endproc
.LFE73:
	.size	iobuf_flush_temp, .-iobuf_flush_temp
	.section	.text.iobuf_write_temp,"ax",%progbits
	.align	2
	.global	iobuf_write_temp
	.syntax unified
	.arm
	.fpu softvfp
	.type	iobuf_write_temp, %function
iobuf_write_temp:
.LVL591:
.LFB70:
	.loc 1 2145 1 is_stmt 1 view -0
	.cfi_startproc
	@ args = 0, pretend = 0, frame = 0
	@ frame_needed = 0, uses_anonymous_args = 0
	.loc 1 2149 3 view .LVU1906
@ src/common/iobuf.c:2145: {
	.loc 1 2145 1 is_stmt 0 view .LVU1907
	push	{r4, r5, r6, lr}	@
	.cfi_def_cfa_offset 16
	.cfi_offset 4, -16
	.cfi_offset 5, -12
	.cfi_offset 6, -8
	.cfi_offset 14, -4
@ src/common/iobuf.c:2145: {
	.loc 1 2145 1 view .LVU1908
	mov	r4, r1	@ source, tmp121
	mov	r5, r0	@ dest, tmp120
@ src/common/iobuf.c:2149:   iobuf_flush_temp (source);
	.loc 1 2149 3 view .LVU1909
	mov	r0, r1	@, source
.LVL592:
	.loc 1 2149 3 view .LVU1910
	bl	iobuf_flush_temp(PLT)	@
.LVL593:
	.loc 1 2150 3 is_stmt 1 view .LVU1911
@ src/common/iobuf.c:2150:   return iobuf_write (dest, source->d.buf, source->d.len);
	.loc 1 2150 10 is_stmt 0 view .LVU1912
	ldr	r2, [r4, #28]	@, source_4(D)->d.len
	mov	r0, r5	@, dest
	ldr	r1, [r4, #32]	@, source_4(D)->d.buf
@ src/common/iobuf.c:2151: }
	.loc 1 2151 1 view .LVU1913
	pop	{r4, r5, r6, lr}	@
	.cfi_restore 14
	.cfi_restore 6
	.cfi_restore 5
	.cfi_restore 4
	.cfi_def_cfa_offset 0
.LVL594:
@ src/common/iobuf.c:2150:   return iobuf_write (dest, source->d.buf, source->d.len);
	.loc 1 2150 10 view .LVU1914
	b	iobuf_write(PLT)	@
.LVL595:
	.loc 1 2150 10 view .LVU1915
	.cfi_endproc
.LFE70:
	.size	iobuf_write_temp, .-iobuf_write_temp
	.section	.text.iobuf_set_limit,"ax",%progbits
	.align	2
	.global	iobuf_set_limit
	.syntax unified
	.arm
	.fpu softvfp
	.type	iobuf_set_limit, %function
iobuf_set_limit:
.LVL596:
.LFB74:
	.loc 1 2237 1 is_stmt 1 view -0
	.cfi_startproc
	@ args = 0, pretend = 0, frame = 0
	@ frame_needed = 0, uses_anonymous_args = 0
	@ link register save eliminated.
	.loc 1 2238 3 view .LVU1917
@ src/common/iobuf.c:2243:   a->ntotal += a->nbytes;
	.loc 1 2243 13 is_stmt 0 view .LVU1918
	ldr	r3, [r0, #12]	@ a_7(D)->ntotal, a_7(D)->ntotal
@ src/common/iobuf.c:2244:   a->nbytes = 0;
	.loc 1 2244 13 view .LVU1919
	mov	ip, #0	@ tmp125,
@ src/common/iobuf.c:2238:   if (nlimit)
	.loc 1 2238 6 view .LVU1920
	subs	r2, r1, ip	@ tmp121, tmp127,
@ src/common/iobuf.c:2242:   a->nlimit = nlimit;
	.loc 1 2242 13 view .LVU1921
	str	r1, [r0, #4]	@ tmp127, a_7(D)->nlimit
@ src/common/iobuf.c:2238:   if (nlimit)
	.loc 1 2238 6 view .LVU1922
	movne	r2, #1	@ tmp121,
	str	r2, [r0, #16]	@ tmp121, a_7(D)->nofast
	.loc 1 2242 3 is_stmt 1 view .LVU1923
	.loc 1 2243 3 view .LVU1924
@ src/common/iobuf.c:2243:   a->ntotal += a->nbytes;
	.loc 1 2243 13 is_stmt 0 view .LVU1925
	ldr	r2, [r0, #8]	@ a_7(D)->nbytes, a_7(D)->nbytes
@ src/common/iobuf.c:2244:   a->nbytes = 0;
	.loc 1 2244 13 view .LVU1926
	str	ip, [r0, #8]	@ tmp125, a_7(D)->nbytes
@ src/common/iobuf.c:2243:   a->ntotal += a->nbytes;
	.loc 1 2243 13 view .LVU1927
	add	r3, r3, r2	@ tmp122, a_7(D)->ntotal, a_7(D)->nbytes
	str	r3, [r0, #12]	@ tmp122, a_7(D)->ntotal
	.loc 1 2244 3 is_stmt 1 view .LVU1928
@ src/common/iobuf.c:2245: }
	.loc 1 2245 1 is_stmt 0 view .LVU1929
	bx	lr	@
	.cfi_endproc
.LFE74:
	.size	iobuf_set_limit, .-iobuf_set_limit
	.section	.rodata.iobuf_get_filelength.str1.4,"aMS",%progbits,1
	.align	2
.LC71:
	.ascii	"fstat() failed: %s\012\000"
	.section	.text.iobuf_get_filelength,"ax",%progbits
	.align	2
	.global	iobuf_get_filelength
	.syntax unified
	.arm
	.fpu softvfp
	.type	iobuf_get_filelength, %function
iobuf_get_filelength:
.LVL597:
.LFB75:
	.loc 1 2251 1 is_stmt 1 view -0
	.cfi_startproc
	@ args = 0, pretend = 0, frame = 0
	@ frame_needed = 0, uses_anonymous_args = 0
	.loc 1 2251 1 is_stmt 0 view .LVU1931
	ldr	r1, .L652	@ tmp119,
.LPIC95:
	add	r1, pc, r1	@ tmp119, tmp119
	.loc 1 2253 3 is_stmt 1 view .LVU1932
.LVL598:
.L644:
	.loc 1 2253 11 discriminator 1 view .LVU1933
	mov	r3, r0	@ a, a
@ src/common/iobuf.c:2253:   for ( ; a->chain; a = a->chain )
	.loc 1 2253 12 is_stmt 0 discriminator 1 view .LVU1934
	ldr	r0, [r0, #60]	@ a, a_3->chain
.LVL599:
@ src/common/iobuf.c:2253:   for ( ; a->chain; a = a->chain )
	.loc 1 2253 3 discriminator 1 view .LVU1935
	cmp	r0, #0	@ a,
	bne	.L644		@,
	.loc 1 2256 3 is_stmt 1 view .LVU1936
@ src/common/iobuf.c:2256:   if (a->filter != file_filter)
	.loc 1 2256 6 is_stmt 0 view .LVU1937
	ldr	r2, .L652+4	@ tmp125,
	ldr	r0, [r3, #44]	@ a_8->filter, a_8->filter
	ldr	r3, [r1, r2]	@ tmp118,
.LVL600:
	.loc 1 2256 6 view .LVU1938
	cmp	r0, r3	@ a_8->filter, tmp118
	beq	.L651		@,
@ src/common/iobuf.c:2280: }
	.loc 1 2280 1 view .LVU1939
	mov	r0, #0	@,
	mov	r1, #0	@,
	bx	lr	@
.L651:
.LBB323:
	.loc 1 2260 5 is_stmt 1 view .LVU1940
.LVL601:
	.loc 1 2261 5 view .LVU1941
	.loc 1 2271 5 view .LVU1942
	.loc 1 2275 5 view .LVU1943
	ldr	r0, .L652+8	@,
.LBE323:
@ src/common/iobuf.c:2251: {
	.loc 1 2251 1 is_stmt 0 view .LVU1944
	push	{r4, lr}	@
	.cfi_def_cfa_offset 8
	.cfi_offset 4, -8
	.cfi_offset 14, -4
.LBB324:
@ src/common/iobuf.c:2275:     printf("fstat() failed: %s\n");//, strerror(errno) );
	.loc 1 2275 5 view .LVU1945
.LPIC96:
	add	r0, pc, r0	@,
	bl	tfp_printf(PLT)	@
.LVL602:
	.loc 1 2275 5 view .LVU1946
.LBE324:
	.loc 1 2279 3 is_stmt 1 view .LVU1947
@ src/common/iobuf.c:2280: }
	.loc 1 2280 1 is_stmt 0 view .LVU1948
	mov	r0, #0	@,
	mov	r1, #0	@,
	pop	{r4, pc}	@
.L653:
	.align	2
.L652:
	.word	_GLOBAL_OFFSET_TABLE_-(.LPIC95+8)
	.word	file_filter(GOT)
	.word	.LC71-(.LPIC96+8)
	.cfi_endproc
.LFE75:
	.size	iobuf_get_filelength, .-iobuf_get_filelength
	.section	.rodata.iobuf_get_fd.str1.4,"aMS",%progbits,1
	.align	2
.LC72:
	.ascii	"iobuf_get_fd\012\000"
	.section	.text.iobuf_get_fd,"ax",%progbits
	.align	2
	.global	iobuf_get_fd
	.syntax unified
	.arm
	.fpu softvfp
	.type	iobuf_get_fd, %function
iobuf_get_fd:
.LVL603:
.LFB76:
	.loc 1 2285 1 is_stmt 1 view -0
	.cfi_startproc
	@ args = 0, pretend = 0, frame = 8
	@ frame_needed = 0, uses_anonymous_args = 0
	.loc 1 2286 3 view .LVU1950
@ src/common/iobuf.c:2285: {
	.loc 1 2285 1 is_stmt 0 view .LVU1951
	push	{r4, r5, lr}	@
	.cfi_def_cfa_offset 12
	.cfi_offset 4, -12
	.cfi_offset 5, -8
	.cfi_offset 14, -4
	sub	sp, sp, #12	@,,
	.cfi_def_cfa_offset 24
@ src/common/iobuf.c:2285: {
	.loc 1 2285 1 view .LVU1952
	ldr	r5, .L660	@ tmp122,
	str	r0, [sp, #4]	@ a, %sfp
@ src/common/iobuf.c:2286:   printf("iobuf_get_fd\n");
	.loc 1 2286 3 view .LVU1953
	ldr	r0, .L660+4	@,
.LVL604:
@ src/common/iobuf.c:2285: {
	.loc 1 2285 1 view .LVU1954
	ldr	r4, [sp, #4]	@ a, %sfp
@ src/common/iobuf.c:2286:   printf("iobuf_get_fd\n");
	.loc 1 2286 3 view .LVU1955
.LPIC97:
	add	r0, pc, r0	@,
@ src/common/iobuf.c:2285: {
	.loc 1 2285 1 view .LVU1956
.LPIC98:
	add	r5, pc, r5	@ tmp122, tmp122
@ src/common/iobuf.c:2286:   printf("iobuf_get_fd\n");
	.loc 1 2286 3 view .LVU1957
	bl	tfp_printf(PLT)	@
.LVL605:
	.loc 1 2287 3 is_stmt 1 view .LVU1958
.L655:
	.loc 1 2287 10 discriminator 1 view .LVU1959
	mov	r3, r4	@ a, a
@ src/common/iobuf.c:2287:   for (; a->chain; a = a->chain)
	.loc 1 2287 11 is_stmt 0 discriminator 1 view .LVU1960
	ldr	r4, [r4, #60]	@ a, a_3->chain
.LVL606:
@ src/common/iobuf.c:2287:   for (; a->chain; a = a->chain)
	.loc 1 2287 3 discriminator 1 view .LVU1961
	cmp	r4, #0	@ a,
	bne	.L655		@,
	.loc 1 2290 3 is_stmt 1 view .LVU1962
@ src/common/iobuf.c:2290:   if (a->filter != file_filter)
	.loc 1 2290 6 is_stmt 0 view .LVU1963
	ldr	r2, .L660+8	@ tmp127,
	ldr	r1, [r3, #44]	@ a_10->filter, a_10->filter
	ldr	r2, [r5, r2]	@ tmp121,
	cmp	r1, r2	@ a_10->filter, tmp121
.LBB325:
	.loc 1 2294 5 is_stmt 1 view .LVU1964
.LVL607:
	.loc 1 2295 5 view .LVU1965
.LBE325:
@ src/common/iobuf.c:2291:     return -1;
	.loc 1 2291 12 is_stmt 0 view .LVU1966
	mvnne	r0, #0	@ <retval>,
.LBB326:
@ src/common/iobuf.c:2295:     gnupg_fd_t fp = b->fp;
	.loc 1 2295 16 view .LVU1967
	ldreq	r3, [r3, #48]	@ a_10->filter_ov, a_10->filter_ov
.LVL608:
	.loc 1 2295 16 view .LVU1968
	ldreq	r0, [r3]	@ <retval>, b_8->fp
	.loc 1 2297 5 is_stmt 1 view .LVU1969
.LBE326:
@ src/common/iobuf.c:2299: }
	.loc 1 2299 1 is_stmt 0 view .LVU1970
	add	sp, sp, #12	@,,
	.cfi_def_cfa_offset 12
	@ sp needed	@
	pop	{r4, r5, pc}	@
.L661:
	.align	2
.L660:
	.word	_GLOBAL_OFFSET_TABLE_-(.LPIC98+8)
	.word	.LC72-(.LPIC97+8)
	.word	file_filter(GOT)
	.cfi_endproc
.LFE76:
	.size	iobuf_get_fd, .-iobuf_get_fd
	.section	.text.iobuf_tell,"ax",%progbits
	.align	2
	.global	iobuf_tell
	.syntax unified
	.arm
	.fpu softvfp
	.type	iobuf_tell, %function
iobuf_tell:
.LVL609:
.LFB77:
	.loc 1 2304 1 is_stmt 1 view -0
	.cfi_startproc
	@ args = 0, pretend = 0, frame = 0
	@ frame_needed = 0, uses_anonymous_args = 0
	@ link register save eliminated.
	.loc 1 2305 3 view .LVU1972
@ src/common/iobuf.c:2305:   return a->ntotal + a->nbytes;
	.loc 1 2305 20 is_stmt 0 view .LVU1973
	ldr	r2, [r0, #12]	@ a_4(D)->ntotal, a_4(D)->ntotal
	ldr	r0, [r0, #8]	@ a_4(D)->nbytes, a_4(D)->nbytes
.LVL610:
@ src/common/iobuf.c:2306: }
	.loc 1 2306 1 view .LVU1974
	add	r0, r2, r0	@, a_4(D)->ntotal, a_4(D)->nbytes
	bx	lr	@
	.cfi_endproc
.LFE77:
	.size	iobuf_tell, .-iobuf_tell
	.section	.rodata.iobuf_seek.str1.4,"aMS",%progbits,1
	.align	2
.LC73:
	.ascii	"iobuf_pop_filter called in iobuf_seek - please repo"
	.ascii	"rt\012\000"
	.section	.text.iobuf_seek,"ax",%progbits
	.align	2
	.global	iobuf_seek
	.syntax unified
	.arm
	.fpu softvfp
	.type	iobuf_seek, %function
iobuf_seek:
.LVL611:
.LFB78:
	.loc 1 2341 1 is_stmt 1 view -0
	.cfi_startproc
	@ args = 0, pretend = 0, frame = 0
	@ frame_needed = 0, uses_anonymous_args = 0
	.loc 1 2342 3 view .LVU1976
	.loc 1 2344 3 view .LVU1977
@ src/common/iobuf.c:2341: {
	.loc 1 2341 1 is_stmt 0 view .LVU1978
	push	{r4, lr}	@
	.cfi_def_cfa_offset 8
	.cfi_offset 4, -8
	.cfi_offset 14, -4
@ src/common/iobuf.c:2341: {
	.loc 1 2341 1 view .LVU1979
	mov	r4, r0	@ a, tmp152
@ src/common/iobuf.c:2344:   if (a->use == IOBUF_OUTPUT || a->use == IOBUF_INPUT)
	.loc 1 2344 30 view .LVU1980
	ldrb	r3, [r0]	@ zero_extendqisi2	@ a_16(D)->use, a_16(D)->use
@ src/common/iobuf.c:2341: {
	.loc 1 2341 1 view .LVU1981
	ldr	r2, .L679	@ tmp131,
@ src/common/iobuf.c:2344:   if (a->use == IOBUF_OUTPUT || a->use == IOBUF_INPUT)
	.loc 1 2344 6 view .LVU1982
	tst	r3, #253	@ a_16(D)->use,
@ src/common/iobuf.c:2341: {
	.loc 1 2341 1 view .LVU1983
.LPIC99:
	add	r2, pc, r2	@ tmp131, tmp131
@ src/common/iobuf.c:2344:   if (a->use == IOBUF_OUTPUT || a->use == IOBUF_INPUT)
	.loc 1 2344 6 view .LVU1984
	beq	.L665		@,
	.loc 1 2372 3 is_stmt 1 view .LVU1985
@ src/common/iobuf.c:2389:   if (a->chain)
	.loc 1 2389 6 is_stmt 0 view .LVU1986
	ldr	r2, [r0, #60]	@ a_16(D)->chain, a_16(D)->chain
@ src/common/iobuf.c:2372:   a->d.start = 0;
	.loc 1 2372 14 view .LVU1987
	mov	r3, #0	@ tmp139,
	str	r3, [r0, #24]	@ tmp139, a_16(D)->d.start
	.loc 1 2373 3 is_stmt 1 view .LVU1988
@ src/common/iobuf.c:2389:   if (a->chain)
	.loc 1 2389 6 is_stmt 0 view .LVU1989
	cmp	r2, r3	@ a_16(D)->chain,
@ src/common/iobuf.c:2373:   a->nbytes = 0;
	.loc 1 2373 13 view .LVU1990
	str	r3, [r0, #8]	@ tmp139, a_16(D)->nbytes
	.loc 1 2374 3 is_stmt 1 view .LVU1991
@ src/common/iobuf.c:2374:   a->nlimit = 0;
	.loc 1 2374 13 is_stmt 0 view .LVU1992
	str	r3, [r0, #4]	@ tmp139, a_16(D)->nlimit
	.loc 1 2375 3 is_stmt 1 view .LVU1993
@ src/common/iobuf.c:2375:   a->nofast = 0;
	.loc 1 2375 13 is_stmt 0 view .LVU1994
	str	r3, [r0, #16]	@ tmp139, a_16(D)->nofast
	.loc 1 2376 3 is_stmt 1 view .LVU1995
@ src/common/iobuf.c:2376:   a->ntotal = newpos;
	.loc 1 2376 13 is_stmt 0 view .LVU1996
	str	r1, [r0, #12]	@ newpos, a_16(D)->ntotal
	.loc 1 2377 3 is_stmt 1 view .LVU1997
@ src/common/iobuf.c:2377:   a->error = 0;
	.loc 1 2377 12 is_stmt 0 view .LVU1998
	str	r3, [r0, #40]	@ tmp139, a_16(D)->error
	.loc 1 2389 3 is_stmt 1 view .LVU1999
@ src/common/iobuf.c:2389:   if (a->chain)
	.loc 1 2389 6 is_stmt 0 view .LVU2000
	beq	.L667		@,
	.loc 1 2390 5 is_stmt 1 view .LVU2001
	ldr	r0, .L679+4	@,
.LVL612:
	.loc 1 2390 5 is_stmt 0 view .LVU2002
.LPIC100:
	add	r0, pc, r0	@,
	bl	tfp_printf(PLT)	@
.LVL613:
	.loc 1 2391 9 is_stmt 1 view .LVU2003
	ldr	r3, [r4, #60]	@ a_16(D)->chain, a_16(D)->chain
	cmp	r3, #0	@ a_16(D)->chain,
	beq	.L667		@,
.L668:
	.loc 1 2392 5 view .LVU2004
	ldr	r1, [r4, #44]	@, a_16(D)->filter
	mov	r2, #0	@,
	mov	r0, r4	@, a
	bl	iobuf_pop_filter(PLT)	@
.LVL614:
	.loc 1 2391 9 view .LVU2005
	ldr	r3, [r4, #60]	@ a_16(D)->chain, a_16(D)->chain
	cmp	r3, #0	@ a_16(D)->chain,
	bne	.L668		@,
.L667:
	.loc 1 2391 9 view .LVU2006
@ src/common/iobuf.c:2394:   return 0;
	.loc 1 2394 10 is_stmt 0 view .LVU2007
	mov	r0, #0	@ <retval>,
@ src/common/iobuf.c:2395: }
	.loc 1 2395 1 view .LVU2008
	pop	{r4, pc}	@
.LVL615:
.L665:
	.loc 1 2347 14 is_stmt 1 discriminator 1 view .LVU2009
	mov	r3, r4	@ a, a
@ src/common/iobuf.c:2347:       for (; a->chain; a = a->chain)
	.loc 1 2347 15 is_stmt 0 discriminator 1 view .LVU2010
	ldr	r4, [r4, #60]	@ a, a_9->chain
.LVL616:
@ src/common/iobuf.c:2347:       for (; a->chain; a = a->chain)
	.loc 1 2347 7 discriminator 1 view .LVU2011
	cmp	r4, #0	@ a,
	bne	.L665		@,
	.loc 1 2350 7 is_stmt 1 view .LVU2012
@ src/common/iobuf.c:2350:       if (a->filter != file_filter)
	.loc 1 2350 10 is_stmt 0 view .LVU2013
	ldr	r0, .L679+8	@ tmp154,
	ldr	r2, [r2, r0]	@ tmp130,
	ldr	r0, [r3, #44]	@ a_29->filter, a_29->filter
	cmp	r0, r2	@ a_29->filter, tmp130
	bne	.L669		@,
	.loc 1 2353 7 is_stmt 1 view .LVU2014
.LVL617:
	.loc 1 2370 7 view .LVU2015
@ src/common/iobuf.c:2370:       a->d.len = 0;
	.loc 1 2370 16 is_stmt 0 view .LVU2016
	str	r4, [r3, #28]	@ a, a_29->d.len
	.loc 1 2372 3 is_stmt 1 view .LVU2017
@ src/common/iobuf.c:2394:   return 0;
	.loc 1 2394 10 is_stmt 0 view .LVU2018
	mov	r0, #0	@ <retval>,
@ src/common/iobuf.c:2372:   a->d.start = 0;
	.loc 1 2372 14 view .LVU2019
	str	r4, [r3, #24]	@ a, a_29->d.start
	.loc 1 2373 3 is_stmt 1 view .LVU2020
@ src/common/iobuf.c:2373:   a->nbytes = 0;
	.loc 1 2373 13 is_stmt 0 view .LVU2021
	str	r4, [r3, #8]	@ a, a_29->nbytes
	.loc 1 2374 3 is_stmt 1 view .LVU2022
@ src/common/iobuf.c:2374:   a->nlimit = 0;
	.loc 1 2374 13 is_stmt 0 view .LVU2023
	str	r4, [r3, #4]	@ a, a_29->nlimit
	.loc 1 2375 3 is_stmt 1 view .LVU2024
@ src/common/iobuf.c:2375:   a->nofast = 0;
	.loc 1 2375 13 is_stmt 0 view .LVU2025
	str	r4, [r3, #16]	@ a, a_29->nofast
	.loc 1 2376 3 is_stmt 1 view .LVU2026
@ src/common/iobuf.c:2376:   a->ntotal = newpos;
	.loc 1 2376 13 is_stmt 0 view .LVU2027
	str	r1, [r3, #12]	@ newpos, a_29->ntotal
	.loc 1 2377 3 is_stmt 1 view .LVU2028
@ src/common/iobuf.c:2377:   a->error = 0;
	.loc 1 2377 12 is_stmt 0 view .LVU2029
	str	r4, [r3, #40]	@ a, a_29->error
	.loc 1 2389 3 is_stmt 1 view .LVU2030
	.loc 1 2391 9 view .LVU2031
@ src/common/iobuf.c:2395: }
	.loc 1 2395 1 is_stmt 0 view .LVU2032
	pop	{r4, pc}	@
.LVL618:
.L669:
@ src/common/iobuf.c:2351: 	return -1;
	.loc 1 2351 9 view .LVU2033
	mvn	r0, #0	@ <retval>,
	pop	{r4, pc}	@
.L680:
	.align	2
.L679:
	.word	_GLOBAL_OFFSET_TABLE_-(.LPIC99+8)
	.word	.LC73-(.LPIC100+8)
	.word	file_filter(GOT)
	.cfi_endproc
.LFE78:
	.size	iobuf_seek, .-iobuf_seek
	.section	.text.iobuf_get_real_fname,"ax",%progbits
	.align	2
	.global	iobuf_get_real_fname
	.syntax unified
	.arm
	.fpu softvfp
	.type	iobuf_get_real_fname, %function
iobuf_get_real_fname:
.LVL619:
.LFB79:
	.loc 1 2400 1 is_stmt 1 view -0
	.cfi_startproc
	@ args = 0, pretend = 0, frame = 0
	@ frame_needed = 0, uses_anonymous_args = 0
	@ link register save eliminated.
	.loc 1 2401 3 view .LVU2035
@ src/common/iobuf.c:2400: {
	.loc 1 2400 1 is_stmt 0 view .LVU2036
	ldr	r2, .L690	@ tmp120,
	mov	r3, r0	@ a, tmp124
@ src/common/iobuf.c:2401:   if (a->real_fname)
	.loc 1 2401 8 view .LVU2037
	ldr	r0, [r0, #56]	@ <retval>, a_4(D)->real_fname
.LVL620:
@ src/common/iobuf.c:2400: {
	.loc 1 2400 1 view .LVU2038
.LPIC101:
	add	r2, pc, r2	@ tmp120, tmp120
@ src/common/iobuf.c:2401:   if (a->real_fname)
	.loc 1 2401 6 view .LVU2039
	cmp	r0, #0	@ <retval>,
	bxne	lr	@
.LVL621:
.L686:
.LBB330:
.LBB331:
@ src/common/iobuf.c:2405:   for (; a; a = a->chain)
	.loc 1 2405 3 view .LVU2040
	subs	r0, r3, #0	@ <retval>, a
	bxeq	lr	@
@ src/common/iobuf.c:2406:     if (!a->chain && a->filter == file_filter)
	.loc 1 2406 11 view .LVU2041
	ldr	r3, [r3, #60]	@ a, a_9->chain
@ src/common/iobuf.c:2406:     if (!a->chain && a->filter == file_filter)
	.loc 1 2406 8 view .LVU2042
	cmp	r3, #0	@ a,
	bne	.L686		@,
@ src/common/iobuf.c:2406:     if (!a->chain && a->filter == file_filter)
	.loc 1 2406 19 view .LVU2043
	ldr	r1, .L690+4	@ tmp125,
	ldr	ip, [r0, #44]	@ a_9->filter, a_9->filter
	ldr	r1, [r2, r1]	@ tmp119,
	cmp	ip, r1	@ a_9->filter, tmp119
	bne	.L686		@,
.LBB332:
	.loc 1 2408 2 is_stmt 1 view .LVU2044
@ src/common/iobuf.c:2408: 	file_filter_ctx_t *b = a->filter_ov;
	.loc 1 2408 21 is_stmt 0 view .LVU2045
	ldr	r0, [r0, #48]	@ b, a_9->filter_ov
.LVL622:
	.loc 1 2409 2 is_stmt 1 view .LVU2046
@ src/common/iobuf.c:2409: 	return b->print_only_name ? NULL : b->fname;
	.loc 1 2409 35 is_stmt 0 view .LVU2047
	ldr	r2, [r0, #16]	@ b_13->print_only_name, b_13->print_only_name
	cmp	r2, #0	@ b_13->print_only_name,
	bne	.L687		@,
	add	r0, r0, #54	@ <retval>, b,
.LVL623:
	.loc 1 2409 35 view .LVU2048
	bx	lr	@
.LVL624:
.L687:
	.loc 1 2409 35 view .LVU2049
	mov	r0, r3	@ <retval>, a
.LVL625:
	.loc 1 2409 35 view .LVU2050
.LBE332:
.LBE331:
.LBE330:
@ src/common/iobuf.c:2413: }
	.loc 1 2413 1 view .LVU2051
	bx	lr	@
.L691:
	.align	2
.L690:
	.word	_GLOBAL_OFFSET_TABLE_-(.LPIC101+8)
	.word	file_filter(GOT)
	.cfi_endproc
.LFE79:
	.size	iobuf_get_real_fname, .-iobuf_get_real_fname
	.section	.text.iobuf_cancel,"ax",%progbits
	.align	2
	.global	iobuf_cancel
	.syntax unified
	.arm
	.fpu softvfp
	.type	iobuf_cancel, %function
iobuf_cancel:
.LVL626:
.LFB47:
	.loc 1 1044 1 is_stmt 1 view -0
	.cfi_startproc
	@ args = 0, pretend = 0, frame = 8
	@ frame_needed = 0, uses_anonymous_args = 0
	.loc 1 1045 3 view .LVU2053
	.loc 1 1046 3 view .LVU2054
	.loc 1 1047 3 view .LVU2055
	.loc 1 1052 3 view .LVU2056
@ src/common/iobuf.c:1044: {
	.loc 1 1044 1 is_stmt 0 view .LVU2057
	push	{r4, r5, r6, r7, lr}	@
	.cfi_def_cfa_offset 20
	.cfi_offset 4, -20
	.cfi_offset 5, -16
	.cfi_offset 6, -12
	.cfi_offset 7, -8
	.cfi_offset 14, -4
@ src/common/iobuf.c:1052:   if (a && a->use == IOBUF_OUTPUT)
	.loc 1 1052 6 view .LVU2058
	subs	r6, r0, #0	@ a, tmp127
@ src/common/iobuf.c:1044: {
	.loc 1 1044 1 view .LVU2059
	sub	sp, sp, #20	@,,
	.cfi_def_cfa_offset 40
@ src/common/iobuf.c:1052:   if (a && a->use == IOBUF_OUTPUT)
	.loc 1 1052 6 view .LVU2060
	beq	.L693		@,
@ src/common/iobuf.c:1052:   if (a && a->use == IOBUF_OUTPUT)
	.loc 1 1052 9 discriminator 1 view .LVU2061
	ldrb	r3, [r6]	@ zero_extendqisi2	@ a_10(D)->use, a_10(D)->use
	cmp	r3, #2	@ a_10(D)->use,
	beq	.L705		@,
.LVL627:
.L694:
	.loc 1 1066 16 is_stmt 1 discriminator 1 view .LVU2062
@ src/common/iobuf.c:1044: {
	.loc 1 1044 1 is_stmt 0 discriminator 1 view .LVU2063
	mov	r4, r6	@ a2, a
.LBB333:
@ src/common/iobuf.c:1070: 	a2->filter (a2->filter_ov, IOBUFCTRL_CANCEL, a2->chain, NULL, &dummy);
	.loc 1 1070 2 discriminator 1 view .LVU2064
	add	r7, sp, #12	@ tmp124,,
.LVL628:
.L696:
	.loc 1 1068 7 is_stmt 1 view .LVU2065
	.loc 1 1069 7 view .LVU2066
	.loc 1 1070 2 view .LVU2067
@ src/common/iobuf.c:1069:       if (a2->filter)
	.loc 1 1069 13 is_stmt 0 view .LVU2068
	ldr	r5, [r4, #44]	@ _2, a2_23->filter
@ src/common/iobuf.c:1070: 	a2->filter (a2->filter_ov, IOBUFCTRL_CANCEL, a2->chain, NULL, &dummy);
	.loc 1 1070 2 view .LVU2069
	mov	r3, #0	@,
	mov	r1, #6	@,
@ src/common/iobuf.c:1069:       if (a2->filter)
	.loc 1 1069 10 view .LVU2070
	cmp	r5, r3	@ _2,
	beq	.L695		@,
@ src/common/iobuf.c:1070: 	a2->filter (a2->filter_ov, IOBUFCTRL_CANCEL, a2->chain, NULL, &dummy);
	.loc 1 1070 2 view .LVU2071
	ldr	r2, [r4, #60]	@ a2_23->chain, a2_23->chain
	ldr	r0, [r4, #48]	@ a2_23->filter_ov, a2_23->filter_ov
	str	r7, [sp]	@ tmp124,
	blx	r5		@ _2
.LVL629:
.L695:
.LBE333:
	.loc 1 1066 20 is_stmt 1 discriminator 2 view .LVU2072
@ src/common/iobuf.c:1066:   for (a2 = a; a2; a2 = a2->chain)
	.loc 1 1066 23 is_stmt 0 discriminator 2 view .LVU2073
	ldr	r4, [r4, #60]	@ a2, a2_23->chain
.LVL630:
	.loc 1 1066 16 is_stmt 1 discriminator 2 view .LVU2074
@ src/common/iobuf.c:1066:   for (a2 = a; a2; a2 = a2->chain)
	.loc 1 1066 3 is_stmt 0 discriminator 2 view .LVU2075
	cmp	r4, #0	@ a2,
	bne	.L696		@,
.LVL631:
.L693:
	.loc 1 1073 3 is_stmt 1 view .LVU2076
@ src/common/iobuf.c:1073:   rc = iobuf_close (a);
	.loc 1 1073 8 is_stmt 0 view .LVU2077
	mov	r0, r6	@, a
@ src/common/iobuf.c:1084: }
	.loc 1 1084 1 view .LVU2078
	add	sp, sp, #20	@,,
	.cfi_remember_state
	.cfi_def_cfa_offset 20
	@ sp needed	@
	pop	{r4, r5, r6, r7, lr}	@
	.cfi_restore 14
	.cfi_restore 7
	.cfi_restore 6
	.cfi_restore 5
	.cfi_restore 4
	.cfi_def_cfa_offset 0
.LVL632:
@ src/common/iobuf.c:1073:   rc = iobuf_close (a);
	.loc 1 1073 8 view .LVU2079
	b	iobuf_close(PLT)	@
.LVL633:
.L705:
	.cfi_restore_state
	.loc 1 1054 7 is_stmt 1 view .LVU2080
@ src/common/iobuf.c:1054:       s = iobuf_get_real_fname (a);
	.loc 1 1054 11 is_stmt 0 view .LVU2081
	bl	iobuf_get_real_fname(PLT)	@
.LVL634:
	.loc 1 1055 7 is_stmt 1 view .LVU2082
	b	.L694		@
	.cfi_endproc
.LFE47:
	.size	iobuf_cancel, .-iobuf_cancel
	.section	.text.iobuf_get_fname,"ax",%progbits
	.align	2
	.global	iobuf_get_fname
	.syntax unified
	.arm
	.fpu softvfp
	.type	iobuf_get_fname, %function
iobuf_get_fname:
.LVL635:
.LFB80:
	.loc 1 2417 1 view -0
	.cfi_startproc
	@ args = 0, pretend = 0, frame = 0
	@ frame_needed = 0, uses_anonymous_args = 0
	@ link register save eliminated.
	.loc 1 2418 3 view .LVU2084
@ src/common/iobuf.c:2417: {
	.loc 1 2417 1 is_stmt 0 view .LVU2085
	ldr	r1, .L713	@ tmp120,
.LPIC102:
	add	r1, pc, r1	@ tmp120, tmp120
@ src/common/iobuf.c:2418:   for (; a; a = a->chain)
	.loc 1 2418 3 view .LVU2086
	b	.L708		@
.L711:
	.loc 1 2418 3 view .LVU2087
	mov	r0, r3	@ a, _1
.LVL636:
.L708:
	.loc 1 2419 5 is_stmt 1 discriminator 1 view .LVU2088
	.loc 1 2418 10 discriminator 1 view .LVU2089
@ src/common/iobuf.c:2418:   for (; a; a = a->chain)
	.loc 1 2418 3 is_stmt 0 discriminator 1 view .LVU2090
	cmp	r0, #0	@ a,
	bxeq	lr	@
@ src/common/iobuf.c:2419:     if (!a->chain && a->filter == file_filter)
	.loc 1 2419 11 view .LVU2091
	ldr	r3, [r0, #60]	@ _1, a_3->chain
@ src/common/iobuf.c:2419:     if (!a->chain && a->filter == file_filter)
	.loc 1 2419 8 view .LVU2092
	cmp	r3, #0	@ _1,
	bne	.L711		@,
@ src/common/iobuf.c:2419:     if (!a->chain && a->filter == file_filter)
	.loc 1 2419 19 discriminator 1 view .LVU2093
	ldr	r2, .L713+4	@ tmp126,
	ldr	ip, [r0, #44]	@ a_3->filter, a_3->filter
	ldr	r2, [r1, r2]	@ tmp119,
	cmp	ip, r2	@ a_3->filter, tmp119
.LBB334:
	.loc 1 2421 2 is_stmt 1 discriminator 1 view .LVU2094
.LVL637:
	.loc 1 2422 2 discriminator 1 view .LVU2095
@ src/common/iobuf.c:2422: 	return b->fname;
	.loc 1 2422 9 is_stmt 0 discriminator 1 view .LVU2096
	ldreq	r0, [r0, #48]	@ a_3->filter_ov, a_3->filter_ov
.LVL638:
	.loc 1 2422 9 discriminator 1 view .LVU2097
	addeq	r0, r0, #54	@ a, a_3->filter_ov,
.LBE334:
@ src/common/iobuf.c:2418:   for (; a; a = a->chain)
	.loc 1 2418 15 discriminator 1 view .LVU2098
	movne	r0, r3	@ a, _1
	bx	lr	@
.L714:
	.align	2
.L713:
	.word	_GLOBAL_OFFSET_TABLE_-(.LPIC102+8)
	.word	file_filter(GOT)
	.cfi_endproc
.LFE80:
	.size	iobuf_get_fname, .-iobuf_get_fname
	.section	.rodata.iobuf_get_fname_nonnull.str1.4,"aMS",%progbits,1
	.align	2
.LC74:
	.ascii	"[?]\000"
	.section	.text.iobuf_get_fname_nonnull,"ax",%progbits
	.align	2
	.global	iobuf_get_fname_nonnull
	.syntax unified
	.arm
	.fpu softvfp
	.type	iobuf_get_fname_nonnull, %function
iobuf_get_fname_nonnull:
.LVL639:
.LFB81:
	.loc 1 2429 1 is_stmt 1 view -0
	.cfi_startproc
	@ args = 0, pretend = 0, frame = 0
	@ frame_needed = 0, uses_anonymous_args = 0
	.loc 1 2430 3 view .LVU2100
	.loc 1 2432 3 view .LVU2101
@ src/common/iobuf.c:2429: {
	.loc 1 2429 1 is_stmt 0 view .LVU2102
	push	{r4, lr}	@
	.cfi_def_cfa_offset 8
	.cfi_offset 4, -8
	.cfi_offset 14, -4
@ src/common/iobuf.c:2432:   fname = iobuf_get_fname (a);
	.loc 1 2432 11 view .LVU2103
	bl	iobuf_get_fname(PLT)	@
.LVL640:
	.loc 1 2433 3 is_stmt 1 view .LVU2104
@ src/common/iobuf.c:2433:   return fname? fname : "[?]";
	.loc 1 2433 23 is_stmt 0 view .LVU2105
	cmp	r0, #0	@ <retval>
	.loc 1 2433 23 view .LVU2106
	popne	{r4, pc}	@
	ldr	r0, .L718	@ <retval>,
.LVL641:
	.loc 1 2433 23 view .LVU2107
.LPIC103:
	add	r0, pc, r0	@ <retval>, <retval>
@ src/common/iobuf.c:2434: }
	.loc 1 2434 1 view .LVU2108
	pop	{r4, pc}	@
.L719:
	.align	2
.L718:
	.word	.LC74-(.LPIC103+8)
	.cfi_endproc
.LFE81:
	.size	iobuf_get_fname_nonnull, .-iobuf_get_fname_nonnull
	.section	.rodata.iobuf_set_partial_body_length_mode.str1.4,"aMS",%progbits,1
	.align	2
.LC75:
	.ascii	"iobuf_set_partial_body_length_mode %d\012\000"
	.align	2
.LC76:
	.ascii	"iobuf_pop_filter called in set_partial_block_mode -"
	.ascii	" please report\012\000"
	.align	2
.LC77:
	.ascii	"iobuf_pop_filter called in set_partial_block_mode\000"
	.align	2
.LC78:
	.ascii	"pushing partial block filter %d\012\000"
	.section	.text.iobuf_set_partial_body_length_mode,"ax",%progbits
	.align	2
	.global	iobuf_set_partial_body_length_mode
	.syntax unified
	.arm
	.fpu softvfp
	.type	iobuf_set_partial_body_length_mode, %function
iobuf_set_partial_body_length_mode:
.LVL642:
.LFB82:
	.loc 1 2451 1 is_stmt 1 view -0
	.cfi_startproc
	@ args = 0, pretend = 0, frame = 0
	@ frame_needed = 0, uses_anonymous_args = 0
	.loc 1 2452 3 view .LVU2110
@ src/common/iobuf.c:2451: {
	.loc 1 2451 1 is_stmt 0 view .LVU2111
	push	{r4, r5, r6, lr}	@
	.cfi_def_cfa_offset 16
	.cfi_offset 4, -16
	.cfi_offset 5, -12
	.cfi_offset 6, -8
	.cfi_offset 14, -4
@ src/common/iobuf.c:2451: {
	.loc 1 2451 1 view .LVU2112
	mov	r4, r0	@ tmp143, a
@ src/common/iobuf.c:2452:   printf ("iobuf_set_partial_body_length_mode %d\n", len);
	.loc 1 2452 3 view .LVU2113
	ldr	r0, .L725	@,
.LVL643:
@ src/common/iobuf.c:2451: {
	.loc 1 2451 1 view .LVU2114
	mov	r5, r1	@ len, tmp144
@ src/common/iobuf.c:2452:   printf ("iobuf_set_partial_body_length_mode %d\n", len);
	.loc 1 2452 3 view .LVU2115
.LPIC104:
	add	r0, pc, r0	@,
	bl	tfp_printf(PLT)	@
.LVL644:
	.loc 1 2453 3 is_stmt 1 view .LVU2116
@ src/common/iobuf.c:2453:   if (!len)
	.loc 1 2453 6 is_stmt 0 view .LVU2117
	cmp	r5, #0	@ len,
	bne	.L721		@,
	.loc 1 2456 7 is_stmt 1 view .LVU2118
@ src/common/iobuf.c:2456:       if (a->use == IOBUF_INPUT)
	.loc 1 2456 10 is_stmt 0 view .LVU2119
	ldrb	r3, [r4]	@ zero_extendqisi2	@ a_14(D)->use, a_14(D)->use
	cmp	r3, #0	@ a_14(D)->use,
	beq	.L724		@,
.L722:
	.loc 1 2460 7 is_stmt 1 view .LVU2120
	ldr	r0, .L725+4	@,
@ src/common/iobuf.c:2461:       printf (a->filter == block_filter);
	.loc 1 2461 7 is_stmt 0 view .LVU2121
	ldr	r5, .L725+8	@ tmp133,
.LVL645:
@ src/common/iobuf.c:2460:       printf ("iobuf_pop_filter called in set_partial_block_mode");
	.loc 1 2460 7 view .LVU2122
.LPIC106:
	add	r0, pc, r0	@,
@ src/common/iobuf.c:2461:       printf (a->filter == block_filter);
	.loc 1 2461 7 view .LVU2123
.LPIC107:
	add	r5, pc, r5	@ tmp133, tmp133
@ src/common/iobuf.c:2460:       printf ("iobuf_pop_filter called in set_partial_block_mode");
	.loc 1 2460 7 view .LVU2124
	bl	tfp_printf(PLT)	@
.LVL646:
	.loc 1 2461 7 is_stmt 1 view .LVU2125
	ldr	r0, [r4, #44]	@ a_14(D)->filter, a_14(D)->filter
	sub	r0, r0, r5	@, a_14(D)->filter, tmp133
	clz	r0, r0	@,
	lsr	r0, r0, #5	@,,
	bl	tfp_printf(PLT)	@
.LVL647:
	.loc 1 2462 7 view .LVU2126
	mov	r1, r5	@, tmp133
	mov	r0, r4	@, a
	mov	r2, #0	@,
@ src/common/iobuf.c:2476: }
	.loc 1 2476 1 is_stmt 0 view .LVU2127
	pop	{r4, r5, r6, lr}	@
	.cfi_remember_state
	.cfi_restore 14
	.cfi_restore 6
	.cfi_restore 5
	.cfi_restore 4
	.cfi_def_cfa_offset 0
.LVL648:
@ src/common/iobuf.c:2462:       iobuf_pop_filter (a, block_filter, NULL);
	.loc 1 2462 7 view .LVU2128
	b	iobuf_pop_filter(PLT)	@
.LVL649:
.L724:
	.cfi_restore_state
	.loc 1 2457 2 is_stmt 1 view .LVU2129
	ldr	r0, .L725+12	@,
.LPIC105:
	add	r0, pc, r0	@,
	bl	tfp_printf(PLT)	@
.LVL650:
	b	.L722		@
.L721:
.LBB335:
	.loc 1 2467 7 view .LVU2130
@ src/common/iobuf.c:2467:       block_filter_ctx_t *ctx = xcalloc (1, sizeof *ctx);
	.loc 1 2467 33 is_stmt 0 view .LVU2131
	mov	r1, #32	@,
	mov	r0, #1	@,
	bl	xcalloc(PLT)	@
.LVL651:
@ src/common/iobuf.c:2468:       ctx->use = a->use;
	.loc 1 2468 19 view .LVU2132
	ldrb	r1, [r4]	@ zero_extendqisi2	@ _4, a_14(D)->use
@ src/common/iobuf.c:2469:       ctx->partial = 1;
	.loc 1 2469 20 view .LVU2133
	mov	r3, #1	@ tmp137,
	str	r3, [r0, #12]	@ tmp137, ctx_13->partial
@ src/common/iobuf.c:2470:       ctx->size = 0;
	.loc 1 2470 17 view .LVU2134
	mov	r3, #0	@ tmp138,
@ src/common/iobuf.c:2468:       ctx->use = a->use;
	.loc 1 2468 16 view .LVU2135
	str	r1, [r0]	@ _4, ctx_13->use
@ src/common/iobuf.c:2467:       block_filter_ctx_t *ctx = xcalloc (1, sizeof *ctx);
	.loc 1 2467 33 view .LVU2136
	mov	r6, r0	@ ctx, tmp145
.LVL652:
	.loc 1 2468 7 is_stmt 1 view .LVU2137
	.loc 1 2469 7 view .LVU2138
	.loc 1 2470 7 view .LVU2139
@ src/common/iobuf.c:2470:       ctx->size = 0;
	.loc 1 2470 17 is_stmt 0 view .LVU2140
	str	r3, [r0, #4]	@ tmp138, ctx_13->size
	.loc 1 2471 7 is_stmt 1 view .LVU2141
@ src/common/iobuf.c:2473:       printf ("pushing partial block filter %d\n", ctx->use);
	.loc 1 2473 7 is_stmt 0 view .LVU2142
	ldr	r0, .L725+16	@,
.LVL653:
@ src/common/iobuf.c:2471:       ctx->first_c = len;
	.loc 1 2471 20 view .LVU2143
	str	r5, [r6, #24]	@ len, ctx_13->first_c
	.loc 1 2473 7 is_stmt 1 view .LVU2144
.LPIC109:
	add	r0, pc, r0	@,
	bl	tfp_printf(PLT)	@
.LVL654:
	.loc 1 2474 7 view .LVU2145
	ldr	r1, .L725+20	@,
	mov	r2, r6	@, ctx
	mov	r0, r4	@, a
.LPIC110:
	add	r1, pc, r1	@,
.LBE335:
@ src/common/iobuf.c:2476: }
	.loc 1 2476 1 is_stmt 0 view .LVU2146
	pop	{r4, r5, r6, lr}	@
	.cfi_restore 14
	.cfi_restore 6
	.cfi_restore 5
	.cfi_restore 4
	.cfi_def_cfa_offset 0
.LVL655:
.LBB336:
@ src/common/iobuf.c:2474:       iobuf_push_filter (a, block_filter, ctx);
	.loc 1 2474 7 view .LVU2147
	b	iobuf_push_filter(PLT)	@
.LVL656:
.L726:
	.loc 1 2474 7 view .LVU2148
	.align	2
.L725:
	.word	.LC75-(.LPIC104+8)
	.word	.LC77-(.LPIC106+8)
	.word	block_filter-(.LPIC107+8)
	.word	.LC76-(.LPIC105+8)
	.word	.LC78-(.LPIC109+8)
	.word	block_filter-(.LPIC110+8)
.LBE336:
	.cfi_endproc
.LFE82:
	.size	iobuf_set_partial_body_length_mode, .-iobuf_set_partial_body_length_mode
	.section	.text.iobuf_read_line,"ax",%progbits
	.align	2
	.global	iobuf_read_line
	.syntax unified
	.arm
	.fpu softvfp
	.type	iobuf_read_line, %function
iobuf_read_line:
.LVL657:
.LFB83:
	.loc 1 2483 1 is_stmt 1 view -0
	.cfi_startproc
	@ args = 0, pretend = 0, frame = 8
	@ frame_needed = 0, uses_anonymous_args = 0
	.loc 1 2484 3 view .LVU2150
	.loc 1 2485 3 view .LVU2151
@ src/common/iobuf.c:2483: {
	.loc 1 2483 1 is_stmt 0 view .LVU2152
	push	{r4, r5, r6, r7, r8, r9, r10, fp, lr}	@
	.cfi_def_cfa_offset 36
	.cfi_offset 4, -36
	.cfi_offset 5, -32
	.cfi_offset 6, -28
	.cfi_offset 7, -24
	.cfi_offset 8, -20
	.cfi_offset 9, -16
	.cfi_offset 10, -12
	.cfi_offset 11, -8
	.cfi_offset 14, -4
	sub	sp, sp, #12	@,,
	.cfi_def_cfa_offset 48
@ src/common/iobuf.c:2485:   char *buffer = (char *)*addr_of_buffer;
	.loc 1 2485 9 view .LVU2153
	ldr	fp, [r1]	@ buffer, *addr_of_buffer_49(D)
.LVL658:
	.loc 1 2486 3 is_stmt 1 view .LVU2154
@ src/common/iobuf.c:2483: {
	.loc 1 2483 1 is_stmt 0 view .LVU2155
	mov	r7, r1	@ addr_of_buffer, tmp175
@ src/common/iobuf.c:2486:   unsigned length = *length_of_buffer;
	.loc 1 2486 12 view .LVU2156
	ldr	r10, [r2]	@ length, *length_of_buffer_51(D)
.LVL659:
	.loc 1 2487 3 is_stmt 1 view .LVU2157
	.loc 1 2488 3 view .LVU2158
@ src/common/iobuf.c:2483: {
	.loc 1 2483 1 is_stmt 0 view .LVU2159
	mov	r8, r2	@ length_of_buffer, tmp176
@ src/common/iobuf.c:2488:   unsigned maxlen = *max_length;
	.loc 1 2488 12 view .LVU2160
	ldr	r6, [r3]	@ maxlen, *max_length_54(D)
.LVL660:
	.loc 1 2489 3 is_stmt 1 view .LVU2161
	.loc 1 2497 3 view .LVU2162
@ src/common/iobuf.c:2483: {
	.loc 1 2483 1 is_stmt 0 view .LVU2163
	mov	r4, r0	@ a, tmp174
@ src/common/iobuf.c:2497:   if (!buffer || length <= 1)
	.loc 1 2497 6 view .LVU2164
	cmp	fp, #0	@ buffer,
	cmpne	r10, #1	@, length,
@ src/common/iobuf.c:2483: {
	.loc 1 2483 1 view .LVU2165
	str	r3, [sp, #4]	@ max_length, %sfp
@ src/common/iobuf.c:2497:   if (!buffer || length <= 1)
	.loc 1 2497 6 view .LVU2166
	bls	.L752		@,
.LVL661:
.L728:
	.loc 1 2506 3 is_stmt 1 view .LVU2167
	.loc 1 2507 3 view .LVU2168
@ src/common/iobuf.c:2506:   p = buffer;
	.loc 1 2506 5 is_stmt 0 view .LVU2169
	mov	r9, fp	@ p, buffer
@ src/common/iobuf.c:2487:   unsigned nbytes = 0;
	.loc 1 2487 12 view .LVU2170
	mov	r5, #0	@ <retval>,
@ src/common/iobuf.c:2507:   while ((c = iobuf_get (a)) != -1)
	.loc 1 2507 9 view .LVU2171
	b	.L729		@
.LVL662:
.L740:
@ src/common/iobuf.c:2507:   while ((c = iobuf_get (a)) != -1)
	.loc 1 2507 15 discriminator 4 view .LVU2172
	ldr	r1, [r4, #8]	@ a_62(D)->nbytes, a_62(D)->nbytes
	ldr	r0, [r4, #32]	@ _23, a_62(D)->d.buf
.LVL663:
	.loc 1 2507 15 discriminator 4 view .LVU2173
	str	ip, [r4, #24]	@ tmp170, a_62(D)->d.start
	add	r1, r1, #1	@ tmp168, a_62(D)->nbytes,
	str	r1, [r4, #8]	@ tmp168, a_62(D)->nbytes
	ldrb	r1, [r0, r2]	@ zero_extendqisi2	@ prephitmp_86, *_27
	mov	r0, r1	@ iftmp.82_67, prephitmp_86
.LVL664:
.L742:
	.loc 1 2509 7 is_stmt 1 view .LVU2174
	.loc 1 2514 7 view .LVU2175
@ src/common/iobuf.c:2509:       *p++ = c;
	.loc 1 2509 9 is_stmt 0 view .LVU2176
	mov	r2, r9	@ p, p
.LVL665:
@ src/common/iobuf.c:2511:       if (c == '\n')
	.loc 1 2511 10 view .LVU2177
	cmp	r0, #10	@ iftmp.82_67,
@ src/common/iobuf.c:2514:       if (nbytes == length - 1)
	.loc 1 2514 28 view .LVU2178
	sub	ip, r10, #1	@ tmp157, length,
@ src/common/iobuf.c:2510:       nbytes++;
	.loc 1 2510 13 view .LVU2179
	add	r5, r5, #1	@ <retval>, <retval>,
.LVL666:
@ src/common/iobuf.c:2509:       *p++ = c;
	.loc 1 2509 12 view .LVU2180
	strb	r1, [r2], #1	@ prephitmp_86, *p_36
.LVL667:
	.loc 1 2510 7 is_stmt 1 view .LVU2181
	.loc 1 2511 7 view .LVU2182
@ src/common/iobuf.c:2511:       if (c == '\n')
	.loc 1 2511 10 is_stmt 0 view .LVU2183
	beq	.L730		@,
@ src/common/iobuf.c:2514:       if (nbytes == length - 1)
	.loc 1 2514 10 view .LVU2184
	cmp	ip, r5	@ tmp157, <retval>
	beq	.L753		@,
.LVL668:
.L731:
@ src/common/iobuf.c:2536: 	  length += length < 1024 ? 256 : 1024;
	.loc 1 2536 34 view .LVU2185
	mov	r9, r2	@ p, p
.LVL669:
.L729:
	.loc 1 2507 9 is_stmt 1 view .LVU2186
@ src/common/iobuf.c:2507:   while ((c = iobuf_get (a)) != -1)
	.loc 1 2507 15 is_stmt 0 view .LVU2187
	ldr	r2, [r4, #16]	@ a_62(D)->nofast, a_62(D)->nofast
	mov	r0, r4	@, a
	cmp	r2, #0	@ a_62(D)->nofast,
	bne	.L739		@,
.LVL670:
@ src/common/iobuf.c:2507:   while ((c = iobuf_get (a)) != -1)
	.loc 1 2507 15 discriminator 2 view .LVU2188
	ldr	r2, [r4, #24]	@ _19, a_62(D)->d.start
	ldr	r1, [r4, #28]	@ a_62(D)->d.len, a_62(D)->d.len
	add	ip, r2, #1	@ tmp170, _19,
	cmp	r2, r1	@ _19, a_62(D)->d.len
	bcc	.L740		@,
.L739:
@ src/common/iobuf.c:2507:   while ((c = iobuf_get (a)) != -1)
	.loc 1 2507 15 discriminator 3 view .LVU2189
	bl	iobuf_readbyte(PLT)	@
.LVL671:
@ src/common/iobuf.c:2507:   while ((c = iobuf_get (a)) != -1)
	.loc 1 2507 9 discriminator 3 view .LVU2190
	cmn	r0, #1	@ iftmp.82_67,
@ src/common/iobuf.c:2509:       *p++ = c;
	.loc 1 2509 12 discriminator 3 view .LVU2191
	uxtb	r1, r0	@ prephitmp_86, iftmp.82_67
@ src/common/iobuf.c:2507:   while ((c = iobuf_get (a)) != -1)
	.loc 1 2507 9 discriminator 3 view .LVU2192
	bne	.L742		@,
	mov	r2, r9	@ p, p
.LVL672:
.L730:
	.loc 1 2547 3 is_stmt 1 view .LVU2193
@ src/common/iobuf.c:2547:   *p = 0;
	.loc 1 2547 6 is_stmt 0 view .LVU2194
	mov	r3, #0	@ tmp171,
@ src/common/iobuf.c:2552: }
	.loc 1 2552 1 view .LVU2195
	mov	r0, r5	@, <retval>
@ src/common/iobuf.c:2547:   *p = 0;
	.loc 1 2547 6 view .LVU2196
	strb	r3, [r2]	@ tmp171, *p_37
	.loc 1 2551 3 is_stmt 1 view .LVU2197
@ src/common/iobuf.c:2552: }
	.loc 1 2552 1 is_stmt 0 view .LVU2198
	add	sp, sp, #12	@,,
	.cfi_remember_state
	.cfi_def_cfa_offset 36
	@ sp needed	@
	pop	{r4, r5, r6, r7, r8, r9, r10, fp, pc}	@
.LVL673:
.L753:
	.cfi_restore_state
	.loc 1 2518 4 is_stmt 1 view .LVU2199
	.loc 1 2536 4 view .LVU2200
@ src/common/iobuf.c:2518: 	  if (length == maxlen)
	.loc 1 2518 7 is_stmt 0 view .LVU2201
	cmp	r10, r6	@ length, maxlen
@ src/common/iobuf.c:2540: 	  buffer = xrealloc (buffer, length);
	.loc 1 2540 13 view .LVU2202
	mov	r0, fp	@, buffer
.LVL674:
@ src/common/iobuf.c:2518: 	  if (length == maxlen)
	.loc 1 2518 7 view .LVU2203
	beq	.L736		@,
.LVL675:
@ src/common/iobuf.c:2536: 	  length += length < 1024 ? 256 : 1024;
	.loc 1 2536 34 view .LVU2204
	cmp	r10, #1024	@ length,
	movcc	r1, #256	@ iftmp.81_39,
	movcs	r1, #1024	@ iftmp.81_39,
@ src/common/iobuf.c:2536: 	  length += length < 1024 ? 256 : 1024;
	.loc 1 2536 11 view .LVU2205
	add	r10, r10, r1	@ length, length, iftmp.81_39
.LVL676:
	.loc 1 2537 4 is_stmt 1 view .LVU2206
	cmp	r6, r10	@ maxlen, length
	movcc	r10, r6	@ length, maxlen
.LVL677:
	.loc 1 2540 4 view .LVU2207
@ src/common/iobuf.c:2540: 	  buffer = xrealloc (buffer, length);
	.loc 1 2540 13 is_stmt 0 view .LVU2208
	mov	r1, r10	@, length
	bl	xrealloc(PLT)	@
.LVL678:
@ src/common/iobuf.c:2541: 	  *addr_of_buffer = (unsigned char *)buffer;
	.loc 1 2541 20 view .LVU2209
	str	r0, [r7]	@ buffer, *addr_of_buffer_49(D)
@ src/common/iobuf.c:2540: 	  buffer = xrealloc (buffer, length);
	.loc 1 2540 13 view .LVU2210
	mov	fp, r0	@ buffer, tmp180
.LVL679:
	.loc 1 2541 4 is_stmt 1 view .LVU2211
	.loc 1 2542 4 view .LVU2212
@ src/common/iobuf.c:2543: 	  p = buffer + nbytes;
	.loc 1 2543 6 is_stmt 0 view .LVU2213
	add	r2, r0, r5	@ p, buffer, <retval>
@ src/common/iobuf.c:2542: 	  *length_of_buffer = length;
	.loc 1 2542 22 view .LVU2214
	str	r10, [r8]	@ length, *length_of_buffer_51(D)
	.loc 1 2543 4 is_stmt 1 view .LVU2215
.LVL680:
	.loc 1 2543 4 is_stmt 0 view .LVU2216
	b	.L731		@
.LVL681:
.L733:
	.loc 1 2543 4 view .LVU2217
	str	r2, [sp]	@ p, %sfp
@ src/common/iobuf.c:2522: 	      while (c != '\n' && (c = iobuf_get (a)) != -1)
	.loc 1 2522 33 discriminator 4 view .LVU2218
	bl	iobuf_readbyte(PLT)	@
.LVL682:
@ src/common/iobuf.c:2522: 	      while (c != '\n' && (c = iobuf_get (a)) != -1)
	.loc 1 2522 25 discriminator 4 view .LVU2219
	ldr	r2, [sp]	@ p, %sfp
	cmn	r0, #1	@ iftmp.80_82,
	beq	.L737		@,
.L735:
	.loc 1 2523 3 is_stmt 1 view .LVU2220
	.loc 1 2522 14 view .LVU2221
	cmp	r0, #10	@ iftmp.80_82,
	beq	.L737		@,
.LVL683:
.L736:
@ src/common/iobuf.c:2522: 	      while (c != '\n' && (c = iobuf_get (a)) != -1)
	.loc 1 2522 33 is_stmt 0 discriminator 1 view .LVU2222
	ldr	r1, [r4, #16]	@ a_62(D)->nofast, a_62(D)->nofast
	mov	r0, r4	@, a
	cmp	r1, #0	@ a_62(D)->nofast,
	bne	.L733		@,
.LVL684:
@ src/common/iobuf.c:2522: 	      while (c != '\n' && (c = iobuf_get (a)) != -1)
	.loc 1 2522 33 discriminator 3 view .LVU2223
	ldr	r1, [r4, #24]	@ _8, a_62(D)->d.start
	ldr	ip, [r4, #28]	@ a_62(D)->d.len, a_62(D)->d.len
	cmp	r1, ip	@ _8, a_62(D)->d.len
	add	ip, r1, #1	@ tmp165, _8,
	bcs	.L733		@,
@ src/common/iobuf.c:2522: 	      while (c != '\n' && (c = iobuf_get (a)) != -1)
	.loc 1 2522 33 discriminator 5 view .LVU2224
	ldr	r0, [r4, #8]	@ a_62(D)->nbytes, a_62(D)->nbytes
.LVL685:
	.loc 1 2522 33 discriminator 5 view .LVU2225
	ldr	lr, [r4, #32]	@ _12, a_62(D)->d.buf
	str	ip, [r4, #24]	@ tmp165, a_62(D)->d.start
	add	r0, r0, #1	@ tmp163, a_62(D)->nbytes,
	str	r0, [r4, #8]	@ tmp163, a_62(D)->nbytes
	ldrb	r0, [lr, r1]	@ zero_extendqisi2	@ iftmp.80_82, *_15
.LVL686:
	.loc 1 2522 33 discriminator 5 view .LVU2226
	b	.L735		@
.LVL687:
.L752:
	.loc 1 2500 7 is_stmt 1 view .LVU2227
@ src/common/iobuf.c:2500:       length = 256 <= maxlen ? 256 : maxlen;
	.loc 1 2500 14 is_stmt 0 view .LVU2228
	cmp	r6, #256	@ maxlen,
@ src/common/iobuf.c:2501:       buffer = xrealloc (buffer, length);
	.loc 1 2501 16 view .LVU2229
	mov	r0, fp	@, buffer
.LVL688:
@ src/common/iobuf.c:2500:       length = 256 <= maxlen ? 256 : maxlen;
	.loc 1 2500 14 view .LVU2230
	movcc	r10, r6	@ length, maxlen
.LVL689:
	.loc 1 2500 14 view .LVU2231
	movcs	r10, #256	@ length,
.LVL690:
	.loc 1 2501 7 is_stmt 1 view .LVU2232
@ src/common/iobuf.c:2501:       buffer = xrealloc (buffer, length);
	.loc 1 2501 16 is_stmt 0 view .LVU2233
	mov	r1, r10	@, length
.LVL691:
	.loc 1 2501 16 view .LVU2234
	bl	xrealloc(PLT)	@
.LVL692:
@ src/common/iobuf.c:2502:       *addr_of_buffer = (unsigned char *)buffer;
	.loc 1 2502 23 view .LVU2235
	str	r0, [r7]	@ buffer, *addr_of_buffer_49(D)
@ src/common/iobuf.c:2501:       buffer = xrealloc (buffer, length);
	.loc 1 2501 16 view .LVU2236
	mov	fp, r0	@ buffer, tmp178
.LVL693:
	.loc 1 2502 7 is_stmt 1 view .LVU2237
	.loc 1 2503 7 view .LVU2238
@ src/common/iobuf.c:2503:       *length_of_buffer = length;
	.loc 1 2503 25 is_stmt 0 view .LVU2239
	str	r10, [r8]	@ length, *length_of_buffer_51(D)
	b	.L728		@
.LVL694:
.L737:
	.loc 1 2529 8 is_stmt 1 view .LVU2240
@ src/common/iobuf.c:2529: 	      p[-1] = '\n';
	.loc 1 2529 14 is_stmt 0 view .LVU2241
	mov	r1, #10	@ tmp160,
@ src/common/iobuf.c:2532: 	      *max_length = 0;
	.loc 1 2532 20 view .LVU2242
	mov	r3, #0	@ tmp162,
@ src/common/iobuf.c:2529: 	      p[-1] = '\n';
	.loc 1 2529 14 view .LVU2243
	strb	r1, [r9]	@ tmp160, *p_36
	.loc 1 2532 8 is_stmt 1 view .LVU2244
@ src/common/iobuf.c:2532: 	      *max_length = 0;
	.loc 1 2532 20 is_stmt 0 view .LVU2245
	ldr	r1, [sp, #4]	@ max_length, %sfp
	str	r3, [r1]	@ tmp162, *max_length_54(D)
	.loc 1 2533 8 is_stmt 1 view .LVU2246
	b	.L730		@
	.cfi_endproc
.LFE83:
	.size	iobuf_read_line, .-iobuf_read_line
	.section	.text.translate_file_handle,"ax",%progbits
	.align	2
	.global	translate_file_handle
	.syntax unified
	.arm
	.fpu softvfp
	.type	translate_file_handle, %function
translate_file_handle:
.LVL695:
.LFB84:
	.loc 1 2556 1 view -0
	.cfi_startproc
	@ args = 0, pretend = 0, frame = 0
	@ frame_needed = 0, uses_anonymous_args = 0
	@ link register save eliminated.
	.loc 1 2584 3 view .LVU2248
	.loc 1 2586 3 view .LVU2249
@ src/common/iobuf.c:2587: }
	.loc 1 2587 1 is_stmt 0 view .LVU2250
	bx	lr	@
	.cfi_endproc
.LFE84:
	.size	translate_file_handle, .-translate_file_handle
	.section	.text.iobuf_skip_rest,"ax",%progbits
	.align	2
	.global	iobuf_skip_rest
	.syntax unified
	.arm
	.fpu softvfp
	.type	iobuf_skip_rest, %function
iobuf_skip_rest:
.LVL696:
.LFB85:
	.loc 1 2592 1 is_stmt 1 view -0
	.cfi_startproc
	@ args = 0, pretend = 0, frame = 0
	@ frame_needed = 0, uses_anonymous_args = 0
	.loc 1 2593 3 view .LVU2252
@ src/common/iobuf.c:2593:   if ( partial )
	.loc 1 2593 6 is_stmt 0 view .LVU2253
	cmp	r2, #0	@ tmp146,
@ src/common/iobuf.c:2592: {
	.loc 1 2592 1 view .LVU2254
	push	{r4, r5, r6, lr}	@
	.cfi_def_cfa_offset 16
	.cfi_offset 4, -16
	.cfi_offset 5, -12
	.cfi_offset 6, -8
	.cfi_offset 14, -4
@ src/common/iobuf.c:2592: {
	.loc 1 2592 1 view .LVU2255
	mov	r4, r0	@ a, tmp144
@ src/common/iobuf.c:2593:   if ( partial )
	.loc 1 2593 6 view .LVU2256
	bne	.L775		@,
.LBB337:
@ src/common/iobuf.c:2615:       while (remaining > 0)
	.loc 1 2615 13 view .LVU2257
	cmp	r1, #0	@ n,
	mov	r5, r1	@ n, tmp145
.LVL697:
	.loc 1 2615 13 is_stmt 1 view .LVU2258
	popeq	{r4, r5, r6, pc}	@
	.loc 1 2617 11 view .LVU2259
	.loc 1 2619 15 view .LVU2260
@ src/common/iobuf.c:2617:           if (a->nofast || a->d.start >= a->d.len)
	.loc 1 2617 14 is_stmt 0 view .LVU2261
	ldr	r3, [r4, #16]	@ a_29(D)->nofast, a_29(D)->nofast
@ src/common/iobuf.c:2619:               if (iobuf_readbyte (a) == -1)
	.loc 1 2619 19 view .LVU2262
	mov	r0, r4	@, a
@ src/common/iobuf.c:2617:           if (a->nofast || a->d.start >= a->d.len)
	.loc 1 2617 14 view .LVU2263
	cmp	r3, #0	@ a_29(D)->nofast,
	beq	.L779		@,
.LVL698:
.L764:
@ src/common/iobuf.c:2623:               --remaining;
	.loc 1 2623 15 view .LVU2264
	sub	r5, r5, #1	@ n, n,
.LVL699:
@ src/common/iobuf.c:2619:               if (iobuf_readbyte (a) == -1)
	.loc 1 2619 19 view .LVU2265
	bl	iobuf_readbyte(PLT)	@
.LVL700:
	.loc 1 2623 15 is_stmt 1 view .LVU2266
@ src/common/iobuf.c:2619:               if (iobuf_readbyte (a) == -1)
	.loc 1 2619 18 is_stmt 0 view .LVU2267
	cmn	r0, #1	@ tmp148,
	popeq	{r4, r5, r6, pc}	@
	.loc 1 2615 13 is_stmt 1 view .LVU2268
	cmp	r5, #0	@ n,
	bne	.L758		@,
	pop	{r4, r5, r6, pc}	@
.LVL701:
.L765:
	.loc 1 2615 13 is_stmt 0 view .LVU2269
	cmp	r3, r5	@ count, n
.LBB338:
@ src/common/iobuf.c:2632:               a->nbytes += count;
	.loc 1 2632 25 view .LVU2270
	ldr	r1, [r4, #8]	@ a_29(D)->nbytes, a_29(D)->nbytes
	movcs	r3, r5	@ count, n
.LVL702:
	.loc 1 2632 15 is_stmt 1 view .LVU2271
@ src/common/iobuf.c:2634:               remaining -= count;
	.loc 1 2634 25 is_stmt 0 view .LVU2272
	sub	r5, r5, r3	@ n, n, count
.LVL703:
@ src/common/iobuf.c:2632:               a->nbytes += count;
	.loc 1 2632 25 view .LVU2273
	add	r1, r1, r3	@ tmp140, a_29(D)->nbytes, count
.LBE338:
@ src/common/iobuf.c:2615:       while (remaining > 0)
	.loc 1 2615 13 view .LVU2274
	cmp	r5, #0	@ n,
.LBB339:
@ src/common/iobuf.c:2633:               a->d.start += count;
	.loc 1 2633 26 view .LVU2275
	add	r3, r3, r2	@ tmp142, count, _11
.LVL704:
@ src/common/iobuf.c:2632:               a->nbytes += count;
	.loc 1 2632 25 view .LVU2276
	str	r1, [r4, #8]	@ tmp140, a_29(D)->nbytes
	.loc 1 2633 15 is_stmt 1 view .LVU2277
@ src/common/iobuf.c:2633:               a->d.start += count;
	.loc 1 2633 26 is_stmt 0 view .LVU2278
	str	r3, [r4, #24]	@ tmp142, a_29(D)->d.start
	.loc 1 2634 15 is_stmt 1 view .LVU2279
.LVL705:
	.loc 1 2634 15 is_stmt 0 view .LVU2280
.LBE339:
	.loc 1 2615 13 is_stmt 1 view .LVU2281
	popeq	{r4, r5, r6, pc}	@
.LVL706:
.L758:
	.loc 1 2617 11 view .LVU2282
	.loc 1 2619 15 view .LVU2283
@ src/common/iobuf.c:2617:           if (a->nofast || a->d.start >= a->d.len)
	.loc 1 2617 14 is_stmt 0 view .LVU2284
	ldr	r3, [r4, #16]	@ a_29(D)->nofast, a_29(D)->nofast
@ src/common/iobuf.c:2619:               if (iobuf_readbyte (a) == -1)
	.loc 1 2619 19 view .LVU2285
	mov	r0, r4	@, a
@ src/common/iobuf.c:2617:           if (a->nofast || a->d.start >= a->d.len)
	.loc 1 2617 14 view .LVU2286
	cmp	r3, #0	@ a_29(D)->nofast,
	bne	.L764		@,
.LVL707:
.L779:
.LBB340:
	.loc 1 2627 15 is_stmt 1 discriminator 1 view .LVU2287
.LBE340:
@ src/common/iobuf.c:2617:           if (a->nofast || a->d.start >= a->d.len)
	.loc 1 2617 32 is_stmt 0 discriminator 1 view .LVU2288
	ldr	r2, [r4, #24]	@ _11, a_29(D)->d.start
@ src/common/iobuf.c:2617:           if (a->nofast || a->d.start >= a->d.len)
	.loc 1 2617 46 discriminator 1 view .LVU2289
	ldr	r1, [r4, #28]	@ _12, a_29(D)->d.len
@ src/common/iobuf.c:2617:           if (a->nofast || a->d.start >= a->d.len)
	.loc 1 2617 25 discriminator 1 view .LVU2290
	cmp	r2, r1	@ _11, _12
.LBB341:
@ src/common/iobuf.c:2627:               unsigned long count = a->d.len - a->d.start;
	.loc 1 2627 29 discriminator 1 view .LVU2291
	sub	r3, r1, r2	@ count, _12, _11
.LVL708:
	.loc 1 2628 15 is_stmt 1 discriminator 1 view .LVU2292
.LBE341:
@ src/common/iobuf.c:2617:           if (a->nofast || a->d.start >= a->d.len)
	.loc 1 2617 25 is_stmt 0 discriminator 1 view .LVU2293
	bcc	.L765		@,
	b	.L764		@
.LVL709:
.L780:
	.loc 1 2617 25 discriminator 1 view .LVU2294
	ldr	r1, [r4, #28]	@ _3, a_29(D)->d.len
.LBE337:
.LBB342:
	.loc 1 2606 15 is_stmt 1 view .LVU2295
.LBE342:
@ src/common/iobuf.c:2597:           if (a->nofast || a->d.start >= a->d.len)
	.loc 1 2597 32 is_stmt 0 view .LVU2296
	ldr	r2, [r4, #24]	@ _2, a_29(D)->d.start
.LVL710:
.LBB343:
	.loc 1 2607 15 is_stmt 1 view .LVU2297
.LBE343:
@ src/common/iobuf.c:2597:           if (a->nofast || a->d.start >= a->d.len)
	.loc 1 2597 25 is_stmt 0 view .LVU2298
	cmp	r2, r1	@ _2, _3
	bcs	.L759		@,
.LVL711:
.L760:
.LBB344:
@ src/common/iobuf.c:2607:               a->nbytes += count;
	.loc 1 2607 25 view .LVU2299
	ldr	r3, [r4, #8]	@ a_29(D)->nbytes, a_29(D)->nbytes
@ src/common/iobuf.c:2608:               a->d.start = a->d.len;
	.loc 1 2608 26 view .LVU2300
	str	r1, [r4, #24]	@ _3, a_29(D)->d.start
@ src/common/iobuf.c:2607:               a->nbytes += count;
	.loc 1 2607 25 view .LVU2301
	sub	r3, r3, r2	@ tmp136, a_29(D)->nbytes, _2
.LBE344:
@ src/common/iobuf.c:2597:           if (a->nofast || a->d.start >= a->d.len)
	.loc 1 2597 32 view .LVU2302
	ldr	r2, [r4, #24]	@ _2, a_29(D)->d.start
.LBB345:
@ src/common/iobuf.c:2607:               a->nbytes += count;
	.loc 1 2607 25 view .LVU2303
	add	r3, r3, r1	@ tmp138, tmp136, _3
.LBE345:
@ src/common/iobuf.c:2597:           if (a->nofast || a->d.start >= a->d.len)
	.loc 1 2597 25 view .LVU2304
	cmp	r2, r1	@ _2, _3
.LBB346:
@ src/common/iobuf.c:2607:               a->nbytes += count;
	.loc 1 2607 25 view .LVU2305
	str	r3, [r4, #8]	@ tmp138, a_29(D)->nbytes
	.loc 1 2608 15 is_stmt 1 view .LVU2306
.LBE346:
	.loc 1 2595 7 view .LVU2307
	.loc 1 2597 11 view .LVU2308
.LBB347:
	.loc 1 2606 15 view .LVU2309
.LVL712:
	.loc 1 2607 15 view .LVU2310
.LBE347:
@ src/common/iobuf.c:2597:           if (a->nofast || a->d.start >= a->d.len)
	.loc 1 2597 25 is_stmt 0 view .LVU2311
	bcc	.L760		@,
.LVL713:
.L759:
	.loc 1 2599 15 is_stmt 1 view .LVU2312
@ src/common/iobuf.c:2599:               if (iobuf_readbyte (a) == -1)
	.loc 1 2599 19 is_stmt 0 view .LVU2313
	mov	r0, r4	@, a
	bl	iobuf_readbyte(PLT)	@
.LVL714:
@ src/common/iobuf.c:2599:               if (iobuf_readbyte (a) == -1)
	.loc 1 2599 18 view .LVU2314
	cmn	r0, #1	@ tmp147,
	popeq	{r4, r5, r6, pc}	@
.L775:
@ src/common/iobuf.c:2597:           if (a->nofast || a->d.start >= a->d.len)
	.loc 1 2597 16 view .LVU2315
	ldr	r3, [r4, #16]	@ pretmp_42, a_29(D)->nofast
	.loc 1 2595 7 is_stmt 1 view .LVU2316
	.loc 1 2597 11 view .LVU2317
@ src/common/iobuf.c:2597:           if (a->nofast || a->d.start >= a->d.len)
	.loc 1 2597 14 is_stmt 0 view .LVU2318
	cmp	r3, #0	@ pretmp_42,
	bne	.L759		@,
	b	.L780		@
	.cfi_endproc
.LFE85:
	.size	iobuf_skip_rest, .-iobuf_skip_rest
	.global	control_mode_str
	.section	.rodata.str1.4,"aMS",%progbits,1
	.align	2
.LC79:
	.ascii	"UNKNOWN\000"
	.align	2
.LC80:
	.ascii	"IOBUFCTRL_INIT\000"
	.align	2
.LC81:
	.ascii	"IOBUFCTRL_FREE\000"
	.align	2
.LC82:
	.ascii	"IOBUFCTRL_UNDERFLOW\000"
	.align	2
.LC83:
	.ascii	"IOBUFCTRL_FLUSH\000"
	.align	2
.LC84:
	.ascii	"IOBUFCTRL_DESC\000"
	.align	2
.LC85:
	.ascii	"IOBUFCTRL_CANCEL\000"
	.align	2
.LC86:
	.ascii	"IOBUFCTRL_PEEK\000"
	.align	2
.LC87:
	.ascii	"IOBUFCTRL_USER\000"
	.global	iobuf_debug_mode
	.section	.bss.iobuf_debug_mode,"aw",%nobits
	.align	2
	.type	iobuf_debug_mode, %object
	.size	iobuf_debug_mode, 4
iobuf_debug_mode:
	.space	4
	.section	.bss.number.0,"aw",%nobits
	.align	2
	.set	.LANCHOR0,. + 0
	.type	number.0, %object
	.size	number.0, 4
number.0:
	.space	4
	.section	.data.rel.local.control_mode_str,"aw"
	.align	2
	.type	control_mode_str, %object
	.size	control_mode_str, 68
control_mode_str:
	.word	.LC79
	.word	.LC80
	.word	.LC81
	.word	.LC82
	.word	.LC83
	.word	.LC84
	.word	.LC85
	.word	.LC86
	.word	.LC79
	.word	.LC79
	.word	.LC79
	.word	.LC79
	.word	.LC79
	.word	.LC79
	.word	.LC79
	.word	.LC79
	.word	.LC87
	.text
.Letext0:
	.file 2 "/usr/include/newlib/machine/_default_types.h"
	.file 3 "/usr/lib/gcc/arm-none-eabi/10.3.1/include/stddef.h"
	.file 4 "/usr/include/newlib/sys/_types.h"
	.file 5 "/usr/include/newlib/sys/_stdint.h"
	.file 6 "/usr/include/newlib/sys/_timeval.h"
	.file 7 "/usr/include/newlib/sys/_timespec.h"
	.file 8 "/usr/include/newlib/sys/types.h"
	.file 9 "/usr/include/newlib/sys/stat.h"
	.file 10 "src/common/../gpg-error.h"
	.file 11 "src/common/types.h"
	.file 12 "src/common/sysutils.h"
	.file 13 "src/common/iobuf.h"
	.file 14 "/usr/include/newlib/string.h"
	.file 15 "src/common/../printf.h"
	.file 16 "src/common/../memory.h"
	.file 17 "/usr/include/newlib/sys/_default_fcntl.h"
	.section	.debug_info,"",%progbits
.Ldebug_info0:
	.4byte	0x4607
	.2byte	0x4
	.4byte	.Ldebug_abbrev0
	.byte	0x4
	.uleb128 0x1
	.4byte	.LASF798
	.byte	0xc
	.4byte	.LASF799
	.4byte	.LASF800
	.4byte	.Ldebug_ranges0+0x578
	.4byte	0
	.4byte	.Ldebug_line0
	.uleb128 0x2
	.byte	0x1
	.byte	0x6
	.4byte	.LASF0
	.uleb128 0x2
	.byte	0x1
	.byte	0x8
	.4byte	.LASF1
	.uleb128 0x3
	.4byte	0x2c
	.uleb128 0x2
	.byte	0x2
	.byte	0x5
	.4byte	.LASF2
	.uleb128 0x2
	.byte	0x2
	.byte	0x7
	.4byte	.LASF3
	.uleb128 0x2
	.byte	0x4
	.byte	0x5
	.4byte	.LASF4
	.uleb128 0x4
	.4byte	.LASF7
	.byte	0x2
	.byte	0x4f
	.byte	0x19
	.4byte	0x59
	.uleb128 0x2
	.byte	0x4
	.byte	0x7
	.4byte	.LASF5
	.uleb128 0x2
	.byte	0x8
	.byte	0x5
	.4byte	.LASF6
	.uleb128 0x4
	.4byte	.LASF8
	.byte	0x2
	.byte	0x69
	.byte	0x19
	.4byte	0x73
	.uleb128 0x2
	.byte	0x8
	.byte	0x7
	.4byte	.LASF9
	.uleb128 0x4
	.4byte	.LASF10
	.byte	0x2
	.byte	0xc8
	.byte	0x1e
	.4byte	0x60
	.uleb128 0x5
	.byte	0x4
	.byte	0x5
	.ascii	"int\000"
	.uleb128 0x2
	.byte	0x4
	.byte	0x7
	.4byte	.LASF11
	.uleb128 0x4
	.4byte	.LASF12
	.byte	0x3
	.byte	0xd1
	.byte	0x17
	.4byte	0x8d
	.uleb128 0x3
	.4byte	0x94
	.uleb128 0x2
	.byte	0x8
	.byte	0x4
	.4byte	.LASF13
	.uleb128 0x6
	.byte	0x4
	.uleb128 0x4
	.4byte	.LASF14
	.byte	0x4
	.byte	0x1e
	.byte	0xe
	.4byte	0x46
	.uleb128 0x4
	.4byte	.LASF15
	.byte	0x4
	.byte	0x22
	.byte	0xe
	.4byte	0x46
	.uleb128 0x4
	.4byte	.LASF16
	.byte	0x4
	.byte	0x2e
	.byte	0xe
	.4byte	0x46
	.uleb128 0x4
	.4byte	.LASF17
	.byte	0x4
	.byte	0x38
	.byte	0xf
	.4byte	0x38
	.uleb128 0x4
	.4byte	.LASF18
	.byte	0x4
	.byte	0x3c
	.byte	0x18
	.4byte	0x3f
	.uleb128 0x4
	.4byte	.LASF19
	.byte	0x4
	.byte	0x3f
	.byte	0x18
	.4byte	0x3f
	.uleb128 0x4
	.4byte	.LASF20
	.byte	0x4
	.byte	0x4b
	.byte	0x18
	.4byte	0x3f
	.uleb128 0x4
	.4byte	.LASF21
	.byte	0x4
	.byte	0x5a
	.byte	0x14
	.4byte	0x4d
	.uleb128 0x4
	.4byte	.LASF22
	.byte	0x4
	.byte	0x66
	.byte	0x10
	.4byte	0xc6
	.uleb128 0x4
	.4byte	.LASF23
	.byte	0x4
	.byte	0xd1
	.byte	0x18
	.4byte	0x3f
	.uleb128 0x7
	.byte	0x4
	.4byte	0x2c
	.uleb128 0x7
	.byte	0x4
	.4byte	0x132
	.uleb128 0x2
	.byte	0x1
	.byte	0x8
	.4byte	.LASF24
	.uleb128 0x3
	.4byte	0x132
	.uleb128 0x7
	.byte	0x4
	.4byte	0x139
	.uleb128 0x4
	.4byte	.LASF25
	.byte	0x5
	.byte	0x3c
	.byte	0x14
	.4byte	0x67
	.uleb128 0x4
	.4byte	.LASF26
	.byte	0x6
	.byte	0x2a
	.byte	0x12
	.4byte	0x7a
	.uleb128 0x8
	.4byte	.LASF39
	.byte	0x10
	.byte	0x7
	.byte	0x2f
	.byte	0x8
	.4byte	0x184
	.uleb128 0x9
	.4byte	.LASF27
	.byte	0x7
	.byte	0x30
	.byte	0x9
	.4byte	0x150
	.byte	0
	.uleb128 0x9
	.4byte	.LASF28
	.byte	0x7
	.byte	0x31
	.byte	0x7
	.4byte	0x46
	.byte	0x8
	.byte	0
	.uleb128 0x4
	.4byte	.LASF29
	.byte	0x8
	.byte	0x5d
	.byte	0x17
	.4byte	0x59
	.uleb128 0x4
	.4byte	.LASF30
	.byte	0x8
	.byte	0x61
	.byte	0x14
	.4byte	0xae
	.uleb128 0x4
	.4byte	.LASF31
	.byte	0x8
	.byte	0x66
	.byte	0x15
	.4byte	0xba
	.uleb128 0x4
	.4byte	.LASF32
	.byte	0x8
	.byte	0x8b
	.byte	0x12
	.4byte	0xf6
	.uleb128 0x4
	.4byte	.LASF33
	.byte	0x8
	.byte	0x9d
	.byte	0x12
	.4byte	0x10e
	.uleb128 0x4
	.4byte	.LASF34
	.byte	0x8
	.byte	0xa1
	.byte	0x12
	.4byte	0xd2
	.uleb128 0x4
	.4byte	.LASF35
	.byte	0x8
	.byte	0xa5
	.byte	0x12
	.4byte	0xde
	.uleb128 0x4
	.4byte	.LASF36
	.byte	0x8
	.byte	0xa9
	.byte	0x12
	.4byte	0xea
	.uleb128 0x4
	.4byte	.LASF37
	.byte	0x8
	.byte	0xbd
	.byte	0x12
	.4byte	0x102
	.uleb128 0x4
	.4byte	.LASF38
	.byte	0x8
	.byte	0xc2
	.byte	0x13
	.4byte	0x11a
	.uleb128 0x7
	.byte	0x4
	.4byte	0x202
	.uleb128 0xa
	.uleb128 0x8
	.4byte	.LASF40
	.byte	0x58
	.byte	0x9
	.byte	0x1b
	.byte	0x8
	.4byte	0x2c7
	.uleb128 0x9
	.4byte	.LASF41
	.byte	0x9
	.byte	0x1d
	.byte	0xa
	.4byte	0x1c0
	.byte	0
	.uleb128 0x9
	.4byte	.LASF42
	.byte	0x9
	.byte	0x1e
	.byte	0xa
	.4byte	0x1a8
	.byte	0x2
	.uleb128 0x9
	.4byte	.LASF43
	.byte	0x9
	.byte	0x1f
	.byte	0xa
	.4byte	0x1e4
	.byte	0x4
	.uleb128 0x9
	.4byte	.LASF44
	.byte	0x9
	.byte	0x20
	.byte	0xb
	.4byte	0x1f0
	.byte	0x8
	.uleb128 0x9
	.4byte	.LASF45
	.byte	0x9
	.byte	0x21
	.byte	0xa
	.4byte	0x1cc
	.byte	0xa
	.uleb128 0x9
	.4byte	.LASF46
	.byte	0x9
	.byte	0x22
	.byte	0xa
	.4byte	0x1d8
	.byte	0xc
	.uleb128 0x9
	.4byte	.LASF47
	.byte	0x9
	.byte	0x23
	.byte	0xa
	.4byte	0x1c0
	.byte	0xe
	.uleb128 0x9
	.4byte	.LASF48
	.byte	0x9
	.byte	0x24
	.byte	0xa
	.4byte	0x1b4
	.byte	0x10
	.uleb128 0x9
	.4byte	.LASF49
	.byte	0x9
	.byte	0x2a
	.byte	0x13
	.4byte	0x15c
	.byte	0x18
	.uleb128 0x9
	.4byte	.LASF50
	.byte	0x9
	.byte	0x2b
	.byte	0x13
	.4byte	0x15c
	.byte	0x28
	.uleb128 0x9
	.4byte	.LASF51
	.byte	0x9
	.byte	0x2c
	.byte	0x13
	.4byte	0x15c
	.byte	0x38
	.uleb128 0x9
	.4byte	.LASF52
	.byte	0x9
	.byte	0x2d
	.byte	0x11
	.4byte	0x19c
	.byte	0x48
	.uleb128 0x9
	.4byte	.LASF53
	.byte	0x9
	.byte	0x2e
	.byte	0xc
	.4byte	0x190
	.byte	0x4c
	.uleb128 0x9
	.4byte	.LASF54
	.byte	0x9
	.byte	0x30
	.byte	0x9
	.4byte	0x2c7
	.byte	0x50
	.byte	0
	.uleb128 0xb
	.4byte	0x46
	.4byte	0x2d7
	.uleb128 0xc
	.4byte	0x8d
	.byte	0x1
	.byte	0
	.uleb128 0xb
	.4byte	0x132
	.4byte	0x2e7
	.uleb128 0xc
	.4byte	0x8d
	.byte	0
	.byte	0
	.uleb128 0xd
	.byte	0x7
	.byte	0x4
	.4byte	0x8d
	.byte	0xa
	.byte	0x90
	.byte	0x3
	.4byte	0x11ec
	.uleb128 0xe
	.4byte	.LASF55
	.byte	0
	.uleb128 0xe
	.4byte	.LASF56
	.byte	0x1
	.uleb128 0xe
	.4byte	.LASF57
	.byte	0x2
	.uleb128 0xe
	.4byte	.LASF58
	.byte	0x3
	.uleb128 0xe
	.4byte	.LASF59
	.byte	0x4
	.uleb128 0xe
	.4byte	.LASF60
	.byte	0x5
	.uleb128 0xe
	.4byte	.LASF61
	.byte	0x6
	.uleb128 0xe
	.4byte	.LASF62
	.byte	0x7
	.uleb128 0xe
	.4byte	.LASF63
	.byte	0x8
	.uleb128 0xe
	.4byte	.LASF64
	.byte	0x9
	.uleb128 0xe
	.4byte	.LASF65
	.byte	0xa
	.uleb128 0xe
	.4byte	.LASF66
	.byte	0xb
	.uleb128 0xe
	.4byte	.LASF67
	.byte	0xc
	.uleb128 0xe
	.4byte	.LASF68
	.byte	0xd
	.uleb128 0xe
	.4byte	.LASF69
	.byte	0xe
	.uleb128 0xe
	.4byte	.LASF70
	.byte	0xf
	.uleb128 0xe
	.4byte	.LASF71
	.byte	0x10
	.uleb128 0xe
	.4byte	.LASF72
	.byte	0x11
	.uleb128 0xe
	.4byte	.LASF73
	.byte	0x12
	.uleb128 0xe
	.4byte	.LASF74
	.byte	0x13
	.uleb128 0xe
	.4byte	.LASF75
	.byte	0x14
	.uleb128 0xe
	.4byte	.LASF76
	.byte	0x15
	.uleb128 0xe
	.4byte	.LASF77
	.byte	0x16
	.uleb128 0xe
	.4byte	.LASF78
	.byte	0x17
	.uleb128 0xe
	.4byte	.LASF79
	.byte	0x18
	.uleb128 0xe
	.4byte	.LASF80
	.byte	0x19
	.uleb128 0xe
	.4byte	.LASF81
	.byte	0x1a
	.uleb128 0xe
	.4byte	.LASF82
	.byte	0x1b
	.uleb128 0xe
	.4byte	.LASF83
	.byte	0x1c
	.uleb128 0xe
	.4byte	.LASF84
	.byte	0x1d
	.uleb128 0xe
	.4byte	.LASF85
	.byte	0x1e
	.uleb128 0xe
	.4byte	.LASF86
	.byte	0x1f
	.uleb128 0xe
	.4byte	.LASF87
	.byte	0x20
	.uleb128 0xe
	.4byte	.LASF88
	.byte	0x21
	.uleb128 0xe
	.4byte	.LASF89
	.byte	0x22
	.uleb128 0xe
	.4byte	.LASF90
	.byte	0x23
	.uleb128 0xe
	.4byte	.LASF91
	.byte	0x24
	.uleb128 0xe
	.4byte	.LASF92
	.byte	0x25
	.uleb128 0xe
	.4byte	.LASF93
	.byte	0x26
	.uleb128 0xe
	.4byte	.LASF94
	.byte	0x27
	.uleb128 0xe
	.4byte	.LASF95
	.byte	0x28
	.uleb128 0xe
	.4byte	.LASF96
	.byte	0x29
	.uleb128 0xe
	.4byte	.LASF97
	.byte	0x2a
	.uleb128 0xe
	.4byte	.LASF98
	.byte	0x2b
	.uleb128 0xe
	.4byte	.LASF99
	.byte	0x2c
	.uleb128 0xe
	.4byte	.LASF100
	.byte	0x2d
	.uleb128 0xe
	.4byte	.LASF101
	.byte	0x2e
	.uleb128 0xe
	.4byte	.LASF102
	.byte	0x2f
	.uleb128 0xe
	.4byte	.LASF103
	.byte	0x30
	.uleb128 0xe
	.4byte	.LASF104
	.byte	0x31
	.uleb128 0xe
	.4byte	.LASF105
	.byte	0x32
	.uleb128 0xe
	.4byte	.LASF106
	.byte	0x33
	.uleb128 0xe
	.4byte	.LASF107
	.byte	0x34
	.uleb128 0xe
	.4byte	.LASF108
	.byte	0x35
	.uleb128 0xe
	.4byte	.LASF109
	.byte	0x36
	.uleb128 0xe
	.4byte	.LASF110
	.byte	0x37
	.uleb128 0xe
	.4byte	.LASF111
	.byte	0x38
	.uleb128 0xe
	.4byte	.LASF112
	.byte	0x39
	.uleb128 0xe
	.4byte	.LASF113
	.byte	0x3a
	.uleb128 0xe
	.4byte	.LASF114
	.byte	0x3b
	.uleb128 0xe
	.4byte	.LASF115
	.byte	0x3c
	.uleb128 0xe
	.4byte	.LASF116
	.byte	0x3d
	.uleb128 0xe
	.4byte	.LASF117
	.byte	0x3e
	.uleb128 0xe
	.4byte	.LASF118
	.byte	0x3f
	.uleb128 0xe
	.4byte	.LASF119
	.byte	0x40
	.uleb128 0xe
	.4byte	.LASF120
	.byte	0x41
	.uleb128 0xe
	.4byte	.LASF121
	.byte	0x42
	.uleb128 0xe
	.4byte	.LASF122
	.byte	0x43
	.uleb128 0xe
	.4byte	.LASF123
	.byte	0x44
	.uleb128 0xe
	.4byte	.LASF124
	.byte	0x45
	.uleb128 0xe
	.4byte	.LASF125
	.byte	0x46
	.uleb128 0xe
	.4byte	.LASF126
	.byte	0x47
	.uleb128 0xe
	.4byte	.LASF127
	.byte	0x48
	.uleb128 0xe
	.4byte	.LASF128
	.byte	0x49
	.uleb128 0xe
	.4byte	.LASF129
	.byte	0x4a
	.uleb128 0xe
	.4byte	.LASF130
	.byte	0x4b
	.uleb128 0xe
	.4byte	.LASF131
	.byte	0x4c
	.uleb128 0xe
	.4byte	.LASF132
	.byte	0x4d
	.uleb128 0xe
	.4byte	.LASF133
	.byte	0x4e
	.uleb128 0xe
	.4byte	.LASF134
	.byte	0x4f
	.uleb128 0xe
	.4byte	.LASF135
	.byte	0x50
	.uleb128 0xe
	.4byte	.LASF136
	.byte	0x51
	.uleb128 0xe
	.4byte	.LASF137
	.byte	0x52
	.uleb128 0xe
	.4byte	.LASF138
	.byte	0x53
	.uleb128 0xe
	.4byte	.LASF139
	.byte	0x54
	.uleb128 0xe
	.4byte	.LASF140
	.byte	0x55
	.uleb128 0xe
	.4byte	.LASF141
	.byte	0x56
	.uleb128 0xe
	.4byte	.LASF142
	.byte	0x57
	.uleb128 0xe
	.4byte	.LASF143
	.byte	0x58
	.uleb128 0xe
	.4byte	.LASF144
	.byte	0x59
	.uleb128 0xe
	.4byte	.LASF145
	.byte	0x5a
	.uleb128 0xe
	.4byte	.LASF146
	.byte	0x5b
	.uleb128 0xe
	.4byte	.LASF147
	.byte	0x5c
	.uleb128 0xe
	.4byte	.LASF148
	.byte	0x5d
	.uleb128 0xe
	.4byte	.LASF149
	.byte	0x5e
	.uleb128 0xe
	.4byte	.LASF150
	.byte	0x5f
	.uleb128 0xe
	.4byte	.LASF151
	.byte	0x60
	.uleb128 0xe
	.4byte	.LASF152
	.byte	0x61
	.uleb128 0xe
	.4byte	.LASF153
	.byte	0x62
	.uleb128 0xe
	.4byte	.LASF154
	.byte	0x63
	.uleb128 0xe
	.4byte	.LASF155
	.byte	0x64
	.uleb128 0xe
	.4byte	.LASF156
	.byte	0x65
	.uleb128 0xe
	.4byte	.LASF157
	.byte	0x66
	.uleb128 0xe
	.4byte	.LASF158
	.byte	0x67
	.uleb128 0xe
	.4byte	.LASF159
	.byte	0x68
	.uleb128 0xe
	.4byte	.LASF160
	.byte	0x69
	.uleb128 0xe
	.4byte	.LASF161
	.byte	0x6a
	.uleb128 0xe
	.4byte	.LASF162
	.byte	0x6b
	.uleb128 0xe
	.4byte	.LASF163
	.byte	0x6c
	.uleb128 0xe
	.4byte	.LASF164
	.byte	0x6d
	.uleb128 0xe
	.4byte	.LASF165
	.byte	0x6e
	.uleb128 0xe
	.4byte	.LASF166
	.byte	0x6f
	.uleb128 0xe
	.4byte	.LASF167
	.byte	0x70
	.uleb128 0xe
	.4byte	.LASF168
	.byte	0x71
	.uleb128 0xe
	.4byte	.LASF169
	.byte	0x72
	.uleb128 0xe
	.4byte	.LASF170
	.byte	0x73
	.uleb128 0xe
	.4byte	.LASF171
	.byte	0x74
	.uleb128 0xe
	.4byte	.LASF172
	.byte	0x75
	.uleb128 0xe
	.4byte	.LASF173
	.byte	0x76
	.uleb128 0xe
	.4byte	.LASF174
	.byte	0x77
	.uleb128 0xe
	.4byte	.LASF175
	.byte	0x78
	.uleb128 0xe
	.4byte	.LASF176
	.byte	0x79
	.uleb128 0xe
	.4byte	.LASF177
	.byte	0x7a
	.uleb128 0xe
	.4byte	.LASF178
	.byte	0x7b
	.uleb128 0xe
	.4byte	.LASF179
	.byte	0x7c
	.uleb128 0xe
	.4byte	.LASF180
	.byte	0x7d
	.uleb128 0xe
	.4byte	.LASF181
	.byte	0x7e
	.uleb128 0xe
	.4byte	.LASF182
	.byte	0x7f
	.uleb128 0xe
	.4byte	.LASF183
	.byte	0x80
	.uleb128 0xe
	.4byte	.LASF184
	.byte	0x81
	.uleb128 0xe
	.4byte	.LASF185
	.byte	0x82
	.uleb128 0xe
	.4byte	.LASF186
	.byte	0x83
	.uleb128 0xe
	.4byte	.LASF187
	.byte	0x84
	.uleb128 0xe
	.4byte	.LASF188
	.byte	0x85
	.uleb128 0xe
	.4byte	.LASF189
	.byte	0x86
	.uleb128 0xe
	.4byte	.LASF190
	.byte	0x87
	.uleb128 0xe
	.4byte	.LASF191
	.byte	0x88
	.uleb128 0xe
	.4byte	.LASF192
	.byte	0x89
	.uleb128 0xe
	.4byte	.LASF193
	.byte	0x8a
	.uleb128 0xe
	.4byte	.LASF194
	.byte	0x8b
	.uleb128 0xe
	.4byte	.LASF195
	.byte	0x8c
	.uleb128 0xe
	.4byte	.LASF196
	.byte	0x8d
	.uleb128 0xe
	.4byte	.LASF197
	.byte	0x8e
	.uleb128 0xe
	.4byte	.LASF198
	.byte	0x8f
	.uleb128 0xe
	.4byte	.LASF199
	.byte	0x90
	.uleb128 0xe
	.4byte	.LASF200
	.byte	0x91
	.uleb128 0xe
	.4byte	.LASF201
	.byte	0x92
	.uleb128 0xe
	.4byte	.LASF202
	.byte	0x93
	.uleb128 0xe
	.4byte	.LASF203
	.byte	0x94
	.uleb128 0xe
	.4byte	.LASF204
	.byte	0x95
	.uleb128 0xe
	.4byte	.LASF205
	.byte	0x96
	.uleb128 0xe
	.4byte	.LASF206
	.byte	0x97
	.uleb128 0xe
	.4byte	.LASF207
	.byte	0x98
	.uleb128 0xe
	.4byte	.LASF208
	.byte	0x99
	.uleb128 0xe
	.4byte	.LASF209
	.byte	0x9a
	.uleb128 0xe
	.4byte	.LASF210
	.byte	0x9b
	.uleb128 0xe
	.4byte	.LASF211
	.byte	0x9c
	.uleb128 0xe
	.4byte	.LASF212
	.byte	0x9d
	.uleb128 0xe
	.4byte	.LASF213
	.byte	0x9e
	.uleb128 0xe
	.4byte	.LASF214
	.byte	0x9f
	.uleb128 0xe
	.4byte	.LASF215
	.byte	0xa0
	.uleb128 0xe
	.4byte	.LASF216
	.byte	0xa1
	.uleb128 0xe
	.4byte	.LASF217
	.byte	0xa2
	.uleb128 0xe
	.4byte	.LASF218
	.byte	0xa3
	.uleb128 0xe
	.4byte	.LASF219
	.byte	0xa4
	.uleb128 0xe
	.4byte	.LASF220
	.byte	0xa5
	.uleb128 0xe
	.4byte	.LASF221
	.byte	0xa6
	.uleb128 0xe
	.4byte	.LASF222
	.byte	0xa7
	.uleb128 0xe
	.4byte	.LASF223
	.byte	0xa8
	.uleb128 0xe
	.4byte	.LASF224
	.byte	0xa9
	.uleb128 0xe
	.4byte	.LASF225
	.byte	0xaa
	.uleb128 0xe
	.4byte	.LASF226
	.byte	0xab
	.uleb128 0xe
	.4byte	.LASF227
	.byte	0xac
	.uleb128 0xe
	.4byte	.LASF228
	.byte	0xad
	.uleb128 0xe
	.4byte	.LASF229
	.byte	0xae
	.uleb128 0xe
	.4byte	.LASF230
	.byte	0xaf
	.uleb128 0xe
	.4byte	.LASF231
	.byte	0xb0
	.uleb128 0xe
	.4byte	.LASF232
	.byte	0xb1
	.uleb128 0xe
	.4byte	.LASF233
	.byte	0xb2
	.uleb128 0xe
	.4byte	.LASF234
	.byte	0xb3
	.uleb128 0xe
	.4byte	.LASF235
	.byte	0xb4
	.uleb128 0xe
	.4byte	.LASF236
	.byte	0xb5
	.uleb128 0xe
	.4byte	.LASF237
	.byte	0xb6
	.uleb128 0xe
	.4byte	.LASF238
	.byte	0xb7
	.uleb128 0xe
	.4byte	.LASF239
	.byte	0xb8
	.uleb128 0xe
	.4byte	.LASF240
	.byte	0xb9
	.uleb128 0xe
	.4byte	.LASF241
	.byte	0xba
	.uleb128 0xe
	.4byte	.LASF242
	.byte	0xbb
	.uleb128 0xe
	.4byte	.LASF243
	.byte	0xbc
	.uleb128 0xe
	.4byte	.LASF244
	.byte	0xbd
	.uleb128 0xe
	.4byte	.LASF245
	.byte	0xbe
	.uleb128 0xe
	.4byte	.LASF246
	.byte	0xbf
	.uleb128 0xe
	.4byte	.LASF247
	.byte	0xc0
	.uleb128 0xe
	.4byte	.LASF248
	.byte	0xc1
	.uleb128 0xe
	.4byte	.LASF249
	.byte	0xc2
	.uleb128 0xe
	.4byte	.LASF250
	.byte	0xc3
	.uleb128 0xe
	.4byte	.LASF251
	.byte	0xc4
	.uleb128 0xe
	.4byte	.LASF252
	.byte	0xc5
	.uleb128 0xe
	.4byte	.LASF253
	.byte	0xc6
	.uleb128 0xe
	.4byte	.LASF254
	.byte	0xc7
	.uleb128 0xe
	.4byte	.LASF255
	.byte	0xc8
	.uleb128 0xe
	.4byte	.LASF256
	.byte	0xc9
	.uleb128 0xe
	.4byte	.LASF257
	.byte	0xca
	.uleb128 0xe
	.4byte	.LASF258
	.byte	0xcb
	.uleb128 0xe
	.4byte	.LASF259
	.byte	0xcc
	.uleb128 0xe
	.4byte	.LASF260
	.byte	0xcd
	.uleb128 0xe
	.4byte	.LASF261
	.byte	0xce
	.uleb128 0xe
	.4byte	.LASF262
	.byte	0xcf
	.uleb128 0xe
	.4byte	.LASF263
	.byte	0xd0
	.uleb128 0xe
	.4byte	.LASF264
	.byte	0xd1
	.uleb128 0xe
	.4byte	.LASF265
	.byte	0xd2
	.uleb128 0xe
	.4byte	.LASF266
	.byte	0xd3
	.uleb128 0xe
	.4byte	.LASF267
	.byte	0xd4
	.uleb128 0xe
	.4byte	.LASF268
	.byte	0xd5
	.uleb128 0xe
	.4byte	.LASF269
	.byte	0xd9
	.uleb128 0xe
	.4byte	.LASF270
	.byte	0xda
	.uleb128 0xe
	.4byte	.LASF271
	.byte	0xdb
	.uleb128 0xe
	.4byte	.LASF272
	.byte	0xdc
	.uleb128 0xe
	.4byte	.LASF273
	.byte	0xdd
	.uleb128 0xe
	.4byte	.LASF274
	.byte	0xde
	.uleb128 0xe
	.4byte	.LASF275
	.byte	0xdf
	.uleb128 0xe
	.4byte	.LASF276
	.byte	0xe0
	.uleb128 0xe
	.4byte	.LASF277
	.byte	0xe1
	.uleb128 0xe
	.4byte	.LASF278
	.byte	0xe2
	.uleb128 0xe
	.4byte	.LASF279
	.byte	0xe3
	.uleb128 0xe
	.4byte	.LASF280
	.byte	0xe4
	.uleb128 0xe
	.4byte	.LASF281
	.byte	0xe5
	.uleb128 0xe
	.4byte	.LASF282
	.byte	0xe6
	.uleb128 0xe
	.4byte	.LASF283
	.byte	0xe7
	.uleb128 0xe
	.4byte	.LASF284
	.byte	0xe8
	.uleb128 0xe
	.4byte	.LASF285
	.byte	0xe9
	.uleb128 0xe
	.4byte	.LASF286
	.byte	0xea
	.uleb128 0xe
	.4byte	.LASF287
	.byte	0xeb
	.uleb128 0xe
	.4byte	.LASF288
	.byte	0xec
	.uleb128 0xe
	.4byte	.LASF289
	.byte	0xed
	.uleb128 0xe
	.4byte	.LASF290
	.byte	0xee
	.uleb128 0xe
	.4byte	.LASF291
	.byte	0xef
	.uleb128 0xe
	.4byte	.LASF292
	.byte	0xf0
	.uleb128 0xe
	.4byte	.LASF293
	.byte	0xf1
	.uleb128 0xe
	.4byte	.LASF294
	.byte	0xf2
	.uleb128 0xe
	.4byte	.LASF295
	.byte	0xf3
	.uleb128 0xe
	.4byte	.LASF296
	.byte	0xf4
	.uleb128 0xe
	.4byte	.LASF297
	.byte	0xf5
	.uleb128 0xe
	.4byte	.LASF298
	.byte	0xf6
	.uleb128 0xe
	.4byte	.LASF299
	.byte	0xf7
	.uleb128 0xe
	.4byte	.LASF300
	.byte	0xf8
	.uleb128 0xe
	.4byte	.LASF301
	.byte	0xf9
	.uleb128 0xe
	.4byte	.LASF302
	.byte	0xfa
	.uleb128 0xe
	.4byte	.LASF303
	.byte	0xfb
	.uleb128 0xe
	.4byte	.LASF304
	.byte	0xfc
	.uleb128 0xe
	.4byte	.LASF305
	.byte	0xfd
	.uleb128 0xe
	.4byte	.LASF306
	.byte	0xfe
	.uleb128 0xe
	.4byte	.LASF307
	.byte	0xff
	.uleb128 0xf
	.4byte	.LASF308
	.2byte	0x100
	.uleb128 0xf
	.4byte	.LASF309
	.2byte	0x101
	.uleb128 0xf
	.4byte	.LASF310
	.2byte	0x102
	.uleb128 0xf
	.4byte	.LASF311
	.2byte	0x103
	.uleb128 0xf
	.4byte	.LASF312
	.2byte	0x104
	.uleb128 0xf
	.4byte	.LASF313
	.2byte	0x105
	.uleb128 0xf
	.4byte	.LASF314
	.2byte	0x106
	.uleb128 0xf
	.4byte	.LASF315
	.2byte	0x107
	.uleb128 0xf
	.4byte	.LASF316
	.2byte	0x108
	.uleb128 0xf
	.4byte	.LASF317
	.2byte	0x109
	.uleb128 0xf
	.4byte	.LASF318
	.2byte	0x10a
	.uleb128 0xf
	.4byte	.LASF319
	.2byte	0x10b
	.uleb128 0xf
	.4byte	.LASF320
	.2byte	0x10c
	.uleb128 0xf
	.4byte	.LASF321
	.2byte	0x10d
	.uleb128 0xf
	.4byte	.LASF322
	.2byte	0x10e
	.uleb128 0xf
	.4byte	.LASF323
	.2byte	0x10f
	.uleb128 0xf
	.4byte	.LASF324
	.2byte	0x111
	.uleb128 0xf
	.4byte	.LASF325
	.2byte	0x112
	.uleb128 0xf
	.4byte	.LASF326
	.2byte	0x113
	.uleb128 0xf
	.4byte	.LASF327
	.2byte	0x114
	.uleb128 0xf
	.4byte	.LASF328
	.2byte	0x115
	.uleb128 0xf
	.4byte	.LASF329
	.2byte	0x116
	.uleb128 0xf
	.4byte	.LASF330
	.2byte	0x117
	.uleb128 0xf
	.4byte	.LASF331
	.2byte	0x118
	.uleb128 0xf
	.4byte	.LASF332
	.2byte	0x119
	.uleb128 0xf
	.4byte	.LASF333
	.2byte	0x12c
	.uleb128 0xf
	.4byte	.LASF334
	.2byte	0x12d
	.uleb128 0xf
	.4byte	.LASF335
	.2byte	0x12e
	.uleb128 0xf
	.4byte	.LASF336
	.2byte	0x12f
	.uleb128 0xf
	.4byte	.LASF337
	.2byte	0x130
	.uleb128 0xf
	.4byte	.LASF338
	.2byte	0x131
	.uleb128 0xf
	.4byte	.LASF339
	.2byte	0x132
	.uleb128 0xf
	.4byte	.LASF340
	.2byte	0x133
	.uleb128 0xf
	.4byte	.LASF341
	.2byte	0x134
	.uleb128 0xf
	.4byte	.LASF342
	.2byte	0x135
	.uleb128 0xf
	.4byte	.LASF343
	.2byte	0x136
	.uleb128 0xf
	.4byte	.LASF344
	.2byte	0x137
	.uleb128 0xf
	.4byte	.LASF345
	.2byte	0x138
	.uleb128 0xf
	.4byte	.LASF346
	.2byte	0x139
	.uleb128 0xf
	.4byte	.LASF347
	.2byte	0x13a
	.uleb128 0xf
	.4byte	.LASF348
	.2byte	0x13b
	.uleb128 0xf
	.4byte	.LASF349
	.2byte	0x13c
	.uleb128 0xf
	.4byte	.LASF350
	.2byte	0x13d
	.uleb128 0xf
	.4byte	.LASF351
	.2byte	0x13e
	.uleb128 0xf
	.4byte	.LASF352
	.2byte	0x13f
	.uleb128 0xf
	.4byte	.LASF353
	.2byte	0x140
	.uleb128 0xf
	.4byte	.LASF354
	.2byte	0x141
	.uleb128 0xf
	.4byte	.LASF355
	.2byte	0x142
	.uleb128 0xf
	.4byte	.LASF356
	.2byte	0x29a
	.uleb128 0xf
	.4byte	.LASF357
	.2byte	0x2c7
	.uleb128 0xf
	.4byte	.LASF358
	.2byte	0x2c8
	.uleb128 0xf
	.4byte	.LASF359
	.2byte	0x2c9
	.uleb128 0xf
	.4byte	.LASF360
	.2byte	0x2ca
	.uleb128 0xf
	.4byte	.LASF361
	.2byte	0x2cb
	.uleb128 0xf
	.4byte	.LASF362
	.2byte	0x2cc
	.uleb128 0xf
	.4byte	.LASF363
	.2byte	0x2cd
	.uleb128 0xf
	.4byte	.LASF364
	.2byte	0x2ce
	.uleb128 0xf
	.4byte	.LASF365
	.2byte	0x2d1
	.uleb128 0xf
	.4byte	.LASF366
	.2byte	0x2d2
	.uleb128 0xf
	.4byte	.LASF367
	.2byte	0x2d3
	.uleb128 0xf
	.4byte	.LASF368
	.2byte	0x2d4
	.uleb128 0xf
	.4byte	.LASF369
	.2byte	0x2d5
	.uleb128 0xf
	.4byte	.LASF370
	.2byte	0x2d6
	.uleb128 0xf
	.4byte	.LASF371
	.2byte	0x2d7
	.uleb128 0xf
	.4byte	.LASF372
	.2byte	0x2d8
	.uleb128 0xf
	.4byte	.LASF373
	.2byte	0x2d9
	.uleb128 0xf
	.4byte	.LASF374
	.2byte	0x2ee
	.uleb128 0xf
	.4byte	.LASF375
	.2byte	0x2ef
	.uleb128 0xf
	.4byte	.LASF376
	.2byte	0x2f0
	.uleb128 0xf
	.4byte	.LASF377
	.2byte	0x2f2
	.uleb128 0xf
	.4byte	.LASF378
	.2byte	0x2f3
	.uleb128 0xf
	.4byte	.LASF379
	.2byte	0x2f4
	.uleb128 0xf
	.4byte	.LASF380
	.2byte	0x2f5
	.uleb128 0xf
	.4byte	.LASF381
	.2byte	0x2f6
	.uleb128 0xf
	.4byte	.LASF382
	.2byte	0x2f7
	.uleb128 0xf
	.4byte	.LASF383
	.2byte	0x2f8
	.uleb128 0xf
	.4byte	.LASF384
	.2byte	0x2f9
	.uleb128 0xf
	.4byte	.LASF385
	.2byte	0x2fa
	.uleb128 0xf
	.4byte	.LASF386
	.2byte	0x2fb
	.uleb128 0xf
	.4byte	.LASF387
	.2byte	0x2fc
	.uleb128 0xf
	.4byte	.LASF388
	.2byte	0x2fd
	.uleb128 0xf
	.4byte	.LASF389
	.2byte	0x2fe
	.uleb128 0xf
	.4byte	.LASF390
	.2byte	0x2ff
	.uleb128 0xf
	.4byte	.LASF391
	.2byte	0x300
	.uleb128 0xf
	.4byte	.LASF392
	.2byte	0x301
	.uleb128 0xf
	.4byte	.LASF393
	.2byte	0x302
	.uleb128 0xf
	.4byte	.LASF394
	.2byte	0x303
	.uleb128 0xf
	.4byte	.LASF395
	.2byte	0x304
	.uleb128 0xf
	.4byte	.LASF396
	.2byte	0x305
	.uleb128 0xf
	.4byte	.LASF397
	.2byte	0x306
	.uleb128 0xf
	.4byte	.LASF398
	.2byte	0x307
	.uleb128 0xf
	.4byte	.LASF399
	.2byte	0x308
	.uleb128 0xf
	.4byte	.LASF400
	.2byte	0x309
	.uleb128 0xf
	.4byte	.LASF401
	.2byte	0x30a
	.uleb128 0xf
	.4byte	.LASF402
	.2byte	0x30b
	.uleb128 0xf
	.4byte	.LASF403
	.2byte	0x30c
	.uleb128 0xf
	.4byte	.LASF404
	.2byte	0x30d
	.uleb128 0xf
	.4byte	.LASF405
	.2byte	0x30e
	.uleb128 0xf
	.4byte	.LASF406
	.2byte	0x310
	.uleb128 0xf
	.4byte	.LASF407
	.2byte	0x311
	.uleb128 0xf
	.4byte	.LASF408
	.2byte	0x312
	.uleb128 0xf
	.4byte	.LASF409
	.2byte	0x313
	.uleb128 0xf
	.4byte	.LASF410
	.2byte	0x314
	.uleb128 0xf
	.4byte	.LASF411
	.2byte	0x315
	.uleb128 0xf
	.4byte	.LASF412
	.2byte	0x320
	.uleb128 0xf
	.4byte	.LASF413
	.2byte	0x321
	.uleb128 0xf
	.4byte	.LASF414
	.2byte	0x322
	.uleb128 0xf
	.4byte	.LASF415
	.2byte	0x323
	.uleb128 0xf
	.4byte	.LASF416
	.2byte	0x324
	.uleb128 0xf
	.4byte	.LASF417
	.2byte	0x32f
	.uleb128 0xf
	.4byte	.LASF418
	.2byte	0x330
	.uleb128 0xf
	.4byte	.LASF419
	.2byte	0x331
	.uleb128 0xf
	.4byte	.LASF420
	.2byte	0x332
	.uleb128 0xf
	.4byte	.LASF421
	.2byte	0x333
	.uleb128 0xf
	.4byte	.LASF422
	.2byte	0x334
	.uleb128 0xf
	.4byte	.LASF423
	.2byte	0x335
	.uleb128 0xf
	.4byte	.LASF424
	.2byte	0x336
	.uleb128 0xf
	.4byte	.LASF425
	.2byte	0x340
	.uleb128 0xf
	.4byte	.LASF426
	.2byte	0x341
	.uleb128 0xf
	.4byte	.LASF427
	.2byte	0x342
	.uleb128 0xf
	.4byte	.LASF428
	.2byte	0x343
	.uleb128 0xf
	.4byte	.LASF429
	.2byte	0x344
	.uleb128 0xf
	.4byte	.LASF430
	.2byte	0x345
	.uleb128 0xf
	.4byte	.LASF431
	.2byte	0x346
	.uleb128 0xf
	.4byte	.LASF432
	.2byte	0x347
	.uleb128 0xf
	.4byte	.LASF433
	.2byte	0x34c
	.uleb128 0xf
	.4byte	.LASF434
	.2byte	0x350
	.uleb128 0xf
	.4byte	.LASF435
	.2byte	0x371
	.uleb128 0xf
	.4byte	.LASF436
	.2byte	0x372
	.uleb128 0xf
	.4byte	.LASF437
	.2byte	0x373
	.uleb128 0xf
	.4byte	.LASF438
	.2byte	0x374
	.uleb128 0xf
	.4byte	.LASF439
	.2byte	0x375
	.uleb128 0xf
	.4byte	.LASF440
	.2byte	0x376
	.uleb128 0xf
	.4byte	.LASF441
	.2byte	0x377
	.uleb128 0xf
	.4byte	.LASF442
	.2byte	0x378
	.uleb128 0xf
	.4byte	.LASF443
	.2byte	0x379
	.uleb128 0xf
	.4byte	.LASF444
	.2byte	0x37a
	.uleb128 0xf
	.4byte	.LASF445
	.2byte	0x37b
	.uleb128 0xf
	.4byte	.LASF446
	.2byte	0x400
	.uleb128 0xf
	.4byte	.LASF447
	.2byte	0x401
	.uleb128 0xf
	.4byte	.LASF448
	.2byte	0x402
	.uleb128 0xf
	.4byte	.LASF449
	.2byte	0x403
	.uleb128 0xf
	.4byte	.LASF450
	.2byte	0x404
	.uleb128 0xf
	.4byte	.LASF451
	.2byte	0x405
	.uleb128 0xf
	.4byte	.LASF452
	.2byte	0x406
	.uleb128 0xf
	.4byte	.LASF453
	.2byte	0x407
	.uleb128 0xf
	.4byte	.LASF454
	.2byte	0x408
	.uleb128 0xf
	.4byte	.LASF455
	.2byte	0x409
	.uleb128 0xf
	.4byte	.LASF456
	.2byte	0x40a
	.uleb128 0xf
	.4byte	.LASF457
	.2byte	0x40b
	.uleb128 0xf
	.4byte	.LASF458
	.2byte	0x40c
	.uleb128 0xf
	.4byte	.LASF459
	.2byte	0x40d
	.uleb128 0xf
	.4byte	.LASF460
	.2byte	0x40e
	.uleb128 0xf
	.4byte	.LASF461
	.2byte	0x40f
	.uleb128 0xf
	.4byte	.LASF462
	.2byte	0x5dc
	.uleb128 0xf
	.4byte	.LASF463
	.2byte	0x5dd
	.uleb128 0xf
	.4byte	.LASF464
	.2byte	0x5de
	.uleb128 0xf
	.4byte	.LASF465
	.2byte	0x5df
	.uleb128 0xf
	.4byte	.LASF466
	.2byte	0x5e0
	.uleb128 0xf
	.4byte	.LASF467
	.2byte	0x5e1
	.uleb128 0xf
	.4byte	.LASF468
	.2byte	0x5e2
	.uleb128 0xf
	.4byte	.LASF469
	.2byte	0x5e3
	.uleb128 0xf
	.4byte	.LASF470
	.2byte	0x5e4
	.uleb128 0xf
	.4byte	.LASF471
	.2byte	0x5e5
	.uleb128 0xf
	.4byte	.LASF472
	.2byte	0x5e6
	.uleb128 0xf
	.4byte	.LASF473
	.2byte	0x5e7
	.uleb128 0xf
	.4byte	.LASF474
	.2byte	0x5e8
	.uleb128 0xf
	.4byte	.LASF475
	.2byte	0x5e9
	.uleb128 0xf
	.4byte	.LASF476
	.2byte	0x5ea
	.uleb128 0xf
	.4byte	.LASF477
	.2byte	0x5eb
	.uleb128 0xf
	.4byte	.LASF478
	.2byte	0x5ec
	.uleb128 0xf
	.4byte	.LASF479
	.2byte	0x5ed
	.uleb128 0xf
	.4byte	.LASF480
	.2byte	0x5ee
	.uleb128 0xf
	.4byte	.LASF481
	.2byte	0x5ef
	.uleb128 0xf
	.4byte	.LASF482
	.2byte	0x5f0
	.uleb128 0xf
	.4byte	.LASF483
	.2byte	0x5f1
	.uleb128 0xf
	.4byte	.LASF484
	.2byte	0x5f2
	.uleb128 0xf
	.4byte	.LASF485
	.2byte	0x5f3
	.uleb128 0xf
	.4byte	.LASF486
	.2byte	0x5f4
	.uleb128 0xf
	.4byte	.LASF487
	.2byte	0x5f5
	.uleb128 0xf
	.4byte	.LASF488
	.2byte	0x5f6
	.uleb128 0xf
	.4byte	.LASF489
	.2byte	0x5f7
	.uleb128 0xf
	.4byte	.LASF490
	.2byte	0x5f8
	.uleb128 0xf
	.4byte	.LASF491
	.2byte	0x640
	.uleb128 0xf
	.4byte	.LASF492
	.2byte	0x641
	.uleb128 0xf
	.4byte	.LASF493
	.2byte	0x3ffd
	.uleb128 0xf
	.4byte	.LASF494
	.2byte	0x3ffe
	.uleb128 0xf
	.4byte	.LASF495
	.2byte	0x3fff
	.uleb128 0xf
	.4byte	.LASF496
	.2byte	0x8000
	.uleb128 0xf
	.4byte	.LASF497
	.2byte	0x8001
	.uleb128 0xf
	.4byte	.LASF498
	.2byte	0x8002
	.uleb128 0xf
	.4byte	.LASF499
	.2byte	0x8003
	.uleb128 0xf
	.4byte	.LASF500
	.2byte	0x8004
	.uleb128 0xf
	.4byte	.LASF501
	.2byte	0x8005
	.uleb128 0xf
	.4byte	.LASF502
	.2byte	0x8006
	.uleb128 0xf
	.4byte	.LASF503
	.2byte	0x8007
	.uleb128 0xf
	.4byte	.LASF504
	.2byte	0x8008
	.uleb128 0xf
	.4byte	.LASF505
	.2byte	0x8009
	.uleb128 0xf
	.4byte	.LASF506
	.2byte	0x800a
	.uleb128 0xf
	.4byte	.LASF507
	.2byte	0x800b
	.uleb128 0xf
	.4byte	.LASF508
	.2byte	0x800c
	.uleb128 0xf
	.4byte	.LASF509
	.2byte	0x800d
	.uleb128 0xf
	.4byte	.LASF510
	.2byte	0x800e
	.uleb128 0xf
	.4byte	.LASF511
	.2byte	0x800f
	.uleb128 0xf
	.4byte	.LASF512
	.2byte	0x8010
	.uleb128 0xf
	.4byte	.LASF513
	.2byte	0x8011
	.uleb128 0xf
	.4byte	.LASF514
	.2byte	0x8012
	.uleb128 0xf
	.4byte	.LASF515
	.2byte	0x8013
	.uleb128 0xf
	.4byte	.LASF516
	.2byte	0x8014
	.uleb128 0xf
	.4byte	.LASF517
	.2byte	0x8015
	.uleb128 0xf
	.4byte	.LASF518
	.2byte	0x8016
	.uleb128 0xf
	.4byte	.LASF519
	.2byte	0x8017
	.uleb128 0xf
	.4byte	.LASF520
	.2byte	0x8018
	.uleb128 0xf
	.4byte	.LASF521
	.2byte	0x8019
	.uleb128 0xf
	.4byte	.LASF522
	.2byte	0x801a
	.uleb128 0xf
	.4byte	.LASF523
	.2byte	0x801b
	.uleb128 0xf
	.4byte	.LASF524
	.2byte	0x801c
	.uleb128 0xf
	.4byte	.LASF525
	.2byte	0x801d
	.uleb128 0xf
	.4byte	.LASF526
	.2byte	0x801e
	.uleb128 0xf
	.4byte	.LASF527
	.2byte	0x801f
	.uleb128 0xf
	.4byte	.LASF528
	.2byte	0x8020
	.uleb128 0xf
	.4byte	.LASF529
	.2byte	0x8021
	.uleb128 0xf
	.4byte	.LASF530
	.2byte	0x8022
	.uleb128 0xf
	.4byte	.LASF531
	.2byte	0x8023
	.uleb128 0xf
	.4byte	.LASF532
	.2byte	0x8024
	.uleb128 0xf
	.4byte	.LASF533
	.2byte	0x8025
	.uleb128 0xf
	.4byte	.LASF534
	.2byte	0x8026
	.uleb128 0xf
	.4byte	.LASF535
	.2byte	0x8027
	.uleb128 0xf
	.4byte	.LASF536
	.2byte	0x8028
	.uleb128 0xf
	.4byte	.LASF537
	.2byte	0x8029
	.uleb128 0xf
	.4byte	.LASF538
	.2byte	0x802a
	.uleb128 0xf
	.4byte	.LASF539
	.2byte	0x802b
	.uleb128 0xf
	.4byte	.LASF540
	.2byte	0x802c
	.uleb128 0xf
	.4byte	.LASF541
	.2byte	0x802d
	.uleb128 0xf
	.4byte	.LASF542
	.2byte	0x802e
	.uleb128 0xf
	.4byte	.LASF543
	.2byte	0x802f
	.uleb128 0xf
	.4byte	.LASF544
	.2byte	0x8030
	.uleb128 0xf
	.4byte	.LASF545
	.2byte	0x8031
	.uleb128 0xf
	.4byte	.LASF546
	.2byte	0x8032
	.uleb128 0xf
	.4byte	.LASF547
	.2byte	0x8033
	.uleb128 0xf
	.4byte	.LASF548
	.2byte	0x8034
	.uleb128 0xf
	.4byte	.LASF549
	.2byte	0x8035
	.uleb128 0xf
	.4byte	.LASF550
	.2byte	0x8036
	.uleb128 0xf
	.4byte	.LASF551
	.2byte	0x8037
	.uleb128 0xf
	.4byte	.LASF552
	.2byte	0x8038
	.uleb128 0xf
	.4byte	.LASF553
	.2byte	0x8039
	.uleb128 0xf
	.4byte	.LASF554
	.2byte	0x803a
	.uleb128 0xf
	.4byte	.LASF555
	.2byte	0x803b
	.uleb128 0xf
	.4byte	.LASF556
	.2byte	0x803c
	.uleb128 0xf
	.4byte	.LASF557
	.2byte	0x803d
	.uleb128 0xf
	.4byte	.LASF558
	.2byte	0x803e
	.uleb128 0xf
	.4byte	.LASF559
	.2byte	0x803f
	.uleb128 0xf
	.4byte	.LASF560
	.2byte	0x8040
	.uleb128 0xf
	.4byte	.LASF561
	.2byte	0x8041
	.uleb128 0xf
	.4byte	.LASF562
	.2byte	0x8042
	.uleb128 0xf
	.4byte	.LASF563
	.2byte	0x8043
	.uleb128 0xf
	.4byte	.LASF564
	.2byte	0x8044
	.uleb128 0xf
	.4byte	.LASF565
	.2byte	0x8045
	.uleb128 0xf
	.4byte	.LASF566
	.2byte	0x8046
	.uleb128 0xf
	.4byte	.LASF567
	.2byte	0x8047
	.uleb128 0xf
	.4byte	.LASF568
	.2byte	0x8048
	.uleb128 0xf
	.4byte	.LASF569
	.2byte	0x8049
	.uleb128 0xf
	.4byte	.LASF570
	.2byte	0x804a
	.uleb128 0xf
	.4byte	.LASF571
	.2byte	0x804b
	.uleb128 0xf
	.4byte	.LASF572
	.2byte	0x804c
	.uleb128 0xf
	.4byte	.LASF573
	.2byte	0x804d
	.uleb128 0xf
	.4byte	.LASF574
	.2byte	0x804e
	.uleb128 0xf
	.4byte	.LASF575
	.2byte	0x804f
	.uleb128 0xf
	.4byte	.LASF576
	.2byte	0x8050
	.uleb128 0xf
	.4byte	.LASF577
	.2byte	0x8051
	.uleb128 0xf
	.4byte	.LASF578
	.2byte	0x8052
	.uleb128 0xf
	.4byte	.LASF579
	.2byte	0x8053
	.uleb128 0xf
	.4byte	.LASF580
	.2byte	0x8054
	.uleb128 0xf
	.4byte	.LASF581
	.2byte	0x8055
	.uleb128 0xf
	.4byte	.LASF582
	.2byte	0x8056
	.uleb128 0xf
	.4byte	.LASF583
	.2byte	0x8057
	.uleb128 0xf
	.4byte	.LASF584
	.2byte	0x8058
	.uleb128 0xf
	.4byte	.LASF585
	.2byte	0x8059
	.uleb128 0xf
	.4byte	.LASF586
	.2byte	0x805a
	.uleb128 0xf
	.4byte	.LASF587
	.2byte	0x805b
	.uleb128 0xf
	.4byte	.LASF588
	.2byte	0x805c
	.uleb128 0xf
	.4byte	.LASF589
	.2byte	0x805d
	.uleb128 0xf
	.4byte	.LASF590
	.2byte	0x805e
	.uleb128 0xf
	.4byte	.LASF591
	.2byte	0x805f
	.uleb128 0xf
	.4byte	.LASF592
	.2byte	0x8060
	.uleb128 0xf
	.4byte	.LASF593
	.2byte	0x8061
	.uleb128 0xf
	.4byte	.LASF594
	.2byte	0x8062
	.uleb128 0xf
	.4byte	.LASF595
	.2byte	0x8063
	.uleb128 0xf
	.4byte	.LASF596
	.2byte	0x8064
	.uleb128 0xf
	.4byte	.LASF597
	.2byte	0x8065
	.uleb128 0xf
	.4byte	.LASF598
	.2byte	0x8066
	.uleb128 0xf
	.4byte	.LASF599
	.2byte	0x8067
	.uleb128 0xf
	.4byte	.LASF600
	.2byte	0x8068
	.uleb128 0xf
	.4byte	.LASF601
	.2byte	0x8069
	.uleb128 0xf
	.4byte	.LASF602
	.2byte	0x806a
	.uleb128 0xf
	.4byte	.LASF603
	.2byte	0x806b
	.uleb128 0xf
	.4byte	.LASF604
	.2byte	0x806c
	.uleb128 0xf
	.4byte	.LASF605
	.2byte	0x806d
	.uleb128 0xf
	.4byte	.LASF606
	.2byte	0x806e
	.uleb128 0xf
	.4byte	.LASF607
	.2byte	0x806f
	.uleb128 0xf
	.4byte	.LASF608
	.2byte	0x8070
	.uleb128 0xf
	.4byte	.LASF609
	.2byte	0x8071
	.uleb128 0xf
	.4byte	.LASF610
	.2byte	0x8072
	.uleb128 0xf
	.4byte	.LASF611
	.2byte	0x8073
	.uleb128 0xf
	.4byte	.LASF612
	.2byte	0x8074
	.uleb128 0xf
	.4byte	.LASF613
	.2byte	0x8075
	.uleb128 0xf
	.4byte	.LASF614
	.2byte	0x8076
	.uleb128 0xf
	.4byte	.LASF615
	.2byte	0x8077
	.uleb128 0xf
	.4byte	.LASF616
	.2byte	0x8078
	.uleb128 0xf
	.4byte	.LASF617
	.2byte	0x8079
	.uleb128 0xf
	.4byte	.LASF618
	.2byte	0x807a
	.uleb128 0xf
	.4byte	.LASF619
	.2byte	0x807b
	.uleb128 0xf
	.4byte	.LASF620
	.2byte	0x807c
	.uleb128 0xf
	.4byte	.LASF621
	.2byte	0x807d
	.uleb128 0xf
	.4byte	.LASF622
	.2byte	0x807e
	.uleb128 0xf
	.4byte	.LASF623
	.2byte	0x807f
	.uleb128 0xf
	.4byte	.LASF624
	.2byte	0x8080
	.uleb128 0xf
	.4byte	.LASF625
	.2byte	0x8081
	.uleb128 0xf
	.4byte	.LASF626
	.2byte	0x8082
	.uleb128 0xf
	.4byte	.LASF627
	.2byte	0x8083
	.uleb128 0xf
	.4byte	.LASF628
	.2byte	0x8084
	.uleb128 0xf
	.4byte	.LASF629
	.2byte	0x8085
	.uleb128 0xf
	.4byte	.LASF630
	.2byte	0x8086
	.uleb128 0xf
	.4byte	.LASF631
	.2byte	0x8087
	.uleb128 0xf
	.4byte	.LASF632
	.2byte	0x8088
	.uleb128 0xf
	.4byte	.LASF633
	.2byte	0x8089
	.uleb128 0xf
	.4byte	.LASF634
	.2byte	0x808a
	.uleb128 0xf
	.4byte	.LASF635
	.2byte	0x808b
	.uleb128 0xf
	.4byte	.LASF636
	.2byte	0x808c
	.uleb128 0x10
	.4byte	.LASF637
	.4byte	0x10000
	.byte	0
	.uleb128 0x11
	.4byte	.LASF638
	.byte	0xa
	.2byte	0x2e6
	.byte	0x16
	.4byte	0x8d
	.uleb128 0x4
	.4byte	.LASF639
	.byte	0xb
	.byte	0x4a
	.byte	0x1c
	.4byte	0x2c
	.uleb128 0x12
	.ascii	"u32\000"
	.byte	0xb
	.byte	0x6a
	.byte	0x1b
	.4byte	0x8d
	.uleb128 0x4
	.4byte	.LASF640
	.byte	0xc
	.byte	0x2b
	.byte	0xd
	.4byte	0x86
	.uleb128 0x13
	.byte	0x38
	.byte	0xd
	.byte	0x66
	.byte	0x9
	.4byte	0x129b
	.uleb128 0x14
	.ascii	"fp\000"
	.byte	0xd
	.byte	0x68
	.byte	0xe
	.4byte	0x1211
	.byte	0
	.uleb128 0x9
	.4byte	.LASF641
	.byte	0xd
	.byte	0x69
	.byte	0x7
	.4byte	0x86
	.byte	0x4
	.uleb128 0x9
	.4byte	.LASF642
	.byte	0xd
	.byte	0x6a
	.byte	0x7
	.4byte	0x86
	.byte	0x8
	.uleb128 0x9
	.4byte	.LASF643
	.byte	0xd
	.byte	0x6b
	.byte	0x7
	.4byte	0x86
	.byte	0xc
	.uleb128 0x9
	.4byte	.LASF644
	.byte	0xd
	.byte	0x6c
	.byte	0x7
	.4byte	0x86
	.byte	0x10
	.uleb128 0x9
	.4byte	.LASF645
	.byte	0xd
	.byte	0x6d
	.byte	0x8
	.4byte	0x129b
	.byte	0x14
	.uleb128 0x9
	.4byte	.LASF646
	.byte	0xd
	.byte	0x6e
	.byte	0x8
	.4byte	0x11f9
	.byte	0x34
	.uleb128 0x9
	.4byte	.LASF647
	.byte	0xd
	.byte	0x6f
	.byte	0x8
	.4byte	0x11f9
	.byte	0x35
	.uleb128 0x9
	.4byte	.LASF648
	.byte	0xd
	.byte	0x70
	.byte	0x8
	.4byte	0x2d7
	.byte	0x36
	.byte	0
	.uleb128 0xb
	.4byte	0x132
	.4byte	0x12ab
	.uleb128 0xc
	.4byte	0x8d
	.byte	0x1f
	.byte	0
	.uleb128 0x4
	.4byte	.LASF649
	.byte	0xd
	.byte	0x71
	.byte	0x3
	.4byte	0x121d
	.uleb128 0xd
	.byte	0x7
	.byte	0x1
	.4byte	0x2c
	.byte	0xd
	.byte	0x76
	.byte	0x3
	.4byte	0x12f6
	.uleb128 0xe
	.4byte	.LASF650
	.byte	0x1
	.uleb128 0xe
	.4byte	.LASF651
	.byte	0x2
	.uleb128 0xe
	.4byte	.LASF652
	.byte	0x3
	.uleb128 0xe
	.4byte	.LASF653
	.byte	0x4
	.uleb128 0xe
	.4byte	.LASF654
	.byte	0x5
	.uleb128 0xe
	.4byte	.LASF655
	.byte	0x6
	.uleb128 0xe
	.4byte	.LASF656
	.byte	0x7
	.uleb128 0xe
	.4byte	.LASF657
	.byte	0x10
	.byte	0
	.uleb128 0xd
	.byte	0x7
	.byte	0x1
	.4byte	0x2c
	.byte	0xd
	.byte	0x84
	.byte	0x3
	.4byte	0x1323
	.uleb128 0xe
	.4byte	.LASF658
	.byte	0x1
	.uleb128 0xe
	.4byte	.LASF659
	.byte	0x2
	.uleb128 0xe
	.4byte	.LASF660
	.byte	0x3
	.uleb128 0xe
	.4byte	.LASF661
	.byte	0x4
	.uleb128 0xe
	.4byte	.LASF662
	.byte	0x5
	.byte	0
	.uleb128 0x4
	.4byte	.LASF663
	.byte	0xd
	.byte	0x8a
	.byte	0x5
	.4byte	0x12f6
	.uleb128 0x15
	.4byte	.LASF801
	.byte	0x7
	.byte	0x1
	.4byte	0x2c
	.byte	0xd
	.byte	0x8c
	.byte	0x6
	.4byte	0x135a
	.uleb128 0xe
	.4byte	.LASF664
	.byte	0
	.uleb128 0xe
	.4byte	.LASF665
	.byte	0x1
	.uleb128 0xe
	.4byte	.LASF666
	.byte	0x2
	.uleb128 0xe
	.4byte	.LASF667
	.byte	0x3
	.byte	0
	.uleb128 0x4
	.4byte	.LASF668
	.byte	0xd
	.byte	0xa0
	.byte	0x1e
	.4byte	0x1366
	.uleb128 0x7
	.byte	0x4
	.4byte	0x136c
	.uleb128 0x8
	.4byte	.LASF669
	.byte	0x48
	.byte	0xd
	.byte	0xa4
	.byte	0x8
	.4byte	0x143c
	.uleb128 0x14
	.ascii	"use\000"
	.byte	0xd
	.byte	0xa8
	.byte	0x12
	.4byte	0x132f
	.byte	0
	.uleb128 0x9
	.4byte	.LASF670
	.byte	0xd
	.byte	0xad
	.byte	0x9
	.4byte	0x1b4
	.byte	0x4
	.uleb128 0x9
	.4byte	.LASF671
	.byte	0xd
	.byte	0xb1
	.byte	0x9
	.4byte	0x1b4
	.byte	0x8
	.uleb128 0x9
	.4byte	.LASF672
	.byte	0xd
	.byte	0xb6
	.byte	0x9
	.4byte	0x1b4
	.byte	0xc
	.uleb128 0x9
	.4byte	.LASF673
	.byte	0xd
	.byte	0xbb
	.byte	0x7
	.4byte	0x86
	.byte	0x10
	.uleb128 0x14
	.ascii	"d\000"
	.byte	0xd
	.byte	0xdd
	.byte	0x5
	.4byte	0x143c
	.byte	0x14
	.uleb128 0x9
	.4byte	.LASF674
	.byte	0xd
	.byte	0xe3
	.byte	0x7
	.4byte	0x86
	.byte	0x24
	.uleb128 0x9
	.4byte	.LASF675
	.byte	0xd
	.byte	0xe9
	.byte	0x7
	.4byte	0x86
	.byte	0x28
	.uleb128 0x9
	.4byte	.LASF676
	.byte	0xd
	.byte	0xed
	.byte	0x9
	.4byte	0x14a9
	.byte	0x2c
	.uleb128 0x9
	.4byte	.LASF677
	.byte	0xd
	.byte	0xf1
	.byte	0x9
	.4byte	0xac
	.byte	0x30
	.uleb128 0x9
	.4byte	.LASF678
	.byte	0xd
	.byte	0xf4
	.byte	0x7
	.4byte	0x86
	.byte	0x34
	.uleb128 0x9
	.4byte	.LASF679
	.byte	0xd
	.byte	0xfa
	.byte	0x9
	.4byte	0x12c
	.byte	0x38
	.uleb128 0x9
	.4byte	.LASF680
	.byte	0xd
	.byte	0xfd
	.byte	0xb
	.4byte	0x135a
	.byte	0x3c
	.uleb128 0x16
	.ascii	"no\000"
	.byte	0xd
	.2byte	0x103
	.byte	0x7
	.4byte	0x86
	.byte	0x40
	.uleb128 0x17
	.4byte	.LASF681
	.byte	0xd
	.2byte	0x10b
	.byte	0x7
	.4byte	0x86
	.byte	0x44
	.byte	0
	.uleb128 0x13
	.byte	0x10
	.byte	0xd
	.byte	0xcf
	.byte	0x3
	.4byte	0x147a
	.uleb128 0x9
	.4byte	.LASF682
	.byte	0xd
	.byte	0xd2
	.byte	0xc
	.4byte	0x94
	.byte	0
	.uleb128 0x9
	.4byte	.LASF683
	.byte	0xd
	.byte	0xd7
	.byte	0xc
	.4byte	0x94
	.byte	0x4
	.uleb128 0x14
	.ascii	"len\000"
	.byte	0xd
	.byte	0xda
	.byte	0xc
	.4byte	0x94
	.byte	0x8
	.uleb128 0x14
	.ascii	"buf\000"
	.byte	0xd
	.byte	0xdc
	.byte	0xb
	.4byte	0x147a
	.byte	0xc
	.byte	0
	.uleb128 0x7
	.byte	0x4
	.4byte	0x11f9
	.uleb128 0x18
	.4byte	0x86
	.4byte	0x14a3
	.uleb128 0x19
	.4byte	0xac
	.uleb128 0x19
	.4byte	0x86
	.uleb128 0x19
	.4byte	0x135a
	.uleb128 0x19
	.4byte	0x147a
	.uleb128 0x19
	.4byte	0x14a3
	.byte	0
	.uleb128 0x7
	.byte	0x4
	.4byte	0x94
	.uleb128 0x7
	.byte	0x4
	.4byte	0x1480
	.uleb128 0x1a
	.4byte	.LASF693
	.byte	0xd
	.2byte	0x10e
	.byte	0xc
	.4byte	0x86
	.uleb128 0x8
	.4byte	.LASF684
	.byte	0xc
	.byte	0x1
	.byte	0x66
	.byte	0x8
	.4byte	0x14f0
	.uleb128 0x9
	.4byte	.LASF685
	.byte	0x1
	.byte	0x68
	.byte	0x19
	.4byte	0x14f0
	.byte	0
	.uleb128 0x14
	.ascii	"fp\000"
	.byte	0x1
	.byte	0x69
	.byte	0xe
	.4byte	0x1211
	.byte	0x4
	.uleb128 0x9
	.4byte	.LASF648
	.byte	0x1
	.byte	0x6a
	.byte	0x8
	.4byte	0x2d7
	.byte	0x8
	.byte	0
	.uleb128 0x7
	.byte	0x4
	.4byte	0x14bc
	.uleb128 0x4
	.4byte	.LASF686
	.byte	0x1
	.byte	0x6c
	.byte	0x1f
	.4byte	0x14f0
	.uleb128 0x1b
	.4byte	.LASF697
	.byte	0x1
	.byte	0x6d
	.byte	0x16
	.4byte	0x14f6
	.uleb128 0x1c
	.4byte	0x14af
	.byte	0x1
	.byte	0x6f
	.byte	0x5
	.uleb128 0x5
	.byte	0x3
	.4byte	iobuf_debug_mode
	.uleb128 0x13
	.byte	0x20
	.byte	0x1
	.byte	0x87
	.byte	0x9
	.4byte	0x158e
	.uleb128 0x14
	.ascii	"use\000"
	.byte	0x1
	.byte	0x89
	.byte	0x7
	.4byte	0x86
	.byte	0
	.uleb128 0x9
	.4byte	.LASF682
	.byte	0x1
	.byte	0x8a
	.byte	0xa
	.4byte	0x94
	.byte	0x4
	.uleb128 0x9
	.4byte	.LASF687
	.byte	0x1
	.byte	0x8b
	.byte	0xa
	.4byte	0x94
	.byte	0x8
	.uleb128 0x9
	.4byte	.LASF688
	.byte	0x1
	.byte	0x8c
	.byte	0x7
	.4byte	0x86
	.byte	0xc
	.uleb128 0x9
	.4byte	.LASF689
	.byte	0x1
	.byte	0x8d
	.byte	0x9
	.4byte	0x12c
	.byte	0x10
	.uleb128 0x9
	.4byte	.LASF690
	.byte	0x1
	.byte	0x8e
	.byte	0xa
	.4byte	0x94
	.byte	0x14
	.uleb128 0x9
	.4byte	.LASF691
	.byte	0x1
	.byte	0x8f
	.byte	0x7
	.4byte	0x86
	.byte	0x18
	.uleb128 0x14
	.ascii	"eof\000"
	.byte	0x1
	.byte	0x90
	.byte	0x7
	.4byte	0x86
	.byte	0x1c
	.byte	0
	.uleb128 0x4
	.4byte	.LASF692
	.byte	0x1
	.byte	0x92
	.byte	0x1
	.4byte	0x151c
	.uleb128 0xb
	.4byte	0x13e
	.4byte	0x15aa
	.uleb128 0xc
	.4byte	0x8d
	.byte	0x10
	.byte	0
	.uleb128 0x1d
	.4byte	.LASF694
	.byte	0x1
	.2byte	0x265
	.byte	0xd
	.4byte	0x159a
	.uleb128 0x5
	.byte	0x3
	.4byte	control_mode_str
	.uleb128 0x1e
	.4byte	.LASF699
	.byte	0x1
	.2byte	0xa53
	.byte	0x1
	.4byte	0x86
	.4byte	.LFB86
	.4byte	.LFE86-.LFB86
	.uleb128 0x1
	.byte	0x9c
	.4byte	0x1770
	.uleb128 0x1f
	.4byte	.LASF695
	.byte	0x1
	.2byte	0xa53
	.byte	0x14
	.4byte	0xac
	.4byte	.LLST4
	.4byte	.LVUS4
	.uleb128 0x1f
	.4byte	.LASF696
	.byte	0x1
	.2byte	0xa53
	.byte	0x20
	.4byte	0x86
	.4byte	.LLST5
	.4byte	.LVUS5
	.uleb128 0x1f
	.4byte	.LASF680
	.byte	0x1
	.2byte	0xa53
	.byte	0x31
	.4byte	0x135a
	.4byte	.LLST6
	.4byte	.LVUS6
	.uleb128 0x20
	.ascii	"buf\000"
	.byte	0x1
	.2byte	0xa53
	.byte	0x3f
	.4byte	0x147a
	.4byte	.LLST7
	.4byte	.LVUS7
	.uleb128 0x21
	.4byte	.LASF701
	.byte	0x1
	.2byte	0xa54
	.byte	0x10
	.4byte	0x14a3
	.uleb128 0x2
	.byte	0x91
	.sleb128 0
	.uleb128 0x22
	.ascii	"a\000"
	.byte	0x1
	.2byte	0xa56
	.byte	0x16
	.4byte	0x1770
	.4byte	.LLST8
	.4byte	.LVUS8
	.uleb128 0x22
	.ascii	"f\000"
	.byte	0x1
	.2byte	0xa57
	.byte	0xe
	.4byte	0x1211
	.4byte	.LLST9
	.4byte	.LVUS9
	.uleb128 0x23
	.4byte	.LASF682
	.byte	0x1
	.2byte	0xa58
	.byte	0xa
	.4byte	0x94
	.4byte	.LLST10
	.4byte	.LVUS10
	.uleb128 0x23
	.4byte	.LASF671
	.byte	0x1
	.2byte	0xa59
	.byte	0xa
	.4byte	0x94
	.4byte	.LLST11
	.4byte	.LVUS11
	.uleb128 0x22
	.ascii	"rc\000"
	.byte	0x1
	.2byte	0xa5a
	.byte	0x7
	.4byte	0x86
	.4byte	.LLST12
	.4byte	.LVUS12
	.uleb128 0x24
	.4byte	.LASF802
	.byte	0x1
	.2byte	0xb06
	.byte	0x5
	.4byte	.L34
	.uleb128 0x25
	.4byte	.Ldebug_ranges0+0
	.4byte	0x16c2
	.uleb128 0x26
	.ascii	"n\000"
	.byte	0x1
	.2byte	0xa8b
	.byte	0x8
	.4byte	0x86
	.byte	0
	.uleb128 0x27
	.4byte	.LBB42
	.4byte	.LBE42-.LBB42
	.4byte	0x16e6
	.uleb128 0x26
	.ascii	"p\000"
	.byte	0x1
	.2byte	0xac2
	.byte	0xa
	.4byte	0x147a
	.uleb128 0x26
	.ascii	"n\000"
	.byte	0x1
	.2byte	0xac3
	.byte	0x8
	.4byte	0x86
	.byte	0
	.uleb128 0x27
	.4byte	.LBB45
	.4byte	.LBE45-.LBB45
	.4byte	0x171d
	.uleb128 0x28
	.ascii	"n\000"
	.byte	0x1
	.2byte	0xb04
	.byte	0xb
	.4byte	0x86
	.uleb128 0x1
	.byte	0x53
	.uleb128 0x29
	.4byte	.LVL47
	.4byte	0x456e
	.uleb128 0x2a
	.uleb128 0x1
	.byte	0x50
	.uleb128 0x2
	.byte	0x75
	.sleb128 0
	.uleb128 0x2a
	.uleb128 0x1
	.byte	0x51
	.uleb128 0x2
	.byte	0x74
	.sleb128 20
	.uleb128 0x2a
	.uleb128 0x1
	.byte	0x52
	.uleb128 0x2
	.byte	0x77
	.sleb128 0
	.byte	0
	.byte	0
	.uleb128 0x2b
	.4byte	.LVL23
	.4byte	0x457a
	.4byte	0x1731
	.uleb128 0x2a
	.uleb128 0x1
	.byte	0x50
	.uleb128 0x2
	.byte	0x77
	.sleb128 0
	.byte	0
	.uleb128 0x2b
	.4byte	.LVL32
	.4byte	0x456e
	.4byte	0x174b
	.uleb128 0x2a
	.uleb128 0x1
	.byte	0x50
	.uleb128 0x2
	.byte	0x75
	.sleb128 0
	.uleb128 0x2a
	.uleb128 0x1
	.byte	0x52
	.uleb128 0x2
	.byte	0x77
	.sleb128 0
	.byte	0
	.uleb128 0x2b
	.4byte	.LVL38
	.4byte	0x457a
	.4byte	0x175f
	.uleb128 0x2a
	.uleb128 0x1
	.byte	0x51
	.uleb128 0x2
	.byte	0x74
	.sleb128 54
	.byte	0
	.uleb128 0x29
	.4byte	.LVL39
	.4byte	0x4586
	.uleb128 0x2a
	.uleb128 0x1
	.byte	0x50
	.uleb128 0x2
	.byte	0x74
	.sleb128 0
	.byte	0
	.byte	0
	.uleb128 0x7
	.byte	0x4
	.4byte	0x12ab
	.uleb128 0x2c
	.4byte	.LASF709
	.byte	0x1
	.2byte	0xa1f
	.byte	0x1
	.4byte	.LFB85
	.4byte	.LFE85-.LFB85
	.uleb128 0x1
	.byte	0x9c
	.4byte	0x1843
	.uleb128 0x20
	.ascii	"a\000"
	.byte	0x1
	.2byte	0xa1f
	.byte	0x1a
	.4byte	0x135a
	.4byte	.LLST212
	.4byte	.LVUS212
	.uleb128 0x20
	.ascii	"n\000"
	.byte	0x1
	.2byte	0xa1f
	.byte	0x2b
	.4byte	0x59
	.4byte	.LLST213
	.4byte	.LVUS213
	.uleb128 0x1f
	.4byte	.LASF688
	.byte	0x1
	.2byte	0xa1f
	.byte	0x32
	.4byte	0x86
	.4byte	.LLST214
	.4byte	.LVUS214
	.uleb128 0x25
	.4byte	.Ldebug_ranges0+0x540
	.4byte	0x17e7
	.uleb128 0x23
	.4byte	.LASF687
	.byte	0x1
	.2byte	0xa2e
	.byte	0x1d
	.4byte	0x59
	.4byte	.LLST217
	.4byte	.LVUS217
	.byte	0
	.uleb128 0x27
	.4byte	.LBB337
	.4byte	.LBE337-.LBB337
	.4byte	0x1832
	.uleb128 0x23
	.4byte	.LASF698
	.byte	0x1
	.2byte	0xa36
	.byte	0x15
	.4byte	0x59
	.4byte	.LLST215
	.4byte	.LVUS215
	.uleb128 0x25
	.4byte	.Ldebug_ranges0+0x518
	.4byte	0x1828
	.uleb128 0x23
	.4byte	.LASF687
	.byte	0x1
	.2byte	0xa43
	.byte	0x1d
	.4byte	0x59
	.4byte	.LLST216
	.4byte	.LVUS216
	.byte	0
	.uleb128 0x2d
	.4byte	.LVL700
	.4byte	0x2385
	.byte	0
	.uleb128 0x29
	.4byte	.LVL714
	.4byte	0x2385
	.uleb128 0x2a
	.uleb128 0x1
	.byte	0x50
	.uleb128 0x2
	.byte	0x74
	.sleb128 0
	.byte	0
	.byte	0
	.uleb128 0x1e
	.4byte	.LASF700
	.byte	0x1
	.2byte	0x9fb
	.byte	0x1
	.4byte	0x86
	.4byte	.LFB84
	.4byte	.LFE84-.LFB84
	.uleb128 0x1
	.byte	0x9c
	.4byte	0x187c
	.uleb128 0x2e
	.ascii	"fd\000"
	.byte	0x1
	.2byte	0x9fb
	.byte	0x1c
	.4byte	0x86
	.uleb128 0x1
	.byte	0x50
	.uleb128 0x21
	.4byte	.LASF702
	.byte	0x1
	.2byte	0x9fb
	.byte	0x24
	.4byte	0x86
	.uleb128 0x1
	.byte	0x51
	.byte	0
	.uleb128 0x1e
	.4byte	.LASF703
	.byte	0x1
	.2byte	0x9b1
	.byte	0x1
	.4byte	0x8d
	.4byte	.LFB83
	.4byte	.LFE83-.LFB83
	.uleb128 0x1
	.byte	0x9c
	.4byte	0x19a6
	.uleb128 0x20
	.ascii	"a\000"
	.byte	0x1
	.2byte	0x9b1
	.byte	0x1a
	.4byte	0x135a
	.4byte	.LLST202
	.4byte	.LVUS202
	.uleb128 0x1f
	.4byte	.LASF704
	.byte	0x1
	.2byte	0x9b1
	.byte	0x25
	.4byte	0x19a6
	.4byte	.LLST203
	.4byte	.LVUS203
	.uleb128 0x1f
	.4byte	.LASF705
	.byte	0x1
	.2byte	0x9b2
	.byte	0xe
	.4byte	0x19ac
	.4byte	.LLST204
	.4byte	.LVUS204
	.uleb128 0x1f
	.4byte	.LASF706
	.byte	0x1
	.2byte	0x9b2
	.byte	0x2a
	.4byte	0x19ac
	.4byte	.LLST205
	.4byte	.LVUS205
	.uleb128 0x22
	.ascii	"c\000"
	.byte	0x1
	.2byte	0x9b4
	.byte	0x7
	.4byte	0x86
	.4byte	.LLST206
	.4byte	.LVUS206
	.uleb128 0x23
	.4byte	.LASF689
	.byte	0x1
	.2byte	0x9b5
	.byte	0x9
	.4byte	0x12c
	.4byte	.LLST207
	.4byte	.LVUS207
	.uleb128 0x23
	.4byte	.LASF707
	.byte	0x1
	.2byte	0x9b6
	.byte	0xc
	.4byte	0x8d
	.4byte	.LLST208
	.4byte	.LVUS208
	.uleb128 0x23
	.4byte	.LASF671
	.byte	0x1
	.2byte	0x9b7
	.byte	0xc
	.4byte	0x8d
	.4byte	.LLST209
	.4byte	.LVUS209
	.uleb128 0x23
	.4byte	.LASF708
	.byte	0x1
	.2byte	0x9b8
	.byte	0xc
	.4byte	0x8d
	.4byte	.LLST210
	.4byte	.LVUS210
	.uleb128 0x22
	.ascii	"p\000"
	.byte	0x1
	.2byte	0x9b9
	.byte	0x9
	.4byte	0x12c
	.4byte	.LLST211
	.4byte	.LVUS211
	.uleb128 0x2d
	.4byte	.LVL671
	.4byte	0x2385
	.uleb128 0x2b
	.4byte	.LVL678
	.4byte	0x4592
	.4byte	0x1986
	.uleb128 0x2a
	.uleb128 0x1
	.byte	0x50
	.uleb128 0x2
	.byte	0x7b
	.sleb128 0
	.uleb128 0x2a
	.uleb128 0x1
	.byte	0x51
	.uleb128 0x2
	.byte	0x7a
	.sleb128 0
	.byte	0
	.uleb128 0x2d
	.4byte	.LVL682
	.4byte	0x2385
	.uleb128 0x29
	.4byte	.LVL692
	.4byte	0x4592
	.uleb128 0x2a
	.uleb128 0x1
	.byte	0x50
	.uleb128 0x2
	.byte	0x7b
	.sleb128 0
	.uleb128 0x2a
	.uleb128 0x1
	.byte	0x51
	.uleb128 0x2
	.byte	0x7a
	.sleb128 0
	.byte	0
	.byte	0
	.uleb128 0x7
	.byte	0x4
	.4byte	0x147a
	.uleb128 0x7
	.byte	0x4
	.4byte	0x8d
	.uleb128 0x2c
	.4byte	.LASF710
	.byte	0x1
	.2byte	0x992
	.byte	0x1
	.4byte	.LFB82
	.4byte	.LFE82-.LFB82
	.uleb128 0x1
	.byte	0x9c
	.4byte	0x1a8d
	.uleb128 0x20
	.ascii	"a\000"
	.byte	0x1
	.2byte	0x992
	.byte	0x2d
	.4byte	0x135a
	.4byte	.LLST199
	.4byte	.LVUS199
	.uleb128 0x20
	.ascii	"len\000"
	.byte	0x1
	.2byte	0x992
	.byte	0x37
	.4byte	0x94
	.4byte	.LLST200
	.4byte	.LVUS200
	.uleb128 0x25
	.4byte	.Ldebug_ranges0+0x500
	.4byte	0x1a43
	.uleb128 0x22
	.ascii	"ctx\000"
	.byte	0x1
	.2byte	0x9a3
	.byte	0x1b
	.4byte	0x1a8d
	.4byte	.LLST201
	.4byte	.LVUS201
	.uleb128 0x2b
	.4byte	.LVL651
	.4byte	0x459e
	.4byte	0x1a28
	.uleb128 0x2a
	.uleb128 0x1
	.byte	0x50
	.uleb128 0x1
	.byte	0x31
	.uleb128 0x2a
	.uleb128 0x1
	.byte	0x51
	.uleb128 0x2
	.byte	0x8
	.byte	0x20
	.byte	0
	.uleb128 0x2d
	.4byte	.LVL654
	.4byte	0x457a
	.uleb128 0x2f
	.4byte	.LVL656
	.4byte	0x2c45
	.uleb128 0x2a
	.uleb128 0x1
	.byte	0x50
	.uleb128 0x3
	.byte	0xf3
	.uleb128 0x1
	.byte	0x50
	.byte	0
	.byte	0
	.uleb128 0x2b
	.4byte	.LVL644
	.4byte	0x457a
	.4byte	0x1a57
	.uleb128 0x2a
	.uleb128 0x1
	.byte	0x51
	.uleb128 0x2
	.byte	0x75
	.sleb128 0
	.byte	0
	.uleb128 0x2d
	.4byte	.LVL646
	.4byte	0x457a
	.uleb128 0x2d
	.4byte	.LVL647
	.4byte	0x457a
	.uleb128 0x30
	.4byte	.LVL649
	.4byte	0x2755
	.4byte	0x1a83
	.uleb128 0x2a
	.uleb128 0x1
	.byte	0x50
	.uleb128 0x3
	.byte	0xf3
	.uleb128 0x1
	.byte	0x50
	.uleb128 0x2a
	.uleb128 0x1
	.byte	0x52
	.uleb128 0x1
	.byte	0x30
	.byte	0
	.uleb128 0x2d
	.4byte	.LVL650
	.4byte	0x457a
	.byte	0
	.uleb128 0x7
	.byte	0x4
	.4byte	0x158e
	.uleb128 0x1e
	.4byte	.LASF711
	.byte	0x1
	.2byte	0x97c
	.byte	0x1
	.4byte	0x13e
	.4byte	.LFB81
	.4byte	.LFE81-.LFB81
	.uleb128 0x1
	.byte	0x9c
	.4byte	0x1ae8
	.uleb128 0x20
	.ascii	"a\000"
	.byte	0x1
	.2byte	0x97c
	.byte	0x22
	.4byte	0x135a
	.4byte	.LLST197
	.4byte	.LVUS197
	.uleb128 0x23
	.4byte	.LASF648
	.byte	0x1
	.2byte	0x97e
	.byte	0xf
	.4byte	0x13e
	.4byte	.LLST198
	.4byte	.LVUS198
	.uleb128 0x29
	.4byte	.LVL640
	.4byte	0x1ae8
	.uleb128 0x2a
	.uleb128 0x1
	.byte	0x50
	.uleb128 0x3
	.byte	0xf3
	.uleb128 0x1
	.byte	0x50
	.byte	0
	.byte	0
	.uleb128 0x1e
	.4byte	.LASF712
	.byte	0x1
	.2byte	0x970
	.byte	0x1
	.4byte	0x13e
	.4byte	.LFB80
	.4byte	.LFE80-.LFB80
	.uleb128 0x1
	.byte	0x9c
	.4byte	0x1b34
	.uleb128 0x20
	.ascii	"a\000"
	.byte	0x1
	.2byte	0x970
	.byte	0x1a
	.4byte	0x135a
	.4byte	.LLST195
	.4byte	.LVUS195
	.uleb128 0x31
	.4byte	.LBB334
	.4byte	.LBE334-.LBB334
	.uleb128 0x22
	.ascii	"b\000"
	.byte	0x1
	.2byte	0x975
	.byte	0x15
	.4byte	0x1770
	.4byte	.LLST196
	.4byte	.LVUS196
	.byte	0
	.byte	0
	.uleb128 0x32
	.4byte	.LASF732
	.byte	0x1
	.2byte	0x95f
	.byte	0x1
	.4byte	0x13e
	.byte	0x1
	.4byte	0x1b5f
	.uleb128 0x33
	.ascii	"a\000"
	.byte	0x1
	.2byte	0x95f
	.byte	0x1f
	.4byte	0x135a
	.uleb128 0x34
	.uleb128 0x26
	.ascii	"b\000"
	.byte	0x1
	.2byte	0x968
	.byte	0x15
	.4byte	0x1770
	.byte	0
	.byte	0
	.uleb128 0x1e
	.4byte	.LASF713
	.byte	0x1
	.2byte	0x924
	.byte	0x1
	.4byte	0x86
	.4byte	.LFB78
	.4byte	.LFE78-.LFB78
	.uleb128 0x1
	.byte	0x9c
	.4byte	0x1bd4
	.uleb128 0x20
	.ascii	"a\000"
	.byte	0x1
	.2byte	0x924
	.byte	0x15
	.4byte	0x135a
	.4byte	.LLST188
	.4byte	.LVUS188
	.uleb128 0x1f
	.4byte	.LASF714
	.byte	0x1
	.2byte	0x924
	.byte	0x1e
	.4byte	0x1b4
	.4byte	.LLST189
	.4byte	.LVUS189
	.uleb128 0x22
	.ascii	"b\000"
	.byte	0x1
	.2byte	0x926
	.byte	0x16
	.4byte	0x1770
	.4byte	.LLST190
	.4byte	.LVUS190
	.uleb128 0x2d
	.4byte	.LVL613
	.4byte	0x457a
	.uleb128 0x29
	.4byte	.LVL614
	.4byte	0x2755
	.uleb128 0x2a
	.uleb128 0x1
	.byte	0x50
	.uleb128 0x2
	.byte	0x74
	.sleb128 0
	.uleb128 0x2a
	.uleb128 0x1
	.byte	0x52
	.uleb128 0x1
	.byte	0x30
	.byte	0
	.byte	0
	.uleb128 0x1e
	.4byte	.LASF715
	.byte	0x1
	.2byte	0x8ff
	.byte	0x1
	.4byte	0x1b4
	.4byte	.LFB77
	.4byte	.LFE77-.LFB77
	.uleb128 0x1
	.byte	0x9c
	.4byte	0x1c03
	.uleb128 0x20
	.ascii	"a\000"
	.byte	0x1
	.2byte	0x8ff
	.byte	0x15
	.4byte	0x135a
	.4byte	.LLST187
	.4byte	.LVUS187
	.byte	0
	.uleb128 0x1e
	.4byte	.LASF716
	.byte	0x1
	.2byte	0x8ec
	.byte	0x1
	.4byte	0x86
	.4byte	.LFB76
	.4byte	.LFE76-.LFB76
	.uleb128 0x1
	.byte	0x9c
	.4byte	0x1c66
	.uleb128 0x20
	.ascii	"a\000"
	.byte	0x1
	.2byte	0x8ec
	.byte	0x17
	.4byte	0x135a
	.4byte	.LLST185
	.4byte	.LVUS185
	.uleb128 0x25
	.4byte	.Ldebug_ranges0+0x4e8
	.4byte	0x1c5c
	.uleb128 0x22
	.ascii	"b\000"
	.byte	0x1
	.2byte	0x8f6
	.byte	0x18
	.4byte	0x1770
	.4byte	.LLST186
	.4byte	.LVUS186
	.uleb128 0x28
	.ascii	"fp\000"
	.byte	0x1
	.2byte	0x8f7
	.byte	0x10
	.4byte	0x1211
	.uleb128 0x1
	.byte	0x50
	.byte	0
	.uleb128 0x2d
	.4byte	.LVL605
	.4byte	0x457a
	.byte	0
	.uleb128 0x1e
	.4byte	.LASF717
	.byte	0x1
	.2byte	0x8ca
	.byte	0x1
	.4byte	0x144
	.4byte	.LFB75
	.4byte	.LFE75-.LFB75
	.uleb128 0x1
	.byte	0x9c
	.4byte	0x1cc7
	.uleb128 0x20
	.ascii	"a\000"
	.byte	0x1
	.2byte	0x8ca
	.byte	0x1f
	.4byte	0x135a
	.4byte	.LLST184
	.4byte	.LVUS184
	.uleb128 0x35
	.4byte	.Ldebug_ranges0+0x4d0
	.uleb128 0x26
	.ascii	"b\000"
	.byte	0x1
	.2byte	0x8d4
	.byte	0x18
	.4byte	0x1770
	.uleb128 0x26
	.ascii	"fp\000"
	.byte	0x1
	.2byte	0x8d5
	.byte	0x10
	.4byte	0x1211
	.uleb128 0x26
	.ascii	"st\000"
	.byte	0x1
	.2byte	0x8df
	.byte	0x11
	.4byte	0x203
	.uleb128 0x2d
	.4byte	.LVL602
	.4byte	0x457a
	.byte	0
	.byte	0
	.uleb128 0x2c
	.4byte	.LASF718
	.byte	0x1
	.2byte	0x8bc
	.byte	0x1
	.4byte	.LFB74
	.4byte	.LFE74-.LFB74
	.uleb128 0x1
	.byte	0x9c
	.4byte	0x1cfb
	.uleb128 0x2e
	.ascii	"a\000"
	.byte	0x1
	.2byte	0x8bc
	.byte	0x1a
	.4byte	0x135a
	.uleb128 0x1
	.byte	0x50
	.uleb128 0x21
	.4byte	.LASF670
	.byte	0x1
	.2byte	0x8bc
	.byte	0x23
	.4byte	0x1b4
	.uleb128 0x1
	.byte	0x51
	.byte	0
	.uleb128 0x2c
	.4byte	.LASF719
	.byte	0x1
	.2byte	0x8b2
	.byte	0x1
	.4byte	.LFB73
	.4byte	.LFE73-.LFB73
	.uleb128 0x1
	.byte	0x9c
	.4byte	0x1d4a
	.uleb128 0x1f
	.4byte	.LASF720
	.byte	0x1
	.2byte	0x8b2
	.byte	0x1b
	.4byte	0x135a
	.4byte	.LLST181
	.4byte	.LVUS181
	.uleb128 0x2b
	.4byte	.LVL587
	.4byte	0x2755
	.4byte	0x1d40
	.uleb128 0x2a
	.uleb128 0x1
	.byte	0x50
	.uleb128 0x2
	.byte	0x74
	.sleb128 0
	.uleb128 0x2a
	.uleb128 0x1
	.byte	0x52
	.uleb128 0x1
	.byte	0x30
	.byte	0
	.uleb128 0x2d
	.4byte	.LVL590
	.4byte	0x457a
	.byte	0
	.uleb128 0x1e
	.4byte	.LASF721
	.byte	0x1
	.2byte	0x885
	.byte	0x1
	.4byte	0x94
	.4byte	.LFB72
	.4byte	.LFE72-.LFB72
	.uleb128 0x1
	.byte	0x9c
	.4byte	0x1e7a
	.uleb128 0x1f
	.4byte	.LASF722
	.byte	0x1
	.2byte	0x885
	.byte	0x15
	.4byte	0x135a
	.4byte	.LLST174
	.4byte	.LVUS174
	.uleb128 0x1f
	.4byte	.LASF723
	.byte	0x1
	.2byte	0x885
	.byte	0x23
	.4byte	0x135a
	.4byte	.LLST175
	.4byte	.LVUS175
	.uleb128 0x23
	.4byte	.LASF720
	.byte	0x1
	.2byte	0x888
	.byte	0x9
	.4byte	0x12c
	.4byte	.LLST176
	.4byte	.LVUS176
	.uleb128 0x36
	.4byte	.LASF724
	.byte	0x1
	.2byte	0x88a
	.byte	0x10
	.4byte	0xa0
	.2byte	0x8000
	.uleb128 0x23
	.4byte	.LASF725
	.byte	0x1
	.2byte	0x88c
	.byte	0xa
	.4byte	0x94
	.4byte	.LLST177
	.4byte	.LVUS177
	.uleb128 0x23
	.4byte	.LASF726
	.byte	0x1
	.2byte	0x88d
	.byte	0xa
	.4byte	0x94
	.4byte	.LLST178
	.4byte	.LVUS178
	.uleb128 0x23
	.4byte	.LASF727
	.byte	0x1
	.2byte	0x88e
	.byte	0xa
	.4byte	0x94
	.4byte	.LLST179
	.4byte	.LVUS179
	.uleb128 0x22
	.ascii	"err\000"
	.byte	0x1
	.2byte	0x88f
	.byte	0x7
	.4byte	0x86
	.4byte	.LLST180
	.4byte	.LVUS180
	.uleb128 0x2d
	.4byte	.LVL573
	.4byte	0x457a
	.uleb128 0x2b
	.4byte	.LVL574
	.4byte	0x45aa
	.4byte	0x1e25
	.uleb128 0x2a
	.uleb128 0x1
	.byte	0x50
	.uleb128 0x3
	.byte	0xa
	.2byte	0x8000
	.byte	0
	.uleb128 0x2d
	.4byte	.LVL578
	.4byte	0x2116
	.uleb128 0x2b
	.4byte	.LVL580
	.4byte	0x2291
	.4byte	0x1e4f
	.uleb128 0x2a
	.uleb128 0x1
	.byte	0x50
	.uleb128 0x2
	.byte	0x79
	.sleb128 0
	.uleb128 0x2a
	.uleb128 0x1
	.byte	0x51
	.uleb128 0x2
	.byte	0x76
	.sleb128 0
	.uleb128 0x2a
	.uleb128 0x1
	.byte	0x52
	.uleb128 0x3
	.byte	0xa
	.2byte	0x8000
	.byte	0
	.uleb128 0x2b
	.4byte	.LVL582
	.4byte	0x4586
	.4byte	0x1e63
	.uleb128 0x2a
	.uleb128 0x1
	.byte	0x50
	.uleb128 0x2
	.byte	0x76
	.sleb128 0
	.byte	0
	.uleb128 0x29
	.4byte	.LVL584
	.4byte	0x45b6
	.uleb128 0x2a
	.uleb128 0x1
	.byte	0x50
	.uleb128 0x2
	.byte	0x76
	.sleb128 0
	.uleb128 0x2a
	.uleb128 0x1
	.byte	0x51
	.uleb128 0x2
	.byte	0x75
	.sleb128 0
	.byte	0
	.byte	0
	.uleb128 0x1e
	.4byte	.LASF728
	.byte	0x1
	.2byte	0x86a
	.byte	0x1
	.4byte	0x94
	.4byte	.LFB71
	.4byte	.LFE71-.LFB71
	.uleb128 0x1
	.byte	0x9c
	.4byte	0x201e
	.uleb128 0x20
	.ascii	"a\000"
	.byte	0x1
	.2byte	0x86a
	.byte	0x1f
	.4byte	0x135a
	.4byte	.LLST165
	.4byte	.LVUS165
	.uleb128 0x1f
	.4byte	.LASF689
	.byte	0x1
	.2byte	0x86a
	.byte	0x29
	.4byte	0x147a
	.4byte	.LLST166
	.4byte	.LVUS166
	.uleb128 0x1f
	.4byte	.LASF690
	.byte	0x1
	.2byte	0x86a
	.byte	0x38
	.4byte	0x94
	.4byte	.LLST167
	.4byte	.LVUS167
	.uleb128 0x37
	.4byte	.LASF729
	.byte	0x1
	.2byte	0x86c
	.byte	0x8
	.4byte	0x201e
	.uleb128 0x3
	.byte	0x91
	.sleb128 -72
	.uleb128 0x22
	.ascii	"n\000"
	.byte	0x1
	.2byte	0x86d
	.byte	0xa
	.4byte	0x94
	.4byte	.LLST168
	.4byte	.LVUS168
	.uleb128 0x25
	.4byte	.Ldebug_ranges0+0x448
	.4byte	0x2005
	.uleb128 0x22
	.ascii	"rc\000"
	.byte	0x1
	.2byte	0x871
	.byte	0xb
	.4byte	0x86
	.4byte	.LLST169
	.4byte	.LVUS169
	.uleb128 0x38
	.4byte	0x394b
	.4byte	.LBI301
	.2byte	.LVU1821
	.4byte	.Ldebug_ranges0+0x478
	.byte	0x1
	.2byte	0x873
	.byte	0x2
	.4byte	0x1fce
	.uleb128 0x39
	.4byte	0x3968
	.4byte	.LLST170
	.4byte	.LVUS170
	.uleb128 0x39
	.4byte	0x395d
	.4byte	.LLST171
	.4byte	.LVUS171
	.uleb128 0x35
	.4byte	.Ldebug_ranges0+0x478
	.uleb128 0x3a
	.4byte	0x3975
	.uleb128 0x3
	.byte	0x91
	.sleb128 -76
	.uleb128 0x38
	.4byte	0x394b
	.4byte	.LBI303
	.2byte	.LVU1845
	.4byte	.Ldebug_ranges0+0x4b0
	.byte	0x1
	.2byte	0x3ab
	.byte	0x1
	.4byte	0x1faa
	.uleb128 0x39
	.4byte	0x395d
	.4byte	.LLST172
	.4byte	.LVUS172
	.uleb128 0x39
	.4byte	0x3968
	.4byte	.LLST173
	.4byte	.LVUS173
	.uleb128 0x35
	.4byte	.Ldebug_ranges0+0x4b0
	.uleb128 0x3b
	.4byte	0x3975
	.uleb128 0x29
	.4byte	.LVL570
	.4byte	0x456e
	.uleb128 0x2a
	.uleb128 0x1
	.byte	0x50
	.uleb128 0x2
	.byte	0x75
	.sleb128 0
	.uleb128 0x2a
	.uleb128 0x1
	.byte	0x51
	.uleb128 0x2
	.byte	0x7b
	.sleb128 0
	.uleb128 0x2a
	.uleb128 0x1
	.byte	0x52
	.uleb128 0x1
	.byte	0x32
	.byte	0
	.byte	0
	.byte	0
	.uleb128 0x3c
	.4byte	.LVL562
	.uleb128 0x2
	.byte	0x76
	.sleb128 0
	.uleb128 0x2a
	.uleb128 0x1
	.byte	0x51
	.uleb128 0x1
	.byte	0x35
	.uleb128 0x2a
	.uleb128 0x1
	.byte	0x52
	.uleb128 0x1
	.byte	0x30
	.uleb128 0x2a
	.uleb128 0x1
	.byte	0x53
	.uleb128 0x3
	.byte	0x91
	.sleb128 -80
	.uleb128 0x2a
	.uleb128 0x2
	.byte	0x7d
	.sleb128 0
	.uleb128 0x3
	.byte	0x91
	.sleb128 -84
	.byte	0
	.byte	0
	.byte	0
	.uleb128 0x2b
	.4byte	.LVL559
	.4byte	0x25e5
	.4byte	0x1fe2
	.uleb128 0x2a
	.uleb128 0x1
	.byte	0x50
	.uleb128 0x2
	.byte	0x74
	.sleb128 0
	.byte	0
	.uleb128 0x29
	.4byte	.LVL563
	.4byte	0x457a
	.uleb128 0x2a
	.uleb128 0x1
	.byte	0x50
	.uleb128 0x2
	.byte	0x7a
	.sleb128 0
	.uleb128 0x2a
	.uleb128 0x1
	.byte	0x51
	.uleb128 0x2
	.byte	0x77
	.sleb128 0
	.uleb128 0x2a
	.uleb128 0x1
	.byte	0x52
	.uleb128 0x2
	.byte	0x78
	.sleb128 0
	.uleb128 0x2a
	.uleb128 0x1
	.byte	0x53
	.uleb128 0x2
	.byte	0x75
	.sleb128 0
	.byte	0
	.byte	0
	.uleb128 0x29
	.4byte	.LVL567
	.4byte	0x456e
	.uleb128 0x2a
	.uleb128 0x1
	.byte	0x50
	.uleb128 0x4
	.byte	0x91
	.sleb128 -96
	.byte	0x6
	.uleb128 0x2a
	.uleb128 0x1
	.byte	0x52
	.uleb128 0x2
	.byte	0x74
	.sleb128 0
	.byte	0
	.byte	0
	.uleb128 0xb
	.4byte	0x11f9
	.4byte	0x202e
	.uleb128 0xc
	.4byte	0x8d
	.byte	0x1f
	.byte	0
	.uleb128 0x1e
	.4byte	.LASF730
	.byte	0x1
	.2byte	0x860
	.byte	0x1
	.4byte	0x86
	.4byte	.LFB70
	.4byte	.LFE70-.LFB70
	.uleb128 0x1
	.byte	0x9c
	.4byte	0x2099
	.uleb128 0x1f
	.4byte	.LASF722
	.byte	0x1
	.2byte	0x860
	.byte	0x1b
	.4byte	0x135a
	.4byte	.LLST182
	.4byte	.LVUS182
	.uleb128 0x1f
	.4byte	.LASF723
	.byte	0x1
	.2byte	0x860
	.byte	0x29
	.4byte	0x135a
	.4byte	.LLST183
	.4byte	.LVUS183
	.uleb128 0x2b
	.4byte	.LVL593
	.4byte	0x1cfb
	.4byte	0x2087
	.uleb128 0x2a
	.uleb128 0x1
	.byte	0x50
	.uleb128 0x2
	.byte	0x74
	.sleb128 0
	.byte	0
	.uleb128 0x2f
	.4byte	.LVL595
	.4byte	0x2116
	.uleb128 0x2a
	.uleb128 0x1
	.byte	0x50
	.uleb128 0x3
	.byte	0xf3
	.uleb128 0x1
	.byte	0x50
	.byte	0
	.byte	0
	.uleb128 0x1e
	.4byte	.LASF731
	.byte	0x1
	.2byte	0x852
	.byte	0x1
	.4byte	0x86
	.4byte	.LFB69
	.4byte	.LFE69-.LFB69
	.uleb128 0x1
	.byte	0x9c
	.4byte	0x2116
	.uleb128 0x20
	.ascii	"a\000"
	.byte	0x1
	.2byte	0x852
	.byte	0x19
	.4byte	0x135a
	.4byte	.LLST163
	.4byte	.LVUS163
	.uleb128 0x20
	.ascii	"buf\000"
	.byte	0x1
	.2byte	0x852
	.byte	0x28
	.4byte	0x13e
	.4byte	.LLST164
	.4byte	.LVUS164
	.uleb128 0x2b
	.4byte	.LVL550
	.4byte	0x45c2
	.4byte	0x20f0
	.uleb128 0x2a
	.uleb128 0x1
	.byte	0x50
	.uleb128 0x2
	.byte	0x75
	.sleb128 0
	.byte	0
	.uleb128 0x30
	.4byte	.LVL552
	.4byte	0x2116
	.4byte	0x210c
	.uleb128 0x2a
	.uleb128 0x1
	.byte	0x50
	.uleb128 0x3
	.byte	0xf3
	.uleb128 0x1
	.byte	0x50
	.uleb128 0x2a
	.uleb128 0x1
	.byte	0x51
	.uleb128 0x3
	.byte	0xf3
	.uleb128 0x1
	.byte	0x51
	.byte	0
	.uleb128 0x2d
	.4byte	.LVL554
	.4byte	0x457a
	.byte	0
	.uleb128 0x32
	.4byte	.LASF733
	.byte	0x1
	.2byte	0x82a
	.byte	0x1
	.4byte	0x86
	.byte	0x1
	.4byte	0x2176
	.uleb128 0x33
	.ascii	"a\000"
	.byte	0x1
	.2byte	0x82a
	.byte	0x16
	.4byte	0x135a
	.uleb128 0x3d
	.4byte	.LASF689
	.byte	0x1
	.2byte	0x82a
	.byte	0x25
	.4byte	0x1fc
	.uleb128 0x3d
	.4byte	.LASF690
	.byte	0x1
	.2byte	0x82a
	.byte	0x3a
	.4byte	0x8d
	.uleb128 0x26
	.ascii	"buf\000"
	.byte	0x1
	.2byte	0x82d
	.byte	0x18
	.4byte	0x2176
	.uleb128 0x26
	.ascii	"rc\000"
	.byte	0x1
	.2byte	0x82e
	.byte	0x7
	.4byte	0x86
	.uleb128 0x34
	.uleb128 0x3e
	.4byte	.LASF682
	.byte	0x1
	.2byte	0x83a
	.byte	0xd
	.4byte	0x8d
	.byte	0
	.byte	0
	.uleb128 0x7
	.byte	0x4
	.4byte	0x33
	.uleb128 0x1e
	.4byte	.LASF734
	.byte	0x1
	.2byte	0x80f
	.byte	0x1
	.4byte	0x86
	.4byte	.LFB67
	.4byte	.LFE67-.LFB67
	.uleb128 0x1
	.byte	0x9c
	.4byte	0x2215
	.uleb128 0x20
	.ascii	"a\000"
	.byte	0x1
	.2byte	0x80f
	.byte	0x1a
	.4byte	0x135a
	.4byte	.LLST136
	.4byte	.LVUS136
	.uleb128 0x20
	.ascii	"c\000"
	.byte	0x1
	.2byte	0x80f
	.byte	0x2a
	.4byte	0x8d
	.4byte	.LLST137
	.4byte	.LVUS137
	.uleb128 0x22
	.ascii	"rc\000"
	.byte	0x1
	.2byte	0x812
	.byte	0x7
	.4byte	0x86
	.4byte	.LLST138
	.4byte	.LVUS138
	.uleb128 0x2b
	.4byte	.LVL387
	.4byte	0x457a
	.4byte	0x21e5
	.uleb128 0x2a
	.uleb128 0x1
	.byte	0x51
	.uleb128 0x2
	.byte	0x76
	.sleb128 0
	.byte	0
	.uleb128 0x2d
	.4byte	.LVL388
	.4byte	0x457a
	.uleb128 0x2b
	.4byte	.LVL389
	.4byte	0x25e5
	.4byte	0x2202
	.uleb128 0x2a
	.uleb128 0x1
	.byte	0x50
	.uleb128 0x2
	.byte	0x74
	.sleb128 0
	.byte	0
	.uleb128 0x2d
	.4byte	.LVL393
	.4byte	0x457a
	.uleb128 0x2d
	.4byte	.LVL395
	.4byte	0x457a
	.byte	0
	.uleb128 0x1e
	.4byte	.LASF735
	.byte	0x1
	.2byte	0x7ae
	.byte	0x1
	.4byte	0x86
	.4byte	.LFB66
	.4byte	.LFE66-.LFB66
	.uleb128 0x1
	.byte	0x9c
	.4byte	0x2291
	.uleb128 0x20
	.ascii	"a\000"
	.byte	0x1
	.2byte	0x7ae
	.byte	0x15
	.4byte	0x135a
	.4byte	.LLST132
	.4byte	.LVUS132
	.uleb128 0x20
	.ascii	"buf\000"
	.byte	0x1
	.2byte	0x7ae
	.byte	0x1f
	.4byte	0x147a
	.4byte	.LLST133
	.4byte	.LVUS133
	.uleb128 0x1f
	.4byte	.LASF690
	.byte	0x1
	.2byte	0x7ae
	.byte	0x2d
	.4byte	0x8d
	.4byte	.LLST134
	.4byte	.LVUS134
	.uleb128 0x22
	.ascii	"n\000"
	.byte	0x1
	.2byte	0x7b0
	.byte	0x7
	.4byte	0x86
	.4byte	.LLST135
	.4byte	.LVUS135
	.uleb128 0x29
	.4byte	.LVL381
	.4byte	0x456e
	.uleb128 0x2a
	.uleb128 0x1
	.byte	0x52
	.uleb128 0x2
	.byte	0x74
	.sleb128 0
	.byte	0
	.byte	0
	.uleb128 0x1e
	.4byte	.LASF736
	.byte	0x1
	.2byte	0x764
	.byte	0x1
	.4byte	0x86
	.4byte	.LFB65
	.4byte	.LFE65-.LFB65
	.uleb128 0x1
	.byte	0x9c
	.4byte	0x2385
	.uleb128 0x20
	.ascii	"a\000"
	.byte	0x1
	.2byte	0x764
	.byte	0x15
	.4byte	0x135a
	.4byte	.LLST125
	.4byte	.LVUS125
	.uleb128 0x1f
	.4byte	.LASF689
	.byte	0x1
	.2byte	0x764
	.byte	0x1e
	.4byte	0xac
	.4byte	.LLST126
	.4byte	.LVUS126
	.uleb128 0x1f
	.4byte	.LASF690
	.byte	0x1
	.2byte	0x764
	.byte	0x33
	.4byte	0x8d
	.4byte	.LLST127
	.4byte	.LVUS127
	.uleb128 0x22
	.ascii	"buf\000"
	.byte	0x1
	.2byte	0x767
	.byte	0x12
	.4byte	0x126
	.4byte	.LLST128
	.4byte	.LVUS128
	.uleb128 0x22
	.ascii	"c\000"
	.byte	0x1
	.2byte	0x768
	.byte	0x7
	.4byte	0x86
	.4byte	.LLST129
	.4byte	.LVUS129
	.uleb128 0x22
	.ascii	"n\000"
	.byte	0x1
	.2byte	0x768
	.byte	0xa
	.4byte	0x86
	.4byte	.LLST130
	.4byte	.LVUS130
	.uleb128 0x25
	.4byte	.Ldebug_ranges0+0x320
	.4byte	0x2353
	.uleb128 0x23
	.4byte	.LASF682
	.byte	0x1
	.2byte	0x78b
	.byte	0xd
	.4byte	0x8d
	.4byte	.LLST131
	.4byte	.LVUS131
	.uleb128 0x29
	.4byte	.LVL364
	.4byte	0x456e
	.uleb128 0x2a
	.uleb128 0x1
	.byte	0x52
	.uleb128 0x2
	.byte	0x78
	.sleb128 0
	.byte	0
	.byte	0
	.uleb128 0x2b
	.4byte	.LVL348
	.4byte	0x457a
	.4byte	0x2367
	.uleb128 0x2a
	.uleb128 0x1
	.byte	0x51
	.uleb128 0x2
	.byte	0x77
	.sleb128 0
	.byte	0
	.uleb128 0x2b
	.4byte	.LVL354
	.4byte	0x2385
	.4byte	0x237b
	.uleb128 0x2a
	.uleb128 0x1
	.byte	0x50
	.uleb128 0x2
	.byte	0x76
	.sleb128 0
	.byte	0
	.uleb128 0x2d
	.4byte	.LVL373
	.4byte	0x457a
	.byte	0
	.uleb128 0x1e
	.4byte	.LASF737
	.byte	0x1
	.2byte	0x743
	.byte	0x1
	.4byte	0x86
	.4byte	.LFB64
	.4byte	.LFE64-.LFB64
	.uleb128 0x1
	.byte	0x9c
	.4byte	0x25e5
	.uleb128 0x20
	.ascii	"a\000"
	.byte	0x1
	.2byte	0x743
	.byte	0x19
	.4byte	0x135a
	.4byte	.LLST113
	.4byte	.LVUS113
	.uleb128 0x22
	.ascii	"c\000"
	.byte	0x1
	.2byte	0x745
	.byte	0x7
	.4byte	0x86
	.4byte	.LLST114
	.4byte	.LVUS114
	.uleb128 0x38
	.4byte	0x272a
	.4byte	.LBI234
	.2byte	.LVU1029
	.4byte	.Ldebug_ranges0+0x2a0
	.byte	0x1
	.2byte	0x756
	.byte	0x11
	.4byte	0x25db
	.uleb128 0x39
	.4byte	0x2747
	.4byte	.LLST115
	.4byte	.LVUS115
	.uleb128 0x39
	.4byte	0x273c
	.4byte	.LLST116
	.4byte	.LVUS116
	.uleb128 0x3f
	.4byte	0x26ac
	.4byte	.LBI235
	.2byte	.LVU1031
	.4byte	.Ldebug_ranges0+0x2a8
	.byte	0x1
	.2byte	0x676
	.byte	0xa
	.uleb128 0x39
	.4byte	0x26c9
	.4byte	.LLST117
	.4byte	.LVUS117
	.uleb128 0x39
	.4byte	0x26d6
	.4byte	.LLST117
	.4byte	.LVUS117
	.uleb128 0x39
	.4byte	0x26be
	.4byte	.LLST119
	.4byte	.LVUS119
	.uleb128 0x35
	.4byte	.Ldebug_ranges0+0x2a8
	.uleb128 0x3a
	.4byte	0x26e3
	.uleb128 0x2
	.byte	0x91
	.sleb128 -32
	.uleb128 0x40
	.4byte	0x26f0
	.4byte	.LLST120
	.4byte	.LVUS120
	.uleb128 0x41
	.4byte	0x26fc
	.4byte	.Ldebug_ranges0+0x2d0
	.4byte	0x24dd
	.uleb128 0x40
	.4byte	0x2701
	.4byte	.LLST121
	.4byte	.LVUS121
	.uleb128 0x38
	.4byte	0x3922
	.4byte	.LBI238
	.2byte	.LVU1065
	.4byte	.Ldebug_ranges0+0x2e8
	.byte	0x1
	.2byte	0x6b0
	.byte	0x4
	.4byte	0x249a
	.uleb128 0x39
	.4byte	0x3930
	.4byte	.LLST122
	.4byte	.LVUS122
	.uleb128 0x29
	.4byte	.LVL322
	.4byte	0x4115
	.uleb128 0x2a
	.uleb128 0x1
	.byte	0x50
	.uleb128 0x2
	.byte	0x74
	.sleb128 0
	.byte	0
	.byte	0
	.uleb128 0x2d
	.4byte	.LVL317
	.4byte	0x4586
	.uleb128 0x2d
	.4byte	.LVL318
	.4byte	0x4586
	.uleb128 0x2b
	.4byte	.LVL319
	.4byte	0x456e
	.4byte	0x24cc
	.uleb128 0x2a
	.uleb128 0x1
	.byte	0x50
	.uleb128 0x2
	.byte	0x74
	.sleb128 0
	.uleb128 0x2a
	.uleb128 0x1
	.byte	0x51
	.uleb128 0x2
	.byte	0x75
	.sleb128 0
	.uleb128 0x2a
	.uleb128 0x1
	.byte	0x52
	.uleb128 0x2
	.byte	0x8
	.byte	0x48
	.byte	0
	.uleb128 0x29
	.4byte	.LVL320
	.4byte	0x4586
	.uleb128 0x2a
	.uleb128 0x1
	.byte	0x50
	.uleb128 0x2
	.byte	0x75
	.sleb128 0
	.byte	0
	.byte	0
	.uleb128 0x41
	.4byte	0x270d
	.4byte	.Ldebug_ranges0+0x300
	.4byte	0x25bd
	.uleb128 0x3a
	.4byte	0x270e
	.uleb128 0x2
	.byte	0x91
	.sleb128 -28
	.uleb128 0x42
	.4byte	0x271b
	.4byte	.LBB244
	.4byte	.LBE244-.LBB244
	.4byte	0x258c
	.uleb128 0x40
	.4byte	0x271c
	.4byte	.LLST123
	.4byte	.LVUS123
	.uleb128 0x43
	.4byte	0x3922
	.4byte	.LBI245
	.2byte	.LVU1123
	.4byte	.LBB245
	.4byte	.LBE245-.LBB245
	.byte	0x1
	.2byte	0x700
	.byte	0x8
	.4byte	0x2549
	.uleb128 0x39
	.4byte	0x3930
	.4byte	.LLST124
	.4byte	.LVUS124
	.uleb128 0x29
	.4byte	.LVL334
	.4byte	0x4115
	.uleb128 0x2a
	.uleb128 0x1
	.byte	0x50
	.uleb128 0x2
	.byte	0x74
	.sleb128 0
	.byte	0
	.byte	0
	.uleb128 0x2d
	.4byte	.LVL330
	.4byte	0x4586
	.uleb128 0x2d
	.4byte	.LVL331
	.4byte	0x4586
	.uleb128 0x2b
	.4byte	.LVL332
	.4byte	0x456e
	.4byte	0x257b
	.uleb128 0x2a
	.uleb128 0x1
	.byte	0x50
	.uleb128 0x2
	.byte	0x74
	.sleb128 0
	.uleb128 0x2a
	.uleb128 0x1
	.byte	0x51
	.uleb128 0x2
	.byte	0x77
	.sleb128 0
	.uleb128 0x2a
	.uleb128 0x1
	.byte	0x52
	.uleb128 0x2
	.byte	0x8
	.byte	0x48
	.byte	0
	.uleb128 0x29
	.4byte	.LVL333
	.4byte	0x4586
	.uleb128 0x2a
	.uleb128 0x1
	.byte	0x50
	.uleb128 0x2
	.byte	0x77
	.sleb128 0
	.byte	0
	.byte	0
	.uleb128 0x44
	.4byte	.LVL327
	.uleb128 0x2
	.byte	0x77
	.sleb128 0
	.4byte	0x25aa
	.uleb128 0x2a
	.uleb128 0x1
	.byte	0x51
	.uleb128 0x1
	.byte	0x32
	.uleb128 0x2a
	.uleb128 0x1
	.byte	0x53
	.uleb128 0x1
	.byte	0x30
	.uleb128 0x2a
	.uleb128 0x2
	.byte	0x7d
	.sleb128 0
	.uleb128 0x2
	.byte	0x91
	.sleb128 -36
	.byte	0
	.uleb128 0x2d
	.4byte	.LVL339
	.4byte	0x457a
	.uleb128 0x2d
	.4byte	.LVL343
	.4byte	0x4586
	.byte	0
	.uleb128 0x2d
	.4byte	.LVL313
	.4byte	0x45ce
	.uleb128 0x45
	.4byte	.LVL324
	.uleb128 0x2a
	.uleb128 0x1
	.byte	0x51
	.uleb128 0x1
	.byte	0x33
	.uleb128 0x2a
	.uleb128 0x2
	.byte	0x7d
	.sleb128 0
	.uleb128 0x2
	.byte	0x91
	.sleb128 -40
	.byte	0
	.byte	0
	.byte	0
	.byte	0
	.uleb128 0x2d
	.4byte	.LVL341
	.4byte	0x457a
	.byte	0
	.uleb128 0x46
	.4byte	.LASF774
	.byte	0x1
	.2byte	0x71e
	.byte	0x1
	.4byte	0x86
	.4byte	.LFB63
	.4byte	.LFE63-.LFB63
	.uleb128 0x1
	.byte	0x9c
	.4byte	0x26ac
	.uleb128 0x20
	.ascii	"a\000"
	.byte	0x1
	.2byte	0x71e
	.byte	0x17
	.4byte	0x135a
	.4byte	.LLST13
	.4byte	.LVUS13
	.uleb128 0x28
	.ascii	"len\000"
	.byte	0x1
	.2byte	0x720
	.byte	0xa
	.4byte	0x94
	.uleb128 0x2
	.byte	0x91
	.sleb128 -20
	.uleb128 0x22
	.ascii	"rc\000"
	.byte	0x1
	.2byte	0x721
	.byte	0x7
	.4byte	0x86
	.4byte	.LLST14
	.4byte	.LVUS14
	.uleb128 0x25
	.4byte	.Ldebug_ranges0+0x18
	.4byte	0x267a
	.uleb128 0x23
	.4byte	.LASF738
	.byte	0x1
	.2byte	0x725
	.byte	0xe
	.4byte	0x94
	.4byte	.LLST15
	.4byte	.LVUS15
	.uleb128 0x2b
	.4byte	.LVL61
	.4byte	0x4592
	.4byte	0x2669
	.uleb128 0x2a
	.uleb128 0x1
	.byte	0x51
	.uleb128 0x2
	.byte	0x75
	.sleb128 0
	.byte	0
	.uleb128 0x29
	.4byte	.LVL64
	.4byte	0x457a
	.uleb128 0x2a
	.uleb128 0x1
	.byte	0x52
	.uleb128 0x2
	.byte	0x75
	.sleb128 0
	.byte	0
	.byte	0
	.uleb128 0x47
	.4byte	.LVL51
	.4byte	0x2690
	.uleb128 0x2a
	.uleb128 0x1
	.byte	0x51
	.uleb128 0x1
	.byte	0x34
	.uleb128 0x2a
	.uleb128 0x2
	.byte	0x7d
	.sleb128 0
	.uleb128 0x2
	.byte	0x91
	.sleb128 -28
	.byte	0
	.uleb128 0x2d
	.4byte	.LVL53
	.4byte	0x457a
	.uleb128 0x2d
	.4byte	.LVL57
	.4byte	0x457a
	.uleb128 0x2d
	.4byte	.LVL67
	.4byte	0x457a
	.byte	0
	.uleb128 0x48
	.4byte	.LASF742
	.byte	0x1
	.2byte	0x67f
	.byte	0x1
	.4byte	0x86
	.byte	0x1
	.4byte	0x272a
	.uleb128 0x33
	.ascii	"a\000"
	.byte	0x1
	.2byte	0x67f
	.byte	0x1b
	.4byte	0x135a
	.uleb128 0x3d
	.4byte	.LASF739
	.byte	0x1
	.2byte	0x67f
	.byte	0x22
	.4byte	0x86
	.uleb128 0x3d
	.4byte	.LASF740
	.byte	0x1
	.2byte	0x67f
	.byte	0x3c
	.4byte	0x94
	.uleb128 0x26
	.ascii	"len\000"
	.byte	0x1
	.2byte	0x681
	.byte	0xa
	.4byte	0x94
	.uleb128 0x26
	.ascii	"rc\000"
	.byte	0x1
	.2byte	0x682
	.byte	0x7
	.4byte	0x86
	.uleb128 0x49
	.4byte	0x270d
	.uleb128 0x26
	.ascii	"b\000"
	.byte	0x1
	.2byte	0x6a8
	.byte	0xc
	.4byte	0x135a
	.byte	0
	.uleb128 0x34
	.uleb128 0x3e
	.4byte	.LASF741
	.byte	0x1
	.2byte	0x6e0
	.byte	0xb
	.4byte	0x94
	.uleb128 0x34
	.uleb128 0x26
	.ascii	"b\000"
	.byte	0x1
	.2byte	0x6f7
	.byte	0x10
	.4byte	0x135a
	.byte	0
	.byte	0
	.byte	0
	.uleb128 0x48
	.4byte	.LASF743
	.byte	0x1
	.2byte	0x674
	.byte	0x1
	.4byte	0x86
	.byte	0x1
	.4byte	0x2755
	.uleb128 0x33
	.ascii	"a\000"
	.byte	0x1
	.2byte	0x674
	.byte	0x14
	.4byte	0x135a
	.uleb128 0x3d
	.4byte	.LASF739
	.byte	0x1
	.2byte	0x674
	.byte	0x1b
	.4byte	0x86
	.byte	0
	.uleb128 0x1e
	.4byte	.LASF744
	.byte	0x1
	.2byte	0x618
	.byte	0x1
	.4byte	0x86
	.4byte	.LFB60
	.4byte	.LFE60-.LFB60
	.uleb128 0x1
	.byte	0x9c
	.4byte	0x2a0b
	.uleb128 0x20
	.ascii	"a\000"
	.byte	0x1
	.2byte	0x618
	.byte	0x1b
	.4byte	0x135a
	.4byte	.LLST104
	.4byte	.LVUS104
	.uleb128 0x20
	.ascii	"f\000"
	.byte	0x1
	.2byte	0x618
	.byte	0x24
	.4byte	0x14a9
	.4byte	.LLST105
	.4byte	.LVUS105
	.uleb128 0x20
	.ascii	"ov\000"
	.byte	0x1
	.2byte	0x61a
	.byte	0x19
	.4byte	0xac
	.4byte	.LLST106
	.4byte	.LVUS106
	.uleb128 0x22
	.ascii	"b\000"
	.byte	0x1
	.2byte	0x61d
	.byte	0xb
	.4byte	0x135a
	.4byte	.LLST107
	.4byte	.LVUS107
	.uleb128 0x37
	.4byte	.LASF741
	.byte	0x1
	.2byte	0x61e
	.byte	0xa
	.4byte	0x94
	.uleb128 0x3
	.byte	0x91
	.sleb128 -80
	.uleb128 0x22
	.ascii	"rc\000"
	.byte	0x1
	.2byte	0x61f
	.byte	0x7
	.4byte	0x86
	.4byte	.LLST108
	.4byte	.LVUS108
	.uleb128 0x37
	.4byte	.LASF729
	.byte	0x1
	.2byte	0x620
	.byte	0x8
	.4byte	0x201e
	.uleb128 0x3
	.byte	0x91
	.sleb128 -72
	.uleb128 0x38
	.4byte	0x394b
	.4byte	.LBI213
	.2byte	.LVU951
	.4byte	.Ldebug_ranges0+0x278
	.byte	0x1
	.2byte	0x623
	.byte	0x5
	.4byte	0x28a7
	.uleb128 0x39
	.4byte	0x3968
	.4byte	.LLST109
	.4byte	.LVUS109
	.uleb128 0x39
	.4byte	0x395d
	.4byte	.LLST110
	.4byte	.LVUS110
	.uleb128 0x35
	.4byte	.Ldebug_ranges0+0x278
	.uleb128 0x3a
	.4byte	0x3975
	.uleb128 0x3
	.byte	0x91
	.sleb128 -76
	.uleb128 0x43
	.4byte	0x394b
	.4byte	.LBI215
	.2byte	.LVU967
	.4byte	.LBB215
	.4byte	.LBE215-.LBB215
	.byte	0x1
	.2byte	0x3ab
	.byte	0x1
	.4byte	0x2883
	.uleb128 0x39
	.4byte	0x395d
	.4byte	.LLST111
	.4byte	.LVUS111
	.uleb128 0x39
	.4byte	0x3968
	.4byte	.LLST112
	.4byte	.LVUS112
	.uleb128 0x3b
	.4byte	0x3975
	.uleb128 0x29
	.4byte	.LVL285
	.4byte	0x456e
	.uleb128 0x2a
	.uleb128 0x1
	.byte	0x50
	.uleb128 0x3
	.byte	0x91
	.sleb128 -80
	.uleb128 0x2a
	.uleb128 0x1
	.byte	0x52
	.uleb128 0x1
	.byte	0x32
	.byte	0
	.byte	0
	.uleb128 0x3c
	.4byte	.LVL278
	.uleb128 0x2
	.byte	0x74
	.sleb128 0
	.uleb128 0x2a
	.uleb128 0x1
	.byte	0x51
	.uleb128 0x1
	.byte	0x35
	.uleb128 0x2a
	.uleb128 0x1
	.byte	0x52
	.uleb128 0x1
	.byte	0x30
	.uleb128 0x2a
	.uleb128 0x1
	.byte	0x53
	.uleb128 0x3
	.byte	0x91
	.sleb128 -80
	.uleb128 0x2a
	.uleb128 0x2
	.byte	0x7d
	.sleb128 0
	.uleb128 0x3
	.byte	0x91
	.sleb128 -84
	.byte	0
	.byte	0
	.byte	0
	.uleb128 0x2d
	.4byte	.LVL264
	.4byte	0x457a
	.uleb128 0x44
	.4byte	.LVL270
	.uleb128 0x2
	.byte	0x75
	.sleb128 0
	.4byte	0x28cf
	.uleb128 0x2a
	.uleb128 0x1
	.byte	0x51
	.uleb128 0x1
	.byte	0x32
	.uleb128 0x2a
	.uleb128 0x1
	.byte	0x53
	.uleb128 0x1
	.byte	0x30
	.uleb128 0x2a
	.uleb128 0x2
	.byte	0x7d
	.sleb128 0
	.uleb128 0x3
	.byte	0x91
	.sleb128 -88
	.byte	0
	.uleb128 0x2d
	.4byte	.LVL272
	.4byte	0x457a
	.uleb128 0x2d
	.4byte	.LVL275
	.4byte	0x457a
	.uleb128 0x2b
	.4byte	.LVL279
	.4byte	0x457a
	.4byte	0x2901
	.uleb128 0x2a
	.uleb128 0x1
	.byte	0x51
	.uleb128 0x2
	.byte	0x75
	.sleb128 0
	.uleb128 0x2a
	.uleb128 0x1
	.byte	0x52
	.uleb128 0x2
	.byte	0x7a
	.sleb128 0
	.uleb128 0x2a
	.uleb128 0x1
	.byte	0x53
	.uleb128 0x2
	.byte	0x7b
	.sleb128 0
	.byte	0
	.uleb128 0x2b
	.4byte	.LVL281
	.4byte	0x25e5
	.4byte	0x2915
	.uleb128 0x2a
	.uleb128 0x1
	.byte	0x50
	.uleb128 0x2
	.byte	0x74
	.sleb128 0
	.byte	0
	.uleb128 0x2d
	.4byte	.LVL283
	.4byte	0x4586
	.uleb128 0x2d
	.4byte	.LVL288
	.4byte	0x4586
	.uleb128 0x2d
	.4byte	.LVL289
	.4byte	0x4586
	.uleb128 0x2b
	.4byte	.LVL290
	.4byte	0x456e
	.4byte	0x2950
	.uleb128 0x2a
	.uleb128 0x1
	.byte	0x50
	.uleb128 0x2
	.byte	0x76
	.sleb128 0
	.uleb128 0x2a
	.uleb128 0x1
	.byte	0x51
	.uleb128 0x2
	.byte	0x75
	.sleb128 0
	.uleb128 0x2a
	.uleb128 0x1
	.byte	0x52
	.uleb128 0x2
	.byte	0x8
	.byte	0x48
	.byte	0
	.uleb128 0x2b
	.4byte	.LVL291
	.4byte	0x4586
	.4byte	0x2964
	.uleb128 0x2a
	.uleb128 0x1
	.byte	0x50
	.uleb128 0x2
	.byte	0x75
	.sleb128 0
	.byte	0
	.uleb128 0x2b
	.4byte	.LVL292
	.4byte	0x457a
	.4byte	0x2978
	.uleb128 0x2a
	.uleb128 0x1
	.byte	0x51
	.uleb128 0x2
	.byte	0x8
	.byte	0x48
	.byte	0
	.uleb128 0x2d
	.4byte	.LVL293
	.4byte	0x457a
	.uleb128 0x2d
	.4byte	.LVL295
	.4byte	0x457a
	.uleb128 0x2d
	.4byte	.LVL296
	.4byte	0x457a
	.uleb128 0x2b
	.4byte	.LVL299
	.4byte	0x457a
	.4byte	0x29a7
	.uleb128 0x2a
	.uleb128 0x1
	.byte	0x50
	.uleb128 0x2
	.byte	0x74
	.sleb128 0
	.byte	0
	.uleb128 0x2d
	.4byte	.LVL300
	.4byte	0x4586
	.uleb128 0x2d
	.4byte	.LVL301
	.4byte	0x4586
	.uleb128 0x2b
	.4byte	.LVL302
	.4byte	0x457a
	.4byte	0x29cd
	.uleb128 0x2a
	.uleb128 0x1
	.byte	0x51
	.uleb128 0x2
	.byte	0x8
	.byte	0x48
	.byte	0
	.uleb128 0x2b
	.4byte	.LVL303
	.4byte	0x456e
	.4byte	0x29ed
	.uleb128 0x2a
	.uleb128 0x1
	.byte	0x50
	.uleb128 0x2
	.byte	0x76
	.sleb128 0
	.uleb128 0x2a
	.uleb128 0x1
	.byte	0x51
	.uleb128 0x2
	.byte	0x74
	.sleb128 0
	.uleb128 0x2a
	.uleb128 0x1
	.byte	0x52
	.uleb128 0x2
	.byte	0x8
	.byte	0x48
	.byte	0
	.uleb128 0x2b
	.4byte	.LVL304
	.4byte	0x4586
	.4byte	0x2a01
	.uleb128 0x2a
	.uleb128 0x1
	.byte	0x50
	.uleb128 0x2
	.byte	0x74
	.sleb128 0
	.byte	0
	.uleb128 0x2d
	.4byte	.LVL305
	.4byte	0x457a
	.byte	0
	.uleb128 0x1e
	.4byte	.LASF745
	.byte	0x1
	.2byte	0x586
	.byte	0x1
	.4byte	0x86
	.4byte	.LFB59
	.4byte	.LFE59-.LFB59
	.uleb128 0x1
	.byte	0x9c
	.4byte	0x2c45
	.uleb128 0x20
	.ascii	"a\000"
	.byte	0x1
	.2byte	0x586
	.byte	0x1d
	.4byte	0x135a
	.4byte	.LLST90
	.4byte	.LVUS90
	.uleb128 0x20
	.ascii	"f\000"
	.byte	0x1
	.2byte	0x587
	.byte	0xd
	.4byte	0x14a9
	.4byte	.LLST91
	.4byte	.LVUS91
	.uleb128 0x20
	.ascii	"ov\000"
	.byte	0x1
	.2byte	0x589
	.byte	0xd
	.4byte	0xac
	.4byte	.LLST92
	.4byte	.LVUS92
	.uleb128 0x1f
	.4byte	.LASF746
	.byte	0x1
	.2byte	0x589
	.byte	0x15
	.4byte	0x86
	.4byte	.LLST93
	.4byte	.LVUS93
	.uleb128 0x22
	.ascii	"b\000"
	.byte	0x1
	.2byte	0x58c
	.byte	0xb
	.4byte	0x135a
	.4byte	.LLST94
	.4byte	.LVUS94
	.uleb128 0x37
	.4byte	.LASF741
	.byte	0x1
	.2byte	0x58d
	.byte	0xa
	.4byte	0x94
	.uleb128 0x3
	.byte	0x91
	.sleb128 -72
	.uleb128 0x22
	.ascii	"rc\000"
	.byte	0x1
	.2byte	0x58e
	.byte	0x7
	.4byte	0x86
	.4byte	.LLST95
	.4byte	.LVUS95
	.uleb128 0x25
	.4byte	.Ldebug_ranges0+0x240
	.4byte	0x2bd6
	.uleb128 0x37
	.4byte	.LASF729
	.byte	0x1
	.2byte	0x607
	.byte	0xc
	.4byte	0x201e
	.uleb128 0x2
	.byte	0x91
	.sleb128 -64
	.uleb128 0x38
	.4byte	0x394b
	.4byte	.LBI198
	.2byte	.LVU859
	.4byte	.Ldebug_ranges0+0x258
	.byte	0x1
	.2byte	0x608
	.byte	0x7
	.4byte	0x2b80
	.uleb128 0x39
	.4byte	0x3968
	.4byte	.LLST96
	.4byte	.LVUS96
	.uleb128 0x39
	.4byte	0x395d
	.4byte	.LLST97
	.4byte	.LVUS97
	.uleb128 0x35
	.4byte	.Ldebug_ranges0+0x258
	.uleb128 0x3a
	.4byte	0x3975
	.uleb128 0x3
	.byte	0x91
	.sleb128 -68
	.uleb128 0x43
	.4byte	0x394b
	.4byte	.LBI200
	.2byte	.LVU878
	.4byte	.LBB200
	.4byte	.LBE200-.LBB200
	.byte	0x1
	.2byte	0x3ab
	.byte	0x1
	.4byte	0x2b56
	.uleb128 0x39
	.4byte	0x395d
	.4byte	.LLST98
	.4byte	.LVUS98
	.uleb128 0x39
	.4byte	0x3968
	.4byte	.LLST99
	.4byte	.LVUS99
	.uleb128 0x3b
	.4byte	0x3975
	.uleb128 0x29
	.4byte	.LVL258
	.4byte	0x456e
	.uleb128 0x2a
	.uleb128 0x1
	.byte	0x50
	.uleb128 0x3
	.byte	0x91
	.sleb128 -72
	.uleb128 0x2a
	.uleb128 0x1
	.byte	0x52
	.uleb128 0x1
	.byte	0x32
	.byte	0
	.byte	0
	.uleb128 0x3c
	.4byte	.LVL251
	.uleb128 0x2
	.byte	0x75
	.sleb128 0
	.uleb128 0x2a
	.uleb128 0x1
	.byte	0x50
	.uleb128 0x2
	.byte	0x77
	.sleb128 0
	.uleb128 0x2a
	.uleb128 0x1
	.byte	0x51
	.uleb128 0x1
	.byte	0x35
	.uleb128 0x2a
	.uleb128 0x1
	.byte	0x52
	.uleb128 0x1
	.byte	0x30
	.uleb128 0x2a
	.uleb128 0x1
	.byte	0x53
	.uleb128 0x3
	.byte	0x91
	.sleb128 -72
	.uleb128 0x2a
	.uleb128 0x2
	.byte	0x7d
	.sleb128 0
	.uleb128 0x3
	.byte	0x91
	.sleb128 -76
	.byte	0
	.byte	0
	.byte	0
	.uleb128 0x43
	.4byte	0x3922
	.4byte	.LBI205
	.2byte	.LVU869
	.4byte	.LBB205
	.4byte	.LBE205-.LBB205
	.byte	0x1
	.2byte	0x60a
	.byte	0x7
	.4byte	0x2bb9
	.uleb128 0x39
	.4byte	0x3930
	.4byte	.LLST100
	.4byte	.LVUS100
	.uleb128 0x29
	.4byte	.LVL253
	.4byte	0x4115
	.uleb128 0x2a
	.uleb128 0x1
	.byte	0x50
	.uleb128 0x2
	.byte	0x74
	.sleb128 0
	.byte	0
	.byte	0
	.uleb128 0x29
	.4byte	.LVL252
	.4byte	0x457a
	.uleb128 0x2a
	.uleb128 0x1
	.byte	0x51
	.uleb128 0x2
	.byte	0x79
	.sleb128 0
	.uleb128 0x2a
	.uleb128 0x1
	.byte	0x52
	.uleb128 0x2
	.byte	0x76
	.sleb128 0
	.uleb128 0x2a
	.uleb128 0x1
	.byte	0x53
	.uleb128 0x2
	.byte	0x77
	.sleb128 0
	.byte	0
	.byte	0
	.uleb128 0x2b
	.4byte	.LVL239
	.4byte	0x45aa
	.4byte	0x2bea
	.uleb128 0x2a
	.uleb128 0x1
	.byte	0x50
	.uleb128 0x2
	.byte	0x8
	.byte	0x48
	.byte	0
	.uleb128 0x2b
	.4byte	.LVL241
	.4byte	0x456e
	.4byte	0x2c0a
	.uleb128 0x2a
	.uleb128 0x1
	.byte	0x50
	.uleb128 0x2
	.byte	0x76
	.sleb128 0
	.uleb128 0x2a
	.uleb128 0x1
	.byte	0x51
	.uleb128 0x2
	.byte	0x74
	.sleb128 0
	.uleb128 0x2a
	.uleb128 0x1
	.byte	0x52
	.uleb128 0x2
	.byte	0x8
	.byte	0x48
	.byte	0
	.uleb128 0x2d
	.4byte	.LVL242
	.4byte	0x45aa
	.uleb128 0x44
	.4byte	.LVL245
	.uleb128 0x2
	.byte	0x75
	.sleb128 0
	.4byte	0x2c32
	.uleb128 0x2a
	.uleb128 0x1
	.byte	0x51
	.uleb128 0x1
	.byte	0x31
	.uleb128 0x2a
	.uleb128 0x1
	.byte	0x53
	.uleb128 0x1
	.byte	0x30
	.uleb128 0x2a
	.uleb128 0x2
	.byte	0x7d
	.sleb128 0
	.uleb128 0x3
	.byte	0x91
	.sleb128 -80
	.byte	0
	.uleb128 0x2d
	.4byte	.LVL248
	.4byte	0x457a
	.uleb128 0x2d
	.4byte	.LVL256
	.4byte	0x25e5
	.byte	0
	.uleb128 0x1e
	.4byte	.LASF747
	.byte	0x1
	.2byte	0x57c
	.byte	0x1
	.4byte	0x86
	.4byte	.LFB58
	.4byte	.LFE58-.LFB58
	.uleb128 0x1
	.byte	0x9c
	.4byte	0x2cbf
	.uleb128 0x20
	.ascii	"a\000"
	.byte	0x1
	.2byte	0x57c
	.byte	0x1c
	.4byte	0x135a
	.4byte	.LLST101
	.4byte	.LVUS101
	.uleb128 0x20
	.ascii	"f\000"
	.byte	0x1
	.2byte	0x57d
	.byte	0xc
	.4byte	0x14a9
	.4byte	.LLST102
	.4byte	.LVUS102
	.uleb128 0x20
	.ascii	"ov\000"
	.byte	0x1
	.2byte	0x57f
	.byte	0x1a
	.4byte	0xac
	.4byte	.LLST103
	.4byte	.LVUS103
	.uleb128 0x2f
	.4byte	.LVL260
	.4byte	0x2a0b
	.uleb128 0x2a
	.uleb128 0x1
	.byte	0x50
	.uleb128 0x3
	.byte	0xf3
	.uleb128 0x1
	.byte	0x50
	.uleb128 0x2a
	.uleb128 0x1
	.byte	0x51
	.uleb128 0x3
	.byte	0xf3
	.uleb128 0x1
	.byte	0x51
	.uleb128 0x2a
	.uleb128 0x1
	.byte	0x52
	.uleb128 0x3
	.byte	0xf3
	.uleb128 0x1
	.byte	0x52
	.uleb128 0x2a
	.uleb128 0x1
	.byte	0x53
	.uleb128 0x1
	.byte	0x30
	.byte	0
	.byte	0
	.uleb128 0x1e
	.4byte	.LASF748
	.byte	0x1
	.2byte	0x510
	.byte	0x1
	.4byte	0x86
	.4byte	.LFB57
	.4byte	.LFE57-.LFB57
	.uleb128 0x1
	.byte	0x9c
	.4byte	0x30ff
	.uleb128 0x20
	.ascii	"a\000"
	.byte	0x1
	.2byte	0x510
	.byte	0x16
	.4byte	0x135a
	.4byte	.LLST63
	.4byte	.LVUS63
	.uleb128 0x20
	.ascii	"cmd\000"
	.byte	0x1
	.2byte	0x510
	.byte	0x27
	.4byte	0x1323
	.4byte	.LLST64
	.4byte	.LVUS64
	.uleb128 0x1f
	.4byte	.LASF749
	.byte	0x1
	.2byte	0x510
	.byte	0x30
	.4byte	0x86
	.4byte	.LLST65
	.4byte	.LVUS65
	.uleb128 0x1f
	.4byte	.LASF750
	.byte	0x1
	.2byte	0x510
	.byte	0x3e
	.4byte	0xac
	.4byte	.LLST66
	.4byte	.LVUS66
	.uleb128 0x37
	.4byte	.LASF729
	.byte	0x1
	.2byte	0x513
	.byte	0x8
	.4byte	0x201e
	.uleb128 0x3
	.byte	0x91
	.sleb128 -72
	.uleb128 0x27
	.4byte	.LBB159
	.4byte	.LBE159-.LBB159
	.4byte	0x2d56
	.uleb128 0x26
	.ascii	"b\000"
	.byte	0x1
	.2byte	0x521
	.byte	0x19
	.4byte	0x1770
	.byte	0
	.uleb128 0x27
	.4byte	.LBB171
	.4byte	.LBE171-.LBB171
	.4byte	0x2d6f
	.uleb128 0x26
	.ascii	"b\000"
	.byte	0x1
	.2byte	0x544
	.byte	0x19
	.4byte	0x1770
	.byte	0
	.uleb128 0x27
	.4byte	.LBB149
	.4byte	.LBE149-.LBB149
	.4byte	0x2dce
	.uleb128 0x22
	.ascii	"fcx\000"
	.byte	0x1
	.2byte	0x56b
	.byte	0x1e
	.4byte	0x1770
	.4byte	.LLST71
	.4byte	.LVUS71
	.uleb128 0x28
	.ascii	"len\000"
	.byte	0x1
	.2byte	0x56c
	.byte	0x12
	.4byte	0x94
	.uleb128 0x3
	.byte	0x91
	.sleb128 -76
	.uleb128 0x2d
	.4byte	.LVL180
	.4byte	0x457a
	.uleb128 0x29
	.4byte	.LVL182
	.4byte	0x15bd
	.uleb128 0x2a
	.uleb128 0x1
	.byte	0x51
	.uleb128 0x1
	.byte	0x37
	.uleb128 0x2a
	.uleb128 0x1
	.byte	0x52
	.uleb128 0x1
	.byte	0x30
	.uleb128 0x2a
	.uleb128 0x1
	.byte	0x53
	.uleb128 0x2
	.byte	0x77
	.sleb128 0
	.uleb128 0x2a
	.uleb128 0x2
	.byte	0x7d
	.sleb128 0
	.uleb128 0x3
	.byte	0x91
	.sleb128 -84
	.byte	0
	.byte	0
	.uleb128 0x38
	.4byte	0x394b
	.4byte	.LBI140
	.2byte	.LVU572
	.4byte	.Ldebug_ranges0+0x168
	.byte	0x1
	.2byte	0x566
	.byte	0x2
	.4byte	0x2e83
	.uleb128 0x39
	.4byte	0x3968
	.4byte	.LLST67
	.4byte	.LVUS67
	.uleb128 0x39
	.4byte	0x395d
	.4byte	.LLST68
	.4byte	.LVUS68
	.uleb128 0x35
	.4byte	.Ldebug_ranges0+0x168
	.uleb128 0x3a
	.4byte	0x3975
	.uleb128 0x3
	.byte	0x91
	.sleb128 -76
	.uleb128 0x43
	.4byte	0x394b
	.4byte	.LBI142
	.2byte	.LVU709
	.4byte	.LBB142
	.4byte	.LBE142-.LBB142
	.byte	0x1
	.2byte	0x3ab
	.byte	0x1
	.4byte	0x2e5e
	.uleb128 0x39
	.4byte	0x395d
	.4byte	.LLST69
	.4byte	.LVUS69
	.uleb128 0x39
	.4byte	0x3968
	.4byte	.LLST70
	.4byte	.LVUS70
	.uleb128 0x3b
	.4byte	0x3975
	.uleb128 0x29
	.4byte	.LVL217
	.4byte	0x456e
	.uleb128 0x2a
	.uleb128 0x1
	.byte	0x50
	.uleb128 0x3
	.byte	0x91
	.sleb128 -80
	.uleb128 0x2a
	.uleb128 0x1
	.byte	0x52
	.uleb128 0x1
	.byte	0x32
	.byte	0
	.byte	0
	.uleb128 0x3c
	.4byte	.LVL178
	.uleb128 0x2
	.byte	0x7a
	.sleb128 0
	.uleb128 0x2a
	.uleb128 0x1
	.byte	0x51
	.uleb128 0x2
	.byte	0x75
	.sleb128 0
	.uleb128 0x2a
	.uleb128 0x1
	.byte	0x52
	.uleb128 0x1
	.byte	0x30
	.uleb128 0x2a
	.uleb128 0x1
	.byte	0x53
	.uleb128 0x3
	.byte	0x91
	.sleb128 -80
	.uleb128 0x2a
	.uleb128 0x2
	.byte	0x7d
	.sleb128 0
	.uleb128 0x3
	.byte	0x91
	.sleb128 -84
	.byte	0
	.byte	0
	.byte	0
	.uleb128 0x38
	.4byte	0x394b
	.4byte	.LBI150
	.2byte	.LVU622
	.4byte	.Ldebug_ranges0+0x198
	.byte	0x1
	.2byte	0x51b
	.byte	0x2
	.4byte	0x2f37
	.uleb128 0x39
	.4byte	0x3968
	.4byte	.LLST72
	.4byte	.LVUS72
	.uleb128 0x39
	.4byte	0x395d
	.4byte	.LLST73
	.4byte	.LVUS73
	.uleb128 0x35
	.4byte	.Ldebug_ranges0+0x198
	.uleb128 0x3a
	.4byte	0x3975
	.uleb128 0x3
	.byte	0x91
	.sleb128 -76
	.uleb128 0x43
	.4byte	0x394b
	.4byte	.LBI152
	.2byte	.LVU686
	.4byte	.LBB152
	.4byte	.LBE152-.LBB152
	.byte	0x1
	.2byte	0x3ab
	.byte	0x1
	.4byte	0x2f13
	.uleb128 0x39
	.4byte	0x395d
	.4byte	.LLST74
	.4byte	.LVUS74
	.uleb128 0x39
	.4byte	0x3968
	.4byte	.LLST75
	.4byte	.LVUS75
	.uleb128 0x3b
	.4byte	0x3975
	.uleb128 0x29
	.4byte	.LVL207
	.4byte	0x456e
	.uleb128 0x2a
	.uleb128 0x1
	.byte	0x50
	.uleb128 0x3
	.byte	0x91
	.sleb128 -80
	.uleb128 0x2a
	.uleb128 0x1
	.byte	0x52
	.uleb128 0x1
	.byte	0x32
	.byte	0
	.byte	0
	.uleb128 0x3c
	.4byte	.LVL192
	.uleb128 0x2
	.byte	0x79
	.sleb128 0
	.uleb128 0x2a
	.uleb128 0x1
	.byte	0x51
	.uleb128 0x1
	.byte	0x35
	.uleb128 0x2a
	.uleb128 0x1
	.byte	0x52
	.uleb128 0x1
	.byte	0x30
	.uleb128 0x2a
	.uleb128 0x1
	.byte	0x53
	.uleb128 0x3
	.byte	0x91
	.sleb128 -80
	.uleb128 0x2a
	.uleb128 0x2
	.byte	0x7d
	.sleb128 0
	.uleb128 0x3
	.byte	0x91
	.sleb128 -84
	.byte	0
	.byte	0
	.byte	0
	.uleb128 0x43
	.4byte	0x4021
	.4byte	.LBI160
	.2byte	.LVU645
	.4byte	.LBB160
	.4byte	.LBE160-.LBB160
	.byte	0x1
	.2byte	0x55b
	.byte	0x12
	.4byte	0x2f82
	.uleb128 0x39
	.4byte	0x4032
	.4byte	.LLST76
	.4byte	.LVUS76
	.uleb128 0x40
	.4byte	0x403e
	.4byte	.LLST77
	.4byte	.LVUS77
	.uleb128 0x3b
	.4byte	0x404a
	.uleb128 0x29
	.4byte	.LVL198
	.4byte	0x457a
	.uleb128 0x2a
	.uleb128 0x1
	.byte	0x51
	.uleb128 0x2
	.byte	0x77
	.sleb128 0
	.byte	0
	.byte	0
	.uleb128 0x38
	.4byte	0x394b
	.4byte	.LBI162
	.2byte	.LVU660
	.4byte	.Ldebug_ranges0+0x1c8
	.byte	0x1
	.2byte	0x53d
	.byte	0x2
	.4byte	0x3036
	.uleb128 0x39
	.4byte	0x3968
	.4byte	.LLST78
	.4byte	.LVUS78
	.uleb128 0x39
	.4byte	0x395d
	.4byte	.LLST79
	.4byte	.LVUS79
	.uleb128 0x35
	.4byte	.Ldebug_ranges0+0x1c8
	.uleb128 0x3a
	.4byte	0x3975
	.uleb128 0x3
	.byte	0x91
	.sleb128 -76
	.uleb128 0x43
	.4byte	0x394b
	.4byte	.LBI164
	.2byte	.LVU700
	.4byte	.LBB164
	.4byte	.LBE164-.LBB164
	.byte	0x1
	.2byte	0x3ab
	.byte	0x1
	.4byte	0x3012
	.uleb128 0x39
	.4byte	0x395d
	.4byte	.LLST80
	.4byte	.LVUS80
	.uleb128 0x39
	.4byte	0x3968
	.4byte	.LLST81
	.4byte	.LVUS81
	.uleb128 0x3b
	.4byte	0x3975
	.uleb128 0x29
	.4byte	.LVL214
	.4byte	0x456e
	.uleb128 0x2a
	.uleb128 0x1
	.byte	0x50
	.uleb128 0x3
	.byte	0x91
	.sleb128 -80
	.uleb128 0x2a
	.uleb128 0x1
	.byte	0x52
	.uleb128 0x1
	.byte	0x32
	.byte	0
	.byte	0
	.uleb128 0x3c
	.4byte	.LVL201
	.uleb128 0x2
	.byte	0x79
	.sleb128 0
	.uleb128 0x2a
	.uleb128 0x1
	.byte	0x51
	.uleb128 0x1
	.byte	0x35
	.uleb128 0x2a
	.uleb128 0x1
	.byte	0x52
	.uleb128 0x1
	.byte	0x30
	.uleb128 0x2a
	.uleb128 0x1
	.byte	0x53
	.uleb128 0x3
	.byte	0x91
	.sleb128 -80
	.uleb128 0x2a
	.uleb128 0x2
	.byte	0x7d
	.sleb128 0
	.uleb128 0x3
	.byte	0x91
	.sleb128 -84
	.byte	0
	.byte	0
	.byte	0
	.uleb128 0x2b
	.4byte	.LVL176
	.4byte	0x457a
	.4byte	0x3056
	.uleb128 0x2a
	.uleb128 0x1
	.byte	0x51
	.uleb128 0x2
	.byte	0x75
	.sleb128 0
	.uleb128 0x2a
	.uleb128 0x1
	.byte	0x52
	.uleb128 0x2
	.byte	0x76
	.sleb128 0
	.uleb128 0x2a
	.uleb128 0x1
	.byte	0x53
	.uleb128 0x2
	.byte	0x77
	.sleb128 0
	.byte	0
	.uleb128 0x2b
	.4byte	.LVL179
	.4byte	0x457a
	.4byte	0x3076
	.uleb128 0x2a
	.uleb128 0x1
	.byte	0x51
	.uleb128 0x2
	.byte	0x7b
	.sleb128 0
	.uleb128 0x2a
	.uleb128 0x1
	.byte	0x52
	.uleb128 0x2
	.byte	0x79
	.sleb128 0
	.uleb128 0x2a
	.uleb128 0x1
	.byte	0x53
	.uleb128 0x2
	.byte	0x75
	.sleb128 0
	.byte	0
	.uleb128 0x2b
	.4byte	.LVL185
	.4byte	0x4056
	.4byte	0x308a
	.uleb128 0x2a
	.uleb128 0x1
	.byte	0x50
	.uleb128 0x2
	.byte	0x77
	.sleb128 0
	.byte	0
	.uleb128 0x2b
	.4byte	.LVL193
	.4byte	0x457a
	.4byte	0x30b1
	.uleb128 0x2a
	.uleb128 0x1
	.byte	0x51
	.uleb128 0x2
	.byte	0x7a
	.sleb128 0
	.uleb128 0x2a
	.uleb128 0x1
	.byte	0x52
	.uleb128 0x2
	.byte	0x77
	.sleb128 0
	.uleb128 0x2a
	.uleb128 0x1
	.byte	0x53
	.uleb128 0x2
	.byte	0x75
	.sleb128 0
	.uleb128 0x2a
	.uleb128 0x2
	.byte	0x7d
	.sleb128 0
	.uleb128 0x2
	.byte	0x76
	.sleb128 0
	.byte	0
	.uleb128 0x2d
	.4byte	.LVL195
	.4byte	0x457a
	.uleb128 0x2b
	.4byte	.LVL196
	.4byte	0x457a
	.4byte	0x30ce
	.uleb128 0x2a
	.uleb128 0x1
	.byte	0x51
	.uleb128 0x2
	.byte	0x77
	.sleb128 0
	.byte	0
	.uleb128 0x2b
	.4byte	.LVL202
	.4byte	0x457a
	.4byte	0x30f5
	.uleb128 0x2a
	.uleb128 0x1
	.byte	0x51
	.uleb128 0x2
	.byte	0x7a
	.sleb128 0
	.uleb128 0x2a
	.uleb128 0x1
	.byte	0x52
	.uleb128 0x2
	.byte	0x77
	.sleb128 0
	.uleb128 0x2a
	.uleb128 0x1
	.byte	0x53
	.uleb128 0x2
	.byte	0x75
	.sleb128 0
	.uleb128 0x2a
	.uleb128 0x2
	.byte	0x7d
	.sleb128 0
	.uleb128 0x2
	.byte	0x76
	.sleb128 0
	.byte	0
	.uleb128 0x2d
	.4byte	.LVL219
	.4byte	0x457a
	.byte	0
	.uleb128 0x1e
	.4byte	.LASF751
	.byte	0x1
	.2byte	0x4d1
	.byte	0x1
	.4byte	0x135a
	.4byte	.LFB56
	.4byte	.LFE56-.LFB56
	.uleb128 0x1
	.byte	0x9c
	.4byte	0x3276
	.uleb128 0x20
	.ascii	"fd\000"
	.byte	0x1
	.2byte	0x4d1
	.byte	0x13
	.4byte	0x86
	.4byte	.LLST82
	.4byte	.LVUS82
	.uleb128 0x1f
	.4byte	.LASF752
	.byte	0x1
	.2byte	0x4d1
	.byte	0x23
	.4byte	0x13e
	.4byte	.LLST83
	.4byte	.LVUS83
	.uleb128 0x3f
	.4byte	0x3276
	.4byte	.LBI183
	.2byte	.LVU723
	.4byte	.Ldebug_ranges0+0x1f8
	.byte	0x1
	.2byte	0x4d3
	.byte	0xa
	.uleb128 0x39
	.4byte	0x32a1
	.4byte	.LLST84
	.4byte	.LVUS84
	.uleb128 0x39
	.4byte	0x3294
	.4byte	.LLST85
	.4byte	.LVUS85
	.uleb128 0x39
	.4byte	0x3288
	.4byte	.LLST86
	.4byte	.LVUS86
	.uleb128 0x35
	.4byte	.Ldebug_ranges0+0x218
	.uleb128 0x40
	.4byte	0x32ae
	.4byte	.LLST87
	.4byte	.LVUS87
	.uleb128 0x40
	.4byte	0x32b9
	.4byte	.LLST88
	.4byte	.LVUS88
	.uleb128 0x40
	.4byte	0x32c5
	.4byte	.LLST89
	.4byte	.LVUS89
	.uleb128 0x3a
	.4byte	0x32d2
	.uleb128 0x2
	.byte	0x91
	.sleb128 -36
	.uleb128 0x2b
	.4byte	.LVL223
	.4byte	0x45da
	.4byte	0x31cc
	.uleb128 0x2a
	.uleb128 0x1
	.byte	0x50
	.uleb128 0x3
	.byte	0xf3
	.uleb128 0x1
	.byte	0x51
	.uleb128 0x2a
	.uleb128 0x1
	.byte	0x51
	.uleb128 0x2
	.byte	0x8
	.byte	0x77
	.byte	0
	.uleb128 0x2b
	.4byte	.LVL224
	.4byte	0x380a
	.4byte	0x31e1
	.uleb128 0x2a
	.uleb128 0x1
	.byte	0x51
	.uleb128 0x3
	.byte	0xa
	.2byte	0x2000
	.byte	0
	.uleb128 0x2b
	.4byte	.LVL227
	.4byte	0x45aa
	.4byte	0x31f5
	.uleb128 0x2a
	.uleb128 0x1
	.byte	0x50
	.uleb128 0x2
	.byte	0x8
	.byte	0x4c
	.byte	0
	.uleb128 0x2b
	.4byte	.LVL231
	.4byte	0x45e6
	.4byte	0x3210
	.uleb128 0x2a
	.uleb128 0x1
	.byte	0x50
	.uleb128 0x2
	.byte	0x77
	.sleb128 0
	.uleb128 0x2a
	.uleb128 0x1
	.byte	0x52
	.uleb128 0x3
	.byte	0xf3
	.uleb128 0x1
	.byte	0x50
	.byte	0
	.uleb128 0x2b
	.4byte	.LVL232
	.4byte	0x15bd
	.4byte	0x323d
	.uleb128 0x2a
	.uleb128 0x1
	.byte	0x50
	.uleb128 0x2
	.byte	0x74
	.sleb128 0
	.uleb128 0x2a
	.uleb128 0x1
	.byte	0x51
	.uleb128 0x2
	.byte	0x79
	.sleb128 0
	.uleb128 0x2a
	.uleb128 0x1
	.byte	0x52
	.uleb128 0x2
	.byte	0x78
	.sleb128 0
	.uleb128 0x2a
	.uleb128 0x1
	.byte	0x53
	.uleb128 0x2
	.byte	0x78
	.sleb128 0
	.uleb128 0x2a
	.uleb128 0x2
	.byte	0x7d
	.sleb128 0
	.uleb128 0x2
	.byte	0x91
	.sleb128 -44
	.byte	0
	.uleb128 0x2b
	.4byte	.LVL233
	.4byte	0x457a
	.4byte	0x3252
	.uleb128 0x2a
	.uleb128 0x2
	.byte	0x7d
	.sleb128 0
	.uleb128 0x2
	.byte	0x77
	.sleb128 0
	.byte	0
	.uleb128 0x29
	.4byte	.LVL234
	.4byte	0x2cbf
	.uleb128 0x2a
	.uleb128 0x1
	.byte	0x50
	.uleb128 0x2
	.byte	0x75
	.sleb128 0
	.uleb128 0x2a
	.uleb128 0x1
	.byte	0x51
	.uleb128 0x1
	.byte	0x33
	.uleb128 0x2a
	.uleb128 0x1
	.byte	0x52
	.uleb128 0x2
	.byte	0x79
	.sleb128 0
	.uleb128 0x2a
	.uleb128 0x1
	.byte	0x53
	.uleb128 0x2
	.byte	0x78
	.sleb128 0
	.byte	0
	.byte	0
	.byte	0
	.byte	0
	.uleb128 0x48
	.4byte	.LASF753
	.byte	0x1
	.2byte	0x4b5
	.byte	0x1
	.4byte	0x135a
	.byte	0x1
	.4byte	0x32e0
	.uleb128 0x33
	.ascii	"fd\000"
	.byte	0x1
	.2byte	0x4b5
	.byte	0x16
	.4byte	0x86
	.uleb128 0x3d
	.4byte	.LASF752
	.byte	0x1
	.2byte	0x4b5
	.byte	0x26
	.4byte	0x13e
	.uleb128 0x3d
	.4byte	.LASF641
	.byte	0x1
	.2byte	0x4b5
	.byte	0x30
	.4byte	0x86
	.uleb128 0x26
	.ascii	"a\000"
	.byte	0x1
	.2byte	0x4b7
	.byte	0xb
	.4byte	0x135a
	.uleb128 0x26
	.ascii	"fp\000"
	.byte	0x1
	.2byte	0x4b8
	.byte	0xe
	.4byte	0x1211
	.uleb128 0x26
	.ascii	"fcx\000"
	.byte	0x1
	.2byte	0x4b9
	.byte	0x16
	.4byte	0x1770
	.uleb128 0x26
	.ascii	"len\000"
	.byte	0x1
	.2byte	0x4ba
	.byte	0xa
	.4byte	0x94
	.byte	0
	.uleb128 0x1e
	.4byte	.LASF754
	.byte	0x1
	.2byte	0x4ae
	.byte	0x1
	.4byte	0x135a
	.4byte	.LFB54
	.4byte	.LFE54-.LFB54
	.uleb128 0x1
	.byte	0x9c
	.4byte	0x3333
	.uleb128 0x1f
	.4byte	.LASF648
	.byte	0x1
	.2byte	0x4ae
	.byte	0x1b
	.4byte	0x13e
	.4byte	.LLST62
	.4byte	.LVUS62
	.uleb128 0x2f
	.4byte	.LVL173
	.4byte	0x4200
	.uleb128 0x2a
	.uleb128 0x1
	.byte	0x50
	.uleb128 0x3
	.byte	0xf3
	.uleb128 0x1
	.byte	0x50
	.uleb128 0x2a
	.uleb128 0x1
	.byte	0x51
	.uleb128 0x1
	.byte	0x30
	.uleb128 0x2a
	.uleb128 0x1
	.byte	0x52
	.uleb128 0x1
	.byte	0x32
	.uleb128 0x4a
	.4byte	0x3436
	.uleb128 0x1
	.byte	0x30
	.byte	0
	.byte	0
	.uleb128 0x1e
	.4byte	.LASF755
	.byte	0x1
	.2byte	0x4a8
	.byte	0x1
	.4byte	0x135a
	.4byte	.LFB53
	.4byte	.LFE53-.LFB53
	.uleb128 0x1
	.byte	0x9c
	.4byte	0x339d
	.uleb128 0x1f
	.4byte	.LASF648
	.byte	0x1
	.2byte	0x4a8
	.byte	0x1b
	.4byte	0x13e
	.4byte	.LLST60
	.4byte	.LVUS60
	.uleb128 0x1f
	.4byte	.LASF756
	.byte	0x1
	.2byte	0x4a8
	.byte	0x26
	.4byte	0x86
	.4byte	.LLST61
	.4byte	.LVUS61
	.uleb128 0x2f
	.4byte	.LVL171
	.4byte	0x4200
	.uleb128 0x2a
	.uleb128 0x1
	.byte	0x50
	.uleb128 0x3
	.byte	0xf3
	.uleb128 0x1
	.byte	0x50
	.uleb128 0x2a
	.uleb128 0x1
	.byte	0x51
	.uleb128 0x1
	.byte	0x31
	.uleb128 0x2a
	.uleb128 0x1
	.byte	0x52
	.uleb128 0x1
	.byte	0x32
	.uleb128 0x4a
	.4byte	0x3436
	.uleb128 0x3
	.byte	0xf3
	.uleb128 0x1
	.byte	0x51
	.byte	0
	.byte	0
	.uleb128 0x1e
	.4byte	.LASF757
	.byte	0x1
	.2byte	0x4a2
	.byte	0x1
	.4byte	0x135a
	.4byte	.LFB52
	.4byte	.LFE52-.LFB52
	.uleb128 0x1
	.byte	0x9c
	.4byte	0x33f0
	.uleb128 0x1f
	.4byte	.LASF648
	.byte	0x1
	.2byte	0x4a2
	.byte	0x19
	.4byte	0x13e
	.4byte	.LLST59
	.4byte	.LVUS59
	.uleb128 0x2f
	.4byte	.LVL168
	.4byte	0x4200
	.uleb128 0x2a
	.uleb128 0x1
	.byte	0x50
	.uleb128 0x3
	.byte	0xf3
	.uleb128 0x1
	.byte	0x50
	.uleb128 0x2a
	.uleb128 0x1
	.byte	0x51
	.uleb128 0x1
	.byte	0x31
	.uleb128 0x2a
	.uleb128 0x1
	.byte	0x52
	.uleb128 0x1
	.byte	0x30
	.uleb128 0x4a
	.4byte	0x3436
	.uleb128 0x1
	.byte	0x30
	.byte	0
	.byte	0
	.uleb128 0x48
	.4byte	.LASF758
	.byte	0x1
	.2byte	0x461
	.byte	0x1
	.4byte	0x135a
	.byte	0x1
	.4byte	0x349b
	.uleb128 0x3d
	.4byte	.LASF648
	.byte	0x1
	.2byte	0x461
	.byte	0x16
	.4byte	0x13e
	.uleb128 0x3d
	.4byte	.LASF759
	.byte	0x1
	.2byte	0x461
	.byte	0x21
	.4byte	0x86
	.uleb128 0x33
	.ascii	"use\000"
	.byte	0x1
	.2byte	0x462
	.byte	0x7
	.4byte	0x86
	.uleb128 0x3d
	.4byte	.LASF760
	.byte	0x1
	.2byte	0x462
	.byte	0x18
	.4byte	0x13e
	.uleb128 0x3d
	.4byte	.LASF756
	.byte	0x1
	.2byte	0x462
	.byte	0x26
	.4byte	0x86
	.uleb128 0x26
	.ascii	"a\000"
	.byte	0x1
	.2byte	0x466
	.byte	0xb
	.4byte	0x135a
	.uleb128 0x26
	.ascii	"fp\000"
	.byte	0x1
	.2byte	0x467
	.byte	0xe
	.4byte	0x1211
	.uleb128 0x26
	.ascii	"fcx\000"
	.byte	0x1
	.2byte	0x468
	.byte	0x16
	.4byte	0x1770
	.uleb128 0x26
	.ascii	"len\000"
	.byte	0x1
	.2byte	0x469
	.byte	0xa
	.4byte	0x94
	.uleb128 0x3e
	.4byte	.LASF761
	.byte	0x1
	.2byte	0x46a
	.byte	0x7
	.4byte	0x86
	.uleb128 0x26
	.ascii	"fd\000"
	.byte	0x1
	.2byte	0x46b
	.byte	0x7
	.4byte	0x86
	.uleb128 0x3e
	.4byte	.LASF729
	.byte	0x1
	.2byte	0x46c
	.byte	0x8
	.4byte	0x201e
	.byte	0
	.uleb128 0x1e
	.4byte	.LASF762
	.byte	0x1
	.2byte	0x457
	.byte	0x1
	.4byte	0x86
	.4byte	.LFB50
	.4byte	.LFE50-.LFB50
	.uleb128 0x1
	.byte	0x9c
	.4byte	0x34cc
	.uleb128 0x1f
	.4byte	.LASF648
	.byte	0x1
	.2byte	0x457
	.byte	0x25
	.4byte	0x13e
	.4byte	.LLST58
	.4byte	.LVUS58
	.byte	0
	.uleb128 0x1e
	.4byte	.LASF763
	.byte	0x1
	.2byte	0x446
	.byte	0x1
	.4byte	0x135a
	.4byte	.LFB49
	.4byte	.LFE49-.LFB49
	.uleb128 0x1
	.byte	0x9c
	.4byte	0x355a
	.uleb128 0x1f
	.4byte	.LASF689
	.byte	0x1
	.2byte	0x446
	.byte	0x26
	.4byte	0x13e
	.4byte	.LLST54
	.4byte	.LVUS54
	.uleb128 0x1f
	.4byte	.LASF707
	.byte	0x1
	.2byte	0x446
	.byte	0x35
	.4byte	0x94
	.4byte	.LLST55
	.4byte	.LVUS55
	.uleb128 0x22
	.ascii	"a\000"
	.byte	0x1
	.2byte	0x448
	.byte	0xb
	.4byte	0x135a
	.4byte	.LLST56
	.4byte	.LVUS56
	.uleb128 0x22
	.ascii	"i\000"
	.byte	0x1
	.2byte	0x449
	.byte	0x7
	.4byte	0x86
	.4byte	.LLST57
	.4byte	.LVUS57
	.uleb128 0x2b
	.4byte	.LVL158
	.4byte	0x380a
	.4byte	0x3550
	.uleb128 0x2a
	.uleb128 0x1
	.byte	0x50
	.uleb128 0x1
	.byte	0x31
	.uleb128 0x2a
	.uleb128 0x1
	.byte	0x51
	.uleb128 0x2
	.byte	0x76
	.sleb128 0
	.byte	0
	.uleb128 0x2d
	.4byte	.LVL160
	.4byte	0x457a
	.byte	0
	.uleb128 0x1e
	.4byte	.LASF764
	.byte	0x1
	.2byte	0x440
	.byte	0x1
	.4byte	0x135a
	.4byte	.LFB48
	.4byte	.LFE48-.LFB48
	.uleb128 0x1
	.byte	0x9c
	.4byte	0x358c
	.uleb128 0x2f
	.4byte	.LVL155
	.4byte	0x380a
	.uleb128 0x2a
	.uleb128 0x1
	.byte	0x50
	.uleb128 0x1
	.byte	0x33
	.uleb128 0x2a
	.uleb128 0x1
	.byte	0x51
	.uleb128 0x3
	.byte	0xa
	.2byte	0x2000
	.byte	0
	.byte	0
	.uleb128 0x1e
	.4byte	.LASF765
	.byte	0x1
	.2byte	0x413
	.byte	0x1
	.4byte	0x86
	.4byte	.LFB47
	.4byte	.LFE47-.LFB47
	.uleb128 0x1
	.byte	0x9c
	.4byte	0x363c
	.uleb128 0x20
	.ascii	"a\000"
	.byte	0x1
	.2byte	0x413
	.byte	0x17
	.4byte	0x135a
	.4byte	.LLST193
	.4byte	.LVUS193
	.uleb128 0x26
	.ascii	"s\000"
	.byte	0x1
	.2byte	0x415
	.byte	0xf
	.4byte	0x13e
	.uleb128 0x22
	.ascii	"a2\000"
	.byte	0x1
	.2byte	0x416
	.byte	0xb
	.4byte	0x135a
	.4byte	.LLST194
	.4byte	.LVUS194
	.uleb128 0x26
	.ascii	"rc\000"
	.byte	0x1
	.2byte	0x417
	.byte	0x7
	.4byte	0x86
	.uleb128 0x27
	.4byte	.LBB333
	.4byte	.LBE333-.LBB333
	.4byte	0x361d
	.uleb128 0x37
	.4byte	.LASF766
	.byte	0x1
	.2byte	0x42c
	.byte	0xe
	.4byte	0x94
	.uleb128 0x2
	.byte	0x91
	.sleb128 -28
	.uleb128 0x3c
	.4byte	.LVL629
	.uleb128 0x2
	.byte	0x75
	.sleb128 0
	.uleb128 0x2a
	.uleb128 0x1
	.byte	0x51
	.uleb128 0x1
	.byte	0x36
	.uleb128 0x2a
	.uleb128 0x1
	.byte	0x53
	.uleb128 0x1
	.byte	0x30
	.uleb128 0x2a
	.uleb128 0x2
	.byte	0x7d
	.sleb128 0
	.uleb128 0x2
	.byte	0x77
	.sleb128 0
	.byte	0
	.byte	0
	.uleb128 0x30
	.4byte	.LVL633
	.4byte	0x363c
	.4byte	0x3632
	.uleb128 0x2a
	.uleb128 0x1
	.byte	0x50
	.uleb128 0x3
	.byte	0xf3
	.uleb128 0x1
	.byte	0x50
	.byte	0
	.uleb128 0x2d
	.4byte	.LVL634
	.4byte	0x1b34
	.byte	0
	.uleb128 0x1e
	.4byte	.LASF767
	.byte	0x1
	.2byte	0x3ea
	.byte	0x1
	.4byte	0x86
	.4byte	.LFB46
	.4byte	.LFE46-.LFB46
	.uleb128 0x1
	.byte	0x9c
	.4byte	0x380a
	.uleb128 0x20
	.ascii	"a\000"
	.byte	0x1
	.2byte	0x3ea
	.byte	0x16
	.4byte	0x135a
	.4byte	.LLST46
	.4byte	.LVUS46
	.uleb128 0x23
	.4byte	.LASF768
	.byte	0x1
	.2byte	0x3ed
	.byte	0xb
	.4byte	0x135a
	.4byte	.LLST47
	.4byte	.LVUS47
	.uleb128 0x37
	.4byte	.LASF741
	.byte	0x1
	.2byte	0x3ee
	.byte	0xa
	.4byte	0x94
	.uleb128 0x3
	.byte	0x91
	.sleb128 -80
	.uleb128 0x22
	.ascii	"rc\000"
	.byte	0x1
	.2byte	0x3ef
	.byte	0x7
	.4byte	0x86
	.4byte	.LLST48
	.4byte	.LVUS48
	.uleb128 0x35
	.4byte	.Ldebug_ranges0+0x108
	.uleb128 0x37
	.4byte	.LASF729
	.byte	0x1
	.2byte	0x3f3
	.byte	0xc
	.4byte	0x201e
	.uleb128 0x3
	.byte	0x91
	.sleb128 -72
	.uleb128 0x22
	.ascii	"rc2\000"
	.byte	0x1
	.2byte	0x3f4
	.byte	0xb
	.4byte	0x86
	.4byte	.LLST49
	.4byte	.LVUS49
	.uleb128 0x38
	.4byte	0x394b
	.4byte	.LBI108
	.2byte	.LVU482
	.4byte	.Ldebug_ranges0+0x120
	.byte	0x1
	.2byte	0x3fc
	.byte	0x2
	.4byte	0x378c
	.uleb128 0x39
	.4byte	0x3968
	.4byte	.LLST50
	.4byte	.LVUS50
	.uleb128 0x39
	.4byte	0x395d
	.4byte	.LLST51
	.4byte	.LVUS51
	.uleb128 0x35
	.4byte	.Ldebug_ranges0+0x120
	.uleb128 0x3a
	.4byte	0x3975
	.uleb128 0x3
	.byte	0x91
	.sleb128 -76
	.uleb128 0x38
	.4byte	0x394b
	.4byte	.LBI110
	.2byte	.LVU491
	.4byte	.Ldebug_ranges0+0x150
	.byte	0x1
	.2byte	0x3ab
	.byte	0x1
	.4byte	0x3768
	.uleb128 0x39
	.4byte	0x395d
	.4byte	.LLST52
	.4byte	.LVUS52
	.uleb128 0x39
	.4byte	0x3968
	.4byte	.LLST53
	.4byte	.LVUS53
	.uleb128 0x35
	.4byte	.Ldebug_ranges0+0x150
	.uleb128 0x3b
	.4byte	0x3975
	.uleb128 0x29
	.4byte	.LVL152
	.4byte	0x456e
	.uleb128 0x2a
	.uleb128 0x1
	.byte	0x50
	.uleb128 0x2
	.byte	0x77
	.sleb128 0
	.uleb128 0x2a
	.uleb128 0x1
	.byte	0x51
	.uleb128 0x4
	.byte	0x91
	.sleb128 -92
	.byte	0x6
	.uleb128 0x2a
	.uleb128 0x1
	.byte	0x52
	.uleb128 0x1
	.byte	0x32
	.byte	0
	.byte	0
	.byte	0
	.uleb128 0x3c
	.4byte	.LVL149
	.uleb128 0x2
	.byte	0x79
	.sleb128 0
	.uleb128 0x2a
	.uleb128 0x1
	.byte	0x51
	.uleb128 0x1
	.byte	0x35
	.uleb128 0x2a
	.uleb128 0x1
	.byte	0x52
	.uleb128 0x1
	.byte	0x30
	.uleb128 0x2a
	.uleb128 0x1
	.byte	0x53
	.uleb128 0x3
	.byte	0x91
	.sleb128 -80
	.uleb128 0x2a
	.uleb128 0x2
	.byte	0x7d
	.sleb128 0
	.uleb128 0x3
	.byte	0x91
	.sleb128 -84
	.byte	0
	.byte	0
	.byte	0
	.uleb128 0x44
	.4byte	.LVL140
	.uleb128 0x2
	.byte	0x77
	.sleb128 0
	.4byte	0x37ab
	.uleb128 0x2a
	.uleb128 0x1
	.byte	0x51
	.uleb128 0x1
	.byte	0x32
	.uleb128 0x2a
	.uleb128 0x1
	.byte	0x53
	.uleb128 0x1
	.byte	0x30
	.uleb128 0x2a
	.uleb128 0x2
	.byte	0x7d
	.sleb128 0
	.uleb128 0x3
	.byte	0x91
	.sleb128 -88
	.byte	0
	.uleb128 0x2d
	.4byte	.LVL142
	.4byte	0x4586
	.uleb128 0x2b
	.4byte	.LVL143
	.4byte	0x45f2
	.4byte	0x37c7
	.uleb128 0x2a
	.uleb128 0x1
	.byte	0x51
	.uleb128 0x1
	.byte	0x30
	.byte	0
	.uleb128 0x2d
	.4byte	.LVL144
	.4byte	0x4586
	.uleb128 0x2b
	.4byte	.LVL145
	.4byte	0x4586
	.4byte	0x37e4
	.uleb128 0x2a
	.uleb128 0x1
	.byte	0x50
	.uleb128 0x2
	.byte	0x74
	.sleb128 0
	.byte	0
	.uleb128 0x29
	.4byte	.LVL150
	.4byte	0x457a
	.uleb128 0x2a
	.uleb128 0x1
	.byte	0x50
	.uleb128 0x4
	.byte	0x91
	.sleb128 -96
	.byte	0x6
	.uleb128 0x2a
	.uleb128 0x1
	.byte	0x51
	.uleb128 0x2
	.byte	0x7a
	.sleb128 0
	.uleb128 0x2a
	.uleb128 0x1
	.byte	0x52
	.uleb128 0x2
	.byte	0x7b
	.sleb128 0
	.uleb128 0x2a
	.uleb128 0x1
	.byte	0x53
	.uleb128 0x2
	.byte	0x77
	.sleb128 0
	.byte	0
	.byte	0
	.byte	0
	.uleb128 0x1e
	.4byte	.LASF769
	.byte	0x1
	.2byte	0x3ce
	.byte	0x1
	.4byte	0x135a
	.4byte	.LFB45
	.4byte	.LFE45-.LFB45
	.uleb128 0x1
	.byte	0x9c
	.4byte	0x38c1
	.uleb128 0x20
	.ascii	"use\000"
	.byte	0x1
	.2byte	0x3ce
	.byte	0x12
	.4byte	0x86
	.4byte	.LLST30
	.4byte	.LVUS30
	.uleb128 0x1f
	.4byte	.LASF770
	.byte	0x1
	.2byte	0x3ce
	.byte	0x1e
	.4byte	0x94
	.4byte	.LLST31
	.4byte	.LVUS31
	.uleb128 0x22
	.ascii	"a\000"
	.byte	0x1
	.2byte	0x3d0
	.byte	0xb
	.4byte	0x135a
	.4byte	.LLST32
	.4byte	.LVUS32
	.uleb128 0x37
	.4byte	.LASF771
	.byte	0x1
	.2byte	0x3d1
	.byte	0xe
	.4byte	0x86
	.uleb128 0x5
	.byte	0x3
	.4byte	number.0
	.uleb128 0x2b
	.4byte	.LVL99
	.4byte	0x457a
	.4byte	0x3889
	.uleb128 0x2a
	.uleb128 0x1
	.byte	0x51
	.uleb128 0x2
	.byte	0x75
	.sleb128 0
	.byte	0
	.uleb128 0x2b
	.4byte	.LVL101
	.4byte	0x459e
	.4byte	0x38a2
	.uleb128 0x2a
	.uleb128 0x1
	.byte	0x50
	.uleb128 0x1
	.byte	0x31
	.uleb128 0x2a
	.uleb128 0x1
	.byte	0x51
	.uleb128 0x2
	.byte	0x8
	.byte	0x48
	.byte	0
	.uleb128 0x2b
	.4byte	.LVL104
	.4byte	0x45aa
	.4byte	0x38b7
	.uleb128 0x2a
	.uleb128 0x1
	.byte	0x50
	.uleb128 0x3
	.byte	0x91
	.sleb128 -28
	.byte	0x6
	.byte	0
	.uleb128 0x2d
	.4byte	.LVL107
	.4byte	0x457a
	.byte	0
	.uleb128 0x1e
	.4byte	.LASF772
	.byte	0x1
	.2byte	0x3c7
	.byte	0x1
	.4byte	0x86
	.4byte	.LFB44
	.4byte	.LFE44-.LFB44
	.uleb128 0x1
	.byte	0x9c
	.4byte	0x3922
	.uleb128 0x20
	.ascii	"a\000"
	.byte	0x1
	.2byte	0x3c7
	.byte	0x1c
	.4byte	0x135a
	.4byte	.LLST28
	.4byte	.LVUS28
	.uleb128 0x3f
	.4byte	0x3922
	.4byte	.LBI82
	.2byte	.LVU292
	.4byte	.Ldebug_ranges0+0xc0
	.byte	0x1
	.2byte	0x3c9
	.byte	0x3
	.uleb128 0x39
	.4byte	0x3930
	.4byte	.LLST29
	.4byte	.LVUS29
	.uleb128 0x29
	.4byte	.LVL93
	.4byte	0x4115
	.uleb128 0x2a
	.uleb128 0x1
	.byte	0x50
	.uleb128 0x3
	.byte	0xf3
	.uleb128 0x1
	.byte	0x50
	.byte	0
	.byte	0
	.byte	0
	.uleb128 0x4b
	.4byte	.LASF803
	.byte	0x1
	.2byte	0x3b8
	.byte	0x1
	.byte	0x1
	.4byte	0x394b
	.uleb128 0x33
	.ascii	"a\000"
	.byte	0x1
	.2byte	0x3b8
	.byte	0x16
	.4byte	0x135a
	.uleb128 0x34
	.uleb128 0x3e
	.4byte	.LASF729
	.byte	0x1
	.2byte	0x3be
	.byte	0xc
	.4byte	0x201e
	.byte	0
	.byte	0
	.uleb128 0x48
	.4byte	.LASF773
	.byte	0x1
	.2byte	0x3ab
	.byte	0x1
	.4byte	0x13e
	.byte	0x1
	.4byte	0x3983
	.uleb128 0x33
	.ascii	"a\000"
	.byte	0x1
	.2byte	0x3ab
	.byte	0x15
	.4byte	0x135a
	.uleb128 0x33
	.ascii	"buf\000"
	.byte	0x1
	.2byte	0x3ab
	.byte	0x1e
	.4byte	0x147a
	.uleb128 0x26
	.ascii	"len\000"
	.byte	0x1
	.2byte	0x3ad
	.byte	0xa
	.4byte	0x94
	.byte	0
	.uleb128 0x46
	.4byte	.LASF775
	.byte	0x1
	.2byte	0x27f
	.byte	0x1
	.4byte	0x86
	.4byte	.LFB41
	.4byte	.LFE41-.LFB41
	.uleb128 0x1
	.byte	0x9c
	.4byte	0x3e6f
	.uleb128 0x1f
	.4byte	.LASF695
	.byte	0x1
	.2byte	0x27f
	.byte	0x15
	.4byte	0xac
	.4byte	.LLST147
	.4byte	.LVUS147
	.uleb128 0x1f
	.4byte	.LASF696
	.byte	0x1
	.2byte	0x27f
	.byte	0x21
	.4byte	0x86
	.4byte	.LLST148
	.4byte	.LVUS148
	.uleb128 0x1f
	.4byte	.LASF680
	.byte	0x1
	.2byte	0x27f
	.byte	0x32
	.4byte	0x135a
	.4byte	.LLST149
	.4byte	.LVUS149
	.uleb128 0x1f
	.4byte	.LASF689
	.byte	0x1
	.2byte	0x27f
	.byte	0x40
	.4byte	0x147a
	.4byte	.LLST150
	.4byte	.LVUS150
	.uleb128 0x21
	.4byte	.LASF701
	.byte	0x1
	.2byte	0x280
	.byte	0x11
	.4byte	0x14a3
	.uleb128 0x2
	.byte	0x91
	.sleb128 0
	.uleb128 0x22
	.ascii	"a\000"
	.byte	0x1
	.2byte	0x283
	.byte	0x17
	.4byte	0x1a8d
	.4byte	.LLST151
	.4byte	.LVUS151
	.uleb128 0x22
	.ascii	"buf\000"
	.byte	0x1
	.2byte	0x284
	.byte	0x9
	.4byte	0x12c
	.4byte	.LLST152
	.4byte	.LVUS152
	.uleb128 0x23
	.4byte	.LASF682
	.byte	0x1
	.2byte	0x285
	.byte	0xa
	.4byte	0x94
	.4byte	.LLST153
	.4byte	.LVUS153
	.uleb128 0x22
	.ascii	"c\000"
	.byte	0x1
	.2byte	0x286
	.byte	0x7
	.4byte	0x86
	.4byte	.LLST154
	.4byte	.LVUS154
	.uleb128 0x23
	.4byte	.LASF776
	.byte	0x1
	.2byte	0x286
	.byte	0xa
	.4byte	0x86
	.4byte	.LLST155
	.4byte	.LVUS155
	.uleb128 0x22
	.ascii	"rc\000"
	.byte	0x1
	.2byte	0x286
	.byte	0x12
	.4byte	0x86
	.4byte	.LLST156
	.4byte	.LVUS156
	.uleb128 0x22
	.ascii	"p\000"
	.byte	0x1
	.2byte	0x287
	.byte	0x9
	.4byte	0x12c
	.4byte	.LLST157
	.4byte	.LVUS157
	.uleb128 0x25
	.4byte	.Ldebug_ranges0+0x3a8
	.4byte	0x3ba9
	.uleb128 0x22
	.ascii	"n\000"
	.byte	0x1
	.2byte	0x28c
	.byte	0xe
	.4byte	0x94
	.4byte	.LLST158
	.4byte	.LVUS158
	.uleb128 0x2b
	.4byte	.LVL421
	.4byte	0x457a
	.4byte	0x3abe
	.uleb128 0x2a
	.uleb128 0x1
	.byte	0x51
	.uleb128 0x2
	.byte	0x74
	.sleb128 0
	.byte	0
	.uleb128 0x2b
	.4byte	.LVL422
	.4byte	0x457a
	.4byte	0x3ad2
	.uleb128 0x2a
	.uleb128 0x1
	.byte	0x50
	.uleb128 0x2
	.byte	0x74
	.sleb128 0
	.byte	0
	.uleb128 0x2b
	.4byte	.LVL427
	.4byte	0x2291
	.4byte	0x3af2
	.uleb128 0x2a
	.uleb128 0x1
	.byte	0x50
	.uleb128 0x2
	.byte	0x77
	.sleb128 0
	.uleb128 0x2a
	.uleb128 0x1
	.byte	0x51
	.uleb128 0x2
	.byte	0x7a
	.sleb128 0
	.uleb128 0x2a
	.uleb128 0x1
	.byte	0x52
	.uleb128 0x2
	.byte	0x7b
	.sleb128 0
	.byte	0
	.uleb128 0x2b
	.4byte	.LVL430
	.4byte	0x457a
	.4byte	0x3b0c
	.uleb128 0x2a
	.uleb128 0x1
	.byte	0x51
	.uleb128 0x2
	.byte	0x75
	.sleb128 0
	.uleb128 0x2a
	.uleb128 0x1
	.byte	0x52
	.uleb128 0x2
	.byte	0x74
	.sleb128 0
	.byte	0
	.uleb128 0x2d
	.4byte	.LVL432
	.4byte	0x457a
	.uleb128 0x2b
	.4byte	.LVL446
	.4byte	0x2385
	.4byte	0x3b29
	.uleb128 0x2a
	.uleb128 0x1
	.byte	0x50
	.uleb128 0x2
	.byte	0x77
	.sleb128 0
	.byte	0
	.uleb128 0x2b
	.4byte	.LVL448
	.4byte	0x2385
	.4byte	0x3b3d
	.uleb128 0x2a
	.uleb128 0x1
	.byte	0x50
	.uleb128 0x2
	.byte	0x77
	.sleb128 0
	.byte	0
	.uleb128 0x2d
	.4byte	.LVL451
	.4byte	0x457a
	.uleb128 0x2b
	.4byte	.LVL487
	.4byte	0x2385
	.4byte	0x3b5a
	.uleb128 0x2a
	.uleb128 0x1
	.byte	0x50
	.uleb128 0x2
	.byte	0x77
	.sleb128 0
	.byte	0
	.uleb128 0x2b
	.4byte	.LVL488
	.4byte	0x2385
	.4byte	0x3b6e
	.uleb128 0x2a
	.uleb128 0x1
	.byte	0x50
	.uleb128 0x2
	.byte	0x77
	.sleb128 0
	.byte	0
	.uleb128 0x2b
	.4byte	.LVL489
	.4byte	0x2385
	.4byte	0x3b82
	.uleb128 0x2a
	.uleb128 0x1
	.byte	0x50
	.uleb128 0x2
	.byte	0x77
	.sleb128 0
	.byte	0
	.uleb128 0x2b
	.4byte	.LVL490
	.4byte	0x2385
	.4byte	0x3b96
	.uleb128 0x2a
	.uleb128 0x1
	.byte	0x50
	.uleb128 0x2
	.byte	0x77
	.sleb128 0
	.byte	0
	.uleb128 0x2d
	.4byte	.LVL503
	.4byte	0x457a
	.uleb128 0x2d
	.4byte	.LVL540
	.4byte	0x457a
	.byte	0
	.uleb128 0x25
	.4byte	.Ldebug_ranges0+0x3e8
	.4byte	0x3cc8
	.uleb128 0x23
	.4byte	.LASF777
	.byte	0x1
	.2byte	0x30a
	.byte	0xb
	.4byte	0x94
	.4byte	.LLST159
	.4byte	.LVUS159
	.uleb128 0x22
	.ascii	"n\000"
	.byte	0x1
	.2byte	0x30a
	.byte	0x11
	.4byte	0x94
	.4byte	.LLST160
	.4byte	.LVUS160
	.uleb128 0x23
	.4byte	.LASF671
	.byte	0x1
	.2byte	0x30a
	.byte	0x14
	.4byte	0x94
	.4byte	.LLST161
	.4byte	.LVUS161
	.uleb128 0x2d
	.4byte	.LVL462
	.4byte	0x457a
	.uleb128 0x2b
	.4byte	.LVL463
	.4byte	0x217c
	.4byte	0x3c12
	.uleb128 0x2a
	.uleb128 0x1
	.byte	0x50
	.uleb128 0x2
	.byte	0x77
	.sleb128 0
	.uleb128 0x2a
	.uleb128 0x1
	.byte	0x51
	.uleb128 0x2
	.byte	0x78
	.sleb128 0
	.byte	0
	.uleb128 0x2b
	.4byte	.LVL467
	.4byte	0x2116
	.4byte	0x3c32
	.uleb128 0x2a
	.uleb128 0x1
	.byte	0x50
	.uleb128 0x2
	.byte	0x77
	.sleb128 0
	.uleb128 0x2a
	.uleb128 0x1
	.byte	0x51
	.uleb128 0x2
	.byte	0x7a
	.sleb128 0
	.uleb128 0x2a
	.uleb128 0x1
	.byte	0x52
	.uleb128 0x2
	.byte	0x74
	.sleb128 0
	.byte	0
	.uleb128 0x2b
	.4byte	.LVL471
	.4byte	0x457a
	.4byte	0x3c4a
	.uleb128 0x2a
	.uleb128 0x1
	.byte	0x50
	.uleb128 0x6
	.byte	0x79
	.sleb128 0
	.byte	0xa
	.2byte	0x200
	.byte	0x29
	.byte	0
	.uleb128 0x2b
	.4byte	.LVL472
	.4byte	0x2116
	.4byte	0x3c64
	.uleb128 0x2a
	.uleb128 0x1
	.byte	0x50
	.uleb128 0x2
	.byte	0x77
	.sleb128 0
	.uleb128 0x2a
	.uleb128 0x1
	.byte	0x52
	.uleb128 0x2
	.byte	0x79
	.sleb128 0
	.byte	0
	.uleb128 0x2d
	.4byte	.LVL480
	.4byte	0x457a
	.uleb128 0x2b
	.4byte	.LVL481
	.4byte	0x456e
	.4byte	0x3c87
	.uleb128 0x2a
	.uleb128 0x1
	.byte	0x51
	.uleb128 0x2
	.byte	0x7a
	.sleb128 0
	.uleb128 0x2a
	.uleb128 0x1
	.byte	0x52
	.uleb128 0x2
	.byte	0x76
	.sleb128 0
	.byte	0
	.uleb128 0x2b
	.4byte	.LVL494
	.4byte	0x456e
	.4byte	0x3ca1
	.uleb128 0x2a
	.uleb128 0x1
	.byte	0x51
	.uleb128 0x2
	.byte	0x7a
	.sleb128 0
	.uleb128 0x2a
	.uleb128 0x1
	.byte	0x52
	.uleb128 0x2
	.byte	0x74
	.sleb128 0
	.byte	0
	.uleb128 0x2b
	.4byte	.LVL515
	.4byte	0x45aa
	.4byte	0x3cb6
	.uleb128 0x2a
	.uleb128 0x1
	.byte	0x50
	.uleb128 0x3
	.byte	0xa
	.2byte	0x200
	.byte	0
	.uleb128 0x29
	.4byte	.LVL542
	.4byte	0x45aa
	.uleb128 0x2a
	.uleb128 0x1
	.byte	0x50
	.uleb128 0x3
	.byte	0xa
	.2byte	0x200
	.byte	0
	.byte	0
	.uleb128 0x25
	.4byte	.Ldebug_ranges0+0x428
	.4byte	0x3e3f
	.uleb128 0x22
	.ascii	"len\000"
	.byte	0x1
	.2byte	0x365
	.byte	0xc
	.4byte	0x1205
	.4byte	.LLST162
	.4byte	.LVUS162
	.uleb128 0x2b
	.4byte	.LVL507
	.4byte	0x457a
	.4byte	0x3cfa
	.uleb128 0x2a
	.uleb128 0x1
	.byte	0x51
	.uleb128 0x2
	.byte	0x76
	.sleb128 0
	.byte	0
	.uleb128 0x2b
	.4byte	.LVL508
	.4byte	0x217c
	.4byte	0x3d19
	.uleb128 0x2a
	.uleb128 0x1
	.byte	0x50
	.uleb128 0x2
	.byte	0x77
	.sleb128 0
	.uleb128 0x2a
	.uleb128 0x1
	.byte	0x51
	.uleb128 0x7
	.byte	0x78
	.sleb128 0
	.byte	0x38
	.byte	0x25
	.byte	0x23
	.uleb128 0xc0
	.byte	0
	.uleb128 0x2d
	.4byte	.LVL513
	.4byte	0x4586
	.uleb128 0x2b
	.4byte	.LVL517
	.4byte	0x457a
	.4byte	0x3d36
	.uleb128 0x2a
	.uleb128 0x1
	.byte	0x51
	.uleb128 0x2
	.byte	0x76
	.sleb128 0
	.byte	0
	.uleb128 0x2b
	.4byte	.LVL518
	.4byte	0x217c
	.4byte	0x3d50
	.uleb128 0x2a
	.uleb128 0x1
	.byte	0x50
	.uleb128 0x2
	.byte	0x77
	.sleb128 0
	.uleb128 0x2a
	.uleb128 0x1
	.byte	0x51
	.uleb128 0x2
	.byte	0x8
	.byte	0xff
	.byte	0
	.uleb128 0x2b
	.4byte	.LVL521
	.4byte	0x217c
	.4byte	0x3d6c
	.uleb128 0x2a
	.uleb128 0x1
	.byte	0x50
	.uleb128 0x2
	.byte	0x77
	.sleb128 0
	.uleb128 0x2a
	.uleb128 0x1
	.byte	0x51
	.uleb128 0x4
	.byte	0x76
	.sleb128 0
	.byte	0x48
	.byte	0x25
	.byte	0
	.uleb128 0x2b
	.4byte	.LVL523
	.4byte	0x217c
	.4byte	0x3d8c
	.uleb128 0x2a
	.uleb128 0x1
	.byte	0x50
	.uleb128 0x2
	.byte	0x77
	.sleb128 0
	.uleb128 0x2a
	.uleb128 0x1
	.byte	0x51
	.uleb128 0x8
	.byte	0x76
	.sleb128 0
	.byte	0x9
	.byte	0xec
	.byte	0x24
	.byte	0x9
	.byte	0xfc
	.byte	0x25
	.byte	0
	.uleb128 0x2b
	.4byte	.LVL525
	.4byte	0x217c
	.4byte	0x3dac
	.uleb128 0x2a
	.uleb128 0x1
	.byte	0x50
	.uleb128 0x2
	.byte	0x77
	.sleb128 0
	.uleb128 0x2a
	.uleb128 0x1
	.byte	0x51
	.uleb128 0x8
	.byte	0x76
	.sleb128 0
	.byte	0x9
	.byte	0xf4
	.byte	0x24
	.byte	0x9
	.byte	0xfc
	.byte	0x25
	.byte	0
	.uleb128 0x2b
	.4byte	.LVL527
	.4byte	0x217c
	.4byte	0x3dc9
	.uleb128 0x2a
	.uleb128 0x1
	.byte	0x50
	.uleb128 0x2
	.byte	0x77
	.sleb128 0
	.uleb128 0x2a
	.uleb128 0x1
	.byte	0x51
	.uleb128 0x5
	.byte	0x76
	.sleb128 0
	.byte	0x8
	.byte	0xff
	.byte	0x1a
	.byte	0
	.uleb128 0x2b
	.4byte	.LVL529
	.4byte	0x457a
	.4byte	0x3ddd
	.uleb128 0x2a
	.uleb128 0x1
	.byte	0x51
	.uleb128 0x2
	.byte	0x76
	.sleb128 0
	.byte	0
	.uleb128 0x2b
	.4byte	.LVL530
	.4byte	0x2116
	.4byte	0x3df7
	.uleb128 0x2a
	.uleb128 0x1
	.byte	0x50
	.uleb128 0x2
	.byte	0x77
	.sleb128 0
	.uleb128 0x2a
	.uleb128 0x1
	.byte	0x52
	.uleb128 0x2
	.byte	0x76
	.sleb128 0
	.byte	0
	.uleb128 0x2b
	.4byte	.LVL533
	.4byte	0x217c
	.4byte	0x3e11
	.uleb128 0x2a
	.uleb128 0x1
	.byte	0x50
	.uleb128 0x2
	.byte	0x77
	.sleb128 0
	.uleb128 0x2a
	.uleb128 0x1
	.byte	0x51
	.uleb128 0x2
	.byte	0x76
	.sleb128 0
	.byte	0
	.uleb128 0x2b
	.4byte	.LVL537
	.4byte	0x457a
	.4byte	0x3e25
	.uleb128 0x2a
	.uleb128 0x1
	.byte	0x51
	.uleb128 0x2
	.byte	0x76
	.sleb128 0
	.byte	0
	.uleb128 0x29
	.4byte	.LVL546
	.4byte	0x217c
	.uleb128 0x2a
	.uleb128 0x1
	.byte	0x50
	.uleb128 0x2
	.byte	0x77
	.sleb128 0
	.uleb128 0x2a
	.uleb128 0x1
	.byte	0x51
	.uleb128 0x5
	.byte	0x78
	.sleb128 0
	.byte	0x8
	.byte	0xff
	.byte	0x1a
	.byte	0
	.byte	0
	.uleb128 0x2d
	.4byte	.LVL417
	.4byte	0x457a
	.uleb128 0x2d
	.4byte	.LVL455
	.4byte	0x457a
	.uleb128 0x2b
	.4byte	.LVL484
	.4byte	0x4586
	.4byte	0x3e65
	.uleb128 0x2a
	.uleb128 0x1
	.byte	0x50
	.uleb128 0x2
	.byte	0x75
	.sleb128 0
	.byte	0
	.uleb128 0x2d
	.4byte	.LVL500
	.4byte	0x457a
	.byte	0
	.uleb128 0x1e
	.4byte	.LASF778
	.byte	0x1
	.2byte	0x18c
	.byte	0x1
	.4byte	0x1211
	.4byte	.LFB40
	.4byte	.LFE40-.LFB40
	.uleb128 0x1
	.byte	0x9c
	.4byte	0x3fd1
	.uleb128 0x1f
	.4byte	.LASF648
	.byte	0x1
	.2byte	0x18c
	.byte	0x1c
	.4byte	0x13e
	.4byte	.LLST21
	.4byte	.LVUS21
	.uleb128 0x1f
	.4byte	.LASF752
	.byte	0x1
	.2byte	0x18c
	.byte	0x2f
	.4byte	0x13e
	.4byte	.LLST22
	.4byte	.LVUS22
	.uleb128 0x4c
	.ascii	"cc\000"
	.byte	0x1
	.2byte	0x18e
	.byte	0x11
	.4byte	0x14f6
	.byte	0
	.uleb128 0x49
	.4byte	0x3ed3
	.uleb128 0x26
	.ascii	"fp\000"
	.byte	0x1
	.2byte	0x195
	.byte	0xf
	.4byte	0x1211
	.byte	0
	.uleb128 0x38
	.4byte	0x3fd1
	.4byte	.LBI76
	.2byte	.LVU258
	.4byte	.Ldebug_ranges0+0xa0
	.byte	0x1
	.2byte	0x1ac
	.byte	0xa
	.4byte	0x3fc0
	.uleb128 0x39
	.4byte	0x3ffa
	.4byte	.LLST23
	.4byte	.LVUS23
	.uleb128 0x39
	.4byte	0x3fee
	.4byte	.LLST24
	.4byte	.LVUS24
	.uleb128 0x39
	.4byte	0x3fe2
	.4byte	.LLST25
	.4byte	.LVUS25
	.uleb128 0x35
	.4byte	.Ldebug_ranges0+0xa0
	.uleb128 0x40
	.4byte	0x4006
	.4byte	.LLST26
	.4byte	.LVUS26
	.uleb128 0x40
	.4byte	0x4013
	.4byte	.LLST27
	.4byte	.LVUS27
	.uleb128 0x2b
	.4byte	.LVL82
	.4byte	0x45da
	.4byte	0x3f4a
	.uleb128 0x2a
	.uleb128 0x1
	.byte	0x50
	.uleb128 0x2
	.byte	0x75
	.sleb128 0
	.uleb128 0x2a
	.uleb128 0x1
	.byte	0x51
	.uleb128 0x2
	.byte	0x8
	.byte	0x2b
	.byte	0
	.uleb128 0x2b
	.4byte	.LVL83
	.4byte	0x4056
	.4byte	0x3f5e
	.uleb128 0x2a
	.uleb128 0x1
	.byte	0x50
	.uleb128 0x2
	.byte	0x74
	.sleb128 0
	.byte	0
	.uleb128 0x2b
	.4byte	.LVL85
	.4byte	0x45da
	.4byte	0x3f78
	.uleb128 0x2a
	.uleb128 0x1
	.byte	0x50
	.uleb128 0x2
	.byte	0x75
	.sleb128 0
	.uleb128 0x2a
	.uleb128 0x1
	.byte	0x51
	.uleb128 0x2
	.byte	0x8
	.byte	0x62
	.byte	0
	.uleb128 0x30
	.4byte	.LVL88
	.4byte	0x45fe
	.4byte	0x3f94
	.uleb128 0x2a
	.uleb128 0x1
	.byte	0x50
	.uleb128 0x3
	.byte	0xf3
	.uleb128 0x1
	.byte	0x50
	.uleb128 0x2a
	.uleb128 0x1
	.byte	0x52
	.uleb128 0x3
	.byte	0xa
	.2byte	0x1b6
	.byte	0
	.uleb128 0x2b
	.4byte	.LVL90
	.4byte	0x45da
	.4byte	0x3fae
	.uleb128 0x2a
	.uleb128 0x1
	.byte	0x50
	.uleb128 0x2
	.byte	0x75
	.sleb128 0
	.uleb128 0x2a
	.uleb128 0x1
	.byte	0x51
	.uleb128 0x2
	.byte	0x8
	.byte	0x77
	.byte	0
	.uleb128 0x29
	.4byte	.LVL91
	.4byte	0x4056
	.uleb128 0x2a
	.uleb128 0x1
	.byte	0x50
	.uleb128 0x2
	.byte	0x74
	.sleb128 0
	.byte	0
	.byte	0
	.byte	0
	.uleb128 0x29
	.4byte	.LVL81
	.4byte	0x457a
	.uleb128 0x2a
	.uleb128 0x1
	.byte	0x51
	.uleb128 0x2
	.byte	0x74
	.sleb128 0
	.byte	0
	.byte	0
	.uleb128 0x4d
	.4byte	.LASF779
	.byte	0x1
	.byte	0xfc
	.byte	0x1
	.4byte	0x1211
	.byte	0x1
	.4byte	0x4021
	.uleb128 0x4e
	.4byte	.LASF648
	.byte	0x1
	.byte	0xfc
	.byte	0x1a
	.4byte	0x13e
	.uleb128 0x4e
	.4byte	.LASF752
	.byte	0x1
	.byte	0xfc
	.byte	0x2d
	.4byte	0x13e
	.uleb128 0x4e
	.4byte	.LASF756
	.byte	0x1
	.byte	0xfc
	.byte	0x37
	.4byte	0x86
	.uleb128 0x3e
	.4byte	.LASF780
	.byte	0x1
	.2byte	0x133
	.byte	0x7
	.4byte	0x86
	.uleb128 0x3e
	.4byte	.LASF781
	.byte	0x1
	.2byte	0x134
	.byte	0x7
	.4byte	0x86
	.byte	0
	.uleb128 0x4d
	.4byte	.LASF782
	.byte	0x1
	.byte	0xdf
	.byte	0x1
	.4byte	0x86
	.byte	0x1
	.4byte	0x4056
	.uleb128 0x4e
	.4byte	.LASF648
	.byte	0x1
	.byte	0xdf
	.byte	0x23
	.4byte	0x13e
	.uleb128 0x4f
	.ascii	"err\000"
	.byte	0x1
	.byte	0xe1
	.byte	0x7
	.4byte	0x86
	.uleb128 0x4f
	.ascii	"cc\000"
	.byte	0x1
	.byte	0xe4
	.byte	0x11
	.4byte	0x14f6
	.byte	0
	.uleb128 0x50
	.4byte	.LASF783
	.byte	0x1
	.byte	0xbf
	.byte	0x1
	.4byte	0x86
	.4byte	.LFB37
	.4byte	.LFE37-.LFB37
	.uleb128 0x1
	.byte	0x9c
	.4byte	0x40c8
	.uleb128 0x51
	.4byte	.LASF648
	.byte	0x1
	.byte	0xbf
	.byte	0x22
	.4byte	0x13e
	.4byte	.LLST2
	.4byte	.LVUS2
	.uleb128 0x52
	.ascii	"cc\000"
	.byte	0x1
	.byte	0xc1
	.byte	0x11
	.4byte	0x14f6
	.4byte	.LLST3
	.4byte	.LVUS3
	.uleb128 0x53
	.ascii	"rc\000"
	.byte	0x1
	.byte	0xc2
	.byte	0x7
	.4byte	0x86
	.byte	0
	.uleb128 0x2b
	.4byte	.LVL10
	.4byte	0x457a
	.4byte	0x40b7
	.uleb128 0x2a
	.uleb128 0x1
	.byte	0x50
	.uleb128 0x2
	.byte	0x75
	.sleb128 0
	.byte	0
	.uleb128 0x29
	.4byte	.LVL13
	.4byte	0x457a
	.uleb128 0x2a
	.uleb128 0x1
	.byte	0x51
	.uleb128 0x2
	.byte	0x75
	.sleb128 0
	.byte	0
	.byte	0
	.uleb128 0x50
	.4byte	.LASF784
	.byte	0x1
	.byte	0xab
	.byte	0x1
	.4byte	0x86
	.4byte	.LFB36
	.4byte	.LFE36-.LFB36
	.uleb128 0x1
	.byte	0x9c
	.4byte	0x4107
	.uleb128 0x54
	.ascii	"a\000"
	.byte	0x1
	.byte	0xab
	.byte	0x1e
	.4byte	0x13e
	.4byte	.LLST0
	.4byte	.LVUS0
	.uleb128 0x54
	.ascii	"b\000"
	.byte	0x1
	.byte	0xab
	.byte	0x2d
	.4byte	0x13e
	.4byte	.LLST1
	.4byte	.LVUS1
	.byte	0
	.uleb128 0x55
	.4byte	.LASF804
	.byte	0xa
	.2byte	0x42a
	.byte	0x1
	.4byte	0x11ec
	.byte	0x3
	.uleb128 0x56
	.4byte	0x3922
	.4byte	.LFB88
	.4byte	.LFE88-.LFB88
	.uleb128 0x1
	.byte	0x9c
	.4byte	0x4200
	.uleb128 0x39
	.4byte	0x3930
	.4byte	.LLST16
	.4byte	.LVUS16
	.uleb128 0x57
	.4byte	0x393b
	.4byte	.Ldebug_ranges0+0x30
	.uleb128 0x3a
	.4byte	0x393c
	.uleb128 0x3
	.byte	0x91
	.sleb128 -72
	.uleb128 0x38
	.4byte	0x394b
	.4byte	.LBI54
	.2byte	.LVU234
	.4byte	.Ldebug_ranges0+0x48
	.byte	0x1
	.2byte	0x3c0
	.byte	0x7
	.4byte	0x41dc
	.uleb128 0x39
	.4byte	0x3968
	.4byte	.LLST17
	.4byte	.LVUS17
	.uleb128 0x39
	.4byte	0x395d
	.4byte	.LLST18
	.4byte	.LVUS18
	.uleb128 0x35
	.4byte	.Ldebug_ranges0+0x48
	.uleb128 0x3a
	.4byte	0x3975
	.uleb128 0x3
	.byte	0x91
	.sleb128 -76
	.uleb128 0x3f
	.4byte	0x394b
	.4byte	.LBI56
	.2byte	.LVU241
	.4byte	.Ldebug_ranges0+0x80
	.byte	0x1
	.2byte	0x3ab
	.byte	0x1
	.uleb128 0x39
	.4byte	0x395d
	.4byte	.LLST19
	.4byte	.LVUS19
	.uleb128 0x39
	.4byte	0x3968
	.4byte	.LLST20
	.4byte	.LVUS20
	.uleb128 0x35
	.4byte	.Ldebug_ranges0+0x80
	.uleb128 0x3b
	.4byte	0x3975
	.uleb128 0x29
	.4byte	.LVL75
	.4byte	0x456e
	.uleb128 0x2a
	.uleb128 0x1
	.byte	0x50
	.uleb128 0x2
	.byte	0x76
	.sleb128 0
	.uleb128 0x2a
	.uleb128 0x1
	.byte	0x51
	.uleb128 0x2
	.byte	0x7b
	.sleb128 0
	.uleb128 0x2a
	.uleb128 0x1
	.byte	0x52
	.uleb128 0x1
	.byte	0x32
	.byte	0
	.byte	0
	.byte	0
	.byte	0
	.byte	0
	.uleb128 0x29
	.4byte	.LVL71
	.4byte	0x457a
	.uleb128 0x2a
	.uleb128 0x1
	.byte	0x50
	.uleb128 0x2
	.byte	0x7a
	.sleb128 0
	.uleb128 0x2a
	.uleb128 0x1
	.byte	0x51
	.uleb128 0x2
	.byte	0x77
	.sleb128 0
	.uleb128 0x2a
	.uleb128 0x1
	.byte	0x52
	.uleb128 0x2
	.byte	0x78
	.sleb128 0
	.uleb128 0x2a
	.uleb128 0x1
	.byte	0x53
	.uleb128 0x2
	.byte	0x76
	.sleb128 0
	.byte	0
	.byte	0
	.byte	0
	.uleb128 0x58
	.4byte	0x33f0
	.4byte	.LFB92
	.4byte	.LFE92-.LFB92
	.uleb128 0x1
	.byte	0x9c
	.4byte	0x440d
	.uleb128 0x39
	.4byte	0x3402
	.4byte	.LLST33
	.4byte	.LVUS33
	.uleb128 0x39
	.4byte	0x340f
	.4byte	.LLST34
	.4byte	.LVUS34
	.uleb128 0x39
	.4byte	0x341c
	.4byte	.LLST35
	.4byte	.LVUS35
	.uleb128 0x39
	.4byte	0x3429
	.4byte	.LLST36
	.4byte	.LVUS36
	.uleb128 0x40
	.4byte	0x3443
	.4byte	.LLST37
	.4byte	.LVUS37
	.uleb128 0x40
	.4byte	0x344e
	.4byte	.LLST38
	.4byte	.LVUS38
	.uleb128 0x40
	.4byte	0x345a
	.4byte	.LLST39
	.4byte	.LVUS39
	.uleb128 0x3a
	.4byte	0x3467
	.uleb128 0x3
	.byte	0x91
	.sleb128 -72
	.uleb128 0x40
	.4byte	0x3474
	.4byte	.LLST40
	.4byte	.LVUS40
	.uleb128 0x3b
	.4byte	0x3481
	.uleb128 0x3a
	.4byte	0x348d
	.uleb128 0x2
	.byte	0x91
	.sleb128 -64
	.uleb128 0x39
	.4byte	0x3436
	.4byte	.LLST41
	.4byte	.LVUS41
	.uleb128 0x38
	.4byte	0x394b
	.4byte	.LBI94
	.2byte	.LVU416
	.4byte	.Ldebug_ranges0+0xe8
	.byte	0x1
	.2byte	0x49b
	.byte	0x5
	.4byte	0x4352
	.uleb128 0x39
	.4byte	0x3968
	.4byte	.LLST42
	.4byte	.LVUS42
	.uleb128 0x39
	.4byte	0x395d
	.4byte	.LLST43
	.4byte	.LVUS43
	.uleb128 0x35
	.4byte	.Ldebug_ranges0+0xe8
	.uleb128 0x3a
	.4byte	0x3975
	.uleb128 0x3
	.byte	0x91
	.sleb128 -68
	.uleb128 0x43
	.4byte	0x394b
	.4byte	.LBI96
	.2byte	.LVU430
	.4byte	.LBB96
	.4byte	.LBE96-.LBB96
	.byte	0x1
	.2byte	0x3ab
	.byte	0x1
	.4byte	0x432e
	.uleb128 0x39
	.4byte	0x395d
	.4byte	.LLST44
	.4byte	.LVUS44
	.uleb128 0x39
	.4byte	0x3968
	.4byte	.LLST45
	.4byte	.LVUS45
	.uleb128 0x3b
	.4byte	0x3975
	.uleb128 0x29
	.4byte	.LVL136
	.4byte	0x456e
	.uleb128 0x2a
	.uleb128 0x1
	.byte	0x50
	.uleb128 0x3
	.byte	0x91
	.sleb128 -72
	.uleb128 0x2a
	.uleb128 0x1
	.byte	0x52
	.uleb128 0x1
	.byte	0x32
	.byte	0
	.byte	0
	.uleb128 0x3c
	.4byte	.LVL131
	.uleb128 0x2
	.byte	0x78
	.sleb128 0
	.uleb128 0x2a
	.uleb128 0x1
	.byte	0x51
	.uleb128 0x1
	.byte	0x35
	.uleb128 0x2a
	.uleb128 0x1
	.byte	0x52
	.uleb128 0x1
	.byte	0x30
	.uleb128 0x2a
	.uleb128 0x1
	.byte	0x53
	.uleb128 0x3
	.byte	0x91
	.sleb128 -72
	.uleb128 0x2a
	.uleb128 0x2
	.byte	0x7d
	.sleb128 0
	.uleb128 0x3
	.byte	0x91
	.sleb128 -76
	.byte	0
	.byte	0
	.byte	0
	.uleb128 0x2b
	.4byte	.LVL111
	.4byte	0x457a
	.4byte	0x4373
	.uleb128 0x2a
	.uleb128 0x1
	.byte	0x51
	.uleb128 0x2
	.byte	0x74
	.sleb128 0
	.uleb128 0x2a
	.uleb128 0x1
	.byte	0x52
	.uleb128 0x2
	.byte	0x75
	.sleb128 0
	.uleb128 0x2a
	.uleb128 0x1
	.byte	0x53
	.uleb128 0x3
	.byte	0xf3
	.uleb128 0x1
	.byte	0x53
	.byte	0
	.uleb128 0x2b
	.4byte	.LVL113
	.4byte	0x457a
	.4byte	0x4386
	.uleb128 0x2a
	.uleb128 0x1
	.byte	0x50
	.uleb128 0x1
	.byte	0x31
	.byte	0
	.uleb128 0x2b
	.4byte	.LVL116
	.4byte	0x380a
	.4byte	0x43a1
	.uleb128 0x2a
	.uleb128 0x1
	.byte	0x50
	.uleb128 0x2
	.byte	0x75
	.sleb128 0
	.uleb128 0x2a
	.uleb128 0x1
	.byte	0x51
	.uleb128 0x3
	.byte	0xa
	.2byte	0x2000
	.byte	0
	.uleb128 0x2b
	.4byte	.LVL119
	.4byte	0x45c2
	.4byte	0x43b5
	.uleb128 0x2a
	.uleb128 0x1
	.byte	0x50
	.uleb128 0x2
	.byte	0x74
	.sleb128 0
	.byte	0
	.uleb128 0x2d
	.4byte	.LVL120
	.4byte	0x45aa
	.uleb128 0x2b
	.4byte	.LVL122
	.4byte	0x15bd
	.4byte	0x43e9
	.uleb128 0x2a
	.uleb128 0x1
	.byte	0x50
	.uleb128 0x2
	.byte	0x77
	.sleb128 0
	.uleb128 0x2a
	.uleb128 0x1
	.byte	0x51
	.uleb128 0x1
	.byte	0x31
	.uleb128 0x2a
	.uleb128 0x1
	.byte	0x52
	.uleb128 0x1
	.byte	0x30
	.uleb128 0x2a
	.uleb128 0x1
	.byte	0x53
	.uleb128 0x1
	.byte	0x30
	.uleb128 0x2a
	.uleb128 0x2
	.byte	0x7d
	.sleb128 0
	.uleb128 0x3
	.byte	0x91
	.sleb128 -80
	.byte	0
	.uleb128 0x29
	.4byte	.LVL132
	.4byte	0x457a
	.uleb128 0x2a
	.uleb128 0x1
	.byte	0x51
	.uleb128 0x2
	.byte	0x79
	.sleb128 0
	.uleb128 0x2a
	.uleb128 0x1
	.byte	0x52
	.uleb128 0x2
	.byte	0x7a
	.sleb128 0
	.uleb128 0x2a
	.uleb128 0x1
	.byte	0x53
	.uleb128 0x2
	.byte	0x74
	.sleb128 0
	.uleb128 0x2a
	.uleb128 0x2
	.byte	0x7d
	.sleb128 0
	.uleb128 0x2
	.byte	0x76
	.sleb128 0
	.byte	0
	.byte	0
	.uleb128 0x58
	.4byte	0x2116
	.4byte	.LFB68
	.4byte	.LFE68-.LFB68
	.uleb128 0x1
	.byte	0x9c
	.4byte	0x451b
	.uleb128 0x39
	.4byte	0x2128
	.4byte	.LLST139
	.4byte	.LVUS139
	.uleb128 0x39
	.4byte	0x2133
	.4byte	.LLST140
	.4byte	.LVUS140
	.uleb128 0x39
	.4byte	0x2140
	.4byte	.LLST141
	.4byte	.LVUS141
	.uleb128 0x40
	.4byte	0x214d
	.4byte	.LLST142
	.4byte	.LVUS142
	.uleb128 0x3b
	.4byte	0x215a
	.uleb128 0x59
	.4byte	0x2116
	.4byte	.Ldebug_ranges0+0x360
	.byte	0x1
	.2byte	0x82a
	.byte	0x1
	.4byte	0x44fd
	.uleb128 0x39
	.4byte	0x2140
	.4byte	.LLST143
	.4byte	.LVUS143
	.uleb128 0x5a
	.4byte	0x2133
	.uleb128 0x5a
	.4byte	0x2128
	.uleb128 0x35
	.4byte	.Ldebug_ranges0+0x360
	.uleb128 0x40
	.4byte	0x214d
	.4byte	.LLST144
	.4byte	.LVUS144
	.uleb128 0x40
	.4byte	0x215a
	.4byte	.LLST145
	.4byte	.LVUS145
	.uleb128 0x41
	.4byte	0x2166
	.4byte	.Ldebug_ranges0+0x378
	.4byte	0x44eb
	.uleb128 0x40
	.4byte	0x2167
	.4byte	.LLST146
	.4byte	.LVUS146
	.uleb128 0x2b
	.4byte	.LVL408
	.4byte	0x456e
	.4byte	0x44d4
	.uleb128 0x2a
	.uleb128 0x1
	.byte	0x51
	.uleb128 0x2
	.byte	0x77
	.sleb128 0
	.uleb128 0x2a
	.uleb128 0x1
	.byte	0x52
	.uleb128 0x2
	.byte	0x74
	.sleb128 0
	.byte	0
	.uleb128 0x29
	.4byte	.LVL409
	.4byte	0x457a
	.uleb128 0x2a
	.uleb128 0x1
	.byte	0x50
	.uleb128 0x2
	.byte	0x78
	.sleb128 0
	.uleb128 0x2a
	.uleb128 0x1
	.byte	0x51
	.uleb128 0x2
	.byte	0x74
	.sleb128 0
	.byte	0
	.byte	0
	.uleb128 0x29
	.4byte	.LVL403
	.4byte	0x25e5
	.uleb128 0x2a
	.uleb128 0x1
	.byte	0x50
	.uleb128 0x2
	.byte	0x76
	.sleb128 0
	.byte	0
	.byte	0
	.byte	0
	.uleb128 0x2b
	.4byte	.LVL399
	.4byte	0x457a
	.4byte	0x4511
	.uleb128 0x2a
	.uleb128 0x1
	.byte	0x51
	.uleb128 0x2
	.byte	0x75
	.sleb128 0
	.byte	0
	.uleb128 0x2d
	.4byte	.LVL413
	.4byte	0x457a
	.byte	0
	.uleb128 0x58
	.4byte	0x1b34
	.4byte	.LFB79
	.4byte	.LFE79-.LFB79
	.uleb128 0x1
	.byte	0x9c
	.4byte	0x456e
	.uleb128 0x39
	.4byte	0x1b46
	.4byte	.LLST191
	.4byte	.LVUS191
	.uleb128 0x5b
	.4byte	0x1b34
	.4byte	.LBB330
	.4byte	.LBE330-.LBB330
	.byte	0x1
	.2byte	0x95f
	.byte	0x1
	.uleb128 0x5a
	.4byte	0x1b46
	.uleb128 0x5c
	.4byte	0x1b51
	.4byte	.LBB332
	.4byte	.LBE332-.LBB332
	.uleb128 0x40
	.4byte	0x1b52
	.4byte	.LLST192
	.4byte	.LVUS192
	.byte	0
	.byte	0
	.byte	0
	.uleb128 0x5d
	.4byte	.LASF785
	.4byte	.LASF785
	.byte	0xe
	.byte	0x1f
	.byte	0x9
	.uleb128 0x5d
	.4byte	.LASF786
	.4byte	.LASF786
	.byte	0xf
	.byte	0x4c
	.byte	0x6
	.uleb128 0x5d
	.4byte	.LASF787
	.4byte	.LASF787
	.byte	0x10
	.byte	0xe
	.byte	0x6
	.uleb128 0x5d
	.4byte	.LASF788
	.4byte	.LASF788
	.byte	0x10
	.byte	0xf
	.byte	0x7
	.uleb128 0x5d
	.4byte	.LASF789
	.4byte	.LASF789
	.byte	0x10
	.byte	0xd
	.byte	0x7
	.uleb128 0x5d
	.4byte	.LASF790
	.4byte	.LASF790
	.byte	0x10
	.byte	0xb
	.byte	0x7
	.uleb128 0x5d
	.4byte	.LASF791
	.4byte	.LASF791
	.byte	0x10
	.byte	0x16
	.byte	0x6
	.uleb128 0x5d
	.4byte	.LASF792
	.4byte	.LASF792
	.byte	0xe
	.byte	0x29
	.byte	0x9
	.uleb128 0x5d
	.4byte	.LASF793
	.4byte	.LASF793
	.byte	0xe
	.byte	0x20
	.byte	0x9
	.uleb128 0x5d
	.4byte	.LASF794
	.4byte	.LASF794
	.byte	0xe
	.byte	0x23
	.byte	0x8
	.uleb128 0x5d
	.4byte	.LASF795
	.4byte	.LASF795
	.byte	0xf
	.byte	0x4d
	.byte	0x6
	.uleb128 0x5d
	.4byte	.LASF796
	.4byte	.LASF796
	.byte	0xe
	.byte	0x21
	.byte	0x9
	.uleb128 0x5d
	.4byte	.LASF797
	.4byte	.LASF797
	.byte	0x11
	.byte	0xd5
	.byte	0xc
	.byte	0
	.section	.debug_abbrev,"",%progbits
.Ldebug_abbrev0:
	.uleb128 0x1
	.uleb128 0x11
	.byte	0x1
	.uleb128 0x25
	.uleb128 0xe
	.uleb128 0x13
	.uleb128 0xb
	.uleb128 0x3
	.uleb128 0xe
	.uleb128 0x1b
	.uleb128 0xe
	.uleb128 0x55
	.uleb128 0x17
	.uleb128 0x11
	.uleb128 0x1
	.uleb128 0x10
	.uleb128 0x17
	.byte	0
	.byte	0
	.uleb128 0x2
	.uleb128 0x24
	.byte	0
	.uleb128 0xb
	.uleb128 0xb
	.uleb128 0x3e
	.uleb128 0xb
	.uleb128 0x3
	.uleb128 0xe
	.byte	0
	.byte	0
	.uleb128 0x3
	.uleb128 0x26
	.byte	0
	.uleb128 0x49
	.uleb128 0x13
	.byte	0
	.byte	0
	.uleb128 0x4
	.uleb128 0x16
	.byte	0
	.uleb128 0x3
	.uleb128 0xe
	.uleb128 0x3a
	.uleb128 0xb
	.uleb128 0x3b
	.uleb128 0xb
	.uleb128 0x39
	.uleb128 0xb
	.uleb128 0x49
	.uleb128 0x13
	.byte	0
	.byte	0
	.uleb128 0x5
	.uleb128 0x24
	.byte	0
	.uleb128 0xb
	.uleb128 0xb
	.uleb128 0x3e
	.uleb128 0xb
	.uleb128 0x3
	.uleb128 0x8
	.byte	0
	.byte	0
	.uleb128 0x6
	.uleb128 0xf
	.byte	0
	.uleb128 0xb
	.uleb128 0xb
	.byte	0
	.byte	0
	.uleb128 0x7
	.uleb128 0xf
	.byte	0
	.uleb128 0xb
	.uleb128 0xb
	.uleb128 0x49
	.uleb128 0x13
	.byte	0
	.byte	0
	.uleb128 0x8
	.uleb128 0x13
	.byte	0x1
	.uleb128 0x3
	.uleb128 0xe
	.uleb128 0xb
	.uleb128 0xb
	.uleb128 0x3a
	.uleb128 0xb
	.uleb128 0x3b
	.uleb128 0xb
	.uleb128 0x39
	.uleb128 0xb
	.uleb128 0x1
	.uleb128 0x13
	.byte	0
	.byte	0
	.uleb128 0x9
	.uleb128 0xd
	.byte	0
	.uleb128 0x3
	.uleb128 0xe
	.uleb128 0x3a
	.uleb128 0xb
	.uleb128 0x3b
	.uleb128 0xb
	.uleb128 0x39
	.uleb128 0xb
	.uleb128 0x49
	.uleb128 0x13
	.uleb128 0x38
	.uleb128 0xb
	.byte	0
	.byte	0
	.uleb128 0xa
	.uleb128 0x26
	.byte	0
	.byte	0
	.byte	0
	.uleb128 0xb
	.uleb128 0x1
	.byte	0x1
	.uleb128 0x49
	.uleb128 0x13
	.uleb128 0x1
	.uleb128 0x13
	.byte	0
	.byte	0
	.uleb128 0xc
	.uleb128 0x21
	.byte	0
	.uleb128 0x49
	.uleb128 0x13
	.uleb128 0x2f
	.uleb128 0xb
	.byte	0
	.byte	0
	.uleb128 0xd
	.uleb128 0x4
	.byte	0x1
	.uleb128 0x3e
	.uleb128 0xb
	.uleb128 0xb
	.uleb128 0xb
	.uleb128 0x49
	.uleb128 0x13
	.uleb128 0x3a
	.uleb128 0xb
	.uleb128 0x3b
	.uleb128 0xb
	.uleb128 0x39
	.uleb128 0xb
	.uleb128 0x1
	.uleb128 0x13
	.byte	0
	.byte	0
	.uleb128 0xe
	.uleb128 0x28
	.byte	0
	.uleb128 0x3
	.uleb128 0xe
	.uleb128 0x1c
	.uleb128 0xb
	.byte	0
	.byte	0
	.uleb128 0xf
	.uleb128 0x28
	.byte	0
	.uleb128 0x3
	.uleb128 0xe
	.uleb128 0x1c
	.uleb128 0x5
	.byte	0
	.byte	0
	.uleb128 0x10
	.uleb128 0x28
	.byte	0
	.uleb128 0x3
	.uleb128 0xe
	.uleb128 0x1c
	.uleb128 0x6
	.byte	0
	.byte	0
	.uleb128 0x11
	.uleb128 0x16
	.byte	0
	.uleb128 0x3
	.uleb128 0xe
	.uleb128 0x3a
	.uleb128 0xb
	.uleb128 0x3b
	.uleb128 0x5
	.uleb128 0x39
	.uleb128 0xb
	.uleb128 0x49
	.uleb128 0x13
	.byte	0
	.byte	0
	.uleb128 0x12
	.uleb128 0x16
	.byte	0
	.uleb128 0x3
	.uleb128 0x8
	.uleb128 0x3a
	.uleb128 0xb
	.uleb128 0x3b
	.uleb128 0xb
	.uleb128 0x39
	.uleb128 0xb
	.uleb128 0x49
	.uleb128 0x13
	.byte	0
	.byte	0
	.uleb128 0x13
	.uleb128 0x13
	.byte	0x1
	.uleb128 0xb
	.uleb128 0xb
	.uleb128 0x3a
	.uleb128 0xb
	.uleb128 0x3b
	.uleb128 0xb
	.uleb128 0x39
	.uleb128 0xb
	.uleb128 0x1
	.uleb128 0x13
	.byte	0
	.byte	0
	.uleb128 0x14
	.uleb128 0xd
	.byte	0
	.uleb128 0x3
	.uleb128 0x8
	.uleb128 0x3a
	.uleb128 0xb
	.uleb128 0x3b
	.uleb128 0xb
	.uleb128 0x39
	.uleb128 0xb
	.uleb128 0x49
	.uleb128 0x13
	.uleb128 0x38
	.uleb128 0xb
	.byte	0
	.byte	0
	.uleb128 0x15
	.uleb128 0x4
	.byte	0x1
	.uleb128 0x3
	.uleb128 0xe
	.uleb128 0x3e
	.uleb128 0xb
	.uleb128 0xb
	.uleb128 0xb
	.uleb128 0x49
	.uleb128 0x13
	.uleb128 0x3a
	.uleb128 0xb
	.uleb128 0x3b
	.uleb128 0xb
	.uleb128 0x39
	.uleb128 0xb
	.uleb128 0x1
	.uleb128 0x13
	.byte	0
	.byte	0
	.uleb128 0x16
	.uleb128 0xd
	.byte	0
	.uleb128 0x3
	.uleb128 0x8
	.uleb128 0x3a
	.uleb128 0xb
	.uleb128 0x3b
	.uleb128 0x5
	.uleb128 0x39
	.uleb128 0xb
	.uleb128 0x49
	.uleb128 0x13
	.uleb128 0x38
	.uleb128 0xb
	.byte	0
	.byte	0
	.uleb128 0x17
	.uleb128 0xd
	.byte	0
	.uleb128 0x3
	.uleb128 0xe
	.uleb128 0x3a
	.uleb128 0xb
	.uleb128 0x3b
	.uleb128 0x5
	.uleb128 0x39
	.uleb128 0xb
	.uleb128 0x49
	.uleb128 0x13
	.uleb128 0x38
	.uleb128 0xb
	.byte	0
	.byte	0
	.uleb128 0x18
	.uleb128 0x15
	.byte	0x1
	.uleb128 0x27
	.uleb128 0x19
	.uleb128 0x49
	.uleb128 0x13
	.uleb128 0x1
	.uleb128 0x13
	.byte	0
	.byte	0
	.uleb128 0x19
	.uleb128 0x5
	.byte	0
	.uleb128 0x49
	.uleb128 0x13
	.byte	0
	.byte	0
	.uleb128 0x1a
	.uleb128 0x34
	.byte	0
	.uleb128 0x3
	.uleb128 0xe
	.uleb128 0x3a
	.uleb128 0xb
	.uleb128 0x3b
	.uleb128 0x5
	.uleb128 0x39
	.uleb128 0xb
	.uleb128 0x49
	.uleb128 0x13
	.uleb128 0x3f
	.uleb128 0x19
	.uleb128 0x3c
	.uleb128 0x19
	.byte	0
	.byte	0
	.uleb128 0x1b
	.uleb128 0x34
	.byte	0
	.uleb128 0x3
	.uleb128 0xe
	.uleb128 0x3a
	.uleb128 0xb
	.uleb128 0x3b
	.uleb128 0xb
	.uleb128 0x39
	.uleb128 0xb
	.uleb128 0x49
	.uleb128 0x13
	.byte	0
	.byte	0
	.uleb128 0x1c
	.uleb128 0x34
	.byte	0
	.uleb128 0x47
	.uleb128 0x13
	.uleb128 0x3a
	.uleb128 0xb
	.uleb128 0x3b
	.uleb128 0xb
	.uleb128 0x39
	.uleb128 0xb
	.uleb128 0x2
	.uleb128 0x18
	.byte	0
	.byte	0
	.uleb128 0x1d
	.uleb128 0x34
	.byte	0
	.uleb128 0x3
	.uleb128 0xe
	.uleb128 0x3a
	.uleb128 0xb
	.uleb128 0x3b
	.uleb128 0x5
	.uleb128 0x39
	.uleb128 0xb
	.uleb128 0x49
	.uleb128 0x13
	.uleb128 0x3f
	.uleb128 0x19
	.uleb128 0x2
	.uleb128 0x18
	.byte	0
	.byte	0
	.uleb128 0x1e
	.uleb128 0x2e
	.byte	0x1
	.uleb128 0x3f
	.uleb128 0x19
	.uleb128 0x3
	.uleb128 0xe
	.uleb128 0x3a
	.uleb128 0xb
	.uleb128 0x3b
	.uleb128 0x5
	.uleb128 0x39
	.uleb128 0xb
	.uleb128 0x27
	.uleb128 0x19
	.uleb128 0x49
	.uleb128 0x13
	.uleb128 0x11
	.uleb128 0x1
	.uleb128 0x12
	.uleb128 0x6
	.uleb128 0x40
	.uleb128 0x18
	.uleb128 0x2117
	.uleb128 0x19
	.uleb128 0x1
	.uleb128 0x13
	.byte	0
	.byte	0
	.uleb128 0x1f
	.uleb128 0x5
	.byte	0
	.uleb128 0x3
	.uleb128 0xe
	.uleb128 0x3a
	.uleb128 0xb
	.uleb128 0x3b
	.uleb128 0x5
	.uleb128 0x39
	.uleb128 0xb
	.uleb128 0x49
	.uleb128 0x13
	.uleb128 0x2
	.uleb128 0x17
	.uleb128 0x2137
	.uleb128 0x17
	.byte	0
	.byte	0
	.uleb128 0x20
	.uleb128 0x5
	.byte	0
	.uleb128 0x3
	.uleb128 0x8
	.uleb128 0x3a
	.uleb128 0xb
	.uleb128 0x3b
	.uleb128 0x5
	.uleb128 0x39
	.uleb128 0xb
	.uleb128 0x49
	.uleb128 0x13
	.uleb128 0x2
	.uleb128 0x17
	.uleb128 0x2137
	.uleb128 0x17
	.byte	0
	.byte	0
	.uleb128 0x21
	.uleb128 0x5
	.byte	0
	.uleb128 0x3
	.uleb128 0xe
	.uleb128 0x3a
	.uleb128 0xb
	.uleb128 0x3b
	.uleb128 0x5
	.uleb128 0x39
	.uleb128 0xb
	.uleb128 0x49
	.uleb128 0x13
	.uleb128 0x2
	.uleb128 0x18
	.byte	0
	.byte	0
	.uleb128 0x22
	.uleb128 0x34
	.byte	0
	.uleb128 0x3
	.uleb128 0x8
	.uleb128 0x3a
	.uleb128 0xb
	.uleb128 0x3b
	.uleb128 0x5
	.uleb128 0x39
	.uleb128 0xb
	.uleb128 0x49
	.uleb128 0x13
	.uleb128 0x2
	.uleb128 0x17
	.uleb128 0x2137
	.uleb128 0x17
	.byte	0
	.byte	0
	.uleb128 0x23
	.uleb128 0x34
	.byte	0
	.uleb128 0x3
	.uleb128 0xe
	.uleb128 0x3a
	.uleb128 0xb
	.uleb128 0x3b
	.uleb128 0x5
	.uleb128 0x39
	.uleb128 0xb
	.uleb128 0x49
	.uleb128 0x13
	.uleb128 0x2
	.uleb128 0x17
	.uleb128 0x2137
	.uleb128 0x17
	.byte	0
	.byte	0
	.uleb128 0x24
	.uleb128 0xa
	.byte	0
	.uleb128 0x3
	.uleb128 0xe
	.uleb128 0x3a
	.uleb128 0xb
	.uleb128 0x3b
	.uleb128 0x5
	.uleb128 0x39
	.uleb128 0xb
	.uleb128 0x11
	.uleb128 0x1
	.byte	0
	.byte	0
	.uleb128 0x25
	.uleb128 0xb
	.byte	0x1
	.uleb128 0x55
	.uleb128 0x17
	.uleb128 0x1
	.uleb128 0x13
	.byte	0
	.byte	0
	.uleb128 0x26
	.uleb128 0x34
	.byte	0
	.uleb128 0x3
	.uleb128 0x8
	.uleb128 0x3a
	.uleb128 0xb
	.uleb128 0x3b
	.uleb128 0x5
	.uleb128 0x39
	.uleb128 0xb
	.uleb128 0x49
	.uleb128 0x13
	.byte	0
	.byte	0
	.uleb128 0x27
	.uleb128 0xb
	.byte	0x1
	.uleb128 0x11
	.uleb128 0x1
	.uleb128 0x12
	.uleb128 0x6
	.uleb128 0x1
	.uleb128 0x13
	.byte	0
	.byte	0
	.uleb128 0x28
	.uleb128 0x34
	.byte	0
	.uleb128 0x3
	.uleb128 0x8
	.uleb128 0x3a
	.uleb128 0xb
	.uleb128 0x3b
	.uleb128 0x5
	.uleb128 0x39
	.uleb128 0xb
	.uleb128 0x49
	.uleb128 0x13
	.uleb128 0x2
	.uleb128 0x18
	.byte	0
	.byte	0
	.uleb128 0x29
	.uleb128 0x4109
	.byte	0x1
	.uleb128 0x11
	.uleb128 0x1
	.uleb128 0x31
	.uleb128 0x13
	.byte	0
	.byte	0
	.uleb128 0x2a
	.uleb128 0x410a
	.byte	0
	.uleb128 0x2
	.uleb128 0x18
	.uleb128 0x2111
	.uleb128 0x18
	.byte	0
	.byte	0
	.uleb128 0x2b
	.uleb128 0x4109
	.byte	0x1
	.uleb128 0x11
	.uleb128 0x1
	.uleb128 0x31
	.uleb128 0x13
	.uleb128 0x1
	.uleb128 0x13
	.byte	0
	.byte	0
	.uleb128 0x2c
	.uleb128 0x2e
	.byte	0x1
	.uleb128 0x3f
	.uleb128 0x19
	.uleb128 0x3
	.uleb128 0xe
	.uleb128 0x3a
	.uleb128 0xb
	.uleb128 0x3b
	.uleb128 0x5
	.uleb128 0x39
	.uleb128 0xb
	.uleb128 0x27
	.uleb128 0x19
	.uleb128 0x11
	.uleb128 0x1
	.uleb128 0x12
	.uleb128 0x6
	.uleb128 0x40
	.uleb128 0x18
	.uleb128 0x2117
	.uleb128 0x19
	.uleb128 0x1
	.uleb128 0x13
	.byte	0
	.byte	0
	.uleb128 0x2d
	.uleb128 0x4109
	.byte	0
	.uleb128 0x11
	.uleb128 0x1
	.uleb128 0x31
	.uleb128 0x13
	.byte	0
	.byte	0
	.uleb128 0x2e
	.uleb128 0x5
	.byte	0
	.uleb128 0x3
	.uleb128 0x8
	.uleb128 0x3a
	.uleb128 0xb
	.uleb128 0x3b
	.uleb128 0x5
	.uleb128 0x39
	.uleb128 0xb
	.uleb128 0x49
	.uleb128 0x13
	.uleb128 0x2
	.uleb128 0x18
	.byte	0
	.byte	0
	.uleb128 0x2f
	.uleb128 0x4109
	.byte	0x1
	.uleb128 0x11
	.uleb128 0x1
	.uleb128 0x2115
	.uleb128 0x19
	.uleb128 0x31
	.uleb128 0x13
	.byte	0
	.byte	0
	.uleb128 0x30
	.uleb128 0x4109
	.byte	0x1
	.uleb128 0x11
	.uleb128 0x1
	.uleb128 0x2115
	.uleb128 0x19
	.uleb128 0x31
	.uleb128 0x13
	.uleb128 0x1
	.uleb128 0x13
	.byte	0
	.byte	0
	.uleb128 0x31
	.uleb128 0xb
	.byte	0x1
	.uleb128 0x11
	.uleb128 0x1
	.uleb128 0x12
	.uleb128 0x6
	.byte	0
	.byte	0
	.uleb128 0x32
	.uleb128 0x2e
	.byte	0x1
	.uleb128 0x3f
	.uleb128 0x19
	.uleb128 0x3
	.uleb128 0xe
	.uleb128 0x3a
	.uleb128 0xb
	.uleb128 0x3b
	.uleb128 0x5
	.uleb128 0x39
	.uleb128 0xb
	.uleb128 0x27
	.uleb128 0x19
	.uleb128 0x49
	.uleb128 0x13
	.uleb128 0x20
	.uleb128 0xb
	.uleb128 0x1
	.uleb128 0x13
	.byte	0
	.byte	0
	.uleb128 0x33
	.uleb128 0x5
	.byte	0
	.uleb128 0x3
	.uleb128 0x8
	.uleb128 0x3a
	.uleb128 0xb
	.uleb128 0x3b
	.uleb128 0x5
	.uleb128 0x39
	.uleb128 0xb
	.uleb128 0x49
	.uleb128 0x13
	.byte	0
	.byte	0
	.uleb128 0x34
	.uleb128 0xb
	.byte	0x1
	.byte	0
	.byte	0
	.uleb128 0x35
	.uleb128 0xb
	.byte	0x1
	.uleb128 0x55
	.uleb128 0x17
	.byte	0
	.byte	0
	.uleb128 0x36
	.uleb128 0x34
	.byte	0
	.uleb128 0x3
	.uleb128 0xe
	.uleb128 0x3a
	.uleb128 0xb
	.uleb128 0x3b
	.uleb128 0x5
	.uleb128 0x39
	.uleb128 0xb
	.uleb128 0x49
	.uleb128 0x13
	.uleb128 0x1c
	.uleb128 0x5
	.byte	0
	.byte	0
	.uleb128 0x37
	.uleb128 0x34
	.byte	0
	.uleb128 0x3
	.uleb128 0xe
	.uleb128 0x3a
	.uleb128 0xb
	.uleb128 0x3b
	.uleb128 0x5
	.uleb128 0x39
	.uleb128 0xb
	.uleb128 0x49
	.uleb128 0x13
	.uleb128 0x2
	.uleb128 0x18
	.byte	0
	.byte	0
	.uleb128 0x38
	.uleb128 0x1d
	.byte	0x1
	.uleb128 0x31
	.uleb128 0x13
	.uleb128 0x52
	.uleb128 0x1
	.uleb128 0x2138
	.uleb128 0x5
	.uleb128 0x55
	.uleb128 0x17
	.uleb128 0x58
	.uleb128 0xb
	.uleb128 0x59
	.uleb128 0x5
	.uleb128 0x57
	.uleb128 0xb
	.uleb128 0x1
	.uleb128 0x13
	.byte	0
	.byte	0
	.uleb128 0x39
	.uleb128 0x5
	.byte	0
	.uleb128 0x31
	.uleb128 0x13
	.uleb128 0x2
	.uleb128 0x17
	.uleb128 0x2137
	.uleb128 0x17
	.byte	0
	.byte	0
	.uleb128 0x3a
	.uleb128 0x34
	.byte	0
	.uleb128 0x31
	.uleb128 0x13
	.uleb128 0x2
	.uleb128 0x18
	.byte	0
	.byte	0
	.uleb128 0x3b
	.uleb128 0x34
	.byte	0
	.uleb128 0x31
	.uleb128 0x13
	.byte	0
	.byte	0
	.uleb128 0x3c
	.uleb128 0x4109
	.byte	0x1
	.uleb128 0x11
	.uleb128 0x1
	.uleb128 0x2113
	.uleb128 0x18
	.byte	0
	.byte	0
	.uleb128 0x3d
	.uleb128 0x5
	.byte	0
	.uleb128 0x3
	.uleb128 0xe
	.uleb128 0x3a
	.uleb128 0xb
	.uleb128 0x3b
	.uleb128 0x5
	.uleb128 0x39
	.uleb128 0xb
	.uleb128 0x49
	.uleb128 0x13
	.byte	0
	.byte	0
	.uleb128 0x3e
	.uleb128 0x34
	.byte	0
	.uleb128 0x3
	.uleb128 0xe
	.uleb128 0x3a
	.uleb128 0xb
	.uleb128 0x3b
	.uleb128 0x5
	.uleb128 0x39
	.uleb128 0xb
	.uleb128 0x49
	.uleb128 0x13
	.byte	0
	.byte	0
	.uleb128 0x3f
	.uleb128 0x1d
	.byte	0x1
	.uleb128 0x31
	.uleb128 0x13
	.uleb128 0x52
	.uleb128 0x1
	.uleb128 0x2138
	.uleb128 0x5
	.uleb128 0x55
	.uleb128 0x17
	.uleb128 0x58
	.uleb128 0xb
	.uleb128 0x59
	.uleb128 0x5
	.uleb128 0x57
	.uleb128 0xb
	.byte	0
	.byte	0
	.uleb128 0x40
	.uleb128 0x34
	.byte	0
	.uleb128 0x31
	.uleb128 0x13
	.uleb128 0x2
	.uleb128 0x17
	.uleb128 0x2137
	.uleb128 0x17
	.byte	0
	.byte	0
	.uleb128 0x41
	.uleb128 0xb
	.byte	0x1
	.uleb128 0x31
	.uleb128 0x13
	.uleb128 0x55
	.uleb128 0x17
	.uleb128 0x1
	.uleb128 0x13
	.byte	0
	.byte	0
	.uleb128 0x42
	.uleb128 0xb
	.byte	0x1
	.uleb128 0x31
	.uleb128 0x13
	.uleb128 0x11
	.uleb128 0x1
	.uleb128 0x12
	.uleb128 0x6
	.uleb128 0x1
	.uleb128 0x13
	.byte	0
	.byte	0
	.uleb128 0x43
	.uleb128 0x1d
	.byte	0x1
	.uleb128 0x31
	.uleb128 0x13
	.uleb128 0x52
	.uleb128 0x1
	.uleb128 0x2138
	.uleb128 0x5
	.uleb128 0x11
	.uleb128 0x1
	.uleb128 0x12
	.uleb128 0x6
	.uleb128 0x58
	.uleb128 0xb
	.uleb128 0x59
	.uleb128 0x5
	.uleb128 0x57
	.uleb128 0xb
	.uleb128 0x1
	.uleb128 0x13
	.byte	0
	.byte	0
	.uleb128 0x44
	.uleb128 0x4109
	.byte	0x1
	.uleb128 0x11
	.uleb128 0x1
	.uleb128 0x2113
	.uleb128 0x18
	.uleb128 0x1
	.uleb128 0x13
	.byte	0
	.byte	0
	.uleb128 0x45
	.uleb128 0x4109
	.byte	0x1
	.uleb128 0x11
	.uleb128 0x1
	.byte	0
	.byte	0
	.uleb128 0x46
	.uleb128 0x2e
	.byte	0x1
	.uleb128 0x3
	.uleb128 0xe
	.uleb128 0x3a
	.uleb128 0xb
	.uleb128 0x3b
	.uleb128 0x5
	.uleb128 0x39
	.uleb128 0xb
	.uleb128 0x27
	.uleb128 0x19
	.uleb128 0x49
	.uleb128 0x13
	.uleb128 0x11
	.uleb128 0x1
	.uleb128 0x12
	.uleb128 0x6
	.uleb128 0x40
	.uleb128 0x18
	.uleb128 0x2117
	.uleb128 0x19
	.uleb128 0x1
	.uleb128 0x13
	.byte	0
	.byte	0
	.uleb128 0x47
	.uleb128 0x4109
	.byte	0x1
	.uleb128 0x11
	.uleb128 0x1
	.uleb128 0x1
	.uleb128 0x13
	.byte	0
	.byte	0
	.uleb128 0x48
	.uleb128 0x2e
	.byte	0x1
	.uleb128 0x3
	.uleb128 0xe
	.uleb128 0x3a
	.uleb128 0xb
	.uleb128 0x3b
	.uleb128 0x5
	.uleb128 0x39
	.uleb128 0xb
	.uleb128 0x27
	.uleb128 0x19
	.uleb128 0x49
	.uleb128 0x13
	.uleb128 0x20
	.uleb128 0xb
	.uleb128 0x1
	.uleb128 0x13
	.byte	0
	.byte	0
	.uleb128 0x49
	.uleb128 0xb
	.byte	0x1
	.uleb128 0x1
	.uleb128 0x13
	.byte	0
	.byte	0
	.uleb128 0x4a
	.uleb128 0x410a
	.byte	0
	.uleb128 0x31
	.uleb128 0x13
	.uleb128 0x2111
	.uleb128 0x18
	.byte	0
	.byte	0
	.uleb128 0x4b
	.uleb128 0x2e
	.byte	0x1
	.uleb128 0x3
	.uleb128 0xe
	.uleb128 0x3a
	.uleb128 0xb
	.uleb128 0x3b
	.uleb128 0x5
	.uleb128 0x39
	.uleb128 0xb
	.uleb128 0x27
	.uleb128 0x19
	.uleb128 0x20
	.uleb128 0xb
	.uleb128 0x1
	.uleb128 0x13
	.byte	0
	.byte	0
	.uleb128 0x4c
	.uleb128 0x34
	.byte	0
	.uleb128 0x3
	.uleb128 0x8
	.uleb128 0x3a
	.uleb128 0xb
	.uleb128 0x3b
	.uleb128 0x5
	.uleb128 0x39
	.uleb128 0xb
	.uleb128 0x49
	.uleb128 0x13
	.uleb128 0x1c
	.uleb128 0xb
	.byte	0
	.byte	0
	.uleb128 0x4d
	.uleb128 0x2e
	.byte	0x1
	.uleb128 0x3
	.uleb128 0xe
	.uleb128 0x3a
	.uleb128 0xb
	.uleb128 0x3b
	.uleb128 0xb
	.uleb128 0x39
	.uleb128 0xb
	.uleb128 0x27
	.uleb128 0x19
	.uleb128 0x49
	.uleb128 0x13
	.uleb128 0x20
	.uleb128 0xb
	.uleb128 0x1
	.uleb128 0x13
	.byte	0
	.byte	0
	.uleb128 0x4e
	.uleb128 0x5
	.byte	0
	.uleb128 0x3
	.uleb128 0xe
	.uleb128 0x3a
	.uleb128 0xb
	.uleb128 0x3b
	.uleb128 0xb
	.uleb128 0x39
	.uleb128 0xb
	.uleb128 0x49
	.uleb128 0x13
	.byte	0
	.byte	0
	.uleb128 0x4f
	.uleb128 0x34
	.byte	0
	.uleb128 0x3
	.uleb128 0x8
	.uleb128 0x3a
	.uleb128 0xb
	.uleb128 0x3b
	.uleb128 0xb
	.uleb128 0x39
	.uleb128 0xb
	.uleb128 0x49
	.uleb128 0x13
	.byte	0
	.byte	0
	.uleb128 0x50
	.uleb128 0x2e
	.byte	0x1
	.uleb128 0x3
	.uleb128 0xe
	.uleb128 0x3a
	.uleb128 0xb
	.uleb128 0x3b
	.uleb128 0xb
	.uleb128 0x39
	.uleb128 0xb
	.uleb128 0x27
	.uleb128 0x19
	.uleb128 0x49
	.uleb128 0x13
	.uleb128 0x11
	.uleb128 0x1
	.uleb128 0x12
	.uleb128 0x6
	.uleb128 0x40
	.uleb128 0x18
	.uleb128 0x2117
	.uleb128 0x19
	.uleb128 0x1
	.uleb128 0x13
	.byte	0
	.byte	0
	.uleb128 0x51
	.uleb128 0x5
	.byte	0
	.uleb128 0x3
	.uleb128 0xe
	.uleb128 0x3a
	.uleb128 0xb
	.uleb128 0x3b
	.uleb128 0xb
	.uleb128 0x39
	.uleb128 0xb
	.uleb128 0x49
	.uleb128 0x13
	.uleb128 0x2
	.uleb128 0x17
	.uleb128 0x2137
	.uleb128 0x17
	.byte	0
	.byte	0
	.uleb128 0x52
	.uleb128 0x34
	.byte	0
	.uleb128 0x3
	.uleb128 0x8
	.uleb128 0x3a
	.uleb128 0xb
	.uleb128 0x3b
	.uleb128 0xb
	.uleb128 0x39
	.uleb128 0xb
	.uleb128 0x49
	.uleb128 0x13
	.uleb128 0x2
	.uleb128 0x17
	.uleb128 0x2137
	.uleb128 0x17
	.byte	0
	.byte	0
	.uleb128 0x53
	.uleb128 0x34
	.byte	0
	.uleb128 0x3
	.uleb128 0x8
	.uleb128 0x3a
	.uleb128 0xb
	.uleb128 0x3b
	.uleb128 0xb
	.uleb128 0x39
	.uleb128 0xb
	.uleb128 0x49
	.uleb128 0x13
	.uleb128 0x1c
	.uleb128 0xb
	.byte	0
	.byte	0
	.uleb128 0x54
	.uleb128 0x5
	.byte	0
	.uleb128 0x3
	.uleb128 0x8
	.uleb128 0x3a
	.uleb128 0xb
	.uleb128 0x3b
	.uleb128 0xb
	.uleb128 0x39
	.uleb128 0xb
	.uleb128 0x49
	.uleb128 0x13
	.uleb128 0x2
	.uleb128 0x17
	.uleb128 0x2137
	.uleb128 0x17
	.byte	0
	.byte	0
	.uleb128 0x55
	.uleb128 0x2e
	.byte	0
	.uleb128 0x3
	.uleb128 0xe
	.uleb128 0x3a
	.uleb128 0xb
	.uleb128 0x3b
	.uleb128 0x5
	.uleb128 0x39
	.uleb128 0xb
	.uleb128 0x27
	.uleb128 0x19
	.uleb128 0x49
	.uleb128 0x13
	.uleb128 0x20
	.uleb128 0xb
	.byte	0
	.byte	0
	.uleb128 0x56
	.uleb128 0x2e
	.byte	0x1
	.uleb128 0x31
	.uleb128 0x13
	.uleb128 0x11
	.uleb128 0x1
	.uleb128 0x12
	.uleb128 0x6
	.uleb128 0x40
	.uleb128 0x18
	.uleb128 0x2116
	.uleb128 0x19
	.uleb128 0x1
	.uleb128 0x13
	.byte	0
	.byte	0
	.uleb128 0x57
	.uleb128 0xb
	.byte	0x1
	.uleb128 0x31
	.uleb128 0x13
	.uleb128 0x55
	.uleb128 0x17
	.byte	0
	.byte	0
	.uleb128 0x58
	.uleb128 0x2e
	.byte	0x1
	.uleb128 0x31
	.uleb128 0x13
	.uleb128 0x11
	.uleb128 0x1
	.uleb128 0x12
	.uleb128 0x6
	.uleb128 0x40
	.uleb128 0x18
	.uleb128 0x2117
	.uleb128 0x19
	.uleb128 0x1
	.uleb128 0x13
	.byte	0
	.byte	0
	.uleb128 0x59
	.uleb128 0x1d
	.byte	0x1
	.uleb128 0x31
	.uleb128 0x13
	.uleb128 0x55
	.uleb128 0x17
	.uleb128 0x58
	.uleb128 0xb
	.uleb128 0x59
	.uleb128 0x5
	.uleb128 0x57
	.uleb128 0xb
	.uleb128 0x1
	.uleb128 0x13
	.byte	0
	.byte	0
	.uleb128 0x5a
	.uleb128 0x5
	.byte	0
	.uleb128 0x31
	.uleb128 0x13
	.byte	0
	.byte	0
	.uleb128 0x5b
	.uleb128 0x1d
	.byte	0x1
	.uleb128 0x31
	.uleb128 0x13
	.uleb128 0x11
	.uleb128 0x1
	.uleb128 0x12
	.uleb128 0x6
	.uleb128 0x58
	.uleb128 0xb
	.uleb128 0x59
	.uleb128 0x5
	.uleb128 0x57
	.uleb128 0xb
	.byte	0
	.byte	0
	.uleb128 0x5c
	.uleb128 0xb
	.byte	0x1
	.uleb128 0x31
	.uleb128 0x13
	.uleb128 0x11
	.uleb128 0x1
	.uleb128 0x12
	.uleb128 0x6
	.byte	0
	.byte	0
	.uleb128 0x5d
	.uleb128 0x2e
	.byte	0
	.uleb128 0x3f
	.uleb128 0x19
	.uleb128 0x3c
	.uleb128 0x19
	.uleb128 0x6e
	.uleb128 0xe
	.uleb128 0x3
	.uleb128 0xe
	.uleb128 0x3a
	.uleb128 0xb
	.uleb128 0x3b
	.uleb128 0xb
	.uleb128 0x39
	.uleb128 0xb
	.byte	0
	.byte	0
	.byte	0
	.section	.debug_loc,"",%progbits
.Ldebug_loc0:
.LVUS4:
	.uleb128 0
	.uleb128 .LVU68
	.uleb128 .LVU68
	.uleb128 .LVU70
	.uleb128 .LVU70
	.uleb128 .LVU74
	.uleb128 .LVU74
	.uleb128 .LVU76
	.uleb128 .LVU76
	.uleb128 .LVU77
	.uleb128 .LVU77
	.uleb128 .LVU95
	.uleb128 .LVU95
	.uleb128 .LVU101
	.uleb128 .LVU101
	.uleb128 .LVU119
	.uleb128 .LVU119
	.uleb128 .LVU127
	.uleb128 .LVU127
	.uleb128 .LVU131
	.uleb128 .LVU131
	.uleb128 .LVU142
	.uleb128 .LVU142
	.uleb128 0
.LLST4:
	.4byte	.LVL14
	.4byte	.LVL16
	.2byte	0x1
	.byte	0x50
	.4byte	.LVL16
	.4byte	.LVL17
	.2byte	0x1
	.byte	0x54
	.4byte	.LVL17
	.4byte	.LVL20
	.2byte	0x1
	.byte	0x50
	.4byte	.LVL20
	.4byte	.LVL21
	.2byte	0x1
	.byte	0x54
	.4byte	.LVL21
	.4byte	.LVL22
	.2byte	0x1
	.byte	0x50
	.4byte	.LVL22
	.4byte	.LVL26
	.2byte	0x1
	.byte	0x54
	.4byte	.LVL26
	.4byte	.LVL28
	.2byte	0x1
	.byte	0x50
	.4byte	.LVL28
	.4byte	.LVL33
	.2byte	0x1
	.byte	0x54
	.4byte	.LVL33
	.4byte	.LVL36
	.2byte	0x1
	.byte	0x50
	.4byte	.LVL36
	.4byte	.LVL40
	.2byte	0x1
	.byte	0x54
	.4byte	.LVL40
	.4byte	.LVL45
	.2byte	0x1
	.byte	0x50
	.4byte	.LVL45
	.4byte	.LFE86
	.2byte	0x1
	.byte	0x54
	.4byte	0
	.4byte	0
.LVUS5:
	.uleb128 0
	.uleb128 .LVU78
	.uleb128 .LVU78
	.uleb128 .LVU95
	.uleb128 .LVU95
	.uleb128 .LVU107
	.uleb128 .LVU107
	.uleb128 .LVU119
	.uleb128 .LVU119
	.uleb128 .LVU128
	.uleb128 .LVU128
	.uleb128 .LVU131
	.uleb128 .LVU131
	.uleb128 .LVU140
	.uleb128 .LVU140
	.uleb128 0
.LLST5:
	.4byte	.LVL14
	.4byte	.LVL23-1
	.2byte	0x1
	.byte	0x51
	.4byte	.LVL23-1
	.4byte	.LVL26
	.2byte	0x4
	.byte	0xf3
	.uleb128 0x1
	.byte	0x51
	.byte	0x9f
	.4byte	.LVL26
	.4byte	.LVL29
	.2byte	0x1
	.byte	0x51
	.4byte	.LVL29
	.4byte	.LVL33
	.2byte	0x4
	.byte	0xf3
	.uleb128 0x1
	.byte	0x51
	.byte	0x9f
	.4byte	.LVL33
	.4byte	.LVL37
	.2byte	0x1
	.byte	0x51
	.4byte	.LVL37
	.4byte	.LVL40
	.2byte	0x4
	.byte	0xf3
	.uleb128 0x1
	.byte	0x51
	.byte	0x9f
	.4byte	.LVL40
	.4byte	.LVL44
	.2byte	0x1
	.byte	0x51
	.4byte	.LVL44
	.4byte	.LFE86
	.2byte	0x4
	.byte	0xf3
	.uleb128 0x1
	.byte	0x51
	.byte	0x9f
	.4byte	0
	.4byte	0
.LVUS6:
	.uleb128 0
	.uleb128 .LVU78
	.uleb128 .LVU78
	.uleb128 .LVU95
	.uleb128 .LVU95
	.uleb128 .LVU107
	.uleb128 .LVU107
	.uleb128 .LVU119
	.uleb128 .LVU119
	.uleb128 .LVU120
	.uleb128 .LVU120
	.uleb128 .LVU131
	.uleb128 .LVU131
	.uleb128 .LVU134
	.uleb128 .LVU134
	.uleb128 0
.LLST6:
	.4byte	.LVL14
	.4byte	.LVL23-1
	.2byte	0x1
	.byte	0x52
	.4byte	.LVL23-1
	.4byte	.LVL26
	.2byte	0x4
	.byte	0xf3
	.uleb128 0x1
	.byte	0x52
	.byte	0x9f
	.4byte	.LVL26
	.4byte	.LVL29
	.2byte	0x1
	.byte	0x52
	.4byte	.LVL29
	.4byte	.LVL33
	.2byte	0x4
	.byte	0xf3
	.uleb128 0x1
	.byte	0x52
	.byte	0x9f
	.4byte	.LVL33
	.4byte	.LVL34
	.2byte	0x1
	.byte	0x52
	.4byte	.LVL34
	.4byte	.LVL40
	.2byte	0x4
	.byte	0xf3
	.uleb128 0x1
	.byte	0x52
	.byte	0x9f
	.4byte	.LVL40
	.4byte	.LVL41
	.2byte	0x1
	.byte	0x52
	.4byte	.LVL41
	.4byte	.LFE86
	.2byte	0x4
	.byte	0xf3
	.uleb128 0x1
	.byte	0x52
	.byte	0x9f
	.4byte	0
	.4byte	0
.LVUS7:
	.uleb128 0
	.uleb128 .LVU72
	.uleb128 .LVU72
	.uleb128 .LVU76
	.uleb128 .LVU76
	.uleb128 .LVU78
	.uleb128 .LVU78
	.uleb128 .LVU95
	.uleb128 .LVU95
	.uleb128 .LVU98
	.uleb128 .LVU98
	.uleb128 .LVU119
	.uleb128 .LVU119
	.uleb128 .LVU124
	.uleb128 .LVU124
	.uleb128 .LVU131
	.uleb128 .LVU131
	.uleb128 .LVU135
	.uleb128 .LVU135
	.uleb128 0
.LLST7:
	.4byte	.LVL14
	.4byte	.LVL18
	.2byte	0x1
	.byte	0x53
	.4byte	.LVL18
	.4byte	.LVL21
	.2byte	0x1
	.byte	0x55
	.4byte	.LVL21
	.4byte	.LVL23-1
	.2byte	0x1
	.byte	0x53
	.4byte	.LVL23-1
	.4byte	.LVL26
	.2byte	0x1
	.byte	0x55
	.4byte	.LVL26
	.4byte	.LVL27
	.2byte	0x1
	.byte	0x53
	.4byte	.LVL27
	.4byte	.LVL33
	.2byte	0x1
	.byte	0x55
	.4byte	.LVL33
	.4byte	.LVL35
	.2byte	0x1
	.byte	0x53
	.4byte	.LVL35
	.4byte	.LVL40
	.2byte	0x1
	.byte	0x55
	.4byte	.LVL40
	.4byte	.LVL42
	.2byte	0x1
	.byte	0x53
	.4byte	.LVL42
	.4byte	.LFE86
	.2byte	0x1
	.byte	0x55
	.4byte	0
	.4byte	0
.LVUS8:
	.uleb128 .LVU51
	.uleb128 .LVU68
	.uleb128 .LVU68
	.uleb128 .LVU70
	.uleb128 .LVU70
	.uleb128 .LVU74
	.uleb128 .LVU74
	.uleb128 .LVU76
	.uleb128 .LVU76
	.uleb128 .LVU77
	.uleb128 .LVU77
	.uleb128 .LVU95
	.uleb128 .LVU95
	.uleb128 .LVU101
	.uleb128 .LVU101
	.uleb128 .LVU119
	.uleb128 .LVU119
	.uleb128 .LVU127
	.uleb128 .LVU127
	.uleb128 .LVU131
	.uleb128 .LVU131
	.uleb128 .LVU142
	.uleb128 .LVU142
	.uleb128 0
.LLST8:
	.4byte	.LVL15
	.4byte	.LVL16
	.2byte	0x1
	.byte	0x50
	.4byte	.LVL16
	.4byte	.LVL17
	.2byte	0x1
	.byte	0x54
	.4byte	.LVL17
	.4byte	.LVL20
	.2byte	0x1
	.byte	0x50
	.4byte	.LVL20
	.4byte	.LVL21
	.2byte	0x1
	.byte	0x54
	.4byte	.LVL21
	.4byte	.LVL22
	.2byte	0x1
	.byte	0x50
	.4byte	.LVL22
	.4byte	.LVL26
	.2byte	0x1
	.byte	0x54
	.4byte	.LVL26
	.4byte	.LVL28
	.2byte	0x1
	.byte	0x50
	.4byte	.LVL28
	.4byte	.LVL33
	.2byte	0x1
	.byte	0x54
	.4byte	.LVL33
	.4byte	.LVL36
	.2byte	0x1
	.byte	0x50
	.4byte	.LVL36
	.4byte	.LVL40
	.2byte	0x1
	.byte	0x54
	.4byte	.LVL40
	.4byte	.LVL45
	.2byte	0x1
	.byte	0x50
	.4byte	.LVL45
	.4byte	.LFE86
	.2byte	0x1
	.byte	0x54
	.4byte	0
	.4byte	0
.LVUS9:
	.uleb128 .LVU52
	.uleb128 .LVU68
	.uleb128 .LVU68
	.uleb128 .LVU70
	.uleb128 .LVU70
	.uleb128 .LVU73
	.uleb128 .LVU76
	.uleb128 .LVU77
	.uleb128 .LVU77
	.uleb128 .LVU78
	.uleb128 .LVU95
	.uleb128 .LVU101
	.uleb128 .LVU101
	.uleb128 .LVU107
	.uleb128 .LVU119
	.uleb128 .LVU127
	.uleb128 .LVU127
	.uleb128 .LVU129
	.uleb128 .LVU131
	.uleb128 .LVU142
	.uleb128 .LVU142
	.uleb128 .LVU144
.LLST9:
	.4byte	.LVL15
	.4byte	.LVL16
	.2byte	0x2
	.byte	0x70
	.sleb128 0
	.4byte	.LVL16
	.4byte	.LVL17
	.2byte	0x2
	.byte	0x74
	.sleb128 0
	.4byte	.LVL17
	.4byte	.LVL19
	.2byte	0x2
	.byte	0x70
	.sleb128 0
	.4byte	.LVL21
	.4byte	.LVL22
	.2byte	0x2
	.byte	0x70
	.sleb128 0
	.4byte	.LVL22
	.4byte	.LVL23-1
	.2byte	0x2
	.byte	0x74
	.sleb128 0
	.4byte	.LVL26
	.4byte	.LVL28
	.2byte	0x2
	.byte	0x70
	.sleb128 0
	.4byte	.LVL28
	.4byte	.LVL29
	.2byte	0x2
	.byte	0x74
	.sleb128 0
	.4byte	.LVL33
	.4byte	.LVL36
	.2byte	0x2
	.byte	0x70
	.sleb128 0
	.4byte	.LVL36
	.4byte	.LVL38-1
	.2byte	0x2
	.byte	0x74
	.sleb128 0
	.4byte	.LVL40
	.4byte	.LVL45
	.2byte	0x2
	.byte	0x70
	.sleb128 0
	.4byte	.LVL45
	.4byte	.LVL47-1
	.2byte	0x2
	.byte	0x74
	.sleb128 0
	.4byte	0
	.4byte	0
.LVUS10:
	.uleb128 .LVU53
	.uleb128 .LVU112
	.uleb128 .LVU119
	.uleb128 0
.LLST10:
	.4byte	.LVL15
	.4byte	.LVL31
	.2byte	0x1
	.byte	0x57
	.4byte	.LVL33
	.4byte	.LFE86
	.2byte	0x1
	.byte	0x57
	.4byte	0
	.4byte	0
.LVUS11:
	.uleb128 .LVU54
	.uleb128 .LVU109
	.uleb128 .LVU109
	.uleb128 .LVU112
	.uleb128 .LVU112
	.uleb128 .LVU119
	.uleb128 .LVU119
	.uleb128 0
.LLST11:
	.4byte	.LVL15
	.4byte	.LVL30
	.2byte	0x2
	.byte	0x30
	.byte	0x9f
	.4byte	.LVL30
	.4byte	.LVL31
	.2byte	0x1
	.byte	0x53
	.4byte	.LVL31
	.4byte	.LVL33
	.2byte	0x1
	.byte	0x57
	.4byte	.LVL33
	.4byte	.LFE86
	.2byte	0x2
	.byte	0x30
	.byte	0x9f
	.4byte	0
	.4byte	0
.LVUS12:
	.uleb128 .LVU55
	.uleb128 .LVU74
	.uleb128 .LVU74
	.uleb128 .LVU76
	.uleb128 .LVU76
	.uleb128 .LVU86
	.uleb128 .LVU86
	.uleb128 .LVU93
	.uleb128 .LVU93
	.uleb128 .LVU95
	.uleb128 .LVU95
	.uleb128 .LVU138
	.uleb128 .LVU147
	.uleb128 0
.LLST12:
	.4byte	.LVL15
	.4byte	.LVL20
	.2byte	0x2
	.byte	0x30
	.byte	0x9f
	.4byte	.LVL20
	.4byte	.LVL21
	.2byte	0x1
	.byte	0x50
	.4byte	.LVL21
	.4byte	.LVL24
	.2byte	0x2
	.byte	0x30
	.byte	0x9f
	.4byte	.LVL24
	.4byte	.LVL25
	.2byte	0x3
	.byte	0x9
	.byte	0xff
	.byte	0x9f
	.4byte	.LVL25
	.4byte	.LVL26
	.2byte	0x1
	.byte	0x50
	.4byte	.LVL26
	.4byte	.LVL43
	.2byte	0x2
	.byte	0x30
	.byte	0x9f
	.4byte	.LVL48
	.4byte	.LFE86
	.2byte	0x2
	.byte	0x30
	.byte	0x9f
	.4byte	0
	.4byte	0
.LVUS212:
	.uleb128 0
	.uleb128 .LVU2266
	.uleb128 .LVU2266
	.uleb128 .LVU2269
	.uleb128 .LVU2269
	.uleb128 .LVU2282
	.uleb128 .LVU2282
	.uleb128 .LVU2287
	.uleb128 .LVU2287
	.uleb128 .LVU2294
	.uleb128 .LVU2294
	.uleb128 0
.LLST212:
	.4byte	.LVL696
	.4byte	.LVL700-1
	.2byte	0x1
	.byte	0x50
	.4byte	.LVL700-1
	.4byte	.LVL701
	.2byte	0x1
	.byte	0x54
	.4byte	.LVL701
	.4byte	.LVL706
	.2byte	0x1
	.byte	0x50
	.4byte	.LVL706
	.4byte	.LVL707
	.2byte	0x1
	.byte	0x54
	.4byte	.LVL707
	.4byte	.LVL709
	.2byte	0x1
	.byte	0x50
	.4byte	.LVL709
	.4byte	.LFE85
	.2byte	0x1
	.byte	0x54
	.4byte	0
	.4byte	0
.LVUS213:
	.uleb128 0
	.uleb128 .LVU2264
	.uleb128 .LVU2264
	.uleb128 0
.LLST213:
	.4byte	.LVL696
	.4byte	.LVL698
	.2byte	0x1
	.byte	0x51
	.4byte	.LVL698
	.4byte	.LFE85
	.2byte	0x4
	.byte	0xf3
	.uleb128 0x1
	.byte	0x51
	.byte	0x9f
	.4byte	0
	.4byte	0
.LVUS214:
	.uleb128 0
	.uleb128 .LVU2264
	.uleb128 .LVU2264
	.uleb128 0
.LLST214:
	.4byte	.LVL696
	.4byte	.LVL698
	.2byte	0x1
	.byte	0x52
	.4byte	.LVL698
	.4byte	.LFE85
	.2byte	0x4
	.byte	0xf3
	.uleb128 0x1
	.byte	0x52
	.byte	0x9f
	.4byte	0
	.4byte	0
.LVUS217:
	.uleb128 .LVU2297
	.uleb128 .LVU2299
	.uleb128 .LVU2310
	.uleb128 .LVU2312
.LLST217:
	.4byte	.LVL710
	.4byte	.LVL711
	.2byte	0x6
	.byte	0x71
	.sleb128 0
	.byte	0x72
	.sleb128 0
	.byte	0x1c
	.byte	0x9f
	.4byte	.LVL712
	.4byte	.LVL713
	.2byte	0x2
	.byte	0x30
	.byte	0x9f
	.4byte	0
	.4byte	0
.LVUS215:
	.uleb128 .LVU2258
	.uleb128 .LVU2264
	.uleb128 .LVU2264
	.uleb128 .LVU2265
	.uleb128 .LVU2265
	.uleb128 .LVU2267
	.uleb128 .LVU2267
	.uleb128 .LVU2273
	.uleb128 .LVU2280
	.uleb128 .LVU2294
.LLST215:
	.4byte	.LVL697
	.4byte	.LVL698
	.2byte	0x1
	.byte	0x51
	.4byte	.LVL698
	.4byte	.LVL699
	.2byte	0x1
	.byte	0x55
	.4byte	.LVL699
	.4byte	.LVL700
	.2byte	0x3
	.byte	0x75
	.sleb128 1
	.byte	0x9f
	.4byte	.LVL700
	.4byte	.LVL703
	.2byte	0x1
	.byte	0x55
	.4byte	.LVL705
	.4byte	.LVL709
	.2byte	0x1
	.byte	0x55
	.4byte	0
	.4byte	0
.LVUS216:
	.uleb128 .LVU2269
	.uleb128 .LVU2276
	.uleb128 .LVU2292
	.uleb128 .LVU2294
.LLST216:
	.4byte	.LVL701
	.4byte	.LVL704
	.2byte	0x1
	.byte	0x53
	.4byte	.LVL708
	.4byte	.LVL709
	.2byte	0x1
	.byte	0x53
	.4byte	0
	.4byte	0
.LVUS202:
	.uleb128 0
	.uleb128 .LVU2167
	.uleb128 .LVU2167
	.uleb128 .LVU2172
	.uleb128 .LVU2172
	.uleb128 .LVU2173
	.uleb128 .LVU2173
	.uleb128 .LVU2188
	.uleb128 .LVU2188
	.uleb128 .LVU2190
	.uleb128 .LVU2190
	.uleb128 .LVU2217
	.uleb128 .LVU2217
	.uleb128 .LVU2219
	.uleb128 .LVU2219
	.uleb128 .LVU2223
	.uleb128 .LVU2223
	.uleb128 .LVU2225
	.uleb128 .LVU2225
	.uleb128 .LVU2227
	.uleb128 .LVU2227
	.uleb128 .LVU2230
	.uleb128 .LVU2230
	.uleb128 0
.LLST202:
	.4byte	.LVL657
	.4byte	.LVL661
	.2byte	0x1
	.byte	0x50
	.4byte	.LVL661
	.4byte	.LVL662
	.2byte	0x1
	.byte	0x54
	.4byte	.LVL662
	.4byte	.LVL663
	.2byte	0x1
	.byte	0x50
	.4byte	.LVL663
	.4byte	.LVL670
	.2byte	0x1
	.byte	0x54
	.4byte	.LVL670
	.4byte	.LVL671-1
	.2byte	0x1
	.byte	0x50
	.4byte	.LVL671-1
	.4byte	.LVL681
	.2byte	0x1
	.byte	0x54
	.4byte	.LVL681
	.4byte	.LVL682-1
	.2byte	0x1
	.byte	0x50
	.4byte	.LVL682-1
	.4byte	.LVL684
	.2byte	0x1
	.byte	0x54
	.4byte	.LVL684
	.4byte	.LVL685
	.2byte	0x1
	.byte	0x50
	.4byte	.LVL685
	.4byte	.LVL687
	.2byte	0x1
	.byte	0x54
	.4byte	.LVL687
	.4byte	.LVL688
	.2byte	0x1
	.byte	0x50
	.4byte	.LVL688
	.4byte	.LFE83
	.2byte	0x1
	.byte	0x54
	.4byte	0
	.4byte	0
.LVUS203:
	.uleb128 0
	.uleb128 .LVU2167
	.uleb128 .LVU2167
	.uleb128 .LVU2227
	.uleb128 .LVU2227
	.uleb128 .LVU2234
	.uleb128 .LVU2234
	.uleb128 0
.LLST203:
	.4byte	.LVL657
	.4byte	.LVL661
	.2byte	0x1
	.byte	0x51
	.4byte	.LVL661
	.4byte	.LVL687
	.2byte	0x1
	.byte	0x57
	.4byte	.LVL687
	.4byte	.LVL691
	.2byte	0x1
	.byte	0x51
	.4byte	.LVL691
	.4byte	.LFE83
	.2byte	0x1
	.byte	0x57
	.4byte	0
	.4byte	0
.LVUS204:
	.uleb128 0
	.uleb128 .LVU2167
	.uleb128 .LVU2167
	.uleb128 .LVU2227
	.uleb128 .LVU2227
	.uleb128 .LVU2235
	.uleb128 .LVU2235
	.uleb128 0
.LLST204:
	.4byte	.LVL657
	.4byte	.LVL661
	.2byte	0x1
	.byte	0x52
	.4byte	.LVL661
	.4byte	.LVL687
	.2byte	0x1
	.byte	0x58
	.4byte	.LVL687
	.4byte	.LVL692-1
	.2byte	0x1
	.byte	0x52
	.4byte	.LVL692-1
	.4byte	.LFE83
	.2byte	0x1
	.byte	0x58
	.4byte	0
	.4byte	0
.LVUS205:
	.uleb128 0
	.uleb128 .LVU2167
	.uleb128 .LVU2167
	.uleb128 .LVU2227
	.uleb128 .LVU2227
	.uleb128 .LVU2235
	.uleb128 .LVU2235
	.uleb128 0
.LLST205:
	.4byte	.LVL657
	.4byte	.LVL661
	.2byte	0x1
	.byte	0x53
	.4byte	.LVL661
	.4byte	.LVL687
	.2byte	0x2
	.byte	0x91
	.sleb128 -52
	.4byte	.LVL687
	.4byte	.LVL692-1
	.2byte	0x1
	.byte	0x53
	.4byte	.LVL692-1
	.4byte	.LFE83
	.2byte	0x2
	.byte	0x91
	.sleb128 -52
	.4byte	0
	.4byte	0
.LVUS206:
	.uleb128 .LVU2174
	.uleb128 .LVU2185
	.uleb128 .LVU2190
	.uleb128 .LVU2193
	.uleb128 .LVU2199
	.uleb128 .LVU2203
	.uleb128 .LVU2219
	.uleb128 .LVU2222
	.uleb128 .LVU2226
	.uleb128 .LVU2227
	.uleb128 .LVU2240
	.uleb128 0
.LLST206:
	.4byte	.LVL664
	.4byte	.LVL668
	.2byte	0x1
	.byte	0x50
	.4byte	.LVL671
	.4byte	.LVL672
	.2byte	0x1
	.byte	0x50
	.4byte	.LVL673
	.4byte	.LVL674
	.2byte	0x1
	.byte	0x50
	.4byte	.LVL682
	.4byte	.LVL683
	.2byte	0x1
	.byte	0x50
	.4byte	.LVL686
	.4byte	.LVL687
	.2byte	0x1
	.byte	0x50
	.4byte	.LVL694
	.4byte	.LFE83
	.2byte	0x1
	.byte	0x50
	.4byte	0
	.4byte	0
.LVUS207:
	.uleb128 .LVU2154
	.uleb128 .LVU2204
	.uleb128 .LVU2204
	.uleb128 .LVU2209
	.uleb128 .LVU2209
	.uleb128 .LVU2211
	.uleb128 .LVU2211
	.uleb128 .LVU2217
	.uleb128 .LVU2217
	.uleb128 .LVU2237
	.uleb128 .LVU2237
	.uleb128 .LVU2240
	.uleb128 .LVU2240
	.uleb128 0
.LLST207:
	.4byte	.LVL658
	.4byte	.LVL675
	.2byte	0x1
	.byte	0x5b
	.4byte	.LVL675
	.4byte	.LVL678-1
	.2byte	0x1
	.byte	0x50
	.4byte	.LVL678-1
	.4byte	.LVL679
	.2byte	0x1
	.byte	0x5b
	.4byte	.LVL679
	.4byte	.LVL681
	.2byte	0x1
	.byte	0x50
	.4byte	.LVL681
	.4byte	.LVL693
	.2byte	0x1
	.byte	0x5b
	.4byte	.LVL693
	.4byte	.LVL694
	.2byte	0x1
	.byte	0x50
	.4byte	.LVL694
	.4byte	.LFE83
	.2byte	0x1
	.byte	0x5b
	.4byte	0
	.4byte	0
.LVUS208:
	.uleb128 .LVU2157
	.uleb128 .LVU2231
	.uleb128 .LVU2231
	.uleb128 .LVU2232
	.uleb128 .LVU2232
	.uleb128 0
.LLST208:
	.4byte	.LVL659
	.4byte	.LVL689
	.2byte	0x1
	.byte	0x5a
	.4byte	.LVL689
	.4byte	.LVL690
	.2byte	0x2
	.byte	0x72
	.sleb128 0
	.4byte	.LVL690
	.4byte	.LFE83
	.2byte	0x1
	.byte	0x5a
	.4byte	0
	.4byte	0
.LVUS209:
	.uleb128 .LVU2158
	.uleb128 .LVU2172
	.uleb128 .LVU2172
	.uleb128 .LVU2180
	.uleb128 .LVU2180
	.uleb128 .LVU2182
	.uleb128 .LVU2182
	.uleb128 .LVU2227
	.uleb128 .LVU2227
	.uleb128 .LVU2240
	.uleb128 .LVU2240
	.uleb128 0
.LLST209:
	.4byte	.LVL659
	.4byte	.LVL662
	.2byte	0x2
	.byte	0x30
	.byte	0x9f
	.4byte	.LVL662
	.4byte	.LVL666
	.2byte	0x1
	.byte	0x55
	.4byte	.LVL666
	.4byte	.LVL667
	.2byte	0x3
	.byte	0x75
	.sleb128 -1
	.byte	0x9f
	.4byte	.LVL667
	.4byte	.LVL687
	.2byte	0x1
	.byte	0x55
	.4byte	.LVL687
	.4byte	.LVL694
	.2byte	0x2
	.byte	0x30
	.byte	0x9f
	.4byte	.LVL694
	.4byte	.LFE83
	.2byte	0x1
	.byte	0x55
	.4byte	0
	.4byte	0
.LVUS210:
	.uleb128 .LVU2161
	.uleb128 0
.LLST210:
	.4byte	.LVL660
	.4byte	.LFE83
	.2byte	0x1
	.byte	0x56
	.4byte	0
	.4byte	0
.LVUS211:
	.uleb128 .LVU2168
	.uleb128 .LVU2172
	.uleb128 .LVU2172
	.uleb128 .LVU2177
	.uleb128 .LVU2177
	.uleb128 .LVU2181
	.uleb128 .LVU2181
	.uleb128 .LVU2186
	.uleb128 .LVU2186
	.uleb128 .LVU2193
	.uleb128 .LVU2193
	.uleb128 .LVU2209
	.uleb128 .LVU2209
	.uleb128 .LVU2216
	.uleb128 .LVU2216
	.uleb128 .LVU2217
	.uleb128 .LVU2217
	.uleb128 .LVU2227
	.uleb128 .LVU2240
	.uleb128 0
.LLST211:
	.4byte	.LVL661
	.4byte	.LVL662
	.2byte	0x1
	.byte	0x5b
	.4byte	.LVL662
	.4byte	.LVL665
	.2byte	0x1
	.byte	0x59
	.4byte	.LVL665
	.4byte	.LVL667
	.2byte	0x3
	.byte	0x72
	.sleb128 1
	.byte	0x9f
	.4byte	.LVL667
	.4byte	.LVL669
	.2byte	0x1
	.byte	0x52
	.4byte	.LVL669
	.4byte	.LVL672
	.2byte	0x1
	.byte	0x59
	.4byte	.LVL672
	.4byte	.LVL678-1
	.2byte	0x1
	.byte	0x52
	.4byte	.LVL678-1
	.4byte	.LVL680
	.2byte	0x3
	.byte	0x79
	.sleb128 1
	.byte	0x9f
	.4byte	.LVL680
	.4byte	.LVL681
	.2byte	0x1
	.byte	0x52
	.4byte	.LVL681
	.4byte	.LVL687
	.2byte	0x3
	.byte	0x79
	.sleb128 1
	.byte	0x9f
	.4byte	.LVL694
	.4byte	.LFE83
	.2byte	0x3
	.byte	0x79
	.sleb128 1
	.byte	0x9f
	.4byte	0
	.4byte	0
.LVUS199:
	.uleb128 0
	.uleb128 .LVU2114
	.uleb128 .LVU2114
	.uleb128 .LVU2128
	.uleb128 .LVU2128
	.uleb128 .LVU2129
	.uleb128 .LVU2129
	.uleb128 .LVU2129
	.uleb128 .LVU2129
	.uleb128 .LVU2147
	.uleb128 .LVU2147
	.uleb128 .LVU2148
	.uleb128 .LVU2148
	.uleb128 0
.LLST199:
	.4byte	.LVL642
	.4byte	.LVL643
	.2byte	0x1
	.byte	0x50
	.4byte	.LVL643
	.4byte	.LVL648
	.2byte	0x1
	.byte	0x54
	.4byte	.LVL648
	.4byte	.LVL649-1
	.2byte	0x1
	.byte	0x50
	.4byte	.LVL649-1
	.4byte	.LVL649
	.2byte	0x4
	.byte	0xf3
	.uleb128 0x1
	.byte	0x50
	.byte	0x9f
	.4byte	.LVL649
	.4byte	.LVL655
	.2byte	0x1
	.byte	0x54
	.4byte	.LVL655
	.4byte	.LVL656-1
	.2byte	0x1
	.byte	0x50
	.4byte	.LVL656-1
	.4byte	.LFE82
	.2byte	0x4
	.byte	0xf3
	.uleb128 0x1
	.byte	0x50
	.byte	0x9f
	.4byte	0
	.4byte	0
.LVUS200:
	.uleb128 0
	.uleb128 .LVU2116
	.uleb128 .LVU2116
	.uleb128 .LVU2122
	.uleb128 .LVU2122
	.uleb128 .LVU2129
	.uleb128 .LVU2129
	.uleb128 .LVU2147
	.uleb128 .LVU2147
	.uleb128 0
.LLST200:
	.4byte	.LVL642
	.4byte	.LVL644-1
	.2byte	0x1
	.byte	0x51
	.4byte	.LVL644-1
	.4byte	.LVL645
	.2byte	0x1
	.byte	0x55
	.4byte	.LVL645
	.4byte	.LVL649
	.2byte	0x4
	.byte	0xf3
	.uleb128 0x1
	.byte	0x51
	.byte	0x9f
	.4byte	.LVL649
	.4byte	.LVL655
	.2byte	0x1
	.byte	0x55
	.4byte	.LVL655
	.4byte	.LFE82
	.2byte	0x4
	.byte	0xf3
	.uleb128 0x1
	.byte	0x51
	.byte	0x9f
	.4byte	0
	.4byte	0
.LVUS201:
	.uleb128 .LVU2137
	.uleb128 .LVU2143
	.uleb128 .LVU2143
	.uleb128 .LVU2147
	.uleb128 .LVU2147
	.uleb128 .LVU2148
.LLST201:
	.4byte	.LVL652
	.4byte	.LVL653
	.2byte	0x1
	.byte	0x50
	.4byte	.LVL653
	.4byte	.LVL655
	.2byte	0x1
	.byte	0x56
	.4byte	.LVL655
	.4byte	.LVL656-1
	.2byte	0x1
	.byte	0x52
	.4byte	0
	.4byte	0
.LVUS197:
	.uleb128 0
	.uleb128 .LVU2104
	.uleb128 .LVU2104
	.uleb128 0
.LLST197:
	.4byte	.LVL639
	.4byte	.LVL640-1
	.2byte	0x1
	.byte	0x50
	.4byte	.LVL640-1
	.4byte	.LFE81
	.2byte	0x4
	.byte	0xf3
	.uleb128 0x1
	.byte	0x50
	.byte	0x9f
	.4byte	0
	.4byte	0
.LVUS198:
	.uleb128 .LVU2104
	.uleb128 .LVU2107
.LLST198:
	.4byte	.LVL640
	.4byte	.LVL641
	.2byte	0x1
	.byte	0x50
	.4byte	0
	.4byte	0
.LVUS195:
	.uleb128 0
	.uleb128 .LVU2088
	.uleb128 .LVU2089
	.uleb128 .LVU2097
.LLST195:
	.4byte	.LVL635
	.4byte	.LVL636
	.2byte	0x1
	.byte	0x50
	.4byte	.LVL636
	.4byte	.LVL638
	.2byte	0x1
	.byte	0x50
	.4byte	0
	.4byte	0
.LVUS196:
	.uleb128 .LVU2095
	.uleb128 .LVU2097
.LLST196:
	.4byte	.LVL637
	.4byte	.LVL638
	.2byte	0x2
	.byte	0x70
	.sleb128 48
	.4byte	0
	.4byte	0
.LVUS188:
	.uleb128 0
	.uleb128 .LVU2002
	.uleb128 .LVU2002
	.uleb128 .LVU2011
	.uleb128 .LVU2011
	.uleb128 0
.LLST188:
	.4byte	.LVL611
	.4byte	.LVL612
	.2byte	0x1
	.byte	0x50
	.4byte	.LVL612
	.4byte	.LVL616
	.2byte	0x1
	.byte	0x54
	.4byte	.LVL616
	.4byte	.LFE78
	.2byte	0x1
	.byte	0x53
	.4byte	0
	.4byte	0
.LVUS189:
	.uleb128 0
	.uleb128 .LVU2003
	.uleb128 .LVU2003
	.uleb128 .LVU2009
	.uleb128 .LVU2009
	.uleb128 0
.LLST189:
	.4byte	.LVL611
	.4byte	.LVL613-1
	.2byte	0x1
	.byte	0x51
	.4byte	.LVL613-1
	.4byte	.LVL615
	.2byte	0x4
	.byte	0xf3
	.uleb128 0x1
	.byte	0x51
	.byte	0x9f
	.4byte	.LVL615
	.4byte	.LFE78
	.2byte	0x1
	.byte	0x51
	.4byte	0
	.4byte	0
.LVUS190:
	.uleb128 .LVU1977
	.uleb128 .LVU2015
	.uleb128 .LVU2015
	.uleb128 .LVU2033
	.uleb128 .LVU2033
	.uleb128 0
.LLST190:
	.4byte	.LVL611
	.4byte	.LVL617
	.2byte	0x2
	.byte	0x30
	.byte	0x9f
	.4byte	.LVL617
	.4byte	.LVL618
	.2byte	0x2
	.byte	0x73
	.sleb128 48
	.4byte	.LVL618
	.4byte	.LFE78
	.2byte	0x2
	.byte	0x30
	.byte	0x9f
	.4byte	0
	.4byte	0
.LVUS187:
	.uleb128 0
	.uleb128 .LVU1974
	.uleb128 .LVU1974
	.uleb128 0
.LLST187:
	.4byte	.LVL609
	.4byte	.LVL610
	.2byte	0x1
	.byte	0x50
	.4byte	.LVL610
	.4byte	.LFE77
	.2byte	0x4
	.byte	0xf3
	.uleb128 0x1
	.byte	0x50
	.byte	0x9f
	.4byte	0
	.4byte	0
.LVUS185:
	.uleb128 0
	.uleb128 .LVU1954
	.uleb128 .LVU1954
	.uleb128 .LVU1959
	.uleb128 .LVU1959
	.uleb128 .LVU1961
	.uleb128 .LVU1961
	.uleb128 .LVU1968
.LLST185:
	.4byte	.LVL603
	.4byte	.LVL604
	.2byte	0x1
	.byte	0x50
	.4byte	.LVL604
	.4byte	.LVL605
	.2byte	0x2
	.byte	0x91
	.sleb128 -28
	.4byte	.LVL605
	.4byte	.LVL606
	.2byte	0x1
	.byte	0x54
	.4byte	.LVL606
	.4byte	.LVL608
	.2byte	0x1
	.byte	0x53
	.4byte	0
	.4byte	0
.LVUS186:
	.uleb128 .LVU1965
	.uleb128 .LVU1968
.LLST186:
	.4byte	.LVL607
	.4byte	.LVL608
	.2byte	0x2
	.byte	0x73
	.sleb128 48
	.4byte	0
	.4byte	0
.LVUS184:
	.uleb128 0
	.uleb128 .LVU1933
	.uleb128 .LVU1933
	.uleb128 .LVU1935
	.uleb128 .LVU1935
	.uleb128 .LVU1938
.LLST184:
	.4byte	.LVL597
	.4byte	.LVL598
	.2byte	0x1
	.byte	0x50
	.4byte	.LVL598
	.4byte	.LVL599
	.2byte	0x1
	.byte	0x50
	.4byte	.LVL599
	.4byte	.LVL600
	.2byte	0x1
	.byte	0x53
	.4byte	0
	.4byte	0
.LVUS181:
	.uleb128 0
	.uleb128 .LVU1900
	.uleb128 .LVU1900
	.uleb128 .LVU1903
	.uleb128 .LVU1903
	.uleb128 .LVU1904
	.uleb128 .LVU1904
	.uleb128 0
.LLST181:
	.4byte	.LVL585
	.4byte	.LVL586
	.2byte	0x1
	.byte	0x50
	.4byte	.LVL586
	.4byte	.LVL588
	.2byte	0x1
	.byte	0x54
	.4byte	.LVL588
	.4byte	.LVL589
	.2byte	0x1
	.byte	0x50
	.4byte	.LVL589
	.4byte	.LFE73
	.2byte	0x1
	.byte	0x54
	.4byte	0
	.4byte	0
.LVUS174:
	.uleb128 0
	.uleb128 .LVU1853
	.uleb128 .LVU1853
	.uleb128 .LVU1870
	.uleb128 .LVU1870
	.uleb128 .LVU1873
	.uleb128 .LVU1873
	.uleb128 0
.LLST174:
	.4byte	.LVL571
	.4byte	.LVL572
	.2byte	0x1
	.byte	0x50
	.4byte	.LVL572
	.4byte	.LVL576
	.2byte	0x1
	.byte	0x58
	.4byte	.LVL576
	.4byte	.LVL578-1
	.2byte	0x1
	.byte	0x50
	.4byte	.LVL578-1
	.4byte	.LFE72
	.2byte	0x1
	.byte	0x58
	.4byte	0
	.4byte	0
.LVUS175:
	.uleb128 0
	.uleb128 .LVU1855
	.uleb128 .LVU1855
	.uleb128 0
.LLST175:
	.4byte	.LVL571
	.4byte	.LVL573-1
	.2byte	0x1
	.byte	0x51
	.4byte	.LVL573-1
	.4byte	.LFE72
	.2byte	0x1
	.byte	0x59
	.4byte	0
	.4byte	0
.LVUS176:
	.uleb128 .LVU1869
	.uleb128 .LVU1870
	.uleb128 .LVU1870
	.uleb128 .LVU1873
	.uleb128 .LVU1873
	.uleb128 .LVU1893
	.uleb128 .LVU1894
	.uleb128 0
.LLST176:
	.4byte	.LVL575
	.4byte	.LVL576
	.2byte	0x1
	.byte	0x50
	.4byte	.LVL576
	.4byte	.LVL578-1
	.2byte	0x1
	.byte	0x51
	.4byte	.LVL578-1
	.4byte	.LVL582
	.2byte	0x1
	.byte	0x56
	.4byte	.LVL583
	.4byte	.LFE72
	.2byte	0x1
	.byte	0x56
	.4byte	0
	.4byte	0
.LVUS177:
	.uleb128 .LVU1870
	.uleb128 .LVU1873
	.uleb128 .LVU1873
	.uleb128 .LVU1878
	.uleb128 .LVU1886
	.uleb128 .LVU1893
	.uleb128 .LVU1894
	.uleb128 0
.LLST177:
	.4byte	.LVL576
	.4byte	.LVL578-1
	.2byte	0x1
	.byte	0x52
	.4byte	.LVL578-1
	.4byte	.LVL579
	.2byte	0x1
	.byte	0x54
	.4byte	.LVL581
	.4byte	.LVL582
	.2byte	0x1
	.byte	0x54
	.4byte	.LVL583
	.4byte	.LFE72
	.2byte	0x1
	.byte	0x54
	.4byte	0
	.4byte	0
.LVUS178:
	.uleb128 .LVU1859
	.uleb128 .LVU1870
	.uleb128 .LVU1870
	.uleb128 .LVU1893
	.uleb128 .LVU1894
	.uleb128 0
.LLST178:
	.4byte	.LVL573
	.4byte	.LVL576
	.2byte	0x2
	.byte	0x30
	.byte	0x9f
	.4byte	.LVL576
	.4byte	.LVL582
	.2byte	0x1
	.byte	0x57
	.4byte	.LVL583
	.4byte	.LFE72
	.2byte	0x1
	.byte	0x57
	.4byte	0
	.4byte	0
.LVUS179:
	.uleb128 .LVU1860
	.uleb128 .LVU1870
	.uleb128 .LVU1870
	.uleb128 .LVU1893
	.uleb128 .LVU1894
	.uleb128 0
.LLST179:
	.4byte	.LVL573
	.4byte	.LVL576
	.2byte	0x2
	.byte	0x30
	.byte	0x9f
	.4byte	.LVL576
	.4byte	.LVL582
	.2byte	0x1
	.byte	0x55
	.4byte	.LVL583
	.4byte	.LFE72
	.2byte	0x1
	.byte	0x55
	.4byte	0
	.4byte	0
.LVUS180:
	.uleb128 .LVU1874
	.uleb128 .LVU1878
.LLST180:
	.4byte	.LVL578
	.4byte	.LVL579
	.2byte	0x1
	.byte	0x50
	.4byte	0
	.4byte	0
.LVUS165:
	.uleb128 0
	.uleb128 .LVU1802
	.uleb128 .LVU1802
	.uleb128 .LVU1841
	.uleb128 .LVU1845
	.uleb128 0
.LLST165:
	.4byte	.LVL555
	.4byte	.LVL556
	.2byte	0x1
	.byte	0x50
	.4byte	.LVL556
	.4byte	.LVL565
	.2byte	0x1
	.byte	0x54
	.4byte	.LVL568
	.4byte	.LFE71
	.2byte	0x1
	.byte	0x54
	.4byte	0
	.4byte	0
.LVUS166:
	.uleb128 0
	.uleb128 .LVU1802
	.uleb128 .LVU1802
	.uleb128 0
.LLST166:
	.4byte	.LVL555
	.4byte	.LVL556
	.2byte	0x1
	.byte	0x51
	.4byte	.LVL556
	.4byte	.LFE71
	.2byte	0x3
	.byte	0x91
	.sleb128 -96
	.4byte	0
	.4byte	0
.LVUS167:
	.uleb128 0
	.uleb128 .LVU1802
	.uleb128 .LVU1802
	.uleb128 0
.LLST167:
	.4byte	.LVL555
	.4byte	.LVL556
	.2byte	0x1
	.byte	0x52
	.4byte	.LVL556
	.4byte	.LFE71
	.2byte	0x3
	.byte	0x91
	.sleb128 -92
	.4byte	0
	.4byte	0
.LVUS168:
	.uleb128 .LVU1839
	.uleb128 .LVU1842
	.uleb128 .LVU1842
	.uleb128 .LVU1845
.LLST168:
	.4byte	.LVL564
	.4byte	.LVL566
	.2byte	0x1
	.byte	0x52
	.4byte	.LVL566
	.4byte	.LVL568
	.2byte	0x1
	.byte	0x54
	.4byte	0
	.4byte	0
.LVUS169:
	.uleb128 .LVU1802
	.uleb128 .LVU1805
	.uleb128 .LVU1812
	.uleb128 .LVU1829
	.uleb128 .LVU1845
	.uleb128 .LVU1847
.LLST169:
	.4byte	.LVL556
	.4byte	.LVL557
	.2byte	0x1
	.byte	0x50
	.4byte	.LVL559
	.4byte	.LVL561
	.2byte	0x1
	.byte	0x50
	.4byte	.LVL568
	.4byte	.LVL569
	.2byte	0x1
	.byte	0x50
	.4byte	0
	.4byte	0
.LVUS170:
	.uleb128 .LVU1821
	.uleb128 .LVU1831
	.uleb128 .LVU1845
	.uleb128 0
.LLST170:
	.4byte	.LVL560
	.4byte	.LVL562
	.2byte	0x4
	.byte	0x91
	.sleb128 -80
	.byte	0x9f
	.4byte	.LVL568
	.4byte	.LFE71
	.2byte	0x4
	.byte	0x91
	.sleb128 -80
	.byte	0x9f
	.4byte	0
	.4byte	0
.LVUS171:
	.uleb128 .LVU1821
	.uleb128 .LVU1831
	.uleb128 .LVU1845
	.uleb128 0
.LLST171:
	.4byte	.LVL560
	.4byte	.LVL562
	.2byte	0x1
	.byte	0x54
	.4byte	.LVL568
	.4byte	.LFE71
	.2byte	0x1
	.byte	0x54
	.4byte	0
	.4byte	0
.LVUS172:
	.uleb128 .LVU1846
	.uleb128 0
.LLST172:
	.4byte	.LVL568
	.4byte	.LFE71
	.2byte	0x1
	.byte	0x54
	.4byte	0
	.4byte	0
.LVUS173:
	.uleb128 .LVU1845
	.uleb128 0
.LLST173:
	.4byte	.LVL568
	.4byte	.LFE71
	.2byte	0x4
	.byte	0x91
	.sleb128 -80
	.byte	0x9f
	.4byte	0
	.4byte	0
.LVUS182:
	.uleb128 0
	.uleb128 .LVU1910
	.uleb128 .LVU1910
	.uleb128 .LVU1914
	.uleb128 .LVU1914
	.uleb128 .LVU1915
	.uleb128 .LVU1915
	.uleb128 0
.LLST182:
	.4byte	.LVL591
	.4byte	.LVL592
	.2byte	0x1
	.byte	0x50
	.4byte	.LVL592
	.4byte	.LVL594
	.2byte	0x1
	.byte	0x55
	.4byte	.LVL594
	.4byte	.LVL595-1
	.2byte	0x1
	.byte	0x50
	.4byte	.LVL595-1
	.4byte	.LFE70
	.2byte	0x4
	.byte	0xf3
	.uleb128 0x1
	.byte	0x50
	.byte	0x9f
	.4byte	0
	.4byte	0
.LVUS183:
	.uleb128 0
	.uleb128 .LVU1911
	.uleb128 .LVU1911
	.uleb128 .LVU1914
	.uleb128 .LVU1914
	.uleb128 0
.LLST183:
	.4byte	.LVL591
	.4byte	.LVL593-1
	.2byte	0x1
	.byte	0x51
	.4byte	.LVL593-1
	.4byte	.LVL594
	.2byte	0x1
	.byte	0x54
	.4byte	.LVL594
	.4byte	.LFE70
	.2byte	0x4
	.byte	0xf3
	.uleb128 0x1
	.byte	0x51
	.byte	0x9f
	.4byte	0
	.4byte	0
.LVUS163:
	.uleb128 0
	.uleb128 .LVU1785
	.uleb128 .LVU1785
	.uleb128 .LVU1788
	.uleb128 .LVU1788
	.uleb128 .LVU1789
	.uleb128 .LVU1789
	.uleb128 .LVU1789
	.uleb128 .LVU1789
	.uleb128 .LVU1790
	.uleb128 .LVU1790
	.uleb128 0
.LLST163:
	.4byte	.LVL548
	.4byte	.LVL549
	.2byte	0x1
	.byte	0x50
	.4byte	.LVL549
	.4byte	.LVL551
	.2byte	0x1
	.byte	0x54
	.4byte	.LVL551
	.4byte	.LVL552-1
	.2byte	0x1
	.byte	0x50
	.4byte	.LVL552-1
	.4byte	.LVL552
	.2byte	0x4
	.byte	0xf3
	.uleb128 0x1
	.byte	0x50
	.byte	0x9f
	.4byte	.LVL552
	.4byte	.LVL553
	.2byte	0x1
	.byte	0x50
	.4byte	.LVL553
	.4byte	.LFE69
	.2byte	0x4
	.byte	0xf3
	.uleb128 0x1
	.byte	0x50
	.byte	0x9f
	.4byte	0
	.4byte	0
.LVUS164:
	.uleb128 0
	.uleb128 .LVU1786
	.uleb128 .LVU1786
	.uleb128 .LVU1788
	.uleb128 .LVU1788
	.uleb128 .LVU1789
	.uleb128 .LVU1789
	.uleb128 .LVU1789
	.uleb128 .LVU1789
	.uleb128 .LVU1791
	.uleb128 .LVU1791
	.uleb128 0
.LLST164:
	.4byte	.LVL548
	.4byte	.LVL550-1
	.2byte	0x1
	.byte	0x51
	.4byte	.LVL550-1
	.4byte	.LVL551
	.2byte	0x1
	.byte	0x55
	.4byte	.LVL551
	.4byte	.LVL552-1
	.2byte	0x1
	.byte	0x51
	.4byte	.LVL552-1
	.4byte	.LVL552
	.2byte	0x4
	.byte	0xf3
	.uleb128 0x1
	.byte	0x51
	.byte	0x9f
	.4byte	.LVL552
	.4byte	.LVL554-1
	.2byte	0x1
	.byte	0x51
	.4byte	.LVL554-1
	.4byte	.LFE69
	.2byte	0x4
	.byte	0xf3
	.uleb128 0x1
	.byte	0x51
	.byte	0x9f
	.4byte	0
	.4byte	0
.LVUS136:
	.uleb128 0
	.uleb128 .LVU1280
	.uleb128 .LVU1280
	.uleb128 0
.LLST136:
	.4byte	.LVL385
	.4byte	.LVL386
	.2byte	0x1
	.byte	0x50
	.4byte	.LVL386
	.4byte	.LFE67
	.2byte	0x1
	.byte	0x54
	.4byte	0
	.4byte	0
.LVUS137:
	.uleb128 0
	.uleb128 .LVU1282
	.uleb128 .LVU1282
	.uleb128 0
.LLST137:
	.4byte	.LVL385
	.4byte	.LVL387-1
	.2byte	0x1
	.byte	0x51
	.4byte	.LVL387-1
	.4byte	.LFE67
	.2byte	0x1
	.byte	0x56
	.4byte	0
	.4byte	0
.LVUS138:
	.uleb128 .LVU1301
	.uleb128 .LVU1303
	.uleb128 .LVU1303
	.uleb128 .LVU1304
	.uleb128 .LVU1304
	.uleb128 .LVU1305
	.uleb128 .LVU1305
	.uleb128 .LVU1308
.LLST138:
	.4byte	.LVL389
	.4byte	.LVL390
	.2byte	0x1
	.byte	0x50
	.4byte	.LVL390
	.4byte	.LVL391
	.2byte	0x1
	.byte	0x55
	.4byte	.LVL391
	.4byte	.LVL392
	.2byte	0x1
	.byte	0x50
	.4byte	.LVL392
	.4byte	.LVL394
	.2byte	0x1
	.byte	0x55
	.4byte	0
	.4byte	0
.LVUS132:
	.uleb128 0
	.uleb128 .LVU1254
	.uleb128 .LVU1254
	.uleb128 .LVU1270
	.uleb128 .LVU1270
	.uleb128 .LVU1272
	.uleb128 .LVU1272
	.uleb128 0
.LLST132:
	.4byte	.LVL374
	.4byte	.LVL375
	.2byte	0x1
	.byte	0x50
	.4byte	.LVL375
	.4byte	.LVL381-1
	.2byte	0x1
	.byte	0x53
	.4byte	.LVL381-1
	.4byte	.LVL382
	.2byte	0x4
	.byte	0xf3
	.uleb128 0x1
	.byte	0x50
	.byte	0x9f
	.4byte	.LVL382
	.4byte	.LFE66
	.2byte	0x1
	.byte	0x53
	.4byte	0
	.4byte	0
.LVUS133:
	.uleb128 0
	.uleb128 .LVU1259
	.uleb128 .LVU1259
	.uleb128 .LVU1270
	.uleb128 .LVU1270
	.uleb128 .LVU1272
	.uleb128 .LVU1272
	.uleb128 0
.LLST133:
	.4byte	.LVL374
	.4byte	.LVL377
	.2byte	0x1
	.byte	0x51
	.4byte	.LVL377
	.4byte	.LVL381-1
	.2byte	0x1
	.byte	0x50
	.4byte	.LVL381-1
	.4byte	.LVL382
	.2byte	0x4
	.byte	0xf3
	.uleb128 0x1
	.byte	0x51
	.byte	0x9f
	.4byte	.LVL382
	.4byte	.LFE66
	.2byte	0x1
	.byte	0x50
	.4byte	0
	.4byte	0
.LVUS134:
	.uleb128 0
	.uleb128 .LVU1256
	.uleb128 .LVU1256
	.uleb128 .LVU1269
	.uleb128 .LVU1269
	.uleb128 .LVU1270
	.uleb128 .LVU1272
	.uleb128 0
.LLST134:
	.4byte	.LVL374
	.4byte	.LVL376
	.2byte	0x1
	.byte	0x52
	.4byte	.LVL376
	.4byte	.LVL380
	.2byte	0x1
	.byte	0x52
	.4byte	.LVL380
	.4byte	.LVL381-1
	.2byte	0x1b
	.byte	0x73
	.sleb128 20
	.byte	0x6
	.byte	0xf3
	.uleb128 0x1
	.byte	0x52
	.byte	0xf3
	.uleb128 0x1
	.byte	0x52
	.byte	0x40
	.byte	0x4b
	.byte	0x24
	.byte	0x22
	.byte	0x73
	.sleb128 20
	.byte	0x6
	.byte	0x40
	.byte	0x4b
	.byte	0x24
	.byte	0x22
	.byte	0x2a
	.byte	0x28
	.2byte	0x1
	.byte	0x16
	.byte	0x13
	.byte	0x9f
	.4byte	.LVL382
	.4byte	.LFE66
	.2byte	0x1
	.byte	0x52
	.4byte	0
	.4byte	0
.LVUS135:
	.uleb128 .LVU1251
	.uleb128 .LVU1263
	.uleb128 .LVU1263
	.uleb128 .LVU1271
	.uleb128 .LVU1272
	.uleb128 .LVU1273
	.uleb128 .LVU1273
	.uleb128 .LVU1274
.LLST135:
	.4byte	.LVL374
	.4byte	.LVL378
	.2byte	0x2
	.byte	0x30
	.byte	0x9f
	.4byte	.LVL378
	.4byte	.LVL381
	.2byte	0x1
	.byte	0x54
	.4byte	.LVL382
	.4byte	.LVL383
	.2byte	0x2
	.byte	0x30
	.byte	0x9f
	.4byte	.LVL383
	.4byte	.LVL384
	.2byte	0x1
	.byte	0x54
	.4byte	0
	.4byte	0
.LVUS125:
	.uleb128 0
	.uleb128 .LVU1156
	.uleb128 .LVU1156
	.uleb128 0
.LLST125:
	.4byte	.LVL344
	.4byte	.LVL345
	.2byte	0x1
	.byte	0x50
	.4byte	.LVL345
	.4byte	.LFE65
	.2byte	0x1
	.byte	0x56
	.4byte	0
	.4byte	0
.LVUS126:
	.uleb128 0
	.uleb128 .LVU1160
	.uleb128 .LVU1160
	.uleb128 .LVU1172
	.uleb128 .LVU1172
	.uleb128 .LVU1189
	.uleb128 .LVU1189
	.uleb128 .LVU1192
	.uleb128 .LVU1192
	.uleb128 .LVU1244
	.uleb128 .LVU1244
	.uleb128 0
.LLST126:
	.4byte	.LVL344
	.4byte	.LVL347
	.2byte	0x1
	.byte	0x51
	.4byte	.LVL347
	.4byte	.LVL350
	.2byte	0x1
	.byte	0x54
	.4byte	.LVL350
	.4byte	.LVL357
	.2byte	0x4
	.byte	0xf3
	.uleb128 0x1
	.byte	0x51
	.byte	0x9f
	.4byte	.LVL357
	.4byte	.LVL358
	.2byte	0x1
	.byte	0x54
	.4byte	.LVL358
	.4byte	.LVL372
	.2byte	0x4
	.byte	0xf3
	.uleb128 0x1
	.byte	0x51
	.byte	0x9f
	.4byte	.LVL372
	.4byte	.LFE65
	.2byte	0x1
	.byte	0x54
	.4byte	0
	.4byte	0
.LVUS127:
	.uleb128 0
	.uleb128 .LVU1158
	.uleb128 .LVU1158
	.uleb128 .LVU1179
	.uleb128 .LVU1179
	.uleb128 .LVU1186
	.uleb128 .LVU1186
	.uleb128 0
.LLST127:
	.4byte	.LVL344
	.4byte	.LVL346
	.2byte	0x1
	.byte	0x52
	.4byte	.LVL346
	.4byte	.LVL353
	.2byte	0x1
	.byte	0x57
	.4byte	.LVL353
	.4byte	.LVL355
	.2byte	0x1
	.byte	0x55
	.4byte	.LVL355
	.4byte	.LFE65
	.2byte	0x1
	.byte	0x57
	.4byte	0
	.4byte	0
.LVUS128:
	.uleb128 .LVU1162
	.uleb128 .LVU1175
	.uleb128 .LVU1176
	.uleb128 .LVU1192
	.uleb128 .LVU1196
	.uleb128 .LVU1207
	.uleb128 .LVU1207
	.uleb128 .LVU1208
	.uleb128 .LVU1215
	.uleb128 .LVU1219
	.uleb128 .LVU1219
	.uleb128 .LVU1220
	.uleb128 .LVU1220
	.uleb128 .LVU1239
	.uleb128 .LVU1239
	.uleb128 .LVU1244
	.uleb128 .LVU1244
	.uleb128 0
.LLST128:
	.4byte	.LVL348
	.4byte	.LVL352
	.2byte	0x1
	.byte	0x54
	.4byte	.LVL352
	.4byte	.LVL358
	.2byte	0x1
	.byte	0x54
	.4byte	.LVL360
	.4byte	.LVL363
	.2byte	0x1
	.byte	0x54
	.4byte	.LVL363
	.4byte	.LVL364-1
	.2byte	0x1
	.byte	0x50
	.4byte	.LVL365
	.4byte	.LVL366
	.2byte	0x1
	.byte	0x54
	.4byte	.LVL366
	.4byte	.LVL367
	.2byte	0x3
	.byte	0x74
	.sleb128 1
	.byte	0x9f
	.4byte	.LVL367
	.4byte	.LVL371
	.2byte	0x1
	.byte	0x54
	.4byte	.LVL371
	.4byte	.LVL372
	.2byte	0x2
	.byte	0x30
	.byte	0x9f
	.4byte	.LVL372
	.4byte	.LFE65
	.2byte	0x1
	.byte	0x54
	.4byte	0
	.4byte	0
.LVUS129:
	.uleb128 .LVU1172
	.uleb128 .LVU1179
	.uleb128 .LVU1183
	.uleb128 .LVU1188
.LLST129:
	.4byte	.LVL350
	.4byte	.LVL353
	.2byte	0x1
	.byte	0x50
	.4byte	.LVL354
	.4byte	.LVL356
	.2byte	0x1
	.byte	0x50
	.4byte	0
	.4byte	0
.LVUS130:
	.uleb128 .LVU1169
	.uleb128 .LVU1172
	.uleb128 .LVU1172
	.uleb128 .LVU1174
	.uleb128 .LVU1174
	.uleb128 .LVU1177
	.uleb128 .LVU1177
	.uleb128 .LVU1189
	.uleb128 .LVU1189
	.uleb128 .LVU1195
	.uleb128 .LVU1196
	.uleb128 .LVU1205
	.uleb128 .LVU1209
	.uleb128 .LVU1244
.LLST130:
	.4byte	.LVL349
	.4byte	.LVL350
	.2byte	0x2
	.byte	0x30
	.byte	0x9f
	.4byte	.LVL350
	.4byte	.LVL351
	.2byte	0x1
	.byte	0x58
	.4byte	.LVL351
	.4byte	.LVL352
	.2byte	0x3
	.byte	0x78
	.sleb128 -1
	.byte	0x9f
	.4byte	.LVL352
	.4byte	.LVL357
	.2byte	0x1
	.byte	0x58
	.4byte	.LVL357
	.4byte	.LVL359
	.2byte	0x1
	.byte	0x55
	.4byte	.LVL360
	.4byte	.LVL362
	.2byte	0x1
	.byte	0x55
	.4byte	.LVL364
	.4byte	.LVL372
	.2byte	0x1
	.byte	0x55
	.4byte	0
	.4byte	0
.LVUS131:
	.uleb128 .LVU1196
	.uleb128 .LVU1198
	.uleb128 .LVU1198
	.uleb128 .LVU1218
	.uleb128 .LVU1233
	.uleb128 .LVU1236
	.uleb128 .LVU1236
	.uleb128 .LVU1244
.LLST131:
	.4byte	.LVL360
	.4byte	.LVL361
	.2byte	0x1
	.byte	0x51
	.4byte	.LVL361
	.4byte	.LVL366
	.2byte	0x1
	.byte	0x58
	.4byte	.LVL369
	.4byte	.LVL370
	.2byte	0x1
	.byte	0x51
	.4byte	.LVL370
	.4byte	.LVL372
	.2byte	0x1
	.byte	0x58
	.4byte	0
	.4byte	0
.LVUS113:
	.uleb128 0
	.uleb128 .LVU1009
	.uleb128 .LVU1009
	.uleb128 0
.LLST113:
	.4byte	.LVL306
	.4byte	.LVL307
	.2byte	0x1
	.byte	0x50
	.4byte	.LVL307
	.4byte	.LFE64
	.2byte	0x1
	.byte	0x54
	.4byte	0
	.4byte	0
.LVUS114:
	.uleb128 .LVU1022
	.uleb128 .LVU1025
	.uleb128 .LVU1027
	.uleb128 .LVU1028
	.uleb128 .LVU1053
	.uleb128 .LVU1054
	.uleb128 .LVU1071
	.uleb128 .LVU1072
.LLST114:
	.4byte	.LVL308
	.4byte	.LVL309
	.2byte	0x1
	.byte	0x55
	.4byte	.LVL311
	.4byte	.LVL312
	.2byte	0x3
	.byte	0x9
	.byte	0xff
	.byte	0x9f
	.4byte	.LVL314
	.4byte	.LVL315
	.2byte	0x1
	.byte	0x55
	.4byte	.LVL322
	.4byte	.LVL323
	.2byte	0x3
	.byte	0x9
	.byte	0xff
	.byte	0x9f
	.4byte	0
	.4byte	0
.LVUS115:
	.uleb128 .LVU1029
	.uleb128 .LVU1053
	.uleb128 .LVU1054
	.uleb128 .LVU1071
	.uleb128 .LVU1072
	.uleb128 .LVU1142
	.uleb128 .LVU1148
	.uleb128 0
.LLST115:
	.4byte	.LVL312
	.4byte	.LVL314
	.2byte	0x2
	.byte	0x31
	.byte	0x9f
	.4byte	.LVL315
	.4byte	.LVL322
	.2byte	0x2
	.byte	0x31
	.byte	0x9f
	.4byte	.LVL323
	.4byte	.LVL340
	.2byte	0x2
	.byte	0x31
	.byte	0x9f
	.4byte	.LVL342
	.4byte	.LFE64
	.2byte	0x2
	.byte	0x31
	.byte	0x9f
	.4byte	0
	.4byte	0
.LVUS116:
	.uleb128 .LVU1029
	.uleb128 .LVU1053
	.uleb128 .LVU1054
	.uleb128 .LVU1071
	.uleb128 .LVU1072
	.uleb128 .LVU1142
	.uleb128 .LVU1148
	.uleb128 0
.LLST116:
	.4byte	.LVL312
	.4byte	.LVL314
	.2byte	0x1
	.byte	0x54
	.4byte	.LVL315
	.4byte	.LVL322
	.2byte	0x1
	.byte	0x54
	.4byte	.LVL323
	.4byte	.LVL340
	.2byte	0x1
	.byte	0x54
	.4byte	.LVL342
	.4byte	.LFE64
	.2byte	0x1
	.byte	0x54
	.4byte	0
	.4byte	0
.LVUS117:
	.uleb128 .LVU1032
	.uleb128 .LVU1053
	.uleb128 .LVU1054
	.uleb128 .LVU1071
	.uleb128 .LVU1072
	.uleb128 .LVU1142
	.uleb128 .LVU1148
	.uleb128 0
.LLST117:
	.4byte	.LVL312
	.4byte	.LVL314
	.2byte	0x2
	.byte	0x31
	.byte	0x9f
	.4byte	.LVL315
	.4byte	.LVL322
	.2byte	0x2
	.byte	0x31
	.byte	0x9f
	.4byte	.LVL323
	.4byte	.LVL340
	.2byte	0x2
	.byte	0x31
	.byte	0x9f
	.4byte	.LVL342
	.4byte	.LFE64
	.2byte	0x2
	.byte	0x31
	.byte	0x9f
	.4byte	0
	.4byte	0
.LVUS119:
	.uleb128 .LVU1031
	.uleb128 .LVU1053
	.uleb128 .LVU1054
	.uleb128 .LVU1071
	.uleb128 .LVU1072
	.uleb128 .LVU1142
	.uleb128 .LVU1148
	.uleb128 0
.LLST119:
	.4byte	.LVL312
	.4byte	.LVL314
	.2byte	0x1
	.byte	0x54
	.4byte	.LVL315
	.4byte	.LVL322
	.2byte	0x1
	.byte	0x54
	.4byte	.LVL323
	.4byte	.LVL340
	.2byte	0x1
	.byte	0x54
	.4byte	.LVL342
	.4byte	.LFE64
	.2byte	0x1
	.byte	0x54
	.4byte	0
	.4byte	0
.LVUS120:
	.uleb128 .LVU1089
	.uleb128 .LVU1097
	.uleb128 .LVU1097
	.uleb128 .LVU1100
	.uleb128 .LVU1100
	.uleb128 .LVU1101
	.uleb128 .LVU1127
	.uleb128 .LVU1134
	.uleb128 .LVU1140
	.uleb128 .LVU1141
.LLST120:
	.4byte	.LVL325
	.4byte	.LVL326
	.2byte	0x1
	.byte	0x50
	.4byte	.LVL326
	.4byte	.LVL327
	.2byte	0x1
	.byte	0x55
	.4byte	.LVL327
	.4byte	.LVL328
	.2byte	0x1
	.byte	0x50
	.4byte	.LVL335
	.4byte	.LVL336
	.2byte	0x1
	.byte	0x50
	.4byte	.LVL337
	.4byte	.LVL338
	.2byte	0x1
	.byte	0x50
	.4byte	0
	.4byte	0
.LVUS121:
	.uleb128 .LVU1060
	.uleb128 .LVU1070
.LLST121:
	.4byte	.LVL316
	.4byte	.LVL321
	.2byte	0x1
	.byte	0x55
	.4byte	0
	.4byte	0
.LVUS122:
	.uleb128 .LVU1065
	.uleb128 .LVU1071
.LLST122:
	.4byte	.LVL320
	.4byte	.LVL322
	.2byte	0x1
	.byte	0x54
	.4byte	0
	.4byte	0
.LVUS123:
	.uleb128 .LVU1118
	.uleb128 .LVU1127
.LLST123:
	.4byte	.LVL329
	.4byte	.LVL335
	.2byte	0x1
	.byte	0x57
	.4byte	0
	.4byte	0
.LVUS124:
	.uleb128 .LVU1123
	.uleb128 .LVU1127
.LLST124:
	.4byte	.LVL333
	.4byte	.LVL335
	.2byte	0x1
	.byte	0x54
	.4byte	0
	.4byte	0
.LVUS13:
	.uleb128 0
	.uleb128 .LVU164
	.uleb128 .LVU164
	.uleb128 .LVU183
	.uleb128 .LVU183
	.uleb128 .LVU184
	.uleb128 .LVU184
	.uleb128 .LVU186
	.uleb128 .LVU186
	.uleb128 .LVU193
	.uleb128 .LVU193
	.uleb128 .LVU201
	.uleb128 .LVU201
	.uleb128 .LVU202
	.uleb128 .LVU202
	.uleb128 .LVU203
	.uleb128 .LVU203
	.uleb128 .LVU205
	.uleb128 .LVU205
	.uleb128 0
.LLST13:
	.4byte	.LVL49
	.4byte	.LVL50
	.2byte	0x1
	.byte	0x50
	.4byte	.LVL50
	.4byte	.LVL55
	.2byte	0x1
	.byte	0x54
	.4byte	.LVL55
	.4byte	.LVL56
	.2byte	0x1
	.byte	0x50
	.4byte	.LVL56
	.4byte	.LVL58
	.2byte	0x1
	.byte	0x54
	.4byte	.LVL58
	.4byte	.LVL60
	.2byte	0x1
	.byte	0x50
	.4byte	.LVL60
	.4byte	.LVL62
	.2byte	0x1
	.byte	0x54
	.4byte	.LVL62
	.4byte	.LVL63
	.2byte	0x1
	.byte	0x50
	.4byte	.LVL63
	.4byte	.LVL65
	.2byte	0x1
	.byte	0x54
	.4byte	.LVL65
	.4byte	.LVL66
	.2byte	0x1
	.byte	0x50
	.4byte	.LVL66
	.4byte	.LFE63
	.2byte	0x1
	.byte	0x54
	.4byte	0
	.4byte	0
.LVUS14:
	.uleb128 .LVU170
	.uleb128 .LVU176
	.uleb128 .LVU178
	.uleb128 .LVU179
	.uleb128 .LVU179
	.uleb128 .LVU183
.LLST14:
	.4byte	.LVL51
	.4byte	.LVL52
	.2byte	0x1
	.byte	0x50
	.4byte	.LVL53
	.4byte	.LVL54
	.2byte	0x3
	.byte	0x8
	.byte	0x3f
	.byte	0x9f
	.4byte	.LVL54
	.4byte	.LVL55
	.2byte	0x1
	.byte	0x50
	.4byte	0
	.4byte	0
.LVUS15:
	.uleb128 .LVU191
	.uleb128 .LVU203
.LLST15:
	.4byte	.LVL59
	.4byte	.LVL65
	.2byte	0x1
	.byte	0x55
	.4byte	0
	.4byte	0
.LVUS104:
	.uleb128 0
	.uleb128 .LVU889
	.uleb128 .LVU889
	.uleb128 0
.LLST104:
	.4byte	.LVL261
	.4byte	.LVL262
	.2byte	0x1
	.byte	0x50
	.4byte	.LVL262
	.4byte	.LFE60
	.2byte	0x1
	.byte	0x56
	.4byte	0
	.4byte	0
.LVUS105:
	.uleb128 0
	.uleb128 .LVU894
	.uleb128 .LVU894
	.uleb128 0
.LLST105:
	.4byte	.LVL261
	.4byte	.LVL263
	.2byte	0x1
	.byte	0x51
	.4byte	.LVL263
	.4byte	.LFE60
	.2byte	0x1
	.byte	0x58
	.4byte	0
	.4byte	0
.LVUS106:
	.uleb128 0
	.uleb128 .LVU896
	.uleb128 .LVU896
	.uleb128 0
.LLST106:
	.4byte	.LVL261
	.4byte	.LVL264-1
	.2byte	0x1
	.byte	0x52
	.4byte	.LVL264-1
	.4byte	.LFE60
	.2byte	0x1
	.byte	0x59
	.4byte	0
	.4byte	0
.LVUS107:
	.uleb128 .LVU912
	.uleb128 .LVU940
	.uleb128 .LVU960
	.uleb128 .LVU967
	.uleb128 .LVU969
	.uleb128 .LVU973
	.uleb128 .LVU973
	.uleb128 .LVU983
	.uleb128 .LVU983
	.uleb128 .LVU990
	.uleb128 .LVU992
	.uleb128 0
.LLST107:
	.4byte	.LVL266
	.4byte	.LVL273
	.2byte	0x1
	.byte	0x54
	.4byte	.LVL280
	.4byte	.LVL284
	.2byte	0x1
	.byte	0x54
	.4byte	.LVL286
	.4byte	.LVL287
	.2byte	0x1
	.byte	0x54
	.4byte	.LVL287
	.4byte	.LVL294
	.2byte	0x1
	.byte	0x55
	.4byte	.LVL294
	.4byte	.LVL297
	.2byte	0x1
	.byte	0x54
	.4byte	.LVL298
	.4byte	.LFE60
	.2byte	0x1
	.byte	0x54
	.4byte	0
	.4byte	0
.LVUS108:
	.uleb128 .LVU901
	.uleb128 .LVU927
	.uleb128 .LVU927
	.uleb128 .LVU929
	.uleb128 .LVU929
	.uleb128 .LVU940
	.uleb128 .LVU941
	.uleb128 .LVU961
	.uleb128 .LVU961
	.uleb128 .LVU964
	.uleb128 .LVU964
	.uleb128 0
.LLST108:
	.4byte	.LVL265
	.4byte	.LVL270
	.2byte	0x2
	.byte	0x30
	.byte	0x9f
	.4byte	.LVL270
	.4byte	.LVL271
	.2byte	0x1
	.byte	0x50
	.4byte	.LVL271
	.4byte	.LVL273
	.2byte	0x2
	.byte	0x30
	.byte	0x9f
	.4byte	.LVL274
	.4byte	.LVL281
	.2byte	0x2
	.byte	0x30
	.byte	0x9f
	.4byte	.LVL281
	.4byte	.LVL282
	.2byte	0x1
	.byte	0x50
	.4byte	.LVL282
	.4byte	.LFE60
	.2byte	0x2
	.byte	0x30
	.byte	0x9f
	.4byte	0
	.4byte	0
.LVUS109:
	.uleb128 .LVU951
	.uleb128 .LVU958
	.uleb128 .LVU967
	.uleb128 .LVU969
.LLST109:
	.4byte	.LVL277
	.4byte	.LVL278
	.2byte	0x4
	.byte	0x91
	.sleb128 -80
	.byte	0x9f
	.4byte	.LVL284
	.4byte	.LVL286
	.2byte	0x4
	.byte	0x91
	.sleb128 -80
	.byte	0x9f
	.4byte	0
	.4byte	0
.LVUS110:
	.uleb128 .LVU951
	.uleb128 .LVU958
	.uleb128 .LVU967
	.uleb128 .LVU969
.LLST110:
	.4byte	.LVL277
	.4byte	.LVL278
	.2byte	0x1
	.byte	0x56
	.4byte	.LVL284
	.4byte	.LVL286
	.2byte	0x1
	.byte	0x56
	.4byte	0
	.4byte	0
.LVUS111:
	.uleb128 .LVU968
	.uleb128 .LVU969
.LLST111:
	.4byte	.LVL284
	.4byte	.LVL286
	.2byte	0x1
	.byte	0x56
	.4byte	0
	.4byte	0
.LVUS112:
	.uleb128 .LVU967
	.uleb128 .LVU969
.LLST112:
	.4byte	.LVL284
	.4byte	.LVL286
	.2byte	0x4
	.byte	0x91
	.sleb128 -80
	.byte	0x9f
	.4byte	0
	.4byte	0
.LVUS90:
	.uleb128 0
	.uleb128 .LVU780
	.uleb128 .LVU780
	.uleb128 .LVU875
	.uleb128 .LVU875
	.uleb128 .LVU876
	.uleb128 .LVU876
	.uleb128 0
.LLST90:
	.4byte	.LVL235
	.4byte	.LVL238
	.2byte	0x1
	.byte	0x50
	.4byte	.LVL238
	.4byte	.LVL255
	.2byte	0x1
	.byte	0x54
	.4byte	.LVL255
	.4byte	.LVL256-1
	.2byte	0x1
	.byte	0x50
	.4byte	.LVL256-1
	.4byte	.LFE59
	.2byte	0x1
	.byte	0x54
	.4byte	0
	.4byte	0
.LVUS91:
	.uleb128 0
	.uleb128 .LVU780
	.uleb128 .LVU780
	.uleb128 .LVU840
	.uleb128 .LVU840
	.uleb128 .LVU844
	.uleb128 .LVU844
	.uleb128 .LVU874
	.uleb128 .LVU874
	.uleb128 .LVU875
	.uleb128 .LVU875
	.uleb128 .LVU876
	.uleb128 .LVU876
	.uleb128 0
.LLST91:
	.4byte	.LVL235
	.4byte	.LVL238
	.2byte	0x1
	.byte	0x51
	.4byte	.LVL238
	.4byte	.LVL244
	.2byte	0x1
	.byte	0x55
	.4byte	.LVL244
	.4byte	.LVL246
	.2byte	0x4
	.byte	0xf3
	.uleb128 0x1
	.byte	0x51
	.byte	0x9f
	.4byte	.LVL246
	.4byte	.LVL254
	.2byte	0x1
	.byte	0x55
	.4byte	.LVL254
	.4byte	.LVL255
	.2byte	0x4
	.byte	0xf3
	.uleb128 0x1
	.byte	0x51
	.byte	0x9f
	.4byte	.LVL255
	.4byte	.LVL256-1
	.2byte	0x1
	.byte	0x51
	.4byte	.LVL256-1
	.4byte	.LFE59
	.2byte	0x1
	.byte	0x55
	.4byte	0
	.4byte	0
.LVUS92:
	.uleb128 0
	.uleb128 .LVU780
	.uleb128 .LVU780
	.uleb128 .LVU875
	.uleb128 .LVU875
	.uleb128 .LVU876
	.uleb128 .LVU876
	.uleb128 0
.LLST92:
	.4byte	.LVL235
	.4byte	.LVL238
	.2byte	0x1
	.byte	0x52
	.4byte	.LVL238
	.4byte	.LVL255
	.2byte	0x1
	.byte	0x57
	.4byte	.LVL255
	.4byte	.LVL256-1
	.2byte	0x1
	.byte	0x52
	.4byte	.LVL256-1
	.4byte	.LFE59
	.2byte	0x1
	.byte	0x57
	.4byte	0
	.4byte	0
.LVUS93:
	.uleb128 0
	.uleb128 .LVU774
	.uleb128 .LVU774
	.uleb128 .LVU840
	.uleb128 .LVU840
	.uleb128 .LVU844
	.uleb128 .LVU844
	.uleb128 .LVU859
	.uleb128 .LVU859
	.uleb128 .LVU865
	.uleb128 .LVU865
	.uleb128 .LVU875
	.uleb128 .LVU875
	.uleb128 .LVU878
	.uleb128 .LVU878
	.uleb128 .LVU880
	.uleb128 .LVU880
	.uleb128 0
.LLST93:
	.4byte	.LVL235
	.4byte	.LVL236
	.2byte	0x1
	.byte	0x53
	.4byte	.LVL236
	.4byte	.LVL244
	.2byte	0x1
	.byte	0x59
	.4byte	.LVL244
	.4byte	.LVL246
	.2byte	0x4
	.byte	0xf3
	.uleb128 0x1
	.byte	0x53
	.byte	0x9f
	.4byte	.LVL246
	.4byte	.LVL250
	.2byte	0x1
	.byte	0x59
	.4byte	.LVL250
	.4byte	.LVL251-1
	.2byte	0x2
	.byte	0x74
	.sleb128 52
	.4byte	.LVL251-1
	.4byte	.LVL255
	.2byte	0x4
	.byte	0xf3
	.uleb128 0x1
	.byte	0x53
	.byte	0x9f
	.4byte	.LVL255
	.4byte	.LVL257
	.2byte	0x1
	.byte	0x59
	.4byte	.LVL257
	.4byte	.LVL258-1
	.2byte	0x2
	.byte	0x74
	.sleb128 52
	.4byte	.LVL258-1
	.4byte	.LFE59
	.2byte	0x4
	.byte	0xf3
	.uleb128 0x1
	.byte	0x53
	.byte	0x9f
	.4byte	0
	.4byte	0
.LVUS94:
	.uleb128 .LVU786
	.uleb128 .LVU787
	.uleb128 .LVU787
	.uleb128 .LVU812
	.uleb128 .LVU812
	.uleb128 .LVU840
	.uleb128 .LVU844
	.uleb128 .LVU850
	.uleb128 .LVU854
	.uleb128 .LVU865
	.uleb128 .LVU878
	.uleb128 .LVU880
.LLST94:
	.4byte	.LVL240
	.4byte	.LVL241-1
	.2byte	0x1
	.byte	0x50
	.4byte	.LVL241-1
	.4byte	.LVL243
	.2byte	0x1
	.byte	0x56
	.4byte	.LVL243
	.4byte	.LVL244
	.2byte	0x2
	.byte	0x74
	.sleb128 60
	.4byte	.LVL246
	.4byte	.LVL247
	.2byte	0x1
	.byte	0x56
	.4byte	.LVL249
	.4byte	.LVL251-1
	.2byte	0x2
	.byte	0x74
	.sleb128 60
	.4byte	.LVL257
	.4byte	.LVL258-1
	.2byte	0x2
	.byte	0x74
	.sleb128 60
	.4byte	0
	.4byte	0
.LVUS95:
	.uleb128 .LVU776
	.uleb128 .LVU780
	.uleb128 .LVU875
	.uleb128 .LVU876
	.uleb128 .LVU876
	.uleb128 .LVU878
.LLST95:
	.4byte	.LVL237
	.4byte	.LVL238
	.2byte	0x2
	.byte	0x30
	.byte	0x9f
	.4byte	.LVL255
	.4byte	.LVL256
	.2byte	0x2
	.byte	0x30
	.byte	0x9f
	.4byte	.LVL256
	.4byte	.LVL257
	.2byte	0x1
	.byte	0x50
	.4byte	0
	.4byte	0
.LVUS96:
	.uleb128 .LVU859
	.uleb128 .LVU866
	.uleb128 .LVU878
	.uleb128 0
.LLST96:
	.4byte	.LVL250
	.4byte	.LVL251
	.2byte	0x4
	.byte	0x91
	.sleb128 -72
	.byte	0x9f
	.4byte	.LVL257
	.4byte	.LFE59
	.2byte	0x4
	.byte	0x91
	.sleb128 -72
	.byte	0x9f
	.4byte	0
	.4byte	0
.LVUS97:
	.uleb128 .LVU859
	.uleb128 .LVU866
	.uleb128 .LVU878
	.uleb128 0
.LLST97:
	.4byte	.LVL250
	.4byte	.LVL251
	.2byte	0x1
	.byte	0x54
	.4byte	.LVL257
	.4byte	.LFE59
	.2byte	0x1
	.byte	0x54
	.4byte	0
	.4byte	0
.LVUS98:
	.uleb128 .LVU879
	.uleb128 0
.LLST98:
	.4byte	.LVL257
	.4byte	.LFE59
	.2byte	0x1
	.byte	0x54
	.4byte	0
	.4byte	0
.LVUS99:
	.uleb128 .LVU878
	.uleb128 0
.LLST99:
	.4byte	.LVL257
	.4byte	.LFE59
	.2byte	0x4
	.byte	0x91
	.sleb128 -72
	.byte	0x9f
	.4byte	0
	.4byte	0
.LVUS100:
	.uleb128 .LVU869
	.uleb128 .LVU872
.LLST100:
	.4byte	.LVL252
	.4byte	.LVL253
	.2byte	0x1
	.byte	0x54
	.4byte	0
	.4byte	0
.LVUS101:
	.uleb128 0
	.uleb128 .LVU884
	.uleb128 .LVU884
	.uleb128 0
.LLST101:
	.4byte	.LVL259
	.4byte	.LVL260-1
	.2byte	0x1
	.byte	0x50
	.4byte	.LVL260-1
	.4byte	.LFE58
	.2byte	0x4
	.byte	0xf3
	.uleb128 0x1
	.byte	0x50
	.byte	0x9f
	.4byte	0
	.4byte	0
.LVUS102:
	.uleb128 0
	.uleb128 .LVU884
	.uleb128 .LVU884
	.uleb128 0
.LLST102:
	.4byte	.LVL259
	.4byte	.LVL260-1
	.2byte	0x1
	.byte	0x51
	.4byte	.LVL260-1
	.4byte	.LFE58
	.2byte	0x4
	.byte	0xf3
	.uleb128 0x1
	.byte	0x51
	.byte	0x9f
	.4byte	0
	.4byte	0
.LVUS103:
	.uleb128 0
	.uleb128 .LVU884
	.uleb128 .LVU884
	.uleb128 0
.LLST103:
	.4byte	.LVL259
	.4byte	.LVL260-1
	.2byte	0x1
	.byte	0x52
	.4byte	.LVL260-1
	.4byte	.LFE58
	.2byte	0x4
	.byte	0xf3
	.uleb128 0x1
	.byte	0x52
	.byte	0x9f
	.4byte	0
	.4byte	0
.LVUS63:
	.uleb128 0
	.uleb128 .LVU550
	.uleb128 .LVU550
	.uleb128 .LVU602
	.uleb128 .LVU602
	.uleb128 .LVU606
	.uleb128 .LVU607
	.uleb128 .LVU610
	.uleb128 .LVU611
	.uleb128 .LVU613
	.uleb128 .LVU615
	.uleb128 .LVU672
	.uleb128 .LVU673
	.uleb128 .LVU692
	.uleb128 .LVU692
	.uleb128 .LVU694
	.uleb128 .LVU694
	.uleb128 0
.LLST63:
	.4byte	.LVL174
	.4byte	.LVL175
	.2byte	0x1
	.byte	0x50
	.4byte	.LVL175
	.4byte	.LVL184
	.2byte	0x1
	.byte	0x54
	.4byte	.LVL184
	.4byte	.LVL186
	.2byte	0x4
	.byte	0xf3
	.uleb128 0x1
	.byte	0x50
	.byte	0x9f
	.4byte	.LVL187
	.4byte	.LVL188
	.2byte	0x1
	.byte	0x54
	.4byte	.LVL188
	.4byte	.LVL189
	.2byte	0x1
	.byte	0x54
	.4byte	.LVL190
	.4byte	.LVL203
	.2byte	0x1
	.byte	0x54
	.4byte	.LVL203
	.4byte	.LVL209
	.2byte	0x1
	.byte	0x54
	.4byte	.LVL209
	.4byte	.LVL211
	.2byte	0x4
	.byte	0xf3
	.uleb128 0x1
	.byte	0x50
	.byte	0x9f
	.4byte	.LVL211
	.4byte	.LFE57
	.2byte	0x1
	.byte	0x54
	.4byte	0
	.4byte	0
.LVUS64:
	.uleb128 0
	.uleb128 .LVU554
	.uleb128 .LVU554
	.uleb128 0
.LLST64:
	.4byte	.LVL174
	.4byte	.LVL176-1
	.2byte	0x1
	.byte	0x51
	.4byte	.LVL176-1
	.4byte	.LFE57
	.2byte	0x4
	.byte	0xf3
	.uleb128 0x1
	.byte	0x51
	.byte	0x9f
	.4byte	0
	.4byte	0
.LVUS65:
	.uleb128 0
	.uleb128 .LVU554
	.uleb128 .LVU554
	.uleb128 0
.LLST65:
	.4byte	.LVL174
	.4byte	.LVL176-1
	.2byte	0x1
	.byte	0x52
	.4byte	.LVL176-1
	.4byte	.LFE57
	.2byte	0x1
	.byte	0x56
	.4byte	0
	.4byte	0
.LVUS66:
	.uleb128 0
	.uleb128 .LVU554
	.uleb128 .LVU554
	.uleb128 .LVU606
	.uleb128 .LVU606
	.uleb128 .LVU615
	.uleb128 .LVU615
	.uleb128 .LVU622
	.uleb128 .LVU622
	.uleb128 .LVU635
	.uleb128 .LVU635
	.uleb128 .LVU660
	.uleb128 .LVU660
	.uleb128 .LVU680
	.uleb128 .LVU680
	.uleb128 .LVU683
	.uleb128 .LVU683
	.uleb128 .LVU688
	.uleb128 .LVU688
	.uleb128 .LVU693
	.uleb128 .LVU693
	.uleb128 .LVU694
	.uleb128 .LVU694
	.uleb128 .LVU697
	.uleb128 .LVU697
	.uleb128 .LVU702
	.uleb128 .LVU702
	.uleb128 0
.LLST66:
	.4byte	.LVL174
	.4byte	.LVL176-1
	.2byte	0x1
	.byte	0x53
	.4byte	.LVL176-1
	.4byte	.LVL186
	.2byte	0x1
	.byte	0x57
	.4byte	.LVL186
	.4byte	.LVL190
	.2byte	0x4
	.byte	0xf3
	.uleb128 0x1
	.byte	0x53
	.byte	0x9f
	.4byte	.LVL190
	.4byte	.LVL191
	.2byte	0x1
	.byte	0x57
	.4byte	.LVL191
	.4byte	.LVL194
	.2byte	0x4
	.byte	0xf3
	.uleb128 0x1
	.byte	0x53
	.byte	0x9f
	.4byte	.LVL194
	.4byte	.LVL200
	.2byte	0x1
	.byte	0x57
	.4byte	.LVL200
	.4byte	.LVL204
	.2byte	0x4
	.byte	0xf3
	.uleb128 0x1
	.byte	0x53
	.byte	0x9f
	.4byte	.LVL204
	.4byte	.LVL205
	.2byte	0x1
	.byte	0x57
	.4byte	.LVL205
	.4byte	.LVL208
	.2byte	0x4
	.byte	0xf3
	.uleb128 0x1
	.byte	0x53
	.byte	0x9f
	.4byte	.LVL208
	.4byte	.LVL210
	.2byte	0x1
	.byte	0x57
	.4byte	.LVL210
	.4byte	.LVL211
	.2byte	0x4
	.byte	0xf3
	.uleb128 0x1
	.byte	0x53
	.byte	0x9f
	.4byte	.LVL211
	.4byte	.LVL212
	.2byte	0x1
	.byte	0x57
	.4byte	.LVL212
	.4byte	.LVL215
	.2byte	0x4
	.byte	0xf3
	.uleb128 0x1
	.byte	0x53
	.byte	0x9f
	.4byte	.LVL215
	.4byte	.LFE57
	.2byte	0x1
	.byte	0x57
	.4byte	0
	.4byte	0
.LVUS71:
	.uleb128 .LVU587
	.uleb128 .LVU592
.LLST71:
	.4byte	.LVL181
	.4byte	.LVL182-1
	.2byte	0x1
	.byte	0x50
	.4byte	0
	.4byte	0
.LVUS67:
	.uleb128 .LVU572
	.uleb128 .LVU579
	.uleb128 .LVU702
	.uleb128 .LVU709
.LLST67:
	.4byte	.LVL177
	.4byte	.LVL178
	.2byte	0x4
	.byte	0x91
	.sleb128 -80
	.byte	0x9f
	.4byte	.LVL215
	.4byte	.LVL216
	.2byte	0x4
	.byte	0x91
	.sleb128 -80
	.byte	0x9f
	.4byte	0
	.4byte	0
.LVUS68:
	.uleb128 .LVU572
	.uleb128 .LVU579
	.uleb128 .LVU702
	.uleb128 .LVU709
.LLST68:
	.4byte	.LVL177
	.4byte	.LVL178
	.2byte	0x1
	.byte	0x54
	.4byte	.LVL215
	.4byte	.LVL216
	.2byte	0x2
	.byte	0x30
	.byte	0x9f
	.4byte	0
	.4byte	0
.LVUS69:
	.uleb128 .LVU710
	.uleb128 .LVU711
.LLST69:
	.4byte	.LVL216
	.4byte	.LVL218
	.2byte	0x1
	.byte	0x54
	.4byte	0
	.4byte	0
.LVUS70:
	.uleb128 .LVU709
	.uleb128 .LVU711
.LLST70:
	.4byte	.LVL216
	.4byte	.LVL218
	.2byte	0x4
	.byte	0x91
	.sleb128 -80
	.byte	0x9f
	.4byte	0
	.4byte	0
.LVUS72:
	.uleb128 .LVU622
	.uleb128 .LVU629
	.uleb128 .LVU680
	.uleb128 .LVU686
.LLST72:
	.4byte	.LVL191
	.4byte	.LVL192
	.2byte	0x4
	.byte	0x91
	.sleb128 -80
	.byte	0x9f
	.4byte	.LVL204
	.4byte	.LVL206
	.2byte	0x4
	.byte	0x91
	.sleb128 -80
	.byte	0x9f
	.4byte	0
	.4byte	0
.LVUS73:
	.uleb128 .LVU622
	.uleb128 .LVU629
	.uleb128 .LVU680
	.uleb128 .LVU686
.LLST73:
	.4byte	.LVL191
	.4byte	.LVL192
	.2byte	0x1
	.byte	0x54
	.4byte	.LVL204
	.4byte	.LVL206
	.2byte	0x2
	.byte	0x30
	.byte	0x9f
	.4byte	0
	.4byte	0
.LVUS74:
	.uleb128 .LVU687
	.uleb128 .LVU688
.LLST74:
	.4byte	.LVL206
	.4byte	.LVL208
	.2byte	0x1
	.byte	0x54
	.4byte	0
	.4byte	0
.LVUS75:
	.uleb128 .LVU686
	.uleb128 .LVU688
.LLST75:
	.4byte	.LVL206
	.4byte	.LVL208
	.2byte	0x4
	.byte	0x91
	.sleb128 -80
	.byte	0x9f
	.4byte	0
	.4byte	0
.LVUS76:
	.uleb128 .LVU645
	.uleb128 .LVU653
.LLST76:
	.4byte	.LVL197
	.4byte	.LVL199
	.2byte	0x1
	.byte	0x57
	.4byte	0
	.4byte	0
.LVUS77:
	.uleb128 .LVU647
	.uleb128 .LVU653
.LLST77:
	.4byte	.LVL197
	.4byte	.LVL199
	.2byte	0x2
	.byte	0x30
	.byte	0x9f
	.4byte	0
	.4byte	0
.LVUS78:
	.uleb128 .LVU660
	.uleb128 .LVU667
	.uleb128 .LVU694
	.uleb128 .LVU700
.LLST78:
	.4byte	.LVL200
	.4byte	.LVL201
	.2byte	0x4
	.byte	0x91
	.sleb128 -80
	.byte	0x9f
	.4byte	.LVL211
	.4byte	.LVL213
	.2byte	0x4
	.byte	0x91
	.sleb128 -80
	.byte	0x9f
	.4byte	0
	.4byte	0
.LVUS79:
	.uleb128 .LVU660
	.uleb128 .LVU667
	.uleb128 .LVU694
	.uleb128 .LVU700
.LLST79:
	.4byte	.LVL200
	.4byte	.LVL201
	.2byte	0x1
	.byte	0x54
	.4byte	.LVL211
	.4byte	.LVL213
	.2byte	0x2
	.byte	0x30
	.byte	0x9f
	.4byte	0
	.4byte	0
.LVUS80:
	.uleb128 .LVU701
	.uleb128 .LVU702
.LLST80:
	.4byte	.LVL213
	.4byte	.LVL215
	.2byte	0x1
	.byte	0x54
	.4byte	0
	.4byte	0
.LVUS81:
	.uleb128 .LVU700
	.uleb128 .LVU702
.LLST81:
	.4byte	.LVL213
	.4byte	.LVL215
	.2byte	0x4
	.byte	0x91
	.sleb128 -80
	.byte	0x9f
	.4byte	0
	.4byte	0
.LVUS82:
	.uleb128 0
	.uleb128 .LVU722
	.uleb128 .LVU722
	.uleb128 .LVU742
	.uleb128 .LVU742
	.uleb128 .LVU751
	.uleb128 .LVU751
	.uleb128 0
.LLST82:
	.4byte	.LVL220
	.4byte	.LVL222
	.2byte	0x1
	.byte	0x50
	.4byte	.LVL222
	.4byte	.LVL228
	.2byte	0x1
	.byte	0x57
	.4byte	.LVL228
	.4byte	.LVL231-1
	.2byte	0x1
	.byte	0x52
	.4byte	.LVL231-1
	.4byte	.LFE56
	.2byte	0x4
	.byte	0xf3
	.uleb128 0x1
	.byte	0x50
	.byte	0x9f
	.4byte	0
	.4byte	0
.LVUS83:
	.uleb128 0
	.uleb128 .LVU719
	.uleb128 .LVU719
	.uleb128 .LVU733
	.uleb128 .LVU733
	.uleb128 0
.LLST83:
	.4byte	.LVL220
	.4byte	.LVL221
	.2byte	0x1
	.byte	0x51
	.4byte	.LVL221
	.4byte	.LVL223-1
	.2byte	0x1
	.byte	0x53
	.4byte	.LVL223-1
	.4byte	.LFE56
	.2byte	0x4
	.byte	0xf3
	.uleb128 0x1
	.byte	0x51
	.byte	0x9f
	.4byte	0
	.4byte	0
.LVUS84:
	.uleb128 .LVU724
	.uleb128 .LVU765
.LLST84:
	.4byte	.LVL222
	.4byte	.LVL234
	.2byte	0x2
	.byte	0x30
	.byte	0x9f
	.4byte	0
	.4byte	0
.LVUS85:
	.uleb128 .LVU722
	.uleb128 .LVU733
	.uleb128 .LVU733
	.uleb128 .LVU765
.LLST85:
	.4byte	.LVL222
	.4byte	.LVL223-1
	.2byte	0x1
	.byte	0x53
	.4byte	.LVL223-1
	.4byte	.LVL234
	.2byte	0x4
	.byte	0xf3
	.uleb128 0x1
	.byte	0x51
	.byte	0x9f
	.4byte	0
	.4byte	0
.LVUS86:
	.uleb128 .LVU722
	.uleb128 .LVU742
	.uleb128 .LVU742
	.uleb128 .LVU751
	.uleb128 .LVU751
	.uleb128 .LVU765
.LLST86:
	.4byte	.LVL222
	.4byte	.LVL228
	.2byte	0x1
	.byte	0x57
	.4byte	.LVL228
	.4byte	.LVL231-1
	.2byte	0x1
	.byte	0x52
	.4byte	.LVL231-1
	.4byte	.LVL234
	.2byte	0x4
	.byte	0xf3
	.uleb128 0x1
	.byte	0x50
	.byte	0x9f
	.4byte	0
	.4byte	0
.LVUS87:
	.uleb128 .LVU736
	.uleb128 .LVU738
	.uleb128 .LVU738
	.uleb128 .LVU765
.LLST87:
	.4byte	.LVL225
	.4byte	.LVL226
	.2byte	0x1
	.byte	0x50
	.4byte	.LVL226
	.4byte	.LVL234
	.2byte	0x1
	.byte	0x55
	.4byte	0
	.4byte	0
.LVUS88:
	.uleb128 .LVU729
	.uleb128 .LVU742
	.uleb128 .LVU742
	.uleb128 .LVU751
	.uleb128 .LVU751
	.uleb128 0
.LLST88:
	.4byte	.LVL222
	.4byte	.LVL228
	.2byte	0x1
	.byte	0x57
	.4byte	.LVL228
	.4byte	.LVL231-1
	.2byte	0x1
	.byte	0x52
	.4byte	.LVL231-1
	.4byte	.LFE56
	.2byte	0x4
	.byte	0xf3
	.uleb128 0x1
	.byte	0x50
	.byte	0x9f
	.4byte	0
	.4byte	0
.LVUS89:
	.uleb128 .LVU744
	.uleb128 .LVU750
	.uleb128 .LVU750
	.uleb128 .LVU765
.LLST89:
	.4byte	.LVL229
	.4byte	.LVL230
	.2byte	0x1
	.byte	0x50
	.4byte	.LVL230
	.4byte	.LVL234
	.2byte	0x1
	.byte	0x54
	.4byte	0
	.4byte	0
.LVUS62:
	.uleb128 0
	.uleb128 .LVU545
	.uleb128 .LVU545
	.uleb128 0
.LLST62:
	.4byte	.LVL172
	.4byte	.LVL173-1
	.2byte	0x1
	.byte	0x50
	.4byte	.LVL173-1
	.4byte	.LFE54
	.2byte	0x4
	.byte	0xf3
	.uleb128 0x1
	.byte	0x50
	.byte	0x9f
	.4byte	0
	.4byte	0
.LVUS60:
	.uleb128 0
	.uleb128 .LVU541
	.uleb128 .LVU541
	.uleb128 0
.LLST60:
	.4byte	.LVL169
	.4byte	.LVL171-1
	.2byte	0x1
	.byte	0x50
	.4byte	.LVL171-1
	.4byte	.LFE53
	.2byte	0x4
	.byte	0xf3
	.uleb128 0x1
	.byte	0x50
	.byte	0x9f
	.4byte	0
	.4byte	0
.LVUS61:
	.uleb128 0
	.uleb128 .LVU540
	.uleb128 .LVU540
	.uleb128 0
.LLST61:
	.4byte	.LVL169
	.4byte	.LVL170
	.2byte	0x1
	.byte	0x51
	.4byte	.LVL170
	.4byte	.LFE53
	.2byte	0x4
	.byte	0xf3
	.uleb128 0x1
	.byte	0x51
	.byte	0x9f
	.4byte	0
	.4byte	0
.LVUS59:
	.uleb128 0
	.uleb128 .LVU536
	.uleb128 .LVU536
	.uleb128 0
.LLST59:
	.4byte	.LVL167
	.4byte	.LVL168-1
	.2byte	0x1
	.byte	0x50
	.4byte	.LVL168-1
	.4byte	.LFE52
	.2byte	0x4
	.byte	0xf3
	.uleb128 0x1
	.byte	0x50
	.byte	0x9f
	.4byte	0
	.4byte	0
.LVUS58:
	.uleb128 0
	.uleb128 .LVU532
	.uleb128 .LVU532
	.uleb128 0
.LLST58:
	.4byte	.LVL165
	.4byte	.LVL166
	.2byte	0x1
	.byte	0x50
	.4byte	.LVL166
	.4byte	.LFE50
	.2byte	0x4
	.byte	0xf3
	.uleb128 0x1
	.byte	0x50
	.byte	0x9f
	.4byte	0
	.4byte	0
.LVUS54:
	.uleb128 0
	.uleb128 .LVU507
	.uleb128 .LVU507
	.uleb128 .LVU515
	.uleb128 .LVU515
	.uleb128 0
.LLST54:
	.4byte	.LVL156
	.4byte	.LVL157
	.2byte	0x1
	.byte	0x50
	.4byte	.LVL157
	.4byte	.LVL161
	.2byte	0x1
	.byte	0x54
	.4byte	.LVL161
	.4byte	.LFE49
	.2byte	0x4
	.byte	0xf3
	.uleb128 0x1
	.byte	0x50
	.byte	0x9f
	.4byte	0
	.4byte	0
.LVUS55:
	.uleb128 0
	.uleb128 .LVU509
	.uleb128 .LVU509
	.uleb128 0
.LLST55:
	.4byte	.LVL156
	.4byte	.LVL158-1
	.2byte	0x1
	.byte	0x51
	.4byte	.LVL158-1
	.4byte	.LFE49
	.2byte	0x1
	.byte	0x56
	.4byte	0
	.4byte	0
.LVUS56:
	.uleb128 .LVU511
	.uleb128 0
.LLST56:
	.4byte	.LVL159
	.4byte	.LFE49
	.2byte	0x1
	.byte	0x55
	.4byte	0
	.4byte	0
.LVUS57:
	.uleb128 .LVU513
	.uleb128 .LVU515
	.uleb128 .LVU515
	.uleb128 .LVU518
	.uleb128 .LVU518
	.uleb128 .LVU522
	.uleb128 .LVU522
	.uleb128 .LVU524
.LLST57:
	.4byte	.LVL160
	.4byte	.LVL161
	.2byte	0x2
	.byte	0x30
	.byte	0x9f
	.4byte	.LVL161
	.4byte	.LVL162
	.2byte	0x9
	.byte	0x73
	.sleb128 0
	.byte	0xf3
	.uleb128 0x1
	.byte	0x50
	.byte	0x1c
	.byte	0x23
	.uleb128 0x1
	.byte	0x9f
	.4byte	.LVL162
	.4byte	.LVL163
	.2byte	0x7
	.byte	0x73
	.sleb128 0
	.byte	0xf3
	.uleb128 0x1
	.byte	0x50
	.byte	0x1c
	.byte	0x9f
	.4byte	.LVL163
	.4byte	.LVL164
	.2byte	0x9
	.byte	0x73
	.sleb128 0
	.byte	0xf3
	.uleb128 0x1
	.byte	0x50
	.byte	0x1c
	.byte	0x23
	.uleb128 0x1
	.byte	0x9f
	.4byte	0
	.4byte	0
.LVUS193:
	.uleb128 0
	.uleb128 .LVU2062
	.uleb128 .LVU2062
	.uleb128 .LVU2079
	.uleb128 .LVU2079
	.uleb128 .LVU2080
	.uleb128 .LVU2080
	.uleb128 .LVU2080
	.uleb128 .LVU2080
	.uleb128 .LVU2082
	.uleb128 .LVU2082
	.uleb128 0
.LLST193:
	.4byte	.LVL626
	.4byte	.LVL627
	.2byte	0x1
	.byte	0x50
	.4byte	.LVL627
	.4byte	.LVL632
	.2byte	0x1
	.byte	0x56
	.4byte	.LVL632
	.4byte	.LVL633-1
	.2byte	0x1
	.byte	0x50
	.4byte	.LVL633-1
	.4byte	.LVL633
	.2byte	0x4
	.byte	0xf3
	.uleb128 0x1
	.byte	0x50
	.byte	0x9f
	.4byte	.LVL633
	.4byte	.LVL634-1
	.2byte	0x1
	.byte	0x50
	.4byte	.LVL634-1
	.4byte	.LFE47
	.2byte	0x1
	.byte	0x56
	.4byte	0
	.4byte	0
.LVUS194:
	.uleb128 .LVU2062
	.uleb128 .LVU2065
	.uleb128 .LVU2065
	.uleb128 .LVU2076
.LLST194:
	.4byte	.LVL627
	.4byte	.LVL628
	.2byte	0x1
	.byte	0x56
	.4byte	.LVL628
	.4byte	.LVL631
	.2byte	0x1
	.byte	0x54
	.4byte	0
	.4byte	0
.LVUS46:
	.uleb128 0
	.uleb128 .LVU447
	.uleb128 .LVU447
	.uleb128 .LVU465
	.uleb128 .LVU465
	.uleb128 .LVU472
	.uleb128 .LVU472
	.uleb128 .LVU493
	.uleb128 .LVU493
	.uleb128 .LVU496
.LLST46:
	.4byte	.LVL137
	.4byte	.LVL139
	.2byte	0x1
	.byte	0x50
	.4byte	.LVL139
	.4byte	.LVL145
	.2byte	0x1
	.byte	0x54
	.4byte	.LVL145
	.4byte	.LVL147
	.2byte	0x1
	.byte	0x55
	.4byte	.LVL147
	.4byte	.LVL153
	.2byte	0x1
	.byte	0x54
	.4byte	.LVL153
	.4byte	.LVL154
	.2byte	0x1
	.byte	0x50
	.4byte	0
	.4byte	0
.LVUS47:
	.uleb128 .LVU447
	.uleb128 .LVU467
	.uleb128 .LVU472
	.uleb128 .LVU493
.LLST47:
	.4byte	.LVL139
	.4byte	.LVL146
	.2byte	0x1
	.byte	0x55
	.4byte	.LVL147
	.4byte	.LVL153
	.2byte	0x1
	.byte	0x55
	.4byte	0
	.4byte	0
.LVUS48:
	.uleb128 .LVU442
	.uleb128 .LVU447
	.uleb128 .LVU447
	.uleb128 .LVU493
	.uleb128 .LVU493
	.uleb128 .LVU496
.LLST48:
	.4byte	.LVL138
	.4byte	.LVL139
	.2byte	0x2
	.byte	0x30
	.byte	0x9f
	.4byte	.LVL139
	.4byte	.LVL153
	.2byte	0x1
	.byte	0x56
	.4byte	.LVL153
	.4byte	.LVL154
	.2byte	0x2
	.byte	0x30
	.byte	0x9f
	.4byte	0
	.4byte	0
.LVUS49:
	.uleb128 .LVU447
	.uleb128 .LVU453
	.uleb128 .LVU453
	.uleb128 .LVU455
	.uleb128 .LVU469
	.uleb128 .LVU493
.LLST49:
	.4byte	.LVL139
	.4byte	.LVL140
	.2byte	0x2
	.byte	0x30
	.byte	0x9f
	.4byte	.LVL140
	.4byte	.LVL141
	.2byte	0x1
	.byte	0x50
	.4byte	.LVL146
	.4byte	.LVL153
	.2byte	0x2
	.byte	0x30
	.byte	0x9f
	.4byte	0
	.4byte	0
.LVUS50:
	.uleb128 .LVU482
	.uleb128 .LVU489
	.uleb128 .LVU491
	.uleb128 .LVU493
.LLST50:
	.4byte	.LVL148
	.4byte	.LVL149
	.2byte	0x4
	.byte	0x91
	.sleb128 -80
	.byte	0x9f
	.4byte	.LVL151
	.4byte	.LVL153
	.2byte	0x4
	.byte	0x91
	.sleb128 -80
	.byte	0x9f
	.4byte	0
	.4byte	0
.LVUS51:
	.uleb128 .LVU482
	.uleb128 .LVU489
	.uleb128 .LVU491
	.uleb128 .LVU493
.LLST51:
	.4byte	.LVL148
	.4byte	.LVL149
	.2byte	0x1
	.byte	0x54
	.4byte	.LVL151
	.4byte	.LVL153
	.2byte	0x1
	.byte	0x54
	.4byte	0
	.4byte	0
.LVUS52:
	.uleb128 .LVU492
	.uleb128 .LVU493
.LLST52:
	.4byte	.LVL151
	.4byte	.LVL153
	.2byte	0x1
	.byte	0x54
	.4byte	0
	.4byte	0
.LVUS53:
	.uleb128 .LVU491
	.uleb128 .LVU493
.LLST53:
	.4byte	.LVL151
	.4byte	.LVL153
	.2byte	0x4
	.byte	0x91
	.sleb128 -80
	.byte	0x9f
	.4byte	0
	.4byte	0
.LVUS30:
	.uleb128 0
	.uleb128 .LVU312
	.uleb128 .LVU312
	.uleb128 .LVU318
	.uleb128 .LVU318
	.uleb128 0
.LLST30:
	.4byte	.LVL96
	.4byte	.LVL97
	.2byte	0x1
	.byte	0x50
	.4byte	.LVL97
	.4byte	.LVL99-1
	.2byte	0x1
	.byte	0x53
	.4byte	.LVL99-1
	.4byte	.LFE45
	.2byte	0x1
	.byte	0x55
	.4byte	0
	.4byte	0
.LVUS31:
	.uleb128 0
	.uleb128 .LVU315
	.uleb128 .LVU315
	.uleb128 .LVU347
	.uleb128 .LVU347
	.uleb128 .LVU349
	.uleb128 .LVU349
	.uleb128 0
.LLST31:
	.4byte	.LVL96
	.4byte	.LVL98
	.2byte	0x1
	.byte	0x51
	.4byte	.LVL98
	.4byte	.LVL106
	.2byte	0x2
	.byte	0x91
	.sleb128 -28
	.4byte	.LVL106
	.4byte	.LVL107
	.2byte	0x4
	.byte	0xf3
	.uleb128 0x1
	.byte	0x51
	.byte	0x9f
	.4byte	.LVL107
	.4byte	.LFE45
	.2byte	0x4
	.byte	0xa
	.2byte	0x2000
	.byte	0x9f
	.4byte	0
	.4byte	0
.LVUS32:
	.uleb128 .LVU322
	.uleb128 .LVU324
	.uleb128 .LVU324
	.uleb128 .LVU345
.LLST32:
	.4byte	.LVL102
	.4byte	.LVL103
	.2byte	0x1
	.byte	0x50
	.4byte	.LVL103
	.4byte	.LVL105
	.2byte	0x1
	.byte	0x54
	.4byte	0
	.4byte	0
.LVUS28:
	.uleb128 0
	.uleb128 .LVU300
	.uleb128 .LVU300
	.uleb128 .LVU303
	.uleb128 .LVU303
	.uleb128 .LVU305
	.uleb128 .LVU305
	.uleb128 0
.LLST28:
	.4byte	.LVL92
	.4byte	.LVL93-1
	.2byte	0x1
	.byte	0x50
	.4byte	.LVL93-1
	.4byte	.LVL94
	.2byte	0x4
	.byte	0xf3
	.uleb128 0x1
	.byte	0x50
	.byte	0x9f
	.4byte	.LVL94
	.4byte	.LVL95
	.2byte	0x1
	.byte	0x50
	.4byte	.LVL95
	.4byte	.LFE44
	.2byte	0x4
	.byte	0xf3
	.uleb128 0x1
	.byte	0x50
	.byte	0x9f
	.4byte	0
	.4byte	0
.LVUS29:
	.uleb128 .LVU292
	.uleb128 .LVU300
	.uleb128 .LVU300
	.uleb128 .LVU300
.LLST29:
	.4byte	.LVL92
	.4byte	.LVL93-1
	.2byte	0x1
	.byte	0x50
	.4byte	.LVL93-1
	.4byte	.LVL93
	.2byte	0x4
	.byte	0xf3
	.uleb128 0x1
	.byte	0x50
	.byte	0x9f
	.4byte	0
	.4byte	0
.LVUS147:
	.uleb128 0
	.uleb128 .LVU1374
	.uleb128 .LVU1374
	.uleb128 0
.LLST147:
	.4byte	.LVL414
	.4byte	.LVL416
	.2byte	0x1
	.byte	0x50
	.4byte	.LVL416
	.4byte	.LFE41
	.2byte	0x1
	.byte	0x55
	.4byte	0
	.4byte	0
.LVUS148:
	.uleb128 0
	.uleb128 .LVU1372
	.uleb128 .LVU1372
	.uleb128 .LVU1393
	.uleb128 .LVU1393
	.uleb128 .LVU1394
	.uleb128 .LVU1394
	.uleb128 .LVU1420
	.uleb128 .LVU1420
	.uleb128 .LVU1543
	.uleb128 .LVU1543
	.uleb128 .LVU1550
	.uleb128 .LVU1550
	.uleb128 .LVU1619
	.uleb128 .LVU1619
	.uleb128 .LVU1624
	.uleb128 .LVU1624
	.uleb128 .LVU1686
	.uleb128 .LVU1686
	.uleb128 .LVU1690
	.uleb128 .LVU1690
	.uleb128 .LVU1697
	.uleb128 .LVU1697
	.uleb128 .LVU1704
	.uleb128 .LVU1704
	.uleb128 0
.LLST148:
	.4byte	.LVL414
	.4byte	.LVL415
	.2byte	0x1
	.byte	0x51
	.4byte	.LVL415
	.4byte	.LVL419
	.2byte	0x1
	.byte	0x56
	.4byte	.LVL419
	.4byte	.LVL420
	.2byte	0x4
	.byte	0xf3
	.uleb128 0x1
	.byte	0x51
	.byte	0x9f
	.4byte	.LVL420
	.4byte	.LVL423
	.2byte	0x1
	.byte	0x56
	.4byte	.LVL423
	.4byte	.LVL454
	.2byte	0x4
	.byte	0xf3
	.uleb128 0x1
	.byte	0x51
	.byte	0x9f
	.4byte	.LVL454
	.4byte	.LVL456
	.2byte	0x1
	.byte	0x56
	.4byte	.LVL456
	.4byte	.LVL482
	.2byte	0x4
	.byte	0xf3
	.uleb128 0x1
	.byte	0x51
	.byte	0x9f
	.4byte	.LVL482
	.4byte	.LVL483
	.2byte	0x1
	.byte	0x56
	.4byte	.LVL483
	.4byte	.LVL499
	.2byte	0x4
	.byte	0xf3
	.uleb128 0x1
	.byte	0x51
	.byte	0x9f
	.4byte	.LVL499
	.4byte	.LVL501
	.2byte	0x1
	.byte	0x56
	.4byte	.LVL501
	.4byte	.LVL505
	.2byte	0x4
	.byte	0xf3
	.uleb128 0x1
	.byte	0x51
	.byte	0x9f
	.4byte	.LVL505
	.4byte	.LVL506
	.2byte	0x1
	.byte	0x56
	.4byte	.LVL506
	.4byte	.LFE41
	.2byte	0x4
	.byte	0xf3
	.uleb128 0x1
	.byte	0x51
	.byte	0x9f
	.4byte	0
	.4byte	0
.LVUS149:
	.uleb128 0
	.uleb128 .LVU1377
	.uleb128 .LVU1377
	.uleb128 .LVU1434
	.uleb128 .LVU1434
	.uleb128 .LVU1437
	.uleb128 .LVU1437
	.uleb128 0
.LLST149:
	.4byte	.LVL414
	.4byte	.LVL417-1
	.2byte	0x1
	.byte	0x52
	.4byte	.LVL417-1
	.4byte	.LVL425
	.2byte	0x1
	.byte	0x57
	.4byte	.LVL425
	.4byte	.LVL427-1
	.2byte	0x1
	.byte	0x50
	.4byte	.LVL427-1
	.4byte	.LFE41
	.2byte	0x1
	.byte	0x57
	.4byte	0
	.4byte	0
.LVUS150:
	.uleb128 0
	.uleb128 .LVU1377
	.uleb128 .LVU1377
	.uleb128 .LVU1393
	.uleb128 .LVU1393
	.uleb128 .LVU1394
	.uleb128 .LVU1394
	.uleb128 .LVU1428
	.uleb128 .LVU1428
	.uleb128 .LVU1543
	.uleb128 .LVU1543
	.uleb128 .LVU1552
	.uleb128 .LVU1552
	.uleb128 .LVU1619
	.uleb128 .LVU1619
	.uleb128 .LVU1625
	.uleb128 .LVU1625
	.uleb128 .LVU1663
	.uleb128 .LVU1663
	.uleb128 .LVU1673
	.uleb128 .LVU1673
	.uleb128 .LVU1686
	.uleb128 .LVU1686
	.uleb128 .LVU1690
	.uleb128 .LVU1690
	.uleb128 .LVU1697
	.uleb128 .LVU1697
	.uleb128 .LVU1762
	.uleb128 .LVU1762
	.uleb128 .LVU1772
	.uleb128 .LVU1772
	.uleb128 0
.LLST150:
	.4byte	.LVL414
	.4byte	.LVL417-1
	.2byte	0x1
	.byte	0x53
	.4byte	.LVL417-1
	.4byte	.LVL419
	.2byte	0x1
	.byte	0x5a
	.4byte	.LVL419
	.4byte	.LVL420
	.2byte	0x4
	.byte	0xf3
	.uleb128 0x1
	.byte	0x53
	.byte	0x9f
	.4byte	.LVL420
	.4byte	.LVL424
	.2byte	0x1
	.byte	0x5a
	.4byte	.LVL424
	.4byte	.LVL454
	.2byte	0x4
	.byte	0xf3
	.uleb128 0x1
	.byte	0x53
	.byte	0x9f
	.4byte	.LVL454
	.4byte	.LVL457
	.2byte	0x1
	.byte	0x5a
	.4byte	.LVL457
	.4byte	.LVL482
	.2byte	0x4
	.byte	0xf3
	.uleb128 0x1
	.byte	0x53
	.byte	0x9f
	.4byte	.LVL482
	.4byte	.LVL485
	.2byte	0x1
	.byte	0x5a
	.4byte	.LVL485
	.4byte	.LVL493
	.2byte	0x4
	.byte	0xf3
	.uleb128 0x1
	.byte	0x53
	.byte	0x9f
	.4byte	.LVL493
	.4byte	.LVL496
	.2byte	0x1
	.byte	0x5a
	.4byte	.LVL496
	.4byte	.LVL499
	.2byte	0x4
	.byte	0xf3
	.uleb128 0x1
	.byte	0x53
	.byte	0x9f
	.4byte	.LVL499
	.4byte	.LVL501
	.2byte	0x1
	.byte	0x5a
	.4byte	.LVL501
	.4byte	.LVL505
	.2byte	0x4
	.byte	0xf3
	.uleb128 0x1
	.byte	0x53
	.byte	0x9f
	.4byte	.LVL505
	.4byte	.LVL538
	.2byte	0x1
	.byte	0x5a
	.4byte	.LVL538
	.4byte	.LVL543
	.2byte	0x4
	.byte	0xf3
	.uleb128 0x1
	.byte	0x53
	.byte	0x9f
	.4byte	.LVL543
	.4byte	.LFE41
	.2byte	0x1
	.byte	0x5a
	.4byte	0
	.4byte	0
.LVUS151:
	.uleb128 .LVU1378
	.uleb128 0
.LLST151:
	.4byte	.LVL417
	.4byte	.LFE41
	.2byte	0x1
	.byte	0x55
	.4byte	0
	.4byte	0
.LVUS152:
	.uleb128 .LVU1379
	.uleb128 .LVU1393
	.uleb128 .LVU1394
	.uleb128 .LVU1428
	.uleb128 .LVU1543
	.uleb128 .LVU1552
	.uleb128 .LVU1601
	.uleb128 .LVU1605
	.uleb128 .LVU1605
	.uleb128 .LVU1625
	.uleb128 .LVU1663
	.uleb128 .LVU1673
	.uleb128 .LVU1686
	.uleb128 .LVU1690
	.uleb128 .LVU1697
	.uleb128 .LVU1762
	.uleb128 .LVU1768
	.uleb128 0
.LLST152:
	.4byte	.LVL417
	.4byte	.LVL419
	.2byte	0x1
	.byte	0x5a
	.4byte	.LVL420
	.4byte	.LVL424
	.2byte	0x1
	.byte	0x5a
	.4byte	.LVL454
	.4byte	.LVL457
	.2byte	0x1
	.byte	0x5a
	.4byte	.LVL476
	.4byte	.LVL478
	.2byte	0x6
	.byte	0x7a
	.sleb128 0
	.byte	0x74
	.sleb128 0
	.byte	0x22
	.byte	0x9f
	.4byte	.LVL478
	.4byte	.LVL485
	.2byte	0x1
	.byte	0x5a
	.4byte	.LVL493
	.4byte	.LVL496
	.2byte	0x1
	.byte	0x5a
	.4byte	.LVL499
	.4byte	.LVL501
	.2byte	0x1
	.byte	0x5a
	.4byte	.LVL505
	.4byte	.LVL538
	.2byte	0x1
	.byte	0x5a
	.4byte	.LVL541
	.4byte	.LFE41
	.2byte	0x1
	.byte	0x5a
	.4byte	0
	.4byte	0
.LVUS153:
	.uleb128 .LVU1381
	.uleb128 .LVU1393
	.uleb128 .LVU1394
	.uleb128 .LVU1428
	.uleb128 .LVU1439
	.uleb128 .LVU1447
	.uleb128 .LVU1447
	.uleb128 .LVU1448
	.uleb128 .LVU1477
	.uleb128 .LVU1479
	.uleb128 .LVU1543
	.uleb128 .LVU1552
	.uleb128 .LVU1619
	.uleb128 .LVU1624
	.uleb128 .LVU1663
	.uleb128 .LVU1672
	.uleb128 .LVU1686
	.uleb128 .LVU1690
	.uleb128 .LVU1697
	.uleb128 .LVU1714
	.uleb128 .LVU1725
	.uleb128 .LVU1735
	.uleb128 .LVU1757
	.uleb128 .LVU1759
	.uleb128 .LVU1772
	.uleb128 .LVU1774
.LLST153:
	.4byte	.LVL418
	.4byte	.LVL419
	.2byte	0x1
	.byte	0x54
	.4byte	.LVL420
	.4byte	.LVL424
	.2byte	0x1
	.byte	0x54
	.4byte	.LVL427
	.4byte	.LVL428
	.2byte	0x6
	.byte	0x74
	.sleb128 0
	.byte	0x70
	.sleb128 0
	.byte	0x1c
	.byte	0x9f
	.4byte	.LVL428
	.4byte	.LVL429
	.2byte	0x6
	.byte	0x74
	.sleb128 0
	.byte	0x73
	.sleb128 0
	.byte	0x22
	.byte	0x9f
	.4byte	.LVL434
	.4byte	.LVL435
	.2byte	0x6
	.byte	0x74
	.sleb128 0
	.byte	0x70
	.sleb128 0
	.byte	0x1c
	.byte	0x9f
	.4byte	.LVL454
	.4byte	.LVL457
	.2byte	0x1
	.byte	0x54
	.4byte	.LVL482
	.4byte	.LVL483
	.2byte	0x1
	.byte	0x54
	.4byte	.LVL493
	.4byte	.LVL495
	.2byte	0x1
	.byte	0x54
	.4byte	.LVL499
	.4byte	.LVL501
	.2byte	0x1
	.byte	0x54
	.4byte	.LVL505
	.4byte	.LVL509
	.2byte	0x1
	.byte	0x54
	.4byte	.LVL514
	.4byte	.LVL519
	.2byte	0x1
	.byte	0x54
	.4byte	.LVL532
	.4byte	.LVL534
	.2byte	0x1
	.byte	0x54
	.4byte	.LVL543
	.4byte	.LVL544
	.2byte	0x1
	.byte	0x54
	.4byte	0
	.4byte	0
.LVUS154:
	.uleb128 .LVU1438
	.uleb128 .LVU1447
	.uleb128 .LVU1467
	.uleb128 .LVU1477
	.uleb128 .LVU1477
	.uleb128 .LVU1485
	.uleb128 .LVU1489
	.uleb128 .LVU1496
	.uleb128 .LVU1496
	.uleb128 .LVU1497
	.uleb128 .LVU1505
	.uleb128 .LVU1507
	.uleb128 .LVU1507
	.uleb128 .LVU1509
	.uleb128 .LVU1509
	.uleb128 .LVU1510
	.uleb128 .LVU1514
	.uleb128 .LVU1517
	.uleb128 .LVU1531
	.uleb128 .LVU1533
	.uleb128 .LVU1533
	.uleb128 .LVU1535
	.uleb128 .LVU1537
	.uleb128 .LVU1541
	.uleb128 .LVU1554
	.uleb128 .LVU1558
	.uleb128 .LVU1558
	.uleb128 .LVU1570
	.uleb128 .LVU1625
	.uleb128 .LVU1627
	.uleb128 .LVU1659
	.uleb128 .LVU1661
	.uleb128 .LVU1661
	.uleb128 .LVU1663
	.uleb128 .LVU1681
	.uleb128 .LVU1682
	.uleb128 .LVU1690
	.uleb128 .LVU1691
	.uleb128 .LVU1695
	.uleb128 .LVU1697
	.uleb128 .LVU1762
	.uleb128 .LVU1764
	.uleb128 .LVU1764
	.uleb128 .LVU1766
.LLST154:
	.4byte	.LVL427
	.4byte	.LVL428
	.2byte	0x1
	.byte	0x50
	.4byte	.LVL433
	.4byte	.LVL434
	.2byte	0x1
	.byte	0x53
	.4byte	.LVL434
	.4byte	.LVL438
	.2byte	0x1
	.byte	0x50
	.4byte	.LVL439
	.4byte	.LVL440
	.2byte	0x1
	.byte	0x53
	.4byte	.LVL440
	.4byte	.LVL441
	.2byte	0x4
	.byte	0x73
	.sleb128 192
	.byte	0x9f
	.4byte	.LVL442
	.4byte	.LVL443
	.2byte	0xb
	.byte	0x70
	.sleb128 0
	.byte	0x72
	.sleb128 0
	.byte	0x22
	.byte	0x94
	.byte	0x1
	.byte	0x8
	.byte	0xff
	.byte	0x1a
	.byte	0x9f
	.4byte	.LVL443
	.4byte	.LVL444
	.2byte	0x1
	.byte	0x52
	.4byte	.LVL444
	.4byte	.LVL445
	.2byte	0xd
	.byte	0x70
	.sleb128 0
	.byte	0x71
	.sleb128 0
	.byte	0x22
	.byte	0x31
	.byte	0x1c
	.byte	0x94
	.byte	0x1
	.byte	0x8
	.byte	0xff
	.byte	0x1a
	.byte	0x9f
	.4byte	.LVL446
	.4byte	.LVL447
	.2byte	0x1
	.byte	0x50
	.4byte	.LVL449
	.4byte	.LVL450
	.2byte	0x1
	.byte	0x50
	.4byte	.LVL450
	.4byte	.LVL451-1
	.2byte	0x1
	.byte	0x53
	.4byte	.LVL452
	.4byte	.LVL453
	.2byte	0x1
	.byte	0x53
	.4byte	.LVL457
	.4byte	.LVL458
	.2byte	0x2
	.byte	0x3a
	.byte	0x9f
	.4byte	.LVL458
	.4byte	.LVL461
	.2byte	0x1
	.byte	0x52
	.4byte	.LVL485
	.4byte	.LVL486
	.2byte	0x1
	.byte	0x53
	.4byte	.LVL491
	.4byte	.LVL492
	.2byte	0x1
	.byte	0x50
	.4byte	.LVL492
	.4byte	.LVL493
	.2byte	0x1
	.byte	0x52
	.4byte	.LVL497
	.4byte	.LVL498
	.2byte	0x1
	.byte	0x52
	.4byte	.LVL501
	.4byte	.LVL502
	.2byte	0x1
	.byte	0x50
	.4byte	.LVL504
	.4byte	.LVL505
	.2byte	0x2
	.byte	0x3a
	.byte	0x9f
	.4byte	.LVL538
	.4byte	.LVL539
	.2byte	0x1
	.byte	0x50
	.4byte	.LVL539
	.4byte	.LVL540-1
	.2byte	0x1
	.byte	0x52
	.4byte	0
	.4byte	0
.LVUS155:
	.uleb128 .LVU1435
	.uleb128 .LVU1454
	.uleb128 .LVU1477
	.uleb128 .LVU1485
.LLST155:
	.4byte	.LVL426
	.4byte	.LVL430
	.2byte	0x1
	.byte	0x5b
	.4byte	.LVL434
	.4byte	.LVL438
	.2byte	0x1
	.byte	0x5b
	.4byte	0
	.4byte	0
.LVUS156:
	.uleb128 .LVU1382
	.uleb128 .LVU1393
	.uleb128 .LVU1394
	.uleb128 .LVU1453
	.uleb128 .LVU1453
	.uleb128 .LVU1454
	.uleb128 .LVU1454
	.uleb128 .LVU1457
	.uleb128 .LVU1477
	.uleb128 .LVU1485
	.uleb128 .LVU1536
	.uleb128 .LVU1537
	.uleb128 .LVU1543
	.uleb128 .LVU1581
	.uleb128 .LVU1581
	.uleb128 .LVU1584
	.uleb128 .LVU1584
	.uleb128 .LVU1587
	.uleb128 .LVU1587
	.uleb128 .LVU1595
	.uleb128 .LVU1595
	.uleb128 .LVU1608
	.uleb128 .LVU1619
	.uleb128 .LVU1624
	.uleb128 .LVU1624
	.uleb128 .LVU1625
	.uleb128 .LVU1663
	.uleb128 .LVU1673
	.uleb128 .LVU1686
	.uleb128 .LVU1690
	.uleb128 .LVU1694
	.uleb128 .LVU1695
	.uleb128 .LVU1695
	.uleb128 .LVU1713
	.uleb128 .LVU1713
	.uleb128 .LVU1715
	.uleb128 .LVU1715
	.uleb128 .LVU1719
	.uleb128 .LVU1720
	.uleb128 .LVU1725
	.uleb128 .LVU1725
	.uleb128 .LVU1734
	.uleb128 .LVU1734
	.uleb128 .LVU1738
	.uleb128 .LVU1738
	.uleb128 .LVU1739
	.uleb128 .LVU1739
	.uleb128 .LVU1742
	.uleb128 .LVU1742
	.uleb128 .LVU1743
	.uleb128 .LVU1743
	.uleb128 .LVU1746
	.uleb128 .LVU1746
	.uleb128 .LVU1747
	.uleb128 .LVU1747
	.uleb128 .LVU1750
	.uleb128 .LVU1750
	.uleb128 .LVU1756
	.uleb128 .LVU1756
	.uleb128 .LVU1757
	.uleb128 .LVU1757
	.uleb128 .LVU1760
	.uleb128 .LVU1760
	.uleb128 .LVU1761
	.uleb128 .LVU1761
	.uleb128 .LVU1762
	.uleb128 .LVU1767
	.uleb128 .LVU1768
	.uleb128 .LVU1772
	.uleb128 .LVU1774
	.uleb128 .LVU1774
	.uleb128 .LVU1777
	.uleb128 .LVU1777
	.uleb128 .LVU1778
	.uleb128 .LVU1778
	.uleb128 0
.LLST156:
	.4byte	.LVL418
	.4byte	.LVL419
	.2byte	0x2
	.byte	0x30
	.byte	0x9f
	.4byte	.LVL420
	.4byte	.LVL430
	.2byte	0x2
	.byte	0x30
	.byte	0x9f
	.4byte	.LVL430
	.4byte	.LVL430
	.2byte	0x3
	.byte	0x8
	.byte	0x59
	.byte	0x9f
	.4byte	.LVL430
	.4byte	.LVL431
	.2byte	0x1
	.byte	0x59
	.4byte	.LVL434
	.4byte	.LVL438
	.2byte	0x2
	.byte	0x30
	.byte	0x9f
	.4byte	.LVL451
	.4byte	.LVL452
	.2byte	0x3
	.byte	0x8
	.byte	0x59
	.byte	0x9f
	.4byte	.LVL454
	.4byte	.LVL466
	.2byte	0x2
	.byte	0x30
	.byte	0x9f
	.4byte	.LVL466
	.4byte	.LVL468
	.2byte	0x1
	.byte	0x59
	.4byte	.LVL468
	.4byte	.LVL469
	.2byte	0x3
	.byte	0x9
	.byte	0xff
	.byte	0x9f
	.4byte	.LVL469
	.4byte	.LVL474
	.2byte	0x2
	.byte	0x30
	.byte	0x9f
	.4byte	.LVL474
	.4byte	.LVL479
	.2byte	0x1
	.byte	0x59
	.4byte	.LVL482
	.4byte	.LVL483
	.2byte	0x2
	.byte	0x30
	.byte	0x9f
	.4byte	.LVL483
	.4byte	.LVL485
	.2byte	0x1
	.byte	0x59
	.4byte	.LVL493
	.4byte	.LVL496
	.2byte	0x2
	.byte	0x30
	.byte	0x9f
	.4byte	.LVL499
	.4byte	.LVL501
	.2byte	0x2
	.byte	0x30
	.byte	0x9f
	.4byte	.LVL503
	.4byte	.LVL504
	.2byte	0x3
	.byte	0x8
	.byte	0x59
	.byte	0x9f
	.4byte	.LVL504
	.4byte	.LVL508
	.2byte	0x2
	.byte	0x30
	.byte	0x9f
	.4byte	.LVL508
	.4byte	.LVL510
	.2byte	0x1
	.byte	0x50
	.4byte	.LVL510
	.4byte	.LVL511
	.2byte	0x1
	.byte	0x54
	.4byte	.LVL512
	.4byte	.LVL514
	.2byte	0x1
	.byte	0x59
	.4byte	.LVL514
	.4byte	.LVL518
	.2byte	0x2
	.byte	0x30
	.byte	0x9f
	.4byte	.LVL518
	.4byte	.LVL520
	.2byte	0x1
	.byte	0x50
	.4byte	.LVL520
	.4byte	.LVL521
	.2byte	0x1
	.byte	0x54
	.4byte	.LVL521
	.4byte	.LVL522
	.2byte	0x1
	.byte	0x50
	.4byte	.LVL522
	.4byte	.LVL523
	.2byte	0x1
	.byte	0x54
	.4byte	.LVL523
	.4byte	.LVL524
	.2byte	0x1
	.byte	0x50
	.4byte	.LVL524
	.4byte	.LVL525
	.2byte	0x1
	.byte	0x54
	.4byte	.LVL525
	.4byte	.LVL526
	.2byte	0x1
	.byte	0x50
	.4byte	.LVL526
	.4byte	.LVL531
	.2byte	0x1
	.byte	0x54
	.4byte	.LVL531
	.4byte	.LVL532
	.2byte	0x1
	.byte	0x50
	.4byte	.LVL532
	.4byte	.LVL535
	.2byte	0x2
	.byte	0x30
	.byte	0x9f
	.4byte	.LVL535
	.4byte	.LVL536
	.2byte	0x1
	.byte	0x50
	.4byte	.LVL536
	.4byte	.LVL538
	.2byte	0x1
	.byte	0x54
	.4byte	.LVL540
	.4byte	.LVL541
	.2byte	0x3
	.byte	0x8
	.byte	0x59
	.byte	0x9f
	.4byte	.LVL543
	.4byte	.LVL544
	.2byte	0x2
	.byte	0x30
	.byte	0x9f
	.4byte	.LVL544
	.4byte	.LVL545
	.2byte	0x1
	.byte	0x50
	.4byte	.LVL545
	.4byte	.LVL547
	.2byte	0x1
	.byte	0x54
	.4byte	.LVL547
	.4byte	.LFE41
	.2byte	0x1
	.byte	0x50
	.4byte	0
	.4byte	0
.LVUS157:
	.uleb128 .LVU1416
	.uleb128 .LVU1428
	.uleb128 .LVU1601
	.uleb128 .LVU1605
	.uleb128 .LVU1605
	.uleb128 .LVU1608
	.uleb128 .LVU1772
	.uleb128 .LVU1774
.LLST157:
	.4byte	.LVL421
	.4byte	.LVL424
	.2byte	0x1
	.byte	0x5a
	.4byte	.LVL476
	.4byte	.LVL478
	.2byte	0x6
	.byte	0x7a
	.sleb128 0
	.byte	0x74
	.sleb128 0
	.byte	0x22
	.byte	0x9f
	.4byte	.LVL478
	.4byte	.LVL479
	.2byte	0x1
	.byte	0x5a
	.4byte	.LVL543
	.4byte	.LVL544
	.2byte	0x1
	.byte	0x5a
	.4byte	0
	.4byte	0
.LVUS158:
	.uleb128 .LVU1415
	.uleb128 .LVU1428
	.uleb128 .LVU1428
	.uleb128 .LVU1454
	.uleb128 .LVU1477
	.uleb128 .LVU1481
	.uleb128 .LVU1484
	.uleb128 .LVU1485
	.uleb128 .LVU1772
	.uleb128 .LVU1774
.LLST158:
	.4byte	.LVL421
	.4byte	.LVL424
	.2byte	0x2
	.byte	0x30
	.byte	0x9f
	.4byte	.LVL424
	.4byte	.LVL430
	.2byte	0x1
	.byte	0x56
	.4byte	.LVL434
	.4byte	.LVL436
	.2byte	0x1
	.byte	0x56
	.4byte	.LVL437
	.4byte	.LVL438
	.2byte	0x1
	.byte	0x56
	.4byte	.LVL543
	.4byte	.LVL544
	.2byte	0x2
	.byte	0x30
	.byte	0x9f
	.4byte	0
	.4byte	0
.LVUS159:
	.uleb128 .LVU1554
	.uleb128 .LVU1558
	.uleb128 .LVU1558
	.uleb128 .LVU1570
	.uleb128 .LVU1695
	.uleb128 .LVU1697
.LLST159:
	.4byte	.LVL457
	.4byte	.LVL458
	.2byte	0x4
	.byte	0xa
	.2byte	0x400
	.byte	0x9f
	.4byte	.LVL458
	.4byte	.LVL461
	.2byte	0x1
	.byte	0x53
	.4byte	.LVL504
	.4byte	.LVL505
	.2byte	0x4
	.byte	0xa
	.2byte	0x400
	.byte	0x9f
	.4byte	0
	.4byte	0
.LVUS160:
	.uleb128 .LVU1577
	.uleb128 .LVU1579
	.uleb128 .LVU1579
	.uleb128 .LVU1580
	.uleb128 .LVU1580
	.uleb128 .LVU1587
	.uleb128 .LVU1587
	.uleb128 .LVU1593
	.uleb128 .LVU1598
	.uleb128 .LVU1619
	.uleb128 .LVU1768
	.uleb128 .LVU1772
.LLST160:
	.4byte	.LVL464
	.4byte	.LVL465
	.2byte	0x1
	.byte	0x59
	.4byte	.LVL465
	.4byte	.LVL466
	.2byte	0x1
	.byte	0x56
	.4byte	.LVL466
	.4byte	.LVL469
	.2byte	0x1
	.byte	0x54
	.4byte	.LVL469
	.4byte	.LVL473
	.2byte	0x1
	.byte	0x59
	.4byte	.LVL475
	.4byte	.LVL482
	.2byte	0x1
	.byte	0x54
	.4byte	.LVL541
	.4byte	.LVL543
	.2byte	0x1
	.byte	0x54
	.4byte	0
	.4byte	0
.LVUS161:
	.uleb128 .LVU1550
	.uleb128 .LVU1584
	.uleb128 .LVU1587
	.uleb128 .LVU1589
	.uleb128 .LVU1597
	.uleb128 .LVU1603
	.uleb128 .LVU1606
	.uleb128 .LVU1608
	.uleb128 .LVU1663
	.uleb128 .LVU1673
	.uleb128 .LVU1695
	.uleb128 .LVU1697
	.uleb128 .LVU1725
	.uleb128 .LVU1730
.LLST161:
	.4byte	.LVL456
	.4byte	.LVL468
	.2byte	0x1
	.byte	0x56
	.4byte	.LVL469
	.4byte	.LVL470
	.2byte	0x1
	.byte	0x56
	.4byte	.LVL474
	.4byte	.LVL477
	.2byte	0x1
	.byte	0x56
	.4byte	.LVL478
	.4byte	.LVL479
	.2byte	0x1
	.byte	0x56
	.4byte	.LVL493
	.4byte	.LVL496
	.2byte	0x1
	.byte	0x56
	.4byte	.LVL504
	.4byte	.LVL505
	.2byte	0x1
	.byte	0x56
	.4byte	.LVL514
	.4byte	.LVL516
	.2byte	0x1
	.byte	0x56
	.4byte	0
	.4byte	0
.LVUS162:
	.uleb128 .LVU1704
	.uleb128 .LVU1725
	.uleb128 .LVU1730
	.uleb128 .LVU1762
	.uleb128 .LVU1774
	.uleb128 0
.LLST162:
	.4byte	.LVL506
	.4byte	.LVL514
	.2byte	0x1
	.byte	0x56
	.4byte	.LVL516
	.4byte	.LVL538
	.2byte	0x1
	.byte	0x56
	.4byte	.LVL544
	.4byte	.LFE41
	.2byte	0x1
	.byte	0x56
	.4byte	0
	.4byte	0
.LVUS21:
	.uleb128 0
	.uleb128 .LVU254
	.uleb128 .LVU254
	.uleb128 .LVU280
	.uleb128 .LVU280
	.uleb128 .LVU281
	.uleb128 .LVU281
	.uleb128 .LVU281
	.uleb128 .LVU281
	.uleb128 0
.LLST21:
	.4byte	.LVL78
	.4byte	.LVL79
	.2byte	0x1
	.byte	0x50
	.4byte	.LVL79
	.4byte	.LVL87
	.2byte	0x1
	.byte	0x54
	.4byte	.LVL87
	.4byte	.LVL88-1
	.2byte	0x1
	.byte	0x50
	.4byte	.LVL88-1
	.4byte	.LVL88
	.2byte	0x4
	.byte	0xf3
	.uleb128 0x1
	.byte	0x50
	.byte	0x9f
	.4byte	.LVL88
	.4byte	.LFE40
	.2byte	0x1
	.byte	0x54
	.4byte	0
	.4byte	0
.LVUS22:
	.uleb128 0
	.uleb128 .LVU256
	.uleb128 .LVU256
	.uleb128 .LVU280
	.uleb128 .LVU280
	.uleb128 .LVU281
	.uleb128 .LVU281
	.uleb128 0
.LLST22:
	.4byte	.LVL78
	.4byte	.LVL80
	.2byte	0x1
	.byte	0x51
	.4byte	.LVL80
	.4byte	.LVL87
	.2byte	0x1
	.byte	0x55
	.4byte	.LVL87
	.4byte	.LVL88
	.2byte	0x4
	.byte	0xf3
	.uleb128 0x1
	.byte	0x51
	.byte	0x9f
	.4byte	.LVL88
	.4byte	.LFE40
	.2byte	0x1
	.byte	0x55
	.4byte	0
	.4byte	0
.LVUS23:
	.uleb128 .LVU259
	.uleb128 .LVU281
	.uleb128 .LVU283
	.uleb128 0
.LLST23:
	.4byte	.LVL81
	.4byte	.LVL88
	.2byte	0x2
	.byte	0x30
	.byte	0x9f
	.4byte	.LVL89
	.4byte	.LFE40
	.2byte	0x2
	.byte	0x30
	.byte	0x9f
	.4byte	0
	.4byte	0
.LVUS24:
	.uleb128 .LVU258
	.uleb128 .LVU280
	.uleb128 .LVU280
	.uleb128 .LVU281
	.uleb128 .LVU283
	.uleb128 0
.LLST24:
	.4byte	.LVL81
	.4byte	.LVL87
	.2byte	0x1
	.byte	0x55
	.4byte	.LVL87
	.4byte	.LVL88
	.2byte	0x4
	.byte	0xf3
	.uleb128 0x1
	.byte	0x51
	.byte	0x9f
	.4byte	.LVL89
	.4byte	.LFE40
	.2byte	0x1
	.byte	0x55
	.4byte	0
	.4byte	0
.LVUS25:
	.uleb128 .LVU258
	.uleb128 .LVU280
	.uleb128 .LVU280
	.uleb128 .LVU281
	.uleb128 .LVU281
	.uleb128 .LVU281
	.uleb128 .LVU283
	.uleb128 0
.LLST25:
	.4byte	.LVL81
	.4byte	.LVL87
	.2byte	0x1
	.byte	0x54
	.4byte	.LVL87
	.4byte	.LVL88-1
	.2byte	0x1
	.byte	0x50
	.4byte	.LVL88-1
	.4byte	.LVL88
	.2byte	0x4
	.byte	0xf3
	.uleb128 0x1
	.byte	0x50
	.byte	0x9f
	.4byte	.LVL89
	.4byte	.LFE40
	.2byte	0x1
	.byte	0x54
	.4byte	0
	.4byte	0
.LVUS26:
	.uleb128 .LVU271
	.uleb128 .LVU280
	.uleb128 .LVU280
	.uleb128 .LVU281
.LLST26:
	.4byte	.LVL84
	.4byte	.LVL87
	.2byte	0x1
	.byte	0x56
	.4byte	.LVL87
	.4byte	.LVL88-1
	.2byte	0x1
	.byte	0x51
	.4byte	0
	.4byte	0
.LVUS27:
	.uleb128 .LVU261
	.uleb128 .LVU263
	.uleb128 .LVU263
	.uleb128 .LVU281
	.uleb128 .LVU283
	.uleb128 0
.LLST27:
	.4byte	.LVL81
	.4byte	.LVL81
	.2byte	0x4
	.byte	0xa
	.2byte	0x180
	.byte	0x9f
	.4byte	.LVL81
	.4byte	.LVL88
	.2byte	0x4
	.byte	0xa
	.2byte	0x1b6
	.byte	0x9f
	.4byte	.LVL89
	.4byte	.LFE40
	.2byte	0x4
	.byte	0xa
	.2byte	0x1b6
	.byte	0x9f
	.4byte	0
	.4byte	0
.LVUS2:
	.uleb128 0
	.uleb128 .LVU30
	.uleb128 .LVU30
	.uleb128 0
.LLST2:
	.4byte	.LVL9
	.4byte	.LVL10-1
	.2byte	0x1
	.byte	0x50
	.4byte	.LVL10-1
	.4byte	.LFE37
	.2byte	0x1
	.byte	0x55
	.4byte	0
	.4byte	0
.LVUS3:
	.uleb128 .LVU36
	.uleb128 .LVU39
	.uleb128 .LVU41
	.uleb128 0
.LLST3:
	.4byte	.LVL11
	.4byte	.LVL12
	.2byte	0x2
	.byte	0x30
	.byte	0x9f
	.4byte	.LVL13
	.4byte	.LFE37
	.2byte	0x2
	.byte	0x30
	.byte	0x9f
	.4byte	0
	.4byte	0
.LVUS0:
	.uleb128 0
	.uleb128 .LVU6
	.uleb128 .LVU6
	.uleb128 .LVU11
	.uleb128 .LVU11
	.uleb128 .LVU12
	.uleb128 .LVU14
	.uleb128 .LVU15
	.uleb128 .LVU15
	.uleb128 .LVU17
	.uleb128 .LVU19
	.uleb128 .LVU22
.LLST0:
	.4byte	.LVL0
	.4byte	.LVL1
	.2byte	0x1
	.byte	0x50
	.4byte	.LVL1
	.4byte	.LVL2
	.2byte	0x3
	.byte	0x70
	.sleb128 1
	.byte	0x9f
	.4byte	.LVL2
	.4byte	.LVL3
	.2byte	0x1
	.byte	0x50
	.4byte	.LVL4
	.4byte	.LVL5
	.2byte	0x1
	.byte	0x50
	.4byte	.LVL5
	.4byte	.LVL6
	.2byte	0x3
	.byte	0x70
	.sleb128 1
	.byte	0x9f
	.4byte	.LVL7
	.4byte	.LVL8
	.2byte	0x1
	.byte	0x50
	.4byte	0
	.4byte	0
.LVUS1:
	.uleb128 0
	.uleb128 .LVU14
	.uleb128 .LVU14
	.uleb128 .LVU15
	.uleb128 .LVU15
	.uleb128 0
.LLST1:
	.4byte	.LVL0
	.4byte	.LVL4
	.2byte	0x1
	.byte	0x51
	.4byte	.LVL4
	.4byte	.LVL5
	.2byte	0x1
	.byte	0x5c
	.4byte	.LVL5
	.4byte	.LFE36
	.2byte	0x1
	.byte	0x51
	.4byte	0
	.4byte	0
.LVUS16:
	.uleb128 0
	.uleb128 .LVU218
	.uleb128 .LVU218
	.uleb128 .LVU245
.LLST16:
	.4byte	.LVL68
	.4byte	.LVL69
	.2byte	0x1
	.byte	0x50
	.4byte	.LVL69
	.4byte	.LVL77
	.2byte	0x1
	.byte	0x54
	.4byte	0
	.4byte	0
.LVUS17:
	.uleb128 .LVU218
	.uleb128 .LVU220
	.uleb128 .LVU234
	.uleb128 .LVU243
.LLST17:
	.4byte	.LVL69
	.4byte	.LVL70
	.2byte	0x4
	.byte	0x91
	.sleb128 -80
	.byte	0x9f
	.4byte	.LVL73
	.4byte	.LVL76
	.2byte	0x4
	.byte	0x91
	.sleb128 -80
	.byte	0x9f
	.4byte	0
	.4byte	0
.LVUS18:
	.uleb128 .LVU218
	.uleb128 .LVU220
	.uleb128 .LVU234
	.uleb128 .LVU243
.LLST18:
	.4byte	.LVL69
	.4byte	.LVL70
	.2byte	0x1
	.byte	0x54
	.4byte	.LVL73
	.4byte	.LVL76
	.2byte	0x1
	.byte	0x54
	.4byte	0
	.4byte	0
.LVUS19:
	.uleb128 .LVU242
	.uleb128 .LVU243
.LLST19:
	.4byte	.LVL74
	.4byte	.LVL76
	.2byte	0x1
	.byte	0x54
	.4byte	0
	.4byte	0
.LVUS20:
	.uleb128 .LVU241
	.uleb128 .LVU243
.LLST20:
	.4byte	.LVL74
	.4byte	.LVL76
	.2byte	0x4
	.byte	0x91
	.sleb128 -80
	.byte	0x9f
	.4byte	0
	.4byte	0
.LVUS33:
	.uleb128 0
	.uleb128 .LVU354
	.uleb128 .LVU354
	.uleb128 .LVU405
	.uleb128 .LVU405
	.uleb128 .LVU407
	.uleb128 .LVU407
	.uleb128 .LVU428
	.uleb128 .LVU428
	.uleb128 .LVU430
	.uleb128 .LVU430
	.uleb128 0
.LLST33:
	.4byte	.LVL108
	.4byte	.LVL109
	.2byte	0x1
	.byte	0x50
	.4byte	.LVL109
	.4byte	.LVL125
	.2byte	0x1
	.byte	0x54
	.4byte	.LVL125
	.4byte	.LVL126
	.2byte	0x4
	.byte	0xf3
	.uleb128 0x1
	.byte	0x50
	.byte	0x9f
	.4byte	.LVL126
	.4byte	.LVL134
	.2byte	0x1
	.byte	0x54
	.4byte	.LVL134
	.4byte	.LVL135
	.2byte	0x4
	.byte	0xf3
	.uleb128 0x1
	.byte	0x50
	.byte	0x9f
	.4byte	.LVL135
	.4byte	.LFE92
	.2byte	0x1
	.byte	0x54
	.4byte	0
	.4byte	0
.LVUS34:
	.uleb128 0
	.uleb128 .LVU357
	.uleb128 .LVU357
	.uleb128 .LVU377
	.uleb128 .LVU377
	.uleb128 .LVU401
	.uleb128 .LVU401
	.uleb128 .LVU411
	.uleb128 .LVU411
	.uleb128 .LVU427
	.uleb128 .LVU427
	.uleb128 .LVU430
	.uleb128 .LVU430
	.uleb128 0
.LLST34:
	.4byte	.LVL108
	.4byte	.LVL110
	.2byte	0x1
	.byte	0x51
	.4byte	.LVL110
	.4byte	.LVL115
	.2byte	0x1
	.byte	0x56
	.4byte	.LVL115
	.4byte	.LVL124
	.2byte	0x4
	.byte	0xf3
	.uleb128 0x1
	.byte	0x51
	.byte	0x9f
	.4byte	.LVL124
	.4byte	.LVL128
	.2byte	0x1
	.byte	0x56
	.4byte	.LVL128
	.4byte	.LVL133
	.2byte	0x4
	.byte	0xf3
	.uleb128 0x1
	.byte	0x51
	.byte	0x9f
	.4byte	.LVL133
	.4byte	.LVL135
	.2byte	0x1
	.byte	0x56
	.4byte	.LVL135
	.4byte	.LFE92
	.2byte	0x4
	.byte	0xf3
	.uleb128 0x1
	.byte	0x51
	.byte	0x9f
	.4byte	0
	.4byte	0
.LVUS35:
	.uleb128 0
	.uleb128 .LVU359
	.uleb128 .LVU359
	.uleb128 .LVU374
	.uleb128 .LVU374
	.uleb128 .LVU401
	.uleb128 .LVU401
	.uleb128 .LVU410
	.uleb128 .LVU410
	.uleb128 .LVU427
	.uleb128 .LVU427
	.uleb128 .LVU430
	.uleb128 .LVU430
	.uleb128 0
.LLST35:
	.4byte	.LVL108
	.4byte	.LVL111-1
	.2byte	0x1
	.byte	0x52
	.4byte	.LVL111-1
	.4byte	.LVL114
	.2byte	0x1
	.byte	0x55
	.4byte	.LVL114
	.4byte	.LVL124
	.2byte	0x4
	.byte	0xf3
	.uleb128 0x1
	.byte	0x52
	.byte	0x9f
	.4byte	.LVL124
	.4byte	.LVL127
	.2byte	0x1
	.byte	0x55
	.4byte	.LVL127
	.4byte	.LVL133
	.2byte	0x4
	.byte	0xf3
	.uleb128 0x1
	.byte	0x52
	.byte	0x9f
	.4byte	.LVL133
	.4byte	.LVL135
	.2byte	0x1
	.byte	0x55
	.4byte	.LVL135
	.4byte	.LFE92
	.2byte	0x4
	.byte	0xf3
	.uleb128 0x1
	.byte	0x52
	.byte	0x9f
	.4byte	0
	.4byte	0
.LVUS36:
	.uleb128 0
	.uleb128 .LVU359
	.uleb128 .LVU359
	.uleb128 0
.LLST36:
	.4byte	.LVL108
	.4byte	.LVL111-1
	.2byte	0x1
	.byte	0x53
	.4byte	.LVL111-1
	.4byte	.LFE92
	.2byte	0x4
	.byte	0xf3
	.uleb128 0x1
	.byte	0x53
	.byte	0x9f
	.4byte	0
	.4byte	0
.LVUS37:
	.uleb128 .LVU379
	.uleb128 .LVU381
	.uleb128 .LVU381
	.uleb128 .LVU400
	.uleb128 .LVU411
	.uleb128 .LVU427
	.uleb128 .LVU430
	.uleb128 0
.LLST37:
	.4byte	.LVL117
	.4byte	.LVL118
	.2byte	0x1
	.byte	0x50
	.4byte	.LVL118
	.4byte	.LVL123
	.2byte	0x1
	.byte	0x55
	.4byte	.LVL128
	.4byte	.LVL133
	.2byte	0x1
	.byte	0x55
	.4byte	.LVL135
	.4byte	.LFE92
	.2byte	0x1
	.byte	0x55
	.4byte	0
	.4byte	0
.LVUS38:
	.uleb128 .LVU377
	.uleb128 .LVU400
	.uleb128 .LVU411
	.uleb128 .LVU415
.LLST38:
	.4byte	.LVL115
	.4byte	.LVL123
	.2byte	0x1
	.byte	0x59
	.4byte	.LVL128
	.4byte	.LVL129
	.2byte	0x1
	.byte	0x59
	.4byte	0
	.4byte	0
.LVUS39:
	.uleb128 .LVU389
	.uleb128 .LVU397
	.uleb128 .LVU397
	.uleb128 .LVU400
	.uleb128 .LVU411
	.uleb128 .LVU427
	.uleb128 .LVU430
	.uleb128 0
.LLST39:
	.4byte	.LVL121
	.4byte	.LVL122-1
	.2byte	0x1
	.byte	0x50
	.4byte	.LVL122-1
	.4byte	.LVL123
	.2byte	0x1
	.byte	0x57
	.4byte	.LVL128
	.4byte	.LVL133
	.2byte	0x1
	.byte	0x57
	.4byte	.LVL135
	.4byte	.LFE92
	.2byte	0x1
	.byte	0x57
	.4byte	0
	.4byte	0
.LVUS40:
	.uleb128 .LVU367
	.uleb128 .LVU377
	.uleb128 .LVU377
	.uleb128 .LVU400
	.uleb128 .LVU401
	.uleb128 .LVU411
	.uleb128 .LVU411
	.uleb128 .LVU427
	.uleb128 .LVU427
	.uleb128 .LVU430
	.uleb128 .LVU430
	.uleb128 0
.LLST40:
	.4byte	.LVL112
	.4byte	.LVL115
	.2byte	0x2
	.byte	0x30
	.byte	0x9f
	.4byte	.LVL115
	.4byte	.LVL123
	.2byte	0x1
	.byte	0x56
	.4byte	.LVL124
	.4byte	.LVL128
	.2byte	0x2
	.byte	0x30
	.byte	0x9f
	.4byte	.LVL128
	.4byte	.LVL133
	.2byte	0x1
	.byte	0x56
	.4byte	.LVL133
	.4byte	.LVL135
	.2byte	0x2
	.byte	0x30
	.byte	0x9f
	.4byte	.LVL135
	.4byte	.LFE92
	.2byte	0x1
	.byte	0x56
	.4byte	0
	.4byte	0
.LVUS41:
	.uleb128 .LVU351
	.uleb128 0
.LLST41:
	.4byte	.LVL108
	.4byte	.LFE92
	.2byte	0x6
	.byte	0xfa
	.4byte	0x3436
	.byte	0x9f
	.4byte	0
	.4byte	0
.LVUS42:
	.uleb128 .LVU416
	.uleb128 .LVU424
	.uleb128 .LVU430
	.uleb128 0
.LLST42:
	.4byte	.LVL130
	.4byte	.LVL131
	.2byte	0x4
	.byte	0x91
	.sleb128 -72
	.byte	0x9f
	.4byte	.LVL135
	.4byte	.LFE92
	.2byte	0x4
	.byte	0x91
	.sleb128 -72
	.byte	0x9f
	.4byte	0
	.4byte	0
.LVUS43:
	.uleb128 .LVU416
	.uleb128 .LVU424
	.uleb128 .LVU430
	.uleb128 0
.LLST43:
	.4byte	.LVL130
	.4byte	.LVL131
	.2byte	0x1
	.byte	0x55
	.4byte	.LVL135
	.4byte	.LFE92
	.2byte	0x1
	.byte	0x55
	.4byte	0
	.4byte	0
.LVUS44:
	.uleb128 .LVU431
	.uleb128 0
.LLST44:
	.4byte	.LVL135
	.4byte	.LFE92
	.2byte	0x1
	.byte	0x55
	.4byte	0
	.4byte	0
.LVUS45:
	.uleb128 .LVU430
	.uleb128 0
.LLST45:
	.4byte	.LVL135
	.4byte	.LFE92
	.2byte	0x4
	.byte	0x91
	.sleb128 -72
	.byte	0x9f
	.4byte	0
	.4byte	0
.LVUS139:
	.uleb128 0
	.uleb128 .LVU1318
	.uleb128 .LVU1318
	.uleb128 0
.LLST139:
	.4byte	.LVL396
	.4byte	.LVL397
	.2byte	0x1
	.byte	0x50
	.4byte	.LVL397
	.4byte	.LFE68
	.2byte	0x1
	.byte	0x56
	.4byte	0
	.4byte	0
.LVUS140:
	.uleb128 0
	.uleb128 .LVU1320
	.uleb128 .LVU1320
	.uleb128 .LVU1333
	.uleb128 .LVU1333
	.uleb128 .LVU1364
	.uleb128 .LVU1364
	.uleb128 0
.LLST140:
	.4byte	.LVL396
	.4byte	.LVL398
	.2byte	0x1
	.byte	0x51
	.4byte	.LVL398
	.4byte	.LVL401
	.2byte	0x1
	.byte	0x57
	.4byte	.LVL401
	.4byte	.LVL412
	.2byte	0x4
	.byte	0xf3
	.uleb128 0x1
	.byte	0x51
	.byte	0x9f
	.4byte	.LVL412
	.4byte	.LFE68
	.2byte	0x1
	.byte	0x57
	.4byte	0
	.4byte	0
.LVUS141:
	.uleb128 0
	.uleb128 .LVU1322
	.uleb128 .LVU1322
	.uleb128 .LVU1333
	.uleb128 .LVU1333
	.uleb128 .LVU1364
	.uleb128 .LVU1364
	.uleb128 0
.LLST141:
	.4byte	.LVL396
	.4byte	.LVL399-1
	.2byte	0x1
	.byte	0x52
	.4byte	.LVL399-1
	.4byte	.LVL401
	.2byte	0x1
	.byte	0x55
	.4byte	.LVL401
	.4byte	.LVL412
	.2byte	0x4
	.byte	0xf3
	.uleb128 0x1
	.byte	0x52
	.byte	0x9f
	.4byte	.LVL412
	.4byte	.LFE68
	.2byte	0x1
	.byte	0x55
	.4byte	0
	.4byte	0
.LVUS142:
	.uleb128 .LVU1323
	.uleb128 .LVU1333
	.uleb128 .LVU1333
	.uleb128 .LVU1364
	.uleb128 .LVU1364
	.uleb128 0
.LLST142:
	.4byte	.LVL399
	.4byte	.LVL401
	.2byte	0x1
	.byte	0x57
	.4byte	.LVL401
	.4byte	.LVL412
	.2byte	0x4
	.byte	0xf3
	.uleb128 0x1
	.byte	0x51
	.byte	0x9f
	.4byte	.LVL412
	.4byte	.LFE68
	.2byte	0x1
	.byte	0x57
	.4byte	0
	.4byte	0
.LVUS143:
	.uleb128 .LVU1329
	.uleb128 .LVU1344
	.uleb128 .LVU1346
	.uleb128 .LVU1354
	.uleb128 .LVU1354
	.uleb128 .LVU1358
	.uleb128 .LVU1358
	.uleb128 .LVU1364
.LLST143:
	.4byte	.LVL400
	.4byte	.LVL404
	.2byte	0x1
	.byte	0x55
	.4byte	.LVL405
	.4byte	.LVL409
	.2byte	0x1
	.byte	0x55
	.4byte	.LVL409
	.4byte	.LVL410
	.2byte	0x6
	.byte	0x75
	.sleb128 0
	.byte	0x74
	.sleb128 0
	.byte	0x1c
	.byte	0x9f
	.4byte	.LVL410
	.4byte	.LVL412
	.2byte	0x1
	.byte	0x55
	.4byte	0
	.4byte	0
.LVUS144:
	.uleb128 .LVU1329
	.uleb128 .LVU1344
	.uleb128 .LVU1346
	.uleb128 .LVU1355
	.uleb128 .LVU1355
	.uleb128 .LVU1363
	.uleb128 .LVU1363
	.uleb128 .LVU1364
.LLST144:
	.4byte	.LVL400
	.4byte	.LVL404
	.2byte	0x1
	.byte	0x57
	.4byte	.LVL405
	.4byte	.LVL409
	.2byte	0x1
	.byte	0x57
	.4byte	.LVL409
	.4byte	.LVL411
	.2byte	0x6
	.byte	0x77
	.sleb128 0
	.byte	0x74
	.sleb128 0
	.byte	0x22
	.byte	0x9f
	.4byte	.LVL411
	.4byte	.LVL412
	.2byte	0x1
	.byte	0x57
	.4byte	0
	.4byte	0
.LVUS145:
	.uleb128 .LVU1338
	.uleb128 .LVU1344
.LLST145:
	.4byte	.LVL403
	.4byte	.LVL404
	.2byte	0x1
	.byte	0x50
	.4byte	0
	.4byte	0
.LVUS146:
	.uleb128 .LVU1348
	.uleb128 .LVU1351
	.uleb128 .LVU1351
	.uleb128 .LVU1364
.LLST146:
	.4byte	.LVL406
	.4byte	.LVL407
	.2byte	0x1
	.byte	0x53
	.4byte	.LVL407
	.4byte	.LVL412
	.2byte	0x1
	.byte	0x54
	.4byte	0
	.4byte	0
.LVUS191:
	.uleb128 0
	.uleb128 .LVU2038
	.uleb128 .LVU2038
	.uleb128 .LVU2040
	.uleb128 .LVU2040
	.uleb128 0
.LLST191:
	.4byte	.LVL619
	.4byte	.LVL620
	.2byte	0x1
	.byte	0x50
	.4byte	.LVL620
	.4byte	.LVL621
	.2byte	0x1
	.byte	0x53
	.4byte	.LVL621
	.4byte	.LFE79
	.2byte	0x4
	.byte	0xf3
	.uleb128 0x1
	.byte	0x50
	.byte	0x9f
	.4byte	0
	.4byte	0
.LVUS192:
	.uleb128 .LVU2046
	.uleb128 .LVU2048
	.uleb128 .LVU2048
	.uleb128 .LVU2049
	.uleb128 .LVU2049
	.uleb128 .LVU2050
.LLST192:
	.4byte	.LVL622
	.4byte	.LVL623
	.2byte	0x1
	.byte	0x50
	.4byte	.LVL623
	.4byte	.LVL624
	.2byte	0x3
	.byte	0x70
	.sleb128 -54
	.byte	0x9f
	.4byte	.LVL624
	.4byte	.LVL625
	.2byte	0x1
	.byte	0x50
	.4byte	0
	.4byte	0
	.section	.debug_aranges,"",%progbits
	.4byte	0x17c
	.2byte	0x2
	.4byte	.Ldebug_info0
	.byte	0x4
	.byte	0
	.2byte	0
	.2byte	0
	.4byte	.LFB36
	.4byte	.LFE36-.LFB36
	.4byte	.LFB37
	.4byte	.LFE37-.LFB37
	.4byte	.LFB86
	.4byte	.LFE86-.LFB86
	.4byte	.LFB63
	.4byte	.LFE63-.LFB63
	.4byte	.LFB88
	.4byte	.LFE88-.LFB88
	.4byte	.LFB40
	.4byte	.LFE40-.LFB40
	.4byte	.LFB44
	.4byte	.LFE44-.LFB44
	.4byte	.LFB45
	.4byte	.LFE45-.LFB45
	.4byte	.LFB92
	.4byte	.LFE92-.LFB92
	.4byte	.LFB46
	.4byte	.LFE46-.LFB46
	.4byte	.LFB48
	.4byte	.LFE48-.LFB48
	.4byte	.LFB49
	.4byte	.LFE49-.LFB49
	.4byte	.LFB50
	.4byte	.LFE50-.LFB50
	.4byte	.LFB52
	.4byte	.LFE52-.LFB52
	.4byte	.LFB53
	.4byte	.LFE53-.LFB53
	.4byte	.LFB54
	.4byte	.LFE54-.LFB54
	.4byte	.LFB57
	.4byte	.LFE57-.LFB57
	.4byte	.LFB56
	.4byte	.LFE56-.LFB56
	.4byte	.LFB59
	.4byte	.LFE59-.LFB59
	.4byte	.LFB58
	.4byte	.LFE58-.LFB58
	.4byte	.LFB60
	.4byte	.LFE60-.LFB60
	.4byte	.LFB64
	.4byte	.LFE64-.LFB64
	.4byte	.LFB65
	.4byte	.LFE65-.LFB65
	.4byte	.LFB66
	.4byte	.LFE66-.LFB66
	.4byte	.LFB67
	.4byte	.LFE67-.LFB67
	.4byte	.LFB68
	.4byte	.LFE68-.LFB68
	.4byte	.LFB41
	.4byte	.LFE41-.LFB41
	.4byte	.LFB69
	.4byte	.LFE69-.LFB69
	.4byte	.LFB71
	.4byte	.LFE71-.LFB71
	.4byte	.LFB72
	.4byte	.LFE72-.LFB72
	.4byte	.LFB73
	.4byte	.LFE73-.LFB73
	.4byte	.LFB70
	.4byte	.LFE70-.LFB70
	.4byte	.LFB74
	.4byte	.LFE74-.LFB74
	.4byte	.LFB75
	.4byte	.LFE75-.LFB75
	.4byte	.LFB76
	.4byte	.LFE76-.LFB76
	.4byte	.LFB77
	.4byte	.LFE77-.LFB77
	.4byte	.LFB78
	.4byte	.LFE78-.LFB78
	.4byte	.LFB79
	.4byte	.LFE79-.LFB79
	.4byte	.LFB47
	.4byte	.LFE47-.LFB47
	.4byte	.LFB80
	.4byte	.LFE80-.LFB80
	.4byte	.LFB81
	.4byte	.LFE81-.LFB81
	.4byte	.LFB82
	.4byte	.LFE82-.LFB82
	.4byte	.LFB83
	.4byte	.LFE83-.LFB83
	.4byte	.LFB84
	.4byte	.LFE84-.LFB84
	.4byte	.LFB85
	.4byte	.LFE85-.LFB85
	.4byte	0
	.4byte	0
	.section	.debug_ranges,"",%progbits
.Ldebug_ranges0:
	.4byte	.LBB43
	.4byte	.LBE43
	.4byte	.LBB44
	.4byte	.LBE44
	.4byte	0
	.4byte	0
	.4byte	.LBB46
	.4byte	.LBE46
	.4byte	.LBB47
	.4byte	.LBE47
	.4byte	0
	.4byte	0
	.4byte	.LBB53
	.4byte	.LBE53
	.4byte	.LBB72
	.4byte	.LBE72
	.4byte	0
	.4byte	0
	.4byte	.LBB54
	.4byte	.LBE54
	.4byte	.LBB67
	.4byte	.LBE67
	.4byte	.LBB68
	.4byte	.LBE68
	.4byte	.LBB69
	.4byte	.LBE69
	.4byte	.LBB70
	.4byte	.LBE70
	.4byte	.LBB71
	.4byte	.LBE71
	.4byte	0
	.4byte	0
	.4byte	.LBB56
	.4byte	.LBE56
	.4byte	.LBB60
	.4byte	.LBE60
	.4byte	.LBB61
	.4byte	.LBE61
	.4byte	0
	.4byte	0
	.4byte	.LBB76
	.4byte	.LBE76
	.4byte	.LBB80
	.4byte	.LBE80
	.4byte	.LBB81
	.4byte	.LBE81
	.4byte	0
	.4byte	0
	.4byte	.LBB82
	.4byte	.LBE82
	.4byte	.LBB87
	.4byte	.LBE87
	.4byte	.LBB88
	.4byte	.LBE88
	.4byte	.LBB89
	.4byte	.LBE89
	.4byte	0
	.4byte	0
	.4byte	.LBB94
	.4byte	.LBE94
	.4byte	.LBB100
	.4byte	.LBE100
	.4byte	.LBB101
	.4byte	.LBE101
	.4byte	0
	.4byte	0
	.4byte	.LBB107
	.4byte	.LBE107
	.4byte	.LBB122
	.4byte	.LBE122
	.4byte	0
	.4byte	0
	.4byte	.LBB108
	.4byte	.LBE108
	.4byte	.LBB118
	.4byte	.LBE118
	.4byte	.LBB119
	.4byte	.LBE119
	.4byte	.LBB120
	.4byte	.LBE120
	.4byte	.LBB121
	.4byte	.LBE121
	.4byte	0
	.4byte	0
	.4byte	.LBB110
	.4byte	.LBE110
	.4byte	.LBB113
	.4byte	.LBE113
	.4byte	0
	.4byte	0
	.4byte	.LBB140
	.4byte	.LBE140
	.4byte	.LBB148
	.4byte	.LBE148
	.4byte	.LBB178
	.4byte	.LBE178
	.4byte	.LBB179
	.4byte	.LBE179
	.4byte	.LBB180
	.4byte	.LBE180
	.4byte	0
	.4byte	0
	.4byte	.LBB150
	.4byte	.LBE150
	.4byte	.LBB158
	.4byte	.LBE158
	.4byte	.LBB172
	.4byte	.LBE172
	.4byte	.LBB173
	.4byte	.LBE173
	.4byte	.LBB174
	.4byte	.LBE174
	.4byte	0
	.4byte	0
	.4byte	.LBB162
	.4byte	.LBE162
	.4byte	.LBB170
	.4byte	.LBE170
	.4byte	.LBB175
	.4byte	.LBE175
	.4byte	.LBB176
	.4byte	.LBE176
	.4byte	.LBB177
	.4byte	.LBE177
	.4byte	0
	.4byte	0
	.4byte	.LBB183
	.4byte	.LBE183
	.4byte	.LBB188
	.4byte	.LBE188
	.4byte	.LBB189
	.4byte	.LBE189
	.4byte	0
	.4byte	0
	.4byte	.LBB184
	.4byte	.LBE184
	.4byte	.LBB185
	.4byte	.LBE185
	.4byte	.LBB186
	.4byte	.LBE186
	.4byte	.LBB187
	.4byte	.LBE187
	.4byte	0
	.4byte	0
	.4byte	.LBB197
	.4byte	.LBE197
	.4byte	.LBB208
	.4byte	.LBE208
	.4byte	0
	.4byte	0
	.4byte	.LBB198
	.4byte	.LBE198
	.4byte	.LBB204
	.4byte	.LBE204
	.4byte	.LBB207
	.4byte	.LBE207
	.4byte	0
	.4byte	0
	.4byte	.LBB213
	.4byte	.LBE213
	.4byte	.LBB220
	.4byte	.LBE220
	.4byte	.LBB221
	.4byte	.LBE221
	.4byte	.LBB222
	.4byte	.LBE222
	.4byte	0
	.4byte	0
	.4byte	.LBB234
	.4byte	.LBE234
	.4byte	.LBB255
	.4byte	.LBE255
	.4byte	.LBB256
	.4byte	.LBE256
	.4byte	.LBB257
	.4byte	.LBE257
	.4byte	.LBB258
	.4byte	.LBE258
	.4byte	0
	.4byte	0
	.4byte	.LBB237
	.4byte	.LBE237
	.4byte	.LBB242
	.4byte	.LBE242
	.4byte	0
	.4byte	0
	.4byte	.LBB238
	.4byte	.LBE238
	.4byte	.LBB241
	.4byte	.LBE241
	.4byte	0
	.4byte	0
	.4byte	.LBB243
	.4byte	.LBE243
	.4byte	.LBB247
	.4byte	.LBE247
	.4byte	.LBB248
	.4byte	.LBE248
	.4byte	0
	.4byte	0
	.4byte	.LBB259
	.4byte	.LBE259
	.4byte	.LBB260
	.4byte	.LBE260
	.4byte	.LBB261
	.4byte	.LBE261
	.4byte	.LBB262
	.4byte	.LBE262
	.4byte	.LBB263
	.4byte	.LBE263
	.4byte	.LBB264
	.4byte	.LBE264
	.4byte	.LBB265
	.4byte	.LBE265
	.4byte	0
	.4byte	0
	.4byte	.LBB269
	.4byte	.LBE269
	.4byte	.LBB277
	.4byte	.LBE277
	.4byte	0
	.4byte	0
	.4byte	.LBB271
	.4byte	.LBE271
	.4byte	.LBB272
	.4byte	.LBE272
	.4byte	.LBB273
	.4byte	.LBE273
	.4byte	.LBB274
	.4byte	.LBE274
	.4byte	.LBB275
	.4byte	.LBE275
	.4byte	0
	.4byte	0
	.4byte	.LBB278
	.4byte	.LBE278
	.4byte	.LBB279
	.4byte	.LBE279
	.4byte	.LBB282
	.4byte	.LBE282
	.4byte	.LBB285
	.4byte	.LBE285
	.4byte	.LBB286
	.4byte	.LBE286
	.4byte	.LBB291
	.4byte	.LBE291
	.4byte	.LBB293
	.4byte	.LBE293
	.4byte	0
	.4byte	0
	.4byte	.LBB280
	.4byte	.LBE280
	.4byte	.LBB281
	.4byte	.LBE281
	.4byte	.LBB283
	.4byte	.LBE283
	.4byte	.LBB284
	.4byte	.LBE284
	.4byte	.LBB287
	.4byte	.LBE287
	.4byte	.LBB289
	.4byte	.LBE289
	.4byte	.LBB292
	.4byte	.LBE292
	.4byte	0
	.4byte	0
	.4byte	.LBB288
	.4byte	.LBE288
	.4byte	.LBB290
	.4byte	.LBE290
	.4byte	.LBB294
	.4byte	.LBE294
	.4byte	0
	.4byte	0
	.4byte	.LBB300
	.4byte	.LBE300
	.4byte	.LBB319
	.4byte	.LBE319
	.4byte	.LBB320
	.4byte	.LBE320
	.4byte	.LBB321
	.4byte	.LBE321
	.4byte	.LBB322
	.4byte	.LBE322
	.4byte	0
	.4byte	0
	.4byte	.LBB301
	.4byte	.LBE301
	.4byte	.LBB314
	.4byte	.LBE314
	.4byte	.LBB315
	.4byte	.LBE315
	.4byte	.LBB316
	.4byte	.LBE316
	.4byte	.LBB317
	.4byte	.LBE317
	.4byte	.LBB318
	.4byte	.LBE318
	.4byte	0
	.4byte	0
	.4byte	.LBB303
	.4byte	.LBE303
	.4byte	.LBB307
	.4byte	.LBE307
	.4byte	.LBB308
	.4byte	.LBE308
	.4byte	0
	.4byte	0
	.4byte	.LBB323
	.4byte	.LBE323
	.4byte	.LBB324
	.4byte	.LBE324
	.4byte	0
	.4byte	0
	.4byte	.LBB325
	.4byte	.LBE325
	.4byte	.LBB326
	.4byte	.LBE326
	.4byte	0
	.4byte	0
	.4byte	.LBB335
	.4byte	.LBE335
	.4byte	.LBB336
	.4byte	.LBE336
	.4byte	0
	.4byte	0
	.4byte	.LBB338
	.4byte	.LBE338
	.4byte	.LBB339
	.4byte	.LBE339
	.4byte	.LBB340
	.4byte	.LBE340
	.4byte	.LBB341
	.4byte	.LBE341
	.4byte	0
	.4byte	0
	.4byte	.LBB342
	.4byte	.LBE342
	.4byte	.LBB343
	.4byte	.LBE343
	.4byte	.LBB344
	.4byte	.LBE344
	.4byte	.LBB345
	.4byte	.LBE345
	.4byte	.LBB346
	.4byte	.LBE346
	.4byte	.LBB347
	.4byte	.LBE347
	.4byte	0
	.4byte	0
	.4byte	.LFB36
	.4byte	.LFE36
	.4byte	.LFB37
	.4byte	.LFE37
	.4byte	.LFB86
	.4byte	.LFE86
	.4byte	.LFB63
	.4byte	.LFE63
	.4byte	.LFB88
	.4byte	.LFE88
	.4byte	.LFB40
	.4byte	.LFE40
	.4byte	.LFB44
	.4byte	.LFE44
	.4byte	.LFB45
	.4byte	.LFE45
	.4byte	.LFB92
	.4byte	.LFE92
	.4byte	.LFB46
	.4byte	.LFE46
	.4byte	.LFB48
	.4byte	.LFE48
	.4byte	.LFB49
	.4byte	.LFE49
	.4byte	.LFB50
	.4byte	.LFE50
	.4byte	.LFB52
	.4byte	.LFE52
	.4byte	.LFB53
	.4byte	.LFE53
	.4byte	.LFB54
	.4byte	.LFE54
	.4byte	.LFB57
	.4byte	.LFE57
	.4byte	.LFB56
	.4byte	.LFE56
	.4byte	.LFB59
	.4byte	.LFE59
	.4byte	.LFB58
	.4byte	.LFE58
	.4byte	.LFB60
	.4byte	.LFE60
	.4byte	.LFB64
	.4byte	.LFE64
	.4byte	.LFB65
	.4byte	.LFE65
	.4byte	.LFB66
	.4byte	.LFE66
	.4byte	.LFB67
	.4byte	.LFE67
	.4byte	.LFB68
	.4byte	.LFE68
	.4byte	.LFB41
	.4byte	.LFE41
	.4byte	.LFB69
	.4byte	.LFE69
	.4byte	.LFB71
	.4byte	.LFE71
	.4byte	.LFB72
	.4byte	.LFE72
	.4byte	.LFB73
	.4byte	.LFE73
	.4byte	.LFB70
	.4byte	.LFE70
	.4byte	.LFB74
	.4byte	.LFE74
	.4byte	.LFB75
	.4byte	.LFE75
	.4byte	.LFB76
	.4byte	.LFE76
	.4byte	.LFB77
	.4byte	.LFE77
	.4byte	.LFB78
	.4byte	.LFE78
	.4byte	.LFB79
	.4byte	.LFE79
	.4byte	.LFB47
	.4byte	.LFE47
	.4byte	.LFB80
	.4byte	.LFE80
	.4byte	.LFB81
	.4byte	.LFE81
	.4byte	.LFB82
	.4byte	.LFE82
	.4byte	.LFB83
	.4byte	.LFE83
	.4byte	.LFB84
	.4byte	.LFE84
	.4byte	.LFB85
	.4byte	.LFE85
	.4byte	0
	.4byte	0
	.section	.debug_line,"",%progbits
.Ldebug_line0:
	.section	.debug_str,"MS",%progbits,1
.LASF294:
	.ascii	"GPG_ERR_BAD_HS_CERT_VER\000"
.LASF779:
	.ascii	"direct_open\000"
.LASF51:
	.ascii	"st_ctim\000"
.LASF197:
	.ascii	"GPG_ERR_NOT_DER_ENCODED\000"
.LASF348:
	.ascii	"GPG_ERR_BAD_AUTH\000"
.LASF472:
	.ascii	"GPG_ERR_SQL_IOERR\000"
.LASF12:
	.ascii	"size_t\000"
.LASF683:
	.ascii	"start\000"
.LASF705:
	.ascii	"length_of_buffer\000"
.LASF328:
	.ascii	"GPG_ERR_ASS_CANCELED\000"
.LASF67:
	.ascii	"GPG_ERR_CIPHER_ALGO\000"
.LASF788:
	.ascii	"xrealloc\000"
.LASF642:
	.ascii	"no_cache\000"
.LASF425:
	.ascii	"GPG_ERR_LDAP_NAMING_VIOLATION\000"
.LASF202:
	.ascii	"GPG_ERR_UNSUPPORTED_ENCODING\000"
.LASF763:
	.ascii	"iobuf_temp_with_content\000"
.LASF612:
	.ascii	"GPG_ERR_EPROTOTYPE\000"
.LASF205:
	.ascii	"GPG_ERR_INV_ENGINE\000"
.LASF52:
	.ascii	"st_blksize\000"
.LASF53:
	.ascii	"st_blocks\000"
.LASF783:
	.ascii	"fd_cache_invalidate\000"
.LASF260:
	.ascii	"GPG_ERR_SEXP_BAD_CHARACTER\000"
.LASF775:
	.ascii	"block_filter\000"
.LASF84:
	.ascii	"GPG_ERR_SYNTAX\000"
.LASF227:
	.ascii	"GPG_ERR_UNKNOWN_CRIT_EXTN\000"
.LASF476:
	.ascii	"GPG_ERR_SQL_CANTOPEN\000"
.LASF496:
	.ascii	"GPG_ERR_E2BIG\000"
.LASF289:
	.ascii	"GPG_ERR_TICKET_EXPIRED\000"
.LASF133:
	.ascii	"GPG_ERR_AGENT\000"
.LASF121:
	.ascii	"GPG_ERR_TOO_SHORT\000"
.LASF171:
	.ascii	"GPG_ERR_NO_POLICY_MATCH\000"
.LASF370:
	.ascii	"GPG_ERR_LDAP_UPDATE_GENERAL\000"
.LASF738:
	.ascii	"newsize\000"
.LASF398:
	.ascii	"GPG_ERR_LDAP_UNSUPPORTED_AUTH\000"
.LASF362:
	.ascii	"GPG_ERR_DNS_CLOSED\000"
.LASF34:
	.ascii	"dev_t\000"
.LASF38:
	.ascii	"nlink_t\000"
.LASF228:
	.ascii	"GPG_ERR_LOCKED\000"
.LASF19:
	.ascii	"__gid_t\000"
.LASF488:
	.ascii	"GPG_ERR_SQL_NOTADB\000"
.LASF162:
	.ascii	"GPG_ERR_AMBIGUOUS_NAME\000"
.LASF78:
	.ascii	"GPG_ERR_NO_ENCRYPTION_SCHEME\000"
.LASF50:
	.ascii	"st_mtim\000"
.LASF26:
	.ascii	"time_t\000"
.LASF462:
	.ascii	"GPG_ERR_SQL_OK\000"
.LASF281:
	.ascii	"GPG_ERR_BAD_MAC\000"
.LASF691:
	.ascii	"first_c\000"
.LASF570:
	.ascii	"GPG_ERR_ENETUNREACH\000"
.LASF797:
	.ascii	"open\000"
.LASF784:
	.ascii	"fd_cache_strcmp\000"
.LASF719:
	.ascii	"iobuf_flush_temp\000"
.LASF180:
	.ascii	"GPG_ERR_WRONG_KEY_USAGE\000"
.LASF429:
	.ascii	"GPG_ERR_LDAP_ALREADY_EXISTS\000"
.LASF61:
	.ascii	"GPG_ERR_BAD_PUBKEY\000"
.LASF124:
	.ascii	"GPG_ERR_NOT_IMPLEMENTED\000"
.LASF755:
	.ascii	"iobuf_create\000"
.LASF769:
	.ascii	"iobuf_alloc\000"
.LASF671:
	.ascii	"nbytes\000"
.LASF445:
	.ascii	"GPG_ERR_LDAP_PROX_AUTH_DENIED\000"
.LASF223:
	.ascii	"GPG_ERR_PROTOCOL_VIOLATION\000"
.LASF774:
	.ascii	"filter_flush\000"
.LASF603:
	.ascii	"GPG_ERR_EPERM\000"
.LASF712:
	.ascii	"iobuf_get_fname\000"
.LASF40:
	.ascii	"stat\000"
.LASF151:
	.ascii	"GPG_ERR_CRL_TOO_OLD\000"
.LASF157:
	.ascii	"GPG_ERR_CERT_TOO_YOUNG\000"
.LASF387:
	.ascii	"GPG_ERR_LDAP_DECODING\000"
.LASF263:
	.ascii	"GPG_ERR_SEXP_NESTED_DH\000"
.LASF726:
	.ascii	"nwrote\000"
.LASF242:
	.ascii	"GPG_ERR_INV_CURVE\000"
.LASF581:
	.ascii	"GPG_ERR_ENOMEDIUM\000"
.LASF531:
	.ascii	"GPG_ERR_EEXIST\000"
.LASF803:
	.ascii	"print_chain\000"
.LASF673:
	.ascii	"nofast\000"
.LASF646:
	.ascii	"npeeked\000"
.LASF140:
	.ascii	"GPG_ERR_NO_PIN_ENTRY\000"
.LASF367:
	.ascii	"GPG_ERR_LDAP_NAME_GENERAL\000"
.LASF529:
	.ascii	"GPG_ERR_EDOTDOT\000"
.LASF226:
	.ascii	"GPG_ERR_UNKNOWN_EXTN\000"
.LASF644:
	.ascii	"print_only_name\000"
.LASF206:
	.ascii	"GPG_ERR_PUBKEY_NOT_TRUSTED\000"
.LASF153:
	.ascii	"GPG_ERR_NOT_TRUSTED\000"
.LASF332:
	.ascii	"GPG_ERR_ASS_UNKNOWN_INQUIRE\000"
.LASF551:
	.ascii	"GPG_ERR_EL3HLT\000"
.LASF363:
	.ascii	"GPG_ERR_DNS_VERIFY\000"
.LASF721:
	.ascii	"iobuf_copy\000"
.LASF428:
	.ascii	"GPG_ERR_LDAP_NOT_ALLOW_ON_RDN\000"
.LASF201:
	.ascii	"GPG_ERR_UNSUPPORTED_CMS_OBJ\000"
.LASF346:
	.ascii	"GPG_ERR_WRONG_NAME\000"
.LASF436:
	.ascii	"GPG_ERR_LDAP_CUP_SEC_VIOLATION\000"
.LASF444:
	.ascii	"GPG_ERR_LDAP_ASSERTION_FAILED\000"
.LASF174:
	.ascii	"GPG_ERR_NO_SCDAEMON\000"
.LASF258:
	.ascii	"GPG_ERR_SEXP_UNMATCHED_PAREN\000"
.LASF17:
	.ascii	"__dev_t\000"
.LASF347:
	.ascii	"GPG_ERR_NO_AUTH\000"
.LASF35:
	.ascii	"uid_t\000"
.LASF588:
	.ascii	"GPG_ERR_ENOSR\000"
.LASF301:
	.ascii	"GPG_ERR_BAD_HS_CLIENT_KEX\000"
.LASF533:
	.ascii	"GPG_ERR_EFBIG\000"
.LASF766:
	.ascii	"dummy\000"
.LASF360:
	.ascii	"GPG_ERR_DNS_NO_QUERY\000"
.LASF431:
	.ascii	"GPG_ERR_LDAP_RESULTS_TOO_LARGE\000"
.LASF91:
	.ascii	"GPG_ERR_BAD_CERT\000"
.LASF299:
	.ascii	"GPG_ERR_BAD_HS_FINISHED\000"
.LASF557:
	.ascii	"GPG_ERR_ELIBSCN\000"
.LASF163:
	.ascii	"GPG_ERR_CARD\000"
.LASF169:
	.ascii	"GPG_ERR_NOT_CONFIRMED\000"
.LASF291:
	.ascii	"GPG_ERR_UNKNOWN_IDENTITY\000"
.LASF234:
	.ascii	"GPG_ERR_NOT_ENABLED\000"
.LASF4:
	.ascii	"long int\000"
.LASF482:
	.ascii	"GPG_ERR_SQL_MISMATCH\000"
.LASF793:
	.ascii	"memmove\000"
.LASF801:
	.ascii	"iobuf_use\000"
.LASF222:
	.ascii	"GPG_ERR_NOT_LOCKED\000"
.LASF314:
	.ascii	"GPG_ERR_ASS_INCOMPLETE_LINE\000"
.LASF178:
	.ascii	"GPG_ERR_CARD_NOT_INITIALIZED\000"
.LASF787:
	.ascii	"xfree\000"
.LASF105:
	.ascii	"GPG_ERR_SELFTEST_FAILED\000"
.LASF292:
	.ascii	"GPG_ERR_BAD_HS_CERT\000"
.LASF280:
	.ascii	"GPG_ERR_INV_RECORD\000"
.LASF143:
	.ascii	"GPG_ERR_INV_NAME\000"
.LASF190:
	.ascii	"GPG_ERR_INV_BER\000"
.LASF141:
	.ascii	"GPG_ERR_PIN_ENTRY\000"
.LASF583:
	.ascii	"GPG_ERR_ENOMSG\000"
.LASF86:
	.ascii	"GPG_ERR_INV_PASSPHRASE\000"
.LASF707:
	.ascii	"length\000"
.LASF675:
	.ascii	"error\000"
.LASF499:
	.ascii	"GPG_ERR_EADDRNOTAVAIL\000"
.LASF225:
	.ascii	"GPG_ERR_INV_REQUEST\000"
.LASF318:
	.ascii	"GPG_ERR_ASS_NO_INQUIRE_CB\000"
.LASF259:
	.ascii	"GPG_ERR_SEXP_NOT_CANONICAL\000"
.LASF413:
	.ascii	"GPG_ERR_LDAP_ALIAS_PROBLEM\000"
.LASF518:
	.ascii	"GPG_ERR_ECHRNG\000"
.LASF541:
	.ascii	"GPG_ERR_EILSEQ\000"
.LASF538:
	.ascii	"GPG_ERR_EHOSTUNREACH\000"
.LASF494:
	.ascii	"GPG_ERR_UNKNOWN_ERRNO\000"
.LASF310:
	.ascii	"GPG_ERR_ASS_ACCEPT_FAILED\000"
.LASF373:
	.ascii	"GPG_ERR_LDAP_OTHER_GENERAL\000"
.LASF374:
	.ascii	"GPG_ERR_LDAP_X_CONNECTING\000"
.LASF76:
	.ascii	"GPG_ERR_NO_PRIME\000"
.LASF246:
	.ascii	"GPG_ERR_NO_CRYPT_CTX\000"
.LASF443:
	.ascii	"GPG_ERR_LDAP_CANNOT_CANCEL\000"
.LASF132:
	.ascii	"GPG_ERR_NO_AGENT\000"
.LASF293:
	.ascii	"GPG_ERR_BAD_HS_CERT_REQ\000"
.LASF475:
	.ascii	"GPG_ERR_SQL_FULL\000"
.LASF700:
	.ascii	"translate_file_handle\000"
.LASF545:
	.ascii	"GPG_ERR_EIO\000"
.LASF239:
	.ascii	"GPG_ERR_NOT_INITIALIZED\000"
.LASF0:
	.ascii	"signed char\000"
.LASF325:
	.ascii	"GPG_ERR_ASS_UNEXPECTED_CMD\000"
.LASF15:
	.ascii	"__blksize_t\000"
.LASF752:
	.ascii	"mode\000"
.LASF148:
	.ascii	"GPG_ERR_DIRMNGR\000"
.LASF271:
	.ascii	"GPG_ERR_SERVER_FAILED\000"
.LASF446:
	.ascii	"GPG_ERR_USER_1\000"
.LASF447:
	.ascii	"GPG_ERR_USER_2\000"
.LASF448:
	.ascii	"GPG_ERR_USER_3\000"
.LASF449:
	.ascii	"GPG_ERR_USER_4\000"
.LASF401:
	.ascii	"GPG_ERR_LDAP_REFERRAL\000"
.LASF45:
	.ascii	"st_uid\000"
.LASF452:
	.ascii	"GPG_ERR_USER_7\000"
.LASF54:
	.ascii	"st_spare4\000"
.LASF454:
	.ascii	"GPG_ERR_USER_9\000"
.LASF361:
	.ascii	"GPG_ERR_DNS_NO_ANSWER\000"
.LASF569:
	.ascii	"GPG_ERR_ENETRESET\000"
.LASF311:
	.ascii	"GPG_ERR_ASS_CONNECT_FAILED\000"
.LASF709:
	.ascii	"iobuf_skip_rest\000"
.LASF118:
	.ascii	"GPG_ERR_INTERNAL\000"
.LASF530:
	.ascii	"GPG_ERR_EDQUOT\000"
.LASF103:
	.ascii	"GPG_ERR_NETWORK\000"
.LASF71:
	.ascii	"GPG_ERR_NO_USER_ID\000"
.LASF203:
	.ascii	"GPG_ERR_UNSUPPORTED_CMS_VERSION\000"
.LASF1:
	.ascii	"unsigned char\000"
.LASF79:
	.ascii	"GPG_ERR_NO_SIGNATURE_SCHEME\000"
.LASF514:
	.ascii	"GPG_ERR_EBFONT\000"
.LASF423:
	.ascii	"GPG_ERR_LDAP_UNWILL_TO_PERFORM\000"
.LASF154:
	.ascii	"GPG_ERR_CANCELED\000"
.LASF47:
	.ascii	"st_rdev\000"
.LASF742:
	.ascii	"underflow_target\000"
.LASF62:
	.ascii	"GPG_ERR_BAD_SECKEY\000"
.LASF480:
	.ascii	"GPG_ERR_SQL_TOOBIG\000"
.LASF319:
	.ascii	"GPG_ERR_ASS_NOT_A_SERVER\000"
.LASF450:
	.ascii	"GPG_ERR_USER_5\000"
.LASF451:
	.ascii	"GPG_ERR_USER_6\000"
.LASF453:
	.ascii	"GPG_ERR_USER_8\000"
.LASF638:
	.ascii	"gpg_error_t\000"
.LASF422:
	.ascii	"GPG_ERR_LDAP_UNAVAILABLE\000"
.LASF101:
	.ascii	"GPG_ERR_BAD_URI\000"
.LASF232:
	.ascii	"GPG_ERR_NO_PASSPHRASE\000"
.LASF693:
	.ascii	"iobuf_debug_mode\000"
.LASF754:
	.ascii	"iobuf_openrw\000"
.LASF338:
	.ascii	"GPG_ERR_NAME_EXISTS\000"
.LASF537:
	.ascii	"GPG_ERR_EHOSTDOWN\000"
.LASF713:
	.ascii	"iobuf_seek\000"
.LASF224:
	.ascii	"GPG_ERR_INV_MAC\000"
.LASF542:
	.ascii	"GPG_ERR_EINPROGRESS\000"
.LASF617:
	.ascii	"GPG_ERR_ERESTART\000"
.LASF484:
	.ascii	"GPG_ERR_SQL_NOLFS\000"
.LASF747:
	.ascii	"iobuf_push_filter\000"
.LASF96:
	.ascii	"GPG_ERR_WRONG_PUBKEY_ALGO\000"
.LASF516:
	.ascii	"GPG_ERR_ECANCELED\000"
.LASF172:
	.ascii	"GPG_ERR_INV_INDEX\000"
.LASF307:
	.ascii	"GPG_ERR_TRUE\000"
.LASF540:
	.ascii	"GPG_ERR_EIEIO\000"
.LASF534:
	.ascii	"GPG_ERR_EFTYPE\000"
.LASF380:
	.ascii	"GPG_ERR_LDAP_CONNECT\000"
.LASF474:
	.ascii	"GPG_ERR_SQL_NOTFOUND\000"
.LASF351:
	.ascii	"GPG_ERR_NO_SERVICE\000"
.LASF668:
	.ascii	"iobuf_t\000"
.LASF303:
	.ascii	"GPG_ERR_FORBIDDEN\000"
.LASF733:
	.ascii	"iobuf_write\000"
.LASF791:
	.ascii	"wipememory\000"
.LASF699:
	.ascii	"file_filter\000"
.LASF24:
	.ascii	"char\000"
.LASF796:
	.ascii	"memset\000"
.LASF491:
	.ascii	"GPG_ERR_SQL_ROW\000"
.LASF573:
	.ascii	"GPG_ERR_ENOBUFS\000"
.LASF653:
	.ascii	"IOBUFCTRL_FLUSH\000"
.LASF414:
	.ascii	"GPG_ERR_LDAP_INV_DN_SYNTAX\000"
.LASF243:
	.ascii	"GPG_ERR_UNKNOWN_CURVE\000"
.LASF344:
	.ascii	"GPG_ERR_ALREADY_FETCHED\000"
.LASF625:
	.ascii	"GPG_ERR_ESTALE\000"
.LASF698:
	.ascii	"remaining\000"
.LASF440:
	.ascii	"GPG_ERR_LDAP_CANCELLED\000"
.LASF587:
	.ascii	"GPG_ERR_ENOSPC\000"
.LASF776:
	.ascii	"needed\000"
.LASF613:
	.ascii	"GPG_ERR_ERANGE\000"
.LASF577:
	.ascii	"GPG_ERR_ENOENT\000"
.LASF410:
	.ascii	"GPG_ERR_LDAP_TYPE_VALUE_EXISTS\000"
.LASF457:
	.ascii	"GPG_ERR_USER_12\000"
.LASF459:
	.ascii	"GPG_ERR_USER_14\000"
.LASF723:
	.ascii	"source\000"
.LASF130:
	.ascii	"GPG_ERR_INCOMPLETE_LINE\000"
.LASF366:
	.ascii	"GPG_ERR_LDAP_ATTR_GENERAL\000"
.LASF21:
	.ascii	"__mode_t\000"
.LASF495:
	.ascii	"GPG_ERR_EOF\000"
.LASF245:
	.ascii	"GPG_ERR_AMBIGUOUS\000"
.LASF622:
	.ascii	"GPG_ERR_ESPIPE\000"
.LASF517:
	.ascii	"GPG_ERR_ECHILD\000"
.LASF257:
	.ascii	"GPG_ERR_SEXP_STRING_TOO_LONG\000"
.LASF724:
	.ascii	"temp_size\000"
.LASF241:
	.ascii	"GPG_ERR_NO_KEYSERVER\000"
.LASF400:
	.ascii	"GPG_ERR_LDAP_PARTIAL_RESULTS\000"
.LASF727:
	.ascii	"max_read\000"
.LASF393:
	.ascii	"GPG_ERR_LDAP_PROTOCOL\000"
.LASF275:
	.ascii	"GPG_ERR_REQUEST_TOO_SHORT\000"
.LASF168:
	.ascii	"GPG_ERR_NO_PKCS15_APP\000"
.LASF112:
	.ascii	"GPG_ERR_MISSING_CERT\000"
.LASF664:
	.ascii	"IOBUF_INPUT\000"
.LASF248:
	.ascii	"GPG_ERR_BAD_CRYPT_CTX\000"
.LASF655:
	.ascii	"IOBUFCTRL_CANCEL\000"
.LASF536:
	.ascii	"GPG_ERR_EGREGIOUS\000"
.LASF229:
	.ascii	"GPG_ERR_UNKNOWN_OPTION\000"
.LASF369:
	.ascii	"GPG_ERR_LDAP_SERVICE_GENERAL\000"
.LASF379:
	.ascii	"GPG_ERR_LDAP_NOT_SUPPORTED\000"
.LASF210:
	.ascii	"GPG_ERR_ENCODING_PROBLEM\000"
.LASF368:
	.ascii	"GPG_ERR_LDAP_SECURITY_GENERAL\000"
.LASF417:
	.ascii	"GPG_ERR_LDAP_X_PROXY_AUTH_FAIL\000"
.LASF593:
	.ascii	"GPG_ERR_ENOTDIR\000"
.LASF412:
	.ascii	"GPG_ERR_LDAP_NO_SUCH_OBJ\000"
.LASF59:
	.ascii	"GPG_ERR_PUBKEY_ALGO\000"
.LASF254:
	.ascii	"GPG_ERR_UNFINISHED\000"
.LASF177:
	.ascii	"GPG_ERR_BAD_PIN_METHOD\000"
.LASF645:
	.ascii	"peeked\000"
.LASF353:
	.ascii	"GPG_ERR_BAD_PUK\000"
.LASF270:
	.ascii	"GPG_ERR_DB_CORRUPTED\000"
.LASF365:
	.ascii	"GPG_ERR_LDAP_GENERAL\000"
.LASF575:
	.ascii	"GPG_ERR_ENODATA\000"
.LASF83:
	.ascii	"GPG_ERR_VALUE_NOT_FOUND\000"
.LASF756:
	.ascii	"mode700\000"
.LASF579:
	.ascii	"GPG_ERR_ENOLCK\000"
.LASF309:
	.ascii	"GPG_ERR_ASS_GENERAL\000"
.LASF463:
	.ascii	"GPG_ERR_SQL_ERROR\000"
.LASF635:
	.ascii	"GPG_ERR_EXDEV\000"
.LASF568:
	.ascii	"GPG_ERR_ENETDOWN\000"
.LASF267:
	.ascii	"GPG_ERR_SEXP_ODD_HEX_NUMBERS\000"
.LASF29:
	.ascii	"ulong\000"
.LASF333:
	.ascii	"GPG_ERR_ENGINE_TOO_OLD\000"
.LASF578:
	.ascii	"GPG_ERR_ENOEXEC\000"
.LASF60:
	.ascii	"GPG_ERR_DIGEST_ALGO\000"
.LASF552:
	.ascii	"GPG_ERR_EL3RST\000"
.LASF501:
	.ascii	"GPG_ERR_EAFNOSUPPORT\000"
.LASF402:
	.ascii	"GPG_ERR_LDAP_ADMINLIMIT\000"
.LASF99:
	.ascii	"GPG_ERR_INV_KEYLEN\000"
.LASF358:
	.ascii	"GPG_ERR_DNS_SECTION\000"
.LASF65:
	.ascii	"GPG_ERR_CHECKSUM\000"
.LASF513:
	.ascii	"GPG_ERR_EBADSLT\000"
.LASF230:
	.ascii	"GPG_ERR_UNKNOWN_COMMAND\000"
.LASF652:
	.ascii	"IOBUFCTRL_UNDERFLOW\000"
.LASF409:
	.ascii	"GPG_ERR_LDAP_CONST_VIOLATION\000"
.LASF152:
	.ascii	"GPG_ERR_LINE_TOO_LONG\000"
.LASF571:
	.ascii	"GPG_ERR_ENFILE\000"
.LASF520:
	.ascii	"GPG_ERR_ECONNABORTED\000"
.LASF519:
	.ascii	"GPG_ERR_ECOMM\000"
.LASF702:
	.ascii	"for_write\000"
.LASF63:
	.ascii	"GPG_ERR_BAD_SIGNATURE\000"
.LASF649:
	.ascii	"file_filter_ctx_t\000"
.LASF467:
	.ascii	"GPG_ERR_SQL_BUSY\000"
.LASF466:
	.ascii	"GPG_ERR_SQL_ABORT\000"
.LASF650:
	.ascii	"IOBUFCTRL_INIT\000"
.LASF196:
	.ascii	"GPG_ERR_UNEXPECTED_TAG\000"
.LASF629:
	.ascii	"GPG_ERR_ETOOMANYREFS\000"
.LASF95:
	.ascii	"GPG_ERR_KEYSERVER\000"
.LASF483:
	.ascii	"GPG_ERR_SQL_MISUSE\000"
.LASF663:
	.ascii	"iobuf_ioctl_t\000"
.LASF773:
	.ascii	"iobuf_desc\000"
.LASF46:
	.ascii	"st_gid\000"
.LASF89:
	.ascii	"GPG_ERR_INV_KEYRING\000"
.LASF100:
	.ascii	"GPG_ERR_INV_ARG\000"
.LASF69:
	.ascii	"GPG_ERR_INV_PACKET\000"
.LASF596:
	.ascii	"GPG_ERR_ENOTSOCK\000"
.LASF300:
	.ascii	"GPG_ERR_BAD_HS_SERVER_KEX\000"
.LASF381:
	.ascii	"GPG_ERR_LDAP_NO_MEMORY\000"
.LASF391:
	.ascii	"GPG_ERR_LDAP_SUCCESS\000"
.LASF150:
	.ascii	"GPG_ERR_NO_CRL_KNOWN\000"
.LASF298:
	.ascii	"GPG_ERR_BAD_HS_SERVER_HELLO_DONE\000"
.LASF527:
	.ascii	"GPG_ERR_EDIED\000"
.LASF659:
	.ascii	"IOBUF_IOCTL_INVALIDATE_CACHE\000"
.LASF329:
	.ascii	"GPG_ERR_ASS_NO_INPUT\000"
.LASF660:
	.ascii	"IOBUF_IOCTL_NO_CACHE\000"
.LASF701:
	.ascii	"ret_len\000"
.LASF615:
	.ascii	"GPG_ERR_EREMOTE\000"
.LASF64:
	.ascii	"GPG_ERR_NO_PUBKEY\000"
.LASF8:
	.ascii	"__uint64_t\000"
.LASF32:
	.ascii	"ino_t\000"
.LASF277:
	.ascii	"GPG_ERR_OBJ_TERM_STATE\000"
.LASF419:
	.ascii	"GPG_ERR_LDAP_INV_CREDENTIALS\000"
.LASF108:
	.ascii	"GPG_ERR_UNUSABLE_PUBKEY\000"
.LASF678:
	.ascii	"filter_ov_owner\000"
.LASF5:
	.ascii	"long unsigned int\000"
.LASF58:
	.ascii	"GPG_ERR_UNKNOWN_VERSION\000"
.LASF469:
	.ascii	"GPG_ERR_SQL_NOMEM\000"
.LASF371:
	.ascii	"GPG_ERR_LDAP_E_GENERAL\000"
.LASF320:
	.ascii	"GPG_ERR_ASS_NOT_A_CLIENT\000"
.LASF589:
	.ascii	"GPG_ERR_ENOSTR\000"
.LASF666:
	.ascii	"IOBUF_OUTPUT\000"
.LASF102:
	.ascii	"GPG_ERR_INV_URI\000"
.LASF421:
	.ascii	"GPG_ERR_LDAP_BUSY\000"
.LASF308:
	.ascii	"GPG_ERR_FALSE\000"
.LASF677:
	.ascii	"filter_ov\000"
.LASF48:
	.ascii	"st_size\000"
.LASF515:
	.ascii	"GPG_ERR_EBUSY\000"
.LASF672:
	.ascii	"ntotal\000"
.LASF272:
	.ascii	"GPG_ERR_NO_NAME\000"
.LASF286:
	.ascii	"GPG_ERR_NO_CIPHER\000"
.LASF470:
	.ascii	"GPG_ERR_SQL_READONLY\000"
.LASF543:
	.ascii	"GPG_ERR_EINTR\000"
.LASF580:
	.ascii	"GPG_ERR_ENOLINK\000"
.LASF626:
	.ascii	"GPG_ERR_ESTRPIPE\000"
.LASF746:
	.ascii	"rel_ov\000"
.LASF641:
	.ascii	"keep_open\000"
.LASF251:
	.ascii	"GPG_ERR_BROKEN_SECKEY\000"
.LASF528:
	.ascii	"GPG_ERR_EDOM\000"
.LASF658:
	.ascii	"IOBUF_IOCTL_KEEP_OPEN\000"
.LASF477:
	.ascii	"GPG_ERR_SQL_PROTOCOL\000"
.LASF279:
	.ascii	"GPG_ERR_CERT_TOO_LARGE\000"
.LASF237:
	.ascii	"GPG_ERR_TOO_MANY\000"
.LASF119:
	.ascii	"GPG_ERR_EOF_GCRYPT\000"
.LASF757:
	.ascii	"iobuf_open\000"
.LASF209:
	.ascii	"GPG_ERR_SIG_EXPIRED\000"
.LASF240:
	.ascii	"GPG_ERR_MISSING_ISSUER_CERT\000"
.LASF647:
	.ascii	"upeeked\000"
.LASF597:
	.ascii	"GPG_ERR_ENOTSUP\000"
.LASF218:
	.ascii	"GPG_ERR_UNSUPPORTED_CRL_VERSION\000"
.LASF479:
	.ascii	"GPG_ERR_SQL_SCHEMA\000"
.LASF620:
	.ascii	"GPG_ERR_ESHUTDOWN\000"
.LASF714:
	.ascii	"newpos\000"
.LASF686:
	.ascii	"close_cache_t\000"
.LASF191:
	.ascii	"GPG_ERR_ELEMENT_NOT_FOUND\000"
.LASF204:
	.ascii	"GPG_ERR_UNKNOWN_ALGORITHM\000"
.LASF765:
	.ascii	"iobuf_cancel\000"
.LASF182:
	.ascii	"GPG_ERR_WRONG_BLOB_TYPE\000"
.LASF123:
	.ascii	"GPG_ERR_NO_OBJ\000"
.LASF278:
	.ascii	"GPG_ERR_NO_CERT_CHAIN\000"
.LASF167:
	.ascii	"GPG_ERR_CARD_NOT_PRESENT\000"
.LASF107:
	.ascii	"GPG_ERR_NOT_PROCESSED\000"
.LASF464:
	.ascii	"GPG_ERR_SQL_INTERNAL\000"
.LASF306:
	.ascii	"GPG_ERR_INV_LOCK_OBJ\000"
.LASF637:
	.ascii	"GPG_ERR_CODE_DIM\000"
.LASF268:
	.ascii	"GPG_ERR_SEXP_BAD_OCT_CHAR\000"
.LASF616:
	.ascii	"GPG_ERR_EREMOTEIO\000"
.LASF14:
	.ascii	"__blkcnt_t\000"
.LASF692:
	.ascii	"block_filter_ctx_t\000"
.LASF165:
	.ascii	"GPG_ERR_CARD_REMOVED\000"
.LASF77:
	.ascii	"GPG_ERR_NO_ENCODING_METHOD\000"
.LASF302:
	.ascii	"GPG_ERR_BOGUS_STRING\000"
.LASF383:
	.ascii	"GPG_ERR_LDAP_USER_CANCELLED\000"
.LASF546:
	.ascii	"GPG_ERR_EISCONN\000"
.LASF716:
	.ascii	"iobuf_get_fd\000"
.LASF219:
	.ascii	"GPG_ERR_INV_CERT_OBJ\000"
.LASF511:
	.ascii	"GPG_ERR_EBADRPC\000"
.LASF745:
	.ascii	"iobuf_push_filter2\000"
.LASF498:
	.ascii	"GPG_ERR_EADDRINUSE\000"
.LASF20:
	.ascii	"__ino_t\000"
.LASF772:
	.ascii	"iobuf_print_chain\000"
.LASF364:
	.ascii	"GPG_ERR_DNS_TIMEOUT\000"
.LASF522:
	.ascii	"GPG_ERR_ECONNRESET\000"
.LASF684:
	.ascii	"close_cache_s\000"
.LASF764:
	.ascii	"iobuf_temp\000"
.LASF7:
	.ascii	"__uint32_t\000"
.LASF599:
	.ascii	"GPG_ERR_ENOTUNIQ\000"
.LASF670:
	.ascii	"nlimit\000"
.LASF6:
	.ascii	"long long int\000"
.LASF92:
	.ascii	"GPG_ERR_INV_USER_ID\000"
.LASF161:
	.ascii	"GPG_ERR_CORRUPTED_PROTECTION\000"
.LASF388:
	.ascii	"GPG_ERR_LDAP_ENCODING\000"
.LASF122:
	.ascii	"GPG_ERR_TOO_LARGE\000"
.LASF708:
	.ascii	"maxlen\000"
.LASF782:
	.ascii	"fd_cache_synchronize\000"
.LASF386:
	.ascii	"GPG_ERR_LDAP_TIMEOUT\000"
.LASF433:
	.ascii	"GPG_ERR_LDAP_VLV\000"
.LASF553:
	.ascii	"GPG_ERR_ELIBACC\000"
.LASF767:
	.ascii	"iobuf_close\000"
.LASF287:
	.ascii	"GPG_ERR_MISSING_CLIENT_CERT\000"
.LASF90:
	.ascii	"GPG_ERR_TRUSTDB\000"
.LASF710:
	.ascii	"iobuf_set_partial_body_length_mode\000"
.LASF334:
	.ascii	"GPG_ERR_WINDOW_TOO_SMALL\000"
.LASF512:
	.ascii	"GPG_ERR_EBADRQC\000"
.LASF585:
	.ascii	"GPG_ERR_ENOPKG\000"
.LASF481:
	.ascii	"GPG_ERR_SQL_CONSTRAINT\000"
.LASF786:
	.ascii	"tfp_printf\000"
.LASF665:
	.ascii	"IOBUF_INPUT_TEMP\000"
.LASF247:
	.ascii	"GPG_ERR_WRONG_CRYPT_CTX\000"
.LASF397:
	.ascii	"GPG_ERR_LDAP_COMPARE_TRUE\000"
.LASF753:
	.ascii	"do_iobuf_fdopen\000"
.LASF732:
	.ascii	"iobuf_get_real_fname\000"
.LASF98:
	.ascii	"GPG_ERR_WEAK_KEY\000"
.LASF115:
	.ascii	"GPG_ERR_NOT_SUPPORTED\000"
.LASF711:
	.ascii	"iobuf_get_fname_nonnull\000"
.LASF643:
	.ascii	"eof_seen\000"
.LASF696:
	.ascii	"control\000"
.LASF743:
	.ascii	"underflow\000"
.LASF694:
	.ascii	"control_mode_str\000"
.LASF255:
	.ascii	"GPG_ERR_BUFFER_TOO_SHORT\000"
.LASF290:
	.ascii	"GPG_ERR_BAD_TICKET\000"
.LASF604:
	.ascii	"GPG_ERR_EPFNOSUPPORT\000"
.LASF81:
	.ascii	"GPG_ERR_NO_VALUE\000"
.LASF555:
	.ascii	"GPG_ERR_ELIBEXEC\000"
.LASF687:
	.ascii	"count\000"
.LASF139:
	.ascii	"GPG_ERR_UNSUPPORTED_ALGORITHM\000"
.LASF392:
	.ascii	"GPG_ERR_LDAP_OPERATIONS\000"
.LASF632:
	.ascii	"GPG_ERR_EUNATCH\000"
.LASF725:
	.ascii	"nread\000"
.LASF220:
	.ascii	"GPG_ERR_UNKNOWN_NAME\000"
.LASF502:
	.ascii	"GPG_ERR_EAGAIN\000"
.LASF11:
	.ascii	"unsigned int\000"
.LASF282:
	.ascii	"GPG_ERR_UNEXPECTED_MSG\000"
.LASF66:
	.ascii	"GPG_ERR_BAD_PASSPHRASE\000"
.LASF342:
	.ascii	"GPG_ERR_UNKNOWN_FLAG\000"
.LASF72:
	.ascii	"GPG_ERR_NO_SECKEY\000"
.LASF749:
	.ascii	"intval\000"
.LASF30:
	.ascii	"blkcnt_t\000"
.LASF690:
	.ascii	"buflen\000"
.LASF435:
	.ascii	"GPG_ERR_LDAP_CUP_RESOURCE_LIMIT\000"
.LASF109:
	.ascii	"GPG_ERR_UNUSABLE_SECKEY\000"
.LASF266:
	.ascii	"GPG_ERR_SEXP_BAD_HEX_CHAR\000"
.LASF442:
	.ascii	"GPG_ERR_LDAP_TOO_LATE\000"
.LASF608:
	.ascii	"GPG_ERR_EPROGMISMATCH\000"
.LASF349:
	.ascii	"GPG_ERR_NO_KEYBOXD\000"
.LASF214:
	.ascii	"GPG_ERR_MODULE_NOT_FOUND\000"
.LASF249:
	.ascii	"GPG_ERR_CRYPT_CTX_CONFLICT\000"
.LASF315:
	.ascii	"GPG_ERR_ASS_LINE_TOO_LONG\000"
.LASF509:
	.ascii	"GPG_ERR_EBADMSG\000"
.LASF560:
	.ascii	"GPG_ERR_EMEDIUMTYPE\000"
.LASF345:
	.ascii	"GPG_ERR_TRY_LATER\000"
.LASF611:
	.ascii	"GPG_ERR_EPROTONOSUPPORT\000"
.LASF384:
	.ascii	"GPG_ERR_LDAP_FILTER\000"
.LASF253:
	.ascii	"GPG_ERR_FULLY_CANCELED\000"
.LASF619:
	.ascii	"GPG_ERR_ERPCMISMATCH\000"
.LASF492:
	.ascii	"GPG_ERR_SQL_DONE\000"
.LASF750:
	.ascii	"ptrval\000"
.LASF82:
	.ascii	"GPG_ERR_NOT_FOUND\000"
.LASF437:
	.ascii	"GPG_ERR_LDAP_CUP_INV_DATA\000"
.LASF478:
	.ascii	"GPG_ERR_SQL_EMPTY\000"
.LASF486:
	.ascii	"GPG_ERR_SQL_FORMAT\000"
.LASF590:
	.ascii	"GPG_ERR_ENOSYS\000"
.LASF341:
	.ascii	"GPG_ERR_TOO_OLD\000"
.LASF759:
	.ascii	"special_filenames\000"
.LASF269:
	.ascii	"GPG_ERR_SUBKEYS_EXP_OR_REV\000"
.LASF744:
	.ascii	"iobuf_pop_filter\000"
.LASF524:
	.ascii	"GPG_ERR_EDEADLK\000"
.LASF265:
	.ascii	"GPG_ERR_SEXP_UNEXPECTED_PUNC\000"
.LASF195:
	.ascii	"GPG_ERR_INV_KEYINFO\000"
.LASF662:
	.ascii	"IOBUF_IOCTL_PEEK\000"
.LASF614:
	.ascii	"GPG_ERR_EREMCHG\000"
.LASF572:
	.ascii	"GPG_ERR_ENOANO\000"
.LASF636:
	.ascii	"GPG_ERR_EXFULL\000"
.LASF430:
	.ascii	"GPG_ERR_LDAP_NO_OBJ_CLASS_MODS\000"
.LASF337:
	.ascii	"GPG_ERR_USER_ID_EXISTS\000"
.LASF490:
	.ascii	"GPG_ERR_SQL_WARNING\000"
.LASF549:
	.ascii	"GPG_ERR_EL2HLT\000"
.LASF198:
	.ascii	"GPG_ERR_NO_CMS_OBJ\000"
.LASF566:
	.ascii	"GPG_ERR_ENAVAIL\000"
.LASF657:
	.ascii	"IOBUFCTRL_USER\000"
.LASF145:
	.ascii	"GPG_ERR_INV_PARAMETER\000"
.LASF250:
	.ascii	"GPG_ERR_BROKEN_PUBKEY\000"
.LASF113:
	.ascii	"GPG_ERR_NO_DATA\000"
.LASF441:
	.ascii	"GPG_ERR_LDAP_NO_SUCH_OPERATION\000"
.LASF94:
	.ascii	"GPG_ERR_TIME_CONFLICT\000"
.LASF600:
	.ascii	"GPG_ERR_ENXIO\000"
.LASF185:
	.ascii	"GPG_ERR_PIN_BLOCKED\000"
.LASF215:
	.ascii	"GPG_ERR_INV_OID_STRING\000"
.LASF751:
	.ascii	"iobuf_fdopen\000"
.LASF312:
	.ascii	"GPG_ERR_ASS_INV_RESPONSE\000"
.LASF211:
	.ascii	"GPG_ERR_INV_STATE\000"
.LASF372:
	.ascii	"GPG_ERR_LDAP_X_GENERAL\000"
.LASF377:
	.ascii	"GPG_ERR_LDAP_NO_RESULTS\000"
.LASF44:
	.ascii	"st_nlink\000"
.LASF33:
	.ascii	"off_t\000"
.LASF37:
	.ascii	"mode_t\000"
.LASF57:
	.ascii	"GPG_ERR_UNKNOWN_PACKET\000"
.LASF244:
	.ascii	"GPG_ERR_DUP_KEY\000"
.LASF802:
	.ascii	"peek_more\000"
.LASF598:
	.ascii	"GPG_ERR_ENOTTY\000"
.LASF489:
	.ascii	"GPG_ERR_SQL_NOTICE\000"
.LASF688:
	.ascii	"partial\000"
.LASF313:
	.ascii	"GPG_ERR_ASS_INV_VALUE\000"
.LASF790:
	.ascii	"xmalloc\000"
.LASF778:
	.ascii	"fd_cache_open\000"
.LASF731:
	.ascii	"iobuf_writestr\000"
.LASF535:
	.ascii	"GPG_ERR_EGRATUITOUS\000"
.LASF186:
	.ascii	"GPG_ERR_USE_CONDITIONS\000"
.LASF695:
	.ascii	"opaque\000"
.LASF554:
	.ascii	"GPG_ERR_ELIBBAD\000"
.LASF13:
	.ascii	"long double\000"
.LASF399:
	.ascii	"GPG_ERR_LDAP_STRONG_AUTH_RQRD\000"
.LASF654:
	.ascii	"IOBUFCTRL_DESC\000"
.LASF238:
	.ascii	"GPG_ERR_LIMIT_REACHED\000"
.LASF274:
	.ascii	"GPG_ERR_LEGACY_KEY\000"
.LASF295:
	.ascii	"GPG_ERR_BAD_HS_CHANGE_CIPHER\000"
.LASF758:
	.ascii	"do_open\000"
.LASF70:
	.ascii	"GPG_ERR_INV_ARMOR\000"
.LASF136:
	.ascii	"GPG_ERR_ASSUAN\000"
.LASF97:
	.ascii	"GPG_ERR_TRIBUTE_TO_D_A\000"
.LASF465:
	.ascii	"GPG_ERR_SQL_PERM\000"
.LASF798:
	.ascii	"GNU C17 10.3.1 20210621 (release) -mcpu=cortex-a7 -"
	.ascii	"mfloat-abi=soft -marm -march=armv7ve -g -O2 -fpic -"
	.ascii	"ffreestanding -ffunction-sections -fdata-sections -"
	.ascii	"fno-common\000"
.LASF125:
	.ascii	"GPG_ERR_CONFLICT\000"
.LASF41:
	.ascii	"st_dev\000"
.LASF718:
	.ascii	"iobuf_set_limit\000"
.LASF87:
	.ascii	"GPG_ERR_SIG_CLASS\000"
.LASF208:
	.ascii	"GPG_ERR_KEY_EXPIRED\000"
.LASF39:
	.ascii	"timespec\000"
.LASF296:
	.ascii	"GPG_ERR_BAD_HS_CLIENT_HELLO\000"
.LASF681:
	.ascii	"subno\000"
.LASF544:
	.ascii	"GPG_ERR_EINVAL\000"
.LASF80:
	.ascii	"GPG_ERR_INV_ATTR\000"
.LASF184:
	.ascii	"GPG_ERR_HARDWARE\000"
.LASF126:
	.ascii	"GPG_ERR_INV_CIPHER_MODE\000"
.LASF382:
	.ascii	"GPG_ERR_LDAP_PARAM\000"
.LASF592:
	.ascii	"GPG_ERR_ENOTCONN\000"
.LASF493:
	.ascii	"GPG_ERR_MISSING_ERRNO\000"
.LASF129:
	.ascii	"GPG_ERR_TRUNCATED\000"
.LASF770:
	.ascii	"bufsize\000"
.LASF106:
	.ascii	"GPG_ERR_NOT_ENCRYPTED\000"
.LASF777:
	.ascii	"blen\000"
.LASF359:
	.ascii	"GPG_ERR_DNS_ADDRESS\000"
.LASF159:
	.ascii	"GPG_ERR_UNKNOWN_SEXP\000"
.LASF682:
	.ascii	"size\000"
.LASF217:
	.ascii	"GPG_ERR_INV_CRL_OBJ\000"
.LASF183:
	.ascii	"GPG_ERR_MISSING_VALUE\000"
.LASF563:
	.ascii	"GPG_ERR_EMSGSIZE\000"
.LASF120:
	.ascii	"GPG_ERR_INV_OBJ\000"
.LASF9:
	.ascii	"long long unsigned int\000"
.LASF288:
	.ascii	"GPG_ERR_CLOSE_NOTIFY\000"
.LASF667:
	.ascii	"IOBUF_OUTPUT_TEMP\000"
.LASF213:
	.ascii	"GPG_ERR_MISSING_ACTION\000"
.LASF389:
	.ascii	"GPG_ERR_LDAP_LOCAL\000"
.LASF22:
	.ascii	"__off_t\000"
.LASF761:
	.ascii	"print_only\000"
.LASF559:
	.ascii	"GPG_ERR_ELOOP\000"
.LASF396:
	.ascii	"GPG_ERR_LDAP_COMPARE_FALSE\000"
.LASF631:
	.ascii	"GPG_ERR_EUCLEAN\000"
.LASF500:
	.ascii	"GPG_ERR_EADV\000"
.LASF321:
	.ascii	"GPG_ERR_ASS_SERVER_START\000"
.LASF503:
	.ascii	"GPG_ERR_EALREADY\000"
.LASF376:
	.ascii	"GPG_ERR_LDAP_CLIENT_LOOP\000"
.LASF591:
	.ascii	"GPG_ERR_ENOTBLK\000"
.LASF473:
	.ascii	"GPG_ERR_SQL_CORRUPT\000"
.LASF734:
	.ascii	"iobuf_writebyte\000"
.LASF748:
	.ascii	"iobuf_ioctl\000"
.LASF340:
	.ascii	"GPG_ERR_TOO_YOUNG\000"
.LASF525:
	.ascii	"GPG_ERR_EDEADLOCK\000"
.LASF582:
	.ascii	"GPG_ERR_ENOMEM\000"
.LASF508:
	.ascii	"GPG_ERR_EBADFD\000"
.LASF354:
	.ascii	"GPG_ERR_NO_RESET_CODE\000"
.LASF135:
	.ascii	"GPG_ERR_ASSUAN_SERVER_FAULT\000"
.LASF567:
	.ascii	"GPG_ERR_ENEEDAUTH\000"
.LASF146:
	.ascii	"GPG_ERR_WRONG_CARD\000"
.LASF160:
	.ascii	"GPG_ERR_UNSUPPORTED_PROTECTION\000"
.LASF618:
	.ascii	"GPG_ERR_EROFS\000"
.LASF405:
	.ascii	"GPG_ERR_LDAP_SASL_BIND_INPROG\000"
.LASF327:
	.ascii	"GPG_ERR_ASS_SYNTAX\000"
.LASF117:
	.ascii	"GPG_ERR_TIMEOUT\000"
.LASF395:
	.ascii	"GPG_ERR_LDAP_SIZELIMIT\000"
.LASF623:
	.ascii	"GPG_ERR_ESRCH\000"
.LASF532:
	.ascii	"GPG_ERR_EFAULT\000"
.LASF548:
	.ascii	"GPG_ERR_EISNAM\000"
.LASF385:
	.ascii	"GPG_ERR_LDAP_AUTH_UNKNOWN\000"
.LASF75:
	.ascii	"GPG_ERR_COMPR_ALGO\000"
.LASF156:
	.ascii	"GPG_ERR_CERT_EXPIRED\000"
.LASF455:
	.ascii	"GPG_ERR_USER_10\000"
.LASF456:
	.ascii	"GPG_ERR_USER_11\000"
.LASF207:
	.ascii	"GPG_ERR_DECRYPT_FAILED\000"
.LASF458:
	.ascii	"GPG_ERR_USER_13\000"
.LASF322:
	.ascii	"GPG_ERR_ASS_READ_ERROR\000"
.LASF460:
	.ascii	"GPG_ERR_USER_15\000"
.LASF461:
	.ascii	"GPG_ERR_USER_16\000"
.LASF697:
	.ascii	"close_cache\000"
.LASF357:
	.ascii	"GPG_ERR_DNS_UNKNOWN\000"
.LASF561:
	.ascii	"GPG_ERR_EMFILE\000"
.LASF506:
	.ascii	"GPG_ERR_EBADE\000"
.LASF507:
	.ascii	"GPG_ERR_EBADF\000"
.LASF627:
	.ascii	"GPG_ERR_ETIME\000"
.LASF586:
	.ascii	"GPG_ERR_ENOPROTOOPT\000"
.LASF661:
	.ascii	"IOBUF_IOCTL_FSYNC\000"
.LASF729:
	.ascii	"desc\000"
.LASF781:
	.ascii	"cflag\000"
.LASF510:
	.ascii	"GPG_ERR_EBADR\000"
.LASF231:
	.ascii	"GPG_ERR_NOT_OPERATIONAL\000"
.LASF740:
	.ascii	"target\000"
.LASF56:
	.ascii	"GPG_ERR_GENERAL\000"
.LASF68:
	.ascii	"GPG_ERR_KEYRING_OPEN\000"
.LASF131:
	.ascii	"GPG_ERR_INV_RESPONSE\000"
.LASF722:
	.ascii	"dest\000"
.LASF804:
	.ascii	"gpg_error_from_syserror\000"
.LASF273:
	.ascii	"GPG_ERR_NO_KEY\000"
.LASF420:
	.ascii	"GPG_ERR_LDAP_INSUFFICIENT_ACC\000"
.LASF674:
	.ascii	"filter_eof\000"
.LASF193:
	.ascii	"GPG_ERR_INV_TAG\000"
.LASF316:
	.ascii	"GPG_ERR_ASS_NESTED_COMMANDS\000"
.LASF390:
	.ascii	"GPG_ERR_LDAP_SERVER_DOWN\000"
.LASF621:
	.ascii	"GPG_ERR_ESOCKTNOSUPPORT\000"
.LASF297:
	.ascii	"GPG_ERR_BAD_HS_SERVER_HELLO\000"
.LASF737:
	.ascii	"iobuf_readbyte\000"
.LASF771:
	.ascii	"number\000"
.LASF276:
	.ascii	"GPG_ERR_REQUEST_TOO_LONG\000"
.LASF104:
	.ascii	"GPG_ERR_UNKNOWN_HOST\000"
.LASF166:
	.ascii	"GPG_ERR_INV_CARD\000"
.LASF111:
	.ascii	"GPG_ERR_BAD_CERT_CHAIN\000"
.LASF158:
	.ascii	"GPG_ERR_UNSUPPORTED_CERT\000"
.LASF706:
	.ascii	"max_length\000"
.LASF794:
	.ascii	"strchr\000"
.LASF634:
	.ascii	"GPG_ERR_EWOULDBLOCK\000"
.LASF487:
	.ascii	"GPG_ERR_SQL_RANGE\000"
.LASF55:
	.ascii	"GPG_ERR_NO_ERROR\000"
.LASF730:
	.ascii	"iobuf_write_temp\000"
.LASF73:
	.ascii	"GPG_ERR_WRONG_SECKEY\000"
.LASF703:
	.ascii	"iobuf_read_line\000"
.LASF416:
	.ascii	"GPG_ERR_LDAP_ALIAS_DEREF\000"
.LASF335:
	.ascii	"GPG_ERR_WINDOW_TOO_LARGE\000"
.LASF173:
	.ascii	"GPG_ERR_INV_ID\000"
.LASF236:
	.ascii	"GPG_ERR_MISSING_KEY\000"
.LASF188:
	.ascii	"GPG_ERR_INV_CRL\000"
.LASF181:
	.ascii	"GPG_ERR_NOTHING_FOUND\000"
.LASF574:
	.ascii	"GPG_ERR_ENOCSI\000"
.LASF504:
	.ascii	"GPG_ERR_EAUTH\000"
.LASF689:
	.ascii	"buffer\000"
.LASF110:
	.ascii	"GPG_ERR_INV_VALUE\000"
.LASF550:
	.ascii	"GPG_ERR_EL2NSYNC\000"
.LASF609:
	.ascii	"GPG_ERR_EPROGUNAVAIL\000"
.LASF639:
	.ascii	"byte\000"
.LASF800:
	.ascii	"/home/fred/code/rpi-qemu-gdb/Claude/raspi3b_qemu_\000"
.LASF74:
	.ascii	"GPG_ERR_BAD_KEY\000"
.LASF680:
	.ascii	"chain\000"
.LASF134:
	.ascii	"GPG_ERR_INV_DATA\000"
.LASF216:
	.ascii	"GPG_ERR_INV_TIME\000"
.LASF2:
	.ascii	"short int\000"
.LASF610:
	.ascii	"GPG_ERR_EPROTO\000"
.LASF25:
	.ascii	"uint64_t\000"
.LASF651:
	.ascii	"IOBUFCTRL_FREE\000"
.LASF762:
	.ascii	"iobuf_is_pipe_filename\000"
.LASF558:
	.ascii	"GPG_ERR_ELNRNG\000"
.LASF605:
	.ascii	"GPG_ERR_EPIPE\000"
.LASF628:
	.ascii	"GPG_ERR_ETIMEDOUT\000"
.LASF427:
	.ascii	"GPG_ERR_LDAP_NOT_ALLOW_NONLEAF\000"
.LASF28:
	.ascii	"tv_nsec\000"
.LASF526:
	.ascii	"GPG_ERR_EDESTADDRREQ\000"
.LASF304:
	.ascii	"GPG_ERR_KEY_DISABLED\000"
.LASF547:
	.ascii	"GPG_ERR_EISDIR\000"
.LASF176:
	.ascii	"GPG_ERR_UNSUPPORTED_PROTOCOL\000"
.LASF656:
	.ascii	"IOBUFCTRL_PEEK\000"
.LASF235:
	.ascii	"GPG_ERR_NO_ENGINE\000"
.LASF408:
	.ascii	"GPG_ERR_LDAP_BAD_MATCHING\000"
.LASF10:
	.ascii	"__int_least64_t\000"
.LASF356:
	.ascii	"GPG_ERR_SYSTEM_BUG\000"
.LASF407:
	.ascii	"GPG_ERR_LDAP_UNDEFINED_TYPE\000"
.LASF438:
	.ascii	"GPG_ERR_LDAP_CUP_UNSUP_SCHEME\000"
.LASF704:
	.ascii	"addr_of_buffer\000"
.LASF562:
	.ascii	"GPG_ERR_EMLINK\000"
.LASF565:
	.ascii	"GPG_ERR_ENAMETOOLONG\000"
.LASF432:
	.ascii	"GPG_ERR_LDAP_AFFECTS_MULT_DSAS\000"
.LASF640:
	.ascii	"gnupg_fd_t\000"
.LASF403:
	.ascii	"GPG_ERR_LDAP_UNAVAIL_CRIT_EXTN\000"
.LASF799:
	.ascii	"src/common/iobuf.c\000"
.LASF212:
	.ascii	"GPG_ERR_DUP_VALUE\000"
.LASF418:
	.ascii	"GPG_ERR_LDAP_BAD_AUTH\000"
.LASF676:
	.ascii	"filter\000"
.LASF187:
	.ascii	"GPG_ERR_PIN_NOT_SYNCED\000"
.LASF378:
	.ascii	"GPG_ERR_LDAP_CONTROL_NOT_FOUND\000"
.LASF728:
	.ascii	"iobuf_temp_to_buffer\000"
.LASF128:
	.ascii	"GPG_ERR_INV_HANDLE\000"
.LASF331:
	.ascii	"GPG_ERR_ASS_PARAMETER\000"
.LASF792:
	.ascii	"strlen\000"
.LASF138:
	.ascii	"GPG_ERR_INV_SEXP\000"
.LASF556:
	.ascii	"GPG_ERR_ELIBMAX\000"
.LASF283:
	.ascii	"GPG_ERR_COMPR_FAILED\000"
.LASF262:
	.ascii	"GPG_ERR_SEXP_ZERO_PREFIX\000"
.LASF739:
	.ascii	"clear_pending_eof\000"
.LASF175:
	.ascii	"GPG_ERR_SCDAEMON\000"
.LASF375:
	.ascii	"GPG_ERR_LDAP_REFERRAL_LIMIT\000"
.LASF199:
	.ascii	"GPG_ERR_INV_CMS_OBJ\000"
.LASF785:
	.ascii	"memcpy\000"
.LASF43:
	.ascii	"st_mode\000"
.LASF18:
	.ascii	"__uid_t\000"
.LASF350:
	.ascii	"GPG_ERR_KEYBOXD\000"
.LASF252:
	.ascii	"GPG_ERR_MAC_ALGO\000"
.LASF192:
	.ascii	"GPG_ERR_IDENTIFIER_NOT_FOUND\000"
.LASF155:
	.ascii	"GPG_ERR_BAD_CA_CERT\000"
.LASF31:
	.ascii	"blksize_t\000"
.LASF679:
	.ascii	"real_fname\000"
.LASF352:
	.ascii	"GPG_ERR_SERVICE\000"
.LASF233:
	.ascii	"GPG_ERR_NO_PIN\000"
.LASF343:
	.ascii	"GPG_ERR_INV_ORDER\000"
.LASF144:
	.ascii	"GPG_ERR_BAD_DATA\000"
.LASF669:
	.ascii	"iobuf_struct\000"
.LASF485:
	.ascii	"GPG_ERR_SQL_AUTH\000"
.LASF147:
	.ascii	"GPG_ERR_NO_DIRMNGR\000"
.LASF471:
	.ascii	"GPG_ERR_SQL_INTERRUPT\000"
.LASF434:
	.ascii	"GPG_ERR_LDAP_OTHER\000"
.LASF194:
	.ascii	"GPG_ERR_INV_LENGTH\000"
.LASF164:
	.ascii	"GPG_ERR_CARD_RESET\000"
.LASF326:
	.ascii	"GPG_ERR_ASS_UNKNOWN_CMD\000"
.LASF284:
	.ascii	"GPG_ERR_WOULD_WRAP\000"
.LASF576:
	.ascii	"GPG_ERR_ENODEV\000"
.LASF264:
	.ascii	"GPG_ERR_SEXP_UNMATCHED_DH\000"
.LASF717:
	.ascii	"iobuf_get_filelength\000"
.LASF630:
	.ascii	"GPG_ERR_ETXTBSY\000"
.LASF324:
	.ascii	"GPG_ERR_ASS_TOO_MUCH_DATA\000"
.LASF497:
	.ascii	"GPG_ERR_EACCES\000"
.LASF602:
	.ascii	"GPG_ERR_EOVERFLOW\000"
.LASF736:
	.ascii	"iobuf_read\000"
.LASF595:
	.ascii	"GPG_ERR_ENOTNAM\000"
.LASF601:
	.ascii	"GPG_ERR_EOPNOTSUPP\000"
.LASF16:
	.ascii	"_off_t\000"
.LASF584:
	.ascii	"GPG_ERR_ENONET\000"
.LASF521:
	.ascii	"GPG_ERR_ECONNREFUSED\000"
.LASF780:
	.ascii	"oflag\000"
.LASF330:
	.ascii	"GPG_ERR_ASS_NO_OUTPUT\000"
.LASF170:
	.ascii	"GPG_ERR_CONFIGURATION\000"
.LASF633:
	.ascii	"GPG_ERR_EUSERS\000"
.LASF3:
	.ascii	"short unsigned int\000"
.LASF439:
	.ascii	"GPG_ERR_LDAP_CUP_RELOAD\000"
.LASF85:
	.ascii	"GPG_ERR_BAD_MPI\000"
.LASF221:
	.ascii	"GPG_ERR_LOCALE_PROBLEM\000"
.LASF607:
	.ascii	"GPG_ERR_EPROCUNAVAIL\000"
.LASF142:
	.ascii	"GPG_ERR_BAD_PIN\000"
.LASF735:
	.ascii	"iobuf_peek\000"
.LASF564:
	.ascii	"GPG_ERR_EMULTIHOP\000"
.LASF305:
	.ascii	"GPG_ERR_KEY_ON_CARD\000"
.LASF741:
	.ascii	"dummy_len\000"
.LASF88:
	.ascii	"GPG_ERR_RESOURCE_LIMIT\000"
.LASF606:
	.ascii	"GPG_ERR_EPROCLIM\000"
.LASF415:
	.ascii	"GPG_ERR_LDAP_IS_LEAF\000"
.LASF336:
	.ascii	"GPG_ERR_MISSING_ENVVAR\000"
.LASF648:
	.ascii	"fname\000"
.LASF127:
	.ascii	"GPG_ERR_INV_FLAG\000"
.LASF760:
	.ascii	"opentype\000"
.LASF93:
	.ascii	"GPG_ERR_UNEXPECTED\000"
.LASF468:
	.ascii	"GPG_ERR_SQL_LOCKED\000"
.LASF505:
	.ascii	"GPG_ERR_EBACKGROUND\000"
.LASF179:
	.ascii	"GPG_ERR_UNSUPPORTED_OPERATION\000"
.LASF285:
	.ascii	"GPG_ERR_FATAL_ALERT\000"
.LASF42:
	.ascii	"st_ino\000"
.LASF720:
	.ascii	"temp\000"
.LASF256:
	.ascii	"GPG_ERR_SEXP_INV_LEN_SPEC\000"
.LASF795:
	.ascii	"tfp_sprintf\000"
.LASF624:
	.ascii	"GPG_ERR_ESRMNT\000"
.LASF23:
	.ascii	"__nlink_t\000"
.LASF424:
	.ascii	"GPG_ERR_LDAP_LOOP_DETECT\000"
.LASF149:
	.ascii	"GPG_ERR_CERT_REVOKED\000"
.LASF426:
	.ascii	"GPG_ERR_LDAP_OBJ_CLS_VIOLATION\000"
.LASF539:
	.ascii	"GPG_ERR_EIDRM\000"
.LASF323:
	.ascii	"GPG_ERR_ASS_WRITE_ERROR\000"
.LASF317:
	.ascii	"GPG_ERR_ASS_NO_DATA_CB\000"
.LASF685:
	.ascii	"next\000"
.LASF36:
	.ascii	"gid_t\000"
.LASF406:
	.ascii	"GPG_ERR_LDAP_NO_SUCH_ATTRIBUTE\000"
.LASF394:
	.ascii	"GPG_ERR_LDAP_TIMELIMIT\000"
.LASF404:
	.ascii	"GPG_ERR_LDAP_CONFIDENT_RQRD\000"
.LASF200:
	.ascii	"GPG_ERR_UNKNOWN_CMS_OBJ\000"
.LASF523:
	.ascii	"GPG_ERR_ED\000"
.LASF594:
	.ascii	"GPG_ERR_ENOTEMPTY\000"
.LASF27:
	.ascii	"tv_sec\000"
.LASF715:
	.ascii	"iobuf_tell\000"
.LASF411:
	.ascii	"GPG_ERR_LDAP_INV_SYNTAX\000"
.LASF114:
	.ascii	"GPG_ERR_BUG\000"
.LASF789:
	.ascii	"xcalloc\000"
.LASF355:
	.ascii	"GPG_ERR_BAD_RESET_CODE\000"
.LASF768:
	.ascii	"a_chain\000"
.LASF137:
	.ascii	"GPG_ERR_INV_SESSION_KEY\000"
.LASF189:
	.ascii	"GPG_ERR_BAD_BER\000"
.LASF261:
	.ascii	"GPG_ERR_SEXP_BAD_QUOTATION\000"
.LASF49:
	.ascii	"st_atim\000"
.LASF339:
	.ascii	"GPG_ERR_DUP_NAME\000"
.LASF116:
	.ascii	"GPG_ERR_INV_OP\000"
	.ident	"GCC: (15:10.3-2021.07-4) 10.3.1 20210621 (release)"
