	.cpu cortex-a7
	.eabi_attribute 20, 1	@ Tag_ABI_FP_denormal
	.eabi_attribute 21, 1	@ Tag_ABI_FP_exceptions
	.eabi_attribute 23, 3	@ Tag_ABI_FP_number_model
	.eabi_attribute 24, 1	@ Tag_ABI_align8_needed
	.eabi_attribute 25, 1	@ Tag_ABI_align8_preserved
	.eabi_attribute 26, 1	@ Tag_ABI_enum_size
	.eabi_attribute 30, 2	@ Tag_ABI_optimization_goals
	.eabi_attribute 34, 1	@ Tag_CPU_unaligned_access
	.eabi_attribute 18, 4	@ Tag_ABI_PCS_wchar_t
	.file	"iobuf.c"
@ GNU C17 (15:10.3-2021.07-4) version 10.3.1 20210621 (release) (arm-none-eabi)
@	compiled by GNU C version 11.2.0, GMP version 6.2.1, MPFR version 4.1.0, MPC version 1.2.1, isl version isl-0.24-GMP

@ GGC heuristics: --param ggc-min-expand=100 --param ggc-min-heapsize=131072
@ options passed:  -I src -I src/common -imultilib thumb/v7-a/nofp
@ -D__USES_INITFINI__ src/common/iobuf.c -mcpu=cortex-a7 -mfloat-abi=soft
@ -marm -mlibarch=armv7ve -march=armv7ve
@ -auxbase-strip build/asm_output/common/iobuf.s -g -O2 -Wall -Wextra -fpic
@ -ffreestanding -ffunction-sections -fdata-sections -fno-common
@ -fverbose-asm
@ options enabled:  -faggressive-loop-optimizations -falign-functions
@ -falign-jumps -falign-labels -falign-loops -fallocation-dce
@ -fauto-inc-dec -fbranch-count-reg -fcaller-saves
@ -fcombine-stack-adjustments -fcompare-elim -fcprop-registers
@ -fcrossjumping -fcse-follow-jumps -fdata-sections -fdefer-pop
@ -fdelete-null-pointer-checks -fdevirtualize -fdevirtualize-speculatively
@ -fdwarf2-cfi-asm -fearly-inlining -feliminate-unused-debug-symbols
@ -feliminate-unused-debug-types -fexpensive-optimizations
@ -fforward-propagate -ffp-int-builtin-inexact -ffunction-cse
@ -ffunction-sections -fgcse -fgcse-lm -fgnu-unique
@ -fguess-branch-probability -fhoist-adjacent-loads -fident -fif-conversion
@ -fif-conversion2 -findirect-inlining -finline -finline-atomics
@ -finline-functions -finline-functions-called-once
@ -finline-small-functions -fipa-bit-cp -fipa-cp -fipa-icf
@ -fipa-icf-functions -fipa-icf-variables -fipa-profile -fipa-pure-const
@ -fipa-ra -fipa-reference -fipa-reference-addressable -fipa-sra
@ -fipa-stack-alignment -fipa-vrp -fira-hoist-pressure
@ -fira-share-save-slots -fira-share-spill-slots
@ -fisolate-erroneous-paths-dereference -fivopts -fkeep-static-consts
@ -fleading-underscore -flifetime-dse -flra-remat -fmath-errno
@ -fmerge-constants -fmerge-debug-strings -fmove-loop-invariants
@ -fomit-frame-pointer -foptimize-sibling-calls -foptimize-strlen
@ -fpartial-inlining -fpeephole -fpeephole2 -fpic -fplt
@ -fprefetch-loop-arrays -freg-struct-return -freorder-blocks
@ -freorder-functions -frerun-cse-after-loop
@ -fsched-critical-path-heuristic -fsched-dep-count-heuristic
@ -fsched-group-heuristic -fsched-interblock -fsched-last-insn-heuristic
@ -fsched-pressure -fsched-rank-heuristic -fsched-spec
@ -fsched-spec-insn-heuristic -fsched-stalled-insns-dep -fschedule-insns
@ -fschedule-insns2 -fsection-anchors -fsemantic-interposition
@ -fshow-column -fshrink-wrap -fshrink-wrap-separate -fsigned-zeros
@ -fsplit-ivs-in-unroller -fsplit-wide-types -fssa-backprop -fssa-phiopt
@ -fstdarg-opt -fstore-merging -fstrict-aliasing
@ -fstrict-volatile-bitfields -fsync-libcalls -fthread-jumps
@ -ftoplevel-reorder -ftrapping-math -ftree-bit-ccp -ftree-builtin-call-dce
@ -ftree-ccp -ftree-ch -ftree-coalesce-vars -ftree-copy-prop -ftree-cselim
@ -ftree-dce -ftree-dominator-opts -ftree-dse -ftree-forwprop -ftree-fre
@ -ftree-loop-if-convert -ftree-loop-im -ftree-loop-ivcanon
@ -ftree-loop-optimize -ftree-parallelize-loops= -ftree-phiprop -ftree-pre
@ -ftree-pta -ftree-reassoc -ftree-scev-cprop -ftree-sink -ftree-slsr
@ -ftree-sra -ftree-switch-conversion -ftree-tail-merge -ftree-ter
@ -ftree-vrp -funit-at-a-time -fvar-tracking -fvar-tracking-assignments
@ -fverbose-asm -fzero-initialized-in-bss -marm -mbe32 -mlittle-endian
@ -mpic-data-is-text-relative -msched-prolog -munaligned-access
@ -mvectorize-with-neon-quad -mword-relocations

	.text
.Ltext0:
	.cfi_sections	.debug_frame
	.section	.text.fd_cache_strcmp,"ax",%progbits
	.align	2
	.arch armv7ve
	.syntax unified
	.arm
	.fpu softvfp
	.type	fd_cache_strcmp, %function
fd_cache_strcmp:
.LVL0:
.LFB36:
	.file 1 "src/common/iobuf.c"
	.loc 1 172 1 view -0
	.cfi_startproc
	@ args = 0, pretend = 0, frame = 0
	@ frame_needed = 0, uses_anonymous_args = 0
	@ link register save eliminated.
	.loc 1 174 3 view .LVU1
	.loc 1 174 10 view .LVU2
	ldrb	r3, [r0]	@ zero_extendqisi2	@ _3, *a_10(D)
@ src/common/iobuf.c:174:   for (; *a && *b; a++, b++)
	.loc 1 174 3 is_stmt 0 view .LVU3
	cmp	r3, #0	@ _3,
@ src/common/iobuf.c:180:   return *(const unsigned char *)a - *(const unsigned char *)b;
	.loc 1 180 38 view .LVU4
	ldrbeq	r2, [r1]	@ zero_extendqisi2	@ _4, MEM[(const unsigned char *)b_11(D)]
@ src/common/iobuf.c:174:   for (; *a && *b; a++, b++)
	.loc 1 174 3 view .LVU5
	bne	.L6		@,
	b	.L3		@
.LVL1:
.L7:
@ src/common/iobuf.c:176:       if (*a != *b && !((*a == '/' && *b == '\\')
	.loc 1 176 10 view .LVU6
	cmp	r2, r3	@ _4, _3
	beq	.L4		@,
@ src/common/iobuf.c:176:       if (*a != *b && !((*a == '/' && *b == '\\')
	.loc 1 176 36 discriminator 3 view .LVU7
	cmp	r3, #47	@ _3,
	cmpeq	r2, #92	@, _4,
	beq	.L4		@,
@ src/common/iobuf.c:176:       if (*a != *b && !((*a == '/' && *b == '\\')
	.loc 1 176 23 discriminator 4 view .LVU8
	cmp	r3, #92	@ _3,
	bne	.L3		@,
@ src/common/iobuf.c:177:                         || (*a == '\\' && *b == '/')) )
	.loc 1 177 40 view .LVU9
	cmp	r2, #47	@ _4,
	bne	.L3		@,
.L4:
@ src/common/iobuf.c:174:   for (; *a && *b; a++, b++)
	.loc 1 174 10 view .LVU10
	ldrb	r3, [r0, #1]!	@ zero_extendqisi2	@ _3, MEM[base: a_13, offset: 0B]
.LVL2:
@ src/common/iobuf.c:174:   for (; *a && *b; a++, b++)
	.loc 1 174 3 view .LVU11
	cmp	r3, #0	@ _3,
	beq	.L14		@,
.LVL3:
.L6:
	.loc 1 176 7 is_stmt 1 discriminator 2 view .LVU12
	.loc 1 174 20 discriminator 2 view .LVU13
	mov	ip, r1	@ b, ivtmp.147
.LVL4:
@ src/common/iobuf.c:174:   for (; *a && *b; a++, b++)
	.loc 1 174 16 is_stmt 0 discriminator 2 view .LVU14
	ldrb	r2, [r1], #1	@ zero_extendqisi2	@ _4, MEM[base: b_17, offset: 0B]
.LVL5:
	.loc 1 174 10 is_stmt 1 discriminator 2 view .LVU15
@ src/common/iobuf.c:174:   for (; *a && *b; a++, b++)
	.loc 1 174 13 is_stmt 0 discriminator 2 view .LVU16
	cmp	r2, #0	@ _4,
	bne	.L7		@,
.LVL6:
.L3:
	.loc 1 180 3 is_stmt 1 view .LVU17
@ src/common/iobuf.c:184: }
	.loc 1 184 1 is_stmt 0 view .LVU18
	sub	r0, r3, r2	@, _3, _4
	bx	lr	@
.LVL7:
.L14:
@ src/common/iobuf.c:180:   return *(const unsigned char *)a - *(const unsigned char *)b;
	.loc 1 180 38 view .LVU19
	ldrb	r2, [ip, #1]	@ zero_extendqisi2	@ _4, MEM[(const unsigned char *)b_17 + 1B]
	.loc 1 180 3 is_stmt 1 view .LVU20
@ src/common/iobuf.c:184: }
	.loc 1 184 1 is_stmt 0 view .LVU21
	sub	r0, r3, r2	@, _3, _4
.LVL8:
	.loc 1 184 1 view .LVU22
	bx	lr	@
	.cfi_endproc
.LFE36:
	.size	fd_cache_strcmp, .-fd_cache_strcmp
	.section	.rodata.fd_cache_invalidate.str1.4,"aMS",%progbits,1
	.align	2
.LC0:
	.ascii	"fd_cache_invalidate (%s)\012\000"
	.section	.text.fd_cache_invalidate,"ax",%progbits
	.align	2
	.syntax unified
	.arm
	.fpu softvfp
	.type	fd_cache_invalidate, %function
fd_cache_invalidate:
.LVL9:
.LFB37:
	.loc 1 192 1 is_stmt 1 view -0
	.cfi_startproc
	@ args = 0, pretend = 0, frame = 0
	@ frame_needed = 0, uses_anonymous_args = 0
	.loc 1 193 3 view .LVU24
	.loc 1 194 3 view .LVU25
	.loc 1 196 3 view .LVU26
@ src/common/iobuf.c:192: {
	.loc 1 192 1 is_stmt 0 view .LVU27
	push	{r4, r5, r6, lr}	@
	.cfi_def_cfa_offset 16
	.cfi_offset 4, -16
	.cfi_offset 5, -12
	.cfi_offset 6, -8
	.cfi_offset 14, -4
@ src/common/iobuf.c:192: {
	.loc 1 192 1 view .LVU28
	mov	r5, r0	@ fname, tmp122
	ldr	r4, .L22	@ tmp117,
@ src/common/iobuf.c:196:   printf (fname);
	.loc 1 196 3 view .LVU29
	bl	tfp_printf(PLT)	@
.LVL10:
	.loc 1 197 3 is_stmt 1 view .LVU30
@ src/common/iobuf.c:197:   if (DBG_IOBUF)
	.loc 1 197 7 is_stmt 0 view .LVU31
	ldr	r2, .L22+4	@ tmp123,
@ src/common/iobuf.c:192: {
	.loc 1 192 1 view .LVU32
.LPIC0:
	add	r4, pc, r4	@ tmp117, tmp117
	mov	r3, r4	@ tmp117, tmp117
@ src/common/iobuf.c:197:   if (DBG_IOBUF)
	.loc 1 197 7 view .LVU33
	ldr	r3, [r4, r2]	@ tmp116,
@ src/common/iobuf.c:197:   if (DBG_IOBUF)
	.loc 1 197 6 view .LVU34
	ldr	r3, [r3]	@ iobuf_debug_mode, iobuf_debug_mode
	cmp	r3, #0	@ iobuf_debug_mode,
	bne	.L21		@,
	.loc 1 200 3 is_stmt 1 view .LVU35
.LVL11:
	.loc 1 200 26 view .LVU36
	.loc 1 215 3 view .LVU37
@ src/common/iobuf.c:216: }
	.loc 1 216 1 is_stmt 0 view .LVU38
	mov	r0, #0	@,
	pop	{r4, r5, r6, pc}	@
.LVL12:
.L21:
	.loc 1 198 5 is_stmt 1 view .LVU39
	ldr	r0, .L22+8	@,
	mov	r1, r5	@, fname
.LPIC1:
	add	r0, pc, r0	@,
	bl	tfp_printf(PLT)	@
.LVL13:
	.loc 1 200 3 view .LVU40
	.loc 1 200 26 view .LVU41
	.loc 1 215 3 view .LVU42
@ src/common/iobuf.c:216: }
	.loc 1 216 1 is_stmt 0 view .LVU43
	mov	r0, #0	@,
	pop	{r4, r5, r6, pc}	@
.L23:
	.align	2
.L22:
	.word	_GLOBAL_OFFSET_TABLE_-(.LPIC0+8)
	.word	iobuf_debug_mode(GOT)
	.word	.LC0-(.LPIC1+8)
	.cfi_endproc
.LFE37:
	.size	fd_cache_invalidate, .-fd_cache_invalidate
	.section	.rodata.file_filter.str1.4,"aMS",%progbits,1
	.align	2
.LC1:
	.ascii	"%s: close fd/handle %d\012\000"
	.section	.text.file_filter,"ax",%progbits
	.align	2
	.global	file_filter
	.syntax unified
	.arm
	.fpu softvfp
	.type	file_filter, %function
file_filter:
.LVL14:
.LFB86:
	.loc 1 2645 1 is_stmt 1 view -0
	.cfi_startproc
	@ args = 4, pretend = 0, frame = 0
	@ frame_needed = 0, uses_anonymous_args = 0
	.loc 1 2645 1 is_stmt 0 view .LVU45
	push	{r4, r5, r6, r7, r8, lr}	@
	.cfi_def_cfa_offset 24
	.cfi_offset 4, -24
	.cfi_offset 5, -20
	.cfi_offset 6, -16
	.cfi_offset 7, -12
	.cfi_offset 8, -8
	.cfi_offset 14, -4
@ src/common/iobuf.c:2654:   if (control == IOBUFCTRL_UNDERFLOW)
	.loc 1 2654 6 view .LVU46
	cmp	r1, #3	@ control,
@ src/common/iobuf.c:2645: {
	.loc 1 2645 1 view .LVU47
	ldr	r6, [sp, #24]	@ ret_len, ret_len
	mov	r4, r0	@ opaque, tmp180
	ldr	ip, .L52	@ tmp174,
	mov	r5, r3	@ buf, tmp182
@ src/common/iobuf.c:2648:   size_t size = *ret_len;
	.loc 1 2648 10 view .LVU48
	ldr	r7, [r6]	@ size, *ret_len_35(D)
@ src/common/iobuf.c:2645: {
	.loc 1 2645 1 view .LVU49
.LPIC2:
	add	ip, pc, ip	@ tmp174, tmp174
	.loc 1 2646 3 is_stmt 1 view .LVU50
.LVL15:
	.loc 1 2647 3 view .LVU51
	.loc 1 2648 3 view .LVU52
	.loc 1 2649 3 view .LVU53
	.loc 1 2650 3 view .LVU54
	.loc 1 2652 3 view .LVU55
	.loc 1 2654 3 view .LVU56
@ src/common/iobuf.c:2654:   if (control == IOBUFCTRL_UNDERFLOW)
	.loc 1 2654 6 is_stmt 0 view .LVU57
	beq	.L46		@,
	.loc 1 2729 8 is_stmt 1 view .LVU58
@ src/common/iobuf.c:2729:   else if (control == IOBUFCTRL_FLUSH)
	.loc 1 2729 11 is_stmt 0 view .LVU59
	cmp	r1, #4	@ control,
	beq	.L47		@,
	.loc 1 2782 8 is_stmt 1 view .LVU60
@ src/common/iobuf.c:2782:   else if (control == IOBUFCTRL_INIT)
	.loc 1 2782 11 is_stmt 0 view .LVU61
	cmp	r1, #1	@ control,
	beq	.L48		@,
	.loc 1 2790 8 is_stmt 1 view .LVU62
@ src/common/iobuf.c:2790:   else if (control == IOBUFCTRL_PEEK)
	.loc 1 2790 11 is_stmt 0 view .LVU63
	cmp	r1, #7	@ control,
	beq	.L49		@,
	.loc 1 2851 8 is_stmt 1 view .LVU64
	.loc 1 2855 8 view .LVU65
@ src/common/iobuf.c:2855:   else if (control == IOBUFCTRL_FREE)
	.loc 1 2855 11 is_stmt 0 view .LVU66
	cmp	r1, #2	@ control,
	beq	.L50		@,
@ src/common/iobuf.c:2650:   int rc = 0;
	.loc 1 2650 7 view .LVU67
	mov	r0, #0	@ <retval>,
.LVL16:
	.loc 1 2867 3 is_stmt 1 view .LVU68
@ src/common/iobuf.c:2868: }
	.loc 1 2868 1 is_stmt 0 view .LVU69
	pop	{r4, r5, r6, r7, r8, pc}	@
.LVL17:
.L47:
	.loc 1 2731 7 is_stmt 1 view .LVU70
@ src/common/iobuf.c:2780:       *ret_len = nbytes;
	.loc 1 2780 16 is_stmt 0 view .LVU71
	mov	r3, #0	@ tmp160,
.LVL18:
	.loc 1 2780 16 view .LVU72
	str	r3, [r6]	@ tmp160, *ret_len_35(D)
.LVL19:
.LBB42:
@ src/common/iobuf.c:2772: 	  if (n == -1)
	.loc 1 2772 7 view .LVU73
	mov	r0, r3	@ <retval>, tmp160
.LVL20:
	.loc 1 2772 7 view .LVU74
.LBE42:
	.loc 1 2780 7 is_stmt 1 view .LVU75
	pop	{r4, r5, r6, r7, r8, pc}	@
.LVL21:
.L46:
	.loc 1 2656 7 view .LVU76
	mov	r0, r7	@, size
.LVL22:
	.loc 1 2656 7 is_stmt 0 view .LVU77
	bl	tfp_printf(PLT)	@
.LVL23:
	.loc 1 2657 7 is_stmt 1 view .LVU78
@ src/common/iobuf.c:2657:       if (a->npeeked > a->upeeked)
	.loc 1 2657 12 is_stmt 0 view .LVU79
	ldrb	r3, [r4, #52]	@ zero_extendqisi2	@ _2, MEM[(struct file_filter_ctx_t *)opaque_32(D)].npeeked
@ src/common/iobuf.c:2657:       if (a->npeeked > a->upeeked)
	.loc 1 2657 25 view .LVU80
	ldrb	r2, [r4, #53]	@ zero_extendqisi2	@ _3, MEM[(struct file_filter_ctx_t *)opaque_32(D)].upeeked
@ src/common/iobuf.c:2657:       if (a->npeeked > a->upeeked)
	.loc 1 2657 10 view .LVU81
	cmp	r3, r2	@ _2, _3
	bhi	.L51		@,
	.loc 1 2666 12 is_stmt 1 view .LVU82
@ src/common/iobuf.c:2666:       else if (a->eof_seen)
	.loc 1 2666 17 is_stmt 0 view .LVU83
	ldr	r0, [r4, #12]	@ <retval>, MEM[(struct file_filter_ctx_t *)opaque_32(D)].eof_seen
@ src/common/iobuf.c:2666:       else if (a->eof_seen)
	.loc 1 2666 15 view .LVU84
	cmp	r0, #0	@ <retval>,
	.loc 1 2668 4 is_stmt 1 view .LVU85
.LVL24:
	.loc 1 2669 4 view .LVU86
.LBB43:
@ src/common/iobuf.c:2719: 	      rc = -1;
	.loc 1 2719 11 is_stmt 0 view .LVU87
	mvn	r0, #0	@ <retval>,
.LBE43:
@ src/common/iobuf.c:2669: 	  *ret_len = 0;
	.loc 1 2669 13 view .LVU88
	movne	r3, #0	@ tmp155,
.LBB44:
	.loc 1 2716 9 is_stmt 1 view .LVU89
	.loc 1 2718 8 view .LVU90
@ src/common/iobuf.c:2718: 	      a->eof_seen = 1;
	.loc 1 2718 20 is_stmt 0 view .LVU91
	moveq	r2, #1	@ tmp156,
	streq	r2, [r4, #12]	@ tmp156, MEM[(struct file_filter_ctx_t *)opaque_32(D)].eof_seen
	.loc 1 2719 8 is_stmt 1 view .LVU92
.LVL25:
	.loc 1 2726 4 view .LVU93
@ src/common/iobuf.c:2726: 	  *ret_len = nbytes;
	.loc 1 2726 13 is_stmt 0 view .LVU94
	moveq	r3, #0	@ tmp157,
	str	r3, [r6]	@ tmp157, *ret_len_35(D)
	pop	{r4, r5, r6, r7, r8, pc}	@
.LVL26:
.L48:
	.loc 1 2726 13 view .LVU95
.LBE44:
	.loc 1 2784 7 is_stmt 1 view .LVU96
@ src/common/iobuf.c:2784:       a->eof_seen = 0;
	.loc 1 2784 19 is_stmt 0 view .LVU97
	mov	r3, #0	@ tmp161,
.LVL27:
	.loc 1 2784 19 view .LVU98
	str	r3, [r0, #12]	@ tmp161, MEM[(struct file_filter_ctx_t *)opaque_32(D)].eof_seen
	.loc 1 2785 7 is_stmt 1 view .LVU99
@ src/common/iobuf.c:2650:   int rc = 0;
	.loc 1 2650 7 is_stmt 0 view .LVU100
	mov	r0, r3	@ <retval>, tmp161
.LVL28:
@ src/common/iobuf.c:2785:       a->keep_open = 0;
	.loc 1 2785 20 view .LVU101
	str	r3, [r4, #4]	@ tmp161, MEM[(struct file_filter_ctx_t *)opaque_32(D)].keep_open
	.loc 1 2786 7 is_stmt 1 view .LVU102
@ src/common/iobuf.c:2786:       a->no_cache = 0;
	.loc 1 2786 19 is_stmt 0 view .LVU103
	str	r3, [r4, #8]	@ tmp161, MEM[(struct file_filter_ctx_t *)opaque_32(D)].no_cache
	.loc 1 2787 7 is_stmt 1 view .LVU104
	.loc 1 2788 7 view .LVU105
@ src/common/iobuf.c:2787:       a->npeeked = 0;
	.loc 1 2787 18 is_stmt 0 view .LVU106
	strh	r3, [r4, #52]	@ movhi	@ tmp161, MEM <unsigned short> [(unsigned char *)opaque_32(D) + 52B]
	pop	{r4, r5, r6, r7, r8, pc}	@
.LVL29:
.L51:
	.loc 1 2659 11 is_stmt 1 view .LVU107
@ src/common/iobuf.c:2659:           nbytes = a->npeeked - a->upeeked;
	.loc 1 2659 31 is_stmt 0 view .LVU108
	sub	r3, r3, r2	@ nbytes, _2, _3
.LVL30:
	.loc 1 2660 11 is_stmt 1 view .LVU109
@ src/common/iobuf.c:2662:           memcpy (buf, a->peeked + a->upeeked, nbytes);
	.loc 1 2662 24 is_stmt 0 view .LVU110
	add	r1, r4, #20	@ tmp148, opaque,
	cmp	r7, r3	@ size, nbytes
@ src/common/iobuf.c:2662:           memcpy (buf, a->peeked + a->upeeked, nbytes);
	.loc 1 2662 11 view .LVU111
	mov	r0, r5	@, buf
	add	r1, r1, r2	@, tmp148, _3
	movcs	r7, r3	@ nbytes, nbytes
.LVL31:
	.loc 1 2662 11 is_stmt 1 view .LVU112
	mov	r2, r7	@, nbytes
	bl	memcpy(PLT)	@
.LVL32:
	.loc 1 2663 11 view .LVU113
@ src/common/iobuf.c:2663:           a->upeeked += nbytes;
	.loc 1 2663 22 is_stmt 0 view .LVU114
	ldrb	r3, [r4, #53]	@ zero_extendqisi2	@ MEM[(struct file_filter_ctx_t *)opaque_32(D)].upeeked, MEM[(struct file_filter_ctx_t *)opaque_32(D)].upeeked
@ src/common/iobuf.c:2650:   int rc = 0;
	.loc 1 2650 7 view .LVU115
	mov	r0, #0	@ <retval>,
@ src/common/iobuf.c:2663:           a->upeeked += nbytes;
	.loc 1 2663 22 view .LVU116
	add	r3, r3, r7	@ tmp153, MEM[(struct file_filter_ctx_t *)opaque_32(D)].upeeked, nbytes
	strb	r3, [r4, #53]	@ tmp153, MEM[(struct file_filter_ctx_t *)opaque_32(D)].upeeked
	.loc 1 2664 11 is_stmt 1 view .LVU117
@ src/common/iobuf.c:2664:           *ret_len = nbytes;
	.loc 1 2664 20 is_stmt 0 view .LVU118
	str	r7, [r6]	@ nbytes, *ret_len_35(D)
	pop	{r4, r5, r6, r7, r8, pc}	@
.LVL33:
.L50:
@ src/common/iobuf.c:2647:   gnupg_fd_t f = a->fp;
	.loc 1 2647 14 view .LVU119
	ldr	r2, [r0]	@ f, MEM[(struct file_filter_ctx_t *)opaque_32(D)].fp
.LVL34:
	.loc 1 2857 7 is_stmt 1 view .LVU120
@ src/common/iobuf.c:2857:       if (f != FD_FOR_STDIN && f != FD_FOR_STDOUT)
	.loc 1 2857 10 is_stmt 0 view .LVU121
	cmp	r2, #1	@ f,
	bls	.L37		@,
	.loc 1 2859 4 is_stmt 1 view .LVU122
@ src/common/iobuf.c:2859: 	  if (DBG_IOBUF)
	.loc 1 2859 8 is_stmt 0 view .LVU123
	ldr	r3, .L52+4	@ tmp185,
.LVL35:
	.loc 1 2859 8 view .LVU124
	ldr	r3, [ip, r3]	@ tmp173,
@ src/common/iobuf.c:2859: 	  if (DBG_IOBUF)
	.loc 1 2859 7 view .LVU125
	ldr	r3, [r3]	@ iobuf_debug_mode, iobuf_debug_mode
	cmp	r3, #0	@ iobuf_debug_mode,
	beq	.L37		@,
	.loc 1 2860 6 is_stmt 1 view .LVU126
	ldr	r0, .L52+8	@,
.LVL36:
	.loc 1 2860 6 is_stmt 0 view .LVU127
	add	r1, r4, #54	@, opaque,
.LVL37:
	.loc 1 2860 6 view .LVU128
.LPIC3:
	add	r0, pc, r0	@,
	bl	tfp_printf(PLT)	@
.LVL38:
.L37:
	.loc 1 2864 7 is_stmt 1 view .LVU129
	mov	r0, r4	@, opaque
	bl	xfree(PLT)	@
.LVL39:
@ src/common/iobuf.c:2650:   int rc = 0;
	.loc 1 2650 7 is_stmt 0 view .LVU130
	mov	r0, #0	@ <retval>,
	pop	{r4, r5, r6, r7, r8, pc}	@
.LVL40:
.L49:
.L34:
.LBB45:
	.loc 1 2820 7 is_stmt 1 view .LVU131
	.loc 1 2828 7 view .LVU132
@ src/common/iobuf.c:2830:           a->npeeked += n;
	.loc 1 2830 22 is_stmt 0 view .LVU133
	ldrb	r2, [r0, #52]	@ zero_extendqisi2	@ _16, MEM[(struct file_filter_ctx_t *)opaque_32(D)].npeeked
.LVL41:
@ src/common/iobuf.c:2828:       if (n > 0)
	.loc 1 2828 10 view .LVU134
	mov	r3, #0	@ n,
.LVL42:
	.loc 1 2828 10 view .LVU135
	cmp	r3, r3	@ n,
	.loc 1 2834 12 is_stmt 1 view .LVU136
	.loc 1 2836 11 view .LVU137
.LVL43:
	.loc 1 2846 7 view .LVU138
@ src/common/iobuf.c:2847:       memcpy (buf, a->peeked, size);
	.loc 1 2847 7 is_stmt 0 view .LVU139
	add	r1, r0, #20	@, opaque,
.LVL44:
@ src/common/iobuf.c:2836:           a->eof_seen = 1;
	.loc 1 2836 23 view .LVU140
	moveq	r3, #1	@ tmp171,
	streq	r3, [r0, #12]	@ tmp171, MEM[(struct file_filter_ctx_t *)opaque_32(D)].eof_seen
@ src/common/iobuf.c:2847:       memcpy (buf, a->peeked, size);
	.loc 1 2847 7 view .LVU141
	mov	r0, r5	@, buf
.LVL45:
@ src/common/iobuf.c:2846:       size = a->npeeked < size? a->npeeked : size;
	.loc 1 2846 12 view .LVU142
	cmp	r2, r7	@ _16, size
	movcc	r7, r2	@ size, _16
.LVL46:
	.loc 1 2847 7 is_stmt 1 view .LVU143
	mov	r2, r7	@, size
	bl	memcpy(PLT)	@
.LVL47:
	.loc 1 2848 7 view .LVU144
@ src/common/iobuf.c:2848:       *ret_len = size;
	.loc 1 2848 16 is_stmt 0 view .LVU145
	str	r7, [r6]	@ size, *ret_len_35(D)
	.loc 1 2849 7 is_stmt 1 view .LVU146
.LVL48:
@ src/common/iobuf.c:2849:       rc = 0;  /* Return success - the user needs to check ret_len.  */
	.loc 1 2849 10 is_stmt 0 view .LVU147
	mov	r0, #0	@ <retval>,
.LBE45:
	pop	{r4, r5, r6, r7, r8, pc}	@
.L53:
	.align	2
.L52:
	.word	_GLOBAL_OFFSET_TABLE_-(.LPIC2+8)
	.word	iobuf_debug_mode(GOT)
	.word	.LC1-(.LPIC3+8)
	.cfi_endproc
.LFE86:
	.size	file_filter, .-file_filter
	.section	.rodata.filter_flush.str1.4,"aMS",%progbits,1
	.align	2
.LC2:
	.ascii	"increasing temp iobuf from %lu to %lu\012\000"
	.align	2
.LC3:
	.ascii	"flush on non-output iobuf\012\000"
	.align	2
.LC4:
	.ascii	"filter_flush: no filter\012\000"
	.align	2
.LC5:
	.ascii	"filter_flush did not write all!\012\000"
	.section	.text.filter_flush,"ax",%progbits
	.align	2
	.syntax unified
	.arm
	.fpu softvfp
	.type	filter_flush, %function
filter_flush:
.LVL49:
.LFB63:
	.loc 1 1823 1 is_stmt 1 view -0
	.cfi_startproc
	@ args = 0, pretend = 0, frame = 8
	@ frame_needed = 0, uses_anonymous_args = 0
	.loc 1 1824 3 view .LVU149
	.loc 1 1825 3 view .LVU150
	.loc 1 1827 3 view .LVU151
@ src/common/iobuf.c:1823: {
	.loc 1 1823 1 is_stmt 0 view .LVU152
	push	{r4, r5, lr}	@
	.cfi_def_cfa_offset 12
	.cfi_offset 4, -12
	.cfi_offset 5, -8
	.cfi_offset 14, -4
	mov	r4, r0	@ a, tmp149
@ src/common/iobuf.c:1827:   if (a->use == IOBUF_OUTPUT_TEMP)
	.loc 1 1827 8 view .LVU153
	ldrb	r3, [r0]	@ zero_extendqisi2	@ _1, a_21(D)->use
@ src/common/iobuf.c:1823: {
	.loc 1 1823 1 view .LVU154
	sub	sp, sp, #20	@,,
	.cfi_def_cfa_offset 32
@ src/common/iobuf.c:1823: {
	.loc 1 1823 1 view .LVU155
	ldr	r2, .L70	@ tmp129,
@ src/common/iobuf.c:1827:   if (a->use == IOBUF_OUTPUT_TEMP)
	.loc 1 1827 6 view .LVU156
	cmp	r3, #3	@ _1,
@ src/common/iobuf.c:1823: {
	.loc 1 1823 1 view .LVU157
.LPIC4:
	add	r2, pc, r2	@ tmp129, tmp129
@ src/common/iobuf.c:1827:   if (a->use == IOBUF_OUTPUT_TEMP)
	.loc 1 1827 6 view .LVU158
	beq	.L66		@,
	.loc 1 1839 8 is_stmt 1 view .LVU159
@ src/common/iobuf.c:1839:   else if (a->use != IOBUF_OUTPUT)
	.loc 1 1839 11 is_stmt 0 view .LVU160
	cmp	r3, #2	@ _1,
	bne	.L67		@,
	.loc 1 1841 8 is_stmt 1 view .LVU161
@ src/common/iobuf.c:1841:   else if (!a->filter)
	.loc 1 1841 14 is_stmt 0 view .LVU162
	ldr	r5, [r0, #44]	@ _6, a_21(D)->filter
@ src/common/iobuf.c:1841:   else if (!a->filter)
	.loc 1 1841 11 view .LVU163
	cmp	r5, #0	@ _6,
	beq	.L68		@,
.LVL50:
.L59:
	.loc 1 1843 3 is_stmt 1 view .LVU164
@ src/common/iobuf.c:1843:   len = a->d.len;
	.loc 1 1843 7 is_stmt 0 view .LVU165
	ldr	r1, [r4, #28]	@ a_21(D)->d.len, a_21(D)->d.len
@ src/common/iobuf.c:1844:   rc = a->filter (a->filter_ov, IOBUFCTRL_FLUSH, a->chain, a->d.buf, &len);
	.loc 1 1844 8 view .LVU166
	add	r2, sp, #12	@ tmp142,,
	ldr	r3, [r4, #32]	@, a_21(D)->d.buf
@ src/common/iobuf.c:1843:   len = a->d.len;
	.loc 1 1843 7 view .LVU167
	str	r1, [sp, #12]	@ a_21(D)->d.len, len
	.loc 1 1844 3 is_stmt 1 view .LVU168
@ src/common/iobuf.c:1844:   rc = a->filter (a->filter_ov, IOBUFCTRL_FLUSH, a->chain, a->d.buf, &len);
	.loc 1 1844 8 is_stmt 0 view .LVU169
	mov	r1, #4	@,
	str	r2, [sp]	@ tmp142,
	ldr	r2, [r4, #60]	@, a_21(D)->chain
	ldr	r0, [r4, #48]	@, a_21(D)->filter_ov
	blx	r5		@ _6
.LVL51:
	.loc 1 1845 3 is_stmt 1 view .LVU170
@ src/common/iobuf.c:1845:   if (!rc && len != a->d.len)
	.loc 1 1845 6 is_stmt 0 view .LVU171
	cmp	r0, #0	@ <retval>
@ src/common/iobuf.c:1851:     a->error = rc;
	.loc 1 1851 14 view .LVU172
	strne	r0, [r4, #40]	@ <retval>, a_21(D)->error
@ src/common/iobuf.c:1845:   if (!rc && len != a->d.len)
	.loc 1 1845 6 view .LVU173
	bne	.L61		@,
@ src/common/iobuf.c:1845:   if (!rc && len != a->d.len)
	.loc 1 1845 11 discriminator 1 view .LVU174
	ldr	r2, [r4, #28]	@ a_21(D)->d.len, a_21(D)->d.len
	ldr	r3, [sp, #12]	@ len, len
	cmp	r2, r3	@ a_21(D)->d.len, len
	beq	.L61		@,
	.loc 1 1847 7 is_stmt 1 view .LVU175
	ldr	r0, .L70+4	@,
.LVL52:
	.loc 1 1847 7 is_stmt 0 view .LVU176
.LPIC8:
	add	r0, pc, r0	@,
	bl	tfp_printf(PLT)	@
.LVL53:
	.loc 1 1848 7 is_stmt 1 view .LVU177
@ src/common/iobuf.c:1848:       rc = GPG_ERR_INTERNAL;
	.loc 1 1848 10 is_stmt 0 view .LVU178
	mov	r0, #63	@ <retval>,
.LVL54:
.L61:
	.loc 1 1852 3 is_stmt 1 view .LVU179
@ src/common/iobuf.c:1852:   a->d.len = 0;
	.loc 1 1852 12 is_stmt 0 view .LVU180
	mov	r3, #0	@ tmp147,
	str	r3, [r4, #28]	@ tmp147, a_21(D)->d.len
	.loc 1 1854 3 is_stmt 1 view .LVU181
@ src/common/iobuf.c:1855: }
	.loc 1 1855 1 is_stmt 0 view .LVU182
	add	sp, sp, #20	@,,
	.cfi_remember_state
	.cfi_def_cfa_offset 12
	@ sp needed	@
	pop	{r4, r5, pc}	@
.LVL55:
.L67:
	.cfi_restore_state
	.loc 1 1840 5 is_stmt 1 view .LVU183
	ldr	r0, .L70+8	@,
.LVL56:
	.loc 1 1840 5 is_stmt 0 view .LVU184
.LPIC6:
	add	r0, pc, r0	@,
	bl	tfp_printf(PLT)	@
.LVL57:
@ src/common/iobuf.c:1844:   rc = a->filter (a->filter_ov, IOBUFCTRL_FLUSH, a->chain, a->d.buf, &len);
	.loc 1 1844 9 view .LVU185
	ldr	r5, [r4, #44]	@ _6, a_21(D)->filter
	b	.L59		@
.LVL58:
.L66:
.LBB46:
	.loc 1 1829 7 is_stmt 1 view .LVU186
@ src/common/iobuf.c:1831:       if (DBG_IOBUF)
	.loc 1 1831 11 is_stmt 0 view .LVU187
	ldr	r3, .L70+12	@ tmp152,
@ src/common/iobuf.c:1829:       size_t newsize = a->d.size + IOBUF_BUFFER_SIZE;
	.loc 1 1829 28 view .LVU188
	ldr	r1, [r0, #20]	@ _2, a_21(D)->d.size
@ src/common/iobuf.c:1831:       if (DBG_IOBUF)
	.loc 1 1831 11 view .LVU189
	ldr	r3, [r2, r3]	@ tmp128,
@ src/common/iobuf.c:1829:       size_t newsize = a->d.size + IOBUF_BUFFER_SIZE;
	.loc 1 1829 14 view .LVU190
	add	r5, r1, #8192	@ newsize, _2,
.LVL59:
	.loc 1 1831 7 is_stmt 1 view .LVU191
@ src/common/iobuf.c:1831:       if (DBG_IOBUF)
	.loc 1 1831 10 is_stmt 0 view .LVU192
	ldr	r3, [r3]	@ iobuf_debug_mode, iobuf_debug_mode
	cmp	r3, #0	@ iobuf_debug_mode,
	bne	.L69		@,
.LVL60:
.L56:
	.loc 1 1835 7 is_stmt 1 view .LVU193
@ src/common/iobuf.c:1835:       a->d.buf = xrealloc (a->d.buf, newsize);
	.loc 1 1835 18 is_stmt 0 view .LVU194
	ldr	r0, [r4, #32]	@, a_21(D)->d.buf
	mov	r1, r5	@, newsize
	bl	xrealloc(PLT)	@
.LVL61:
@ src/common/iobuf.c:1835:       a->d.buf = xrealloc (a->d.buf, newsize);
	.loc 1 1835 16 view .LVU195
	str	r0, [r4, #32]	@ tmp150, a_21(D)->d.buf
	.loc 1 1836 7 is_stmt 1 view .LVU196
@ src/common/iobuf.c:1837:       return 0;
	.loc 1 1837 14 is_stmt 0 view .LVU197
	mov	r0, #0	@ <retval>,
@ src/common/iobuf.c:1836:       a->d.size = newsize;
	.loc 1 1836 17 view .LVU198
	str	r5, [r4, #20]	@ newsize, a_21(D)->d.size
	.loc 1 1837 7 is_stmt 1 view .LVU199
.LBE46:
@ src/common/iobuf.c:1855: }
	.loc 1 1855 1 is_stmt 0 view .LVU200
	add	sp, sp, #20	@,,
	.cfi_remember_state
	.cfi_def_cfa_offset 12
	@ sp needed	@
	pop	{r4, r5, pc}	@
.LVL62:
.L69:
	.cfi_restore_state
.LBB47:
	.loc 1 1832 2 is_stmt 1 view .LVU201
	ldr	r0, .L70+16	@,
.LVL63:
	.loc 1 1832 2 is_stmt 0 view .LVU202
	mov	r2, r5	@, newsize
.LPIC5:
	add	r0, pc, r0	@,
	bl	tfp_printf(PLT)	@
.LVL64:
	b	.L56		@
.LVL65:
.L68:
	.loc 1 1832 2 view .LVU203
.LBE47:
	.loc 1 1842 5 is_stmt 1 view .LVU204
	ldr	r0, .L70+20	@,
.LVL66:
	.loc 1 1842 5 is_stmt 0 view .LVU205
.LPIC7:
	add	r0, pc, r0	@,
	bl	tfp_printf(PLT)	@
.LVL67:
@ src/common/iobuf.c:1844:   rc = a->filter (a->filter_ov, IOBUFCTRL_FLUSH, a->chain, a->d.buf, &len);
	.loc 1 1844 9 view .LVU206
	ldr	r5, [r4, #44]	@ _6, a_21(D)->filter
	b	.L59		@
.L71:
	.align	2
.L70:
	.word	_GLOBAL_OFFSET_TABLE_-(.LPIC4+8)
	.word	.LC5-(.LPIC8+8)
	.word	.LC3-(.LPIC6+8)
	.word	iobuf_debug_mode(GOT)
	.word	.LC2-(.LPIC5+8)
	.word	.LC4-(.LPIC7+8)
	.cfi_endproc
.LFE63:
	.size	filter_flush, .-filter_flush
	.section	.rodata.print_chain.part.0.str1.4,"aMS",%progbits,1
	.align	2
.LC6:
	.ascii	"?\000"
	.align	2
.LC7:
	.ascii	"iobuf chain: %d.%d '%s' filter_eof=%d start=%d len="
	.ascii	"%d\012\000"
	.section	.text.print_chain.part.0,"ax",%progbits
	.align	2
	.syntax unified
	.arm
	.fpu softvfp
	.type	print_chain.part.0, %function
print_chain.part.0:
.LVL68:
.LFB88:
	.loc 1 952 1 is_stmt 1 view -0
	.cfi_startproc
	@ args = 0, pretend = 0, frame = 40
	@ frame_needed = 0, uses_anonymous_args = 0
	.loc 1 956 10 view .LVU208
@ src/common/iobuf.c:952: print_chain (iobuf_t a)
	.loc 1 952 1 is_stmt 0 view .LVU209
	push	{r4, r5, r6, r7, r8, r9, r10, fp, lr}	@
	.cfi_def_cfa_offset 36
	.cfi_offset 4, -36
	.cfi_offset 5, -32
	.cfi_offset 6, -28
	.cfi_offset 7, -24
	.cfi_offset 8, -20
	.cfi_offset 9, -16
	.cfi_offset 10, -12
	.cfi_offset 11, -8
	.cfi_offset 14, -4
@ src/common/iobuf.c:956:   for (; a; a = a->chain)
	.loc 1 956 3 view .LVU210
	subs	r4, r0, #0	@ a, tmp138
@ src/common/iobuf.c:952: print_chain (iobuf_t a)
	.loc 1 952 1 view .LVU211
	sub	sp, sp, #60	@,,
	.cfi_def_cfa_offset 96
@ src/common/iobuf.c:956:   for (; a; a = a->chain)
	.loc 1 956 3 view .LVU212
	beq	.L72		@,
.LBB53:
.LBB54:
.LBB55:
.LBB56:
.LBB57:
@ src/common/iobuf.c:944:     memcpy (buf, "?", 2);
	.loc 1 944 5 view .LVU213
	ldr	fp, .L82	@ tmp137,
	add	r6, sp, #24	@ tmp136,,
.LBE57:
.LBE56:
.LBE55:
.LBE54:
@ src/common/iobuf.c:960:       printf ("iobuf chain: %d.%d '%s' filter_eof=%d start=%d len=%d\n",
	.loc 1 960 7 view .LVU214
	ldr	r10, .L82+4	@ tmp132,
.LBB67:
.LBB62:
@ src/common/iobuf.c:941:   size_t len = MAX_IOBUF_DESC;
	.loc 1 941 10 view .LVU215
	mov	r9, #32	@ tmp123,
.LBB60:
.LBB58:
@ src/common/iobuf.c:944:     memcpy (buf, "?", 2);
	.loc 1 944 5 view .LVU216
.LPIC9:
	add	fp, pc, fp	@ tmp137, tmp137
.LBE58:
.LBE60:
.LBE62:
.LBE67:
@ src/common/iobuf.c:960:       printf ("iobuf chain: %d.%d '%s' filter_eof=%d start=%d len=%d\n",
	.loc 1 960 7 view .LVU217
.LPIC10:
	add	r10, pc, r10	@ tmp132, tmp132
	b	.L76		@
.LVL69:
.L74:
.LBB68:
.LBB63:
@ src/common/iobuf.c:946:     a->filter (a->filter_ov, IOBUFCTRL_DESC, NULL, buf, &len);
	.loc 1 946 5 view .LVU218
	ldr	r0, [r4, #48]	@ a_24->filter_ov, a_24->filter_ov
	str	ip, [sp]	@ tmp129,
	blx	r5		@ _17
.LVL70:
.L75:
	.loc 1 948 3 is_stmt 1 view .LVU219
	.loc 1 948 3 is_stmt 0 view .LVU220
.LBE63:
.LBE68:
@ src/common/iobuf.c:960:       printf ("iobuf chain: %d.%d '%s' filter_eof=%d start=%d len=%d\n",
	.loc 1 960 7 view .LVU221
	ldr	r2, [r4, #28]	@ a_24->d.len, a_24->d.len
	mov	r3, r6	@, tmp136
	mov	r1, r7	@, _2
	mov	r0, r10	@, tmp132
	str	r2, [sp, #8]	@ a_24->d.len,
	ldr	r2, [r4, #24]	@ a_24->d.start, a_24->d.start
	str	r2, [sp, #4]	@ a_24->d.start,
	ldr	r2, [r4, #36]	@ a_24->filter_eof, a_24->filter_eof
	str	r2, [sp]	@ a_24->filter_eof,
	mov	r2, r8	@, _3
	bl	tfp_printf(PLT)	@
.LVL71:
.LBE53:
	.loc 1 956 13 is_stmt 1 view .LVU222
@ src/common/iobuf.c:956:   for (; a; a = a->chain)
	.loc 1 956 15 is_stmt 0 view .LVU223
	ldr	r4, [r4, #60]	@ a, a_24->chain
.LVL72:
	.loc 1 956 10 is_stmt 1 view .LVU224
@ src/common/iobuf.c:956:   for (; a; a = a->chain)
	.loc 1 956 3 is_stmt 0 view .LVU225
	cmp	r4, #0	@ a,
	beq	.L72		@,
.L76:
.LBB72:
	.loc 1 958 7 is_stmt 1 view .LVU226
	.loc 1 960 7 view .LVU227
.LBB69:
.LBB64:
	.loc 1 946 5 view .LVU228
@ src/common/iobuf.c:943:   if (! a || ! a->filter)
	.loc 1 943 17 is_stmt 0 view .LVU229
	ldr	r5, [r4, #44]	@ _17, a_24->filter
@ src/common/iobuf.c:946:     a->filter (a->filter_ov, IOBUFCTRL_DESC, NULL, buf, &len);
	.loc 1 946 5 view .LVU230
	add	ip, sp, #20	@ tmp129,,
.LBE64:
.LBE69:
@ src/common/iobuf.c:960:       printf ("iobuf chain: %d.%d '%s' filter_eof=%d start=%d len=%d\n",
	.loc 1 960 7 view .LVU231
	ldr	r7, [r4, #64]	@ _2, a_24->no
.LBB70:
.LBB65:
@ src/common/iobuf.c:946:     a->filter (a->filter_ov, IOBUFCTRL_DESC, NULL, buf, &len);
	.loc 1 946 5 view .LVU232
	mov	r3, r6	@, tmp136
.LBE65:
.LBE70:
@ src/common/iobuf.c:960:       printf ("iobuf chain: %d.%d '%s' filter_eof=%d start=%d len=%d\n",
	.loc 1 960 7 view .LVU233
	ldr	r8, [r4, #68]	@ _3, a_24->subno
.LVL73:
.LBB71:
.LBI54:
	.loc 1 939 1 is_stmt 1 view .LVU234
.LBB66:
	.loc 1 941 3 view .LVU235
@ src/common/iobuf.c:943:   if (! a || ! a->filter)
	.loc 1 943 11 is_stmt 0 view .LVU236
	cmp	r5, #0	@ _17,
@ src/common/iobuf.c:941:   size_t len = MAX_IOBUF_DESC;
	.loc 1 941 10 view .LVU237
	str	r9, [sp, #20]	@ tmp123, len
	.loc 1 943 3 is_stmt 1 view .LVU238
@ src/common/iobuf.c:946:     a->filter (a->filter_ov, IOBUFCTRL_DESC, NULL, buf, &len);
	.loc 1 946 5 is_stmt 0 view .LVU239
	mov	r2, #0	@,
	mov	r1, #5	@,
@ src/common/iobuf.c:943:   if (! a || ! a->filter)
	.loc 1 943 11 view .LVU240
	bne	.L74		@,
.LVL74:
.LBB61:
.LBI56:
	.loc 1 939 1 is_stmt 1 view .LVU241
.LBB59:
	.loc 1 944 5 view .LVU242
	mov	r2, #2	@,
	mov	r1, fp	@, tmp137
	mov	r0, r6	@, tmp136
	bl	memcpy(PLT)	@
.LVL75:
	b	.L75		@
.LVL76:
.L72:
	.loc 1 944 5 is_stmt 0 view .LVU243
.LBE59:
.LBE61:
.LBE66:
.LBE71:
.LBE72:
@ src/common/iobuf.c:964: }
	.loc 1 964 1 view .LVU244
	add	sp, sp, #60	@,,
	.cfi_def_cfa_offset 36
	@ sp needed	@
	pop	{r4, r5, r6, r7, r8, r9, r10, fp, pc}	@
.LVL77:
.L83:
	.loc 1 964 1 view .LVU245
	.align	2
.L82:
	.word	.LC6-(.LPIC9+8)
	.word	.LC7-(.LPIC10+8)
	.cfi_endproc
.LFE88:
	.size	print_chain.part.0, .-print_chain.part.0
	.section	.rodata.fd_cache_open.str1.4,"aMS",%progbits,1
	.align	2
.LC8:
	.ascii	"fd_cache_open (%s) not cached\012\000"
	.section	.text.fd_cache_open,"ax",%progbits
	.align	2
	.global	fd_cache_open
	.syntax unified
	.arm
	.fpu softvfp
	.type	fd_cache_open, %function
fd_cache_open:
.LVL78:
.LFB40:
	.loc 1 397 1 is_stmt 1 view -0
	.cfi_startproc
	@ args = 0, pretend = 0, frame = 0
	@ frame_needed = 0, uses_anonymous_args = 0
	.loc 1 398 3 view .LVU247
	.loc 1 401 3 view .LVU248
	.loc 1 401 26 view .LVU249
	.loc 1 427 3 view .LVU250
@ src/common/iobuf.c:397: {
	.loc 1 397 1 is_stmt 0 view .LVU251
	push	{r4, r5, r6, lr}	@
	.cfi_def_cfa_offset 16
	.cfi_offset 4, -16
	.cfi_offset 5, -12
	.cfi_offset 6, -8
	.cfi_offset 14, -4
@ src/common/iobuf.c:397: {
	.loc 1 397 1 view .LVU252
	mov	r4, r0	@ tmp125, fname
@ src/common/iobuf.c:427:   printf ("fd_cache_open (%s) not cached\n", fname);
	.loc 1 427 3 view .LVU253
	ldr	r0, .L96	@,
.LVL79:
@ src/common/iobuf.c:397: {
	.loc 1 397 1 view .LVU254
	mov	r5, r1	@ mode, tmp126
@ src/common/iobuf.c:427:   printf ("fd_cache_open (%s) not cached\n", fname);
	.loc 1 427 3 view .LVU255
	mov	r1, r4	@, fname
.LVL80:
	.loc 1 427 3 view .LVU256
.LPIC11:
	add	r0, pc, r0	@,
	bl	tfp_printf(PLT)	@
.LVL81:
	.loc 1 428 3 is_stmt 1 view .LVU257
.LBB76:
.LBI76:
	.loc 1 252 1 view .LVU258
.LBB77:
	.loc 1 307 3 view .LVU259
	.loc 1 308 3 view .LVU260
	.loc 1 310 3 view .LVU261
	.loc 1 311 5 view .LVU262
	.loc 1 314 3 view .LVU263
@ src/common/iobuf.c:314:   if (strchr (mode, '+'))
	.loc 1 314 7 is_stmt 0 view .LVU264
	mov	r1, #43	@,
	mov	r0, r5	@, mode
	bl	strchr(PLT)	@
.LVL82:
@ src/common/iobuf.c:314:   if (strchr (mode, '+'))
	.loc 1 314 6 view .LVU265
	cmp	r0, #0	@ tmp127,
	beq	.L85		@,
	.loc 1 316 7 is_stmt 1 view .LVU266
@ src/common/iobuf.c:316:       if (fd_cache_invalidate (fname))
	.loc 1 316 11 is_stmt 0 view .LVU267
	mov	r0, r4	@, fname
	bl	fd_cache_invalidate(PLT)	@
.LVL83:
@ src/common/iobuf.c:316:       if (fd_cache_invalidate (fname))
	.loc 1 316 10 view .LVU268
	cmp	r0, #0	@ tmp128,
@ src/common/iobuf.c:318:       oflag = O_RDWR;
	.loc 1 318 13 view .LVU269
	moveq	r6, #2	@ oflag,
@ src/common/iobuf.c:316:       if (fd_cache_invalidate (fname))
	.loc 1 316 10 view .LVU270
	bne	.L87		@,
.L86:
.LVL84:
	.loc 1 331 3 is_stmt 1 view .LVU271
@ src/common/iobuf.c:331:   if (strchr (mode, 'b'))
	.loc 1 331 7 is_stmt 0 view .LVU272
	mov	r1, #98	@,
	mov	r0, r5	@, mode
	bl	strchr(PLT)	@
.LVL85:
@ src/common/iobuf.c:331:   if (strchr (mode, 'b'))
	.loc 1 331 6 view .LVU273
	cmp	r0, #0	@ tmp131,
	.loc 1 332 5 is_stmt 1 view .LVU274
@ src/common/iobuf.c:344:   return open (fname, oflag, cflag);
	.loc 1 344 10 is_stmt 0 view .LVU275
	movw	r2, #438	@,
@ src/common/iobuf.c:332:     oflag |= O_BINARY;
	.loc 1 332 11 view .LVU276
	orrne	r6, r6, #65536	@ oflag, oflag,
.LVL86:
	.loc 1 344 3 is_stmt 1 view .LVU277
@ src/common/iobuf.c:344:   return open (fname, oflag, cflag);
	.loc 1 344 10 is_stmt 0 view .LVU278
	mov	r0, r4	@, fname
	mov	r1, r6	@, oflag
.LBE77:
.LBE76:
@ src/common/iobuf.c:429: }
	.loc 1 429 1 view .LVU279
	pop	{r4, r5, r6, lr}	@
	.cfi_remember_state
	.cfi_restore 14
	.cfi_restore 6
	.cfi_restore 5
	.cfi_restore 4
	.cfi_def_cfa_offset 0
.LVL87:
.LBB80:
.LBB78:
@ src/common/iobuf.c:344:   return open (fname, oflag, cflag);
	.loc 1 344 10 view .LVU280
	b	open(PLT)	@
.LVL88:
.L87:
	.cfi_restore_state
	.loc 1 344 10 view .LVU281
.LBE78:
.LBE80:
@ src/common/iobuf.c:429: }
	.loc 1 429 1 view .LVU282
	mvn	r0, #0	@,
	pop	{r4, r5, r6, pc}	@
.LVL89:
.L85:
.LBB81:
.LBB79:
	.loc 1 320 8 is_stmt 1 view .LVU283
@ src/common/iobuf.c:320:   else if (strchr (mode, 'w'))
	.loc 1 320 12 is_stmt 0 view .LVU284
	mov	r1, #119	@,
	mov	r0, r5	@, mode
	bl	strchr(PLT)	@
.LVL90:
@ src/common/iobuf.c:320:   else if (strchr (mode, 'w'))
	.loc 1 320 11 view .LVU285
	subs	r6, r0, #0	@ _34, tmp129
	beq	.L86		@,
	.loc 1 322 7 is_stmt 1 view .LVU286
@ src/common/iobuf.c:322:       if (fd_cache_invalidate (fname))
	.loc 1 322 11 is_stmt 0 view .LVU287
	mov	r0, r4	@, fname
	bl	fd_cache_invalidate(PLT)	@
.LVL91:
@ src/common/iobuf.c:322:       if (fd_cache_invalidate (fname))
	.loc 1 322 10 view .LVU288
	cmp	r0, #0	@ tmp130,
	bne	.L87		@,
@ src/common/iobuf.c:324:       oflag = O_WRONLY | O_CREAT | O_TRUNC;
	.loc 1 324 13 view .LVU289
	movw	r6, #1537	@ oflag,
	b	.L86		@
.L97:
	.align	2
.L96:
	.word	.LC8-(.LPIC11+8)
.LBE79:
.LBE81:
	.cfi_endproc
.LFE40:
	.size	fd_cache_open, .-fd_cache_open
	.section	.text.iobuf_print_chain,"ax",%progbits
	.align	2
	.global	iobuf_print_chain
	.syntax unified
	.arm
	.fpu softvfp
	.type	iobuf_print_chain, %function
iobuf_print_chain:
.LVL92:
.LFB44:
	.loc 1 968 1 is_stmt 1 view -0
	.cfi_startproc
	@ args = 0, pretend = 0, frame = 0
	@ frame_needed = 0, uses_anonymous_args = 0
	.loc 1 969 3 view .LVU291
.LBB82:
.LBI82:
	.loc 1 952 1 view .LVU292
.LBB83:
	.loc 1 954 3 view .LVU293
.LBE83:
.LBE82:
@ src/common/iobuf.c:968: {
	.loc 1 968 1 is_stmt 0 view .LVU294
	ldr	r3, .L107	@ tmp117,
.LBB87:
.LBB84:
@ src/common/iobuf.c:954:   if (!DBG_IOBUF)
	.loc 1 954 7 view .LVU295
	ldr	r2, .L107+4	@ tmp120,
.LBE84:
.LBE87:
@ src/common/iobuf.c:968: {
	.loc 1 968 1 view .LVU296
.LPIC12:
	add	r3, pc, r3	@ tmp117, tmp117
.LBB88:
.LBB85:
@ src/common/iobuf.c:954:   if (!DBG_IOBUF)
	.loc 1 954 7 view .LVU297
	ldr	r3, [r3, r2]	@ tmp116,
@ src/common/iobuf.c:954:   if (!DBG_IOBUF)
	.loc 1 954 6 view .LVU298
	ldr	r3, [r3]	@ iobuf_debug_mode, iobuf_debug_mode
	cmp	r3, #0	@ iobuf_debug_mode,
	beq	.L104		@,
.LBE85:
.LBE88:
@ src/common/iobuf.c:968: {
	.loc 1 968 1 view .LVU299
	push	{r4, lr}	@
	.cfi_def_cfa_offset 8
	.cfi_offset 4, -8
	.cfi_offset 14, -4
.LBB89:
.LBB86:
	bl	print_chain.part.0(PLT)	@
.LVL93:
	.loc 1 968 1 view .LVU300
.LBE86:
.LBE89:
	.loc 1 970 3 is_stmt 1 view .LVU301
@ src/common/iobuf.c:971: }
	.loc 1 971 1 is_stmt 0 view .LVU302
	mov	r0, #0	@,
	pop	{r4, pc}	@
.LVL94:
.L104:
	.cfi_def_cfa_offset 0
	.cfi_restore 4
	.cfi_restore 14
	.loc 1 970 3 is_stmt 1 view .LVU303
@ src/common/iobuf.c:971: }
	.loc 1 971 1 is_stmt 0 view .LVU304
	mov	r0, #0	@,
.LVL95:
	.loc 1 971 1 view .LVU305
	bx	lr	@
.L108:
	.align	2
.L107:
	.word	_GLOBAL_OFFSET_TABLE_-(.LPIC12+8)
	.word	iobuf_debug_mode(GOT)
	.cfi_endproc
.LFE44:
	.size	iobuf_print_chain, .-iobuf_print_chain
	.section	.rodata.iobuf_alloc.str1.4,"aMS",%progbits,1
	.align	2
.LC9:
	.ascii	"iobuf_alloc use:%d %d\012\000"
	.align	2
.LC10:
	.ascii	"iobuf_alloc() passed a bufsize of 0!\012\000"
	.section	.text.iobuf_alloc,"ax",%progbits
	.align	2
	.global	iobuf_alloc
	.syntax unified
	.arm
	.fpu softvfp
	.type	iobuf_alloc, %function
iobuf_alloc:
.LVL96:
.LFB45:
	.loc 1 975 1 is_stmt 1 view -0
	.cfi_startproc
	@ args = 0, pretend = 0, frame = 8
	@ frame_needed = 0, uses_anonymous_args = 0
	.loc 1 976 3 view .LVU307
	.loc 1 977 3 view .LVU308
	.loc 1 979 3 view .LVU309
@ src/common/iobuf.c:975: {
	.loc 1 975 1 is_stmt 0 view .LVU310
	mov	r3, r0	@ tmp138, use
	push	{r4, r5, lr}	@
	.cfi_def_cfa_offset 12
	.cfi_offset 4, -12
	.cfi_offset 5, -8
	.cfi_offset 14, -4
	sub	sp, sp, #12	@,,
	.cfi_def_cfa_offset 24
@ src/common/iobuf.c:979:   printf ("iobuf_alloc use:%d %d\n",use, use == IOBUF_INPUT || use == IOBUF_INPUT_TEMP || use == IOBUF_OUTPUT || use == IOBUF_OUTPUT_TEMP);
	.loc 1 979 3 view .LVU311
	ldr	r0, .L113	@,
.LVL97:
	.loc 1 979 3 view .LVU312
	cmp	r3, #3	@ use,
@ src/common/iobuf.c:975: {
	.loc 1 975 1 view .LVU313
	str	r1, [sp, #4]	@ tmp139, %sfp
@ src/common/iobuf.c:979:   printf ("iobuf_alloc use:%d %d\n",use, use == IOBUF_INPUT || use == IOBUF_INPUT_TEMP || use == IOBUF_OUTPUT || use == IOBUF_OUTPUT_TEMP);
	.loc 1 979 3 view .LVU314
	movhi	r2, #0	@,
.LPIC13:
	add	r0, pc, r0	@,
	mov	r1, r3	@, use
.LVL98:
	.loc 1 979 3 view .LVU315
	movls	r2, #1	@,
@ src/common/iobuf.c:975: {
	.loc 1 975 1 view .LVU316
	mov	r5, r3	@ use, use
@ src/common/iobuf.c:979:   printf ("iobuf_alloc use:%d %d\n",use, use == IOBUF_INPUT || use == IOBUF_INPUT_TEMP || use == IOBUF_OUTPUT || use == IOBUF_OUTPUT_TEMP);
	.loc 1 979 3 view .LVU317
	bl	tfp_printf(PLT)	@
.LVL99:
	.loc 1 980 3 is_stmt 1 view .LVU318
@ src/common/iobuf.c:980:   if (bufsize == 0)
	.loc 1 980 6 is_stmt 0 view .LVU319
	ldr	r3, [sp, #4]	@ bufsize, %sfp
	cmp	r3, #0	@ bufsize,
	beq	.L112		@,
.LVL100:
.L110:
	.loc 1 986 3 is_stmt 1 view .LVU320
@ src/common/iobuf.c:986:   a = xcalloc (1, sizeof *a);
	.loc 1 986 7 is_stmt 0 view .LVU321
	mov	r1, #72	@,
	mov	r0, #1	@,
	bl	xcalloc(PLT)	@
.LVL101:
	mov	r4, r0	@ <retval>, tmp140
.LVL102:
	.loc 1 987 3 is_stmt 1 view .LVU322
@ src/common/iobuf.c:993:   a->d.buf = xmalloc (bufsize);
	.loc 1 993 14 is_stmt 0 view .LVU323
	ldr	r0, [sp, #4]	@, %sfp
.LVL103:
@ src/common/iobuf.c:987:   a->use = use;
	.loc 1 987 10 view .LVU324
	strb	r5, [r4]	@ use, a_16->use
	.loc 1 993 3 is_stmt 1 view .LVU325
@ src/common/iobuf.c:993:   a->d.buf = xmalloc (bufsize);
	.loc 1 993 14 is_stmt 0 view .LVU326
	bl	xmalloc(PLT)	@
.LVL104:
@ src/common/iobuf.c:995:   a->no = ++number;
	.loc 1 995 11 view .LVU327
	ldr	r2, .L113+4	@ tmp131,
@ src/common/iobuf.c:996:   a->subno = 0;
	.loc 1 996 12 view .LVU328
	mov	r1, #0	@ tmp135,
@ src/common/iobuf.c:994:   a->d.size = bufsize;
	.loc 1 994 13 view .LVU329
	ldr	r3, [sp, #4]	@ bufsize, %sfp
@ src/common/iobuf.c:995:   a->no = ++number;
	.loc 1 995 11 view .LVU330
.LPIC15:
	add	r2, pc, r2	@ tmp131, tmp131
@ src/common/iobuf.c:994:   a->d.size = bufsize;
	.loc 1 994 13 view .LVU331
	str	r3, [r4, #20]	@ bufsize, a_16->d.size
@ src/common/iobuf.c:995:   a->no = ++number;
	.loc 1 995 11 view .LVU332
	ldr	r3, [r2]	@ number, number
@ src/common/iobuf.c:993:   a->d.buf = xmalloc (bufsize);
	.loc 1 993 12 view .LVU333
	str	r0, [r4, #32]	@ tmp141, a_16->d.buf
	.loc 1 994 3 is_stmt 1 view .LVU334
	.loc 1 995 3 view .LVU335
@ src/common/iobuf.c:999: }
	.loc 1 999 1 is_stmt 0 view .LVU336
	mov	r0, r4	@, <retval>
@ src/common/iobuf.c:996:   a->subno = 0;
	.loc 1 996 12 view .LVU337
	str	r1, [r4, #68]	@ tmp135, a_16->subno
@ src/common/iobuf.c:995:   a->no = ++number;
	.loc 1 995 11 view .LVU338
	add	r3, r3, #1	@ _7, number,
@ src/common/iobuf.c:997:   a->real_fname = NULL;
	.loc 1 997 17 view .LVU339
	str	r1, [r4, #56]	@ tmp135, a_16->real_fname
@ src/common/iobuf.c:995:   a->no = ++number;
	.loc 1 995 9 view .LVU340
	str	r3, [r2]	@ _7, number
	str	r3, [r4, #64]	@ _7, a_16->no
	.loc 1 996 3 is_stmt 1 view .LVU341
	.loc 1 997 3 view .LVU342
	.loc 1 998 3 view .LVU343
@ src/common/iobuf.c:999: }
	.loc 1 999 1 is_stmt 0 view .LVU344
	add	sp, sp, #12	@,,
	.cfi_remember_state
	.cfi_def_cfa_offset 12
	@ sp needed	@
	pop	{r4, r5, pc}	@
.LVL105:
.L112:
	.cfi_restore_state
	.loc 1 982 7 is_stmt 1 view .LVU345
	ldr	r0, .L113+8	@,
@ src/common/iobuf.c:983:       bufsize = IOBUF_BUFFER_SIZE;
	.loc 1 983 15 is_stmt 0 view .LVU346
	mov	r3, #8192	@ bufsize,
	str	r3, [sp, #4]	@ bufsize, %sfp
.LVL106:
@ src/common/iobuf.c:982:       printf ("iobuf_alloc() passed a bufsize of 0!\n");
	.loc 1 982 7 view .LVU347
.LPIC14:
	add	r0, pc, r0	@,
	bl	tfp_printf(PLT)	@
.LVL107:
	.loc 1 983 7 is_stmt 1 view .LVU348
	.loc 1 983 7 is_stmt 0 view .LVU349
	b	.L110		@
.L114:
	.align	2
.L113:
	.word	.LC9-(.LPIC13+8)
	.word	.LANCHOR0-(.LPIC15+8)
	.word	.LC10-(.LPIC14+8)
	.cfi_endproc
.LFE45:
	.size	iobuf_alloc, .-iobuf_alloc
	.section	.rodata.do_open.constprop.0.str1.4,"aMS",%progbits,1
	.align	2
.LC11:
	.ascii	"[stdin]\000"
	.align	2
.LC12:
	.ascii	"[stdout]\000"
	.align	2
.LC13:
	.ascii	"do_open %s %d %s\000"
	.align	2
.LC14:
	.ascii	"iobuf-%d.%d: open '%s' desc=%s fd=%d\012\000"
	.section	.text.do_open.constprop.0,"ax",%progbits
	.align	2
	.syntax unified
	.arm
	.fpu softvfp
	.type	do_open.constprop.0, %function
do_open.constprop.0:
.LVL108:
.LFB92:
	.loc 1 1121 1 is_stmt 1 view -0
	.cfi_startproc
	@ args = 0, pretend = 0, frame = 40
	@ frame_needed = 0, uses_anonymous_args = 0
	.loc 1 1125 3 view .LVU351
@ src/common/iobuf.c:1121: do_open (const char *fname, int special_filenames,
	.loc 1 1121 1 is_stmt 0 view .LVU352
	push	{r4, r5, r6, r7, r8, r9, r10, lr}	@
	.cfi_def_cfa_offset 32
	.cfi_offset 4, -32
	.cfi_offset 5, -28
	.cfi_offset 6, -24
	.cfi_offset 7, -20
	.cfi_offset 8, -16
	.cfi_offset 9, -12
	.cfi_offset 10, -8
	.cfi_offset 14, -4
	mov	r4, r0	@ tmp157, fname
@ src/common/iobuf.c:1125:   printf("do_open %s %d %s", fname, use, opentype);
	.loc 1 1125 3 view .LVU353
	ldr	r0, .L137	@,
.LVL109:
@ src/common/iobuf.c:1121: do_open (const char *fname, int special_filenames,
	.loc 1 1121 1 view .LVU354
	sub	sp, sp, #48	@,,
	.cfi_def_cfa_offset 80
@ src/common/iobuf.c:1121: do_open (const char *fname, int special_filenames,
	.loc 1 1121 1 view .LVU355
	ldr	r8, .L137+4	@ tmp140,
	mov	r6, r1	@ special_filenames, tmp158
@ src/common/iobuf.c:1125:   printf("do_open %s %d %s", fname, use, opentype);
	.loc 1 1125 3 view .LVU356
.LPIC19:
	add	r0, pc, r0	@,
	mov	r1, r4	@, fname
.LVL110:
@ src/common/iobuf.c:1121: do_open (const char *fname, int special_filenames,
	.loc 1 1121 1 view .LVU357
.LPIC20:
	add	r8, pc, r8	@ tmp140, tmp140
	mov	r5, r2	@ use, tmp159
@ src/common/iobuf.c:1125:   printf("do_open %s %d %s", fname, use, opentype);
	.loc 1 1125 3 view .LVU358
	bl	tfp_printf(PLT)	@
.LVL111:
	.loc 1 1126 3 is_stmt 1 view .LVU359
	.loc 1 1127 3 view .LVU360
	.loc 1 1128 3 view .LVU361
	.loc 1 1129 3 view .LVU362
@ src/common/iobuf.c:1129:   size_t len = 0;
	.loc 1 1129 10 is_stmt 0 view .LVU363
	mov	r3, #0	@ tmp134,
@ src/common/iobuf.c:1134:   printf (use == IOBUF_INPUT || use == IOBUF_OUTPUT);
	.loc 1 1134 3 view .LVU364
	mov	r0, #1	@,
@ src/common/iobuf.c:1129:   size_t len = 0;
	.loc 1 1129 10 view .LVU365
	str	r3, [sp, #8]	@ tmp134, len
	.loc 1 1130 3 is_stmt 1 view .LVU366
.LVL112:
	.loc 1 1131 3 view .LVU367
	.loc 1 1132 3 view .LVU368
	.loc 1 1134 3 view .LVU369
	bl	tfp_printf(PLT)	@
.LVL113:
	.loc 1 1136 3 view .LVU370
@ src/common/iobuf.c:1136:   if (special_filenames
	.loc 1 1136 6 is_stmt 0 view .LVU371
	cmp	r6, #0	@ special_filenames,
	beq	.L116		@,
@ src/common/iobuf.c:1138:       && (!fname || (*fname == '-' && !fname[1])))
	.loc 1 1138 7 view .LVU372
	cmp	r4, #0	@ fname,
	beq	.L117		@,
@ src/common/iobuf.c:1138:       && (!fname || (*fname == '-' && !fname[1])))
	.loc 1 1138 18 view .LVU373
	ldrb	r3, [r4]	@ zero_extendqisi2	@ *fname_1(D), *fname_1(D)
	cmp	r3, #45	@ *fname_1(D),
	beq	.L133		@,
.LVL114:
.L118:
	.loc 1 1164 7 is_stmt 1 view .LVU374
@ src/common/iobuf.c:1164:       if (fp == GNUPG_INVALID_FD)
	.loc 1 1164 10 is_stmt 0 view .LVU375
	mov	r9, #0	@ fp,
@ src/common/iobuf.c:1130:   int print_only = 0;
	.loc 1 1130 7 view .LVU376
	mov	r6, r9	@ special_filenames, fp
.LVL115:
.L119:
	.loc 1 1168 3 is_stmt 1 view .LVU377
@ src/common/iobuf.c:1168:   a = iobuf_alloc (use, IOBUF_BUFFER_SIZE);
	.loc 1 1168 7 is_stmt 0 view .LVU378
	mov	r1, #8192	@,
	mov	r0, r5	@, use
	bl	iobuf_alloc(PLT)	@
.LVL116:
	mov	r5, r0	@ <retval>, tmp160
.LVL117:
	.loc 1 1169 3 is_stmt 1 view .LVU379
@ src/common/iobuf.c:1169:   fcx = xmalloc (sizeof *fcx + strlen (fname));
	.loc 1 1169 32 is_stmt 0 view .LVU380
	mov	r0, r4	@, fname
.LVL118:
	.loc 1 1169 32 view .LVU381
	bl	strlen(PLT)	@
.LVL119:
@ src/common/iobuf.c:1169:   fcx = xmalloc (sizeof *fcx + strlen (fname));
	.loc 1 1169 9 view .LVU382
	add	r0, r0, #56	@, tmp161,
	bl	xmalloc(PLT)	@
.LVL120:
@ src/common/iobuf.c:1175:   a->filter = file_filter;
	.loc 1 1175 13 view .LVU383
	ldr	r3, .L137+8	@ tmp163,
@ src/common/iobuf.c:1177:   file_filter (fcx, IOBUFCTRL_INIT, NULL, NULL, &len);
	.loc 1 1177 3 view .LVU384
	add	r2, sp, #8	@ tmp141,,
@ src/common/iobuf.c:1170:   fcx->fp = fp;
	.loc 1 1170 11 view .LVU385
	str	r9, [r0]	@ fp, fcx_17->fp
@ src/common/iobuf.c:1177:   file_filter (fcx, IOBUFCTRL_INIT, NULL, NULL, &len);
	.loc 1 1177 3 view .LVU386
	mov	r1, #1	@,
@ src/common/iobuf.c:1171:   fcx->print_only_name = print_only;
	.loc 1 1171 24 view .LVU387
	str	r6, [r0, #16]	@ special_filenames, fcx_17->print_only_name
@ src/common/iobuf.c:1169:   fcx = xmalloc (sizeof *fcx + strlen (fname));
	.loc 1 1169 9 view .LVU388
	mov	r7, r0	@ fcx, tmp162
.LVL121:
	.loc 1 1170 3 is_stmt 1 view .LVU389
	.loc 1 1171 3 view .LVU390
	.loc 1 1175 3 view .LVU391
@ src/common/iobuf.c:1175:   a->filter = file_filter;
	.loc 1 1175 13 is_stmt 0 view .LVU392
	ldr	r3, [r8, r3]	@ tmp139,
@ src/common/iobuf.c:1176:   a->filter_ov = fcx;
	.loc 1 1176 16 view .LVU393
	str	r0, [r5, #48]	@ fcx, a_13->filter_ov
@ src/common/iobuf.c:1175:   a->filter = file_filter;
	.loc 1 1175 13 view .LVU394
	str	r3, [r5, #44]	@ tmp139, a_13->filter
	.loc 1 1176 3 is_stmt 1 view .LVU395
	.loc 1 1177 3 view .LVU396
	mov	r3, #0	@,
	str	r2, [sp]	@ tmp141,
	mov	r2, r3	@,
	bl	file_filter(PLT)	@
.LVL122:
	.loc 1 1178 3 view .LVU397
@ src/common/iobuf.c:1178:   if (DBG_IOBUF)
	.loc 1 1178 7 is_stmt 0 view .LVU398
	ldr	r3, .L137+12	@ tmp164,
	ldr	r3, [r8, r3]	@ tmp142,
@ src/common/iobuf.c:1178:   if (DBG_IOBUF)
	.loc 1 1178 6 view .LVU399
	ldr	r3, [r3]	@ iobuf_debug_mode, iobuf_debug_mode
	cmp	r3, #0	@ iobuf_debug_mode,
	bne	.L134		@,
.LVL123:
.L115:
@ src/common/iobuf.c:1183: }
	.loc 1 1183 1 view .LVU400
	mov	r0, r5	@, <retval>
	add	sp, sp, #48	@,,
	.cfi_remember_state
	.cfi_def_cfa_offset 32
	@ sp needed	@
	pop	{r4, r5, r6, r7, r8, r9, r10, pc}	@
.LVL124:
.L133:
	.cfi_restore_state
@ src/common/iobuf.c:1138:       && (!fname || (*fname == '-' && !fname[1])))
	.loc 1 1138 36 view .LVU401
	ldrb	r3, [r4, #1]	@ zero_extendqisi2	@ MEM[(const char *)fname_1(D) + 1B], MEM[(const char *)fname_1(D) + 1B]
	cmp	r3, #0	@ MEM[(const char *)fname_1(D) + 1B],
	bne	.L118		@,
.L117:
	.loc 1 1140 7 is_stmt 1 view .LVU402
@ src/common/iobuf.c:1140:       if (use == IOBUF_INPUT)
	.loc 1 1140 10 is_stmt 0 view .LVU403
	cmp	r5, #0	@ use,
	bne	.L135		@,
@ src/common/iobuf.c:1143: 	  fname = "[stdin]";
	.loc 1 1143 10 view .LVU404
	ldr	r4, .L137+16	@ fname,
.LVL125:
@ src/common/iobuf.c:1142: 	  fp = FD_FOR_STDIN;
	.loc 1 1142 7 view .LVU405
	mov	r9, r5	@ fp, use
@ src/common/iobuf.c:1143: 	  fname = "[stdin]";
	.loc 1 1143 10 view .LVU406
.LPIC17:
	add	r4, pc, r4	@ fname, fname
	b	.L119		@
.LVL126:
.L116:
	.loc 1 1152 8 is_stmt 1 view .LVU407
@ src/common/iobuf.c:1152:   else if (!fname)
	.loc 1 1152 11 is_stmt 0 view .LVU408
	cmp	r4, #0	@ fname,
@ src/common/iobuf.c:1153:     return NULL;
	.loc 1 1153 12 view .LVU409
	moveq	r5, r4	@ <retval>, fname
.LVL127:
@ src/common/iobuf.c:1152:   else if (!fname)
	.loc 1 1152 11 view .LVU410
	bne	.L118		@,
	b	.L115		@
.LVL128:
.L134:
	.loc 1 1179 5 is_stmt 1 view .LVU411
.LBB94:
.LBB95:
@ src/common/iobuf.c:943:   if (! a || ! a->filter)
	.loc 1 943 17 is_stmt 0 view .LVU412
	ldr	r8, [r5, #44]	@ _43, a_13->filter
@ src/common/iobuf.c:941:   size_t len = MAX_IOBUF_DESC;
	.loc 1 941 10 view .LVU413
	mov	r3, #32	@ tmp144,
.LBE95:
.LBE94:
@ src/common/iobuf.c:1179:     printf ("iobuf-%d.%d: open '%s' desc=%s fd=%d\n",
	.loc 1 1179 5 view .LVU414
	ldr	r9, [r5, #64]	@ _21, a_13->no
.LVL129:
	.loc 1 1179 5 view .LVU415
	ldr	r10, [r5, #68]	@ _22, a_13->subno
.LVL130:
.LBB100:
.LBI94:
	.loc 1 939 1 is_stmt 1 view .LVU416
.LBB98:
	.loc 1 941 3 view .LVU417
@ src/common/iobuf.c:943:   if (! a || ! a->filter)
	.loc 1 943 11 is_stmt 0 view .LVU418
	cmp	r8, #0	@ _43,
@ src/common/iobuf.c:941:   size_t len = MAX_IOBUF_DESC;
	.loc 1 941 10 view .LVU419
	str	r3, [sp, #12]	@ tmp144, len
	.loc 1 943 3 is_stmt 1 view .LVU420
@ src/common/iobuf.c:943:   if (! a || ! a->filter)
	.loc 1 943 11 is_stmt 0 view .LVU421
	beq	.L136		@,
	.loc 1 946 5 is_stmt 1 view .LVU422
	ldr	r0, [r5, #48]	@ a_13->filter_ov, a_13->filter_ov
	add	r3, sp, #12	@ tmp150,,
	str	r3, [sp]	@ tmp150,
	add	r6, sp, #16	@ tmp156,,
	mov	r3, r6	@, tmp156
	mov	r2, #0	@,
	mov	r1, #5	@,
	blx	r8		@ _43
.LVL131:
.L122:
	.loc 1 948 3 view .LVU423
	.loc 1 948 3 is_stmt 0 view .LVU424
.LBE98:
.LBE100:
@ src/common/iobuf.c:1179:     printf ("iobuf-%d.%d: open '%s' desc=%s fd=%d\n",
	.loc 1 1179 5 view .LVU425
	ldr	r3, [r7]	@ fcx_17->fp, fcx_17->fp
	mov	r2, r10	@, _22
	ldr	r0, .L137+20	@,
	mov	r1, r9	@, _21
	str	r3, [sp, #4]	@ fcx_17->fp,
	mov	r3, r4	@, fname
.LPIC22:
	add	r0, pc, r0	@,
	str	r6, [sp]	@ tmp156,
	bl	tfp_printf(PLT)	@
.LVL132:
@ src/common/iobuf.c:1183: }
	.loc 1 1183 1 view .LVU426
	mov	r0, r5	@, <retval>
	add	sp, sp, #48	@,,
	.cfi_remember_state
	.cfi_def_cfa_offset 32
	@ sp needed	@
	pop	{r4, r5, r6, r7, r8, r9, r10, pc}	@
.LVL133:
.L135:
	.cfi_restore_state
@ src/common/iobuf.c:1148: 	  fname = "[stdout]";
	.loc 1 1148 10 view .LVU427
	ldr	r4, .L137+24	@ fname,
.LVL134:
@ src/common/iobuf.c:1147: 	  fp = FD_FOR_STDOUT;
	.loc 1 1147 7 view .LVU428
	mov	r9, r6	@ fp, special_filenames
@ src/common/iobuf.c:1148: 	  fname = "[stdout]";
	.loc 1 1148 10 view .LVU429
.LPIC18:
	add	r4, pc, r4	@ fname, fname
	b	.L119		@
.LVL135:
.L136:
.LBB101:
.LBB99:
.LBB96:
.LBI96:
	.loc 1 939 1 is_stmt 1 view .LVU430
.LBB97:
	.loc 1 944 5 view .LVU431
	ldr	r1, .L137+28	@,
	add	r6, sp, #16	@ tmp156,,
	mov	r2, #2	@,
	mov	r0, r6	@, tmp156
.LPIC21:
	add	r1, pc, r1	@,
	bl	memcpy(PLT)	@
.LVL136:
	b	.L122		@
.L138:
	.align	2
.L137:
	.word	.LC13-(.LPIC19+8)
	.word	_GLOBAL_OFFSET_TABLE_-(.LPIC20+8)
	.word	file_filter(GOT)
	.word	iobuf_debug_mode(GOT)
	.word	.LC11-(.LPIC17+8)
	.word	.LC14-(.LPIC22+8)
	.word	.LC12-(.LPIC18+8)
	.word	.LC6-(.LPIC21+8)
.LBE97:
.LBE96:
.LBE99:
.LBE101:
	.cfi_endproc
.LFE92:
	.size	do_open.constprop.0, .-do_open.constprop.0
	.section	.rodata.iobuf_close.str1.4,"aMS",%progbits,1
	.align	2
.LC15:
	.ascii	"iobuf-%d.%d: close '%s'\012\000"
	.section	.text.iobuf_close,"ax",%progbits
	.align	2
	.global	iobuf_close
	.syntax unified
	.arm
	.fpu softvfp
	.type	iobuf_close, %function
iobuf_close:
.LVL137:
.LFB46:
	.loc 1 1003 1 view -0
	.cfi_startproc
	@ args = 0, pretend = 0, frame = 48
	@ frame_needed = 0, uses_anonymous_args = 0
	.loc 1 1005 3 view .LVU433
	.loc 1 1006 3 view .LVU434
@ src/common/iobuf.c:1003: {
	.loc 1 1003 1 is_stmt 0 view .LVU435
	push	{r4, r5, r6, r7, r8, r9, r10, fp, lr}	@
	.cfi_def_cfa_offset 36
	.cfi_offset 4, -36
	.cfi_offset 5, -32
	.cfi_offset 6, -28
	.cfi_offset 7, -24
	.cfi_offset 8, -20
	.cfi_offset 9, -16
	.cfi_offset 10, -12
	.cfi_offset 11, -8
	.cfi_offset 14, -4
@ src/common/iobuf.c:1009:   for (; a; a = a_chain)
	.loc 1 1009 3 view .LVU436
	subs	r5, r0, #0	@ a, tmp165
@ src/common/iobuf.c:1003: {
	.loc 1 1003 1 view .LVU437
	ldr	r2, .L161	@ tmp134,
	sub	sp, sp, #60	@,,
	.cfi_def_cfa_offset 96
@ src/common/iobuf.c:1006:   size_t dummy_len = 0;
	.loc 1 1006 10 view .LVU438
	mov	r6, #0	@ tmp132,
@ src/common/iobuf.c:1003: {
	.loc 1 1003 1 view .LVU439
.LPIC23:
	add	r2, pc, r2	@ tmp134, tmp134
@ src/common/iobuf.c:1006:   size_t dummy_len = 0;
	.loc 1 1006 10 view .LVU440
	str	r6, [sp, #16]	@ tmp132, dummy_len
	.loc 1 1007 3 is_stmt 1 view .LVU441
.LVL138:
	.loc 1 1009 3 view .LVU442
	.loc 1 1009 10 view .LVU443
@ src/common/iobuf.c:1009:   for (; a; a = a_chain)
	.loc 1 1009 3 is_stmt 0 view .LVU444
	beq	.L147		@,
.LBB107:
@ src/common/iobuf.c:1020: 	printf ("iobuf-%d.%d: close '%s'\n",
	.loc 1 1020 2 view .LVU445
	ldr	r1, .L161+4	@ tmp163,
	ldr	r3, .L161+8	@ tmp167,
.LPIC25:
	add	r1, pc, r1	@ tmp163, tmp163
	str	r1, [sp, #8]	@ tmp163, %sfp
	ldr	r8, [r2, r3]	@ tmp160,
.LBB108:
.LBB109:
.LBB110:
.LBB111:
@ src/common/iobuf.c:944:     memcpy (buf, "?", 2);
	.loc 1 944 5 view .LVU446
	ldr	r3, .L161+12	@ tmp164,
.LPIC24:
	add	r3, pc, r3	@ tmp164, tmp164
	str	r3, [sp, #12]	@ tmp164, %sfp
	b	.L146		@
.LVL139:
.L141:
	.loc 1 944 5 view .LVU447
.LBE111:
.LBE110:
.LBE109:
.LBE108:
	.loc 1 1023 7 is_stmt 1 view .LVU448
@ src/common/iobuf.c:1023:       if (a->filter && (rc2 = a->filter (a->filter_ov, IOBUFCTRL_FREE,
	.loc 1 1023 12 is_stmt 0 view .LVU449
	ldr	r7, [r4, #44]	@ _5, a_45->filter
@ src/common/iobuf.c:1023:       if (a->filter && (rc2 = a->filter (a->filter_ov, IOBUFCTRL_FREE,
	.loc 1 1023 31 view .LVU450
	mov	r3, #0	@,
	add	ip, sp, #16	@ tmp148,,
	mov	r1, #2	@,
@ src/common/iobuf.c:1023:       if (a->filter && (rc2 = a->filter (a->filter_ov, IOBUFCTRL_FREE,
	.loc 1 1023 10 view .LVU451
	cmp	r7, r3	@ _5,
	beq	.L144		@,
@ src/common/iobuf.c:1023:       if (a->filter && (rc2 = a->filter (a->filter_ov, IOBUFCTRL_FREE,
	.loc 1 1023 31 discriminator 1 view .LVU452
	ldr	r2, [r4, #60]	@ a_45->chain, a_45->chain
	ldr	r0, [r4, #48]	@ a_45->filter_ov, a_45->filter_ov
	str	ip, [sp]	@ tmp148,
	blx	r7		@ _5
.LVL140:
	.loc 1 1026 7 is_stmt 1 discriminator 1 view .LVU453
@ src/common/iobuf.c:1026:       if (! rc && rc2)
	.loc 1 1026 10 is_stmt 0 discriminator 1 view .LVU454
	clz	r3, r6	@ tmp155, <retval>
	cmp	r0, #0	@ tmp166,
	lsr	r3, r3, #5	@ tmp155, tmp155,
	moveq	r3, #0	@ tmp155,
	cmp	r3, #0	@ tmp155,
	movne	r6, r0	@ <retval>, tmp166
.LVL141:
.L144:
	.loc 1 1031 7 is_stmt 1 view .LVU455
	ldr	r0, [r4, #56]	@, a_45->real_fname
	bl	xfree(PLT)	@
.LVL142:
	.loc 1 1032 7 view .LVU456
	.loc 1 1034 4 view .LVU457
@ src/common/iobuf.c:1032:       if (a->d.buf)
	.loc 1 1032 15 is_stmt 0 view .LVU458
	ldr	r0, [r4, #32]	@ _11, a_45->d.buf
@ src/common/iobuf.c:1034: 	  memset (a->d.buf, 0, a->d.size);	/* erase the buffer */
	.loc 1 1034 4 view .LVU459
	mov	r1, #0	@,
@ src/common/iobuf.c:1032:       if (a->d.buf)
	.loc 1 1032 10 view .LVU460
	cmp	r0, r1	@ _11,
	beq	.L145		@,
@ src/common/iobuf.c:1034: 	  memset (a->d.buf, 0, a->d.size);	/* erase the buffer */
	.loc 1 1034 4 view .LVU461
	ldr	r2, [r4, #20]	@, a_45->d.size
	bl	memset(PLT)	@
.LVL143:
	.loc 1 1035 4 is_stmt 1 view .LVU462
	ldr	r0, [r4, #32]	@, a_45->d.buf
	bl	xfree(PLT)	@
.LVL144:
.L145:
	.loc 1 1037 7 view .LVU463
	mov	r0, r4	@, a
	bl	xfree(PLT)	@
.LVL145:
.LBE107:
	.loc 1 1009 13 view .LVU464
	.loc 1 1009 10 view .LVU465
@ src/common/iobuf.c:1009:   for (; a; a = a_chain)
	.loc 1 1009 3 is_stmt 0 view .LVU466
	cmp	r5, #0	@ a,
	beq	.L139		@,
.LVL146:
.L146:
.LBB122:
	.loc 1 1011 7 is_stmt 1 view .LVU467
	.loc 1 1012 7 view .LVU468
	.loc 1 1014 7 view .LVU469
@ src/common/iobuf.c:1019:       if (DBG_IOBUF)
	.loc 1 1019 10 is_stmt 0 view .LVU470
	ldr	r3, [r8]	@ iobuf_debug_mode, iobuf_debug_mode
	mov	r4, r5	@ a, a
@ src/common/iobuf.c:1014:       a_chain = a->chain;
	.loc 1 1014 15 view .LVU471
	ldr	r5, [r5, #60]	@ a, a_43->chain
.LVL147:
	.loc 1 1019 7 is_stmt 1 view .LVU472
@ src/common/iobuf.c:1019:       if (DBG_IOBUF)
	.loc 1 1019 10 is_stmt 0 view .LVU473
	cmp	r3, #0	@ iobuf_debug_mode,
	beq	.L141		@,
	.loc 1 1020 2 is_stmt 1 view .LVU474
.LBB118:
.LBB114:
	.loc 1 946 5 view .LVU475
@ src/common/iobuf.c:943:   if (! a || ! a->filter)
	.loc 1 943 17 is_stmt 0 view .LVU476
	ldr	r9, [r4, #44]	@ _35, a_45->filter
@ src/common/iobuf.c:941:   size_t len = MAX_IOBUF_DESC;
	.loc 1 941 10 view .LVU477
	mov	r3, #32	@ tmp175,
	str	r3, [sp, #20]	@ tmp175, len
@ src/common/iobuf.c:946:     a->filter (a->filter_ov, IOBUFCTRL_DESC, NULL, buf, &len);
	.loc 1 946 5 view .LVU478
	add	r7, sp, #24	@ tmp161,,
.LBE114:
.LBE118:
@ src/common/iobuf.c:1020: 	printf ("iobuf-%d.%d: close '%s'\n",
	.loc 1 1020 2 view .LVU479
	ldr	r10, [r4, #64]	@ _2, a_45->no
.LBB119:
.LBB115:
@ src/common/iobuf.c:943:   if (! a || ! a->filter)
	.loc 1 943 11 view .LVU480
	cmp	r9, #0	@ _35,
.LBE115:
.LBE119:
@ src/common/iobuf.c:1020: 	printf ("iobuf-%d.%d: close '%s'\n",
	.loc 1 1020 2 view .LVU481
	ldr	fp, [r4, #68]	@ _3, a_45->subno
.LVL148:
.LBB120:
.LBI108:
	.loc 1 939 1 is_stmt 1 view .LVU482
.LBB116:
	.loc 1 941 3 view .LVU483
	.loc 1 943 3 view .LVU484
@ src/common/iobuf.c:946:     a->filter (a->filter_ov, IOBUFCTRL_DESC, NULL, buf, &len);
	.loc 1 946 5 is_stmt 0 view .LVU485
	add	r2, sp, #20	@ tmp142,,
	mov	r3, r7	@, tmp161
@ src/common/iobuf.c:943:   if (! a || ! a->filter)
	.loc 1 943 11 view .LVU486
	beq	.L160		@,
@ src/common/iobuf.c:946:     a->filter (a->filter_ov, IOBUFCTRL_DESC, NULL, buf, &len);
	.loc 1 946 5 view .LVU487
	ldr	r0, [r4, #48]	@ a_45->filter_ov, a_45->filter_ov
	mov	r1, #5	@,
	str	r2, [sp]	@ tmp142,
	mov	r2, #0	@,
	blx	r9		@ _35
.LVL149:
.L143:
	.loc 1 948 3 is_stmt 1 view .LVU488
	.loc 1 948 3 is_stmt 0 view .LVU489
.LBE116:
.LBE120:
@ src/common/iobuf.c:1020: 	printf ("iobuf-%d.%d: close '%s'\n",
	.loc 1 1020 2 view .LVU490
	ldr	r0, [sp, #8]	@, %sfp
	mov	r3, r7	@, tmp161
	mov	r2, fp	@, _3
	mov	r1, r10	@, _2
	bl	tfp_printf(PLT)	@
.LVL150:
	b	.L141		@
.LVL151:
.L160:
.LBB121:
.LBB117:
.LBB113:
.LBI110:
	.loc 1 939 1 is_stmt 1 view .LVU491
.LBB112:
	.loc 1 944 5 view .LVU492
	ldr	r1, [sp, #12]	@, %sfp
	mov	r2, #2	@,
	mov	r0, r7	@, tmp161
	bl	memcpy(PLT)	@
.LVL152:
	b	.L143		@
.LVL153:
.L147:
	.loc 1 944 5 is_stmt 0 view .LVU493
.LBE112:
.LBE113:
.LBE117:
.LBE121:
.LBE122:
@ src/common/iobuf.c:1007:   int rc = 0;
	.loc 1 1007 7 view .LVU494
	mov	r6, r5	@ <retval>, a
	.loc 1 1039 3 is_stmt 1 view .LVU495
.LVL154:
.L139:
@ src/common/iobuf.c:1040: }
	.loc 1 1040 1 is_stmt 0 view .LVU496
	mov	r0, r6	@, <retval>
	add	sp, sp, #60	@,,
	.cfi_def_cfa_offset 36
	@ sp needed	@
	pop	{r4, r5, r6, r7, r8, r9, r10, fp, pc}	@
.L162:
	.align	2
.L161:
	.word	_GLOBAL_OFFSET_TABLE_-(.LPIC23+8)
	.word	.LC15-(.LPIC25+8)
	.word	iobuf_debug_mode(GOT)
	.word	.LC6-(.LPIC24+8)
	.cfi_endproc
.LFE46:
	.size	iobuf_close, .-iobuf_close
	.section	.text.iobuf_temp,"ax",%progbits
	.align	2
	.global	iobuf_temp
	.syntax unified
	.arm
	.fpu softvfp
	.type	iobuf_temp, %function
iobuf_temp:
.LFB48:
	.loc 1 1089 1 is_stmt 1 view -0
	.cfi_startproc
	@ args = 0, pretend = 0, frame = 0
	@ frame_needed = 0, uses_anonymous_args = 0
	@ link register save eliminated.
	.loc 1 1090 3 view .LVU498
@ src/common/iobuf.c:1090:   return iobuf_alloc (IOBUF_OUTPUT_TEMP, IOBUF_BUFFER_SIZE);
	.loc 1 1090 10 is_stmt 0 view .LVU499
	mov	r1, #8192	@,
	mov	r0, #3	@,
	b	iobuf_alloc(PLT)	@
.LVL155:
	.cfi_endproc
.LFE48:
	.size	iobuf_temp, .-iobuf_temp
	.section	.rodata.iobuf_temp_with_content.str1.4,"aMS",%progbits,1
	.align	2
.LC16:
	.ascii	"iobuf_temp_with_content: %d bytes\012\000"
	.section	.text.iobuf_temp_with_content,"ax",%progbits
	.align	2
	.global	iobuf_temp_with_content
	.syntax unified
	.arm
	.fpu softvfp
	.type	iobuf_temp_with_content, %function
iobuf_temp_with_content:
.LVL156:
.LFB49:
	.loc 1 1095 1 is_stmt 1 view -0
	.cfi_startproc
	@ args = 0, pretend = 0, frame = 0
	@ frame_needed = 0, uses_anonymous_args = 0
	.loc 1 1096 3 view .LVU501
	.loc 1 1097 3 view .LVU502
	.loc 1 1099 3 view .LVU503
@ src/common/iobuf.c:1095: {
	.loc 1 1095 1 is_stmt 0 view .LVU504
	push	{r4, r5, r6, lr}	@
	.cfi_def_cfa_offset 16
	.cfi_offset 4, -16
	.cfi_offset 5, -12
	.cfi_offset 6, -8
	.cfi_offset 14, -4
@ src/common/iobuf.c:1095: {
	.loc 1 1095 1 view .LVU505
	mov	r4, r0	@ tmp139, buffer
@ src/common/iobuf.c:1099:   a = iobuf_alloc (IOBUF_INPUT_TEMP, length);
	.loc 1 1099 7 view .LVU506
	mov	r0, #1	@,
.LVL157:
@ src/common/iobuf.c:1095: {
	.loc 1 1095 1 view .LVU507
	mov	r6, r1	@ length, tmp140
@ src/common/iobuf.c:1099:   a = iobuf_alloc (IOBUF_INPUT_TEMP, length);
	.loc 1 1099 7 view .LVU508
	bl	iobuf_alloc(PLT)	@
.LVL158:
	.loc 1 1099 7 view .LVU509
	mov	r5, r0	@ tmp141,
@ src/common/iobuf.c:1100:   printf ("iobuf_temp_with_content: %d bytes\n", a->d.size);
	.loc 1 1100 3 view .LVU510
	ldr	r0, .L172	@,
	ldr	r1, [r5, #20]	@, a_12->d.size
.LPIC26:
	add	r0, pc, r0	@,
.LVL159:
	.loc 1 1100 3 is_stmt 1 view .LVU511
	bl	tfp_printf(PLT)	@
.LVL160:
	.loc 1 1102 3 view .LVU512
	.loc 1 1102 13 view .LVU513
@ src/common/iobuf.c:1102:   for (i=0; i < length; i++)
	.loc 1 1102 3 is_stmt 0 view .LVU514
	cmp	r6, #0	@ length,
	beq	.L165		@,
	add	r1, r4, r6	@ tmp131, buffer, length
	sub	r3, r4, #1	@ ivtmp.194, buffer,
	sub	r1, r1, #1	@ _31, tmp131,
	rsb	r4, r4, #1	@ tmp137, buffer,
.LVL161:
.L166:
	.loc 1 1103 5 is_stmt 1 discriminator 3 view .LVU515
@ src/common/iobuf.c:1103:     a->d.buf[i] = buffer[i];
	.loc 1 1103 13 is_stmt 0 discriminator 3 view .LVU516
	add	r2, r4, r3	@ tmp133, tmp137, ivtmp.194
@ src/common/iobuf.c:1103:     a->d.buf[i] = buffer[i];
	.loc 1 1103 25 discriminator 3 view .LVU517
	ldrb	lr, [r3, #1]!	@ zero_extendqisi2	@ _5, MEM[base: _28, offset: 0B]
.LVL162:
@ src/common/iobuf.c:1103:     a->d.buf[i] = buffer[i];
	.loc 1 1103 13 discriminator 3 view .LVU518
	ldr	ip, [r5, #32]	@ a_12->d.buf, a_12->d.buf
@ src/common/iobuf.c:1102:   for (i=0; i < length; i++)
	.loc 1 1102 3 discriminator 3 view .LVU519
	cmp	r3, r1	@ ivtmp.194, _31
@ src/common/iobuf.c:1103:     a->d.buf[i] = buffer[i];
	.loc 1 1103 17 discriminator 3 view .LVU520
	strb	lr, [ip, r2]	@ _5, *_4
	.loc 1 1102 25 is_stmt 1 discriminator 3 view .LVU521
.LVL163:
	.loc 1 1102 13 discriminator 3 view .LVU522
@ src/common/iobuf.c:1102:   for (i=0; i < length; i++)
	.loc 1 1102 3 is_stmt 0 discriminator 3 view .LVU523
	bne	.L166		@,
.LVL164:
.L165:
	.loc 1 1104 3 is_stmt 1 view .LVU524
@ src/common/iobuf.c:1104:   a->d.len = length;
	.loc 1 1104 12 is_stmt 0 view .LVU525
	str	r6, [r5, #28]	@ length, a_12->d.len
	.loc 1 1106 3 is_stmt 1 view .LVU526
@ src/common/iobuf.c:1107: }
	.loc 1 1107 1 is_stmt 0 view .LVU527
	mov	r0, r5	@, <retval>
	pop	{r4, r5, r6, pc}	@
.L173:
	.align	2
.L172:
	.word	.LC16-(.LPIC26+8)
	.cfi_endproc
.LFE49:
	.size	iobuf_temp_with_content, .-iobuf_temp_with_content
	.section	.text.iobuf_is_pipe_filename,"ax",%progbits
	.align	2
	.global	iobuf_is_pipe_filename
	.syntax unified
	.arm
	.fpu softvfp
	.type	iobuf_is_pipe_filename, %function
iobuf_is_pipe_filename:
.LVL165:
.LFB50:
	.loc 1 1112 1 is_stmt 1 view -0
	.cfi_startproc
	@ args = 0, pretend = 0, frame = 0
	@ frame_needed = 0, uses_anonymous_args = 0
	@ link register save eliminated.
	.loc 1 1114 3 view .LVU529
	.loc 1 1115 5 view .LVU530
@ src/common/iobuf.c:1117: }
	.loc 1 1117 1 is_stmt 0 view .LVU531
	mov	r0, #1	@,
.LVL166:
	.loc 1 1117 1 view .LVU532
	bx	lr	@
	.cfi_endproc
.LFE50:
	.size	iobuf_is_pipe_filename, .-iobuf_is_pipe_filename
	.section	.rodata.iobuf_open.str1.4,"aMS",%progbits,1
	.align	2
.LC17:
	.ascii	"rb\000"
	.section	.text.iobuf_open,"ax",%progbits
	.align	2
	.global	iobuf_open
	.syntax unified
	.arm
	.fpu softvfp
	.type	iobuf_open, %function
iobuf_open:
.LVL167:
.LFB52:
	.loc 1 1187 1 is_stmt 1 view -0
	.cfi_startproc
	@ args = 0, pretend = 0, frame = 0
	@ frame_needed = 0, uses_anonymous_args = 0
	@ link register save eliminated.
	.loc 1 1188 3 view .LVU534
@ src/common/iobuf.c:1188:   return do_open (fname, 1, IOBUF_INPUT, "rb", 0);
	.loc 1 1188 10 is_stmt 0 view .LVU535
	ldr	r3, .L176	@,
	mov	r2, #0	@,
	mov	r1, #1	@,
.LPIC27:
	add	r3, pc, r3	@,
	b	do_open.constprop.0(PLT)	@
.LVL168:
.L177:
	.loc 1 1188 10 view .LVU536
	.align	2
.L176:
	.word	.LC17-(.LPIC27+8)
	.cfi_endproc
.LFE52:
	.size	iobuf_open, .-iobuf_open
	.section	.rodata.iobuf_create.str1.4,"aMS",%progbits,1
	.align	2
.LC18:
	.ascii	"wb\000"
	.section	.text.iobuf_create,"ax",%progbits
	.align	2
	.global	iobuf_create
	.syntax unified
	.arm
	.fpu softvfp
	.type	iobuf_create, %function
iobuf_create:
.LVL169:
.LFB53:
	.loc 1 1193 1 is_stmt 1 view -0
	.cfi_startproc
	@ args = 0, pretend = 0, frame = 0
	@ frame_needed = 0, uses_anonymous_args = 0
	@ link register save eliminated.
	.loc 1 1194 3 view .LVU538
@ src/common/iobuf.c:1194:   return do_open (fname, 1, IOBUF_OUTPUT, "wb", mode700);
	.loc 1 1194 10 is_stmt 0 view .LVU539
	ldr	r3, .L179	@,
	mov	r2, #2	@,
	mov	r1, #1	@,
.LVL170:
	.loc 1 1194 10 view .LVU540
.LPIC28:
	add	r3, pc, r3	@,
	b	do_open.constprop.0(PLT)	@
.LVL171:
.L180:
	.loc 1 1194 10 view .LVU541
	.align	2
.L179:
	.word	.LC18-(.LPIC28+8)
	.cfi_endproc
.LFE53:
	.size	iobuf_create, .-iobuf_create
	.section	.rodata.iobuf_openrw.str1.4,"aMS",%progbits,1
	.align	2
.LC19:
	.ascii	"r+b\000"
	.section	.text.iobuf_openrw,"ax",%progbits
	.align	2
	.global	iobuf_openrw
	.syntax unified
	.arm
	.fpu softvfp
	.type	iobuf_openrw, %function
iobuf_openrw:
.LVL172:
.LFB54:
	.loc 1 1199 1 is_stmt 1 view -0
	.cfi_startproc
	@ args = 0, pretend = 0, frame = 0
	@ frame_needed = 0, uses_anonymous_args = 0
	@ link register save eliminated.
	.loc 1 1200 3 view .LVU543
@ src/common/iobuf.c:1200:   return do_open (fname, 0, IOBUF_OUTPUT, "r+b", 0);
	.loc 1 1200 10 is_stmt 0 view .LVU544
	ldr	r3, .L182	@,
	mov	r2, #2	@,
	mov	r1, #0	@,
.LPIC29:
	add	r3, pc, r3	@,
	b	do_open.constprop.0(PLT)	@
.LVL173:
.L183:
	.loc 1 1200 10 view .LVU545
	.align	2
.L182:
	.word	.LC19-(.LPIC29+8)
	.cfi_endproc
.LFE54:
	.size	iobuf_openrw, .-iobuf_openrw
	.section	.rodata.iobuf_ioctl.str1.4,"aMS",%progbits,1
	.align	2
.LC20:
	.ascii	"iobuf_ioctl %d %d %d\012\000"
	.align	2
.LC21:
	.ascii	"iobuf-%d.%d: ioctl '%s' keep_open=%d\012\000"
	.align	2
.LC22:
	.ascii	"iobuf-*.*: ioctl '%s' invalidate\012\000"
	.align	2
.LC23:
	.ascii	"iobuf-%d.%d: ioctl '%s' no_cache=%d\012\000"
	.align	2
.LC24:
	.ascii	"iobuf-*.*: ioctl '%s' fsync\012\000"
	.align	2
.LC25:
	.ascii	"fd_cache_synchronize (%s)\012\000"
	.align	2
.LC26:
	.ascii	"iobuf-%d.%d: ioctl '%s' peek\012\000"
	.align	2
.LC27:
	.ascii	"iobuf_ioctl file_filter\012\000"
	.align	2
.LC28:
	.ascii	"<null>\000"
	.section	.text.iobuf_ioctl,"ax",%progbits
	.align	2
	.global	iobuf_ioctl
	.syntax unified
	.arm
	.fpu softvfp
	.type	iobuf_ioctl, %function
iobuf_ioctl:
.LVL174:
.LFB57:
	.loc 1 1297 1 is_stmt 1 view -0
	.cfi_startproc
	@ args = 0, pretend = 0, frame = 40
	@ frame_needed = 0, uses_anonymous_args = 0
	.loc 1 1298 3 view .LVU547
@ src/common/iobuf.c:1297: {
	.loc 1 1297 1 is_stmt 0 view .LVU548
	push	{r4, r5, r6, r7, r8, r9, r10, fp, lr}	@
	.cfi_def_cfa_offset 36
	.cfi_offset 4, -36
	.cfi_offset 5, -32
	.cfi_offset 6, -28
	.cfi_offset 7, -24
	.cfi_offset 8, -20
	.cfi_offset 9, -16
	.cfi_offset 10, -12
	.cfi_offset 11, -8
	.cfi_offset 14, -4
	mov	r4, r0	@ tmp276, a
@ src/common/iobuf.c:1298:   printf("iobuf_ioctl %d %d %d\n",cmd,intval, ptrval);
	.loc 1 1298 3 view .LVU549
	ldr	r0, .L256	@,
.LVL175:
@ src/common/iobuf.c:1297: {
	.loc 1 1297 1 view .LVU550
	mov	r5, r1	@ cmd, tmp277
	ldr	r8, .L256+4	@ tmp172,
	sub	sp, sp, #52	@,,
	.cfi_def_cfa_offset 88
@ src/common/iobuf.c:1298:   printf("iobuf_ioctl %d %d %d\n",cmd,intval, ptrval);
	.loc 1 1298 3 view .LVU551
.LPIC31:
	add	r0, pc, r0	@,
@ src/common/iobuf.c:1297: {
	.loc 1 1297 1 view .LVU552
	mov	r6, r2	@ intval, tmp278
.LPIC32:
	add	r8, pc, r8	@ tmp172, tmp172
	mov	r7, r3	@ ptrval, tmp279
@ src/common/iobuf.c:1298:   printf("iobuf_ioctl %d %d %d\n",cmd,intval, ptrval);
	.loc 1 1298 3 view .LVU553
	bl	tfp_printf(PLT)	@
.LVL176:
	.loc 1 1299 3 is_stmt 1 view .LVU554
	.loc 1 1301 3 view .LVU555
@ src/common/iobuf.c:1301:   if (cmd == IOBUF_IOCTL_KEEP_OPEN)
	.loc 1 1301 6 is_stmt 0 view .LVU556
	cmp	r5, #1	@ cmd,
	beq	.L247		@,
	.loc 1 1326 8 is_stmt 1 view .LVU557
@ src/common/iobuf.c:1326:   else if (cmd == IOBUF_IOCTL_INVALIDATE_CACHE)
	.loc 1 1326 11 is_stmt 0 view .LVU558
	cmp	r5, #2	@ cmd,
	beq	.L248		@,
	.loc 1 1338 8 is_stmt 1 view .LVU559
@ src/common/iobuf.c:1338:   else if (cmd == IOBUF_IOCTL_NO_CACHE)
	.loc 1 1338 11 is_stmt 0 view .LVU560
	cmp	r5, #3	@ cmd,
	beq	.L249		@,
	.loc 1 1361 8 is_stmt 1 view .LVU561
@ src/common/iobuf.c:1361:   else if (cmd == IOBUF_IOCTL_FSYNC)
	.loc 1 1361 11 is_stmt 0 view .LVU562
	cmp	r5, #4	@ cmd,
	beq	.L250		@,
	.loc 1 1374 8 is_stmt 1 view .LVU563
@ src/common/iobuf.c:1374:   else if (cmd == IOBUF_IOCTL_PEEK)
	.loc 1 1374 11 is_stmt 0 view .LVU564
	cmp	r5, #5	@ cmd,
	bne	.L213		@,
	.loc 1 1381 7 is_stmt 1 view .LVU565
@ src/common/iobuf.c:1381:       if (DBG_IOBUF)
	.loc 1 1381 11 is_stmt 0 view .LVU566
	ldr	r3, .L256+8	@ tmp283,
	ldr	r3, [r8, r3]	@ tmp232,
@ src/common/iobuf.c:1381:       if (DBG_IOBUF)
	.loc 1 1381 10 view .LVU567
	ldr	r3, [r3]	@ iobuf_debug_mode, iobuf_debug_mode
	cmp	r3, #0	@ iobuf_debug_mode,
	beq	.L209		@,
	.loc 1 1382 2 is_stmt 1 view .LVU568
	cmp	r4, #0	@ a,
	beq	.L210		@,
.LBB140:
.LBB141:
@ src/common/iobuf.c:943:   if (! a || ! a->filter)
	.loc 1 943 17 is_stmt 0 discriminator 1 view .LVU569
	ldr	r10, [r4, #44]	@ _107, a_51(D)->filter
@ src/common/iobuf.c:941:   size_t len = MAX_IOBUF_DESC;
	.loc 1 941 10 discriminator 1 view .LVU570
	mov	r3, #32	@ tmp234,
.LBE141:
.LBE140:
@ src/common/iobuf.c:1382: 	printf ("iobuf-%d.%d: ioctl '%s' peek\n",
	.loc 1 1382 2 discriminator 1 view .LVU571
	ldr	fp, [r4, #64]	@ iftmp.26_53, a_51(D)->no
	ldr	r9, [r4, #68]	@ iftmp.27_55, a_51(D)->subno
.LVL177:
.LBB148:
.LBI140:
	.loc 1 939 1 is_stmt 1 discriminator 1 view .LVU572
.LBB144:
	.loc 1 941 3 discriminator 1 view .LVU573
@ src/common/iobuf.c:943:   if (! a || ! a->filter)
	.loc 1 943 11 is_stmt 0 discriminator 1 view .LVU574
	cmp	r10, #0	@ _107,
@ src/common/iobuf.c:941:   size_t len = MAX_IOBUF_DESC;
	.loc 1 941 10 discriminator 1 view .LVU575
	str	r3, [sp, #12]	@ tmp234, MEM[(unsigned int *)_17]
	.loc 1 943 3 is_stmt 1 discriminator 1 view .LVU576
@ src/common/iobuf.c:943:   if (! a || ! a->filter)
	.loc 1 943 11 is_stmt 0 discriminator 1 view .LVU577
	beq	.L216		@,
	.loc 1 946 5 is_stmt 1 view .LVU578
	ldr	r0, [r4, #48]	@ a_51(D)->filter_ov, a_51(D)->filter_ov
	add	r3, sp, #12	@ tmp240,,
	str	r3, [sp]	@ tmp240,
	mov	r1, r5	@, cmd
	add	r5, sp, #16	@ tmp273,,
	mov	r2, #0	@,
	mov	r3, r5	@, tmp273
	blx	r10		@ _107
.LVL178:
.L212:
	.loc 1 948 3 view .LVU579
.LBE144:
.LBE148:
@ src/common/iobuf.c:1382: 	printf ("iobuf-%d.%d: ioctl '%s' peek\n",
	.loc 1 1382 2 is_stmt 0 view .LVU580
	ldr	r0, .L256+12	@,
	mov	r3, r5	@, tmp273
	mov	r2, r9	@, iftmp.27_55
	mov	r1, fp	@, iftmp.26_53
.LPIC41:
	add	r0, pc, r0	@,
	bl	tfp_printf(PLT)	@
.LVL179:
.L209:
	.loc 1 1384 7 is_stmt 1 view .LVU581
@ src/common/iobuf.c:1384:       if (a->filter == file_filter && ptrval && intval)
	.loc 1 1384 10 is_stmt 0 view .LVU582
	ldr	r3, .L256+16	@ tmp282,
	ldr	r2, [r4, #44]	@ a_51(D)->filter, a_51(D)->filter
	ldr	r3, [r8, r3]	@ tmp245,
	cmp	r2, r3	@ a_51(D)->filter, tmp245
	bne	.L213		@,
@ src/common/iobuf.c:1384:       if (a->filter == file_filter && ptrval && intval)
	.loc 1 1384 46 discriminator 1 view .LVU583
	cmp	r7, #0	@ ptrval,
	cmpne	r6, #0	@, intval,
	beq	.L213		@,
.LBB149:
	.loc 1 1386 11 is_stmt 1 view .LVU584
	ldr	r0, .L256+20	@,
.LPIC42:
	add	r0, pc, r0	@,
	bl	tfp_printf(PLT)	@
.LVL180:
	.loc 1 1387 11 view .LVU585
@ src/common/iobuf.c:1387:           file_filter_ctx_t *fcx = a->filter_ov;
	.loc 1 1387 30 is_stmt 0 view .LVU586
	ldr	r0, [r4, #48]	@ fcx, a_51(D)->filter_ov
.LVL181:
	.loc 1 1388 11 is_stmt 1 view .LVU587
@ src/common/iobuf.c:1390:           if (!file_filter (fcx, IOBUFCTRL_PEEK, NULL, ptrval, &len))
	.loc 1 1390 16 is_stmt 0 view .LVU588
	add	r3, sp, #12	@ tmp256,,
	str	r3, [sp]	@ tmp256,
	mov	r2, #0	@,
@ src/common/iobuf.c:1388:           size_t len = intval;
	.loc 1 1388 18 view .LVU589
	str	r6, [sp, #12]	@ intval, MEM[(unsigned int *)_17]
	.loc 1 1390 11 is_stmt 1 view .LVU590
@ src/common/iobuf.c:1390:           if (!file_filter (fcx, IOBUFCTRL_PEEK, NULL, ptrval, &len))
	.loc 1 1390 16 is_stmt 0 view .LVU591
	mov	r3, r7	@, ptrval
	mov	r1, #7	@,
	bl	file_filter(PLT)	@
.LVL182:
@ src/common/iobuf.c:1390:           if (!file_filter (fcx, IOBUFCTRL_PEEK, NULL, ptrval, &len))
	.loc 1 1390 14 view .LVU592
	cmp	r0, #0	@ tmp281,
	bne	.L213		@,
	.loc 1 1391 13 is_stmt 1 view .LVU593
@ src/common/iobuf.c:1391:             return (int)len;
	.loc 1 1391 20 is_stmt 0 view .LVU594
	ldr	r0, [sp, #12]	@ <retval>, MEM[(unsigned int *)_17]
.LBE149:
@ src/common/iobuf.c:1397: }
	.loc 1 1397 1 view .LVU595
	add	sp, sp, #52	@,,
	.cfi_remember_state
	.cfi_def_cfa_offset 36
	@ sp needed	@
	pop	{r4, r5, r6, r7, r8, r9, r10, fp, pc}	@
.LVL183:
.L248:
	.cfi_restore_state
	.loc 1 1328 7 is_stmt 1 view .LVU596
@ src/common/iobuf.c:1328:       if (DBG_IOBUF)
	.loc 1 1328 11 is_stmt 0 view .LVU597
	ldr	r3, .L256+8	@ tmp287,
	ldr	r3, [r8, r3]	@ tmp188,
@ src/common/iobuf.c:1328:       if (DBG_IOBUF)
	.loc 1 1328 10 view .LVU598
	ldr	r3, [r3]	@ iobuf_debug_mode, iobuf_debug_mode
	cmp	r3, #0	@ iobuf_debug_mode,
	bne	.L251		@,
.L195:
	.loc 1 1331 7 is_stmt 1 view .LVU599
@ src/common/iobuf.c:1331:       if (!a && !intval && ptrval)
	.loc 1 1331 25 is_stmt 0 view .LVU600
	subs	r3, r7, #0	@ tmp199, ptrval,
@ src/common/iobuf.c:1331:       if (!a && !intval && ptrval)
	.loc 1 1331 17 view .LVU601
	orr	r4, r4, r6	@ tmp194, a, intval
.LVL184:
@ src/common/iobuf.c:1331:       if (!a && !intval && ptrval)
	.loc 1 1331 25 view .LVU602
	movne	r3, #1	@ tmp199,
	cmp	r4, #0	@ tmp194,
	movne	r3, #0	@ tmp199,
	cmp	r3, #0	@ tmp199,
	beq	.L213		@,
	.loc 1 1333 4 is_stmt 1 view .LVU603
@ src/common/iobuf.c:1333: 	  if (fd_cache_invalidate (ptrval))
	.loc 1 1333 8 is_stmt 0 view .LVU604
	mov	r0, r7	@, ptrval
	bl	fd_cache_invalidate(PLT)	@
.LVL185:
@ src/common/iobuf.c:1333: 	  if (fd_cache_invalidate (ptrval))
	.loc 1 1333 7 view .LVU605
	subs	r0, r0, #0	@ tmp201, tmp280,
	movne	r0, #1	@ tmp201,
	rsb	r0, r0, #0	@ <retval>, tmp201
.LVL186:
.L184:
@ src/common/iobuf.c:1397: }
	.loc 1 1397 1 view .LVU606
	add	sp, sp, #52	@,,
	.cfi_remember_state
	.cfi_def_cfa_offset 36
	@ sp needed	@
	pop	{r4, r5, r6, r7, r8, r9, r10, fp, pc}	@
.LVL187:
.L193:
	.cfi_restore_state
@ src/common/iobuf.c:1311: 	if (!a->chain && a->filter == file_filter)
	.loc 1 1311 8 view .LVU607
	ldr	r0, [r4, #60]	@ _4, a_28->chain
@ src/common/iobuf.c:1311: 	if (!a->chain && a->filter == file_filter)
	.loc 1 1311 5 view .LVU608
	cmp	r0, #0	@ _4,
	beq	.L252		@,
	.loc 1 1311 5 view .LVU609
	mov	r4, r0	@ a, _4
.LVL188:
.L190:
	.loc 1 1311 2 is_stmt 1 discriminator 1 view .LVU610
	.loc 1 1310 14 discriminator 1 view .LVU611
@ src/common/iobuf.c:1310:       for (; a; a = a->chain)
	.loc 1 1310 7 is_stmt 0 discriminator 1 view .LVU612
	cmp	r4, #0	@ a,
	bne	.L193		@,
.LVL189:
.L213:
@ src/common/iobuf.c:1396:   return -1;
	.loc 1 1396 10 view .LVU613
	mvn	r0, #0	@ <retval>,
.L253:
@ src/common/iobuf.c:1397: }
	.loc 1 1397 1 view .LVU614
	add	sp, sp, #52	@,,
	.cfi_remember_state
	.cfi_def_cfa_offset 36
	@ sp needed	@
	pop	{r4, r5, r6, r7, r8, r9, r10, fp, pc}	@
.LVL190:
.L247:
	.cfi_restore_state
	.loc 1 1306 7 is_stmt 1 view .LVU615
@ src/common/iobuf.c:1306:       if (DBG_IOBUF)
	.loc 1 1306 11 is_stmt 0 view .LVU616
	ldr	r3, .L256+8	@ tmp289,
	ldr	r3, [r8, r3]	@ tmp171,
@ src/common/iobuf.c:1306:       if (DBG_IOBUF)
	.loc 1 1306 10 view .LVU617
	ldr	r3, [r3]	@ iobuf_debug_mode, iobuf_debug_mode
	cmp	r3, #0	@ iobuf_debug_mode,
	beq	.L190		@,
	.loc 1 1307 2 is_stmt 1 view .LVU618
	cmp	r4, #0	@ a,
	beq	.L187		@,
.LBB150:
.LBB151:
@ src/common/iobuf.c:943:   if (! a || ! a->filter)
	.loc 1 943 17 is_stmt 0 discriminator 1 view .LVU619
	ldr	r9, [r4, #44]	@ _90, a_51(D)->filter
@ src/common/iobuf.c:941:   size_t len = MAX_IOBUF_DESC;
	.loc 1 941 10 discriminator 1 view .LVU620
	mov	r3, #32	@ tmp174,
.LBE151:
.LBE150:
@ src/common/iobuf.c:1307: 	printf ("iobuf-%d.%d: ioctl '%s' keep_open=%d\n",
	.loc 1 1307 2 discriminator 1 view .LVU621
	ldr	r10, [r4, #64]	@ iftmp.16_78, a_51(D)->no
	ldr	r7, [r4, #68]	@ iftmp.17_79, a_51(D)->subno
.LVL191:
.LBB158:
.LBI150:
	.loc 1 939 1 is_stmt 1 discriminator 1 view .LVU622
.LBB154:
	.loc 1 941 3 discriminator 1 view .LVU623
@ src/common/iobuf.c:943:   if (! a || ! a->filter)
	.loc 1 943 11 is_stmt 0 discriminator 1 view .LVU624
	cmp	r9, #0	@ _90,
@ src/common/iobuf.c:941:   size_t len = MAX_IOBUF_DESC;
	.loc 1 941 10 discriminator 1 view .LVU625
	str	r3, [sp, #12]	@ tmp174, MEM[(unsigned int *)_17]
	.loc 1 943 3 is_stmt 1 discriminator 1 view .LVU626
@ src/common/iobuf.c:943:   if (! a || ! a->filter)
	.loc 1 943 11 is_stmt 0 discriminator 1 view .LVU627
	beq	.L214		@,
	.loc 1 946 5 is_stmt 1 view .LVU628
	ldr	r0, [r4, #48]	@ a_51(D)->filter_ov, a_51(D)->filter_ov
	add	r3, sp, #12	@ tmp180,,
	str	r3, [sp]	@ tmp180,
	add	r5, sp, #16	@ tmp273,,
	mov	r3, r5	@, tmp273
	mov	r2, #0	@,
	mov	r1, #5	@,
	blx	r9		@ _90
.LVL192:
.L189:
	.loc 1 948 3 view .LVU629
.LBE154:
.LBE158:
@ src/common/iobuf.c:1307: 	printf ("iobuf-%d.%d: ioctl '%s' keep_open=%d\n",
	.loc 1 1307 2 is_stmt 0 view .LVU630
	ldr	r0, .L256+24	@,
	mov	r3, r5	@, tmp273
	str	r6, [sp]	@ intval,
	mov	r2, r7	@, iftmp.17_79
.LPIC34:
	add	r0, pc, r0	@,
	mov	r1, r10	@, iftmp.16_78
	bl	tfp_printf(PLT)	@
.LVL193:
	b	.L190		@
.L252:
@ src/common/iobuf.c:1311: 	if (!a->chain && a->filter == file_filter)
	.loc 1 1311 16 discriminator 1 view .LVU631
	ldr	r3, .L256+16	@ tmp288,
	ldr	r2, [r4, #44]	@ a_28->filter, a_28->filter
	ldr	r3, [r8, r3]	@ tmp185,
	cmp	r2, r3	@ a_28->filter, tmp185
.LBB159:
@ src/common/iobuf.c:1314: 	    b->keep_open = intval;
	.loc 1 1314 19 discriminator 1 view .LVU632
	ldreq	r3, [r4, #48]	@ a_28->filter_ov, a_28->filter_ov
	streq	r6, [r3, #4]	@ intval, b_82->keep_open
.LBE159:
@ src/common/iobuf.c:1311: 	if (!a->chain && a->filter == file_filter)
	.loc 1 1311 16 discriminator 1 view .LVU633
	beq	.L184		@,
@ src/common/iobuf.c:1396:   return -1;
	.loc 1 1396 10 view .LVU634
	mvn	r0, #0	@ <retval>,
	b	.L253		@
.LVL194:
.L251:
	.loc 1 1329 2 is_stmt 1 view .LVU635
	cmp	r7, #0	@ ptrval,
	movne	r1, r7	@ iftmp.19_33, ptrval
	beq	.L254		@,
.L196:
@ src/common/iobuf.c:1329: 	printf ("iobuf-*.*: ioctl '%s' invalidate\n",
	.loc 1 1329 2 is_stmt 0 discriminator 4 view .LVU636
	ldr	r0, .L256+28	@,
.LPIC35:
	add	r0, pc, r0	@,
	bl	tfp_printf(PLT)	@
.LVL195:
	b	.L195		@
.L250:
	.loc 1 1365 7 is_stmt 1 view .LVU637
@ src/common/iobuf.c:1365:       if (DBG_IOBUF)
	.loc 1 1365 11 is_stmt 0 view .LVU638
	ldr	r3, .L256+8	@ tmp284,
	ldr	r5, [r8, r3]	@ tmp218,
	ldr	r0, [r5]	@ <retval>, iobuf_debug_mode
@ src/common/iobuf.c:1365:       if (DBG_IOBUF)
	.loc 1 1365 10 view .LVU639
	cmp	r0, #0	@ <retval>,
	beq	.L207		@,
	.loc 1 1366 9 is_stmt 1 view .LVU640
	cmp	r7, #0	@ ptrval,
	beq	.L208		@,
@ src/common/iobuf.c:1366:         printf ("iobuf-*.*: ioctl '%s' fsync\n",
	.loc 1 1366 9 is_stmt 0 discriminator 4 view .LVU641
	ldr	r0, .L256+32	@,
	mov	r1, r7	@, ptrval
.LPIC38:
	add	r0, pc, r0	@,
	bl	tfp_printf(PLT)	@
.LVL196:
	.loc 1 1369 7 is_stmt 1 discriminator 4 view .LVU642
@ src/common/iobuf.c:1369:       if (!a && !intval && ptrval)
	.loc 1 1369 25 is_stmt 0 discriminator 4 view .LVU643
	orrs	r3, r4, r6	@ tmp291, a, intval
	bne	.L213		@,
	.loc 1 1371 11 is_stmt 1 view .LVU644
.LVL197:
.LBB160:
.LBI160:
	.loc 1 223 1 view .LVU645
.LBB161:
	.loc 1 225 3 view .LVU646
	.loc 1 228 3 view .LVU647
	.loc 1 230 3 view .LVU648
@ src/common/iobuf.c:230:   if (DBG_IOBUF)
	.loc 1 230 7 is_stmt 0 view .LVU649
	ldr	r0, [r5]	@ <retval>, iobuf_debug_mode
@ src/common/iobuf.c:230:   if (DBG_IOBUF)
	.loc 1 230 6 view .LVU650
	cmp	r0, #0	@ <retval>,
	beq	.L184		@,
	.loc 1 231 5 is_stmt 1 view .LVU651
	ldr	r0, .L256+36	@,
	mov	r1, r7	@, ptrval
.LPIC39:
	add	r0, pc, r0	@,
	bl	tfp_printf(PLT)	@
.LVL198:
.LBE161:
.LBE160:
@ src/common/iobuf.c:1371:           return fd_cache_synchronize (ptrval);
	.loc 1 1371 18 is_stmt 0 view .LVU652
	mov	r0, #0	@ <retval>,
	b	.L184		@
.LVL199:
.L249:
	.loc 1 1340 7 is_stmt 1 view .LVU653
@ src/common/iobuf.c:1340:       if (DBG_IOBUF)
	.loc 1 1340 11 is_stmt 0 view .LVU654
	ldr	r3, .L256+8	@ tmp286,
	ldr	r3, [r8, r3]	@ tmp202,
@ src/common/iobuf.c:1340:       if (DBG_IOBUF)
	.loc 1 1340 10 view .LVU655
	ldr	r3, [r3]	@ iobuf_debug_mode, iobuf_debug_mode
	cmp	r3, #0	@ iobuf_debug_mode,
	beq	.L203		@,
	.loc 1 1341 2 is_stmt 1 view .LVU656
	cmp	r4, #0	@ a,
	beq	.L200		@,
.LBB162:
.LBB163:
@ src/common/iobuf.c:943:   if (! a || ! a->filter)
	.loc 1 943 17 is_stmt 0 discriminator 1 view .LVU657
	ldr	r9, [r4, #44]	@ _92, a_51(D)->filter
@ src/common/iobuf.c:941:   size_t len = MAX_IOBUF_DESC;
	.loc 1 941 10 discriminator 1 view .LVU658
	mov	r3, #32	@ tmp204,
.LBE163:
.LBE162:
@ src/common/iobuf.c:1341: 	printf ("iobuf-%d.%d: ioctl '%s' no_cache=%d\n",
	.loc 1 1341 2 discriminator 1 view .LVU659
	ldr	r10, [r4, #64]	@ iftmp.21_69, a_51(D)->no
	ldr	r7, [r4, #68]	@ iftmp.22_70, a_51(D)->subno
.LVL200:
.LBB170:
.LBI162:
	.loc 1 939 1 is_stmt 1 discriminator 1 view .LVU660
.LBB166:
	.loc 1 941 3 discriminator 1 view .LVU661
@ src/common/iobuf.c:943:   if (! a || ! a->filter)
	.loc 1 943 11 is_stmt 0 discriminator 1 view .LVU662
	cmp	r9, #0	@ _92,
@ src/common/iobuf.c:941:   size_t len = MAX_IOBUF_DESC;
	.loc 1 941 10 discriminator 1 view .LVU663
	str	r3, [sp, #12]	@ tmp204, MEM[(unsigned int *)_17]
	.loc 1 943 3 is_stmt 1 discriminator 1 view .LVU664
@ src/common/iobuf.c:943:   if (! a || ! a->filter)
	.loc 1 943 11 is_stmt 0 discriminator 1 view .LVU665
	beq	.L215		@,
	.loc 1 946 5 is_stmt 1 view .LVU666
	ldr	r0, [r4, #48]	@ a_51(D)->filter_ov, a_51(D)->filter_ov
	add	r3, sp, #12	@ tmp210,,
	str	r3, [sp]	@ tmp210,
	add	r5, sp, #16	@ tmp273,,
	mov	r3, r5	@, tmp273
	mov	r2, #0	@,
	mov	r1, #5	@,
	blx	r9		@ _92
.LVL201:
.L202:
	.loc 1 948 3 view .LVU667
.LBE166:
.LBE170:
@ src/common/iobuf.c:1341: 	printf ("iobuf-%d.%d: ioctl '%s' no_cache=%d\n",
	.loc 1 1341 2 is_stmt 0 view .LVU668
	ldr	r0, .L256+40	@,
	mov	r3, r5	@, tmp273
	str	r6, [sp]	@ intval,
	mov	r2, r7	@, iftmp.22_70
.LPIC37:
	add	r0, pc, r0	@,
	mov	r1, r10	@, iftmp.21_69
	bl	tfp_printf(PLT)	@
.LVL202:
	b	.L203		@
.L205:
@ src/common/iobuf.c:1345: 	if (!a->chain && a->filter == file_filter)
	.loc 1 1345 8 view .LVU669
	ldr	r3, [r4, #60]	@ _13, a_29->chain
@ src/common/iobuf.c:1345: 	if (!a->chain && a->filter == file_filter)
	.loc 1 1345 5 view .LVU670
	cmp	r3, #0	@ _13,
	beq	.L255		@,
	.loc 1 1345 5 view .LVU671
	mov	r4, r3	@ a, _13
.LVL203:
.L203:
	.loc 1 1345 2 is_stmt 1 discriminator 1 view .LVU672
	.loc 1 1344 14 discriminator 1 view .LVU673
@ src/common/iobuf.c:1344:       for (; a; a = a->chain)
	.loc 1 1344 7 is_stmt 0 discriminator 1 view .LVU674
	cmp	r4, #0	@ a,
	bne	.L205		@,
	b	.L213		@
.L255:
@ src/common/iobuf.c:1345: 	if (!a->chain && a->filter == file_filter)
	.loc 1 1345 16 discriminator 1 view .LVU675
	ldr	r2, .L256+16	@ tmp285,
	ldr	r1, [r4, #44]	@ a_29->filter, a_29->filter
	ldr	r2, [r8, r2]	@ tmp215,
	cmp	r1, r2	@ a_29->filter, tmp215
.LBB171:
@ src/common/iobuf.c:1350: 	    return 0;
	.loc 1 1350 13 discriminator 1 view .LVU676
	moveq	r0, r3	@ <retval>, _13
@ src/common/iobuf.c:1349: 	    b->no_cache = intval;
	.loc 1 1349 18 discriminator 1 view .LVU677
	ldreq	r2, [r4, #48]	@ a_29->filter_ov, a_29->filter_ov
	streq	r6, [r2, #8]	@ intval, b_73->no_cache
.LBE171:
@ src/common/iobuf.c:1345: 	if (!a->chain && a->filter == file_filter)
	.loc 1 1345 16 discriminator 1 view .LVU678
	beq	.L184		@,
@ src/common/iobuf.c:1396:   return -1;
	.loc 1 1396 10 view .LVU679
	mvn	r0, #0	@ <retval>,
	b	.L253		@
.LVL204:
.L187:
.LBB172:
	.loc 1 939 1 is_stmt 1 view .LVU680
.LBB155:
	.loc 1 941 3 view .LVU681
.LBE155:
.LBE172:
@ src/common/iobuf.c:1307: 	printf ("iobuf-%d.%d: ioctl '%s' keep_open=%d\n",
	.loc 1 1307 2 is_stmt 0 view .LVU682
	mvn	r7, #0	@ iftmp.17_79,
.LVL205:
.LBB173:
.LBB156:
@ src/common/iobuf.c:941:   size_t len = MAX_IOBUF_DESC;
	.loc 1 941 10 view .LVU683
	mov	r3, #32	@ tmp258,
	str	r3, [sp, #12]	@ tmp258, MEM[(unsigned int *)_17]
	.loc 1 943 3 is_stmt 1 view .LVU684
.LBE156:
.LBE173:
@ src/common/iobuf.c:1307: 	printf ("iobuf-%d.%d: ioctl '%s' keep_open=%d\n",
	.loc 1 1307 2 is_stmt 0 view .LVU685
	mov	r10, r7	@ iftmp.16_78, iftmp.17_79
.LVL206:
.L214:
.LBB174:
.LBB157:
.LBB152:
.LBI152:
	.loc 1 939 1 is_stmt 1 view .LVU686
.LBB153:
	.loc 1 944 5 view .LVU687
	ldr	r1, .L256+44	@,
	add	r5, sp, #16	@ tmp273,,
	mov	r2, #2	@,
	mov	r0, r5	@, tmp273
.LPIC33:
	add	r1, pc, r1	@,
	bl	memcpy(PLT)	@
.LVL207:
	b	.L189		@
.LVL208:
.L207:
	.loc 1 944 5 is_stmt 0 view .LVU688
.LBE153:
.LBE152:
.LBE157:
.LBE174:
	.loc 1 1369 7 is_stmt 1 view .LVU689
@ src/common/iobuf.c:1369:       if (!a && !intval && ptrval)
	.loc 1 1369 25 is_stmt 0 view .LVU690
	subs	r7, r7, #0	@ tmp268, tmp268,
@ src/common/iobuf.c:1369:       if (!a && !intval && ptrval)
	.loc 1 1369 17 view .LVU691
	orr	r4, r4, r6	@ tmp263, a, intval
.LVL209:
@ src/common/iobuf.c:1369:       if (!a && !intval && ptrval)
	.loc 1 1369 25 view .LVU692
	movne	r7, #1	@ tmp268,
.LVL210:
	.loc 1 1369 25 view .LVU693
	cmp	r4, #0	@ tmp263,
	movne	r7, #0	@ tmp268,
	cmp	r7, #0	@ tmp268,
	bne	.L184		@,
	b	.L213		@
.LVL211:
.L200:
.LBB175:
	.loc 1 939 1 is_stmt 1 view .LVU694
.LBB167:
	.loc 1 941 3 view .LVU695
.LBE167:
.LBE175:
@ src/common/iobuf.c:1341: 	printf ("iobuf-%d.%d: ioctl '%s' no_cache=%d\n",
	.loc 1 1341 2 is_stmt 0 view .LVU696
	mvn	r7, #0	@ iftmp.22_70,
.LVL212:
.LBB176:
.LBB168:
@ src/common/iobuf.c:941:   size_t len = MAX_IOBUF_DESC;
	.loc 1 941 10 view .LVU697
	mov	r3, #32	@ tmp259,
	str	r3, [sp, #12]	@ tmp259, MEM[(unsigned int *)_17]
	.loc 1 943 3 is_stmt 1 view .LVU698
.LBE168:
.LBE176:
@ src/common/iobuf.c:1341: 	printf ("iobuf-%d.%d: ioctl '%s' no_cache=%d\n",
	.loc 1 1341 2 is_stmt 0 view .LVU699
	mov	r10, r7	@ iftmp.21_69, iftmp.22_70
.LVL213:
.L215:
.LBB177:
.LBB169:
.LBB164:
.LBI164:
	.loc 1 939 1 is_stmt 1 view .LVU700
.LBB165:
	.loc 1 944 5 view .LVU701
	ldr	r1, .L256+48	@,
	add	r5, sp, #16	@ tmp273,,
	mov	r2, #2	@,
	mov	r0, r5	@, tmp273
.LPIC36:
	add	r1, pc, r1	@,
	bl	memcpy(PLT)	@
.LVL214:
	b	.L202		@
.LVL215:
.L210:
	.loc 1 944 5 is_stmt 0 view .LVU702
.LBE165:
.LBE164:
.LBE169:
.LBE177:
.LBB178:
	.loc 1 939 1 is_stmt 1 view .LVU703
.LBB145:
	.loc 1 941 3 view .LVU704
.LBE145:
.LBE178:
@ src/common/iobuf.c:1382: 	printf ("iobuf-%d.%d: ioctl '%s' peek\n",
	.loc 1 1382 2 is_stmt 0 view .LVU705
	mvn	r9, #0	@ iftmp.27_55,
.LBB179:
.LBB146:
@ src/common/iobuf.c:941:   size_t len = MAX_IOBUF_DESC;
	.loc 1 941 10 view .LVU706
	mov	r3, #32	@ tmp260,
	str	r3, [sp, #12]	@ tmp260, MEM[(unsigned int *)_17]
	.loc 1 943 3 is_stmt 1 view .LVU707
.LBE146:
.LBE179:
@ src/common/iobuf.c:1382: 	printf ("iobuf-%d.%d: ioctl '%s' peek\n",
	.loc 1 1382 2 is_stmt 0 view .LVU708
	mov	fp, r9	@ iftmp.26_53, iftmp.27_55
.LVL216:
.L216:
.LBB180:
.LBB147:
.LBB142:
.LBI142:
	.loc 1 939 1 is_stmt 1 view .LVU709
.LBB143:
	.loc 1 944 5 view .LVU710
	ldr	r1, .L256+52	@,
	add	r5, sp, #16	@ tmp273,,
	mov	r2, #2	@,
	mov	r0, r5	@, tmp273
.LPIC40:
	add	r1, pc, r1	@,
	bl	memcpy(PLT)	@
.LVL217:
	b	.L212		@
.LVL218:
.L254:
	.loc 1 944 5 is_stmt 0 view .LVU711
.LBE143:
.LBE142:
.LBE147:
.LBE180:
@ src/common/iobuf.c:1329: 	printf ("iobuf-*.*: ioctl '%s' invalidate\n",
	.loc 1 1329 2 view .LVU712
	ldr	r1, .L256+56	@ iftmp.19_33,
.LPIC30:
	add	r1, pc, r1	@ iftmp.19_33, iftmp.19_33
	b	.L196		@
.L208:
@ src/common/iobuf.c:1366:         printf ("iobuf-*.*: ioctl '%s' fsync\n",
	.loc 1 1366 9 view .LVU713
	ldr	r1, .L256+60	@,
	ldr	r0, .L256+64	@,
.LPIC43:
	add	r1, pc, r1	@,
.LPIC44:
	add	r0, pc, r0	@,
	bl	tfp_printf(PLT)	@
.LVL219:
	.loc 1 1369 7 is_stmt 1 view .LVU714
	b	.L213		@
.L257:
	.align	2
.L256:
	.word	.LC20-(.LPIC31+8)
	.word	_GLOBAL_OFFSET_TABLE_-(.LPIC32+8)
	.word	iobuf_debug_mode(GOT)
	.word	.LC26-(.LPIC41+8)
	.word	file_filter(GOT)
	.word	.LC27-(.LPIC42+8)
	.word	.LC21-(.LPIC34+8)
	.word	.LC22-(.LPIC35+8)
	.word	.LC24-(.LPIC38+8)
	.word	.LC25-(.LPIC39+8)
	.word	.LC23-(.LPIC37+8)
	.word	.LC6-(.LPIC33+8)
	.word	.LC6-(.LPIC36+8)
	.word	.LC6-(.LPIC40+8)
	.word	.LC6-(.LPIC30+8)
	.word	.LC28-(.LPIC43+8)
	.word	.LC24-(.LPIC44+8)
	.cfi_endproc
.LFE57:
	.size	iobuf_ioctl, .-iobuf_ioctl
	.section	.rodata.iobuf_fdopen.str1.4,"aMS",%progbits,1
	.align	2
.LC29:
	.ascii	"[fd %d]\000"
	.align	2
.LC30:
	.ascii	"\000"
	.align	2
.LC31:
	.ascii	"iobuf-%d.%d: fdopen%s '%s'\012\000"
	.section	.text.iobuf_fdopen,"ax",%progbits
	.align	2
	.global	iobuf_fdopen
	.syntax unified
	.arm
	.fpu softvfp
	.type	iobuf_fdopen, %function
iobuf_fdopen:
.LVL220:
.LFB56:
	.loc 1 1234 1 view -0
	.cfi_startproc
	@ args = 0, pretend = 0, frame = 8
	@ frame_needed = 0, uses_anonymous_args = 0
	.loc 1 1235 3 view .LVU716
@ src/common/iobuf.c:1234: {
	.loc 1 1234 1 is_stmt 0 view .LVU717
	mov	r3, r1	@ tmp141, mode
.LBB183:
.LBB184:
@ src/common/iobuf.c:1214:   a = iobuf_alloc (strchr (mode, 'w') ? IOBUF_OUTPUT : IOBUF_INPUT,
	.loc 1 1214 20 view .LVU718
	mov	r1, #119	@,
.LVL221:
	.loc 1 1214 20 view .LVU719
.LBE184:
.LBE183:
@ src/common/iobuf.c:1234: {
	.loc 1 1234 1 view .LVU720
	push	{r4, r5, r6, r7, r8, r9, lr}	@
	.cfi_def_cfa_offset 28
	.cfi_offset 4, -28
	.cfi_offset 5, -24
	.cfi_offset 6, -20
	.cfi_offset 7, -16
	.cfi_offset 8, -12
	.cfi_offset 9, -8
	.cfi_offset 14, -4
	mov	r7, r0	@ tmp140, fd
	ldr	r6, .L266	@ tmp129,
	sub	sp, sp, #20	@,,
	.cfi_def_cfa_offset 48
.LBB188:
.LBB185:
@ src/common/iobuf.c:1214:   a = iobuf_alloc (strchr (mode, 'w') ? IOBUF_OUTPUT : IOBUF_INPUT,
	.loc 1 1214 20 view .LVU721
	mov	r0, r3	@, tmp141
.LVL222:
	.loc 1 1214 20 view .LVU722
.LBE185:
.LBI183:
	.loc 1 1205 1 is_stmt 1 view .LVU723
.LBB186:
	.loc 1 1207 3 view .LVU724
	.loc 1 1208 3 view .LVU725
	.loc 1 1209 3 view .LVU726
	.loc 1 1210 3 view .LVU727
	.loc 1 1212 3 view .LVU728
	.loc 1 1214 3 view .LVU729
@ src/common/iobuf.c:1219:   fcx->keep_open = keep_open;
	.loc 1 1219 18 is_stmt 0 view .LVU730
	mov	r8, #0	@ tmp124,
.LBE186:
.LBE188:
@ src/common/iobuf.c:1234: {
	.loc 1 1234 1 view .LVU731
.LPIC46:
	add	r6, pc, r6	@ tmp129, tmp129
.LBB189:
.LBB187:
@ src/common/iobuf.c:1214:   a = iobuf_alloc (strchr (mode, 'w') ? IOBUF_OUTPUT : IOBUF_INPUT,
	.loc 1 1214 20 view .LVU732
	bl	strchr(PLT)	@
.LVL223:
@ src/common/iobuf.c:1214:   a = iobuf_alloc (strchr (mode, 'w') ? IOBUF_OUTPUT : IOBUF_INPUT,
	.loc 1 1214 7 view .LVU733
	cmp	r0, #0	@ tmp142,
	mov	r1, #8192	@,
	movne	r0, #2	@,
	moveq	r0, r8	@,
@ src/common/iobuf.c:1218:   fcx->print_only_name = 1;
	.loc 1 1218 24 view .LVU734
	mov	r9, #1	@ tmp123,
@ src/common/iobuf.c:1214:   a = iobuf_alloc (strchr (mode, 'w') ? IOBUF_OUTPUT : IOBUF_INPUT,
	.loc 1 1214 7 view .LVU735
	bl	iobuf_alloc(PLT)	@
.LVL224:
	mov	r5, r0	@ <retval>, tmp143
.LVL225:
	.loc 1 1216 3 is_stmt 1 view .LVU736
@ src/common/iobuf.c:1216:   fcx = xmalloc (sizeof *fcx + 20);
	.loc 1 1216 9 is_stmt 0 view .LVU737
	mov	r0, #76	@,
.LVL226:
	.loc 1 1216 9 view .LVU738
	bl	xmalloc(PLT)	@
.LVL227:
@ src/common/iobuf.c:1220:   sprintf (fcx->fname, "[fd %d]", fd);
	.loc 1 1220 3 view .LVU739
	ldr	r1, .L266+4	@,
	mov	r2, r7	@, fd
@ src/common/iobuf.c:1217:   fcx->fp = fp;
	.loc 1 1217 11 view .LVU740
	str	r7, [r0]	@ fd, fcx_9->fp
@ src/common/iobuf.c:1220:   sprintf (fcx->fname, "[fd %d]", fd);
	.loc 1 1220 15 view .LVU741
	add	r7, r0, #54	@ _10, fcx,
.LVL228:
@ src/common/iobuf.c:1220:   sprintf (fcx->fname, "[fd %d]", fd);
	.loc 1 1220 3 view .LVU742
.LPIC45:
	add	r1, pc, r1	@,
@ src/common/iobuf.c:1216:   fcx = xmalloc (sizeof *fcx + 20);
	.loc 1 1216 9 view .LVU743
	mov	r4, r0	@ fcx, tmp144
.LVL229:
	.loc 1 1217 3 is_stmt 1 view .LVU744
	.loc 1 1218 3 view .LVU745
@ src/common/iobuf.c:1218:   fcx->print_only_name = 1;
	.loc 1 1218 24 is_stmt 0 view .LVU746
	str	r9, [r0, #16]	@ tmp123, fcx_9->print_only_name
	.loc 1 1219 3 is_stmt 1 view .LVU747
@ src/common/iobuf.c:1219:   fcx->keep_open = keep_open;
	.loc 1 1219 18 is_stmt 0 view .LVU748
	str	r8, [r0, #4]	@ tmp124, fcx_9->keep_open
	.loc 1 1220 3 is_stmt 1 view .LVU749
	mov	r0, r7	@, _10
.LVL230:
	.loc 1 1220 3 is_stmt 0 view .LVU750
	bl	tfp_sprintf(PLT)	@
.LVL231:
	.loc 1 1221 3 is_stmt 1 view .LVU751
@ src/common/iobuf.c:1221:   a->filter = file_filter;
	.loc 1 1221 13 is_stmt 0 view .LVU752
	ldr	r3, .L266+8	@ tmp145,
@ src/common/iobuf.c:1223:   file_filter (fcx, IOBUFCTRL_INIT, NULL, NULL, &len);
	.loc 1 1223 3 view .LVU753
	mov	r1, r9	@, tmp123
	mov	r0, r4	@, fcx
	mov	r2, r8	@, tmp3
@ src/common/iobuf.c:1221:   a->filter = file_filter;
	.loc 1 1221 13 view .LVU754
	ldr	r3, [r6, r3]	@ tmp128,
@ src/common/iobuf.c:1222:   a->filter_ov = fcx;
	.loc 1 1222 16 view .LVU755
	str	r4, [r5, #48]	@ fcx, a_8->filter_ov
@ src/common/iobuf.c:1221:   a->filter = file_filter;
	.loc 1 1221 13 view .LVU756
	str	r3, [r5, #44]	@ tmp128, a_8->filter
	.loc 1 1222 3 is_stmt 1 view .LVU757
	.loc 1 1223 3 view .LVU758
	add	r3, sp, #12	@ tmp130,,
	str	r3, [sp]	@ tmp130,
	mov	r3, r8	@, tmp124
	bl	file_filter(PLT)	@
.LVL232:
	.loc 1 1224 3 view .LVU759
@ src/common/iobuf.c:1224:   if (DBG_IOBUF)
	.loc 1 1224 7 is_stmt 0 view .LVU760
	ldr	r3, .L266+12	@ tmp146,
	ldr	r3, [r6, r3]	@ tmp131,
@ src/common/iobuf.c:1224:   if (DBG_IOBUF)
	.loc 1 1224 6 view .LVU761
	ldr	r3, [r3]	@ iobuf_debug_mode, iobuf_debug_mode
	cmp	r3, r8	@ iobuf_debug_mode,
	beq	.L260		@,
	.loc 1 1225 5 is_stmt 1 view .LVU762
	ldr	r3, .L266+16	@,
	ldr	r0, .L266+20	@,
	ldr	r2, [r5, #68]	@ a_8->subno, a_8->subno
	ldr	r1, [r5, #64]	@ a_8->no, a_8->no
.LPIC47:
	add	r3, pc, r3	@,
.LPIC48:
	add	r0, pc, r0	@,
	str	r7, [sp]	@ _10,
	bl	tfp_printf(PLT)	@
.LVL233:
.L260:
	.loc 1 1227 3 view .LVU763
	mov	r3, #0	@,
	mov	r2, #1	@,
	mov	r1, #3	@,
	mov	r0, r5	@, <retval>
	bl	iobuf_ioctl(PLT)	@
.LVL234:
	.loc 1 1228 3 view .LVU764
	.loc 1 1228 3 is_stmt 0 view .LVU765
.LBE187:
.LBE189:
@ src/common/iobuf.c:1236: }
	.loc 1 1236 1 view .LVU766
	mov	r0, r5	@, <retval>
	add	sp, sp, #20	@,,
	.cfi_def_cfa_offset 28
	@ sp needed	@
	pop	{r4, r5, r6, r7, r8, r9, pc}	@
.L267:
	.align	2
.L266:
	.word	_GLOBAL_OFFSET_TABLE_-(.LPIC46+8)
	.word	.LC29-(.LPIC45+8)
	.word	file_filter(GOT)
	.word	iobuf_debug_mode(GOT)
	.word	.LC30-(.LPIC47+8)
	.word	.LC31-(.LPIC48+8)
	.cfi_endproc
.LFE56:
	.size	iobuf_fdopen, .-iobuf_fdopen
	.section	.rodata.iobuf_push_filter2.str1.4,"aMS",%progbits,1
	.align	2
.LC32:
	.ascii	"i/o filter too deeply nested - corrupted data?\012\000"
	.align	2
.LC33:
	.ascii	"iobuf-%d.%d: push '%s'\012\000"
	.section	.text.iobuf_push_filter2,"ax",%progbits
	.align	2
	.global	iobuf_push_filter2
	.syntax unified
	.arm
	.fpu softvfp
	.type	iobuf_push_filter2, %function
iobuf_push_filter2:
.LVL235:
.LFB59:
	.loc 1 1418 1 is_stmt 1 view -0
	.cfi_startproc
	@ args = 0, pretend = 0, frame = 40
	@ frame_needed = 0, uses_anonymous_args = 0
	.loc 1 1420 3 view .LVU768
	.loc 1 1421 3 view .LVU769
@ src/common/iobuf.c:1418: {
	.loc 1 1418 1 is_stmt 0 view .LVU770
	push	{r4, r5, r6, r7, r8, r9, lr}	@
	.cfi_def_cfa_offset 28
	.cfi_offset 4, -28
	.cfi_offset 5, -24
	.cfi_offset 6, -20
	.cfi_offset 7, -16
	.cfi_offset 8, -12
	.cfi_offset 9, -8
	.cfi_offset 14, -4
	sub	sp, sp, #52	@,,
	.cfi_def_cfa_offset 80
@ src/common/iobuf.c:1424:   if (a->use == IOBUF_OUTPUT && (rc = filter_flush (a)))
	.loc 1 1424 6 view .LVU771
	ldrb	ip, [r0]	@ zero_extendqisi2	@ a_25(D)->use, a_25(D)->use
@ src/common/iobuf.c:1418: {
	.loc 1 1418 1 view .LVU772
	mov	r9, r3	@ rel_ov, tmp181
	ldr	r8, .L298	@ tmp159,
@ src/common/iobuf.c:1421:   size_t dummy_len = 0;
	.loc 1 1421 10 view .LVU773
	mov	r3, #0	@ tmp134,
.LVL236:
	.loc 1 1421 10 view .LVU774
	str	r3, [sp, #8]	@ tmp134, dummy_len
	.loc 1 1422 3 is_stmt 1 view .LVU775
.LVL237:
	.loc 1 1424 3 view .LVU776
@ src/common/iobuf.c:1424:   if (a->use == IOBUF_OUTPUT && (rc = filter_flush (a)))
	.loc 1 1424 6 is_stmt 0 view .LVU777
	cmp	ip, #2	@ a_25(D)->use,
@ src/common/iobuf.c:1418: {
	.loc 1 1418 1 view .LVU778
.LPIC50:
	add	r8, pc, r8	@ tmp159, tmp159
	mov	r4, r0	@ a, tmp178
	mov	r5, r1	@ f, tmp179
	mov	r7, r2	@ ov, tmp180
@ src/common/iobuf.c:1424:   if (a->use == IOBUF_OUTPUT && (rc = filter_flush (a)))
	.loc 1 1424 6 view .LVU779
	beq	.L269		@,
.LVL238:
.L273:
	.loc 1 1427 3 is_stmt 1 view .LVU780
@ src/common/iobuf.c:1427:   if (a->subno >= MAX_NESTING_FILTER)
	.loc 1 1427 6 is_stmt 0 view .LVU781
	ldr	r3, [r4, #68]	@ a_25(D)->subno, a_25(D)->subno
	cmp	r3, #63	@ a_25(D)->subno,
	bgt	.L294		@,
	.loc 1 1478 3 is_stmt 1 view .LVU782
@ src/common/iobuf.c:1478:   b = xmalloc (sizeof *b);
	.loc 1 1478 7 is_stmt 0 view .LVU783
	mov	r0, #72	@,
	bl	xmalloc(PLT)	@
.LVL239:
@ src/common/iobuf.c:1479:   memcpy (b, a, sizeof *b);
	.loc 1 1479 3 view .LVU784
	mov	r2, #72	@,
	mov	r1, r4	@, a
@ src/common/iobuf.c:1478:   b = xmalloc (sizeof *b);
	.loc 1 1478 7 view .LVU785
	mov	r6, r0	@ b, tmp183
.LVL240:
	.loc 1 1479 3 is_stmt 1 view .LVU786
	bl	memcpy(PLT)	@
.LVL241:
	.loc 1 1485 3 view .LVU787
@ src/common/iobuf.c:1489:   if (a->use == IOBUF_OUTPUT_TEMP)
	.loc 1 1489 8 is_stmt 0 view .LVU788
	ldrb	r2, [r4]	@ zero_extendqisi2	@ _3, a_25(D)->use
@ src/common/iobuf.c:1485:   a->filter = NULL;
	.loc 1 1485 13 view .LVU789
	mov	r3, #0	@ tmp139,
	str	r3, [r4, #44]	@ tmp139, a_25(D)->filter
	.loc 1 1486 3 is_stmt 1 view .LVU790
@ src/common/iobuf.c:1486:   a->filter_ov = NULL;
	.loc 1 1486 16 is_stmt 0 view .LVU791
	str	r3, [r4, #48]	@ tmp139, a_25(D)->filter_ov
	.loc 1 1487 3 is_stmt 1 view .LVU792
@ src/common/iobuf.c:1489:   if (a->use == IOBUF_OUTPUT_TEMP)
	.loc 1 1489 6 is_stmt 0 view .LVU793
	cmp	r2, #3	@ _3,
@ src/common/iobuf.c:1487:   a->filter_ov_owner = 0;
	.loc 1 1487 22 view .LVU794
	str	r3, [r4, #52]	@ tmp139, a_25(D)->filter_ov_owner
	.loc 1 1488 3 is_stmt 1 view .LVU795
@ src/common/iobuf.c:1488:   a->filter_eof = 0;
	.loc 1 1488 17 is_stmt 0 view .LVU796
	str	r3, [r4, #36]	@ tmp139, a_25(D)->filter_eof
	.loc 1 1489 3 is_stmt 1 view .LVU797
@ src/common/iobuf.c:1489:   if (a->use == IOBUF_OUTPUT_TEMP)
	.loc 1 1489 6 is_stmt 0 view .LVU798
	beq	.L295		@,
	.loc 1 1505 8 is_stmt 1 view .LVU799
@ src/common/iobuf.c:1505:   else if (a->use == IOBUF_INPUT_TEMP)
	.loc 1 1505 11 is_stmt 0 view .LVU800
	cmp	r2, #1	@ _3,
@ src/common/iobuf.c:1508:       a->use = IOBUF_INPUT;
	.loc 1 1508 14 view .LVU801
	strbeq	r3, [r4]	@ tmp139, a_25(D)->use
@ src/common/iobuf.c:1509:       a->d.size = IOBUF_BUFFER_SIZE;
	.loc 1 1509 17 view .LVU802
	moveq	r0, #8192	@ tmp148,
@ src/common/iobuf.c:1523:   a->d.buf = xmalloc (a->d.size);
	.loc 1 1523 14 view .LVU803
	ldrne	r0, [r4, #20]	@ pretmp_77, a_25(D)->d.size
	.loc 1 1508 7 is_stmt 1 view .LVU804
	.loc 1 1509 7 view .LVU805
@ src/common/iobuf.c:1509:       a->d.size = IOBUF_BUFFER_SIZE;
	.loc 1 1509 17 is_stmt 0 view .LVU806
	streq	r0, [r4, #20]	@ tmp148, a_25(D)->d.size
.L275:
	.loc 1 1523 3 is_stmt 1 view .LVU807
@ src/common/iobuf.c:1523:   a->d.buf = xmalloc (a->d.size);
	.loc 1 1523 14 is_stmt 0 view .LVU808
	bl	xmalloc(PLT)	@
.LVL242:
@ src/common/iobuf.c:1528:   a->ntotal = b->ntotal + b->nbytes;
	.loc 1 1528 25 view .LVU809
	ldrd	r2, [r6, #8]	@, b,
@ src/common/iobuf.c:1532:   a->chain = b;
	.loc 1 1532 12 view .LVU810
	str	r6, [r4, #60]	@ b, a_25(D)->chain
@ src/common/iobuf.c:1539:   a->subno = b->subno + 1;
	.loc 1 1539 23 view .LVU811
	ldr	r6, [r6, #68]	@ b_29->subno, b_29->subno
.LVL243:
@ src/common/iobuf.c:1528:   a->ntotal = b->ntotal + b->nbytes;
	.loc 1 1528 25 view .LVU812
	add	r3, r3, r2	@ tmp151, b_29->ntotal, b_29->nbytes
@ src/common/iobuf.c:1541:   if (DBG_IOBUF)
	.loc 1 1541 7 view .LVU813
	ldr	r2, .L298+4	@ tmp186,
@ src/common/iobuf.c:1539:   a->subno = b->subno + 1;
	.loc 1 1539 23 view .LVU814
	add	r6, r6, #1	@ _10, b_29->subno,
@ src/common/iobuf.c:1528:   a->ntotal = b->ntotal + b->nbytes;
	.loc 1 1528 13 view .LVU815
	str	r3, [r4, #12]	@ tmp151, a_25(D)->ntotal
@ src/common/iobuf.c:1524:   a->d.len = 0;
	.loc 1 1524 12 view .LVU816
	mov	r3, #0	@ tmp149,
@ src/common/iobuf.c:1523:   a->d.buf = xmalloc (a->d.size);
	.loc 1 1523 12 view .LVU817
	str	r0, [r4, #32]	@ tmp184, a_25(D)->d.buf
	.loc 1 1524 3 is_stmt 1 view .LVU818
@ src/common/iobuf.c:1537:   a->filter_ov_owner = rel_ov;
	.loc 1 1537 22 is_stmt 0 view .LVU819
	str	r9, [r4, #52]	@ rel_ov, a_25(D)->filter_ov_owner
@ src/common/iobuf.c:1535:   a->filter = f;
	.loc 1 1535 13 view .LVU820
	str	r5, [r4, #44]	@ f, a_25(D)->filter
@ src/common/iobuf.c:1536:   a->filter_ov = ov;
	.loc 1 1536 16 view .LVU821
	str	r7, [r4, #48]	@ ov, a_25(D)->filter_ov
@ src/common/iobuf.c:1539:   a->subno = b->subno + 1;
	.loc 1 1539 12 view .LVU822
	str	r6, [r4, #68]	@ _10, a_25(D)->subno
@ src/common/iobuf.c:1524:   a->d.len = 0;
	.loc 1 1524 12 view .LVU823
	str	r3, [r4, #28]	@ tmp149, a_25(D)->d.len
	.loc 1 1525 3 is_stmt 1 view .LVU824
@ src/common/iobuf.c:1525:   a->d.start = 0;
	.loc 1 1525 14 is_stmt 0 view .LVU825
	str	r3, [r4, #24]	@ tmp149, a_25(D)->d.start
	.loc 1 1528 3 is_stmt 1 view .LVU826
	.loc 1 1529 3 view .LVU827
@ src/common/iobuf.c:1529:   a->nlimit = a->nbytes = 0;
	.loc 1 1529 25 is_stmt 0 view .LVU828
	str	r3, [r4, #8]	@ tmp149, a_25(D)->nbytes
@ src/common/iobuf.c:1529:   a->nlimit = a->nbytes = 0;
	.loc 1 1529 13 view .LVU829
	str	r3, [r4, #4]	@ tmp149, a_25(D)->nlimit
	.loc 1 1530 3 is_stmt 1 view .LVU830
@ src/common/iobuf.c:1530:   a->nofast = 0;
	.loc 1 1530 13 is_stmt 0 view .LVU831
	str	r3, [r4, #16]	@ tmp149, a_25(D)->nofast
	.loc 1 1532 3 is_stmt 1 view .LVU832
	.loc 1 1535 3 view .LVU833
	.loc 1 1536 3 view .LVU834
	.loc 1 1537 3 view .LVU835
	.loc 1 1539 3 view .LVU836
	.loc 1 1541 3 view .LVU837
@ src/common/iobuf.c:1541:   if (DBG_IOBUF)
	.loc 1 1541 7 is_stmt 0 view .LVU838
	ldr	r8, [r8, r2]	@ tmp177,
@ src/common/iobuf.c:1541:   if (DBG_IOBUF)
	.loc 1 1541 6 view .LVU839
	ldr	r2, [r8]	@ iobuf_debug_mode, iobuf_debug_mode
	cmp	r2, r3	@ iobuf_debug_mode,
	bne	.L296		@,
.LVL244:
.L277:
	.loc 1 1550 3 is_stmt 1 view .LVU840
@ src/common/iobuf.c:1550:   if (a->filter && (rc = a->filter (a->filter_ov, IOBUFCTRL_INIT, a->chain,
	.loc 1 1550 6 is_stmt 0 view .LVU841
	cmp	r5, #0	@ f,
	beq	.L268		@,
@ src/common/iobuf.c:1550:   if (a->filter && (rc = a->filter (a->filter_ov, IOBUFCTRL_INIT, a->chain,
	.loc 1 1550 26 discriminator 1 view .LVU842
	ldr	r2, [r4, #60]	@, a_25(D)->chain
	add	r1, sp, #8	@ tmp174,,
	ldr	r0, [r4, #48]	@, a_25(D)->filter_ov
	mov	r3, #0	@,
	str	r1, [sp]	@ tmp174,
	mov	r1, #1	@,
	blx	r5		@ f
.LVL245:
.L268:
@ src/common/iobuf.c:1554: }
	.loc 1 1554 1 view .LVU843
	add	sp, sp, #52	@,,
	.cfi_remember_state
	.cfi_def_cfa_offset 28
	@ sp needed	@
	pop	{r4, r5, r6, r7, r8, r9, pc}	@
.LVL246:
.L295:
	.cfi_restore_state
	.loc 1 1497 7 is_stmt 1 view .LVU844
@ src/common/iobuf.c:1503:       a->d.size = IOBUF_BUFFER_SIZE;
	.loc 1 1503 17 is_stmt 0 view .LVU845
	mov	r0, #8192	@ tmp145,
@ src/common/iobuf.c:1497:       a->use = IOBUF_OUTPUT;
	.loc 1 1497 14 view .LVU846
	mov	r3, #2	@ tmp143,
@ src/common/iobuf.c:1503:       a->d.size = IOBUF_BUFFER_SIZE;
	.loc 1 1503 17 view .LVU847
	str	r0, [r4, #20]	@ tmp145, a_25(D)->d.size
@ src/common/iobuf.c:1497:       a->use = IOBUF_OUTPUT;
	.loc 1 1497 14 view .LVU848
	strb	r3, [r4]	@ tmp143, a_25(D)->use
	.loc 1 1503 7 is_stmt 1 view .LVU849
	b	.L275		@
.LVL247:
.L294:
	.loc 1 1429 7 view .LVU850
	ldr	r0, .L298+8	@,
.LPIC49:
	add	r0, pc, r0	@,
	bl	tfp_printf(PLT)	@
.LVL248:
	.loc 1 1430 7 view .LVU851
@ src/common/iobuf.c:1430:       return GPG_ERR_BAD_DATA;
	.loc 1 1430 14 is_stmt 0 view .LVU852
	mov	r0, #89	@ <retval>,
@ src/common/iobuf.c:1554: }
	.loc 1 1554 1 view .LVU853
	add	sp, sp, #52	@,,
	.cfi_remember_state
	.cfi_def_cfa_offset 28
	@ sp needed	@
	pop	{r4, r5, r6, r7, r8, r9, pc}	@
.LVL249:
.L296:
	.cfi_restore_state
.LBB197:
	.loc 1 1543 7 is_stmt 1 view .LVU854
	.loc 1 1544 7 view .LVU855
.LBB198:
.LBB199:
@ src/common/iobuf.c:943:   if (! a || ! a->filter)
	.loc 1 943 11 is_stmt 0 view .LVU856
	cmp	r5, r3	@ f,
@ src/common/iobuf.c:941:   size_t len = MAX_IOBUF_DESC;
	.loc 1 941 10 view .LVU857
	mov	r2, #32	@ tmp161,
.LBE199:
.LBE198:
@ src/common/iobuf.c:1544:       printf ("iobuf-%d.%d: push '%s'\n",
	.loc 1 1544 7 view .LVU858
	ldr	r9, [r4, #64]	@ _12, a_25(D)->no
.LVL250:
.LBB204:
.LBI198:
	.loc 1 939 1 is_stmt 1 view .LVU859
.LBB202:
	.loc 1 941 3 view .LVU860
@ src/common/iobuf.c:941:   size_t len = MAX_IOBUF_DESC;
	.loc 1 941 10 is_stmt 0 view .LVU861
	str	r2, [sp, #12]	@ tmp161, len
	.loc 1 943 3 is_stmt 1 view .LVU862
@ src/common/iobuf.c:943:   if (! a || ! a->filter)
	.loc 1 943 11 is_stmt 0 view .LVU863
	beq	.L297		@,
	.loc 1 946 5 is_stmt 1 view .LVU864
	mov	r2, r3	@, tmp149
	mov	r0, r7	@, ov
	add	r3, sp, #12	@ tmp166,,
	add	r7, sp, #16	@ tmp176,,
	str	r3, [sp]	@ tmp166,
	mov	r1, #5	@,
	mov	r3, r7	@, tmp176
	blx	r5		@ f
.LVL251:
.L279:
	.loc 1 948 3 view .LVU865
	.loc 1 948 3 is_stmt 0 view .LVU866
.LBE202:
.LBE204:
@ src/common/iobuf.c:1544:       printf ("iobuf-%d.%d: push '%s'\n",
	.loc 1 1544 7 view .LVU867
	ldr	r0, .L298+12	@,
	mov	r3, r7	@, tmp176
	mov	r2, r6	@, _10
	mov	r1, r9	@, _12
.LPIC52:
	add	r0, pc, r0	@,
	bl	tfp_printf(PLT)	@
.LVL252:
	.loc 1 1546 7 is_stmt 1 view .LVU868
.LBB205:
.LBI205:
	.loc 1 952 1 view .LVU869
.LBB206:
	.loc 1 954 3 view .LVU870
@ src/common/iobuf.c:954:   if (!DBG_IOBUF)
	.loc 1 954 6 is_stmt 0 view .LVU871
	ldr	r3, [r8]	@ iobuf_debug_mode, iobuf_debug_mode
	cmp	r3, #0	@ iobuf_debug_mode,
	beq	.L280		@,
	mov	r0, r4	@, a
	bl	print_chain.part.0(PLT)	@
.LVL253:
.L280:
	.loc 1 954 6 view .LVU872
.LBE206:
.LBE205:
.LBE197:
@ src/common/iobuf.c:1550:   if (a->filter && (rc = a->filter (a->filter_ov, IOBUFCTRL_INIT, a->chain,
	.loc 1 1550 8 view .LVU873
	ldr	r5, [r4, #44]	@ f, a_25(D)->filter
.LVL254:
	.loc 1 1550 8 view .LVU874
	b	.L277		@
.LVL255:
.L269:
@ src/common/iobuf.c:1424:   if (a->use == IOBUF_OUTPUT && (rc = filter_flush (a)))
	.loc 1 1424 39 discriminator 1 view .LVU875
	bl	filter_flush(PLT)	@
.LVL256:
@ src/common/iobuf.c:1424:   if (a->use == IOBUF_OUTPUT && (rc = filter_flush (a)))
	.loc 1 1424 30 discriminator 1 view .LVU876
	cmp	r0, #0	@ <retval>
	.loc 1 1424 30 discriminator 1 view .LVU877
	beq	.L273		@,
	b	.L268		@
.LVL257:
.L297:
.LBB208:
.LBB207:
.LBB203:
.LBB200:
.LBI200:
	.loc 1 939 1 is_stmt 1 view .LVU878
.LBB201:
	.loc 1 944 5 view .LVU879
	ldr	r1, .L298+16	@,
	add	r7, sp, #16	@ tmp176,,
	mov	r2, #2	@,
	mov	r0, r7	@, tmp176
.LPIC51:
	add	r1, pc, r1	@,
	bl	memcpy(PLT)	@
.LVL258:
	.loc 1 944 5 is_stmt 0 view .LVU880
	b	.L279		@
.L299:
	.align	2
.L298:
	.word	_GLOBAL_OFFSET_TABLE_-(.LPIC50+8)
	.word	iobuf_debug_mode(GOT)
	.word	.LC32-(.LPIC49+8)
	.word	.LC33-(.LPIC52+8)
	.word	.LC6-(.LPIC51+8)
.LBE201:
.LBE200:
.LBE203:
.LBE207:
.LBE208:
	.cfi_endproc
.LFE59:
	.size	iobuf_push_filter2, .-iobuf_push_filter2
	.section	.text.iobuf_push_filter,"ax",%progbits
	.align	2
	.global	iobuf_push_filter
	.syntax unified
	.arm
	.fpu softvfp
	.type	iobuf_push_filter, %function
iobuf_push_filter:
.LVL259:
.LFB58:
	.loc 1 1408 1 is_stmt 1 view -0
	.cfi_startproc
	@ args = 0, pretend = 0, frame = 0
	@ frame_needed = 0, uses_anonymous_args = 0
	@ link register save eliminated.
	.loc 1 1410 3 view .LVU882
@ src/common/iobuf.c:1410:   return iobuf_push_filter2 (a, f, ov, 0);
	.loc 1 1410 10 is_stmt 0 view .LVU883
	mov	r3, #0	@,
	b	iobuf_push_filter2(PLT)	@
.LVL260:
	.loc 1 1410 10 view .LVU884
	.cfi_endproc
.LFE58:
	.size	iobuf_push_filter, .-iobuf_push_filter
	.section	.rodata.iobuf_pop_filter.str1.4,"aMS",%progbits,1
	.align	2
.LC34:
	.ascii	"iobuf_pop_filter %d %d\000"
	.align	2
.LC35:
	.ascii	"iobuf-%d.%d: pop '%s'\012\000"
	.align	2
.LC36:
	.ascii	"iobuf_pop_filter: no filter %d\012\000"
	.align	2
.LC37:
	.ascii	"can't remove the last filter from the chain\012\000"
	.align	2
.LC38:
	.ascii	"iobuf_pop_filter: removed first filter %d\012\000"
	.align	2
.LC39:
	.ascii	"iobuf-%d.%d: popped filter\012\000"
	.align	2
.LC40:
	.ascii	"Ohh jeee, trying to remove a head filter\012\000"
	.align	2
.LC41:
	.ascii	"Ohh jeee, trying to remove an intermediate filter\012"
	.ascii	"\000"
	.align	2
.LC42:
	.ascii	"iobuf_pop_filter(): filter function not found\012\000"
	.section	.text.iobuf_pop_filter,"ax",%progbits
	.align	2
	.global	iobuf_pop_filter
	.syntax unified
	.arm
	.fpu softvfp
	.type	iobuf_pop_filter, %function
iobuf_pop_filter:
.LVL261:
.LFB60:
	.loc 1 1563 1 is_stmt 1 view -0
	.cfi_startproc
	@ args = 0, pretend = 0, frame = 40
	@ frame_needed = 0, uses_anonymous_args = 0
	.loc 1 1564 3 view .LVU886
@ src/common/iobuf.c:1563: {
	.loc 1 1563 1 is_stmt 0 view .LVU887
	push	{r4, r5, r6, r7, r8, r9, r10, fp, lr}	@
	.cfi_def_cfa_offset 36
	.cfi_offset 4, -36
	.cfi_offset 5, -32
	.cfi_offset 6, -28
	.cfi_offset 7, -24
	.cfi_offset 8, -20
	.cfi_offset 9, -16
	.cfi_offset 10, -12
	.cfi_offset 11, -8
	.cfi_offset 14, -4
	mov	r6, r0	@ tmp200, a
@ src/common/iobuf.c:1564:   printf("iobuf_pop_filter %d %d",a->nbytes);
	.loc 1 1564 3 view .LVU888
	ldr	r0, .L342	@,
.LVL262:
@ src/common/iobuf.c:1563: {
	.loc 1 1563 1 view .LVU889
	sub	sp, sp, #52	@,,
	.cfi_def_cfa_offset 88
@ src/common/iobuf.c:1563: {
	.loc 1 1563 1 view .LVU890
	ldr	r4, .L342+4	@ tmp151,
	mov	r8, r1	@ tmp201, f
@ src/common/iobuf.c:1564:   printf("iobuf_pop_filter %d %d",a->nbytes);
	.loc 1 1564 3 view .LVU891
.LPIC53:
	add	r0, pc, r0	@,
@ src/common/iobuf.c:1563: {
	.loc 1 1563 1 view .LVU892
	mov	r9, r2	@ ov, tmp202
@ src/common/iobuf.c:1564:   printf("iobuf_pop_filter %d %d",a->nbytes);
	.loc 1 1564 3 view .LVU893
	ldr	r1, [r6, #8]	@, a_41(D)->nbytes
.LVL263:
@ src/common/iobuf.c:1563: {
	.loc 1 1563 1 view .LVU894
.LPIC54:
	add	r4, pc, r4	@ tmp151, tmp151
@ src/common/iobuf.c:1564:   printf("iobuf_pop_filter %d %d",a->nbytes);
	.loc 1 1564 3 view .LVU895
	bl	tfp_printf(PLT)	@
.LVL264:
	.loc 1 1565 3 is_stmt 1 view .LVU896
	.loc 1 1566 3 view .LVU897
@ src/common/iobuf.c:1570:   if (DBG_IOBUF)
	.loc 1 1570 7 is_stmt 0 view .LVU898
	ldr	r1, .L342+8	@ tmp205,
@ src/common/iobuf.c:1566:   size_t dummy_len = 0;
	.loc 1 1566 10 view .LVU899
	mov	r2, #0	@ tmp149,
	str	r2, [sp, #8]	@ tmp149, dummy_len
	.loc 1 1567 3 is_stmt 1 view .LVU900
.LVL265:
	.loc 1 1568 3 view .LVU901
	.loc 1 1570 3 view .LVU902
@ src/common/iobuf.c:1563: {
	.loc 1 1563 1 is_stmt 0 view .LVU903
	mov	r3, r4	@ tmp151, tmp151
@ src/common/iobuf.c:1570:   if (DBG_IOBUF)
	.loc 1 1570 7 view .LVU904
	ldr	r7, [r4, r1]	@ tmp199,
@ src/common/iobuf.c:1570:   if (DBG_IOBUF)
	.loc 1 1570 6 view .LVU905
	ldr	r3, [r7]	@ iobuf_debug_mode, iobuf_debug_mode
	cmp	r3, r2	@ iobuf_debug_mode,
	bne	.L334		@,
.L302:
	.loc 1 1573 3 is_stmt 1 view .LVU906
@ src/common/iobuf.c:1573:   if (a->use == IOBUF_INPUT_TEMP || a->use == IOBUF_OUTPUT_TEMP)
	.loc 1 1573 8 is_stmt 0 view .LVU907
	ldrb	r2, [r6]	@ zero_extendqisi2	@ _46, a_41(D)->use
@ src/common/iobuf.c:1573:   if (a->use == IOBUF_INPUT_TEMP || a->use == IOBUF_OUTPUT_TEMP)
	.loc 1 1573 6 view .LVU908
	and	r3, r2, #253	@ tmp164, _46,
	cmp	r3, #1	@ tmp164,
	beq	.L335		@,
	.loc 1 1579 3 is_stmt 1 view .LVU909
@ src/common/iobuf.c:1579:   if (!a->filter)
	.loc 1 1579 9 is_stmt 0 view .LVU910
	ldr	r5, [r6, #44]	@ pretmp_17, a_41(D)->filter
@ src/common/iobuf.c:1579:   if (!a->filter)
	.loc 1 1579 6 view .LVU911
	cmp	r5, #0	@ pretmp_17,
	movne	r4, r6	@ b, a
	bne	.L307		@,
	b	.L336		@
.LVL266:
.L308:
@ src/common/iobuf.c:1590:   for (b = a; b; b = b->chain)
	.loc 1 1590 20 discriminator 2 view .LVU912
	ldr	r4, [r4, #60]	@ b, b_111->chain
.LVL267:
	.loc 1 1590 15 is_stmt 1 discriminator 2 view .LVU913
@ src/common/iobuf.c:1590:   for (b = a; b; b = b->chain)
	.loc 1 1590 3 is_stmt 0 discriminator 2 view .LVU914
	cmp	r4, #0	@ b,
	beq	.L310		@,
@ src/common/iobuf.c:1591:     if (b->filter == f && (!ov || b->filter_ov == ov))
	.loc 1 1591 10 view .LVU915
	ldr	r5, [r4, #44]	@ pretmp_17, b_49->filter
.LVL268:
.L307:
	.loc 1 1591 5 is_stmt 1 view .LVU916
	.loc 1 1590 18 view .LVU917
@ src/common/iobuf.c:1591:     if (b->filter == f && (!ov || b->filter_ov == ov))
	.loc 1 1591 8 is_stmt 0 view .LVU918
	cmp	r8, r5	@ f, pretmp_17
	bne	.L308		@,
@ src/common/iobuf.c:1591:     if (b->filter == f && (!ov || b->filter_ov == ov))
	.loc 1 1591 24 discriminator 1 view .LVU919
	cmp	r9, #0	@ ov,
	beq	.L309		@,
@ src/common/iobuf.c:1591:     if (b->filter == f && (!ov || b->filter_ov == ov))
	.loc 1 1591 32 discriminator 2 view .LVU920
	ldr	r3, [r4, #48]	@ b_111->filter_ov, b_111->filter_ov
	cmp	r3, r9	@ b_111->filter_ov, ov
	bne	.L308		@,
.L309:
	.loc 1 1597 3 is_stmt 1 view .LVU921
@ src/common/iobuf.c:1597:   if (a->use == IOBUF_OUTPUT && (rc = filter_flush (b)))
	.loc 1 1597 6 is_stmt 0 view .LVU922
	cmp	r2, #2	@ _46,
	beq	.L311		@,
.LVL269:
.L314:
	.loc 1 1604 3 is_stmt 1 view .LVU923
@ src/common/iobuf.c:1604:   if (b->filter && (rc = b->filter (b->filter_ov, IOBUFCTRL_FREE, b->chain,
	.loc 1 1604 8 is_stmt 0 view .LVU924
	ldr	r5, [r4, #44]	@ _16, b_110->filter
@ src/common/iobuf.c:1604:   if (b->filter && (rc = b->filter (b->filter_ov, IOBUFCTRL_FREE, b->chain,
	.loc 1 1604 6 view .LVU925
	cmp	r5, #0	@ _16,
	beq	.L313		@,
@ src/common/iobuf.c:1604:   if (b->filter && (rc = b->filter (b->filter_ov, IOBUFCTRL_FREE, b->chain,
	.loc 1 1604 26 discriminator 1 view .LVU926
	ldr	r2, [r4, #60]	@ b_110->chain, b_110->chain
	add	r3, sp, #8	@ tmp175,,
	ldr	r0, [r4, #48]	@ b_110->filter_ov, b_110->filter_ov
	mov	r1, #2	@,
	str	r3, [sp]	@ tmp175,
	mov	r3, #0	@,
	blx	r5		@ _16
.LVL270:
@ src/common/iobuf.c:1604:   if (b->filter && (rc = b->filter (b->filter_ov, IOBUFCTRL_FREE, b->chain,
	.loc 1 1604 17 discriminator 1 view .LVU927
	cmp	r0, #0	@ <retval>
	.loc 1 1604 17 discriminator 1 view .LVU928
	bne	.L301		@,
.LVL271:
.L313:
	.loc 1 1610 3 is_stmt 1 view .LVU929
@ src/common/iobuf.c:1610:   if (b->filter_ov && b->filter_ov_owner)
	.loc 1 1610 8 is_stmt 0 view .LVU930
	ldr	r0, [r4, #48]	@ _20, b_110->filter_ov
@ src/common/iobuf.c:1610:   if (b->filter_ov && b->filter_ov_owner)
	.loc 1 1610 6 view .LVU931
	cmp	r0, #0	@ _20,
	beq	.L316		@,
@ src/common/iobuf.c:1610:   if (b->filter_ov && b->filter_ov_owner)
	.loc 1 1610 20 discriminator 1 view .LVU932
	ldr	r3, [r4, #52]	@ b_110->filter_ov_owner, b_110->filter_ov_owner
	cmp	r3, #0	@ b_110->filter_ov_owner,
	bne	.L337		@,
.L316:
	.loc 1 1618 3 is_stmt 1 view .LVU933
@ src/common/iobuf.c:1618:   if (a == b && !b->chain)
	.loc 1 1618 6 is_stmt 0 view .LVU934
	cmp	r6, r4	@ a, b
	beq	.L338		@,
	.loc 1 1620 8 is_stmt 1 view .LVU935
	.loc 1 1634 8 view .LVU936
@ src/common/iobuf.c:1634:   else if (!b->chain)
	.loc 1 1634 11 is_stmt 0 view .LVU937
	ldr	r5, [r4, #60]	@ b_110->chain, b_110->chain
	cmp	r5, #0	@ b_110->chain,
	beq	.L339		@,
	.loc 1 1640 7 is_stmt 1 view .LVU938
	ldr	r0, .L342+12	@,
.LPIC62:
	add	r0, pc, r0	@,
	bl	tfp_printf(PLT)	@
.LVL272:
@ src/common/iobuf.c:1643:   return rc;
	.loc 1 1643 10 is_stmt 0 view .LVU939
	mov	r0, #0	@ <retval>,
.LVL273:
.L301:
@ src/common/iobuf.c:1644: }
	.loc 1 1644 1 view .LVU940
	add	sp, sp, #52	@,,
	.cfi_remember_state
	.cfi_def_cfa_offset 36
	@ sp needed	@
	pop	{r4, r5, r6, r7, r8, r9, r10, fp, pc}	@
.LVL274:
.L335:
	.cfi_restore_state
	.loc 1 1576 7 is_stmt 1 view .LVU941
	ldr	r0, [r6, #60]	@ a_41(D)->chain, a_41(D)->chain
	clz	r0, r0	@, a_41(D)->chain
	lsr	r0, r0, #5	@,,
	bl	tfp_printf(PLT)	@
.LVL275:
	.loc 1 1577 7 view .LVU942
@ src/common/iobuf.c:1577:       return 0;
	.loc 1 1577 14 is_stmt 0 view .LVU943
	mov	r0, #0	@ <retval>,
@ src/common/iobuf.c:1644: }
	.loc 1 1644 1 view .LVU944
	add	sp, sp, #52	@,,
	.cfi_remember_state
	.cfi_def_cfa_offset 36
	@ sp needed	@
	pop	{r4, r5, r6, r7, r8, r9, r10, fp, pc}	@
.LVL276:
.L334:
	.cfi_restore_state
	.loc 1 1571 5 is_stmt 1 view .LVU945
.LBB213:
.LBB214:
@ src/common/iobuf.c:943:   if (! a || ! a->filter)
	.loc 1 943 17 is_stmt 0 view .LVU946
	ldr	r4, [r6, #44]	@ _77, a_41(D)->filter
@ src/common/iobuf.c:941:   size_t len = MAX_IOBUF_DESC;
	.loc 1 941 10 view .LVU947
	mov	r3, #32	@ tmp153,
.LBE214:
.LBE213:
@ src/common/iobuf.c:1571:     printf ("iobuf-%d.%d: pop '%s'\n",
	.loc 1 1571 5 view .LVU948
	ldr	r5, [r6, #64]	@ _3, a_41(D)->no
.LBB220:
.LBB217:
@ src/common/iobuf.c:943:   if (! a || ! a->filter)
	.loc 1 943 11 view .LVU949
	cmp	r4, r2	@ _77,
.LBE217:
.LBE220:
@ src/common/iobuf.c:1571:     printf ("iobuf-%d.%d: pop '%s'\n",
	.loc 1 1571 5 view .LVU950
	ldr	r10, [r6, #68]	@ _4, a_41(D)->subno
.LVL277:
.LBB221:
.LBI213:
	.loc 1 939 1 is_stmt 1 view .LVU951
.LBB218:
	.loc 1 941 3 view .LVU952
@ src/common/iobuf.c:941:   size_t len = MAX_IOBUF_DESC;
	.loc 1 941 10 is_stmt 0 view .LVU953
	str	r3, [sp, #12]	@ tmp153, len
	.loc 1 943 3 is_stmt 1 view .LVU954
@ src/common/iobuf.c:943:   if (! a || ! a->filter)
	.loc 1 943 11 is_stmt 0 view .LVU955
	beq	.L340		@,
	.loc 1 946 5 is_stmt 1 view .LVU956
	ldr	r0, [r6, #48]	@, a_41(D)->filter_ov
	add	r3, sp, #12	@ tmp159,,
	str	r3, [sp]	@ tmp159,
	add	fp, sp, #16	@ tmp198,,
	mov	r3, fp	@, tmp198
	mov	r1, #5	@,
	blx	r4		@ _77
.LVL278:
.L304:
	.loc 1 948 3 view .LVU957
	.loc 1 948 3 is_stmt 0 view .LVU958
.LBE218:
.LBE221:
@ src/common/iobuf.c:1571:     printf ("iobuf-%d.%d: pop '%s'\n",
	.loc 1 1571 5 view .LVU959
	ldr	r0, .L342+16	@,
	mov	r3, fp	@, tmp198
	mov	r2, r10	@, _4
	mov	r1, r5	@, _3
.LPIC56:
	add	r0, pc, r0	@,
	bl	tfp_printf(PLT)	@
.LVL279:
	b	.L302		@
.LVL280:
.L311:
@ src/common/iobuf.c:1597:   if (a->use == IOBUF_OUTPUT && (rc = filter_flush (b)))
	.loc 1 1597 39 discriminator 1 view .LVU960
	mov	r0, r4	@, b
	bl	filter_flush(PLT)	@
.LVL281:
@ src/common/iobuf.c:1597:   if (a->use == IOBUF_OUTPUT && (rc = filter_flush (b)))
	.loc 1 1597 30 discriminator 1 view .LVU961
	cmp	r0, #0	@ <retval>
	.loc 1 1597 30 discriminator 1 view .LVU962
	beq	.L314		@,
	.loc 1 1597 30 discriminator 1 view .LVU963
	b	.L301		@
.LVL282:
.L337:
	.loc 1 1612 7 is_stmt 1 view .LVU964
	bl	xfree(PLT)	@
.LVL283:
	.loc 1 1613 7 view .LVU965
@ src/common/iobuf.c:1613:       b->filter_ov = NULL;
	.loc 1 1613 20 is_stmt 0 view .LVU966
	mov	r3, #0	@ tmp177,
	str	r3, [r4, #48]	@ tmp177, b_110->filter_ov
	b	.L316		@
.LVL284:
.L340:
.LBB222:
.LBB219:
.LBB215:
.LBI215:
	.loc 1 939 1 is_stmt 1 view .LVU967
.LBB216:
	.loc 1 944 5 view .LVU968
	ldr	r1, .L342+20	@,
	add	fp, sp, #16	@ tmp198,,
	mov	r2, #2	@,
	mov	r0, fp	@, tmp198
.LPIC55:
	add	r1, pc, r1	@,
	bl	memcpy(PLT)	@
.LVL285:
	b	.L304		@
.LVL286:
.L338:
	.loc 1 944 5 is_stmt 0 view .LVU969
.LBE216:
.LBE215:
.LBE219:
.LBE222:
@ src/common/iobuf.c:1618:   if (a == b && !b->chain)
	.loc 1 1618 14 discriminator 1 view .LVU970
	ldr	r5, [r6, #60]	@ b_110->chain, b_110->chain
	cmp	r5, #0	@ b_110->chain,
	beq	.L341		@,
	.loc 1 1620 8 is_stmt 1 view .LVU971
	.loc 1 1625 7 view .LVU972
.LVL287:
	.loc 1 1626 7 view .LVU973
	ldr	r0, [r6, #32]	@, a_41(D)->d.buf
	bl	xfree(PLT)	@
.LVL288:
	.loc 1 1627 7 view .LVU974
	ldr	r0, [r6, #56]	@, a_41(D)->real_fname
	bl	xfree(PLT)	@
.LVL289:
	.loc 1 1628 7 view .LVU975
	mov	r2, #72	@,
	mov	r1, r5	@, b_110->chain
	mov	r0, r6	@, a
	bl	memcpy(PLT)	@
.LVL290:
	.loc 1 1629 7 view .LVU976
	mov	r0, r5	@, b_110->chain
	bl	xfree(PLT)	@
.LVL291:
	.loc 1 1630 7 view .LVU977
	ldr	r0, .L342+24	@,
	mov	r1, #72	@,
.LPIC59:
	add	r0, pc, r0	@,
	bl	tfp_printf(PLT)	@
.LVL292:
	.loc 1 1631 7 view .LVU978
@ src/common/iobuf.c:1631:       if (DBG_IOBUF)
	.loc 1 1631 11 is_stmt 0 view .LVU979
	ldr	r0, [r7]	@ <retval>, iobuf_debug_mode
@ src/common/iobuf.c:1631:       if (DBG_IOBUF)
	.loc 1 1631 10 view .LVU980
	cmp	r0, #0	@ <retval>,
	beq	.L301		@,
	.loc 1 1632 2 is_stmt 1 view .LVU981
	ldr	r0, .L342+28	@,
	ldr	r2, [r6, #68]	@, a_41(D)->subno
.LPIC60:
	add	r0, pc, r0	@,
	ldr	r1, [r6, #64]	@, a_41(D)->no
	bl	tfp_printf(PLT)	@
.LVL293:
@ src/common/iobuf.c:1643:   return rc;
	.loc 1 1643 10 is_stmt 0 view .LVU982
	mov	r0, #0	@ <retval>,
	b	.L301		@
.LVL294:
.L310:
	.loc 1 1593 3 is_stmt 1 view .LVU983
	.loc 1 1594 5 view .LVU984
	ldr	r0, .L342+32	@,
.LPIC63:
	add	r0, pc, r0	@,
	bl	tfp_printf(PLT)	@
.LVL295:
@ src/common/iobuf.c:1597:   if (a->use == IOBUF_OUTPUT && (rc = filter_flush (b)))
	.loc 1 1597 8 is_stmt 0 view .LVU985
	ldrb	r2, [r6]	@ zero_extendqisi2	@ _46, a_41(D)->use
	.loc 1 1597 3 is_stmt 1 view .LVU986
@ src/common/iobuf.c:1597:   if (a->use == IOBUF_OUTPUT && (rc = filter_flush (b)))
	.loc 1 1597 6 is_stmt 0 view .LVU987
	cmp	r2, #2	@ _46,
	bne	.L314		@,
	b	.L311		@
.L339:
	.loc 1 1636 7 is_stmt 1 view .LVU988
	ldr	r0, .L342+36	@,
.LPIC61:
	add	r0, pc, r0	@,
	bl	tfp_printf(PLT)	@
.LVL296:
@ src/common/iobuf.c:1643:   return rc;
	.loc 1 1643 10 is_stmt 0 view .LVU989
	mov	r0, r5	@ <retval>, b_110->chain
	b	.L301		@
.LVL297:
.L336:
	.loc 1 1581 7 is_stmt 1 view .LVU990
@ src/common/iobuf.c:1581:       b = a->chain;
	.loc 1 1581 9 is_stmt 0 view .LVU991
	ldr	r4, [r6, #60]	@ b, a_41(D)->chain
.LVL298:
	.loc 1 1582 7 is_stmt 1 view .LVU992
	mov	r0, r4	@, b
	bl	tfp_printf(PLT)	@
.LVL299:
	.loc 1 1583 7 view .LVU993
	ldr	r0, [r6, #32]	@, a_41(D)->d.buf
	bl	xfree(PLT)	@
.LVL300:
	.loc 1 1584 7 view .LVU994
	ldr	r0, [r6, #56]	@, a_41(D)->real_fname
	bl	xfree(PLT)	@
.LVL301:
	.loc 1 1585 7 view .LVU995
	ldr	r0, .L342+40	@,
	mov	r1, #72	@,
.LPIC57:
	add	r0, pc, r0	@,
	bl	tfp_printf(PLT)	@
.LVL302:
	.loc 1 1586 7 view .LVU996
	mov	r2, #72	@,
	mov	r1, r4	@, b
	mov	r0, r6	@, a
	bl	memcpy(PLT)	@
.LVL303:
	.loc 1 1587 7 view .LVU997
	mov	r0, r4	@, b
	bl	xfree(PLT)	@
.LVL304:
	.loc 1 1588 7 view .LVU998
@ src/common/iobuf.c:1588:       return 0;
	.loc 1 1588 14 is_stmt 0 view .LVU999
	mov	r0, r5	@ <retval>, pretmp_17
	b	.L301		@
.L341:
	.loc 1 1619 5 is_stmt 1 view .LVU1000
	ldr	r0, .L342+44	@,
.LPIC58:
	add	r0, pc, r0	@,
	bl	tfp_printf(PLT)	@
.LVL305:
@ src/common/iobuf.c:1643:   return rc;
	.loc 1 1643 10 is_stmt 0 view .LVU1001
	mov	r0, r5	@ <retval>, b_110->chain
@ src/common/iobuf.c:1619:     printf ("can't remove the last filter from the chain\n");
	.loc 1 1619 5 view .LVU1002
	b	.L301		@
.L343:
	.align	2
.L342:
	.word	.LC34-(.LPIC53+8)
	.word	_GLOBAL_OFFSET_TABLE_-(.LPIC54+8)
	.word	iobuf_debug_mode(GOT)
	.word	.LC41-(.LPIC62+8)
	.word	.LC35-(.LPIC56+8)
	.word	.LC6-(.LPIC55+8)
	.word	.LC38-(.LPIC59+8)
	.word	.LC39-(.LPIC60+8)
	.word	.LC42-(.LPIC63+8)
	.word	.LC40-(.LPIC61+8)
	.word	.LC36-(.LPIC57+8)
	.word	.LC37-(.LPIC58+8)
	.cfi_endproc
.LFE60:
	.size	iobuf_pop_filter, .-iobuf_pop_filter
	.section	.rodata.iobuf_readbyte.str1.4,"aMS",%progbits,1
	.align	2
.LC43:
	.ascii	"iobuf_readbyte called on a non-INPUT pipeline!\012\000"
	.align	2
.LC44:
	.ascii	"IOBUFCTRL_FREE failed: %s\012\000"
	.section	.text.iobuf_readbyte,"ax",%progbits
	.align	2
	.global	iobuf_readbyte
	.syntax unified
	.arm
	.fpu softvfp
	.type	iobuf_readbyte, %function
iobuf_readbyte:
.LVL306:
.LFB64:
	.loc 1 1860 1 is_stmt 1 view -0
	.cfi_startproc
	@ args = 0, pretend = 0, frame = 16
	@ frame_needed = 0, uses_anonymous_args = 0
	.loc 1 1861 3 view .LVU1004
	.loc 1 1863 3 view .LVU1005
@ src/common/iobuf.c:1860: {
	.loc 1 1860 1 is_stmt 0 view .LVU1006
	push	{r4, r5, r6, r7, lr}	@
	.cfi_def_cfa_offset 20
	.cfi_offset 4, -20
	.cfi_offset 5, -16
	.cfi_offset 6, -12
	.cfi_offset 7, -8
	.cfi_offset 14, -4
	sub	sp, sp, #28	@,,
	.cfi_def_cfa_offset 48
@ src/common/iobuf.c:1860: {
	.loc 1 1860 1 view .LVU1007
	ldr	r6, .L407	@ tmp176,
	mov	r4, r0	@ a, a
	str	r0, [sp, #12]	@ a, %sfp
@ src/common/iobuf.c:1863:   if (a->use == IOBUF_OUTPUT || a->use == IOBUF_OUTPUT_TEMP)
	.loc 1 1863 8 view .LVU1008
	ldrb	r0, [r0]	@ zero_extendqisi2	@ _1, a_18(D)->use
.LVL307:
@ src/common/iobuf.c:1860: {
	.loc 1 1860 1 view .LVU1009
.LPIC65:
	add	r6, pc, r6	@ tmp176, tmp176
@ src/common/iobuf.c:1863:   if (a->use == IOBUF_OUTPUT || a->use == IOBUF_OUTPUT_TEMP)
	.loc 1 1863 6 view .LVU1010
	sub	r3, r0, #2	@ tmp165, _1,
	cmp	r3, #1	@ tmp165,
	bls	.L401		@,
	.loc 1 1871 3 is_stmt 1 view .LVU1011
@ src/common/iobuf.c:1871:   if (a->nlimit && a->nbytes >= a->nlimit)
	.loc 1 1871 8 is_stmt 0 view .LVU1012
	ldr	r3, [r4, #4]	@ _3, a_18(D)->nlimit
@ src/common/iobuf.c:1871:   if (a->nlimit && a->nbytes >= a->nlimit)
	.loc 1 1871 6 view .LVU1013
	cmp	r3, #0	@ _3,
	bne	.L402		@,
.L347:
	.loc 1 1874 3 is_stmt 1 view .LVU1014
@ src/common/iobuf.c:1874:   if (a->d.start < a->d.len)
	.loc 1 1874 11 is_stmt 0 view .LVU1015
	ldr	r1, [r4, #24]	@ _5, a_18(D)->d.start
@ src/common/iobuf.c:1874:   if (a->d.start < a->d.len)
	.loc 1 1874 24 view .LVU1016
	ldr	r2, [r4, #28]	@ _6, a_18(D)->d.len
@ src/common/iobuf.c:1874:   if (a->d.start < a->d.len)
	.loc 1 1874 6 view .LVU1017
	cmp	r1, r2	@ _5, _6
	bcs	.L348		@,
	.loc 1 1876 7 is_stmt 1 view .LVU1018
@ src/common/iobuf.c:1876:       c = a->d.buf[a->d.start++];
	.loc 1 1876 15 is_stmt 0 view .LVU1019
	ldr	r3, [r4, #32]	@ _7, a_18(D)->d.buf
@ src/common/iobuf.c:1876:       c = a->d.buf[a->d.start++];
	.loc 1 1876 30 view .LVU1020
	add	r2, r1, #1	@ tmp169, _5,
	str	r2, [r4, #24]	@ tmp169, a_18(D)->d.start
@ src/common/iobuf.c:1876:       c = a->d.buf[a->d.start++];
	.loc 1 1876 9 view .LVU1021
	ldrb	r5, [r3, r1]	@ zero_extendqisi2	@ <retval>, *_9
.LVL308:
.L349:
	.loc 1 1886 3 is_stmt 1 view .LVU1022
@ src/common/iobuf.c:1886:   a->nbytes++;
	.loc 1 1886 12 is_stmt 0 view .LVU1023
	ldr	r3, [r4, #8]	@ a_18(D)->nbytes, a_18(D)->nbytes
	add	r3, r3, #1	@ tmp204, a_18(D)->nbytes,
	str	r3, [r4, #8]	@ tmp204, a_18(D)->nbytes
	.loc 1 1887 3 is_stmt 1 view .LVU1024
.LVL309:
.L344:
@ src/common/iobuf.c:1888: }
	.loc 1 1888 1 is_stmt 0 view .LVU1025
	mov	r0, r5	@, <retval>
	add	sp, sp, #28	@,,
	.cfi_remember_state
	.cfi_def_cfa_offset 20
	@ sp needed	@
	pop	{r4, r5, r6, r7, pc}	@
.LVL310:
.L402:
	.cfi_restore_state
@ src/common/iobuf.c:1871:   if (a->nlimit && a->nbytes >= a->nlimit)
	.loc 1 1871 17 discriminator 1 view .LVU1026
	ldr	r2, [r4, #8]	@ a_18(D)->nbytes, a_18(D)->nbytes
	cmp	r3, r2	@ _3, a_18(D)->nbytes
	bgt	.L347		@,
.L400:
.LVL311:
@ src/common/iobuf.c:1879:     return -1;			/* EOF */
	.loc 1 1879 12 view .LVU1027
	mvn	r5, #0	@ <retval>,
	b	.L344		@
.LVL312:
.L348:
	.loc 1 1878 8 is_stmt 1 view .LVU1028
.LBB234:
.LBI234:
	.loc 1 1652 1 view .LVU1029
.LBE234:
	.loc 1 1654 3 view .LVU1030
.LBB255:
.LBB235:
.LBI235:
	.loc 1 1663 1 view .LVU1031
.LBB236:
	.loc 1 1665 3 view .LVU1032
	.loc 1 1666 3 view .LVU1033
	.loc 1 1674 3 view .LVU1034
@ src/common/iobuf.c:1674:   if (a->use == IOBUF_INPUT_TEMP)
	.loc 1 1674 6 is_stmt 0 view .LVU1035
	cmp	r0, #1	@ _1,
	beq	.L400		@,
	.loc 1 1685 3 is_stmt 1 view .LVU1036
@ src/common/iobuf.c:1686:   memmove (a->d.buf, &a->d.buf[a->d.start], a->d.len);
	.loc 1 1686 16 is_stmt 0 view .LVU1037
	ldr	r0, [r4, #32]	@ _29, a_18(D)->d.buf
@ src/common/iobuf.c:1685:   a->d.len -= a->d.start;
	.loc 1 1685 12 view .LVU1038
	sub	r2, r2, r1	@ _28, _6, _5
	str	r2, [r4, #28]	@ _28, a_18(D)->d.len
	.loc 1 1686 3 is_stmt 1 view .LVU1039
	add	r1, r0, r1	@, _29, _5
	bl	memmove(PLT)	@
.LVL313:
	.loc 1 1687 3 view .LVU1040
@ src/common/iobuf.c:1689:   if (a->d.len < target && a->filter_eof)
	.loc 1 1689 11 is_stmt 0 view .LVU1041
	ldr	r3, [r4, #28]	@ _31, a_18(D)->d.len
@ src/common/iobuf.c:1687:   a->d.start = 0;
	.loc 1 1687 14 view .LVU1042
	mov	r2, #0	@ tmp171,
	str	r2, [r4, #24]	@ tmp171, a_18(D)->d.start
	.loc 1 1689 3 is_stmt 1 view .LVU1043
@ src/common/iobuf.c:1689:   if (a->d.len < target && a->filter_eof)
	.loc 1 1689 6 is_stmt 0 view .LVU1044
	cmp	r3, r2	@ _31,
	beq	.L403		@,
	.loc 1 1731 3 is_stmt 1 view .LVU1045
@ src/common/iobuf.c:1731:   if (a->filter && ! a->filter_eof && ! a->error)
	.loc 1 1731 8 is_stmt 0 view .LVU1046
	ldr	r5, [r4, #44]	@ _132, a_18(D)->filter
@ src/common/iobuf.c:1731:   if (a->filter && ! a->filter_eof && ! a->error)
	.loc 1 1731 6 view .LVU1047
	cmp	r5, #0	@ _132,
	beq	.L367		@,
@ src/common/iobuf.c:1731:   if (a->filter && ! a->filter_eof && ! a->error)
	.loc 1 1731 17 view .LVU1048
	ldr	r1, [r4, #36]	@ a_18(D)->filter_eof, a_18(D)->filter_eof
	cmp	r1, #0	@ a_18(D)->filter_eof,
	beq	.L404		@,
.L356:
	.loc 1 1814 5 is_stmt 1 view .LVU1049
@ src/common/iobuf.c:1814:     return a->d.buf[a->d.start++];
	.loc 1 1814 16 is_stmt 0 view .LVU1050
	ldr	r3, [r4, #32]	@ _66, a_18(D)->d.buf
@ src/common/iobuf.c:1814:     return a->d.buf[a->d.start++];
	.loc 1 1814 31 view .LVU1051
	add	r1, r2, #1	@ tmp203, prephitmp_23,
	str	r1, [r4, #24]	@ tmp203, a_18(D)->d.start
@ src/common/iobuf.c:1814:     return a->d.buf[a->d.start++];
	.loc 1 1814 20 view .LVU1052
	ldrb	r5, [r3, r2]	@ zero_extendqisi2	@ <retval>, *_68
.LVL314:
	.loc 1 1814 20 view .LVU1053
.LBE236:
.LBE235:
.LBE255:
	b	.L349		@
.LVL315:
.L403:
.LBB256:
.LBB252:
.LBB249:
@ src/common/iobuf.c:1689:   if (a->d.len < target && a->filter_eof)
	.loc 1 1689 25 view .LVU1054
	ldr	r2, [r4, #36]	@ a_18(D)->filter_eof, a_18(D)->filter_eof
	cmp	r2, #0	@ a_18(D)->filter_eof,
	beq	.L352		@,
	.loc 1 1698 7 is_stmt 1 view .LVU1055
	.loc 1 1701 7 view .LVU1056
@ src/common/iobuf.c:1701:       if (a->chain)
	.loc 1 1701 12 is_stmt 0 view .LVU1057
	ldr	r5, [r4, #60]	@ _33, a_18(D)->chain
@ src/common/iobuf.c:1701:       if (a->chain)
	.loc 1 1701 10 view .LVU1058
	cmp	r5, #0	@ _33,
	beq	.L353		@,
.LBB237:
	.loc 1 1704 4 is_stmt 1 view .LVU1059
.LVL316:
	.loc 1 1708 4 view .LVU1060
	ldr	r0, [r4, #32]	@, a_18(D)->d.buf
	bl	xfree(PLT)	@
.LVL317:
	.loc 1 1709 4 view .LVU1061
	ldr	r0, [r4, #56]	@, a_18(D)->real_fname
	bl	xfree(PLT)	@
.LVL318:
	.loc 1 1710 4 view .LVU1062
	mov	r2, #72	@,
	mov	r1, r5	@, _33
	mov	r0, r4	@, a
	bl	memcpy(PLT)	@
.LVL319:
	.loc 1 1711 4 view .LVU1063
	mov	r0, r5	@, _33
	bl	xfree(PLT)	@
.LVL320:
	.loc 1 1712 4 view .LVU1064
.LBB238:
.LBI238:
	.loc 1 952 1 view .LVU1065
.LBB239:
	.loc 1 954 3 view .LVU1066
@ src/common/iobuf.c:954:   if (!DBG_IOBUF)
	.loc 1 954 7 is_stmt 0 view .LVU1067
	ldr	r3, .L407+4	@ tmp211,
	ldr	r3, [r6, r3]	@ tmp175,
@ src/common/iobuf.c:954:   if (!DBG_IOBUF)
	.loc 1 954 6 view .LVU1068
	ldr	r3, [r3]	@ iobuf_debug_mode, iobuf_debug_mode
	cmp	r3, #0	@ iobuf_debug_mode,
	beq	.L400		@,
	mov	r0, r4	@, a
.LBE239:
.LBE238:
.LBE237:
.LBE249:
.LBE252:
.LBE256:
@ src/common/iobuf.c:1879:     return -1;			/* EOF */
	.loc 1 1879 12 view .LVU1069
	mvn	r5, #0	@ <retval>,
.LVL321:
.LBB257:
.LBB253:
.LBB250:
.LBB242:
.LBB241:
.LBB240:
	.loc 1 1879 12 view .LVU1070
	bl	print_chain.part.0(PLT)	@
.LVL322:
	.loc 1 1879 12 view .LVU1071
	b	.L344		@
.LVL323:
.L352:
	.loc 1 1879 12 view .LVU1072
.LBE240:
.LBE241:
.LBE242:
	.loc 1 1719 3 is_stmt 1 view .LVU1073
@ src/common/iobuf.c:1719:   if (a->d.len == 0 && a->error)
	.loc 1 1719 21 is_stmt 0 view .LVU1074
	ldr	r2, [r4, #40]	@ a_18(D)->error, a_18(D)->error
	cmp	r2, #0	@ a_18(D)->error,
	bne	.L400		@,
	.loc 1 1731 3 is_stmt 1 view .LVU1075
@ src/common/iobuf.c:1731:   if (a->filter && ! a->filter_eof && ! a->error)
	.loc 1 1731 8 is_stmt 0 view .LVU1076
	ldr	r5, [r4, #44]	@ _132, a_18(D)->filter
@ src/common/iobuf.c:1731:   if (a->filter && ! a->filter_eof && ! a->error)
	.loc 1 1731 6 view .LVU1077
	cmp	r5, #0	@ _132,
	beq	.L400		@,
.L365:
	.loc 1 1736 7 is_stmt 1 view .LVU1078
@ src/common/iobuf.c:1736:       len = a->d.size - a->d.len;
	.loc 1 1736 23 is_stmt 0 view .LVU1079
	ldr	r2, [r4, #20]	@ a_18(D)->d.size, a_18(D)->d.size
	sub	r2, r2, r3	@ prephitmp_23, a_18(D)->d.size, _31
@ src/common/iobuf.c:1736:       len = a->d.size - a->d.len;
	.loc 1 1736 11 view .LVU1080
	str	r2, [sp, #16]	@ prephitmp_23, len
	.loc 1 1740 7 is_stmt 1 view .LVU1081
@ src/common/iobuf.c:1740:       if (len == 0)
	.loc 1 1740 10 is_stmt 0 view .LVU1082
	cmp	r2, #0	@ prephitmp_23,
	beq	.L357		@,
	.loc 1 1745 2 is_stmt 1 view .LVU1083
@ src/common/iobuf.c:1745: 	rc = a->filter (a->filter_ov, IOBUFCTRL_UNDERFLOW, a->chain,
	.loc 1 1745 7 is_stmt 0 view .LVU1084
	ldr	r2, [r4, #32]	@ a_18(D)->d.buf, a_18(D)->d.buf
	add	r1, sp, #16	@ tmp187,,
	ldr	r0, [r4, #48]	@, a_18(D)->filter_ov
	add	r3, r2, r3	@, a_18(D)->d.buf, _31
	ldr	r2, [r4, #60]	@, a_18(D)->chain
	str	r1, [sp]	@ tmp187,
	mov	r1, #3	@,
	blx	r5		@ _132
.LVL324:
@ src/common/iobuf.c:1747:       a->d.len += len;
	.loc 1 1747 16 view .LVU1085
	ldr	r2, [r4, #28]	@ a_18(D)->d.len, a_18(D)->d.len
@ src/common/iobuf.c:1757:       if (rc == -1)
	.loc 1 1757 10 view .LVU1086
	cmn	r0, #1	@ <retval>,
@ src/common/iobuf.c:1747:       a->d.len += len;
	.loc 1 1747 16 view .LVU1087
	ldr	r3, [sp, #16]	@ len, len
@ src/common/iobuf.c:1745: 	rc = a->filter (a->filter_ov, IOBUFCTRL_UNDERFLOW, a->chain,
	.loc 1 1745 7 view .LVU1088
	mov	r5, r0	@ <retval>, tmp208
.LVL325:
	.loc 1 1747 7 is_stmt 1 view .LVU1089
@ src/common/iobuf.c:1747:       a->d.len += len;
	.loc 1 1747 16 is_stmt 0 view .LVU1090
	add	r3, r2, r3	@ _31, a_18(D)->d.len, len
	str	r3, [r4, #28]	@ _31, a_18(D)->d.len
	.loc 1 1757 7 is_stmt 1 view .LVU1091
@ src/common/iobuf.c:1757:       if (rc == -1)
	.loc 1 1757 10 is_stmt 0 view .LVU1092
	bne	.L358		@,
.LBB243:
	.loc 1 1760 4 is_stmt 1 view .LVU1093
@ src/common/iobuf.c:1763: 	  if ((rc = a->filter (a->filter_ov, IOBUFCTRL_FREE, a->chain,
	.loc 1 1763 14 is_stmt 0 view .LVU1094
	ldr	r7, [r4, #44]	@ a_18(D)->filter, a_18(D)->filter
@ src/common/iobuf.c:1760: 	  size_t dummy_len = 0;
	.loc 1 1760 11 view .LVU1095
	mov	r3, #0	@ tmp190,
@ src/common/iobuf.c:1763: 	  if ((rc = a->filter (a->filter_ov, IOBUFCTRL_FREE, a->chain,
	.loc 1 1763 14 view .LVU1096
	ldr	r2, [r4, #60]	@, a_18(D)->chain
	add	r1, sp, #20	@ tmp193,,
	str	r1, [sp]	@ tmp193,
	mov	r1, #2	@,
	ldr	r0, [r4, #48]	@, a_18(D)->filter_ov
.LVL326:
@ src/common/iobuf.c:1760: 	  size_t dummy_len = 0;
	.loc 1 1760 11 view .LVU1097
	str	r3, [sp, #20]	@ tmp190, dummy_len
	.loc 1 1763 4 is_stmt 1 view .LVU1098
@ src/common/iobuf.c:1763: 	  if ((rc = a->filter (a->filter_ov, IOBUFCTRL_FREE, a->chain,
	.loc 1 1763 14 is_stmt 0 view .LVU1099
	blx	r7		@ a_18(D)->filter
.LVL327:
@ src/common/iobuf.c:1763: 	  if ((rc = a->filter (a->filter_ov, IOBUFCTRL_FREE, a->chain,
	.loc 1 1763 7 view .LVU1100
	cmp	r0, #0	@ tmp209,
	bne	.L405		@,
.LVL328:
.L359:
	.loc 1 1768 4 is_stmt 1 view .LVU1101
@ src/common/iobuf.c:1768: 	  if (a->filter_ov && a->filter_ov_owner)
	.loc 1 1768 9 is_stmt 0 view .LVU1102
	ldr	r0, [r4, #48]	@ _56, a_18(D)->filter_ov
@ src/common/iobuf.c:1768: 	  if (a->filter_ov && a->filter_ov_owner)
	.loc 1 1768 7 view .LVU1103
	cmp	r0, #0	@ _56,
	beq	.L360		@,
@ src/common/iobuf.c:1768: 	  if (a->filter_ov && a->filter_ov_owner)
	.loc 1 1768 21 view .LVU1104
	ldr	r3, [r4, #52]	@ a_18(D)->filter_ov_owner, a_18(D)->filter_ov_owner
	cmp	r3, #0	@ a_18(D)->filter_ov_owner,
	bne	.L406		@,
.L360:
	.loc 1 1770 4 is_stmt 1 view .LVU1105
@ src/common/iobuf.c:1774: 	  if (clear_pending_eof && a->d.len == 0 && a->chain)
	.loc 1 1774 33 is_stmt 0 view .LVU1106
	ldr	r3, [r4, #28]	@ _31, a_18(D)->d.len
@ src/common/iobuf.c:1770: 	  a->filter_ov = NULL;
	.loc 1 1770 17 view .LVU1107
	mov	r2, #0	@ tmp198,
	str	r2, [r4, #48]	@ tmp198, a_18(D)->filter_ov
	.loc 1 1771 4 is_stmt 1 view .LVU1108
@ src/common/iobuf.c:1774: 	  if (clear_pending_eof && a->d.len == 0 && a->chain)
	.loc 1 1774 26 is_stmt 0 view .LVU1109
	cmp	r3, r2	@ _31,
@ src/common/iobuf.c:1771: 	  a->filter = NULL;
	.loc 1 1771 14 view .LVU1110
	str	r2, [r4, #44]	@ tmp198, a_18(D)->filter
	.loc 1 1772 4 is_stmt 1 view .LVU1111
@ src/common/iobuf.c:1772: 	  a->filter_eof = 1;
	.loc 1 1772 18 is_stmt 0 view .LVU1112
	mov	r2, #1	@ tmp200,
	str	r2, [r4, #36]	@ tmp200, a_18(D)->filter_eof
	.loc 1 1774 4 is_stmt 1 view .LVU1113
@ src/common/iobuf.c:1774: 	  if (clear_pending_eof && a->d.len == 0 && a->chain)
	.loc 1 1774 26 is_stmt 0 view .LVU1114
	bne	.L399		@,
@ src/common/iobuf.c:1774: 	  if (clear_pending_eof && a->d.len == 0 && a->chain)
	.loc 1 1774 47 view .LVU1115
	ldr	r7, [r4, #60]	@ _59, a_18(D)->chain
@ src/common/iobuf.c:1774: 	  if (clear_pending_eof && a->d.len == 0 && a->chain)
	.loc 1 1774 43 view .LVU1116
	cmp	r7, #0	@ _59,
	beq	.L344		@,
.LBB244:
	.loc 1 1783 8 is_stmt 1 view .LVU1117
.LVL329:
	.loc 1 1787 8 view .LVU1118
	ldr	r0, [r4, #32]	@, a_18(D)->d.buf
	bl	xfree(PLT)	@
.LVL330:
	.loc 1 1788 8 view .LVU1119
	ldr	r0, [r4, #56]	@, a_18(D)->real_fname
	bl	xfree(PLT)	@
.LVL331:
	.loc 1 1789 8 view .LVU1120
	mov	r2, #72	@,
	mov	r1, r7	@, _59
	mov	r0, r4	@, a
	bl	memcpy(PLT)	@
.LVL332:
	.loc 1 1790 8 view .LVU1121
	mov	r0, r7	@, _59
	bl	xfree(PLT)	@
.LVL333:
	.loc 1 1792 8 view .LVU1122
.LBB245:
.LBI245:
	.loc 1 952 1 view .LVU1123
.LBB246:
	.loc 1 954 3 view .LVU1124
@ src/common/iobuf.c:954:   if (!DBG_IOBUF)
	.loc 1 954 7 is_stmt 0 view .LVU1125
	ldr	r3, .L407+4	@ tmp210,
	ldr	r3, [r6, r3]	@ tmp201,
@ src/common/iobuf.c:954:   if (!DBG_IOBUF)
	.loc 1 954 6 view .LVU1126
	ldr	r3, [r3]	@ iobuf_debug_mode, iobuf_debug_mode
	cmp	r3, #0	@ iobuf_debug_mode,
	beq	.L344		@,
	mov	r0, r4	@, a
	bl	print_chain.part.0(PLT)	@
.LVL334:
	b	.L344		@
.LVL335:
.L358:
	.loc 1 954 6 view .LVU1127
.LBE246:
.LBE245:
.LBE244:
.LBE243:
	.loc 1 1801 12 is_stmt 1 view .LVU1128
@ src/common/iobuf.c:1801:       else if (rc)
	.loc 1 1801 15 is_stmt 0 view .LVU1129
	cmp	r0, #0	@ <retval>,
	beq	.L399		@,
	.loc 1 1804 4 is_stmt 1 view .LVU1130
@ src/common/iobuf.c:1804: 	  a->error = rc;
	.loc 1 1804 13 is_stmt 0 view .LVU1131
	str	r0, [r4, #40]	@ <retval>, a_18(D)->error
	.loc 1 1806 4 is_stmt 1 view .LVU1132
@ src/common/iobuf.c:1806: 	  if (a->d.len == 0)
	.loc 1 1806 7 is_stmt 0 view .LVU1133
	cmp	r3, #0	@ _31,
	beq	.L400		@,
.LVL336:
.L399:
@ src/common/iobuf.c:1813:   if (a->d.start < a->d.len)
	.loc 1 1813 11 view .LVU1134
	ldr	r2, [r4, #24]	@ prephitmp_23, a_18(D)->d.start
.L357:
	.loc 1 1813 3 is_stmt 1 view .LVU1135
@ src/common/iobuf.c:1813:   if (a->d.start < a->d.len)
	.loc 1 1813 6 is_stmt 0 view .LVU1136
	cmp	r2, r3	@ prephitmp_23, _31
	bcc	.L356		@,
	b	.L400		@
.L353:
	.loc 1 1715 2 is_stmt 1 view .LVU1137
@ src/common/iobuf.c:1715: 	a->filter_eof = 0;	/* for the top level filter */
	.loc 1 1715 16 is_stmt 0 view .LVU1138
	str	r5, [r4, #36]	@ _33, a_18(D)->filter_eof
	b	.L400		@
.L367:
	.loc 1 1715 16 view .LVU1139
	mov	r2, r5	@ prephitmp_23, _132
	b	.L356		@
.LVL337:
.L405:
.LBB247:
	.loc 1 1765 6 is_stmt 1 view .LVU1140
	ldr	r0, .L407+8	@,
.LVL338:
	.loc 1 1765 6 is_stmt 0 view .LVU1141
.LPIC66:
	add	r0, pc, r0	@,
	bl	tfp_printf(PLT)	@
.LVL339:
	b	.L359		@
.LVL340:
.L401:
	.loc 1 1765 6 view .LVU1142
.LBE247:
.LBE250:
.LBE253:
.LBE257:
	.loc 1 1865 7 is_stmt 1 view .LVU1143
	ldr	r0, .L407+12	@,
@ src/common/iobuf.c:1866:       return -1;
	.loc 1 1866 14 is_stmt 0 view .LVU1144
	mvn	r5, #0	@ <retval>,
@ src/common/iobuf.c:1865:       printf ("iobuf_readbyte called on a non-INPUT pipeline!\n");
	.loc 1 1865 7 view .LVU1145
.LPIC64:
	add	r0, pc, r0	@,
	bl	tfp_printf(PLT)	@
.LVL341:
	.loc 1 1866 7 is_stmt 1 view .LVU1146
@ src/common/iobuf.c:1866:       return -1;
	.loc 1 1866 14 is_stmt 0 view .LVU1147
	b	.L344		@
.LVL342:
.L406:
.LBB258:
.LBB254:
.LBB251:
.LBB248:
	.loc 1 1769 6 is_stmt 1 view .LVU1148
	bl	xfree(PLT)	@
.LVL343:
	b	.L360		@
.L404:
	.loc 1 1769 6 is_stmt 0 view .LVU1149
.LBE248:
@ src/common/iobuf.c:1731:   if (a->filter && ! a->filter_eof && ! a->error)
	.loc 1 1731 36 view .LVU1150
	ldr	r2, [r4, #40]	@ a_18(D)->error, a_18(D)->error
	cmp	r2, #0	@ a_18(D)->error,
	movne	r2, r1	@ prephitmp_23, a_18(D)->filter_eof
	bne	.L356		@,
	b	.L365		@
.L408:
	.align	2
.L407:
	.word	_GLOBAL_OFFSET_TABLE_-(.LPIC65+8)
	.word	iobuf_debug_mode(GOT)
	.word	.LC44-(.LPIC66+8)
	.word	.LC43-(.LPIC64+8)
.LBE251:
.LBE254:
.LBE258:
	.cfi_endproc
.LFE64:
	.size	iobuf_readbyte, .-iobuf_readbyte
	.section	.rodata.iobuf_read.str1.4,"aMS",%progbits,1
	.align	2
.LC45:
	.ascii	"iobuf_read %d a->nlimit %d\012\000"
	.align	2
.LC46:
	.ascii	"iobuf_read called on a non-INPUT pipeline!\012\000"
	.section	.text.iobuf_read,"ax",%progbits
	.align	2
	.global	iobuf_read
	.syntax unified
	.arm
	.fpu softvfp
	.type	iobuf_read, %function
iobuf_read:
.LVL344:
.LFB65:
	.loc 1 1893 1 is_stmt 1 view -0
	.cfi_startproc
	@ args = 0, pretend = 0, frame = 0
	@ frame_needed = 0, uses_anonymous_args = 0
	.loc 1 1894 3 view .LVU1152
@ src/common/iobuf.c:1893: {
	.loc 1 1893 1 is_stmt 0 view .LVU1153
	push	{r4, r5, r6, r7, r8, lr}	@
	.cfi_def_cfa_offset 24
	.cfi_offset 4, -24
	.cfi_offset 5, -20
	.cfi_offset 6, -16
	.cfi_offset 7, -12
	.cfi_offset 8, -8
	.cfi_offset 14, -4
@ src/common/iobuf.c:1893: {
	.loc 1 1893 1 view .LVU1154
	mov	r6, r0	@ tmp164, a
@ src/common/iobuf.c:1894:   printf("iobuf_read %d a->nlimit %d\n",buflen,a->nlimit);
	.loc 1 1894 3 view .LVU1155
	ldr	r0, .L435	@,
.LVL345:
@ src/common/iobuf.c:1893: {
	.loc 1 1893 1 view .LVU1156
	mov	r7, r2	@ tmp166, buflen
@ src/common/iobuf.c:1894:   printf("iobuf_read %d a->nlimit %d\n",buflen,a->nlimit);
	.loc 1 1894 3 view .LVU1157
	ldr	r2, [r6, #4]	@, a_46(D)->nlimit
.LVL346:
@ src/common/iobuf.c:1893: {
	.loc 1 1893 1 view .LVU1158
	mov	r4, r1	@ buffer, tmp165
@ src/common/iobuf.c:1894:   printf("iobuf_read %d a->nlimit %d\n",buflen,a->nlimit);
	.loc 1 1894 3 view .LVU1159
.LPIC67:
	add	r0, pc, r0	@,
	mov	r1, r7	@, buflen
.LVL347:
	.loc 1 1894 3 view .LVU1160
	bl	tfp_printf(PLT)	@
.LVL348:
	.loc 1 1895 3 is_stmt 1 view .LVU1161
	.loc 1 1896 3 view .LVU1162
	.loc 1 1898 3 view .LVU1163
@ src/common/iobuf.c:1898:   if (a->use == IOBUF_OUTPUT || a->use == IOBUF_OUTPUT_TEMP)
	.loc 1 1898 30 is_stmt 0 view .LVU1164
	ldrb	r3, [r6]	@ zero_extendqisi2	@ a_46(D)->use, a_46(D)->use
@ src/common/iobuf.c:1898:   if (a->use == IOBUF_OUTPUT || a->use == IOBUF_OUTPUT_TEMP)
	.loc 1 1898 6 view .LVU1165
	sub	r3, r3, #2	@ tmp150, a_46(D)->use,
	cmp	r3, #1	@ tmp150,
	bls	.L433		@,
	.loc 1 1904 3 is_stmt 1 view .LVU1166
@ src/common/iobuf.c:1904:   if (a->nlimit)
	.loc 1 1904 8 is_stmt 0 view .LVU1167
	ldr	r5, [r6, #4]	@ <retval>, a_46(D)->nlimit
@ src/common/iobuf.c:1904:   if (a->nlimit)
	.loc 1 1904 6 view .LVU1168
	cmp	r5, #0	@ <retval>,
	beq	.L412		@,
.LVL349:
	.loc 1 1907 19 is_stmt 1 view .LVU1169
@ src/common/iobuf.c:1907:       for (n = 0; n < buflen; n++)
	.loc 1 1907 7 is_stmt 0 view .LVU1170
	subs	r5, r7, #0	@ <retval>, buflen
	beq	.L409		@,
@ src/common/iobuf.c:1907:       for (n = 0; n < buflen; n++)
	.loc 1 1907 14 view .LVU1171
	mov	r8, #0	@ n,
	b	.L415		@
.LVL350:
.L413:
@ src/common/iobuf.c:1916: 	  if (buf)
	.loc 1 1916 7 view .LVU1172
	cmp	r4, #0	@ buffer,
@ src/common/iobuf.c:1907:       for (n = 0; n < buflen; n++)
	.loc 1 1907 32 view .LVU1173
	add	r8, r8, #1	@ n, n,
.LVL351:
@ src/common/iobuf.c:1918: 	      *buf = c;
	.loc 1 1918 13 view .LVU1174
	strbne	r0, [r4], #1	@ c, *buf_110
.LVL352:
	.loc 1 1919 8 is_stmt 1 view .LVU1175
	.loc 1 1907 31 view .LVU1176
	.loc 1 1907 19 view .LVU1177
@ src/common/iobuf.c:1907:       for (n = 0; n < buflen; n++)
	.loc 1 1907 7 is_stmt 0 view .LVU1178
	cmp	r8, r7	@ n, buflen
	beq	.L409		@,
.LVL353:
.L415:
	.loc 1 1909 4 is_stmt 1 view .LVU1179
@ src/common/iobuf.c:1909: 	  if ((c = iobuf_readbyte (a)) == -1)
	.loc 1 1909 13 is_stmt 0 view .LVU1180
	mov	r0, r6	@, a
	bl	iobuf_readbyte(PLT)	@
.LVL354:
	.loc 1 1916 4 is_stmt 1 view .LVU1181
	.loc 1 1918 8 view .LVU1182
@ src/common/iobuf.c:1909: 	  if ((c = iobuf_readbyte (a)) == -1)
	.loc 1 1909 7 is_stmt 0 view .LVU1183
	cmn	r0, #1	@ c,
	bne	.L413		@,
	.loc 1 1911 8 is_stmt 1 view .LVU1184
@ src/common/iobuf.c:1911: 	      if (!n)
	.loc 1 1911 11 is_stmt 0 view .LVU1185
	cmp	r8, #0	@ n,
	movne	r5, r8	@ <retval>, n
.LVL355:
	.loc 1 1911 11 view .LVU1186
	mvneq	r5, #0	@ <retval>,
@ src/common/iobuf.c:1961: }
	.loc 1 1961 1 view .LVU1187
	mov	r0, r5	@, <retval>
.LVL356:
	.loc 1 1961 1 view .LVU1188
	pop	{r4, r5, r6, r7, r8, pc}	@
.LVL357:
.L412:
	.loc 1 1926 3 is_stmt 1 view .LVU1189
	.loc 1 1928 7 view .LVU1190
@ src/common/iobuf.c:1928:       if (n < buflen && a->d.start < a->d.len)
	.loc 1 1928 10 is_stmt 0 view .LVU1191
	cmp	r5, r7	@ <retval>, buflen
	bcc	.L431		@,
.LVL358:
.L416:
	.loc 1 1959 3 is_stmt 1 view .LVU1192
@ src/common/iobuf.c:1959:   a->nbytes += n;
	.loc 1 1959 13 is_stmt 0 view .LVU1193
	ldr	r3, [r6, #8]	@ a_46(D)->nbytes, a_46(D)->nbytes
	add	r3, r3, r5	@ tmp160, a_46(D)->nbytes, <retval>
	str	r3, [r6, #8]	@ tmp160, a_46(D)->nbytes
	.loc 1 1960 3 is_stmt 1 view .LVU1194
.LVL359:
.L409:
@ src/common/iobuf.c:1961: }
	.loc 1 1961 1 is_stmt 0 view .LVU1195
	mov	r0, r5	@, <retval>
	pop	{r4, r5, r6, r7, r8, pc}	@
.LVL360:
.L434:
.LBB259:
	.loc 1 1935 6 is_stmt 1 view .LVU1196
	.loc 1 1936 4 view .LVU1197
	cmp	r8, r1	@ tmp154, size
	movcs	r8, r1	@ size, size
.LVL361:
	.loc 1 1934 4 view .LVU1198
@ src/common/iobuf.c:1934: 	  if (buf)
	.loc 1 1934 7 is_stmt 0 view .LVU1199
	cmp	r4, #0	@ buffer,
@ src/common/iobuf.c:1937: 	  a->d.start += size;
	.loc 1 1937 15 view .LVU1200
	add	r2, r3, r8	@ tmp163, _8, size
@ src/common/iobuf.c:1934: 	  if (buf)
	.loc 1 1934 7 view .LVU1201
	beq	.L418		@,
@ src/common/iobuf.c:1935: 	    memcpy (buf, a->d.buf + a->d.start, size);
	.loc 1 1935 28 view .LVU1202
	ldr	r1, [r6, #32]	@ a_46(D)->d.buf, a_46(D)->d.buf
@ src/common/iobuf.c:1935: 	    memcpy (buf, a->d.buf + a->d.start, size);
	.loc 1 1935 6 view .LVU1203
	mov	r0, r4	@, buffer
@ src/common/iobuf.c:1936: 	  n += size;
	.loc 1 1936 6 view .LVU1204
	add	r5, r5, r8	@ <retval>, <retval>, size
.LVL362:
@ src/common/iobuf.c:1935: 	    memcpy (buf, a->d.buf + a->d.start, size);
	.loc 1 1935 6 view .LVU1205
	mov	r2, r8	@, size
	add	r1, r1, r3	@, a_46(D)->d.buf, _8
@ src/common/iobuf.c:1939: 	    buf += size;
	.loc 1 1939 10 view .LVU1206
	add	r4, r4, r8	@ buffer, buffer, size
.LVL363:
@ src/common/iobuf.c:1935: 	    memcpy (buf, a->d.buf + a->d.start, size);
	.loc 1 1935 6 view .LVU1207
	bl	memcpy(PLT)	@
.LVL364:
	.loc 1 1936 4 is_stmt 1 view .LVU1208
	.loc 1 1937 4 view .LVU1209
@ src/common/iobuf.c:1937: 	  a->d.start += size;
	.loc 1 1937 15 is_stmt 0 view .LVU1210
	ldr	r3, [r6, #24]	@ a_46(D)->d.start, a_46(D)->d.start
.LBE259:
@ src/common/iobuf.c:1941:       if (n < buflen)
	.loc 1 1941 10 view .LVU1211
	cmp	r7, r5	@ buflen, <retval>
.LBB260:
@ src/common/iobuf.c:1937: 	  a->d.start += size;
	.loc 1 1937 15 view .LVU1212
	add	r3, r3, r8	@ tmp157, a_46(D)->d.start, size
	str	r3, [r6, #24]	@ tmp157, a_46(D)->d.start
	.loc 1 1938 4 is_stmt 1 view .LVU1213
	.loc 1 1939 6 view .LVU1214
.LVL365:
	.loc 1 1939 6 is_stmt 0 view .LVU1215
.LBE260:
	.loc 1 1941 7 is_stmt 1 view .LVU1216
@ src/common/iobuf.c:1941:       if (n < buflen)
	.loc 1 1941 10 is_stmt 0 view .LVU1217
	bls	.L416		@,
.LVL366:
.L421:
	.loc 1 1954 6 is_stmt 1 view .LVU1218
@ src/common/iobuf.c:1954: 	    *buf++ = c;
	.loc 1 1954 13 is_stmt 0 view .LVU1219
	mov	r3, #0	@ c,
	strb	r3, [r4], #1	@ c, *buf_105
.LVL367:
.L420:
	.loc 1 1955 4 is_stmt 1 view .LVU1220
@ src/common/iobuf.c:1955: 	  n++;
	.loc 1 1955 5 is_stmt 0 view .LVU1221
	add	r5, r5, #1	@ <retval>, <retval>,
.LVL368:
	.loc 1 1958 9 is_stmt 1 view .LVU1222
@ src/common/iobuf.c:1958:   while (n < buflen);
	.loc 1 1958 3 is_stmt 0 view .LVU1223
	cmp	r5, r7	@ <retval>, buflen
	bcs	.L416		@,
.L431:
.LBB261:
	.loc 1 1931 4 is_stmt 1 discriminator 1 view .LVU1224
	.loc 1 1931 4 is_stmt 0 discriminator 1 view .LVU1225
.LBE261:
	.loc 1 1941 7 is_stmt 1 discriminator 1 view .LVU1226
	.loc 1 1953 4 discriminator 1 view .LVU1227
@ src/common/iobuf.c:1928:       if (n < buflen && a->d.start < a->d.len)
	.loc 1 1928 29 is_stmt 0 discriminator 1 view .LVU1228
	ldr	r3, [r6, #24]	@ _8, a_46(D)->d.start
@ src/common/iobuf.c:1928:       if (n < buflen && a->d.start < a->d.len)
	.loc 1 1928 42 discriminator 1 view .LVU1229
	ldr	r2, [r6, #28]	@ _9, a_46(D)->d.len
.LBB262:
@ src/common/iobuf.c:1932: 	  if (size > buflen - n)
	.loc 1 1932 22 discriminator 1 view .LVU1230
	sub	r8, r7, r5	@ tmp154, buflen, <retval>
.LBE262:
@ src/common/iobuf.c:1928:       if (n < buflen && a->d.start < a->d.len)
	.loc 1 1928 22 discriminator 1 view .LVU1231
	cmp	r3, r2	@ _8, _9
.LBB263:
@ src/common/iobuf.c:1931: 	  unsigned size = a->d.len - a->d.start;
	.loc 1 1931 13 discriminator 1 view .LVU1232
	sub	r1, r2, r3	@ size, _9, _8
.LVL369:
	.loc 1 1932 4 is_stmt 1 discriminator 1 view .LVU1233
.LBE263:
@ src/common/iobuf.c:1928:       if (n < buflen && a->d.start < a->d.len)
	.loc 1 1928 22 is_stmt 0 discriminator 1 view .LVU1234
	bcc	.L434		@,
@ src/common/iobuf.c:1953: 	  if (buf)
	.loc 1 1953 7 view .LVU1235
	cmp	r4, #0	@ buffer,
	bne	.L421		@,
	b	.L420		@
.LVL370:
.L418:
.LBB264:
@ src/common/iobuf.c:1936: 	  n += size;
	.loc 1 1936 6 view .LVU1236
	add	r5, r5, r8	@ <retval>, <retval>, size
.LVL371:
	.loc 1 1937 4 is_stmt 1 view .LVU1237
	.loc 1 1938 4 view .LVU1238
	.loc 1 1938 4 is_stmt 0 view .LVU1239
.LBE264:
	.loc 1 1941 7 is_stmt 1 view .LVU1240
@ src/common/iobuf.c:1941:       if (n < buflen)
	.loc 1 1941 10 is_stmt 0 view .LVU1241
	cmp	r7, r5	@ buflen, <retval>
.LBB265:
@ src/common/iobuf.c:1937: 	  a->d.start += size;
	.loc 1 1937 15 view .LVU1242
	str	r2, [r6, #24]	@ tmp163, a_46(D)->d.start
.LBE265:
@ src/common/iobuf.c:1941:       if (n < buflen)
	.loc 1 1941 10 view .LVU1243
	bhi	.L420		@,
	b	.L416		@
.LVL372:
.L433:
	.loc 1 1900 7 is_stmt 1 view .LVU1244
	ldr	r0, .L435+4	@,
@ src/common/iobuf.c:1901:       return -1;
	.loc 1 1901 14 is_stmt 0 view .LVU1245
	mvn	r5, #0	@ <retval>,
@ src/common/iobuf.c:1900:       printf ("iobuf_read called on a non-INPUT pipeline!\n");
	.loc 1 1900 7 view .LVU1246
.LPIC68:
	add	r0, pc, r0	@,
	bl	tfp_printf(PLT)	@
.LVL373:
	.loc 1 1901 7 is_stmt 1 view .LVU1247
@ src/common/iobuf.c:1901:       return -1;
	.loc 1 1901 14 is_stmt 0 view .LVU1248
	b	.L409		@
.L436:
	.align	2
.L435:
	.word	.LC45-(.LPIC67+8)
	.word	.LC46-(.LPIC68+8)
	.cfi_endproc
.LFE65:
	.size	iobuf_read, .-iobuf_read
	.section	.text.iobuf_peek,"ax",%progbits
	.align	2
	.global	iobuf_peek
	.syntax unified
	.arm
	.fpu softvfp
	.type	iobuf_peek, %function
iobuf_peek:
.LVL374:
.LFB66:
	.loc 1 1967 1 is_stmt 1 view -0
	.cfi_startproc
	@ args = 0, pretend = 0, frame = 0
	@ frame_needed = 0, uses_anonymous_args = 0
	.loc 1 1968 3 view .LVU1250
	.loc 1 1973 3 view .LVU1251
	ldr	ip, [r0, #20]	@ a_16(D)->d.size, a_16(D)->d.size
@ src/common/iobuf.c:1967: {
	.loc 1 1967 1 is_stmt 0 view .LVU1252
	mov	r3, r0	@ a, tmp130
	push	{r4, lr}	@
	.cfi_def_cfa_offset 8
	.cfi_offset 4, -8
	.cfi_offset 14, -4
@ src/common/iobuf.c:1967: {
	.loc 1 1967 1 view .LVU1253
	mov	r0, r1	@ buf, tmp131
.LVL375:
	.loc 1 1967 1 view .LVU1254
	cmp	r2, ip	@ tmp132, a_16(D)->d.size
@ src/common/iobuf.c:1979:   while (buflen > a->d.len - a->d.start)
	.loc 1 1979 23 view .LVU1255
	ldr	r4, [r3, #28]	@ _9, a_16(D)->d.len
	movcs	r2, ip	@ buflen, a_16(D)->d.size
.LVL376:
	.loc 1 1979 9 is_stmt 1 view .LVU1256
@ src/common/iobuf.c:1979:   while (buflen > a->d.len - a->d.start)
	.loc 1 1979 34 is_stmt 0 view .LVU1257
	ldr	ip, [r3, #24]	@ _22, a_16(D)->d.start
@ src/common/iobuf.c:1979:   while (buflen > a->d.len - a->d.start)
	.loc 1 1979 28 view .LVU1258
	sub	r1, r4, ip	@ _24, _9, _22
.LVL377:
@ src/common/iobuf.c:1979:   while (buflen > a->d.len - a->d.start)
	.loc 1 1979 9 view .LVU1259
	cmp	r2, r1	@ buflen, _24
	bls	.L441		@,
.L439:
	.loc 1 1988 7 is_stmt 1 view .LVU1260
	.loc 1 1979 9 view .LVU1261
	cmp	r2, r4	@ buflen, _9
	bhi	.L439		@,
	mov	ip, #0	@ tmp126,
	str	ip, [r3, #24]	@ tmp126, a_16(D)->d.start
.L438:
	.loc 1 1991 3 view .LVU1262
.LVL378:
	.loc 1 1992 3 view .LVU1263
	cmp	r2, r4	@ buflen, _9
	movcc	r4, r2	@ <retval>, buflen
.LVL379:
	.loc 1 1995 3 view .LVU1264
@ src/common/iobuf.c:1995:   if (n == 0)
	.loc 1 1995 6 is_stmt 0 view .LVU1265
	cmp	r4, #0	@ <retval>,
	beq	.L442		@,
	.loc 1 1999 3 is_stmt 1 view .LVU1266
@ src/common/iobuf.c:1999:   memcpy (buf, &a->d.buf[a->d.start], n);
	.loc 1 1999 16 is_stmt 0 view .LVU1267
	ldr	r1, [r3, #32]	@ a_16(D)->d.buf, a_16(D)->d.buf
@ src/common/iobuf.c:1999:   memcpy (buf, &a->d.buf[a->d.start], n);
	.loc 1 1999 3 view .LVU1268
	mov	r2, r4	@, <retval>
.LVL380:
	.loc 1 1999 3 view .LVU1269
	add	r1, r1, ip	@, a_16(D)->d.buf, _22
	bl	memcpy(PLT)	@
.LVL381:
	.loc 1 2001 3 is_stmt 1 view .LVU1270
.L437:
@ src/common/iobuf.c:2002: }
	.loc 1 2002 1 is_stmt 0 view .LVU1271
	mov	r0, r4	@, <retval>
	pop	{r4, pc}	@
.LVL382:
.L441:
@ src/common/iobuf.c:1979:   while (buflen > a->d.len - a->d.start)
	.loc 1 1979 9 view .LVU1272
	mov	r4, r1	@ _9, _24
	b	.L438		@
.LVL383:
.L442:
@ src/common/iobuf.c:1997:     return -1;
	.loc 1 1997 12 view .LVU1273
	mvn	r4, #0	@ <retval>,
.LVL384:
	.loc 1 1997 12 view .LVU1274
	b	.L437		@
	.cfi_endproc
.LFE66:
	.size	iobuf_peek, .-iobuf_peek
	.section	.rodata.iobuf_writebyte.str1.4,"aMS",%progbits,1
	.align	2
.LC47:
	.ascii	"iobuf_writebyte %02X\000"
	.align	2
.LC48:
	.ascii	"iobuf_writebyte called on an input pipeline!\012\000"
	.align	2
.LC49:
	.ascii	"filter_flush\012\000"
	.section	.text.iobuf_writebyte,"ax",%progbits
	.align	2
	.global	iobuf_writebyte
	.syntax unified
	.arm
	.fpu softvfp
	.type	iobuf_writebyte, %function
iobuf_writebyte:
.LVL385:
.LFB67:
	.loc 1 2064 1 is_stmt 1 view -0
	.cfi_startproc
	@ args = 0, pretend = 0, frame = 0
	@ frame_needed = 0, uses_anonymous_args = 0
	.loc 1 2065 3 view .LVU1276
@ src/common/iobuf.c:2064: {
	.loc 1 2064 1 is_stmt 0 view .LVU1277
	push	{r4, r5, r6, lr}	@
	.cfi_def_cfa_offset 16
	.cfi_offset 4, -16
	.cfi_offset 5, -12
	.cfi_offset 6, -8
	.cfi_offset 14, -4
@ src/common/iobuf.c:2064: {
	.loc 1 2064 1 view .LVU1278
	mov	r4, r0	@ tmp140, a
@ src/common/iobuf.c:2065:   printf("iobuf_writebyte %02X",c);
	.loc 1 2065 3 view .LVU1279
	ldr	r0, .L453	@,
.LVL386:
@ src/common/iobuf.c:2064: {
	.loc 1 2064 1 view .LVU1280
	mov	r6, r1	@ c, tmp141
@ src/common/iobuf.c:2065:   printf("iobuf_writebyte %02X",c);
	.loc 1 2065 3 view .LVU1281
.LPIC69:
	add	r0, pc, r0	@,
	bl	tfp_printf(PLT)	@
.LVL387:
	.loc 1 2066 3 is_stmt 1 view .LVU1282
	.loc 1 2068 3 view .LVU1283
@ src/common/iobuf.c:2068:   if (a->use == IOBUF_INPUT || a->use == IOBUF_INPUT_TEMP)
	.loc 1 2068 6 is_stmt 0 view .LVU1284
	ldrb	r3, [r4]	@ zero_extendqisi2	@ a_18(D)->use, a_18(D)->use
	cmp	r3, #1	@ a_18(D)->use,
	bls	.L451		@,
	.loc 1 2074 3 is_stmt 1 view .LVU1285
@ src/common/iobuf.c:2074:   if (a->d.len == a->d.size)
	.loc 1 2074 11 is_stmt 0 view .LVU1286
	ldr	r0, [r4, #28]	@ _2, a_18(D)->d.len
@ src/common/iobuf.c:2074:   if (a->d.len == a->d.size)
	.loc 1 2074 23 view .LVU1287
	ldr	r3, [r4, #20]	@ _3, a_18(D)->d.size
@ src/common/iobuf.c:2074:   if (a->d.len == a->d.size)
	.loc 1 2074 6 view .LVU1288
	cmp	r0, r3	@ _2, _3
	beq	.L452		@,
.L448:
	.loc 1 2079 3 is_stmt 1 view .LVU1289
	cmp	r0, r3	@ _2, _3
@ src/common/iobuf.c:2084:   return 0;
	.loc 1 2084 10 is_stmt 0 view .LVU1290
	mov	r5, #0	@ <retval>,
@ src/common/iobuf.c:2079:   printf (a->d.len < a->d.size);
	.loc 1 2079 3 view .LVU1291
	movcs	r0, #0	@,
	movcc	r0, #1	@,
	bl	tfp_printf(PLT)	@
.LVL388:
	.loc 1 2080 3 is_stmt 1 view .LVU1292
@ src/common/iobuf.c:2080:   a->d.buf[a->d.len++] = c;
	.loc 1 2080 16 is_stmt 0 view .LVU1293
	ldr	r3, [r4, #28]	@ _7, a_18(D)->d.len
@ src/common/iobuf.c:2080:   a->d.buf[a->d.len++] = c;
	.loc 1 2080 7 view .LVU1294
	ldr	r2, [r4, #32]	@ _6, a_18(D)->d.buf
@ src/common/iobuf.c:2080:   a->d.buf[a->d.len++] = c;
	.loc 1 2080 20 view .LVU1295
	add	r1, r3, #1	@ tmp137, _7,
	str	r1, [r4, #28]	@ tmp137, a_18(D)->d.len
@ src/common/iobuf.c:2080:   a->d.buf[a->d.len++] = c;
	.loc 1 2080 24 view .LVU1296
	strb	r6, [r2, r3]	@ c, *_9
	.loc 1 2084 3 is_stmt 1 view .LVU1297
.L445:
@ src/common/iobuf.c:2085: }
	.loc 1 2085 1 is_stmt 0 view .LVU1298
	mov	r0, r5	@, <retval>
	pop	{r4, r5, r6, pc}	@
.L452:
	.loc 1 2075 5 is_stmt 1 view .LVU1299
@ src/common/iobuf.c:2075:     if ((rc=filter_flush (a))){
	.loc 1 2075 13 is_stmt 0 view .LVU1300
	mov	r0, r4	@, a
	bl	filter_flush(PLT)	@
.LVL389:
@ src/common/iobuf.c:2075:     if ((rc=filter_flush (a))){
	.loc 1 2075 8 view .LVU1301
	subs	r5, r0, #0	@ <retval>, tmp142
@ src/common/iobuf.c:2079:   printf (a->d.len < a->d.size);
	.loc 1 2079 15 view .LVU1302
	ldreq	r0, [r4, #28]	@ _2, a_18(D)->d.len
.LVL390:
@ src/common/iobuf.c:2079:   printf (a->d.len < a->d.size);
	.loc 1 2079 26 view .LVU1303
	ldreq	r3, [r4, #20]	@ _3, a_18(D)->d.size
	beq	.L448		@
.LVL391:
.L449:
	.loc 1 2076 7 is_stmt 1 view .LVU1304
	ldr	r0, .L453+4	@,
.LVL392:
	.loc 1 2076 7 is_stmt 0 view .LVU1305
.LPIC71:
	add	r0, pc, r0	@,
	bl	tfp_printf(PLT)	@
.LVL393:
	.loc 1 2077 7 is_stmt 1 view .LVU1306
@ src/common/iobuf.c:2077:       return rc;
	.loc 1 2077 14 is_stmt 0 view .LVU1307
	b	.L445		@
.LVL394:
.L451:
	.loc 1 2070 7 is_stmt 1 view .LVU1308
	ldr	r0, .L453+8	@,
@ src/common/iobuf.c:2071:       return -1;
	.loc 1 2071 14 is_stmt 0 view .LVU1309
	mvn	r5, #0	@ <retval>,
@ src/common/iobuf.c:2070:       printf ("iobuf_writebyte called on an input pipeline!\n");
	.loc 1 2070 7 view .LVU1310
.LPIC70:
	add	r0, pc, r0	@,
	bl	tfp_printf(PLT)	@
.LVL395:
	.loc 1 2071 7 is_stmt 1 view .LVU1311
@ src/common/iobuf.c:2071:       return -1;
	.loc 1 2071 14 is_stmt 0 view .LVU1312
	b	.L445		@
.L454:
	.align	2
.L453:
	.word	.LC47-(.LPIC69+8)
	.word	.LC49-(.LPIC71+8)
	.word	.LC48-(.LPIC70+8)
	.cfi_endproc
.LFE67:
	.size	iobuf_writebyte, .-iobuf_writebyte
	.section	.rodata.iobuf_write.str1.4,"aMS",%progbits,1
	.align	2
.LC50:
	.ascii	"iobuf_write %d\000"
	.align	2
.LC51:
	.ascii	"iobuf_write called on an input pipeline!\012\000"
	.align	2
.LC52:
	.ascii	"iobuf_WROTE: %d bytes\012\000"
	.section	.text.iobuf_write,"ax",%progbits
	.align	2
	.global	iobuf_write
	.syntax unified
	.arm
	.fpu softvfp
	.type	iobuf_write, %function
iobuf_write:
.LVL396:
.LFB68:
	.loc 1 2091 1 is_stmt 1 view -0
	.cfi_startproc
	@ args = 0, pretend = 0, frame = 0
	@ frame_needed = 0, uses_anonymous_args = 0
	.loc 1 2092 3 view .LVU1314
@ src/common/iobuf.c:2091: {
	.loc 1 2091 1 is_stmt 0 view .LVU1315
	push	{r4, r5, r6, r7, r8, lr}	@
	.cfi_def_cfa_offset 24
	.cfi_offset 4, -24
	.cfi_offset 5, -20
	.cfi_offset 6, -16
	.cfi_offset 7, -12
	.cfi_offset 8, -8
	.cfi_offset 14, -4
@ src/common/iobuf.c:2091: {
	.loc 1 2091 1 view .LVU1316
	mov	r6, r0	@ tmp141, a
@ src/common/iobuf.c:2092:   printf("iobuf_write %d",buflen);
	.loc 1 2092 3 view .LVU1317
	ldr	r0, .L472	@,
.LVL397:
@ src/common/iobuf.c:2091: {
	.loc 1 2091 1 view .LVU1318
	mov	r7, r1	@ tmp142, buffer
@ src/common/iobuf.c:2092:   printf("iobuf_write %d",buflen);
	.loc 1 2092 3 view .LVU1319
	mov	r1, r2	@, buflen
.LVL398:
@ src/common/iobuf.c:2091: {
	.loc 1 2091 1 view .LVU1320
	mov	r5, r2	@ buflen, tmp143
@ src/common/iobuf.c:2092:   printf("iobuf_write %d",buflen);
	.loc 1 2092 3 view .LVU1321
.LPIC72:
	add	r0, pc, r0	@,
	bl	tfp_printf(PLT)	@
.LVL399:
	.loc 1 2093 3 is_stmt 1 view .LVU1322
	.loc 1 2094 3 view .LVU1323
	.loc 1 2096 3 view .LVU1324
@ src/common/iobuf.c:2096:   if (a->use == IOBUF_INPUT || a->use == IOBUF_INPUT_TEMP)
	.loc 1 2096 6 is_stmt 0 view .LVU1325
	ldrb	r3, [r6]	@ zero_extendqisi2	@ a_12(D)->use, a_12(D)->use
	cmp	r3, #1	@ a_12(D)->use,
	bls	.L467		@,
.LBB269:
.LBB270:
.LBB271:
@ src/common/iobuf.c:2111:   printf("iobuf_WROTE: %d bytes\n", size);
	.loc 1 2111 3 view .LVU1326
	ldr	r8, .L472+4	@ tmp140,
.LBE271:
@ src/common/iobuf.c:2104:       if (buflen && a->d.len < a->d.size)
	.loc 1 2104 10 view .LVU1327
	cmp	r5, #0	@ buflen,
.LBB272:
@ src/common/iobuf.c:2111:   printf("iobuf_WROTE: %d bytes\n", size);
	.loc 1 2111 3 view .LVU1328
.LPIC74:
	add	r8, pc, r8	@ tmp140, tmp140
.LVL400:
	.loc 1 2111 3 view .LVU1329
.LBE272:
	.loc 1 2102 3 is_stmt 1 view .LVU1330
	.loc 1 2104 7 view .LVU1331
@ src/common/iobuf.c:2104:       if (buflen && a->d.len < a->d.size)
	.loc 1 2104 10 is_stmt 0 view .LVU1332
	beq	.L458		@,
.LVL401:
.L471:
@ src/common/iobuf.c:2104:       if (buflen && a->d.len < a->d.size)
	.loc 1 2104 25 view .LVU1333
	ldr	r2, [r6, #28]	@ _16, a_12(D)->d.len
@ src/common/iobuf.c:2104:       if (buflen && a->d.len < a->d.size)
	.loc 1 2104 36 view .LVU1334
	ldr	r3, [r6, #20]	@ _17, a_12(D)->d.size
@ src/common/iobuf.c:2104:       if (buflen && a->d.len < a->d.size)
	.loc 1 2104 18 view .LVU1335
	cmp	r2, r3	@ _16, _17
	bcc	.L470		@,
.LVL402:
.L459:
	.loc 1 2118 4 is_stmt 1 view .LVU1336
@ src/common/iobuf.c:2118: 	  rc = filter_flush (a);
	.loc 1 2118 9 is_stmt 0 view .LVU1337
	mov	r0, r6	@, a
	bl	filter_flush(PLT)	@
.LVL403:
	.loc 1 2119 11 is_stmt 1 view .LVU1338
@ src/common/iobuf.c:2119:           if (rc)
	.loc 1 2119 14 is_stmt 0 view .LVU1339
	cmp	r0, #0	@ <retval>
	.loc 1 2119 14 view .LVU1340
	popne	{r4, r5, r6, r7, r8, pc}	@
	.loc 1 2102 3 is_stmt 1 view .LVU1341
	.loc 1 2104 7 view .LVU1342
@ src/common/iobuf.c:2104:       if (buflen && a->d.len < a->d.size)
	.loc 1 2104 10 is_stmt 0 view .LVU1343
	cmp	r5, #0	@ buflen,
	bne	.L471		@,
.LVL404:
.L458:
@ src/common/iobuf.c:2125:   return 0;
	.loc 1 2125 10 view .LVU1344
	mov	r0, #0	@ <retval>,
.LBE270:
.LBE269:
@ src/common/iobuf.c:2126: }
	.loc 1 2126 1 view .LVU1345
	pop	{r4, r5, r6, r7, r8, pc}	@
.LVL405:
.L470:
.LBB277:
.LBB276:
.LBB273:
	.loc 1 2106 4 is_stmt 1 view .LVU1346
@ src/common/iobuf.c:2106: 	  unsigned size = a->d.size - a->d.len;
	.loc 1 2106 13 is_stmt 0 view .LVU1347
	sub	r3, r3, r2	@ size, _17, _16
.LVL406:
	.loc 1 2107 4 is_stmt 1 view .LVU1348
@ src/common/iobuf.c:2109: 	  memcpy (a->d.buf + a->d.len, buf, size);
	.loc 1 2109 4 is_stmt 0 view .LVU1349
	mov	r1, r7	@, buffer
	cmp	r5, r3	@ buflen, size
@ src/common/iobuf.c:2109: 	  memcpy (a->d.buf + a->d.len, buf, size);
	.loc 1 2109 21 view .LVU1350
	ldr	r0, [r6, #32]	@ a_12(D)->d.buf, a_12(D)->d.buf
	movcs	r4, r3	@ size, size
	movcc	r4, r5	@ size, buflen
.LVL407:
	.loc 1 2109 4 is_stmt 1 view .LVU1351
	add	r0, r0, r2	@, a_12(D)->d.buf, _16
	mov	r2, r4	@, size
	bl	memcpy(PLT)	@
.LVL408:
	.loc 1 2111 3 view .LVU1352
	mov	r1, r4	@, size
	mov	r0, r8	@, tmp140
	bl	tfp_printf(PLT)	@
.LVL409:
	.loc 1 2112 4 view .LVU1353
	.loc 1 2113 4 view .LVU1354
	.loc 1 2114 4 view .LVU1355
@ src/common/iobuf.c:2114: 	  a->d.len += size;
	.loc 1 2114 13 is_stmt 0 view .LVU1356
	ldr	r3, [r6, #28]	@ a_12(D)->d.len, a_12(D)->d.len
.LBE273:
@ src/common/iobuf.c:2116:       if (buflen)
	.loc 1 2116 10 view .LVU1357
	subs	r5, r5, r4	@ buflen, buflen, size
.LVL410:
.LBB274:
@ src/common/iobuf.c:2114: 	  a->d.len += size;
	.loc 1 2114 13 view .LVU1358
	add	r3, r3, r4	@ tmp137, a_12(D)->d.len, size
	str	r3, [r6, #28]	@ tmp137, a_12(D)->d.len
	.loc 1 2114 13 view .LVU1359
.LBE274:
	.loc 1 2116 7 is_stmt 1 view .LVU1360
@ src/common/iobuf.c:2116:       if (buflen)
	.loc 1 2116 10 is_stmt 0 view .LVU1361
	beq	.L458		@,
.LBB275:
@ src/common/iobuf.c:2113: 	  buf += size;
	.loc 1 2113 8 view .LVU1362
	add	r7, r7, r4	@ buffer, buffer, size
.LVL411:
	.loc 1 2113 8 view .LVU1363
	b	.L459		@
.LVL412:
.L467:
	.loc 1 2113 8 view .LVU1364
.LBE275:
.LBE276:
.LBE277:
	.loc 1 2098 7 is_stmt 1 view .LVU1365
	ldr	r0, .L472+8	@,
.LPIC73:
	add	r0, pc, r0	@,
	bl	tfp_printf(PLT)	@
.LVL413:
	.loc 1 2099 7 view .LVU1366
@ src/common/iobuf.c:2099:       return -1;
	.loc 1 2099 14 is_stmt 0 view .LVU1367
	mvn	r0, #0	@ <retval>,
	pop	{r4, r5, r6, r7, r8, pc}	@
.L473:
	.align	2
.L472:
	.word	.LC50-(.LPIC72+8)
	.word	.LC52-(.LPIC74+8)
	.word	.LC51-(.LPIC73+8)
	.cfi_endproc
.LFE68:
	.size	iobuf_write, .-iobuf_write
	.section	.rodata.block_filter.str1.4,"aMS",%progbits,1
	.align	2
.LC53:
	.ascii	"block_filter %s\012\000"
	.align	2
.LC54:
	.ascii	"IOBUFCTRL_UNDERFLOW %d\012\000"
	.align	2
.LC55:
	.ascii	"These OpenPGP introduced huffman like encoded lengt"
	.ascii	"h bytes are really a mess :-(\012\000"
	.align	2
.LC56:
	.ascii	"block_filter: 1st length byte missing\012\000"
	.align	2
.LC57:
	.ascii	"block_filter: 2nd length byte missing\012\000"
	.align	2
.LC58:
	.ascii	"block_filter: invalid 4 byte length\012\000"
	.align	2
.LC59:
	.ascii	"block_filter %p: read error (size=%lu,a->size=%lu)\012"
	.ascii	"\000"
	.align	2
.LC60:
	.ascii	"IOBUFCTRL_FLUSH %d\012\000"
	.align	2
.LC61:
	.ascii	"store the rest in the buffer\000"
	.align	2
.LC62:
	.ascii	"1 byte <192 partial: remaining length=%u\012\000"
	.align	2
.LC63:
	.ascii	"2 byte header partial: remaining length=%u\012\000"
	.align	2
.LC64:
	.ascii	"4 byte header partial: remaining length=%u\012\000"
	.align	2
.LC65:
	.ascii	"1 byte header partial: remaining length=%u\012\000"
	.align	2
.LC66:
	.ascii	"block_filter: pending bytes!\012\000"
	.section	.text.block_filter,"ax",%progbits
	.align	2
	.syntax unified
	.arm
	.fpu softvfp
	.type	block_filter, %function
block_filter:
.LVL414:
.LFB41:
	.loc 1 641 1 is_stmt 1 view -0
	.cfi_startproc
	@ args = 4, pretend = 0, frame = 0
	@ frame_needed = 0, uses_anonymous_args = 0
	.loc 1 641 1 is_stmt 0 view .LVU1369
	ldr	ip, .L587	@ tmp294,
	push	{r3, r4, r5, r6, r7, r8, r9, r10, fp, lr}	@
	.cfi_def_cfa_offset 40
	.cfi_offset 3, -40
	.cfi_offset 4, -36
	.cfi_offset 5, -32
	.cfi_offset 6, -28
	.cfi_offset 7, -24
	.cfi_offset 8, -20
	.cfi_offset 9, -16
	.cfi_offset 10, -12
	.cfi_offset 11, -8
	.cfi_offset 14, -4
@ src/common/iobuf.c:641: {
	.loc 1 641 1 view .LVU1370
	mov	r6, r1	@ control, tmp459
.LPIC75:
	add	ip, pc, ip	@ tmp294, tmp294
	mov	r5, r0	@ tmp458, opaque
@ src/common/iobuf.c:642: printf("block_filter %s\n", control_mode_str[control]);
	.loc 1 642 1 view .LVU1371
	ldr	lr, .L587+4	@ tmp482,
	mov	r1, ip	@ tmp294, tmp294
.LVL415:
@ src/common/iobuf.c:641: {
	.loc 1 641 1 view .LVU1372
	ldr	r8, [sp, #40]	@ ret_len, ret_len
	mov	r7, r2	@ chain, tmp460
@ src/common/iobuf.c:642: printf("block_filter %s\n", control_mode_str[control]);
	.loc 1 642 1 view .LVU1373
	ldr	r0, [ip, lr]	@ tmp293,
.LVL416:
@ src/common/iobuf.c:641: {
	.loc 1 641 1 view .LVU1374
	mov	r10, r3	@ buffer, tmp461
@ src/common/iobuf.c:642: printf("block_filter %s\n", control_mode_str[control]);
	.loc 1 642 1 view .LVU1375
	ldr	r1, [r0, r6, lsl #2]	@, control_mode_str[control_221(D)]
	.loc 1 642 1 is_stmt 1 view .LVU1376
	ldr	r0, .L587+8	@,
.LPIC76:
	add	r0, pc, r0	@,
	bl	tfp_printf(PLT)	@
.LVL417:
	.loc 1 643 3 view .LVU1377
	.loc 1 644 3 view .LVU1378
	.loc 1 645 3 view .LVU1379
@ src/common/iobuf.c:645:   size_t size = *ret_len;
	.loc 1 645 10 is_stmt 0 view .LVU1380
	ldr	r4, [r8]	@ size, *ret_len_227(D)
.LVL418:
	.loc 1 646 3 is_stmt 1 view .LVU1381
	.loc 1 647 3 view .LVU1382
	.loc 1 649 3 view .LVU1383
@ src/common/iobuf.c:649:   if (control == IOBUFCTRL_UNDERFLOW)
	.loc 1 649 6 is_stmt 0 view .LVU1384
	cmp	r6, #3	@ control,
	beq	.L572		@,
	.loc 1 772 8 is_stmt 1 view .LVU1385
@ src/common/iobuf.c:772:   else if (control == IOBUFCTRL_FLUSH)
	.loc 1 772 11 is_stmt 0 view .LVU1386
	cmp	r6, #4	@ control,
	beq	.L573		@,
	.loc 1 840 8 is_stmt 1 view .LVU1387
@ src/common/iobuf.c:840:   else if (control == IOBUFCTRL_INIT)
	.loc 1 840 11 is_stmt 0 view .LVU1388
	cmp	r6, #1	@ control,
	beq	.L574		@,
	.loc 1 856 8 is_stmt 1 view .LVU1389
	.loc 1 861 8 view .LVU1390
@ src/common/iobuf.c:861:   else if (control == IOBUFCTRL_FREE)
	.loc 1 861 11 is_stmt 0 view .LVU1391
	cmp	r6, #2	@ control,
	beq	.L575		@,
.L527:
@ src/common/iobuf.c:646:   int c, needed, rc = 0;
	.loc 1 646 18 view .LVU1392
	mov	r9, #0	@ <retval>,
.LVL419:
.L474:
@ src/common/iobuf.c:930: }
	.loc 1 930 1 view .LVU1393
	mov	r0, r9	@, <retval>
	pop	{r3, r4, r5, r6, r7, r8, r9, r10, fp, pc}	@
.LVL420:
.L574:
	.loc 1 846 7 is_stmt 1 view .LVU1394
@ src/common/iobuf.c:846:       if (a->partial)
	.loc 1 846 10 is_stmt 0 view .LVU1395
	ldr	r3, [r5, #12]	@ MEM[(struct block_filter_ctx_t *)opaque_223(D)].partial, MEM[(struct block_filter_ctx_t *)opaque_223(D)].partial
	cmp	r3, #0	@ MEM[(struct block_filter_ctx_t *)opaque_223(D)].partial,
@ src/common/iobuf.c:847: 	a->count = 0;
	.loc 1 847 11 view .LVU1396
	movne	r3, #0	@ tmp409,
	strne	r3, [r5, #8]	@ tmp409, MEM[(struct block_filter_ctx_t *)opaque_223(D)].count
@ src/common/iobuf.c:846:       if (a->partial)
	.loc 1 846 10 view .LVU1397
	bne	.L525		@,
	.loc 1 848 12 is_stmt 1 view .LVU1398
@ src/common/iobuf.c:848:       else if (a->use == IOBUF_INPUT)
	.loc 1 848 15 is_stmt 0 view .LVU1399
	ldr	r3, [r5]	@ MEM[(struct block_filter_ctx_t *)opaque_223(D)].use, MEM[(struct block_filter_ctx_t *)opaque_223(D)].use
	cmp	r3, #0	@ MEM[(struct block_filter_ctx_t *)opaque_223(D)].use,
	.loc 1 849 2 is_stmt 1 view .LVU1400
@ src/common/iobuf.c:849: 	a->count = a->size = 0;
	.loc 1 849 21 is_stmt 0 view .LVU1401
	streq	r3, [r5, #4]	@ MEM[(struct block_filter_ctx_t *)opaque_223(D)].use, MEM[(struct block_filter_ctx_t *)opaque_223(D)].size
	.loc 1 851 2 is_stmt 1 view .LVU1402
@ src/common/iobuf.c:851: 	a->count = a->size;	/* force first length bytes */
	.loc 1 851 11 is_stmt 0 view .LVU1403
	ldrne	r3, [r5, #4]	@ MEM[(struct block_filter_ctx_t *)opaque_223(D)].size, MEM[(struct block_filter_ctx_t *)opaque_223(D)].size
	str	r3, [r5, #8]	@ MEM[(struct block_filter_ctx_t *)opaque_223(D)].size, MEM[(struct block_filter_ctx_t *)opaque_223(D)].count
.L525:
	.loc 1 852 7 is_stmt 1 view .LVU1404
@ src/common/iobuf.c:852:       a->eof = 0;
	.loc 1 852 14 is_stmt 0 view .LVU1405
	mov	r3, #0	@ tmp414,
	str	r3, [r5, #28]	@ tmp414, MEM[(struct block_filter_ctx_t *)opaque_223(D)].eof
	.loc 1 853 7 is_stmt 1 view .LVU1406
@ src/common/iobuf.c:646:   int c, needed, rc = 0;
	.loc 1 646 18 is_stmt 0 view .LVU1407
	mov	r9, r3	@ <retval>, tmp414
@ src/common/iobuf.c:853:       a->buffer = NULL;
	.loc 1 853 17 view .LVU1408
	str	r3, [r5, #16]	@ tmp414, MEM[(struct block_filter_ctx_t *)opaque_223(D)].buffer
	.loc 1 854 7 is_stmt 1 view .LVU1409
@ src/common/iobuf.c:930: }
	.loc 1 930 1 is_stmt 0 view .LVU1410
	mov	r0, r9	@, <retval>
@ src/common/iobuf.c:854:       a->buflen = 0;
	.loc 1 854 17 view .LVU1411
	str	r3, [r5, #20]	@ tmp414, MEM[(struct block_filter_ctx_t *)opaque_223(D)].buflen
@ src/common/iobuf.c:930: }
	.loc 1 930 1 view .LVU1412
	pop	{r3, r4, r5, r6, r7, r8, r9, r10, fp, pc}	@
.L572:
.LBB278:
	.loc 1 651 7 is_stmt 1 view .LVU1413
	ldr	r0, .L587+12	@,
	mov	r1, r4	@, size
.LPIC77:
	add	r0, pc, r0	@,
	bl	tfp_printf(PLT)	@
.LVL421:
	.loc 1 652 7 view .LVU1414
	.loc 1 654 7 view .LVU1415
	.loc 1 655 7 view .LVU1416
	mov	r0, r4	@, size
	bl	tfp_printf(PLT)	@
.LVL422:
	.loc 1 656 7 view .LVU1417
@ src/common/iobuf.c:656:       if (a->eof)		/* don't read any further */
	.loc 1 656 12 is_stmt 0 view .LVU1418
	ldr	r9, [r5, #28]	@ <retval>, MEM[(struct block_filter_ctx_t *)opaque_223(D)].eof
@ src/common/iobuf.c:656:       if (a->eof)		/* don't read any further */
	.loc 1 656 10 view .LVU1419
	cmp	r9, #0	@ <retval>,
	movne	r6, #0	@ n,
.LVL423:
@ src/common/iobuf.c:657: 	rc = -1;
	.loc 1 657 5 view .LVU1420
	mvnne	r9, #0	@ <retval>,
@ src/common/iobuf.c:656:       if (a->eof)		/* don't read any further */
	.loc 1 656 10 view .LVU1421
	bne	.L476		@,
	.loc 1 658 13 is_stmt 1 view .LVU1422
	cmp	r4, #0	@ size,
	beq	.L536		@,
@ src/common/iobuf.c:660: 	  if (!a->size)
	.loc 1 660 10 is_stmt 0 view .LVU1423
	ldr	r3, [r5, #4]	@ _110, MEM[(struct block_filter_ctx_t *)opaque_223(D)].size
@ src/common/iobuf.c:660: 	  if (!a->size)
	.loc 1 660 7 view .LVU1424
	cmp	r3, #0	@ _110,
@ src/common/iobuf.c:660: 	  if (!a->size)
	.loc 1 660 10 view .LVU1425
	mov	r6, r3	@ n, _110
	.loc 1 660 4 is_stmt 1 view .LVU1426
	movne	r6, r9	@ n, <retval>
@ src/common/iobuf.c:660: 	  if (!a->size)
	.loc 1 660 7 is_stmt 0 view .LVU1427
	beq	.L512		@,
.LVL424:
.L506:
	.loc 1 748 10 is_stmt 1 view .LVU1428
@ src/common/iobuf.c:748: 	  while (!rc && size && a->size)
	.loc 1 748 27 is_stmt 0 view .LVU1429
	mov	r2, r3	@ _110, _110
.L510:
	.loc 1 750 8 is_stmt 1 discriminator 1 view .LVU1430
@ src/common/iobuf.c:748: 	  while (!rc && size && a->size)
	.loc 1 748 23 is_stmt 0 discriminator 1 view .LVU1431
	cmp	r2, #0	@ _110,
@ src/common/iobuf.c:751: 	      c = iobuf_read (chain, p, needed);
	.loc 1 751 12 discriminator 1 view .LVU1432
	mov	r1, r10	@, buffer
	mov	r0, r7	@, chain
@ src/common/iobuf.c:748: 	  while (!rc && size && a->size)
	.loc 1 748 23 discriminator 1 view .LVU1433
	beq	.L512		@,
.LVL425:
@ src/common/iobuf.c:750: 	      needed = size < a->size ? size : a->size;
	.loc 1 750 39 view .LVU1434
	cmp	r2, r4	@ _110, size
	movcc	fp, r2	@ _101, _110
	movcs	fp, r4	@ _101, size
.LVL426:
	.loc 1 751 8 is_stmt 1 view .LVU1435
@ src/common/iobuf.c:751: 	      c = iobuf_read (chain, p, needed);
	.loc 1 751 12 is_stmt 0 view .LVU1436
	mov	r2, fp	@, _101
	bl	iobuf_read(PLT)	@
.LVL427:
	.loc 1 763 5 is_stmt 1 view .LVU1437
	.loc 1 752 8 view .LVU1438
	.loc 1 764 5 view .LVU1439
@ src/common/iobuf.c:752: 	      if (c < needed)
	.loc 1 752 11 is_stmt 0 view .LVU1440
	cmp	fp, r0	@ _101, c
@ src/common/iobuf.c:765: 		  p += c;
	.loc 1 765 7 view .LVU1441
	add	r10, r10, r0	@ buffer, buffer, c
@ src/common/iobuf.c:752: 	      if (c < needed)
	.loc 1 752 11 view .LVU1442
	ble	.L507		@,
	.loc 1 754 5 is_stmt 1 view .LVU1443
@ src/common/iobuf.c:756: 		  printf
	.loc 1 756 5 is_stmt 0 view .LVU1444
	ldr	ip, [r5, #4]	@ MEM[(struct block_filter_ctx_t *)opaque_223(D)].size, MEM[(struct block_filter_ctx_t *)opaque_223(D)].size
@ src/common/iobuf.c:754: 		  if (c == -1)
	.loc 1 754 8 view .LVU1445
	cmn	r0, #1	@ c,
@ src/common/iobuf.c:756: 		  printf
	.loc 1 756 5 view .LVU1446
	movne	r3, r0	@ prephitmp_452, c
.LVL428:
	.loc 1 756 5 is_stmt 1 view .LVU1447
	moveq	r3, #0	@ prephitmp_452,
.LVL429:
	.loc 1 756 5 is_stmt 0 view .LVU1448
	ldr	r0, .L587+16	@,
	.loc 1 756 5 view .LVU1449
	mov	r1, r5	@, opaque
	addne	r4, r4, r3	@ size, size, prephitmp_452
@ src/common/iobuf.c:759: 		  rc = GPG_ERR_BAD_DATA;
	.loc 1 759 8 view .LVU1450
	mov	r9, #89	@ <retval>,
@ src/common/iobuf.c:756: 		  printf
	.loc 1 756 5 view .LVU1451
.LPIC82:
	add	r0, pc, r0	@,
	mov	r2, r4	@, size
	add	r3, r3, ip	@, prephitmp_452, MEM[(struct block_filter_ctx_t *)opaque_223(D)].size
	bl	tfp_printf(PLT)	@
.LVL430:
	.loc 1 759 5 is_stmt 1 view .LVU1452
	.loc 1 748 10 view .LVU1453
.L476:
	.loc 1 770 7 view .LVU1454
@ src/common/iobuf.c:770:       *ret_len = n;
	.loc 1 770 16 is_stmt 0 view .LVU1455
	str	r6, [r8]	@ n, *ret_len_227(D)
.LBE278:
@ src/common/iobuf.c:930: }
	.loc 1 930 1 view .LVU1456
	mov	r0, r9	@, <retval>
	pop	{r3, r4, r5, r6, r7, r8, r9, r10, fp, pc}	@
.LVL431:
.L512:
.LBB279:
	.loc 1 662 8 is_stmt 1 view .LVU1457
@ src/common/iobuf.c:662: 	      if (a->partial == 2)
	.loc 1 662 13 is_stmt 0 view .LVU1458
	ldr	r2, [r5, #12]	@ _5, MEM[(struct block_filter_ctx_t *)opaque_223(D)].partial
@ src/common/iobuf.c:662: 	      if (a->partial == 2)
	.loc 1 662 11 view .LVU1459
	cmp	r2, #2	@ _5,
	beq	.L568		@,
	.loc 1 669 13 is_stmt 1 view .LVU1460
@ src/common/iobuf.c:669: 	      else if (a->partial)
	.loc 1 669 16 is_stmt 0 view .LVU1461
	cmp	r2, #0	@ _5,
	beq	.L506		@,
	.loc 1 673 7 is_stmt 1 view .LVU1462
	ldr	r0, .L587+20	@,
.LPIC78:
	add	r0, pc, r0	@,
	bl	tfp_printf(PLT)	@
.LVL432:
	.loc 1 674 5 view .LVU1463
@ src/common/iobuf.c:674: 		  if (a->first_c)
	.loc 1 674 10 is_stmt 0 view .LVU1464
	ldr	r3, [r5, #24]	@ c, MEM[(struct block_filter_ctx_t *)opaque_223(D)].first_c
@ src/common/iobuf.c:674: 		  if (a->first_c)
	.loc 1 674 8 view .LVU1465
	cmp	r3, #0	@ c,
	beq	.L479		@,
	.loc 1 676 9 is_stmt 1 view .LVU1466
.LVL433:
	.loc 1 677 9 view .LVU1467
@ src/common/iobuf.c:685: 		  if (c < 192)
	.loc 1 685 8 is_stmt 0 view .LVU1468
	cmp	r3, #191	@ c,
@ src/common/iobuf.c:677: 		      a->first_c = 0;
	.loc 1 677 20 view .LVU1469
	mov	r2, #0	@ tmp305,
	str	r2, [r5, #24]	@ tmp305, MEM[(struct block_filter_ctx_t *)opaque_223(D)].first_c
	.loc 1 685 5 is_stmt 1 view .LVU1470
@ src/common/iobuf.c:685: 		  if (c < 192)
	.loc 1 685 8 is_stmt 0 view .LVU1471
	bgt	.L481		@,
	.loc 1 687 9 is_stmt 1 view .LVU1472
@ src/common/iobuf.c:687: 		      a->size = c;
	.loc 1 687 17 is_stmt 0 view .LVU1473
	str	r3, [r5, #4]	@ c, MEM[(struct block_filter_ctx_t *)opaque_223(D)].size
	.loc 1 688 9 is_stmt 1 view .LVU1474
@ src/common/iobuf.c:688: 		      a->partial = 2;
	.loc 1 688 20 is_stmt 0 view .LVU1475
	mov	r2, #2	@ tmp452,
	str	r2, [r5, #12]	@ tmp452, MEM[(struct block_filter_ctx_t *)opaque_223(D)].partial
	.loc 1 689 9 is_stmt 1 view .LVU1476
	b	.L506		@
.LVL434:
.L507:
@ src/common/iobuf.c:764: 		  a->size -= c;
	.loc 1 764 13 is_stmt 0 view .LVU1477
	ldr	r3, [r5, #4]	@ _110, MEM[(struct block_filter_ctx_t *)opaque_223(D)].size
@ src/common/iobuf.c:748: 	  while (!rc && size && a->size)
	.loc 1 748 10 view .LVU1478
	subs	r4, r4, r0	@ size, size, c
.LVL435:
@ src/common/iobuf.c:764: 		  a->size -= c;
	.loc 1 764 13 view .LVU1479
	sub	r2, r3, r0	@ _110, _110, c
@ src/common/iobuf.c:766: 		  n += c;
	.loc 1 766 7 view .LVU1480
	add	r6, r6, r0	@ n, n, c
.LVL436:
@ src/common/iobuf.c:764: 		  a->size -= c;
	.loc 1 764 13 view .LVU1481
	mov	r3, r2	@ _110, _110
	str	r2, [r5, #4]	@ _110, MEM[(struct block_filter_ctx_t *)opaque_223(D)].size
	.loc 1 765 5 is_stmt 1 view .LVU1482
	.loc 1 766 5 view .LVU1483
.LVL437:
	.loc 1 748 10 view .LVU1484
	bne	.L510		@,
	b	.L476		@
.LVL438:
.L479:
	.loc 1 679 10 view .LVU1485
@ src/common/iobuf.c:679: 		  else if ((c = iobuf_get (chain)) == -1)
	.loc 1 679 19 is_stmt 0 view .LVU1486
	ldr	r3, [r7, #16]	@ chain_233(D)->nofast, chain_233(D)->nofast
	cmp	r3, #0	@ chain_233(D)->nofast,
	bne	.L482		@,
@ src/common/iobuf.c:679: 		  else if ((c = iobuf_get (chain)) == -1)
	.loc 1 679 19 discriminator 2 view .LVU1487
	ldr	r3, [r7, #24]	@ _9, chain_233(D)->d.start
	ldr	r2, [r7, #28]	@ chain_233(D)->d.len, chain_233(D)->d.len
	cmp	r3, r2	@ _9, chain_233(D)->d.len
	bcs	.L482		@,
@ src/common/iobuf.c:679: 		  else if ((c = iobuf_get (chain)) == -1)
	.loc 1 679 19 discriminator 4 view .LVU1488
	ldr	r2, [r7, #8]	@ chain_233(D)->nbytes, chain_233(D)->nbytes
	ldr	r1, [r7, #32]	@ _13, chain_233(D)->d.buf
	add	r2, r2, #1	@ tmp308, chain_233(D)->nbytes,
	str	r2, [r7, #8]	@ tmp308, chain_233(D)->nbytes
	add	r2, r3, #1	@ tmp310, _9,
	str	r2, [r7, #24]	@ tmp310, chain_233(D)->d.start
	ldrb	r3, [r1, r3]	@ zero_extendqisi2	@ c, *_16
.LVL439:
.L485:
	.loc 1 685 5 is_stmt 1 view .LVU1489
@ src/common/iobuf.c:685: 		  if (c < 192)
	.loc 1 685 8 is_stmt 0 view .LVU1490
	cmp	r3, #191	@ c,
	ble	.L570		@,
.L481:
	.loc 1 697 10 is_stmt 1 view .LVU1491
@ src/common/iobuf.c:697: 		  else if (c < 224)
	.loc 1 697 13 is_stmt 0 view .LVU1492
	cmp	r3, #223	@ c,
	bgt	.L486		@,
	.loc 1 699 9 is_stmt 1 view .LVU1493
@ src/common/iobuf.c:700: 		      if ((c = iobuf_get (chain)) == -1)
	.loc 1 700 18 is_stmt 0 view .LVU1494
	ldr	r2, [r7, #16]	@ chain_233(D)->nofast, chain_233(D)->nofast
@ src/common/iobuf.c:699: 		      a->size = (c - 192) * 256;
	.loc 1 699 22 view .LVU1495
	sub	r3, r3, #192	@ tmp317, c,
.LVL440:
@ src/common/iobuf.c:699: 		      a->size = (c - 192) * 256;
	.loc 1 699 29 view .LVU1496
	lsl	r3, r3, #8	@ _22, tmp317,
.LVL441:
@ src/common/iobuf.c:700: 		      if ((c = iobuf_get (chain)) == -1)
	.loc 1 700 18 view .LVU1497
	cmp	r2, #0	@ chain_233(D)->nofast,
@ src/common/iobuf.c:699: 		      a->size = (c - 192) * 256;
	.loc 1 699 17 view .LVU1498
	str	r3, [r5, #4]	@ _22, MEM[(struct block_filter_ctx_t *)opaque_223(D)].size
	.loc 1 700 9 is_stmt 1 view .LVU1499
@ src/common/iobuf.c:700: 		      if ((c = iobuf_get (chain)) == -1)
	.loc 1 700 18 is_stmt 0 view .LVU1500
	bne	.L487		@,
@ src/common/iobuf.c:700: 		      if ((c = iobuf_get (chain)) == -1)
	.loc 1 700 18 discriminator 2 view .LVU1501
	ldr	r2, [r7, #24]	@ _24, chain_233(D)->d.start
	ldr	r1, [r7, #28]	@ chain_233(D)->d.len, chain_233(D)->d.len
	cmp	r2, r1	@ _24, chain_233(D)->d.len
	bcs	.L487		@,
@ src/common/iobuf.c:700: 		      if ((c = iobuf_get (chain)) == -1)
	.loc 1 700 18 discriminator 4 view .LVU1502
	ldr	r1, [r7, #8]	@ chain_233(D)->nbytes, chain_233(D)->nbytes
@ src/common/iobuf.c:707: 		      a->size += c + 192;
	.loc 1 707 17 discriminator 4 view .LVU1503
	add	r3, r3, #192	@ tmp324, _22,
@ src/common/iobuf.c:700: 		      if ((c = iobuf_get (chain)) == -1)
	.loc 1 700 18 discriminator 4 view .LVU1504
	ldr	r0, [r7, #32]	@ _28, chain_233(D)->d.buf
	add	r1, r1, #1	@ tmp320, chain_233(D)->nbytes,
	str	r1, [r7, #8]	@ tmp320, chain_233(D)->nbytes
	add	r1, r2, #1	@ tmp322, _24,
	str	r1, [r7, #24]	@ tmp322, chain_233(D)->d.start
.LVL442:
	.loc 1 707 9 is_stmt 1 discriminator 4 view .LVU1505
@ src/common/iobuf.c:707: 		      a->size += c + 192;
	.loc 1 707 17 is_stmt 0 discriminator 4 view .LVU1506
	ldrb	r2, [r0, r2]	@ zero_extendqisi2	@ *_31, *_31
.LVL443:
	.loc 1 707 17 discriminator 4 view .LVU1507
	add	r3, r2, r3	@ tmp325, *_31, tmp324
@ src/common/iobuf.c:708: 		      a->partial = 2;
	.loc 1 708 20 discriminator 4 view .LVU1508
	mov	r2, #2	@ tmp326,
.LVL444:
@ src/common/iobuf.c:707: 		      a->size += c + 192;
	.loc 1 707 17 discriminator 4 view .LVU1509
	str	r3, [r5, #4]	@ tmp325, MEM[(struct block_filter_ctx_t *)opaque_223(D)].size
.LVL445:
	.loc 1 708 9 is_stmt 1 discriminator 4 view .LVU1510
@ src/common/iobuf.c:708: 		      a->partial = 2;
	.loc 1 708 20 is_stmt 0 discriminator 4 view .LVU1511
	str	r2, [r5, #12]	@ tmp326, MEM[(struct block_filter_ctx_t *)opaque_223(D)].partial
	.loc 1 709 9 is_stmt 1 discriminator 4 view .LVU1512
	b	.L506		@
.L487:
@ src/common/iobuf.c:700: 		      if ((c = iobuf_get (chain)) == -1)
	.loc 1 700 18 is_stmt 0 discriminator 3 view .LVU1513
	mov	r0, r7	@, chain
	bl	iobuf_readbyte(PLT)	@
.LVL446:
@ src/common/iobuf.c:700: 		      if ((c = iobuf_get (chain)) == -1)
	.loc 1 700 12 discriminator 3 view .LVU1514
	cmn	r0, #1	@ iftmp.58_340,
@ src/common/iobuf.c:707: 		      a->size += c + 192;
	.loc 1 707 17 discriminator 3 view .LVU1515
	ldrne	r3, [r5, #4]	@ _110, MEM[(struct block_filter_ctx_t *)opaque_223(D)].size
	addne	r3, r3, #192	@ tmp329, _110,
	addne	r3, r3, r0	@ _110, tmp329, iftmp.58_340
@ src/common/iobuf.c:700: 		      if ((c = iobuf_get (chain)) == -1)
	.loc 1 700 12 discriminator 3 view .LVU1516
	beq	.L576		@,
.LVL447:
.L570:
@ src/common/iobuf.c:728: 		      a->size |= c;
	.loc 1 728 17 view .LVU1517
	str	r3, [r5, #4]	@ _95, MEM[(struct block_filter_ctx_t *)opaque_223(D)].size
	.loc 1 729 23 is_stmt 1 view .LVU1518
@ src/common/iobuf.c:730:                       if (!a->size)
	.loc 1 730 26 is_stmt 0 view .LVU1519
	cmp	r3, #0	@ _95,
@ src/common/iobuf.c:729:                       a->partial = 2;
	.loc 1 729 34 view .LVU1520
	mov	r2, #2	@ tmp366,
	str	r2, [r5, #12]	@ tmp366, MEM[(struct block_filter_ctx_t *)opaque_223(D)].partial
	.loc 1 730 23 is_stmt 1 view .LVU1521
@ src/common/iobuf.c:730:                       if (!a->size)
	.loc 1 730 26 is_stmt 0 view .LVU1522
	bne	.L506		@,
.L568:
	.loc 1 732 27 is_stmt 1 view .LVU1523
@ src/common/iobuf.c:733:                           if (!n)
	.loc 1 733 30 is_stmt 0 view .LVU1524
	clz	r9, r6	@ tmp369, n
@ src/common/iobuf.c:732:                           a->eof = 1;
	.loc 1 732 34 view .LVU1525
	mov	r3, #1	@ tmp367,
	str	r3, [r5, #28]	@ tmp367, MEM[(struct block_filter_ctx_t *)opaque_223(D)].eof
	.loc 1 733 27 is_stmt 1 view .LVU1526
@ src/common/iobuf.c:733:                           if (!n)
	.loc 1 733 30 is_stmt 0 view .LVU1527
	lsr	r9, r9, #5	@ tmp369, tmp369,
	rsb	r9, r9, #0	@ <retval>, tmp369
	b	.L476		@
.L482:
@ src/common/iobuf.c:679: 		  else if ((c = iobuf_get (chain)) == -1)
	.loc 1 679 19 discriminator 3 view .LVU1528
	mov	r0, r7	@, chain
	bl	iobuf_readbyte(PLT)	@
.LVL448:
@ src/common/iobuf.c:679: 		  else if ((c = iobuf_get (chain)) == -1)
	.loc 1 679 13 discriminator 3 view .LVU1529
	cmn	r0, #1	@ c,
@ src/common/iobuf.c:679: 		  else if ((c = iobuf_get (chain)) == -1)
	.loc 1 679 19 discriminator 3 view .LVU1530
	mov	r3, r0	@ c, tmp462
.LVL449:
@ src/common/iobuf.c:679: 		  else if ((c = iobuf_get (chain)) == -1)
	.loc 1 679 13 discriminator 3 view .LVU1531
	bne	.L485		@,
	.loc 1 681 9 is_stmt 1 view .LVU1532
	ldr	r0, .L587+24	@,
.LVL450:
@ src/common/iobuf.c:682: 		      rc = GPG_ERR_BAD_DATA;
	.loc 1 682 12 is_stmt 0 view .LVU1533
	mov	r9, #89	@ <retval>,
@ src/common/iobuf.c:681: 		      printf ("block_filter: 1st length byte missing\n");
	.loc 1 681 9 view .LVU1534
.LPIC79:
	add	r0, pc, r0	@,
	bl	tfp_printf(PLT)	@
.LVL451:
	.loc 1 682 9 is_stmt 1 view .LVU1535
	.loc 1 683 9 view .LVU1536
	b	.L476		@
.LVL452:
.L486:
	.loc 1 717 10 view .LVU1537
@ src/common/iobuf.c:717: 		  else if (c == 255)
	.loc 1 717 13 is_stmt 0 view .LVU1538
	cmp	r3, #255	@ c,
	beq	.L577		@,
	.loc 1 740 9 is_stmt 1 view .LVU1539
@ src/common/iobuf.c:740: 		      a->size = 1 << (c & 0x1f);
	.loc 1 740 27 is_stmt 0 view .LVU1540
	and	r3, r3, #31	@ tmp370, c,
.LVL453:
@ src/common/iobuf.c:740: 		      a->size = 1 << (c & 0x1f);
	.loc 1 740 21 view .LVU1541
	mov	r2, #1	@ tmp372,
	lsl	r3, r2, r3	@ tmp371, tmp372, tmp370
@ src/common/iobuf.c:740: 		      a->size = 1 << (c & 0x1f);
	.loc 1 740 17 view .LVU1542
	str	r3, [r5, #4]	@ tmp371, MEM[(struct block_filter_ctx_t *)opaque_223(D)].size
	b	.L506		@
.LVL454:
.L573:
	.loc 1 740 17 view .LVU1543
.LBE279:
	.loc 1 774 13 is_stmt 1 view .LVU1544
	ldr	r0, .L587+28	@,
	ldr	r1, [r5, #12]	@, MEM[(struct block_filter_ctx_t *)opaque_223(D)].partial
.LPIC83:
	add	r0, pc, r0	@,
	bl	tfp_printf(PLT)	@
.LVL455:
	.loc 1 776 7 view .LVU1545
@ src/common/iobuf.c:776:       if (a->partial)
	.loc 1 776 10 is_stmt 0 view .LVU1546
	ldr	r3, [r5, #12]	@ MEM[(struct block_filter_ctx_t *)opaque_223(D)].partial, MEM[(struct block_filter_ctx_t *)opaque_223(D)].partial
	cmp	r3, #0	@ MEM[(struct block_filter_ctx_t *)opaque_223(D)].partial,
	beq	.L527		@,
.LBB280:
	.loc 1 778 4 is_stmt 1 view .LVU1547
@ src/common/iobuf.c:778: 	  size_t blen, n, nbytes = size + a->buflen;
	.loc 1 778 37 is_stmt 0 view .LVU1548
	ldr	r0, [r5, #20]	@ _122, MEM[(struct block_filter_ctx_t *)opaque_223(D)].buflen
@ src/common/iobuf.c:778: 	  size_t blen, n, nbytes = size + a->buflen;
	.loc 1 778 20 view .LVU1549
	add	r6, r0, r4	@ nbytes, _122, size
.LVL456:
	.loc 1 781 4 is_stmt 1 view .LVU1550
@ src/common/iobuf.c:781: 	  if (nbytes < OP_MIN_PARTIAL_CHUNK)
	.loc 1 781 7 is_stmt 0 view .LVU1551
	cmp	r6, #512	@ nbytes,
	bcc	.L578		@,
.LVL457:
.L516:
	.loc 1 793 8 is_stmt 1 view .LVU1552
	.loc 1 797 5 view .LVU1553
	.loc 1 798 45 view .LVU1554
@ src/common/iobuf.c:797: 		  for (blen = OP_MIN_PARTIAL_CHUNK * 2,
	.loc 1 797 5 is_stmt 0 view .LVU1555
	cmp	r6, #1024	@ nbytes,
	bcc	.L539		@,
@ src/common/iobuf.c:797: 		  for (blen = OP_MIN_PARTIAL_CHUNK * 2,
	.loc 1 797 15 view .LVU1556
	mov	r3, #1024	@ blen,
@ src/common/iobuf.c:798: 		       c = OP_MIN_PARTIAL_CHUNK_2POW + 1; blen <= nbytes;
	.loc 1 798 12 view .LVU1557
	mov	r2, #10	@ c,
.LVL458:
.L519:
	.loc 1 800 7 is_stmt 1 view .LVU1558
	.loc 1 799 10 view .LVU1559
@ src/common/iobuf.c:799: 		       blen *= 2, c++)
	.loc 1 799 15 is_stmt 0 view .LVU1560
	lsl	r3, r3, #1	@ blen, blen,
.LVL459:
	.loc 1 799 15 view .LVU1561
	mov	r0, r2	@ c, c
@ src/common/iobuf.c:797: 		  for (blen = OP_MIN_PARTIAL_CHUNK * 2,
	.loc 1 797 5 view .LVU1562
	cmp	r6, r3	@ nbytes, blen
@ src/common/iobuf.c:799: 		       blen *= 2, c++)
	.loc 1 799 22 view .LVU1563
	add	r2, r2, #1	@ c, c,
.LVL460:
	.loc 1 798 45 is_stmt 1 view .LVU1564
@ src/common/iobuf.c:797: 		  for (blen = OP_MIN_PARTIAL_CHUNK * 2,
	.loc 1 797 5 is_stmt 0 view .LVU1565
	bcs	.L519		@,
@ src/common/iobuf.c:804: 		  printf (c <= 0x1f);	/*;-) */
	.loc 1 804 5 view .LVU1566
	cmp	r0, #31	@ c,
@ src/common/iobuf.c:805: 		  c |= 0xe0;
	.loc 1 805 7 view .LVU1567
	orr	r8, r0, #224	@ _145, c,
@ src/common/iobuf.c:801: 		  blen /= 2;
	.loc 1 801 10 view .LVU1568
	lsr	r4, r3, #1	@ _184, blen,
@ src/common/iobuf.c:804: 		  printf (c <= 0x1f);	/*;-) */
	.loc 1 804 5 view .LVU1569
	movgt	r0, #0	@ prephitmp_439,
	movle	r0, #1	@ prephitmp_439,
.LVL461:
.L518:
	.loc 1 801 5 is_stmt 1 view .LVU1570
	.loc 1 802 5 view .LVU1571
	.loc 1 804 5 view .LVU1572
	bl	tfp_printf(PLT)	@
.LVL462:
	.loc 1 805 5 view .LVU1573
	.loc 1 806 5 view .LVU1574
	mov	r1, r8	@, _145
	mov	r0, r7	@, chain
	bl	iobuf_writebyte(PLT)	@
.LVL463:
	.loc 1 807 5 view .LVU1575
@ src/common/iobuf.c:807: 		  if ((n = a->buflen))
	.loc 1 807 12 is_stmt 0 view .LVU1576
	ldr	r9, [r5, #20]	@ n, MEM[(struct block_filter_ctx_t *)opaque_223(D)].buflen
.LVL464:
@ src/common/iobuf.c:807: 		  if ((n = a->buflen))
	.loc 1 807 8 view .LVU1577
	cmp	r9, #0	@ n,
	bne	.L579		@,
	.loc 1 815 5 is_stmt 1 view .LVU1578
.LVL465:
	.loc 1 815 5 is_stmt 0 view .LVU1579
	cmp	r4, r6	@ _184, nbytes
	movcs	r4, r6	@ n, nbytes
.LVL466:
	.loc 1 817 5 is_stmt 1 view .LVU1580
.L534:
@ src/common/iobuf.c:817: 		  if (n && iobuf_write (chain, p, n))
	.loc 1 817 14 is_stmt 0 discriminator 1 view .LVU1581
	mov	r2, r4	@, n
	mov	r1, r10	@, buffer
	mov	r0, r7	@, chain
	bl	iobuf_write(PLT)	@
.LVL467:
@ src/common/iobuf.c:817: 		  if (n && iobuf_write (chain, p, n))
	.loc 1 817 11 discriminator 1 view .LVU1582
	cmp	r0, #0	@ tmp471,
	beq	.L521		@,
@ src/common/iobuf.c:818: 		    rc = gpg_error_from_syserror ();
	.loc 1 818 10 view .LVU1583
	mvn	r9, #0	@ <retval>,
.LVL468:
	.loc 1 818 10 view .LVU1584
.LBE280:
	.loc 1 929 3 is_stmt 1 view .LVU1585
@ src/common/iobuf.c:929:   return rc;
	.loc 1 929 10 is_stmt 0 view .LVU1586
	b	.L474		@
.LVL469:
.L579:
.LBB281:
	.loc 1 809 9 is_stmt 1 view .LVU1587
@ src/common/iobuf.c:813: 		      nbytes -= n;
	.loc 1 813 16 is_stmt 0 view .LVU1588
	sub	r6, r6, r9	@ nbytes, nbytes, n
.LVL470:
@ src/common/iobuf.c:809: 		      printf (n == OP_MIN_PARTIAL_CHUNK);
	.loc 1 809 9 view .LVU1589
	sub	r0, r9, #512	@, n,
	clz	r0, r0	@,
	lsr	r0, r0, #5	@,,
	bl	tfp_printf(PLT)	@
.LVL471:
	.loc 1 810 9 is_stmt 1 view .LVU1590
@ src/common/iobuf.c:810: 		      if (iobuf_write (chain, a->buffer, n))
	.loc 1 810 13 is_stmt 0 view .LVU1591
	ldr	r1, [r5, #16]	@, MEM[(struct block_filter_ctx_t *)opaque_223(D)].buffer
	mov	r2, r9	@, n
	mov	r0, r7	@, chain
	bl	iobuf_write(PLT)	@
.LVL472:
@ src/common/iobuf.c:810: 		      if (iobuf_write (chain, a->buffer, n))
	.loc 1 810 12 view .LVU1592
	subs	r9, r0, #0	@ tmp391, tmp470,
.LVL473:
@ src/common/iobuf.c:812: 		      a->buflen = 0;
	.loc 1 812 19 view .LVU1593
	mov	r3, #0	@ tmp392,
	str	r3, [r5, #20]	@ tmp392, MEM[(struct block_filter_ctx_t *)opaque_223(D)].buflen
@ src/common/iobuf.c:810: 		      if (iobuf_write (chain, a->buffer, n))
	.loc 1 810 12 view .LVU1594
	movne	r9, #1	@ tmp391,
	cmp	r4, r6	@ _184, nbytes
	rsb	r9, r9, #0	@ <retval>, tmp391
.LVL474:
	.loc 1 812 9 is_stmt 1 view .LVU1595
	.loc 1 813 9 view .LVU1596
	.loc 1 815 5 view .LVU1597
	movcs	r4, r6	@ n, nbytes
.LVL475:
	.loc 1 817 5 view .LVU1598
@ src/common/iobuf.c:817: 		  if (n && iobuf_write (chain, p, n))
	.loc 1 817 8 is_stmt 0 view .LVU1599
	cmp	r4, #0	@ n,
	bne	.L534		@,
.L521:
	.loc 1 819 5 is_stmt 1 view .LVU1600
.LVL476:
@ src/common/iobuf.c:822: 	      while (!rc && nbytes >= OP_MIN_PARTIAL_CHUNK);
	.loc 1 822 15 is_stmt 0 view .LVU1601
	clz	r3, r9	@ _134, <retval>
@ src/common/iobuf.c:820: 		  nbytes -= n;
	.loc 1 820 12 view .LVU1602
	sub	r6, r6, r4	@ nbytes, nbytes, n
.LVL477:
@ src/common/iobuf.c:822: 	      while (!rc && nbytes >= OP_MIN_PARTIAL_CHUNK);
	.loc 1 822 15 view .LVU1603
	lsr	r3, r3, #5	@ _134, _134,
@ src/common/iobuf.c:819: 		  p += n;
	.loc 1 819 7 view .LVU1604
	add	r10, r10, r4	@ buffer, buffer, n
.LVL478:
	.loc 1 820 5 is_stmt 1 view .LVU1605
	.loc 1 822 14 view .LVU1606
@ src/common/iobuf.c:822: 	      while (!rc && nbytes >= OP_MIN_PARTIAL_CHUNK);
	.loc 1 822 8 is_stmt 0 view .LVU1607
	cmp	r6, #512	@ nbytes,
	movcc	r2, #0	@, tmp400
	andcs	r2, r3, #1	@,, tmp400, _134
	cmp	r2, #0	@ tmp400,
	bne	.L516		@,
.LVL479:
	.loc 1 824 8 is_stmt 1 view .LVU1608
@ src/common/iobuf.c:824: 	      if (!rc && nbytes)
	.loc 1 824 11 is_stmt 0 view .LVU1609
	cmp	r6, #0	@ nbytes,
	moveq	r3, #0	@, tmp405
	andne	r3, r3, #1	@,, tmp405, _134
	cmp	r3, #0	@ tmp405,
	beq	.L474		@,
	.loc 1 826 14 is_stmt 1 view .LVU1610
	ldr	r0, .L587+32	@,
.LPIC84:
	add	r0, pc, r0	@,
	bl	tfp_printf(PLT)	@
.LVL480:
	.loc 1 830 5 view .LVU1611
@ src/common/iobuf.c:830: 		  if (!a->buffer)
	.loc 1 830 11 is_stmt 0 view .LVU1612
	ldr	r0, [r5, #16]	@ _140, MEM[(struct block_filter_ctx_t *)opaque_223(D)].buffer
@ src/common/iobuf.c:830: 		  if (!a->buffer)
	.loc 1 830 8 view .LVU1613
	cmp	r0, #0	@ _140,
	beq	.L580		@,
.L522:
	.loc 1 832 5 is_stmt 1 view .LVU1614
	mov	r2, r6	@, nbytes
	mov	r1, r10	@, buffer
@ src/common/iobuf.c:833: 		  a->buflen = nbytes;
	.loc 1 833 15 is_stmt 0 view .LVU1615
	mov	r9, #0	@ <retval>,
@ src/common/iobuf.c:832: 		  memcpy (a->buffer, p, nbytes);
	.loc 1 832 5 view .LVU1616
	bl	memcpy(PLT)	@
.LVL481:
	.loc 1 833 5 is_stmt 1 view .LVU1617
@ src/common/iobuf.c:833: 		  a->buflen = nbytes;
	.loc 1 833 15 is_stmt 0 view .LVU1618
	str	r6, [r5, #20]	@ nbytes, MEM[(struct block_filter_ctx_t *)opaque_223(D)].buflen
	b	.L474		@
.LVL482:
.L575:
	.loc 1 833 15 view .LVU1619
.LBE281:
	.loc 1 865 7 is_stmt 1 view .LVU1620
@ src/common/iobuf.c:865:       if (a->use == IOBUF_OUTPUT)
	.loc 1 865 10 is_stmt 0 view .LVU1621
	ldr	r3, [r5]	@ MEM[(struct block_filter_ctx_t *)opaque_223(D)].use, MEM[(struct block_filter_ctx_t *)opaque_223(D)].use
	cmp	r3, #2	@ MEM[(struct block_filter_ctx_t *)opaque_223(D)].use,
	beq	.L581		@,
	.loc 1 920 12 is_stmt 1 view .LVU1622
@ src/common/iobuf.c:920:       else if (a->size)
	.loc 1 920 15 is_stmt 0 view .LVU1623
	ldr	r9, [r5, #4]	@ MEM[(struct block_filter_ctx_t *)opaque_223(D)].size, MEM[(struct block_filter_ctx_t *)opaque_223(D)].size
	cmp	r9, #0	@ MEM[(struct block_filter_ctx_t *)opaque_223(D)].size,
	bne	.L582		@,
.LVL483:
.L529:
	.loc 1 926 7 is_stmt 1 view .LVU1624
	mov	r0, r5	@, opaque
	bl	xfree(PLT)	@
.LVL484:
	b	.L474		@
.LVL485:
.L577:
.LBB282:
	.loc 1 719 9 view .LVU1625
@ src/common/iobuf.c:719: 		      a->size = iobuf_get_noeof (chain) << 24;
	.loc 1 719 43 is_stmt 0 view .LVU1626
	ldr	r3, [r7, #16]	@ chain_233(D)->nofast, chain_233(D)->nofast
.LVL486:
	.loc 1 719 43 view .LVU1627
	cmp	r3, #0	@ chain_233(D)->nofast,
	bne	.L492		@,
@ src/common/iobuf.c:719: 		      a->size = iobuf_get_noeof (chain) << 24;
	.loc 1 719 19 discriminator 2 view .LVU1628
	ldr	r3, [r7, #24]	@ _39, chain_233(D)->d.start
	ldr	r2, [r7, #28]	@ chain_233(D)->d.len, chain_233(D)->d.len
	cmp	r3, r2	@ _39, chain_233(D)->d.len
	bcc	.L493		@,
.L492:
@ src/common/iobuf.c:719: 		      a->size = iobuf_get_noeof (chain) << 24;
	.loc 1 719 19 discriminator 3 view .LVU1629
	mov	r0, r7	@, chain
	bl	iobuf_readbyte(PLT)	@
.LVL487:
@ src/common/iobuf.c:720: 		      a->size |= iobuf_get_noeof (chain) << 16;
	.loc 1 720 20 discriminator 3 view .LVU1630
	ldr	r2, [r7, #16]	@ pretmp_428, chain_233(D)->nofast
@ src/common/iobuf.c:719: 		      a->size = iobuf_get_noeof (chain) << 24;
	.loc 1 719 43 discriminator 3 view .LVU1631
	lsl	r3, r0, #24	@ iftmp.60_198, tmp464,
@ src/common/iobuf.c:719: 		      a->size = iobuf_get_noeof (chain) << 24;
	.loc 1 719 17 discriminator 3 view .LVU1632
	str	r3, [r5, #4]	@ iftmp.60_198, MEM[(struct block_filter_ctx_t *)opaque_223(D)].size
	.loc 1 720 9 is_stmt 1 discriminator 3 view .LVU1633
@ src/common/iobuf.c:720: 		      a->size |= iobuf_get_noeof (chain) << 16;
	.loc 1 720 44 is_stmt 0 discriminator 3 view .LVU1634
	cmp	r2, #0	@ pretmp_428,
	ldreq	r2, [r7, #28]	@ chain_233(D)->d.len, chain_233(D)->d.len
	bne	.L494		@,
.L495:
@ src/common/iobuf.c:720: 		      a->size |= iobuf_get_noeof (chain) << 16;
	.loc 1 720 20 discriminator 2 view .LVU1635
	ldr	r1, [r7, #24]	@ _52, chain_233(D)->d.start
	cmp	r1, r2	@ _52, chain_233(D)->d.len
	bcc	.L496		@,
.L494:
@ src/common/iobuf.c:720: 		      a->size |= iobuf_get_noeof (chain) << 16;
	.loc 1 720 20 discriminator 3 view .LVU1636
	mov	r0, r7	@, chain
	bl	iobuf_readbyte(PLT)	@
.LVL488:
@ src/common/iobuf.c:721: 		      a->size |= iobuf_get_noeof (chain) << 8;
	.loc 1 721 20 discriminator 3 view .LVU1637
	ldr	r1, [r7, #16]	@ pretmp_421, chain_233(D)->nofast
@ src/common/iobuf.c:720: 		      a->size |= iobuf_get_noeof (chain) << 16;
	.loc 1 720 17 discriminator 3 view .LVU1638
	ldr	r2, [r5, #4]	@ MEM[(struct block_filter_ctx_t *)opaque_223(D)].size, MEM[(struct block_filter_ctx_t *)opaque_223(D)].size
@ src/common/iobuf.c:720: 		      a->size |= iobuf_get_noeof (chain) << 16;
	.loc 1 720 44 discriminator 3 view .LVU1639
	lsl	r3, r0, #16	@ tmp342, tmp465,
@ src/common/iobuf.c:721: 		      a->size |= iobuf_get_noeof (chain) << 8;
	.loc 1 721 44 discriminator 3 view .LVU1640
	cmp	r1, #0	@ pretmp_421,
@ src/common/iobuf.c:720: 		      a->size |= iobuf_get_noeof (chain) << 16;
	.loc 1 720 44 discriminator 3 view .LVU1641
	and	r3, r3, #16711680	@ tmp343, tmp342,
@ src/common/iobuf.c:720: 		      a->size |= iobuf_get_noeof (chain) << 16;
	.loc 1 720 17 discriminator 3 view .LVU1642
	orr	r3, r3, r2	@ _66, tmp343, MEM[(struct block_filter_ctx_t *)opaque_223(D)].size
	str	r3, [r5, #4]	@ _66, MEM[(struct block_filter_ctx_t *)opaque_223(D)].size
	.loc 1 721 9 is_stmt 1 discriminator 3 view .LVU1643
	ldreq	r2, [r7, #28]	@ chain_233(D)->d.len, chain_233(D)->d.len
@ src/common/iobuf.c:721: 		      a->size |= iobuf_get_noeof (chain) << 8;
	.loc 1 721 44 is_stmt 0 discriminator 3 view .LVU1644
	bne	.L497		@,
.L498:
@ src/common/iobuf.c:721: 		      a->size |= iobuf_get_noeof (chain) << 8;
	.loc 1 721 20 discriminator 2 view .LVU1645
	ldr	r1, [r7, #24]	@ _68, chain_233(D)->d.start
	cmp	r1, r2	@ _68, chain_233(D)->d.len
	bcc	.L499		@,
.L497:
@ src/common/iobuf.c:721: 		      a->size |= iobuf_get_noeof (chain) << 8;
	.loc 1 721 20 discriminator 3 view .LVU1646
	mov	r0, r7	@, chain
	bl	iobuf_readbyte(PLT)	@
.LVL489:
@ src/common/iobuf.c:722: 		      if ((c = iobuf_get (chain)) == -1)
	.loc 1 722 18 discriminator 3 view .LVU1647
	ldr	r1, [r7, #16]	@ pretmp_403, chain_233(D)->nofast
@ src/common/iobuf.c:721: 		      a->size |= iobuf_get_noeof (chain) << 8;
	.loc 1 721 17 discriminator 3 view .LVU1648
	ldr	r2, [r5, #4]	@ MEM[(struct block_filter_ctx_t *)opaque_223(D)].size, MEM[(struct block_filter_ctx_t *)opaque_223(D)].size
@ src/common/iobuf.c:721: 		      a->size |= iobuf_get_noeof (chain) << 8;
	.loc 1 721 44 discriminator 3 view .LVU1649
	lsl	r3, r0, #8	@ tmp351, tmp466,
@ src/common/iobuf.c:722: 		      if ((c = iobuf_get (chain)) == -1)
	.loc 1 722 18 discriminator 3 view .LVU1650
	cmp	r1, #0	@ pretmp_403,
@ src/common/iobuf.c:721: 		      a->size |= iobuf_get_noeof (chain) << 8;
	.loc 1 721 44 discriminator 3 view .LVU1651
	uxth	r3, r3	@ tmp352, tmp351
@ src/common/iobuf.c:721: 		      a->size |= iobuf_get_noeof (chain) << 8;
	.loc 1 721 17 discriminator 3 view .LVU1652
	orr	r3, r3, r2	@ _82, tmp352, MEM[(struct block_filter_ctx_t *)opaque_223(D)].size
	str	r3, [r5, #4]	@ _82, MEM[(struct block_filter_ctx_t *)opaque_223(D)].size
	.loc 1 722 9 is_stmt 1 discriminator 3 view .LVU1653
	ldreq	r2, [r7, #28]	@ chain_233(D)->d.len, chain_233(D)->d.len
@ src/common/iobuf.c:722: 		      if ((c = iobuf_get (chain)) == -1)
	.loc 1 722 18 is_stmt 0 discriminator 3 view .LVU1654
	bne	.L500		@,
.L501:
@ src/common/iobuf.c:722: 		      if ((c = iobuf_get (chain)) == -1)
	.loc 1 722 18 discriminator 2 view .LVU1655
	ldr	r1, [r7, #24]	@ _84, chain_233(D)->d.start
	cmp	r1, r2	@ _84, chain_233(D)->d.len
	bcc	.L502		@,
.L500:
@ src/common/iobuf.c:722: 		      if ((c = iobuf_get (chain)) == -1)
	.loc 1 722 18 discriminator 3 view .LVU1656
	mov	r0, r7	@, chain
	bl	iobuf_readbyte(PLT)	@
.LVL490:
@ src/common/iobuf.c:722: 		      if ((c = iobuf_get (chain)) == -1)
	.loc 1 722 12 discriminator 3 view .LVU1657
	cmn	r0, #1	@ iftmp.67_330,
@ src/common/iobuf.c:722: 		      if ((c = iobuf_get (chain)) == -1)
	.loc 1 722 18 discriminator 3 view .LVU1658
	mov	r2, r0	@ iftmp.67_330, tmp467
.LVL491:
@ src/common/iobuf.c:728: 		      a->size |= c;
	.loc 1 728 17 discriminator 3 view .LVU1659
	ldrne	r3, [r5, #4]	@ _82, MEM[(struct block_filter_ctx_t *)opaque_223(D)].size
@ src/common/iobuf.c:722: 		      if ((c = iobuf_get (chain)) == -1)
	.loc 1 722 12 discriminator 3 view .LVU1660
	beq	.L583		@,
.LVL492:
.L505:
	.loc 1 728 9 is_stmt 1 view .LVU1661
@ src/common/iobuf.c:728: 		      a->size |= c;
	.loc 1 728 17 is_stmt 0 view .LVU1662
	orr	r3, r2, r3	@ _95, iftmp.67_330, _82
	b	.L570		@
.LVL493:
.L578:
	.loc 1 728 17 view .LVU1663
.LBE282:
.LBB283:
	.loc 1 784 8 is_stmt 1 view .LVU1664
@ src/common/iobuf.c:784: 	      if (!a->buffer)
	.loc 1 784 14 is_stmt 0 view .LVU1665
	ldr	r3, [r5, #16]	@ _123, MEM[(struct block_filter_ctx_t *)opaque_223(D)].buffer
@ src/common/iobuf.c:784: 	      if (!a->buffer)
	.loc 1 784 11 view .LVU1666
	cmp	r3, #0	@ _123,
	beq	.L584		@,
.L517:
	.loc 1 786 8 is_stmt 1 view .LVU1667
	add	r0, r3, r0	@, _123, _122
	mov	r2, r4	@, size
	mov	r1, r10	@, buffer
.LBE283:
@ src/common/iobuf.c:646:   int c, needed, rc = 0;
	.loc 1 646 18 is_stmt 0 view .LVU1668
	mov	r9, #0	@ <retval>,
.LBB284:
@ src/common/iobuf.c:786: 	      memcpy (a->buffer + a->buflen, buf, size);
	.loc 1 786 8 view .LVU1669
	bl	memcpy(PLT)	@
.LVL494:
	.loc 1 787 8 is_stmt 1 view .LVU1670
@ src/common/iobuf.c:787: 	      a->buflen += size;
	.loc 1 787 18 is_stmt 0 view .LVU1671
	ldr	r3, [r5, #20]	@ MEM[(struct block_filter_ctx_t *)opaque_223(D)].buflen, MEM[(struct block_filter_ctx_t *)opaque_223(D)].buflen
	add	r4, r3, r4	@ tmp383, MEM[(struct block_filter_ctx_t *)opaque_223(D)].buflen, size
.LVL495:
	.loc 1 787 18 view .LVU1672
	str	r4, [r5, #20]	@ tmp383, MEM[(struct block_filter_ctx_t *)opaque_223(D)].buflen
	b	.L474		@
.LVL496:
.L496:
	.loc 1 787 18 view .LVU1673
.LBE284:
.LBB285:
@ src/common/iobuf.c:720: 		      a->size |= iobuf_get_noeof (chain) << 16;
	.loc 1 720 20 discriminator 4 view .LVU1674
	ldr	r0, [r7, #8]	@ chain_233(D)->nbytes, chain_233(D)->nbytes
	ldr	ip, [r7, #32]	@ _58, chain_233(D)->d.buf
	add	r0, r0, #1	@ tmp345, chain_233(D)->nbytes,
	str	r0, [r7, #8]	@ tmp345, chain_233(D)->nbytes
	add	r0, r1, #1	@ tmp347, _52,
	str	r0, [r7, #24]	@ tmp347, chain_233(D)->d.start
	ldrb	r1, [ip, r1]	@ zero_extendqisi2	@ *_61, *_61
@ src/common/iobuf.c:720: 		      a->size |= iobuf_get_noeof (chain) << 16;
	.loc 1 720 17 discriminator 4 view .LVU1675
	orr	r3, r3, r1, lsl #16	@ _66, iftmp.60_198, *_61,
	str	r3, [r5, #4]	@ _66, MEM[(struct block_filter_ctx_t *)opaque_223(D)].size
	.loc 1 721 9 is_stmt 1 discriminator 4 view .LVU1676
	b	.L498		@
.L499:
@ src/common/iobuf.c:721: 		      a->size |= iobuf_get_noeof (chain) << 8;
	.loc 1 721 20 is_stmt 0 discriminator 4 view .LVU1677
	ldr	r0, [r7, #8]	@ chain_233(D)->nbytes, chain_233(D)->nbytes
	ldr	ip, [r7, #32]	@ _74, chain_233(D)->d.buf
	add	r0, r0, #1	@ tmp355, chain_233(D)->nbytes,
	str	r0, [r7, #8]	@ tmp355, chain_233(D)->nbytes
	add	r0, r1, #1	@ tmp357, _68,
	str	r0, [r7, #24]	@ tmp357, chain_233(D)->d.start
	ldrb	r1, [ip, r1]	@ zero_extendqisi2	@ *_77, *_77
@ src/common/iobuf.c:721: 		      a->size |= iobuf_get_noeof (chain) << 8;
	.loc 1 721 17 discriminator 4 view .LVU1678
	orr	r3, r3, r1, lsl #8	@ _82, _66, *_77,
	str	r3, [r5, #4]	@ _82, MEM[(struct block_filter_ctx_t *)opaque_223(D)].size
	.loc 1 722 9 is_stmt 1 discriminator 4 view .LVU1679
	b	.L501		@
.L502:
@ src/common/iobuf.c:722: 		      if ((c = iobuf_get (chain)) == -1)
	.loc 1 722 18 is_stmt 0 discriminator 4 view .LVU1680
	ldr	r2, [r7, #8]	@ chain_233(D)->nbytes, chain_233(D)->nbytes
	ldr	r0, [r7, #32]	@ _88, chain_233(D)->d.buf
	add	r2, r2, #1	@ tmp361, chain_233(D)->nbytes,
	str	r2, [r7, #8]	@ tmp361, chain_233(D)->nbytes
	add	r2, r1, #1	@ tmp363, _84,
	str	r2, [r7, #24]	@ tmp363, chain_233(D)->d.start
	ldrb	r2, [r0, r1]	@ zero_extendqisi2	@ iftmp.67_330, *_91
.LVL497:
	.loc 1 722 18 discriminator 4 view .LVU1681
	b	.L505		@
.LVL498:
.L493:
@ src/common/iobuf.c:719: 		      a->size = iobuf_get_noeof (chain) << 24;
	.loc 1 719 19 discriminator 4 view .LVU1682
	ldr	r1, [r7, #8]	@ chain_233(D)->nbytes, chain_233(D)->nbytes
	ldr	r0, [r7, #32]	@ _45, chain_233(D)->d.buf
	add	r1, r1, #1	@ tmp337, chain_233(D)->nbytes,
	str	r1, [r7, #8]	@ tmp337, chain_233(D)->nbytes
	add	r1, r3, #1	@ tmp339, _39,
	str	r1, [r7, #24]	@ tmp339, chain_233(D)->d.start
	ldrb	r3, [r0, r3]	@ zero_extendqisi2	@ *_47, *_47
@ src/common/iobuf.c:719: 		      a->size = iobuf_get_noeof (chain) << 24;
	.loc 1 719 43 discriminator 4 view .LVU1683
	lsl	r3, r3, #24	@ iftmp.60_198, *_47,
@ src/common/iobuf.c:719: 		      a->size = iobuf_get_noeof (chain) << 24;
	.loc 1 719 17 discriminator 4 view .LVU1684
	str	r3, [r5, #4]	@ iftmp.60_198, MEM[(struct block_filter_ctx_t *)opaque_223(D)].size
	.loc 1 720 9 is_stmt 1 discriminator 4 view .LVU1685
	b	.L495		@
.LVL499:
.L582:
	.loc 1 720 9 is_stmt 0 discriminator 4 view .LVU1686
.LBE285:
	.loc 1 922 4 is_stmt 1 view .LVU1687
	ldr	r0, .L587+36	@,
@ src/common/iobuf.c:646:   int c, needed, rc = 0;
	.loc 1 646 18 is_stmt 0 view .LVU1688
	mov	r9, #0	@ <retval>,
@ src/common/iobuf.c:922: 	  printf ("block_filter: pending bytes!\n");
	.loc 1 922 4 view .LVU1689
.LPIC89:
	add	r0, pc, r0	@,
	bl	tfp_printf(PLT)	@
.LVL500:
	b	.L529		@
.LVL501:
.L576:
.LBB286:
	.loc 1 702 6 is_stmt 1 view .LVU1690
	ldr	r0, .L587+40	@,
.LVL502:
@ src/common/iobuf.c:704: 			  rc = GPG_ERR_BAD_DATA;
	.loc 1 704 9 is_stmt 0 view .LVU1691
	mov	r9, #89	@ <retval>,
@ src/common/iobuf.c:702: 			  printf
	.loc 1 702 6 view .LVU1692
.LPIC80:
	add	r0, pc, r0	@,
	bl	tfp_printf(PLT)	@
.LVL503:
	.loc 1 704 6 is_stmt 1 view .LVU1693
	.loc 1 705 6 view .LVU1694
	b	.L476		@
.LVL504:
.L539:
	.loc 1 705 6 is_stmt 0 view .LVU1695
.LBE286:
.LBB287:
@ src/common/iobuf.c:797: 		  for (blen = OP_MIN_PARTIAL_CHUNK * 2,
	.loc 1 797 5 view .LVU1696
	mov	r0, #1	@ prephitmp_439,
	mov	r4, #512	@ _184,
	mov	r8, #233	@ _145,
	b	.L518		@
.LVL505:
.L581:
	.loc 1 797 5 view .LVU1697
.LBE287:
	.loc 1 867 4 is_stmt 1 view .LVU1698
@ src/common/iobuf.c:867: 	  if (a->partial)
	.loc 1 867 9 is_stmt 0 view .LVU1699
	ldr	r9, [r5, #12]	@ <retval>, MEM[(struct block_filter_ctx_t *)opaque_223(D)].partial
@ src/common/iobuf.c:867: 	  if (a->partial)
	.loc 1 867 7 view .LVU1700
	cmp	r9, #0	@ <retval>,
	beq	.L529		@,
.LBB288:
	.loc 1 869 8 is_stmt 1 view .LVU1701
	.loc 1 881 8 view .LVU1702
@ src/common/iobuf.c:881: 	      len = a->buflen;
	.loc 1 881 12 is_stmt 0 view .LVU1703
	ldr	r6, [r5, #20]	@ len, MEM[(struct block_filter_ctx_t *)opaque_223(D)].buflen
.LVL506:
	.loc 1 882 8 is_stmt 1 view .LVU1704
@ src/common/iobuf.c:882: 	      if (len < 192){
	.loc 1 882 11 is_stmt 0 view .LVU1705
	cmp	r6, #191	@ len,
	bls	.L585		@,
	.loc 1 887 13 is_stmt 1 view .LVU1706
@ src/common/iobuf.c:887: 	      else if (len < 8384)
	.loc 1 887 16 is_stmt 0 view .LVU1707
	cmp	r6, #8384	@ len,
	bcs	.L532		@,
	.loc 1 889 7 is_stmt 1 view .LVU1708
	ldr	r0, .L587+44	@,
@ src/common/iobuf.c:890: 		  if (!(rc = iobuf_put (chain, ((len - 192) / 256) + 192)))
	.loc 1 890 16 is_stmt 0 view .LVU1709
	sub	r8, r6, #192	@ _149, len,
@ src/common/iobuf.c:889:       printf("2 byte header partial: remaining length=%u\n", len );
	.loc 1 889 7 view .LVU1710
	mov	r1, r6	@, len
.LPIC86:
	add	r0, pc, r0	@,
	bl	tfp_printf(PLT)	@
.LVL507:
	.loc 1 890 5 is_stmt 1 view .LVU1711
@ src/common/iobuf.c:890: 		  if (!(rc = iobuf_put (chain, ((len - 192) / 256) + 192)))
	.loc 1 890 16 is_stmt 0 view .LVU1712
	lsr	r1, r8, #8	@ tmp422, _149,
	mov	r0, r7	@, chain
	add	r1, r1, #192	@, tmp422,
	bl	iobuf_writebyte(PLT)	@
.LVL508:
@ src/common/iobuf.c:890: 		  if (!(rc = iobuf_put (chain, ((len - 192) / 256) + 192)))
	.loc 1 890 8 view .LVU1713
	subs	r4, r0, #0	@ rc, tmp474
.LVL509:
	.loc 1 890 8 view .LVU1714
	beq	.L586		@,
.LVL510:
.L533:
	.loc 1 907 8 is_stmt 1 view .LVU1715
@ src/common/iobuf.c:907: 	      if (rc)
	.loc 1 907 11 is_stmt 0 view .LVU1716
	subs	r4, r4, #0	@ tmp444, rc,
@ src/common/iobuf.c:913: 	      xfree (a->buffer);
	.loc 1 913 8 view .LVU1717
	ldr	r0, [r5, #16]	@, MEM[(struct block_filter_ctx_t *)opaque_223(D)].buffer
@ src/common/iobuf.c:907: 	      if (rc)
	.loc 1 907 11 view .LVU1718
	movne	r4, #1	@ tmp444,
.LVL511:
	.loc 1 907 11 view .LVU1719
	rsb	r9, r4, #0	@ <retval>, tmp444
.LVL512:
	.loc 1 913 8 is_stmt 1 view .LVU1720
	bl	xfree(PLT)	@
.LVL513:
	.loc 1 914 8 view .LVU1721
@ src/common/iobuf.c:914: 	      a->buffer = NULL;
	.loc 1 914 18 is_stmt 0 view .LVU1722
	mov	r3, #0	@ tmp446,
	str	r3, [r5, #16]	@ tmp446, MEM[(struct block_filter_ctx_t *)opaque_223(D)].buffer
	.loc 1 915 8 is_stmt 1 view .LVU1723
@ src/common/iobuf.c:915: 	      a->buflen = 0;
	.loc 1 915 18 is_stmt 0 view .LVU1724
	str	r3, [r5, #20]	@ tmp446, MEM[(struct block_filter_ctx_t *)opaque_223(D)].buflen
	b	.L529		@
.LVL514:
.L584:
	.loc 1 915 18 view .LVU1725
.LBE288:
.LBB289:
	.loc 1 785 3 is_stmt 1 view .LVU1726
@ src/common/iobuf.c:785: 		a->buffer = xmalloc (OP_MIN_PARTIAL_CHUNK);
	.loc 1 785 15 is_stmt 0 view .LVU1727
	mov	r0, #512	@,
	bl	xmalloc(PLT)	@
.LVL515:
	mov	r3, r0	@ tmp469,
@ src/common/iobuf.c:785: 		a->buffer = xmalloc (OP_MIN_PARTIAL_CHUNK);
	.loc 1 785 13 view .LVU1728
	str	r3, [r5, #16]	@ _123, MEM[(struct block_filter_ctx_t *)opaque_223(D)].buffer
@ src/common/iobuf.c:786: 	      memcpy (a->buffer + a->buflen, buf, size);
	.loc 1 786 29 view .LVU1729
	ldr	r0, [r5, #20]	@ _122, MEM[(struct block_filter_ctx_t *)opaque_223(D)].buflen
	b	.L517		@
.LVL516:
.L532:
	.loc 1 786 29 view .LVU1730
.LBE289:
.LBB290:
	.loc 1 895 7 is_stmt 1 view .LVU1731
	ldr	r0, .L587+48	@,
	mov	r1, r6	@, len
.LPIC87:
	add	r0, pc, r0	@,
	bl	tfp_printf(PLT)	@
.LVL517:
	.loc 1 897 5 view .LVU1732
@ src/common/iobuf.c:897: 		  if (!(rc = iobuf_put (chain, 0xff)))
	.loc 1 897 16 is_stmt 0 view .LVU1733
	mov	r1, #255	@,
	mov	r0, r7	@, chain
	bl	iobuf_writebyte(PLT)	@
.LVL518:
@ src/common/iobuf.c:897: 		  if (!(rc = iobuf_put (chain, 0xff)))
	.loc 1 897 8 view .LVU1734
	subs	r4, r0, #0	@ rc, tmp476
.LVL519:
	.loc 1 897 8 view .LVU1735
	bne	.L533		@,
	.loc 1 898 7 is_stmt 1 view .LVU1736
@ src/common/iobuf.c:898: 		    if (!(rc = iobuf_put (chain, (len >> 24) & 0xff)))
	.loc 1 898 18 is_stmt 0 view .LVU1737
	lsr	r1, r6, #24	@, len,
	mov	r0, r7	@, chain
.LVL520:
	.loc 1 898 18 view .LVU1738
	bl	iobuf_writebyte(PLT)	@
.LVL521:
@ src/common/iobuf.c:898: 		    if (!(rc = iobuf_put (chain, (len >> 24) & 0xff)))
	.loc 1 898 10 view .LVU1739
	subs	r4, r0, #0	@ rc, tmp477
	bne	.L533		@,
	.loc 1 899 9 is_stmt 1 view .LVU1740
@ src/common/iobuf.c:899: 		      if (!(rc = iobuf_put (chain, (len >> 16) & 0xff)))
	.loc 1 899 20 is_stmt 0 view .LVU1741
	ubfx	r1, r6, #16, #8	@, len,,
	mov	r0, r7	@, chain
.LVL522:
	.loc 1 899 20 view .LVU1742
	bl	iobuf_writebyte(PLT)	@
.LVL523:
@ src/common/iobuf.c:899: 		      if (!(rc = iobuf_put (chain, (len >> 16) & 0xff)))
	.loc 1 899 12 view .LVU1743
	subs	r4, r0, #0	@ rc, tmp478
	bne	.L533		@,
	.loc 1 900 4 is_stmt 1 view .LVU1744
@ src/common/iobuf.c:900: 			if (!(rc = iobuf_put (chain, (len >> 8) & 0xff)))
	.loc 1 900 15 is_stmt 0 view .LVU1745
	ubfx	r1, r6, #8, #8	@, len,,
	mov	r0, r7	@, chain
.LVL524:
	.loc 1 900 15 view .LVU1746
	bl	iobuf_writebyte(PLT)	@
.LVL525:
@ src/common/iobuf.c:900: 			if (!(rc = iobuf_put (chain, (len >> 8) & 0xff)))
	.loc 1 900 7 view .LVU1747
	subs	r4, r0, #0	@ rc, tmp479
	bne	.L533		@,
	.loc 1 901 6 is_stmt 1 view .LVU1748
@ src/common/iobuf.c:901: 			  rc = iobuf_put (chain, len & 0xff);
	.loc 1 901 11 is_stmt 0 view .LVU1749
	uxtb	r1, r6	@, len
	mov	r0, r7	@, chain
.LVL526:
	.loc 1 901 11 view .LVU1750
	bl	iobuf_writebyte(PLT)	@
.LVL527:
	mov	r4, r0	@ rc, tmp480
.LVL528:
.L531:
	.loc 1 903 8 is_stmt 1 view .LVU1751
@ src/common/iobuf.c:903: 	      if (!rc && len){
	.loc 1 903 11 is_stmt 0 view .LVU1752
	clz	r3, r4	@ tmp439, rc
	cmp	r6, #0	@ len,
	lsr	r3, r3, #5	@ tmp439, tmp439,
	moveq	r3, #0	@ tmp439,
	cmp	r3, #0	@ tmp439,
	beq	.L533		@,
	.loc 1 904 5 is_stmt 1 view .LVU1753
	ldr	r0, .L587+52	@,
	mov	r1, r6	@, len
.LPIC88:
	add	r0, pc, r0	@,
	bl	tfp_printf(PLT)	@
.LVL529:
	.loc 1 905 3 view .LVU1754
@ src/common/iobuf.c:905: 		rc = iobuf_write (chain, a->buffer, len);
	.loc 1 905 8 is_stmt 0 view .LVU1755
	ldr	r1, [r5, #16]	@, MEM[(struct block_filter_ctx_t *)opaque_223(D)].buffer
	mov	r2, r6	@, len
	mov	r0, r7	@, chain
	bl	iobuf_write(PLT)	@
.LVL530:
	mov	r4, r0	@ rc, tmp481
.LVL531:
	.loc 1 905 8 view .LVU1756
	b	.L533		@
.LVL532:
.L585:
	.loc 1 883 9 is_stmt 1 view .LVU1757
@ src/common/iobuf.c:883: 		      rc = iobuf_put (chain, len);
	.loc 1 883 14 is_stmt 0 view .LVU1758
	mov	r1, r6	@, len
	mov	r0, r7	@, chain
	bl	iobuf_writebyte(PLT)	@
.LVL533:
	mov	r4, r0	@ tmp473,
.LVL534:
@ src/common/iobuf.c:884:           printf("1 byte <192 partial: remaining length=%u\n", len );
	.loc 1 884 11 view .LVU1759
	mov	r1, r6	@, len
.LVL535:
	.loc 1 884 11 is_stmt 1 view .LVU1760
	ldr	r0, .L587+56	@,
.LVL536:
	.loc 1 884 11 is_stmt 0 view .LVU1761
.LPIC85:
	add	r0, pc, r0	@,
	bl	tfp_printf(PLT)	@
.LVL537:
	b	.L531		@
.LVL538:
.L583:
	.loc 1 884 11 view .LVU1762
.LBE290:
.LBB291:
	.loc 1 724 6 is_stmt 1 view .LVU1763
	ldr	r0, .L587+60	@,
.LVL539:
@ src/common/iobuf.c:725: 			  rc = GPG_ERR_BAD_DATA;
	.loc 1 725 9 is_stmt 0 view .LVU1764
	mov	r9, #89	@ <retval>,
@ src/common/iobuf.c:724: 			  printf ("block_filter: invalid 4 byte length\n");
	.loc 1 724 6 view .LVU1765
.LPIC81:
	add	r0, pc, r0	@,
	bl	tfp_printf(PLT)	@
.LVL540:
	.loc 1 725 6 is_stmt 1 view .LVU1766
	.loc 1 726 6 view .LVU1767
	b	.L476		@
.LVL541:
.L580:
	.loc 1 726 6 is_stmt 0 view .LVU1768
.LBE291:
.LBB292:
	.loc 1 831 7 is_stmt 1 view .LVU1769
@ src/common/iobuf.c:831: 		    a->buffer = xmalloc (OP_MIN_PARTIAL_CHUNK);
	.loc 1 831 19 is_stmt 0 view .LVU1770
	mov	r0, #512	@,
	bl	xmalloc(PLT)	@
.LVL542:
@ src/common/iobuf.c:831: 		    a->buffer = xmalloc (OP_MIN_PARTIAL_CHUNK);
	.loc 1 831 17 view .LVU1771
	str	r0, [r5, #16]	@ _140, MEM[(struct block_filter_ctx_t *)opaque_223(D)].buffer
	b	.L522		@
.LVL543:
.L536:
	.loc 1 831 17 view .LVU1772
.LBE292:
.LBB293:
@ src/common/iobuf.c:658:       while (!rc && size)
	.loc 1 658 13 view .LVU1773
	mov	r6, r9	@ n, <retval>
	b	.L476		@
.LVL544:
.L586:
	.loc 1 658 13 view .LVU1774
.LBE293:
.LBB294:
	.loc 1 891 7 is_stmt 1 view .LVU1775
@ src/common/iobuf.c:891: 		    rc = iobuf_put (chain, ((len - 192) % 256));
	.loc 1 891 12 is_stmt 0 view .LVU1776
	uxtb	r1, r8	@, _149
	mov	r0, r7	@, chain
.LVL545:
	.loc 1 891 12 view .LVU1777
	bl	iobuf_writebyte(PLT)	@
.LVL546:
	mov	r4, r0	@ rc, tmp475
.LVL547:
	.loc 1 891 12 view .LVU1778
	b	.L531		@
.L588:
	.align	2
.L587:
	.word	_GLOBAL_OFFSET_TABLE_-(.LPIC75+8)
	.word	control_mode_str(GOT)
	.word	.LC53-(.LPIC76+8)
	.word	.LC54-(.LPIC77+8)
	.word	.LC59-(.LPIC82+8)
	.word	.LC55-(.LPIC78+8)
	.word	.LC56-(.LPIC79+8)
	.word	.LC60-(.LPIC83+8)
	.word	.LC61-(.LPIC84+8)
	.word	.LC66-(.LPIC89+8)
	.word	.LC57-(.LPIC80+8)
	.word	.LC63-(.LPIC86+8)
	.word	.LC64-(.LPIC87+8)
	.word	.LC65-(.LPIC88+8)
	.word	.LC62-(.LPIC85+8)
	.word	.LC58-(.LPIC81+8)
.LBE294:
	.cfi_endproc
.LFE41:
	.size	block_filter, .-block_filter
	.section	.rodata.iobuf_writestr.str1.4,"aMS",%progbits,1
	.align	2
.LC67:
	.ascii	"iobuf_writestr called on an input pipeline!\012\000"
	.section	.text.iobuf_writestr,"ax",%progbits
	.align	2
	.global	iobuf_writestr
	.syntax unified
	.arm
	.fpu softvfp
	.type	iobuf_writestr, %function
iobuf_writestr:
.LVL548:
.LFB69:
	.loc 1 2131 1 is_stmt 1 view -0
	.cfi_startproc
	@ args = 0, pretend = 0, frame = 0
	@ frame_needed = 0, uses_anonymous_args = 0
	.loc 1 2132 3 view .LVU1780
@ src/common/iobuf.c:2131: {
	.loc 1 2131 1 is_stmt 0 view .LVU1781
	push	{r4, r5, r6, lr}	@
	.cfi_def_cfa_offset 16
	.cfi_offset 4, -16
	.cfi_offset 5, -12
	.cfi_offset 6, -8
	.cfi_offset 14, -4
@ src/common/iobuf.c:2132:   if (a->use == IOBUF_INPUT || a->use == IOBUF_INPUT_TEMP)
	.loc 1 2132 6 view .LVU1782
	ldrb	r3, [r0]	@ zero_extendqisi2	@ a_6(D)->use, a_6(D)->use
	cmp	r3, #1	@ a_6(D)->use,
	bls	.L593		@,
	.loc 1 2138 3 is_stmt 1 view .LVU1783
	mov	r4, r0	@ a, tmp124
@ src/common/iobuf.c:2138:   return iobuf_write (a, buf, strlen (buf));
	.loc 1 2138 10 is_stmt 0 view .LVU1784
	mov	r0, r1	@, buf
.LVL549:
	.loc 1 2138 10 view .LVU1785
	mov	r5, r1	@ buf, tmp125
	bl	strlen(PLT)	@
.LVL550:
	.loc 1 2138 10 view .LVU1786
	mov	r2, r0	@ tmp126,
	mov	r1, r5	@, buf
	mov	r0, r4	@, a
@ src/common/iobuf.c:2139: }
	.loc 1 2139 1 view .LVU1787
	pop	{r4, r5, r6, lr}	@
	.cfi_remember_state
	.cfi_restore 14
	.cfi_restore 6
	.cfi_restore 5
	.cfi_restore 4
	.cfi_def_cfa_offset 0
.LVL551:
@ src/common/iobuf.c:2138:   return iobuf_write (a, buf, strlen (buf));
	.loc 1 2138 10 view .LVU1788
	b	iobuf_write(PLT)	@
.LVL552:
.L593:
	.cfi_restore_state
	.loc 1 2134 7 is_stmt 1 view .LVU1789
	ldr	r0, .L595	@,
.LVL553:
	.loc 1 2134 7 is_stmt 0 view .LVU1790
.LPIC90:
	add	r0, pc, r0	@,
	bl	tfp_printf(PLT)	@
.LVL554:
	.loc 1 2135 7 is_stmt 1 view .LVU1791
@ src/common/iobuf.c:2139: }
	.loc 1 2139 1 is_stmt 0 view .LVU1792
	mvn	r0, #0	@,
	pop	{r4, r5, r6, pc}	@
.L596:
	.align	2
.L595:
	.word	.LC67-(.LPIC90+8)
	.cfi_endproc
.LFE69:
	.size	iobuf_writestr, .-iobuf_writestr
	.section	.rodata.iobuf_temp_to_buffer.str1.4,"aMS",%progbits,1
	.align	2
.LC68:
	.ascii	"Flushing iobuf %d.%d (%s) from iobuf_temp_to_buffer"
	.ascii	" failed.  Ignoring.\012\000"
	.section	.text.iobuf_temp_to_buffer,"ax",%progbits
	.align	2
	.global	iobuf_temp_to_buffer
	.syntax unified
	.arm
	.fpu softvfp
	.type	iobuf_temp_to_buffer, %function
iobuf_temp_to_buffer:
.LVL555:
.LFB71:
	.loc 1 2155 1 is_stmt 1 view -0
	.cfi_startproc
	@ args = 0, pretend = 0, frame = 48
	@ frame_needed = 0, uses_anonymous_args = 0
	.loc 1 2155 1 is_stmt 0 view .LVU1794
	push	{r4, r5, r6, r7, r8, r9, r10, fp, lr}	@
	.cfi_def_cfa_offset 36
	.cfi_offset 4, -36
	.cfi_offset 5, -32
	.cfi_offset 6, -28
	.cfi_offset 7, -24
	.cfi_offset 8, -20
	.cfi_offset 9, -16
	.cfi_offset 10, -12
	.cfi_offset 11, -8
	.cfi_offset 14, -4
	sub	sp, sp, #60	@,,
	.cfi_def_cfa_offset 96
.LBB300:
@ src/common/iobuf.c:2163: 	printf ("Flushing iobuf %d.%d (%s) from iobuf_temp_to_buffer failed.  Ignoring.\n",
	.loc 1 2163 2 view .LVU1795
	ldr	r10, .L609	@ tmp139,
.LBE300:
@ src/common/iobuf.c:2155: {
	.loc 1 2155 1 view .LVU1796
	mov	r4, r0	@ a, tmp141
.LBB319:
.LBB301:
.LBB302:
.LBB303:
.LBB304:
@ src/common/iobuf.c:944:     memcpy (buf, "?", 2);
	.loc 1 944 5 view .LVU1797
	ldr	fp, .L609+4	@ tmp140,
.LBE304:
.LBE303:
@ src/common/iobuf.c:941:   size_t len = MAX_IOBUF_DESC;
	.loc 1 941 10 view .LVU1798
	mov	r9, #32	@ tmp138,
.LBE302:
.LBE301:
@ src/common/iobuf.c:2163: 	printf ("Flushing iobuf %d.%d (%s) from iobuf_temp_to_buffer failed.  Ignoring.\n",
	.loc 1 2163 2 view .LVU1799
.LPIC92:
	add	r10, pc, r10	@ tmp139, tmp139
.LBB314:
.LBB309:
.LBB307:
.LBB305:
@ src/common/iobuf.c:944:     memcpy (buf, "?", 2);
	.loc 1 944 5 view .LVU1800
.LPIC91:
	add	fp, pc, fp	@ tmp140, tmp140
.LBE305:
.LBE307:
.LBE309:
.LBE314:
.LBE319:
@ src/common/iobuf.c:2155: {
	.loc 1 2155 1 view .LVU1801
	str	r1, [sp, #8]	@ tmp142, %sfp
	str	r2, [sp, #12]	@ tmp143, %sfp
	b	.L601		@
.LVL556:
.L598:
.LBB320:
	.loc 1 2165 7 is_stmt 1 view .LVU1802
@ src/common/iobuf.c:2165:       if (! a->chain)
	.loc 1 2165 14 is_stmt 0 view .LVU1803
	ldr	r3, [r4, #60]	@ _4, a_6->chain
@ src/common/iobuf.c:2165:       if (! a->chain)
	.loc 1 2165 10 view .LVU1804
	cmp	r3, #0	@ _4,
	beq	.L607		@,
.LVL557:
.L602:
	.loc 1 2165 10 view .LVU1805
	mov	r4, r3	@ a, _4
.LVL558:
.L601:
	.loc 1 2165 10 view .LVU1806
.LBE320:
	.loc 1 2156 3 is_stmt 1 view .LVU1807
	.loc 1 2157 3 view .LVU1808
	.loc 1 2159 3 view .LVU1809
.LBB321:
	.loc 1 2161 7 view .LVU1810
@ src/common/iobuf.c:2161:       int rc = filter_flush (a);
	.loc 1 2161 16 is_stmt 0 view .LVU1811
	mov	r0, r4	@, a
	bl	filter_flush(PLT)	@
.LVL559:
	.loc 1 2162 7 is_stmt 1 view .LVU1812
@ src/common/iobuf.c:2162:       if (rc)
	.loc 1 2162 10 is_stmt 0 view .LVU1813
	cmp	r0, #0	@ tmp144,
	beq	.L598		@,
	.loc 1 2163 2 is_stmt 1 view .LVU1814
.LBB315:
.LBB310:
	.loc 1 946 5 view .LVU1815
@ src/common/iobuf.c:943:   if (! a || ! a->filter)
	.loc 1 943 17 is_stmt 0 view .LVU1816
	ldr	r6, [r4, #44]	@ _22, a_6->filter
@ src/common/iobuf.c:946:     a->filter (a->filter_ov, IOBUFCTRL_DESC, NULL, buf, &len);
	.loc 1 946 5 view .LVU1817
	add	r5, sp, #24	@ tmp137,,
.LBE310:
.LBE315:
@ src/common/iobuf.c:2163: 	printf ("Flushing iobuf %d.%d (%s) from iobuf_temp_to_buffer failed.  Ignoring.\n",
	.loc 1 2163 2 view .LVU1818
	ldr	r7, [r4, #64]	@ _1, a_6->no
.LBB316:
.LBB311:
@ src/common/iobuf.c:946:     a->filter (a->filter_ov, IOBUFCTRL_DESC, NULL, buf, &len);
	.loc 1 946 5 view .LVU1819
	add	ip, sp, #20	@ tmp131,,
.LBE311:
.LBE316:
@ src/common/iobuf.c:2163: 	printf ("Flushing iobuf %d.%d (%s) from iobuf_temp_to_buffer failed.  Ignoring.\n",
	.loc 1 2163 2 view .LVU1820
	ldr	r8, [r4, #68]	@ _2, a_6->subno
.LVL560:
.LBB317:
.LBI301:
	.loc 1 939 1 is_stmt 1 view .LVU1821
.LBB312:
	.loc 1 941 3 view .LVU1822
@ src/common/iobuf.c:943:   if (! a || ! a->filter)
	.loc 1 943 11 is_stmt 0 view .LVU1823
	cmp	r6, #0	@ _22,
@ src/common/iobuf.c:941:   size_t len = MAX_IOBUF_DESC;
	.loc 1 941 10 view .LVU1824
	str	r9, [sp, #20]	@ tmp138, len
	.loc 1 943 3 is_stmt 1 view .LVU1825
@ src/common/iobuf.c:946:     a->filter (a->filter_ov, IOBUFCTRL_DESC, NULL, buf, &len);
	.loc 1 946 5 is_stmt 0 view .LVU1826
	mov	r3, r5	@, tmp137
	mov	r2, #0	@,
	mov	r1, #5	@,
@ src/common/iobuf.c:943:   if (! a || ! a->filter)
	.loc 1 943 11 view .LVU1827
	beq	.L608		@,
@ src/common/iobuf.c:946:     a->filter (a->filter_ov, IOBUFCTRL_DESC, NULL, buf, &len);
	.loc 1 946 5 view .LVU1828
	ldr	r0, [r4, #48]	@ a_6->filter_ov, a_6->filter_ov
.LVL561:
	.loc 1 946 5 view .LVU1829
	str	ip, [sp]	@ tmp131,
	blx	r6		@ _22
.LVL562:
.L600:
	.loc 1 948 3 is_stmt 1 view .LVU1830
	.loc 1 948 3 is_stmt 0 view .LVU1831
.LBE312:
.LBE317:
@ src/common/iobuf.c:2163: 	printf ("Flushing iobuf %d.%d (%s) from iobuf_temp_to_buffer failed.  Ignoring.\n",
	.loc 1 2163 2 view .LVU1832
	mov	r3, r5	@, tmp137
	mov	r2, r8	@, _2
	mov	r1, r7	@, _1
	mov	r0, r10	@, tmp139
	bl	tfp_printf(PLT)	@
.LVL563:
	.loc 1 2165 7 is_stmt 1 view .LVU1833
@ src/common/iobuf.c:2165:       if (! a->chain)
	.loc 1 2165 14 is_stmt 0 view .LVU1834
	ldr	r3, [r4, #60]	@ _4, a_6->chain
@ src/common/iobuf.c:2165:       if (! a->chain)
	.loc 1 2165 10 view .LVU1835
	cmp	r3, #0	@ _4,
	bne	.L602		@,
.L607:
	.loc 1 2165 10 view .LVU1836
.LBE321:
	.loc 1 2170 3 is_stmt 1 view .LVU1837
@ src/common/iobuf.c:2170:   n = a->d.len;
	.loc 1 2170 5 is_stmt 0 view .LVU1838
	ldr	r2, [r4, #28]	@ n, a_6->d.len
.LVL564:
	.loc 1 2171 3 is_stmt 1 view .LVU1839
	ldr	r3, [sp, #12]	@ buflen, %sfp
@ src/common/iobuf.c:2173:   memcpy (buffer, a->d.buf, n);
	.loc 1 2173 3 is_stmt 0 view .LVU1840
	ldr	r1, [r4, #32]	@, a_6->d.buf
	cmp	r2, r3	@ n, buflen
	ldr	r0, [sp, #8]	@, %sfp
	movcc	r4, r2	@ <retval>, n
.LVL565:
	.loc 1 2173 3 view .LVU1841
	movcs	r4, r3	@ <retval>, buflen
.LVL566:
	.loc 1 2173 3 is_stmt 1 view .LVU1842
	mov	r2, r4	@, <retval>
	bl	memcpy(PLT)	@
.LVL567:
	.loc 1 2174 3 view .LVU1843
@ src/common/iobuf.c:2175: }
	.loc 1 2175 1 is_stmt 0 view .LVU1844
	mov	r0, r4	@, <retval>
	add	sp, sp, #60	@,,
	.cfi_remember_state
	.cfi_def_cfa_offset 36
	@ sp needed	@
	pop	{r4, r5, r6, r7, r8, r9, r10, fp, pc}	@
.LVL568:
.L608:
	.cfi_restore_state
.LBB322:
.LBB318:
.LBB313:
.LBB308:
.LBI303:
	.loc 1 939 1 is_stmt 1 view .LVU1845
.LBB306:
	.loc 1 944 5 view .LVU1846
	mov	r2, #2	@,
	mov	r1, fp	@, tmp140
	mov	r0, r5	@, tmp137
.LVL569:
	.loc 1 944 5 is_stmt 0 view .LVU1847
	bl	memcpy(PLT)	@
.LVL570:
	b	.L600		@
.L610:
	.align	2
.L609:
	.word	.LC68-(.LPIC92+8)
	.word	.LC6-(.LPIC91+8)
.LBE306:
.LBE308:
.LBE313:
.LBE318:
.LBE322:
	.cfi_endproc
.LFE71:
	.size	iobuf_temp_to_buffer, .-iobuf_temp_to_buffer
	.section	.rodata.iobuf_copy.str1.4,"aMS",%progbits,1
	.align	2
.LC69:
	.ascii	"iobuf_copy\012\000"
	.section	.text.iobuf_copy,"ax",%progbits
	.align	2
	.global	iobuf_copy
	.syntax unified
	.arm
	.fpu softvfp
	.type	iobuf_copy, %function
iobuf_copy:
.LVL571:
.LFB72:
	.loc 1 2182 1 is_stmt 1 view -0
	.cfi_startproc
	@ args = 0, pretend = 0, frame = 0
	@ frame_needed = 0, uses_anonymous_args = 0
	.loc 1 2183 3 view .LVU1849
@ src/common/iobuf.c:2182: {
	.loc 1 2182 1 is_stmt 0 view .LVU1850
	push	{r4, r5, r6, r7, r8, r9, r10, lr}	@
	.cfi_def_cfa_offset 32
	.cfi_offset 4, -32
	.cfi_offset 5, -28
	.cfi_offset 6, -24
	.cfi_offset 7, -20
	.cfi_offset 8, -16
	.cfi_offset 9, -12
	.cfi_offset 10, -8
	.cfi_offset 14, -4
@ src/common/iobuf.c:2182: {
	.loc 1 2182 1 view .LVU1851
	mov	r8, r0	@ tmp127, dest
@ src/common/iobuf.c:2183:   printf("iobuf_copy\n");
	.loc 1 2183 3 view .LVU1852
	ldr	r0, .L626	@,
.LVL572:
@ src/common/iobuf.c:2182: {
	.loc 1 2182 1 view .LVU1853
	mov	r9, r1	@ source, tmp128
@ src/common/iobuf.c:2183:   printf("iobuf_copy\n");
	.loc 1 2183 3 view .LVU1854
.LPIC93:
	add	r0, pc, r0	@,
	bl	tfp_printf(PLT)	@
.LVL573:
	.loc 1 2184 3 is_stmt 1 view .LVU1855
	.loc 1 2186 3 view .LVU1856
	.loc 1 2188 3 view .LVU1857
	.loc 1 2189 3 view .LVU1858
	.loc 1 2190 3 view .LVU1859
	.loc 1 2191 3 view .LVU1860
	.loc 1 2196 3 view .LVU1861
@ src/common/iobuf.c:2196:   if (iobuf_error (dest))
	.loc 1 2196 6 is_stmt 0 view .LVU1862
	ldr	r5, [r8, #40]	@ dest_14(D)->error, dest_14(D)->error
	cmp	r5, #0	@ dest_14(D)->error,
@ src/common/iobuf.c:2197:     return (size_t)(-1);
	.loc 1 2197 12 view .LVU1863
	mvnne	r7, #0	@ <retval>,
@ src/common/iobuf.c:2196:   if (iobuf_error (dest))
	.loc 1 2196 6 view .LVU1864
	bne	.L611		@,
	.loc 1 2199 3 is_stmt 1 view .LVU1865
@ src/common/iobuf.c:2199:   temp = xmalloc (temp_size);
	.loc 1 2199 10 is_stmt 0 view .LVU1866
	mov	r0, #32768	@,
@ src/common/iobuf.c:2189:   size_t nwrote = 0;
	.loc 1 2189 10 view .LVU1867
	mov	r7, r5	@ <retval>, max_read
@ src/common/iobuf.c:2199:   temp = xmalloc (temp_size);
	.loc 1 2199 10 view .LVU1868
	bl	xmalloc(PLT)	@
.LVL574:
	mov	r6, r0	@ temp, tmp129
.LVL575:
	.loc 1 2199 10 view .LVU1869
	b	.L614		@
.LVL576:
.L624:
	.loc 1 2199 10 view .LVU1870
	cmp	r5, r4	@ max_read, _2
	movcc	r5, r4	@ max_read, _2
.LVL577:
	.loc 1 2210 7 is_stmt 1 view .LVU1871
@ src/common/iobuf.c:2210:       err = iobuf_write (dest, temp, nread);
	.loc 1 2210 13 is_stmt 0 view .LVU1872
	bl	iobuf_write(PLT)	@
.LVL578:
	.loc 1 2213 7 is_stmt 1 view .LVU1873
	.loc 1 2211 7 view .LVU1874
@ src/common/iobuf.c:2211:       if (err)
	.loc 1 2211 10 is_stmt 0 view .LVU1875
	cmp	r0, #0	@ tmp131,
	bne	.L613		@,
@ src/common/iobuf.c:2213:       nwrote += nread;
	.loc 1 2213 14 view .LVU1876
	add	r7, r7, r4	@ <retval>, <retval>, _2
.LVL579:
	.loc 1 2200 9 is_stmt 1 view .LVU1877
.L614:
	.loc 1 2200 3 view .LVU1878
	.loc 1 2202 7 view .LVU1879
@ src/common/iobuf.c:2202:       nread = iobuf_read (source, temp, temp_size);
	.loc 1 2202 15 is_stmt 0 view .LVU1880
	mov	r1, r6	@, temp
	mov	r2, #32768	@,
	mov	r0, r9	@, source
	bl	iobuf_read(PLT)	@
.LVL580:
	.loc 1 2207 7 is_stmt 1 view .LVU1881
@ src/common/iobuf.c:2202:       nread = iobuf_read (source, temp, temp_size);
	.loc 1 2202 15 is_stmt 0 view .LVU1882
	mov	r4, r0	@ tmp130,
@ src/common/iobuf.c:2210:       err = iobuf_write (dest, temp, nread);
	.loc 1 2210 13 view .LVU1883
	mov	r1, r6	@, temp
@ src/common/iobuf.c:2203:       if (nread == -1)
	.loc 1 2203 10 view .LVU1884
	cmn	r4, #1	@ _2,
@ src/common/iobuf.c:2210:       err = iobuf_write (dest, temp, nread);
	.loc 1 2210 13 view .LVU1885
	mov	r0, r8	@, dest
.LVL581:
	.loc 1 2203 7 is_stmt 1 view .LVU1886
@ src/common/iobuf.c:2210:       err = iobuf_write (dest, temp, nread);
	.loc 1 2210 13 is_stmt 0 view .LVU1887
	mov	r2, r4	@, _2
@ src/common/iobuf.c:2203:       if (nread == -1)
	.loc 1 2203 10 view .LVU1888
	bne	.L624		@,
.L613:
	.loc 1 2217 3 is_stmt 1 view .LVU1889
@ src/common/iobuf.c:2217:   if (max_read)
	.loc 1 2217 6 is_stmt 0 view .LVU1890
	cmp	r5, #0	@ max_read,
	bne	.L625		@,
.L615:
	.loc 1 2219 3 is_stmt 1 view .LVU1891
	mov	r0, r6	@, temp
	bl	xfree(PLT)	@
.LVL582:
	.loc 1 2221 3 view .LVU1892
.L611:
@ src/common/iobuf.c:2222: }
	.loc 1 2222 1 is_stmt 0 view .LVU1893
	mov	r0, r7	@, <retval>
	pop	{r4, r5, r6, r7, r8, r9, r10, pc}	@
.LVL583:
.L625:
	.loc 1 2218 5 is_stmt 1 view .LVU1894
	mov	r1, r5	@, max_read
	mov	r0, r6	@, temp
	bl	wipememory(PLT)	@
.LVL584:
	b	.L615		@
.L627:
	.align	2
.L626:
	.word	.LC69-(.LPIC93+8)
	.cfi_endproc
.LFE72:
	.size	iobuf_copy, .-iobuf_copy
	.section	.rodata.iobuf_flush_temp.str1.4,"aMS",%progbits,1
	.align	2
.LC70:
	.ascii	"iobuf_flush_temp called on an input pipeline!\012\000"
	.section	.text.iobuf_flush_temp,"ax",%progbits
	.align	2
	.global	iobuf_flush_temp
	.syntax unified
	.arm
	.fpu softvfp
	.type	iobuf_flush_temp, %function
iobuf_flush_temp:
.LVL585:
.LFB73:
	.loc 1 2227 1 view -0
	.cfi_startproc
	@ args = 0, pretend = 0, frame = 0
	@ frame_needed = 0, uses_anonymous_args = 0
	.loc 1 2228 3 view .LVU1896
@ src/common/iobuf.c:2227: {
	.loc 1 2227 1 is_stmt 0 view .LVU1897
	push	{r4, lr}	@
	.cfi_def_cfa_offset 8
	.cfi_offset 4, -8
	.cfi_offset 14, -4
@ src/common/iobuf.c:2227: {
	.loc 1 2227 1 view .LVU1898
	mov	r4, r0	@ temp, tmp127
@ src/common/iobuf.c:2228:   if (temp->use == IOBUF_INPUT || temp->use == IOBUF_INPUT_TEMP)
	.loc 1 2228 6 view .LVU1899
	ldrb	r3, [r0]	@ zero_extendqisi2	@ temp_6(D)->use, temp_6(D)->use
	cmp	r3, #1	@ temp_6(D)->use,
	bls	.L637		@,
.LVL586:
.L629:
	.loc 1 2230 9 is_stmt 1 view .LVU1900
	ldr	r3, [r4, #60]	@ temp_6(D)->chain, temp_6(D)->chain
	cmp	r3, #0	@ temp_6(D)->chain,
	popeq	{r4, pc}	@
.L631:
	.loc 1 2231 5 view .LVU1901
	ldr	r1, [r4, #44]	@, temp_6(D)->filter
	mov	r2, #0	@,
	mov	r0, r4	@, temp
	bl	iobuf_pop_filter(PLT)	@
.LVL587:
	.loc 1 2230 9 view .LVU1902
	ldr	r3, [r4, #60]	@ temp_6(D)->chain, temp_6(D)->chain
	cmp	r3, #0	@ temp_6(D)->chain,
	bne	.L631		@,
	pop	{r4, pc}	@
.LVL588:
.L637:
	.loc 1 2229 5 view .LVU1903
	ldr	r0, .L638	@,
.LVL589:
	.loc 1 2229 5 is_stmt 0 view .LVU1904
.LPIC94:
	add	r0, pc, r0	@,
	bl	tfp_printf(PLT)	@
.LVL590:
	b	.L629		@
.L639:
	.align	2
.L638:
	.word	.LC70-(.LPIC94+8)
	.cfi_endproc
.LFE73:
	.size	iobuf_flush_temp, .-iobuf_flush_temp
	.section	.text.iobuf_write_temp,"ax",%progbits
	.align	2
	.global	iobuf_write_temp
	.syntax unified
	.arm
	.fpu softvfp
	.type	iobuf_write_temp, %function
iobuf_write_temp:
.LVL591:
.LFB70:
	.loc 1 2145 1 is_stmt 1 view -0
	.cfi_startproc
	@ args = 0, pretend = 0, frame = 0
	@ frame_needed = 0, uses_anonymous_args = 0
	.loc 1 2149 3 view .LVU1906
@ src/common/iobuf.c:2145: {
	.loc 1 2145 1 is_stmt 0 view .LVU1907
	push	{r4, r5, r6, lr}	@
	.cfi_def_cfa_offset 16
	.cfi_offset 4, -16
	.cfi_offset 5, -12
	.cfi_offset 6, -8
	.cfi_offset 14, -4
@ src/common/iobuf.c:2145: {
	.loc 1 2145 1 view .LVU1908
	mov	r4, r1	@ source, tmp121
	mov	r5, r0	@ dest, tmp120
@ src/common/iobuf.c:2149:   iobuf_flush_temp (source);
	.loc 1 2149 3 view .LVU1909
	mov	r0, r1	@, source
.LVL592:
	.loc 1 2149 3 view .LVU1910
	bl	iobuf_flush_temp(PLT)	@
.LVL593:
	.loc 1 2150 3 is_stmt 1 view .LVU1911
@ src/common/iobuf.c:2150:   return iobuf_write (dest, source->d.buf, source->d.len);
	.loc 1 2150 10 is_stmt 0 view .LVU1912
	ldr	r2, [r4, #28]	@, source_4(D)->d.len
	mov	r0, r5	@, dest
	ldr	r1, [r4, #32]	@, source_4(D)->d.buf
@ src/common/iobuf.c:2151: }
	.loc 1 2151 1 view .LVU1913
	pop	{r4, r5, r6, lr}	@
	.cfi_restore 14
	.cfi_restore 6
	.cfi_restore 5
	.cfi_restore 4
	.cfi_def_cfa_offset 0
.LVL594:
@ src/common/iobuf.c:2150:   return iobuf_write (dest, source->d.buf, source->d.len);
	.loc 1 2150 10 view .LVU1914
	b	iobuf_write(PLT)	@
.LVL595:
	.loc 1 2150 10 view .LVU1915
	.cfi_endproc
.LFE70:
	.size	iobuf_write_temp, .-iobuf_write_temp
	.section	.text.iobuf_set_limit,"ax",%progbits
	.align	2
	.global	iobuf_set_limit
	.syntax unified
	.arm
	.fpu softvfp
	.type	iobuf_set_limit, %function
iobuf_set_limit:
.LVL596:
.LFB74:
	.loc 1 2237 1 is_stmt 1 view -0
	.cfi_startproc
	@ args = 0, pretend = 0, frame = 0
	@ frame_needed = 0, uses_anonymous_args = 0
	@ link register save eliminated.
	.loc 1 2238 3 view .LVU1917
@ src/common/iobuf.c:2243:   a->ntotal += a->nbytes;
	.loc 1 2243 13 is_stmt 0 view .LVU1918
	ldr	r3, [r0, #12]	@ a_7(D)->ntotal, a_7(D)->ntotal
@ src/common/iobuf.c:2244:   a->nbytes = 0;
	.loc 1 2244 13 view .LVU1919
	mov	ip, #0	@ tmp125,
@ src/common/iobuf.c:2238:   if (nlimit)
	.loc 1 2238 6 view .LVU1920
	subs	r2, r1, ip	@ tmp121, tmp127,
@ src/common/iobuf.c:2242:   a->nlimit = nlimit;
	.loc 1 2242 13 view .LVU1921
	str	r1, [r0, #4]	@ tmp127, a_7(D)->nlimit
@ src/common/iobuf.c:2238:   if (nlimit)
	.loc 1 2238 6 view .LVU1922
	movne	r2, #1	@ tmp121,
	str	r2, [r0, #16]	@ tmp121, a_7(D)->nofast
	.loc 1 2242 3 is_stmt 1 view .LVU1923
	.loc 1 2243 3 view .LVU1924
@ src/common/iobuf.c:2243:   a->ntotal += a->nbytes;
	.loc 1 2243 13 is_stmt 0 view .LVU1925
	ldr	r2, [r0, #8]	@ a_7(D)->nbytes, a_7(D)->nbytes
@ src/common/iobuf.c:2244:   a->nbytes = 0;
	.loc 1 2244 13 view .LVU1926
	str	ip, [r0, #8]	@ tmp125, a_7(D)->nbytes
@ src/common/iobuf.c:2243:   a->ntotal += a->nbytes;
	.loc 1 2243 13 view .LVU1927
	add	r3, r3, r2	@ tmp122, a_7(D)->ntotal, a_7(D)->nbytes
	str	r3, [r0, #12]	@ tmp122, a_7(D)->ntotal
	.loc 1 2244 3 is_stmt 1 view .LVU1928
@ src/common/iobuf.c:2245: }
	.loc 1 2245 1 is_stmt 0 view .LVU1929
	bx	lr	@
	.cfi_endproc
.LFE74:
	.size	iobuf_set_limit, .-iobuf_set_limit
	.section	.rodata.iobuf_get_filelength.str1.4,"aMS",%progbits,1
	.align	2
.LC71:
	.ascii	"fstat() failed: %s\012\000"
	.section	.text.iobuf_get_filelength,"ax",%progbits
	.align	2
	.global	iobuf_get_filelength
	.syntax unified
	.arm
	.fpu softvfp
	.type	iobuf_get_filelength, %function
iobuf_get_filelength:
.LVL597:
.LFB75:
	.loc 1 2251 1 is_stmt 1 view -0
	.cfi_startproc
	@ args = 0, pretend = 0, frame = 0
	@ frame_needed = 0, uses_anonymous_args = 0
	.loc 1 2251 1 is_stmt 0 view .LVU1931
	ldr	r1, .L652	@ tmp119,
.LPIC95:
	add	r1, pc, r1	@ tmp119, tmp119
	.loc 1 2253 3 is_stmt 1 view .LVU1932
.LVL598:
.L644:
	.loc 1 2253 11 discriminator 1 view .LVU1933
	mov	r3, r0	@ a, a
@ src/common/iobuf.c:2253:   for ( ; a->chain; a = a->chain )
	.loc 1 2253 12 is_stmt 0 discriminator 1 view .LVU1934
	ldr	r0, [r0, #60]	@ a, a_3->chain
.LVL599:
@ src/common/iobuf.c:2253:   for ( ; a->chain; a = a->chain )
	.loc 1 2253 3 discriminator 1 view .LVU1935
	cmp	r0, #0	@ a,
	bne	.L644		@,
	.loc 1 2256 3 is_stmt 1 view .LVU1936
@ src/common/iobuf.c:2256:   if (a->filter != file_filter)
	.loc 1 2256 6 is_stmt 0 view .LVU1937
	ldr	r2, .L652+4	@ tmp125,
	ldr	r0, [r3, #44]	@ a_8->filter, a_8->filter
	ldr	r3, [r1, r2]	@ tmp118,
.LVL600:
	.loc 1 2256 6 view .LVU1938
	cmp	r0, r3	@ a_8->filter, tmp118
	beq	.L651		@,
@ src/common/iobuf.c:2280: }
	.loc 1 2280 1 view .LVU1939
	mov	r0, #0	@,
	mov	r1, #0	@,
	bx	lr	@
.L651:
.LBB323:
	.loc 1 2260 5 is_stmt 1 view .LVU1940
.LVL601:
	.loc 1 2261 5 view .LVU1941
	.loc 1 2271 5 view .LVU1942
	.loc 1 2275 5 view .LVU1943
	ldr	r0, .L652+8	@,
.LBE323:
@ src/common/iobuf.c:2251: {
	.loc 1 2251 1 is_stmt 0 view .LVU1944
	push	{r4, lr}	@
	.cfi_def_cfa_offset 8
	.cfi_offset 4, -8
	.cfi_offset 14, -4
.LBB324:
@ src/common/iobuf.c:2275:     printf("fstat() failed: %s\n");//, strerror(errno) );
	.loc 1 2275 5 view .LVU1945
.LPIC96:
	add	r0, pc, r0	@,
	bl	tfp_printf(PLT)	@
.LVL602:
	.loc 1 2275 5 view .LVU1946
.LBE324:
	.loc 1 2279 3 is_stmt 1 view .LVU1947
@ src/common/iobuf.c:2280: }
	.loc 1 2280 1 is_stmt 0 view .LVU1948
	mov	r0, #0	@,
	mov	r1, #0	@,
	pop	{r4, pc}	@
.L653:
	.align	2
.L652:
	.word	_GLOBAL_OFFSET_TABLE_-(.LPIC95+8)
	.word	file_filter(GOT)
	.word	.LC71-(.LPIC96+8)
	.cfi_endproc
.LFE75:
	.size	iobuf_get_filelength, .-iobuf_get_filelength
	.section	.rodata.iobuf_get_fd.str1.4,"aMS",%progbits,1
	.align	2
.LC72:
	.ascii	"iobuf_get_fd\012\000"
	.section	.text.iobuf_get_fd,"ax",%progbits
	.align	2
	.global	iobuf_get_fd
	.syntax unified
	.arm
	.fpu softvfp
	.type	iobuf_get_fd, %function
iobuf_get_fd:
.LVL603:
.LFB76:
	.loc 1 2285 1 is_stmt 1 view -0
	.cfi_startproc
	@ args = 0, pretend = 0, frame = 8
	@ frame_needed = 0, uses_anonymous_args = 0
	.loc 1 2286 3 view .LVU1950
@ src/common/iobuf.c:2285: {
	.loc 1 2285 1 is_stmt 0 view .LVU1951
	push	{r4, r5, lr}	@
	.cfi_def_cfa_offset 12
	.cfi_offset 4, -12
	.cfi_offset 5, -8
	.cfi_offset 14, -4
	sub	sp, sp, #12	@,,
	.cfi_def_cfa_offset 24
@ src/common/iobuf.c:2285: {
	.loc 1 2285 1 view .LVU1952
	ldr	r5, .L660	@ tmp122,
	str	r0, [sp, #4]	@ a, %sfp
@ src/common/iobuf.c:2286:   printf("iobuf_get_fd\n");
	.loc 1 2286 3 view .LVU1953
	ldr	r0, .L660+4	@,
.LVL604:
@ src/common/iobuf.c:2285: {
	.loc 1 2285 1 view .LVU1954
	ldr	r4, [sp, #4]	@ a, %sfp
@ src/common/iobuf.c:2286:   printf("iobuf_get_fd\n");
	.loc 1 2286 3 view .LVU1955
.LPIC97:
	add	r0, pc, r0	@,
@ src/common/iobuf.c:2285: {
	.loc 1 2285 1 view .LVU1956
.LPIC98:
	add	r5, pc, r5	@ tmp122, tmp122
@ src/common/iobuf.c:2286:   printf("iobuf_get_fd\n");
	.loc 1 2286 3 view .LVU1957
	bl	tfp_printf(PLT)	@
.LVL605:
	.loc 1 2287 3 is_stmt 1 view .LVU1958
.L655:
	.loc 1 2287 10 discriminator 1 view .LVU1959
	mov	r3, r4	@ a, a
@ src/common/iobuf.c:2287:   for (; a->chain; a = a->chain)
	.loc 1 2287 11 is_stmt 0 discriminator 1 view .LVU1960
	ldr	r4, [r4, #60]	@ a, a_3->chain
.LVL606:
@ src/common/iobuf.c:2287:   for (; a->chain; a = a->chain)
	.loc 1 2287 3 discriminator 1 view .LVU1961
	cmp	r4, #0	@ a,
	bne	.L655		@,
	.loc 1 2290 3 is_stmt 1 view .LVU1962
@ src/common/iobuf.c:2290:   if (a->filter != file_filter)
	.loc 1 2290 6 is_stmt 0 view .LVU1963
	ldr	r2, .L660+8	@ tmp127,
	ldr	r1, [r3, #44]	@ a_10->filter, a_10->filter
	ldr	r2, [r5, r2]	@ tmp121,
	cmp	r1, r2	@ a_10->filter, tmp121
.LBB325:
	.loc 1 2294 5 is_stmt 1 view .LVU1964
.LVL607:
	.loc 1 2295 5 view .LVU1965
.LBE325:
@ src/common/iobuf.c:2291:     return -1;
	.loc 1 2291 12 is_stmt 0 view .LVU1966
	mvnne	r0, #0	@ <retval>,
.LBB326:
@ src/common/iobuf.c:2295:     gnupg_fd_t fp = b->fp;
	.loc 1 2295 16 view .LVU1967
	ldreq	r3, [r3, #48]	@ a_10->filter_ov, a_10->filter_ov
.LVL608:
	.loc 1 2295 16 view .LVU1968
	ldreq	r0, [r3]	@ <retval>, b_8->fp
	.loc 1 2297 5 is_stmt 1 view .LVU1969
.LBE326:
@ src/common/iobuf.c:2299: }
	.loc 1 2299 1 is_stmt 0 view .LVU1970
	add	sp, sp, #12	@,,
	.cfi_def_cfa_offset 12
	@ sp needed	@
	pop	{r4, r5, pc}	@
.L661:
	.align	2
.L660:
	.word	_GLOBAL_OFFSET_TABLE_-(.LPIC98+8)
	.word	.LC72-(.LPIC97+8)
	.word	file_filter(GOT)
	.cfi_endproc
.LFE76:
	.size	iobuf_get_fd, .-iobuf_get_fd
	.section	.text.iobuf_tell,"ax",%progbits
	.align	2
	.global	iobuf_tell
	.syntax unified
	.arm
	.fpu softvfp
	.type	iobuf_tell, %function
iobuf_tell:
.LVL609:
.LFB77:
	.loc 1 2304 1 is_stmt 1 view -0
	.cfi_startproc
	@ args = 0, pretend = 0, frame = 0
	@ frame_needed = 0, uses_anonymous_args = 0
	@ link register save eliminated.
	.loc 1 2305 3 view .LVU1972
@ src/common/iobuf.c:2305:   return a->ntotal + a->nbytes;
	.loc 1 2305 20 is_stmt 0 view .LVU1973
	ldr	r2, [r0, #12]	@ a_4(D)->ntotal, a_4(D)->ntotal
	ldr	r0, [r0, #8]	@ a_4(D)->nbytes, a_4(D)->nbytes
.LVL610:
@ src/common/iobuf.c:2306: }
	.loc 1 2306 1 view .LVU1974
	add	r0, r2, r0	@, a_4(D)->ntotal, a_4(D)->nbytes
	bx	lr	@
	.cfi_endproc
.LFE77:
	.size	iobuf_tell, .-iobuf_tell
	.section	.rodata.iobuf_seek.str1.4,"aMS",%progbits,1
	.align	2
.LC73:
	.ascii	"iobuf_pop_filter called in iobuf_seek - please repo"
	.ascii	"rt\012\000"
	.section	.text.iobuf_seek,"ax",%progbits
	.align	2
	.global	iobuf_seek
	.syntax unified
	.arm
	.fpu softvfp
	.type	iobuf_seek, %function
iobuf_seek:
.LVL611:
.LFB78:
	.loc 1 2341 1 is_stmt 1 view -0
	.cfi_startproc
	@ args = 0, pretend = 0, frame = 0
	@ frame_needed = 0, uses_anonymous_args = 0
	.loc 1 2342 3 view .LVU1976
	.loc 1 2344 3 view .LVU1977
@ src/common/iobuf.c:2341: {
	.loc 1 2341 1 is_stmt 0 view .LVU1978
	push	{r4, lr}	@
	.cfi_def_cfa_offset 8
	.cfi_offset 4, -8
	.cfi_offset 14, -4
@ src/common/iobuf.c:2341: {
	.loc 1 2341 1 view .LVU1979
	mov	r4, r0	@ a, tmp152
@ src/common/iobuf.c:2344:   if (a->use == IOBUF_OUTPUT || a->use == IOBUF_INPUT)
	.loc 1 2344 30 view .LVU1980
	ldrb	r3, [r0]	@ zero_extendqisi2	@ a_16(D)->use, a_16(D)->use
@ src/common/iobuf.c:2341: {
	.loc 1 2341 1 view .LVU1981
	ldr	r2, .L679	@ tmp131,
@ src/common/iobuf.c:2344:   if (a->use == IOBUF_OUTPUT || a->use == IOBUF_INPUT)
	.loc 1 2344 6 view .LVU1982
	tst	r3, #253	@ a_16(D)->use,
@ src/common/iobuf.c:2341: {
	.loc 1 2341 1 view .LVU1983
.LPIC99:
	add	r2, pc, r2	@ tmp131, tmp131
@ src/common/iobuf.c:2344:   if (a->use == IOBUF_OUTPUT || a->use == IOBUF_INPUT)
	.loc 1 2344 6 view .LVU1984
	beq	.L665		@,
	.loc 1 2372 3 is_stmt 1 view .LVU1985
@ src/common/iobuf.c:2389:   if (a->chain)
	.loc 1 2389 6 is_stmt 0 view .LVU1986
	ldr	r2, [r0, #60]	@ a_16(D)->chain, a_16(D)->chain
@ src/common/iobuf.c:2372:   a->d.start = 0;
	.loc 1 2372 14 view .LVU1987
	mov	r3, #0	@ tmp139,
	str	r3, [r0, #24]	@ tmp139, a_16(D)->d.start
	.loc 1 2373 3 is_stmt 1 view .LVU1988
@ src/common/iobuf.c:2389:   if (a->chain)
	.loc 1 2389 6 is_stmt 0 view .LVU1989
	cmp	r2, r3	@ a_16(D)->chain,
@ src/common/iobuf.c:2373:   a->nbytes = 0;
	.loc 1 2373 13 view .LVU1990
	str	r3, [r0, #8]	@ tmp139, a_16(D)->nbytes
	.loc 1 2374 3 is_stmt 1 view .LVU1991
@ src/common/iobuf.c:2374:   a->nlimit = 0;
	.loc 1 2374 13 is_stmt 0 view .LVU1992
	str	r3, [r0, #4]	@ tmp139, a_16(D)->nlimit
	.loc 1 2375 3 is_stmt 1 view .LVU1993
@ src/common/iobuf.c:2375:   a->nofast = 0;
	.loc 1 2375 13 is_stmt 0 view .LVU1994
	str	r3, [r0, #16]	@ tmp139, a_16(D)->nofast
	.loc 1 2376 3 is_stmt 1 view .LVU1995
@ src/common/iobuf.c:2376:   a->ntotal = newpos;
	.loc 1 2376 13 is_stmt 0 view .LVU1996
	str	r1, [r0, #12]	@ newpos, a_16(D)->ntotal
	.loc 1 2377 3 is_stmt 1 view .LVU1997
@ src/common/iobuf.c:2377:   a->error = 0;
	.loc 1 2377 12 is_stmt 0 view .LVU1998
	str	r3, [r0, #40]	@ tmp139, a_16(D)->error
	.loc 1 2389 3 is_stmt 1 view .LVU1999
@ src/common/iobuf.c:2389:   if (a->chain)
	.loc 1 2389 6 is_stmt 0 view .LVU2000
	beq	.L667		@,
	.loc 1 2390 5 is_stmt 1 view .LVU2001
	ldr	r0, .L679+4	@,
.LVL612:
	.loc 1 2390 5 is_stmt 0 view .LVU2002
.LPIC100:
	add	r0, pc, r0	@,
	bl	tfp_printf(PLT)	@
.LVL613:
	.loc 1 2391 9 is_stmt 1 view .LVU2003
	ldr	r3, [r4, #60]	@ a_16(D)->chain, a_16(D)->chain
	cmp	r3, #0	@ a_16(D)->chain,
	beq	.L667		@,
.L668:
	.loc 1 2392 5 view .LVU2004
	ldr	r1, [r4, #44]	@, a_16(D)->filter
	mov	r2, #0	@,
	mov	r0, r4	@, a
	bl	iobuf_pop_filter(PLT)	@
.LVL614:
	.loc 1 2391 9 view .LVU2005
	ldr	r3, [r4, #60]	@ a_16(D)->chain, a_16(D)->chain
	cmp	r3, #0	@ a_16(D)->chain,
	bne	.L668		@,
.L667:
	.loc 1 2391 9 view .LVU2006
@ src/common/iobuf.c:2394:   return 0;
	.loc 1 2394 10 is_stmt 0 view .LVU2007
	mov	r0, #0	@ <retval>,
@ src/common/iobuf.c:2395: }
	.loc 1 2395 1 view .LVU2008
	pop	{r4, pc}	@
.LVL615:
.L665:
	.loc 1 2347 14 is_stmt 1 discriminator 1 view .LVU2009
	mov	r3, r4	@ a, a
@ src/common/iobuf.c:2347:       for (; a->chain; a = a->chain)
	.loc 1 2347 15 is_stmt 0 discriminator 1 view .LVU2010
	ldr	r4, [r4, #60]	@ a, a_9->chain
.LVL616:
@ src/common/iobuf.c:2347:       for (; a->chain; a = a->chain)
	.loc 1 2347 7 discriminator 1 view .LVU2011
	cmp	r4, #0	@ a,
	bne	.L665		@,
	.loc 1 2350 7 is_stmt 1 view .LVU2012
@ src/common/iobuf.c:2350:       if (a->filter != file_filter)
	.loc 1 2350 10 is_stmt 0 view .LVU2013
	ldr	r0, .L679+8	@ tmp154,
	ldr	r2, [r2, r0]	@ tmp130,
	ldr	r0, [r3, #44]	@ a_29->filter, a_29->filter
	cmp	r0, r2	@ a_29->filter, tmp130
	bne	.L669		@,
	.loc 1 2353 7 is_stmt 1 view .LVU2014
.LVL617:
	.loc 1 2370 7 view .LVU2015
@ src/common/iobuf.c:2370:       a->d.len = 0;
	.loc 1 2370 16 is_stmt 0 view .LVU2016
	str	r4, [r3, #28]	@ a, a_29->d.len
	.loc 1 2372 3 is_stmt 1 view .LVU2017
@ src/common/iobuf.c:2394:   return 0;
	.loc 1 2394 10 is_stmt 0 view .LVU2018
	mov	r0, #0	@ <retval>,
@ src/common/iobuf.c:2372:   a->d.start = 0;
	.loc 1 2372 14 view .LVU2019
	str	r4, [r3, #24]	@ a, a_29->d.start
	.loc 1 2373 3 is_stmt 1 view .LVU2020
@ src/common/iobuf.c:2373:   a->nbytes = 0;
	.loc 1 2373 13 is_stmt 0 view .LVU2021
	str	r4, [r3, #8]	@ a, a_29->nbytes
	.loc 1 2374 3 is_stmt 1 view .LVU2022
@ src/common/iobuf.c:2374:   a->nlimit = 0;
	.loc 1 2374 13 is_stmt 0 view .LVU2023
	str	r4, [r3, #4]	@ a, a_29->nlimit
	.loc 1 2375 3 is_stmt 1 view .LVU2024
@ src/common/iobuf.c:2375:   a->nofast = 0;
	.loc 1 2375 13 is_stmt 0 view .LVU2025
	str	r4, [r3, #16]	@ a, a_29->nofast
	.loc 1 2376 3 is_stmt 1 view .LVU2026
@ src/common/iobuf.c:2376:   a->ntotal = newpos;
	.loc 1 2376 13 is_stmt 0 view .LVU2027
	str	r1, [r3, #12]	@ newpos, a_29->ntotal
	.loc 1 2377 3 is_stmt 1 view .LVU2028
@ src/common/iobuf.c:2377:   a->error = 0;
	.loc 1 2377 12 is_stmt 0 view .LVU2029
	str	r4, [r3, #40]	@ a, a_29->error
	.loc 1 2389 3 is_stmt 1 view .LVU2030
	.loc 1 2391 9 view .LVU2031
@ src/common/iobuf.c:2395: }
	.loc 1 2395 1 is_stmt 0 view .LVU2032
	pop	{r4, pc}	@
.LVL618:
.L669:
@ src/common/iobuf.c:2351: 	return -1;
	.loc 1 2351 9 view .LVU2033
	mvn	r0, #0	@ <retval>,
	pop	{r4, pc}	@
.L680:
	.align	2
.L679:
	.word	_GLOBAL_OFFSET_TABLE_-(.LPIC99+8)
	.word	.LC73-(.LPIC100+8)
	.word	file_filter(GOT)
	.cfi_endproc
.LFE78:
	.size	iobuf_seek, .-iobuf_seek
	.section	.text.iobuf_get_real_fname,"ax",%progbits
	.align	2
	.global	iobuf_get_real_fname
	.syntax unified
	.arm
	.fpu softvfp
	.type	iobuf_get_real_fname, %function
iobuf_get_real_fname:
.LVL619:
.LFB79:
	.loc 1 2400 1 is_stmt 1 view -0
	.cfi_startproc
	@ args = 0, pretend = 0, frame = 0
	@ frame_needed = 0, uses_anonymous_args = 0
	@ link register save eliminated.
	.loc 1 2401 3 view .LVU2035
@ src/common/iobuf.c:2400: {
	.loc 1 2400 1 is_stmt 0 view .LVU2036
	ldr	r2, .L690	@ tmp120,
	mov	r3, r0	@ a, tmp124
@ src/common/iobuf.c:2401:   if (a->real_fname)
	.loc 1 2401 8 view .LVU2037
	ldr	r0, [r0, #56]	@ <retval>, a_4(D)->real_fname
.LVL620:
@ src/common/iobuf.c:2400: {
	.loc 1 2400 1 view .LVU2038
.LPIC101:
	add	r2, pc, r2	@ tmp120, tmp120
@ src/common/iobuf.c:2401:   if (a->real_fname)
	.loc 1 2401 6 view .LVU2039
	cmp	r0, #0	@ <retval>,
	bxne	lr	@
.LVL621:
.L686:
.LBB330:
.LBB331:
@ src/common/iobuf.c:2405:   for (; a; a = a->chain)
	.loc 1 2405 3 view .LVU2040
	subs	r0, r3, #0	@ <retval>, a
	bxeq	lr	@
@ src/common/iobuf.c:2406:     if (!a->chain && a->filter == file_filter)
	.loc 1 2406 11 view .LVU2041
	ldr	r3, [r3, #60]	@ a, a_9->chain
@ src/common/iobuf.c:2406:     if (!a->chain && a->filter == file_filter)
	.loc 1 2406 8 view .LVU2042
	cmp	r3, #0	@ a,
	bne	.L686		@,
@ src/common/iobuf.c:2406:     if (!a->chain && a->filter == file_filter)
	.loc 1 2406 19 view .LVU2043
	ldr	r1, .L690+4	@ tmp125,
	ldr	ip, [r0, #44]	@ a_9->filter, a_9->filter
	ldr	r1, [r2, r1]	@ tmp119,
	cmp	ip, r1	@ a_9->filter, tmp119
	bne	.L686		@,
.LBB332:
	.loc 1 2408 2 is_stmt 1 view .LVU2044
@ src/common/iobuf.c:2408: 	file_filter_ctx_t *b = a->filter_ov;
	.loc 1 2408 21 is_stmt 0 view .LVU2045
	ldr	r0, [r0, #48]	@ b, a_9->filter_ov
.LVL622:
	.loc 1 2409 2 is_stmt 1 view .LVU2046
@ src/common/iobuf.c:2409: 	return b->print_only_name ? NULL : b->fname;
	.loc 1 2409 35 is_stmt 0 view .LVU2047
	ldr	r2, [r0, #16]	@ b_13->print_only_name, b_13->print_only_name
	cmp	r2, #0	@ b_13->print_only_name,
	bne	.L687		@,
	add	r0, r0, #54	@ <retval>, b,
.LVL623:
	.loc 1 2409 35 view .LVU2048
	bx	lr	@
.LVL624:
.L687:
	.loc 1 2409 35 view .LVU2049
	mov	r0, r3	@ <retval>, a
.LVL625:
	.loc 1 2409 35 view .LVU2050
.LBE332:
.LBE331:
.LBE330:
@ src/common/iobuf.c:2413: }
	.loc 1 2413 1 view .LVU2051
	bx	lr	@
.L691:
	.align	2
.L690:
	.word	_GLOBAL_OFFSET_TABLE_-(.LPIC101+8)
	.word	file_filter(GOT)
	.cfi_endproc
.LFE79:
	.size	iobuf_get_real_fname, .-iobuf_get_real_fname
	.section	.text.iobuf_cancel,"ax",%progbits
	.align	2
	.global	iobuf_cancel
	.syntax unified
	.arm
	.fpu softvfp
	.type	iobuf_cancel, %function
iobuf_cancel:
.LVL626:
.LFB47:
	.loc 1 1044 1 is_stmt 1 view -0
	.cfi_startproc
	@ args = 0, pretend = 0, frame = 8
	@ frame_needed = 0, uses_anonymous_args = 0
	.loc 1 1045 3 view .LVU2053
	.loc 1 1046 3 view .LVU2054
	.loc 1 1047 3 view .LVU2055
	.loc 1 1052 3 view .LVU2056
@ src/common/iobuf.c:1044: {
	.loc 1 1044 1 is_stmt 0 view .LVU2057
	push	{r4, r5, r6, r7, lr}	@
	.cfi_def_cfa_offset 20
	.cfi_offset 4, -20
	.cfi_offset 5, -16
	.cfi_offset 6, -12
	.cfi_offset 7, -8
	.cfi_offset 14, -4
@ src/common/iobuf.c:1052:   if (a && a->use == IOBUF_OUTPUT)
	.loc 1 1052 6 view .LVU2058
	subs	r6, r0, #0	@ a, tmp127
@ src/common/iobuf.c:1044: {
	.loc 1 1044 1 view .LVU2059
	sub	sp, sp, #20	@,,
	.cfi_def_cfa_offset 40
@ src/common/iobuf.c:1052:   if (a && a->use == IOBUF_OUTPUT)
	.loc 1 1052 6 view .LVU2060
	beq	.L693		@,
@ src/common/iobuf.c:1052:   if (a && a->use == IOBUF_OUTPUT)
	.loc 1 1052 9 discriminator 1 view .LVU2061
	ldrb	r3, [r6]	@ zero_extendqisi2	@ a_10(D)->use, a_10(D)->use
	cmp	r3, #2	@ a_10(D)->use,
	beq	.L705		@,
.LVL627:
.L694:
	.loc 1 1066 16 is_stmt 1 discriminator 1 view .LVU2062
@ src/common/iobuf.c:1044: {
	.loc 1 1044 1 is_stmt 0 discriminator 1 view .LVU2063
	mov	r4, r6	@ a2, a
.LBB333:
@ src/common/iobuf.c:1070: 	a2->filter (a2->filter_ov, IOBUFCTRL_CANCEL, a2->chain, NULL, &dummy);
	.loc 1 1070 2 discriminator 1 view .LVU2064
	add	r7, sp, #12	@ tmp124,,
.LVL628:
.L696:
	.loc 1 1068 7 is_stmt 1 view .LVU2065
	.loc 1 1069 7 view .LVU2066
	.loc 1 1070 2 view .LVU2067
@ src/common/iobuf.c:1069:       if (a2->filter)
	.loc 1 1069 13 is_stmt 0 view .LVU2068
	ldr	r5, [r4, #44]	@ _2, a2_23->filter
@ src/common/iobuf.c:1070: 	a2->filter (a2->filter_ov, IOBUFCTRL_CANCEL, a2->chain, NULL, &dummy);
	.loc 1 1070 2 view .LVU2069
	mov	r3, #0	@,
	mov	r1, #6	@,
@ src/common/iobuf.c:1069:       if (a2->filter)
