
good.img:     file format elf32-littlearm


Disassembly of section .text:

00008000 <__text_start>:
    8000:	e3a0d302 	mov	sp, #134217728	; 0x8000000
    8004:	eb002ddb 	bl	13778 <__rodata_start>
    8008:	eafffffe 	b	8008 <__text_start+0x8>

0000800c <gnupg_rl_initialize>:
    800c:	e12fff1e 	bx	lr

00008010 <fd_cache_strcmp>:
    8010:	e5d03000 	ldrb	r3, [r0]
    8014:	e3530000 	cmp	r3, #0
    8018:	05d12000 	ldrbeq	r2, [r1]
    801c:	1a00000c 	bne	8054 <fd_cache_strcmp+0x44>
    8020:	ea00000f 	b	8064 <fd_cache_strcmp+0x54>
    8024:	e1520003 	cmp	r2, r3
    8028:	0a000006 	beq	8048 <fd_cache_strcmp+0x38>
    802c:	e353002f 	cmp	r3, #47	; 0x2f
    8030:	0352005c 	cmpeq	r2, #92	; 0x5c
    8034:	0a000003 	beq	8048 <fd_cache_strcmp+0x38>
    8038:	e353005c 	cmp	r3, #92	; 0x5c
    803c:	1a000008 	bne	8064 <fd_cache_strcmp+0x54>
    8040:	e352002f 	cmp	r2, #47	; 0x2f
    8044:	1a000006 	bne	8064 <fd_cache_strcmp+0x54>
    8048:	e5f03001 	ldrb	r3, [r0, #1]!
    804c:	e3530000 	cmp	r3, #0
    8050:	0a000005 	beq	806c <fd_cache_strcmp+0x5c>
    8054:	e1a0c001 	mov	ip, r1
    8058:	e4d12001 	ldrb	r2, [r1], #1
    805c:	e3520000 	cmp	r2, #0
    8060:	1affffef 	bne	8024 <fd_cache_strcmp+0x14>
    8064:	e0430002 	sub	r0, r3, r2
    8068:	e12fff1e 	bx	lr
    806c:	e5dc2001 	ldrb	r2, [ip, #1]
    8070:	e0430002 	sub	r0, r3, r2
    8074:	e12fff1e 	bx	lr

00008078 <fd_cache_invalidate>:
    8078:	e92d4070 	push	{r4, r5, r6, lr}
    807c:	e1a05000 	mov	r5, r0
    8080:	e59f403c 	ldr	r4, [pc, #60]	; 80c4 <fd_cache_invalidate+0x4c>
    8084:	eb002836 	bl	12164 <tfp_printf>
    8088:	e59f2038 	ldr	r2, [pc, #56]	; 80c8 <fd_cache_invalidate+0x50>
    808c:	e08f4004 	add	r4, pc, r4
    8090:	e1a03004 	mov	r3, r4
    8094:	e7943002 	ldr	r3, [r4, r2]
    8098:	e5933000 	ldr	r3, [r3]
    809c:	e3530000 	cmp	r3, #0
    80a0:	1a000001 	bne	80ac <fd_cache_invalidate+0x34>
    80a4:	e3a00000 	mov	r0, #0
    80a8:	e8bd8070 	pop	{r4, r5, r6, pc}
    80ac:	e59f0018 	ldr	r0, [pc, #24]	; 80cc <fd_cache_invalidate+0x54>
    80b0:	e1a01005 	mov	r1, r5
    80b4:	e08f0000 	add	r0, pc, r0
    80b8:	eb002829 	bl	12164 <tfp_printf>
    80bc:	e3a00000 	mov	r0, #0
    80c0:	e8bd8070 	pop	{r4, r5, r6, pc}
    80c4:	00033a98 	.word	0x00033a98
    80c8:	0000001c 	.word	0x0000001c
    80cc:	0000df70 	.word	0x0000df70

000080d0 <file_filter>:
    80d0:	e92d41f0 	push	{r4, r5, r6, r7, r8, lr}
    80d4:	e3510003 	cmp	r1, #3
    80d8:	e59d6018 	ldr	r6, [sp, #24]
    80dc:	e1a04000 	mov	r4, r0
    80e0:	e59fc14c 	ldr	ip, [pc, #332]	; 8234 <file_filter+0x164>
    80e4:	e1a05003 	mov	r5, r3
    80e8:	e5967000 	ldr	r7, [r6]
    80ec:	e08fc00c 	add	ip, pc, ip
    80f0:	0a00000d 	beq	812c <file_filter+0x5c>
    80f4:	e3510004 	cmp	r1, #4
    80f8:	0a000007 	beq	811c <file_filter+0x4c>
    80fc:	e3510001 	cmp	r1, #1
    8100:	0a000018 	beq	8168 <file_filter+0x98>
    8104:	e3510007 	cmp	r1, #7
    8108:	0a00003b 	beq	81fc <file_filter+0x12c>
    810c:	e3510002 	cmp	r1, #2
    8110:	0a000029 	beq	81bc <file_filter+0xec>
    8114:	e3a00000 	mov	r0, #0
    8118:	e8bd81f0 	pop	{r4, r5, r6, r7, r8, pc}
    811c:	e3a03000 	mov	r3, #0
    8120:	e5863000 	str	r3, [r6]
    8124:	e1a00003 	mov	r0, r3
    8128:	e8bd81f0 	pop	{r4, r5, r6, r7, r8, pc}
    812c:	e1a00007 	mov	r0, r7
    8130:	eb00280b 	bl	12164 <tfp_printf>
    8134:	e5d43034 	ldrb	r3, [r4, #52]	; 0x34
    8138:	e5d42035 	ldrb	r2, [r4, #53]	; 0x35
    813c:	e1530002 	cmp	r3, r2
    8140:	8a00000f 	bhi	8184 <file_filter+0xb4>
    8144:	e594000c 	ldr	r0, [r4, #12]
    8148:	e3500000 	cmp	r0, #0
    814c:	e3e00000 	mvn	r0, #0
    8150:	13a03000 	movne	r3, #0
    8154:	03a02001 	moveq	r2, #1
    8158:	0584200c 	streq	r2, [r4, #12]
    815c:	03a03000 	moveq	r3, #0
    8160:	e5863000 	str	r3, [r6]
    8164:	e8bd81f0 	pop	{r4, r5, r6, r7, r8, pc}
    8168:	e3a03000 	mov	r3, #0
    816c:	e580300c 	str	r3, [r0, #12]
    8170:	e1a00003 	mov	r0, r3
    8174:	e5843004 	str	r3, [r4, #4]
    8178:	e5843008 	str	r3, [r4, #8]
    817c:	e1c433b4 	strh	r3, [r4, #52]	; 0x34
    8180:	e8bd81f0 	pop	{r4, r5, r6, r7, r8, pc}
    8184:	e0433002 	sub	r3, r3, r2
    8188:	e2841014 	add	r1, r4, #20
    818c:	e1570003 	cmp	r7, r3
    8190:	e1a00005 	mov	r0, r5
    8194:	e0811002 	add	r1, r1, r2
    8198:	21a07003 	movcs	r7, r3
    819c:	e1a02007 	mov	r2, r7
    81a0:	eb001f23 	bl	fe34 <memcpy>
    81a4:	e5d43035 	ldrb	r3, [r4, #53]	; 0x35
    81a8:	e3a00000 	mov	r0, #0
    81ac:	e0833007 	add	r3, r3, r7
    81b0:	e5c43035 	strb	r3, [r4, #53]	; 0x35
    81b4:	e5867000 	str	r7, [r6]
    81b8:	e8bd81f0 	pop	{r4, r5, r6, r7, r8, pc}
    81bc:	e5902000 	ldr	r2, [r0]
    81c0:	e3520001 	cmp	r2, #1
    81c4:	9a000008 	bls	81ec <file_filter+0x11c>
    81c8:	e59f3068 	ldr	r3, [pc, #104]	; 8238 <file_filter+0x168>
    81cc:	e79c3003 	ldr	r3, [ip, r3]
    81d0:	e5933000 	ldr	r3, [r3]
    81d4:	e3530000 	cmp	r3, #0
    81d8:	0a000003 	beq	81ec <file_filter+0x11c>
    81dc:	e59f0058 	ldr	r0, [pc, #88]	; 823c <file_filter+0x16c>
    81e0:	e2841036 	add	r1, r4, #54	; 0x36
    81e4:	e08f0000 	add	r0, pc, r0
    81e8:	eb0027dd 	bl	12164 <tfp_printf>
    81ec:	e1a00004 	mov	r0, r4
    81f0:	eb001ed5 	bl	fd4c <xfree>
    81f4:	e3a00000 	mov	r0, #0
    81f8:	e8bd81f0 	pop	{r4, r5, r6, r7, r8, pc}
    81fc:	e5d02034 	ldrb	r2, [r0, #52]	; 0x34
    8200:	e3a03000 	mov	r3, #0
    8204:	e1530003 	cmp	r3, r3
    8208:	e2801014 	add	r1, r0, #20
    820c:	03a03001 	moveq	r3, #1
    8210:	0580300c 	streq	r3, [r0, #12]
    8214:	e1a00005 	mov	r0, r5
    8218:	e1520007 	cmp	r2, r7
    821c:	31a07002 	movcc	r7, r2
    8220:	e1a02007 	mov	r2, r7
    8224:	eb001f02 	bl	fe34 <memcpy>
    8228:	e5867000 	str	r7, [r6]
    822c:	e3a00000 	mov	r0, #0
    8230:	e8bd81f0 	pop	{r4, r5, r6, r7, r8, pc}
    8234:	00033a38 	.word	0x00033a38
    8238:	0000001c 	.word	0x0000001c
    823c:	0000de5c 	.word	0x0000de5c

00008240 <filter_flush>:
    8240:	e92d4030 	push	{r4, r5, lr}
    8244:	e1a04000 	mov	r4, r0
    8248:	e5d03000 	ldrb	r3, [r0]
    824c:	e24dd014 	sub	sp, sp, #20
    8250:	e59f20f4 	ldr	r2, [pc, #244]	; 834c <filter_flush+0x10c>
    8254:	e3530003 	cmp	r3, #3
    8258:	e08f2002 	add	r2, pc, r2
    825c:	0a000021 	beq	82e8 <filter_flush+0xa8>
    8260:	e3530002 	cmp	r3, #2
    8264:	1a00001a 	bne	82d4 <filter_flush+0x94>
    8268:	e590502c 	ldr	r5, [r0, #44]	; 0x2c
    826c:	e3550000 	cmp	r5, #0
    8270:	0a000030 	beq	8338 <filter_flush+0xf8>
    8274:	e594101c 	ldr	r1, [r4, #28]
    8278:	e28d200c 	add	r2, sp, #12
    827c:	e5943020 	ldr	r3, [r4, #32]
    8280:	e58d100c 	str	r1, [sp, #12]
    8284:	e3a01004 	mov	r1, #4
    8288:	e58d2000 	str	r2, [sp]
    828c:	e594203c 	ldr	r2, [r4, #60]	; 0x3c
    8290:	e5940030 	ldr	r0, [r4, #48]	; 0x30
    8294:	e12fff35 	blx	r5
    8298:	e3500000 	cmp	r0, #0
    829c:	15840028 	strne	r0, [r4, #40]	; 0x28
    82a0:	1a000007 	bne	82c4 <filter_flush+0x84>
    82a4:	e594201c 	ldr	r2, [r4, #28]
    82a8:	e59d300c 	ldr	r3, [sp, #12]
    82ac:	e1520003 	cmp	r2, r3
    82b0:	0a000003 	beq	82c4 <filter_flush+0x84>
    82b4:	e59f0094 	ldr	r0, [pc, #148]	; 8350 <filter_flush+0x110>
    82b8:	e08f0000 	add	r0, pc, r0
    82bc:	eb0027a8 	bl	12164 <tfp_printf>
    82c0:	e3a0003f 	mov	r0, #63	; 0x3f
    82c4:	e3a03000 	mov	r3, #0
    82c8:	e584301c 	str	r3, [r4, #28]
    82cc:	e28dd014 	add	sp, sp, #20
    82d0:	e8bd8030 	pop	{r4, r5, pc}
    82d4:	e59f0078 	ldr	r0, [pc, #120]	; 8354 <filter_flush+0x114>
    82d8:	e08f0000 	add	r0, pc, r0
    82dc:	eb0027a0 	bl	12164 <tfp_printf>
    82e0:	e594502c 	ldr	r5, [r4, #44]	; 0x2c
    82e4:	eaffffe2 	b	8274 <filter_flush+0x34>
    82e8:	e59f3068 	ldr	r3, [pc, #104]	; 8358 <filter_flush+0x118>
    82ec:	e5901014 	ldr	r1, [r0, #20]
    82f0:	e7923003 	ldr	r3, [r2, r3]
    82f4:	e2815a02 	add	r5, r1, #8192	; 0x2000
    82f8:	e5933000 	ldr	r3, [r3]
    82fc:	e3530000 	cmp	r3, #0
    8300:	1a000007 	bne	8324 <filter_flush+0xe4>
    8304:	e5940020 	ldr	r0, [r4, #32]
    8308:	e1a01005 	mov	r1, r5
    830c:	eb001ed1 	bl	fe58 <xrealloc>
    8310:	e5840020 	str	r0, [r4, #32]
    8314:	e3a00000 	mov	r0, #0
    8318:	e5845014 	str	r5, [r4, #20]
    831c:	e28dd014 	add	sp, sp, #20
    8320:	e8bd8030 	pop	{r4, r5, pc}
    8324:	e59f0030 	ldr	r0, [pc, #48]	; 835c <filter_flush+0x11c>
    8328:	e1a02005 	mov	r2, r5
    832c:	e08f0000 	add	r0, pc, r0
    8330:	eb00278b 	bl	12164 <tfp_printf>
    8334:	eafffff2 	b	8304 <filter_flush+0xc4>
    8338:	e59f0020 	ldr	r0, [pc, #32]	; 8360 <filter_flush+0x120>
    833c:	e08f0000 	add	r0, pc, r0
    8340:	eb002787 	bl	12164 <tfp_printf>
    8344:	e594502c 	ldr	r5, [r4, #44]	; 0x2c
    8348:	eaffffc9 	b	8274 <filter_flush+0x34>
    834c:	000338cc 	.word	0x000338cc
    8350:	0000de00 	.word	0x0000de00
    8354:	0000dda8 	.word	0x0000dda8
    8358:	0000001c 	.word	0x0000001c
    835c:	0000dd2c 	.word	0x0000dd2c
    8360:	0000dd60 	.word	0x0000dd60

00008364 <print_chain.part.0>:
    8364:	e92d4ff0 	push	{r4, r5, r6, r7, r8, r9, sl, fp, lr}
    8368:	e2504000 	subs	r4, r0, #0
    836c:	e24dd03c 	sub	sp, sp, #60	; 0x3c
    8370:	0a000026 	beq	8410 <print_chain.part.0+0xac>
    8374:	e59fb09c 	ldr	fp, [pc, #156]	; 8418 <print_chain.part.0+0xb4>
    8378:	e28d6018 	add	r6, sp, #24
    837c:	e59fa098 	ldr	sl, [pc, #152]	; 841c <print_chain.part.0+0xb8>
    8380:	e3a09020 	mov	r9, #32
    8384:	e08fb00b 	add	fp, pc, fp
    8388:	e08fa00a 	add	sl, pc, sl
    838c:	ea000010 	b	83d4 <print_chain.part.0+0x70>
    8390:	e5940030 	ldr	r0, [r4, #48]	; 0x30
    8394:	e58dc000 	str	ip, [sp]
    8398:	e12fff35 	blx	r5
    839c:	e594201c 	ldr	r2, [r4, #28]
    83a0:	e1a03006 	mov	r3, r6
    83a4:	e1a01007 	mov	r1, r7
    83a8:	e1a0000a 	mov	r0, sl
    83ac:	e58d2008 	str	r2, [sp, #8]
    83b0:	e5942018 	ldr	r2, [r4, #24]
    83b4:	e58d2004 	str	r2, [sp, #4]
    83b8:	e5942024 	ldr	r2, [r4, #36]	; 0x24
    83bc:	e58d2000 	str	r2, [sp]
    83c0:	e1a02008 	mov	r2, r8
    83c4:	eb002766 	bl	12164 <tfp_printf>
    83c8:	e594403c 	ldr	r4, [r4, #60]	; 0x3c
    83cc:	e3540000 	cmp	r4, #0
    83d0:	0a00000e 	beq	8410 <print_chain.part.0+0xac>
    83d4:	e594502c 	ldr	r5, [r4, #44]	; 0x2c
    83d8:	e28dc014 	add	ip, sp, #20
    83dc:	e5947040 	ldr	r7, [r4, #64]	; 0x40
    83e0:	e1a03006 	mov	r3, r6
    83e4:	e5948044 	ldr	r8, [r4, #68]	; 0x44
    83e8:	e3550000 	cmp	r5, #0
    83ec:	e58d9014 	str	r9, [sp, #20]
    83f0:	e3a02000 	mov	r2, #0
    83f4:	e3a01005 	mov	r1, #5
    83f8:	1affffe4 	bne	8390 <print_chain.part.0+0x2c>
    83fc:	e3a02002 	mov	r2, #2
    8400:	e1a0100b 	mov	r1, fp
    8404:	e1a00006 	mov	r0, r6
    8408:	eb001e89 	bl	fe34 <memcpy>
    840c:	eaffffe2 	b	839c <print_chain.part.0+0x38>
    8410:	e28dd03c 	add	sp, sp, #60	; 0x3c
    8414:	e8bd8ff0 	pop	{r4, r5, r6, r7, r8, r9, sl, fp, pc}
    8418:	0000dd58 	.word	0x0000dd58
    841c:	0000dd58 	.word	0x0000dd58

00008420 <fd_cache_open>:
    8420:	e92d4070 	push	{r4, r5, r6, lr}
    8424:	e1a04000 	mov	r4, r0
    8428:	e59f0090 	ldr	r0, [pc, #144]	; 84c0 <fd_cache_open+0xa0>
    842c:	e1a05001 	mov	r5, r1
    8430:	e1a01004 	mov	r1, r4
    8434:	e08f0000 	add	r0, pc, r0
    8438:	eb002749 	bl	12164 <tfp_printf>
    843c:	e3a0102b 	mov	r1, #43	; 0x2b
    8440:	e1a00005 	mov	r0, r5
    8444:	eb001edb 	bl	ffb8 <strchr>
    8448:	e3500000 	cmp	r0, #0
    844c:	0a000010 	beq	8494 <fd_cache_open+0x74>
    8450:	e1a00004 	mov	r0, r4
    8454:	ebffff07 	bl	8078 <fd_cache_invalidate>
    8458:	e3500000 	cmp	r0, #0
    845c:	03a06002 	moveq	r6, #2
    8460:	1a000009 	bne	848c <fd_cache_open+0x6c>
    8464:	e3a01062 	mov	r1, #98	; 0x62
    8468:	e1a00005 	mov	r0, r5
    846c:	eb001ed1 	bl	ffb8 <strchr>
    8470:	e3500000 	cmp	r0, #0
    8474:	e30021b6 	movw	r2, #438	; 0x1b6
    8478:	13866801 	orrne	r6, r6, #65536	; 0x10000
    847c:	e1a00004 	mov	r0, r4
    8480:	e1a01006 	mov	r1, r6
    8484:	e8bd4070 	pop	{r4, r5, r6, lr}
    8488:	ea001ee6 	b	10028 <open>
    848c:	e3e00000 	mvn	r0, #0
    8490:	e8bd8070 	pop	{r4, r5, r6, pc}
    8494:	e3a01077 	mov	r1, #119	; 0x77
    8498:	e1a00005 	mov	r0, r5
    849c:	eb001ec5 	bl	ffb8 <strchr>
    84a0:	e2506000 	subs	r6, r0, #0
    84a4:	0affffee 	beq	8464 <fd_cache_open+0x44>
    84a8:	e1a00004 	mov	r0, r4
    84ac:	ebfffef1 	bl	8078 <fd_cache_invalidate>
    84b0:	e3500000 	cmp	r0, #0
    84b4:	1afffff4 	bne	848c <fd_cache_open+0x6c>
    84b8:	e3006601 	movw	r6, #1537	; 0x601
    84bc:	eaffffe8 	b	8464 <fd_cache_open+0x44>
    84c0:	0000dce4 	.word	0x0000dce4

000084c4 <iobuf_print_chain>:
    84c4:	e59f302c 	ldr	r3, [pc, #44]	; 84f8 <iobuf_print_chain+0x34>
    84c8:	e59f202c 	ldr	r2, [pc, #44]	; 84fc <iobuf_print_chain+0x38>
    84cc:	e08f3003 	add	r3, pc, r3
    84d0:	e7933002 	ldr	r3, [r3, r2]
    84d4:	e5933000 	ldr	r3, [r3]
    84d8:	e3530000 	cmp	r3, #0
    84dc:	0a000003 	beq	84f0 <iobuf_print_chain+0x2c>
    84e0:	e92d4010 	push	{r4, lr}
    84e4:	ebffff9e 	bl	8364 <print_chain.part.0>
    84e8:	e3a00000 	mov	r0, #0
    84ec:	e8bd8010 	pop	{r4, pc}
    84f0:	e3a00000 	mov	r0, #0
    84f4:	e12fff1e 	bx	lr
    84f8:	00033658 	.word	0x00033658
    84fc:	0000001c 	.word	0x0000001c

00008500 <iobuf_alloc>:
    8500:	e1a03000 	mov	r3, r0
    8504:	e92d4030 	push	{r4, r5, lr}
    8508:	e24dd00c 	sub	sp, sp, #12
    850c:	e59f0098 	ldr	r0, [pc, #152]	; 85ac <iobuf_alloc+0xac>
    8510:	e3530003 	cmp	r3, #3
    8514:	e58d1004 	str	r1, [sp, #4]
    8518:	83a02000 	movhi	r2, #0
    851c:	e08f0000 	add	r0, pc, r0
    8520:	e1a01003 	mov	r1, r3
    8524:	93a02001 	movls	r2, #1
    8528:	e1a05003 	mov	r5, r3
    852c:	eb00270c 	bl	12164 <tfp_printf>
    8530:	e59d3004 	ldr	r3, [sp, #4]
    8534:	e3530000 	cmp	r3, #0
    8538:	0a000015 	beq	8594 <iobuf_alloc+0x94>
    853c:	e3a01048 	mov	r1, #72	; 0x48
    8540:	e3a00001 	mov	r0, #1
    8544:	eb001e29 	bl	fdf0 <xcalloc>
    8548:	e1a04000 	mov	r4, r0
    854c:	e59d0004 	ldr	r0, [sp, #4]
    8550:	e5c45000 	strb	r5, [r4]
    8554:	eb001e08 	bl	fd7c <xmalloc>
    8558:	e59f2050 	ldr	r2, [pc, #80]	; 85b0 <iobuf_alloc+0xb0>
    855c:	e3a01000 	mov	r1, #0
    8560:	e59d3004 	ldr	r3, [sp, #4]
    8564:	e08f2002 	add	r2, pc, r2
    8568:	e5843014 	str	r3, [r4, #20]
    856c:	e5923000 	ldr	r3, [r2]
    8570:	e5840020 	str	r0, [r4, #32]
    8574:	e1a00004 	mov	r0, r4
    8578:	e5841044 	str	r1, [r4, #68]	; 0x44
    857c:	e2833001 	add	r3, r3, #1
    8580:	e5841038 	str	r1, [r4, #56]	; 0x38
    8584:	e5823000 	str	r3, [r2]
    8588:	e5843040 	str	r3, [r4, #64]	; 0x40
    858c:	e28dd00c 	add	sp, sp, #12
    8590:	e8bd8030 	pop	{r4, r5, pc}
    8594:	e59f0018 	ldr	r0, [pc, #24]	; 85b4 <iobuf_alloc+0xb4>
    8598:	e3a03a02 	mov	r3, #8192	; 0x2000
    859c:	e58d3004 	str	r3, [sp, #4]
    85a0:	e08f0000 	add	r0, pc, r0
    85a4:	eb0026ee 	bl	12164 <tfp_printf>
    85a8:	eaffffe3 	b	853c <iobuf_alloc+0x3c>
    85ac:	0000dc1c 	.word	0x0000dc1c
    85b0:	00033a94 	.word	0x00033a94
    85b4:	0000dbb0 	.word	0x0000dbb0

000085b8 <do_open.constprop.0>:
    85b8:	e92d47f0 	push	{r4, r5, r6, r7, r8, r9, sl, lr}
    85bc:	e1a04000 	mov	r4, r0
    85c0:	e59f0190 	ldr	r0, [pc, #400]	; 8758 <do_open.constprop.0+0x1a0>
    85c4:	e24dd030 	sub	sp, sp, #48	; 0x30
    85c8:	e59f818c 	ldr	r8, [pc, #396]	; 875c <do_open.constprop.0+0x1a4>
    85cc:	e1a06001 	mov	r6, r1
    85d0:	e08f0000 	add	r0, pc, r0
    85d4:	e1a01004 	mov	r1, r4
    85d8:	e08f8008 	add	r8, pc, r8
    85dc:	e1a05002 	mov	r5, r2
    85e0:	eb0026df 	bl	12164 <tfp_printf>
    85e4:	e3a03000 	mov	r3, #0
    85e8:	e3a00001 	mov	r0, #1
    85ec:	e58d3008 	str	r3, [sp, #8]
    85f0:	eb0026db 	bl	12164 <tfp_printf>
    85f4:	e3560000 	cmp	r6, #0
    85f8:	0a00002c 	beq	86b0 <do_open.constprop.0+0xf8>
    85fc:	e3540000 	cmp	r4, #0
    8600:	0a000024 	beq	8698 <do_open.constprop.0+0xe0>
    8604:	e5d43000 	ldrb	r3, [r4]
    8608:	e353002d 	cmp	r3, #45	; 0x2d
    860c:	0a00001e 	beq	868c <do_open.constprop.0+0xd4>
    8610:	e3a09000 	mov	r9, #0
    8614:	e1a06009 	mov	r6, r9
    8618:	e3a01a02 	mov	r1, #8192	; 0x2000
    861c:	e1a00005 	mov	r0, r5
    8620:	ebffffb6 	bl	8500 <iobuf_alloc>
    8624:	e1a05000 	mov	r5, r0
    8628:	e1a00004 	mov	r0, r4
    862c:	eb001a08 	bl	ee54 <strlen>
    8630:	e2800038 	add	r0, r0, #56	; 0x38
    8634:	eb001dd0 	bl	fd7c <xmalloc>
    8638:	e59f3120 	ldr	r3, [pc, #288]	; 8760 <do_open.constprop.0+0x1a8>
    863c:	e28d2008 	add	r2, sp, #8
    8640:	e5809000 	str	r9, [r0]
    8644:	e3a01001 	mov	r1, #1
    8648:	e5806010 	str	r6, [r0, #16]
    864c:	e1a07000 	mov	r7, r0
    8650:	e7983003 	ldr	r3, [r8, r3]
    8654:	e5850030 	str	r0, [r5, #48]	; 0x30
    8658:	e585302c 	str	r3, [r5, #44]	; 0x2c
    865c:	e3a03000 	mov	r3, #0
    8660:	e58d2000 	str	r2, [sp]
    8664:	e1a02003 	mov	r2, r3
    8668:	ebfffe98 	bl	80d0 <file_filter>
    866c:	e59f30f0 	ldr	r3, [pc, #240]	; 8764 <do_open.constprop.0+0x1ac>
    8670:	e7983003 	ldr	r3, [r8, r3]
    8674:	e5933000 	ldr	r3, [r3]
    8678:	e3530000 	cmp	r3, #0
    867c:	1a00000f 	bne	86c0 <do_open.constprop.0+0x108>
    8680:	e1a00005 	mov	r0, r5
    8684:	e28dd030 	add	sp, sp, #48	; 0x30
    8688:	e8bd87f0 	pop	{r4, r5, r6, r7, r8, r9, sl, pc}
    868c:	e5d43001 	ldrb	r3, [r4, #1]
    8690:	e3530000 	cmp	r3, #0
    8694:	1affffdd 	bne	8610 <do_open.constprop.0+0x58>
    8698:	e3550000 	cmp	r5, #0
    869c:	1a000022 	bne	872c <do_open.constprop.0+0x174>
    86a0:	e59f40c0 	ldr	r4, [pc, #192]	; 8768 <do_open.constprop.0+0x1b0>
    86a4:	e1a09005 	mov	r9, r5
    86a8:	e08f4004 	add	r4, pc, r4
    86ac:	eaffffd9 	b	8618 <do_open.constprop.0+0x60>
    86b0:	e3540000 	cmp	r4, #0
    86b4:	01a05004 	moveq	r5, r4
    86b8:	1affffd4 	bne	8610 <do_open.constprop.0+0x58>
    86bc:	eaffffef 	b	8680 <do_open.constprop.0+0xc8>
    86c0:	e595802c 	ldr	r8, [r5, #44]	; 0x2c
    86c4:	e3a03020 	mov	r3, #32
    86c8:	e5959040 	ldr	r9, [r5, #64]	; 0x40
    86cc:	e595a044 	ldr	sl, [r5, #68]	; 0x44
    86d0:	e3580000 	cmp	r8, #0
    86d4:	e58d300c 	str	r3, [sp, #12]
    86d8:	0a000017 	beq	873c <do_open.constprop.0+0x184>
    86dc:	e5950030 	ldr	r0, [r5, #48]	; 0x30
    86e0:	e28d300c 	add	r3, sp, #12
    86e4:	e58d3000 	str	r3, [sp]
    86e8:	e28d6010 	add	r6, sp, #16
    86ec:	e1a03006 	mov	r3, r6
    86f0:	e3a02000 	mov	r2, #0
    86f4:	e3a01005 	mov	r1, #5
    86f8:	e12fff38 	blx	r8
    86fc:	e5973000 	ldr	r3, [r7]
    8700:	e1a0200a 	mov	r2, sl
    8704:	e59f0060 	ldr	r0, [pc, #96]	; 876c <do_open.constprop.0+0x1b4>
    8708:	e1a01009 	mov	r1, r9
    870c:	e58d3004 	str	r3, [sp, #4]
    8710:	e1a03004 	mov	r3, r4
    8714:	e08f0000 	add	r0, pc, r0
    8718:	e58d6000 	str	r6, [sp]
    871c:	eb002690 	bl	12164 <tfp_printf>
    8720:	e1a00005 	mov	r0, r5
    8724:	e28dd030 	add	sp, sp, #48	; 0x30
    8728:	e8bd87f0 	pop	{r4, r5, r6, r7, r8, r9, sl, pc}
    872c:	e59f403c 	ldr	r4, [pc, #60]	; 8770 <do_open.constprop.0+0x1b8>
    8730:	e1a09006 	mov	r9, r6
    8734:	e08f4004 	add	r4, pc, r4
    8738:	eaffffb6 	b	8618 <do_open.constprop.0+0x60>
    873c:	e59f1030 	ldr	r1, [pc, #48]	; 8774 <do_open.constprop.0+0x1bc>
    8740:	e28d6010 	add	r6, sp, #16
    8744:	e3a02002 	mov	r2, #2
    8748:	e1a00006 	mov	r0, r6
    874c:	e08f1001 	add	r1, pc, r1
    8750:	eb001db7 	bl	fe34 <memcpy>
    8754:	eaffffe8 	b	86fc <do_open.constprop.0+0x144>
    8758:	0000dbbc 	.word	0x0000dbbc
    875c:	0003354c 	.word	0x0003354c
    8760:	00000048 	.word	0x00000048
    8764:	0000001c 	.word	0x0000001c
    8768:	0000dad0 	.word	0x0000dad0
    876c:	0000da8c 	.word	0x0000da8c
    8770:	0000da4c 	.word	0x0000da4c
    8774:	0000d990 	.word	0x0000d990

00008778 <iobuf_close>:
    8778:	e92d4ff0 	push	{r4, r5, r6, r7, r8, r9, sl, fp, lr}
    877c:	e2505000 	subs	r5, r0, #0
    8780:	e59f2138 	ldr	r2, [pc, #312]	; 88c0 <iobuf_close+0x148>
    8784:	e24dd03c 	sub	sp, sp, #60	; 0x3c
    8788:	e3a06000 	mov	r6, #0
    878c:	e08f2002 	add	r2, pc, r2
    8790:	e58d6010 	str	r6, [sp, #16]
    8794:	0a000045 	beq	88b0 <iobuf_close+0x138>
    8798:	e59f1124 	ldr	r1, [pc, #292]	; 88c4 <iobuf_close+0x14c>
    879c:	e59f3124 	ldr	r3, [pc, #292]	; 88c8 <iobuf_close+0x150>
    87a0:	e08f1001 	add	r1, pc, r1
    87a4:	e58d1008 	str	r1, [sp, #8]
    87a8:	e7928003 	ldr	r8, [r2, r3]
    87ac:	e59f3118 	ldr	r3, [pc, #280]	; 88cc <iobuf_close+0x154>
    87b0:	e08f3003 	add	r3, pc, r3
    87b4:	e58d300c 	str	r3, [sp, #12]
    87b8:	ea00001d 	b	8834 <iobuf_close+0xbc>
    87bc:	e594702c 	ldr	r7, [r4, #44]	; 0x2c
    87c0:	e3a03000 	mov	r3, #0
    87c4:	e28dc010 	add	ip, sp, #16
    87c8:	e3a01002 	mov	r1, #2
    87cc:	e1570003 	cmp	r7, r3
    87d0:	0a000009 	beq	87fc <iobuf_close+0x84>
    87d4:	e594203c 	ldr	r2, [r4, #60]	; 0x3c
    87d8:	e5940030 	ldr	r0, [r4, #48]	; 0x30
    87dc:	e58dc000 	str	ip, [sp]
    87e0:	e12fff37 	blx	r7
    87e4:	e16f3f16 	clz	r3, r6
    87e8:	e3500000 	cmp	r0, #0
    87ec:	e1a032a3 	lsr	r3, r3, #5
    87f0:	03a03000 	moveq	r3, #0
    87f4:	e3530000 	cmp	r3, #0
    87f8:	11a06000 	movne	r6, r0
    87fc:	e5940038 	ldr	r0, [r4, #56]	; 0x38
    8800:	eb001d51 	bl	fd4c <xfree>
    8804:	e5940020 	ldr	r0, [r4, #32]
    8808:	e3a01000 	mov	r1, #0
    880c:	e1500001 	cmp	r0, r1
    8810:	0a000003 	beq	8824 <iobuf_close+0xac>
    8814:	e5942014 	ldr	r2, [r4, #20]
    8818:	eb001d4e 	bl	fd58 <memset>
    881c:	e5940020 	ldr	r0, [r4, #32]
    8820:	eb001d49 	bl	fd4c <xfree>
    8824:	e1a00004 	mov	r0, r4
    8828:	eb001d47 	bl	fd4c <xfree>
    882c:	e3550000 	cmp	r5, #0
    8830:	0a00001f 	beq	88b4 <iobuf_close+0x13c>
    8834:	e5983000 	ldr	r3, [r8]
    8838:	e1a04005 	mov	r4, r5
    883c:	e595503c 	ldr	r5, [r5, #60]	; 0x3c
    8840:	e3530000 	cmp	r3, #0
    8844:	0affffdc 	beq	87bc <iobuf_close+0x44>
    8848:	e594902c 	ldr	r9, [r4, #44]	; 0x2c
    884c:	e3a03020 	mov	r3, #32
    8850:	e58d3014 	str	r3, [sp, #20]
    8854:	e28d7018 	add	r7, sp, #24
    8858:	e594a040 	ldr	sl, [r4, #64]	; 0x40
    885c:	e3590000 	cmp	r9, #0
    8860:	e594b044 	ldr	fp, [r4, #68]	; 0x44
    8864:	e28d2014 	add	r2, sp, #20
    8868:	e1a03007 	mov	r3, r7
    886c:	0a00000a 	beq	889c <iobuf_close+0x124>
    8870:	e5940030 	ldr	r0, [r4, #48]	; 0x30
    8874:	e3a01005 	mov	r1, #5
    8878:	e58d2000 	str	r2, [sp]
    887c:	e3a02000 	mov	r2, #0
    8880:	e12fff39 	blx	r9
    8884:	e59d0008 	ldr	r0, [sp, #8]
    8888:	e1a03007 	mov	r3, r7
    888c:	e1a0200b 	mov	r2, fp
    8890:	e1a0100a 	mov	r1, sl
    8894:	eb002632 	bl	12164 <tfp_printf>
    8898:	eaffffc7 	b	87bc <iobuf_close+0x44>
    889c:	e59d100c 	ldr	r1, [sp, #12]
    88a0:	e3a02002 	mov	r2, #2
    88a4:	e1a00007 	mov	r0, r7
    88a8:	eb001d61 	bl	fe34 <memcpy>
    88ac:	eafffff4 	b	8884 <iobuf_close+0x10c>
    88b0:	e1a06005 	mov	r6, r5
    88b4:	e1a00006 	mov	r0, r6
    88b8:	e28dd03c 	add	sp, sp, #60	; 0x3c
    88bc:	e8bd8ff0 	pop	{r4, r5, r6, r7, r8, r9, sl, fp, pc}
    88c0:	00033398 	.word	0x00033398
    88c4:	0000da28 	.word	0x0000da28
    88c8:	0000001c 	.word	0x0000001c
    88cc:	0000d92c 	.word	0x0000d92c

000088d0 <iobuf_temp>:
    88d0:	e3a01a02 	mov	r1, #8192	; 0x2000
    88d4:	e3a00003 	mov	r0, #3
    88d8:	eaffff08 	b	8500 <iobuf_alloc>

000088dc <iobuf_temp_with_content>:
    88dc:	e92d4070 	push	{r4, r5, r6, lr}
    88e0:	e1a04000 	mov	r4, r0
    88e4:	e3a00001 	mov	r0, #1
    88e8:	e1a06001 	mov	r6, r1
    88ec:	ebffff03 	bl	8500 <iobuf_alloc>
    88f0:	e1a05000 	mov	r5, r0
    88f4:	e59f0044 	ldr	r0, [pc, #68]	; 8940 <iobuf_temp_with_content+0x64>
    88f8:	e5951014 	ldr	r1, [r5, #20]
    88fc:	e08f0000 	add	r0, pc, r0
    8900:	eb002617 	bl	12164 <tfp_printf>
    8904:	e3560000 	cmp	r6, #0
    8908:	0a000009 	beq	8934 <iobuf_temp_with_content+0x58>
    890c:	e0841006 	add	r1, r4, r6
    8910:	e2443001 	sub	r3, r4, #1
    8914:	e2411001 	sub	r1, r1, #1
    8918:	e2644001 	rsb	r4, r4, #1
    891c:	e0842003 	add	r2, r4, r3
    8920:	e5f3e001 	ldrb	lr, [r3, #1]!
    8924:	e595c020 	ldr	ip, [r5, #32]
    8928:	e1530001 	cmp	r3, r1
    892c:	e7cce002 	strb	lr, [ip, r2]
    8930:	1afffff9 	bne	891c <iobuf_temp_with_content+0x40>
    8934:	e585601c 	str	r6, [r5, #28]
    8938:	e1a00005 	mov	r0, r5
    893c:	e8bd8070 	pop	{r4, r5, r6, pc}
    8940:	0000d8e8 	.word	0x0000d8e8

00008944 <iobuf_is_pipe_filename>:
    8944:	e3a00001 	mov	r0, #1
    8948:	e12fff1e 	bx	lr

0000894c <iobuf_open>:
    894c:	e59f300c 	ldr	r3, [pc, #12]	; 8960 <iobuf_open+0x14>
    8950:	e3a02000 	mov	r2, #0
    8954:	e3a01001 	mov	r1, #1
    8958:	e08f3003 	add	r3, pc, r3
    895c:	eaffff15 	b	85b8 <do_open.constprop.0>
    8960:	0000d8b0 	.word	0x0000d8b0

00008964 <iobuf_create>:
    8964:	e59f300c 	ldr	r3, [pc, #12]	; 8978 <iobuf_create+0x14>
    8968:	e3a02002 	mov	r2, #2
    896c:	e3a01001 	mov	r1, #1
    8970:	e08f3003 	add	r3, pc, r3
    8974:	eaffff0f 	b	85b8 <do_open.constprop.0>
    8978:	0000d89c 	.word	0x0000d89c

0000897c <iobuf_openrw>:
    897c:	e59f300c 	ldr	r3, [pc, #12]	; 8990 <iobuf_openrw+0x14>
    8980:	e3a02002 	mov	r2, #2
    8984:	e3a01000 	mov	r1, #0
    8988:	e08f3003 	add	r3, pc, r3
    898c:	eaffff09 	b	85b8 <do_open.constprop.0>
    8990:	0000d888 	.word	0x0000d888

00008994 <iobuf_ioctl>:
    8994:	e92d4ff0 	push	{r4, r5, r6, r7, r8, r9, sl, fp, lr}
    8998:	e1a04000 	mov	r4, r0
    899c:	e59f0418 	ldr	r0, [pc, #1048]	; 8dbc <iobuf_ioctl+0x428>
    89a0:	e1a05001 	mov	r5, r1
    89a4:	e59f8414 	ldr	r8, [pc, #1044]	; 8dc0 <iobuf_ioctl+0x42c>
    89a8:	e24dd034 	sub	sp, sp, #52	; 0x34
    89ac:	e08f0000 	add	r0, pc, r0
    89b0:	e1a06002 	mov	r6, r2
    89b4:	e08f8008 	add	r8, pc, r8
    89b8:	e1a07003 	mov	r7, r3
    89bc:	eb0025e8 	bl	12164 <tfp_printf>
    89c0:	e3550001 	cmp	r5, #1
    89c4:	0a000057 	beq	8b28 <iobuf_ioctl+0x194>
    89c8:	e3550002 	cmp	r5, #2
    89cc:	0a000039 	beq	8ab8 <iobuf_ioctl+0x124>
    89d0:	e3550003 	cmp	r5, #3
    89d4:	0a000097 	beq	8c38 <iobuf_ioctl+0x2a4>
    89d8:	e3550004 	cmp	r5, #4
    89dc:	0a00007f 	beq	8be0 <iobuf_ioctl+0x24c>
    89e0:	e3550005 	cmp	r5, #5
    89e4:	1a00004c 	bne	8b1c <iobuf_ioctl+0x188>
    89e8:	e59f33d4 	ldr	r3, [pc, #980]	; 8dc4 <iobuf_ioctl+0x430>
    89ec:	e7983003 	ldr	r3, [r8, r3]
    89f0:	e5933000 	ldr	r3, [r3]
    89f4:	e3530000 	cmp	r3, #0
    89f8:	0a000016 	beq	8a58 <iobuf_ioctl+0xc4>
    89fc:	e3540000 	cmp	r4, #0
    8a00:	0a0000d9 	beq	8d6c <iobuf_ioctl+0x3d8>
    8a04:	e594a02c 	ldr	sl, [r4, #44]	; 0x2c
    8a08:	e3a03020 	mov	r3, #32
    8a0c:	e594b040 	ldr	fp, [r4, #64]	; 0x40
    8a10:	e5949044 	ldr	r9, [r4, #68]	; 0x44
    8a14:	e35a0000 	cmp	sl, #0
    8a18:	e58d300c 	str	r3, [sp, #12]
    8a1c:	0a0000d6 	beq	8d7c <iobuf_ioctl+0x3e8>
    8a20:	e5940030 	ldr	r0, [r4, #48]	; 0x30
    8a24:	e28d300c 	add	r3, sp, #12
    8a28:	e58d3000 	str	r3, [sp]
    8a2c:	e1a01005 	mov	r1, r5
    8a30:	e28d5010 	add	r5, sp, #16
    8a34:	e3a02000 	mov	r2, #0
    8a38:	e1a03005 	mov	r3, r5
    8a3c:	e12fff3a 	blx	sl
    8a40:	e59f0380 	ldr	r0, [pc, #896]	; 8dc8 <iobuf_ioctl+0x434>
    8a44:	e1a03005 	mov	r3, r5
    8a48:	e1a02009 	mov	r2, r9
    8a4c:	e1a0100b 	mov	r1, fp
    8a50:	e08f0000 	add	r0, pc, r0
    8a54:	eb0025c2 	bl	12164 <tfp_printf>
    8a58:	e59f336c 	ldr	r3, [pc, #876]	; 8dcc <iobuf_ioctl+0x438>
    8a5c:	e594202c 	ldr	r2, [r4, #44]	; 0x2c
    8a60:	e7983003 	ldr	r3, [r8, r3]
    8a64:	e1520003 	cmp	r2, r3
    8a68:	1a00002b 	bne	8b1c <iobuf_ioctl+0x188>
    8a6c:	e3570000 	cmp	r7, #0
    8a70:	13560000 	cmpne	r6, #0
    8a74:	0a000028 	beq	8b1c <iobuf_ioctl+0x188>
    8a78:	e59f0350 	ldr	r0, [pc, #848]	; 8dd0 <iobuf_ioctl+0x43c>
    8a7c:	e08f0000 	add	r0, pc, r0
    8a80:	eb0025b7 	bl	12164 <tfp_printf>
    8a84:	e5940030 	ldr	r0, [r4, #48]	; 0x30
    8a88:	e28d300c 	add	r3, sp, #12
    8a8c:	e58d3000 	str	r3, [sp]
    8a90:	e3a02000 	mov	r2, #0
    8a94:	e58d600c 	str	r6, [sp, #12]
    8a98:	e1a03007 	mov	r3, r7
    8a9c:	e3a01007 	mov	r1, #7
    8aa0:	ebfffd8a 	bl	80d0 <file_filter>
    8aa4:	e3500000 	cmp	r0, #0
    8aa8:	1a00001b 	bne	8b1c <iobuf_ioctl+0x188>
    8aac:	e59d000c 	ldr	r0, [sp, #12]
    8ab0:	e28dd034 	add	sp, sp, #52	; 0x34
    8ab4:	e8bd8ff0 	pop	{r4, r5, r6, r7, r8, r9, sl, fp, pc}
    8ab8:	e59f3304 	ldr	r3, [pc, #772]	; 8dc4 <iobuf_ioctl+0x430>
    8abc:	e7983003 	ldr	r3, [r8, r3]
    8ac0:	e5933000 	ldr	r3, [r3]
    8ac4:	e3530000 	cmp	r3, #0
    8ac8:	1a00003d 	bne	8bc4 <iobuf_ioctl+0x230>
    8acc:	e2573000 	subs	r3, r7, #0
    8ad0:	e1844006 	orr	r4, r4, r6
    8ad4:	13a03001 	movne	r3, #1
    8ad8:	e3540000 	cmp	r4, #0
    8adc:	13a03000 	movne	r3, #0
    8ae0:	e3530000 	cmp	r3, #0
    8ae4:	0a00000c 	beq	8b1c <iobuf_ioctl+0x188>
    8ae8:	e1a00007 	mov	r0, r7
    8aec:	ebfffd61 	bl	8078 <fd_cache_invalidate>
    8af0:	e2500000 	subs	r0, r0, #0
    8af4:	13a00001 	movne	r0, #1
    8af8:	e2600000 	rsb	r0, r0, #0
    8afc:	e28dd034 	add	sp, sp, #52	; 0x34
    8b00:	e8bd8ff0 	pop	{r4, r5, r6, r7, r8, r9, sl, fp, pc}
    8b04:	e594003c 	ldr	r0, [r4, #60]	; 0x3c
    8b08:	e3500000 	cmp	r0, #0
    8b0c:	0a000023 	beq	8ba0 <iobuf_ioctl+0x20c>
    8b10:	e1a04000 	mov	r4, r0
    8b14:	e3540000 	cmp	r4, #0
    8b18:	1afffff9 	bne	8b04 <iobuf_ioctl+0x170>
    8b1c:	e3e00000 	mvn	r0, #0
    8b20:	e28dd034 	add	sp, sp, #52	; 0x34
    8b24:	e8bd8ff0 	pop	{r4, r5, r6, r7, r8, r9, sl, fp, pc}
    8b28:	e59f3294 	ldr	r3, [pc, #660]	; 8dc4 <iobuf_ioctl+0x430>
    8b2c:	e7983003 	ldr	r3, [r8, r3]
    8b30:	e5933000 	ldr	r3, [r3]
    8b34:	e3530000 	cmp	r3, #0
    8b38:	0afffff5 	beq	8b14 <iobuf_ioctl+0x180>
    8b3c:	e3540000 	cmp	r4, #0
    8b40:	0a00006b 	beq	8cf4 <iobuf_ioctl+0x360>
    8b44:	e594902c 	ldr	r9, [r4, #44]	; 0x2c
    8b48:	e3a03020 	mov	r3, #32
    8b4c:	e594a040 	ldr	sl, [r4, #64]	; 0x40
    8b50:	e5947044 	ldr	r7, [r4, #68]	; 0x44
    8b54:	e3590000 	cmp	r9, #0
    8b58:	e58d300c 	str	r3, [sp, #12]
    8b5c:	0a000068 	beq	8d04 <iobuf_ioctl+0x370>
    8b60:	e5940030 	ldr	r0, [r4, #48]	; 0x30
    8b64:	e28d300c 	add	r3, sp, #12
    8b68:	e58d3000 	str	r3, [sp]
    8b6c:	e28d5010 	add	r5, sp, #16
    8b70:	e1a03005 	mov	r3, r5
    8b74:	e3a02000 	mov	r2, #0
    8b78:	e3a01005 	mov	r1, #5
    8b7c:	e12fff39 	blx	r9
    8b80:	e59f024c 	ldr	r0, [pc, #588]	; 8dd4 <iobuf_ioctl+0x440>
    8b84:	e1a03005 	mov	r3, r5
    8b88:	e58d6000 	str	r6, [sp]
    8b8c:	e1a02007 	mov	r2, r7
    8b90:	e08f0000 	add	r0, pc, r0
    8b94:	e1a0100a 	mov	r1, sl
    8b98:	eb002571 	bl	12164 <tfp_printf>
    8b9c:	eaffffdc 	b	8b14 <iobuf_ioctl+0x180>
    8ba0:	e59f3224 	ldr	r3, [pc, #548]	; 8dcc <iobuf_ioctl+0x438>
    8ba4:	e594202c 	ldr	r2, [r4, #44]	; 0x2c
    8ba8:	e7983003 	ldr	r3, [r8, r3]
    8bac:	e1520003 	cmp	r2, r3
    8bb0:	05943030 	ldreq	r3, [r4, #48]	; 0x30
    8bb4:	05836004 	streq	r6, [r3, #4]
    8bb8:	0affffcf 	beq	8afc <iobuf_ioctl+0x168>
    8bbc:	e3e00000 	mvn	r0, #0
    8bc0:	eaffffd6 	b	8b20 <iobuf_ioctl+0x18c>
    8bc4:	e3570000 	cmp	r7, #0
    8bc8:	11a01007 	movne	r1, r7
    8bcc:	0a000071 	beq	8d98 <iobuf_ioctl+0x404>
    8bd0:	e59f0200 	ldr	r0, [pc, #512]	; 8dd8 <iobuf_ioctl+0x444>
    8bd4:	e08f0000 	add	r0, pc, r0
    8bd8:	eb002561 	bl	12164 <tfp_printf>
    8bdc:	eaffffba 	b	8acc <iobuf_ioctl+0x138>
    8be0:	e59f31dc 	ldr	r3, [pc, #476]	; 8dc4 <iobuf_ioctl+0x430>
    8be4:	e7985003 	ldr	r5, [r8, r3]
    8be8:	e5950000 	ldr	r0, [r5]
    8bec:	e3500000 	cmp	r0, #0
    8bf0:	0a00004a 	beq	8d20 <iobuf_ioctl+0x38c>
    8bf4:	e3570000 	cmp	r7, #0
    8bf8:	0a000069 	beq	8da4 <iobuf_ioctl+0x410>
    8bfc:	e59f01d8 	ldr	r0, [pc, #472]	; 8ddc <iobuf_ioctl+0x448>
    8c00:	e1a01007 	mov	r1, r7
    8c04:	e08f0000 	add	r0, pc, r0
    8c08:	eb002555 	bl	12164 <tfp_printf>
    8c0c:	e1943006 	orrs	r3, r4, r6
    8c10:	1affffc1 	bne	8b1c <iobuf_ioctl+0x188>
    8c14:	e5950000 	ldr	r0, [r5]
    8c18:	e3500000 	cmp	r0, #0
    8c1c:	0affffb6 	beq	8afc <iobuf_ioctl+0x168>
    8c20:	e59f01b8 	ldr	r0, [pc, #440]	; 8de0 <iobuf_ioctl+0x44c>
    8c24:	e1a01007 	mov	r1, r7
    8c28:	e08f0000 	add	r0, pc, r0
    8c2c:	eb00254c 	bl	12164 <tfp_printf>
    8c30:	e3a00000 	mov	r0, #0
    8c34:	eaffffb0 	b	8afc <iobuf_ioctl+0x168>
    8c38:	e59f3184 	ldr	r3, [pc, #388]	; 8dc4 <iobuf_ioctl+0x430>
    8c3c:	e7983003 	ldr	r3, [r8, r3]
    8c40:	e5933000 	ldr	r3, [r3]
    8c44:	e3530000 	cmp	r3, #0
    8c48:	0a00001c 	beq	8cc0 <iobuf_ioctl+0x32c>
    8c4c:	e3540000 	cmp	r4, #0
    8c50:	0a00003a 	beq	8d40 <iobuf_ioctl+0x3ac>
    8c54:	e594902c 	ldr	r9, [r4, #44]	; 0x2c
    8c58:	e3a03020 	mov	r3, #32
    8c5c:	e594a040 	ldr	sl, [r4, #64]	; 0x40
    8c60:	e5947044 	ldr	r7, [r4, #68]	; 0x44
    8c64:	e3590000 	cmp	r9, #0
    8c68:	e58d300c 	str	r3, [sp, #12]
    8c6c:	0a000037 	beq	8d50 <iobuf_ioctl+0x3bc>
    8c70:	e5940030 	ldr	r0, [r4, #48]	; 0x30
    8c74:	e28d300c 	add	r3, sp, #12
    8c78:	e58d3000 	str	r3, [sp]
    8c7c:	e28d5010 	add	r5, sp, #16
    8c80:	e1a03005 	mov	r3, r5
    8c84:	e3a02000 	mov	r2, #0
    8c88:	e3a01005 	mov	r1, #5
    8c8c:	e12fff39 	blx	r9
    8c90:	e59f014c 	ldr	r0, [pc, #332]	; 8de4 <iobuf_ioctl+0x450>
    8c94:	e1a03005 	mov	r3, r5
    8c98:	e58d6000 	str	r6, [sp]
    8c9c:	e1a02007 	mov	r2, r7
    8ca0:	e08f0000 	add	r0, pc, r0
    8ca4:	e1a0100a 	mov	r1, sl
    8ca8:	eb00252d 	bl	12164 <tfp_printf>
    8cac:	ea000003 	b	8cc0 <iobuf_ioctl+0x32c>
    8cb0:	e594303c 	ldr	r3, [r4, #60]	; 0x3c
    8cb4:	e3530000 	cmp	r3, #0
    8cb8:	0a000003 	beq	8ccc <iobuf_ioctl+0x338>
    8cbc:	e1a04003 	mov	r4, r3
    8cc0:	e3540000 	cmp	r4, #0
    8cc4:	1afffff9 	bne	8cb0 <iobuf_ioctl+0x31c>
    8cc8:	eaffff93 	b	8b1c <iobuf_ioctl+0x188>
    8ccc:	e59f20f8 	ldr	r2, [pc, #248]	; 8dcc <iobuf_ioctl+0x438>
    8cd0:	e594102c 	ldr	r1, [r4, #44]	; 0x2c
    8cd4:	e7982002 	ldr	r2, [r8, r2]
    8cd8:	e1510002 	cmp	r1, r2
    8cdc:	01a00003 	moveq	r0, r3
    8ce0:	05942030 	ldreq	r2, [r4, #48]	; 0x30
    8ce4:	05826008 	streq	r6, [r2, #8]
    8ce8:	0affff83 	beq	8afc <iobuf_ioctl+0x168>
    8cec:	e3e00000 	mvn	r0, #0
    8cf0:	eaffff8a 	b	8b20 <iobuf_ioctl+0x18c>
    8cf4:	e3e07000 	mvn	r7, #0
    8cf8:	e3a03020 	mov	r3, #32
    8cfc:	e58d300c 	str	r3, [sp, #12]
    8d00:	e1a0a007 	mov	sl, r7
    8d04:	e59f10dc 	ldr	r1, [pc, #220]	; 8de8 <iobuf_ioctl+0x454>
    8d08:	e28d5010 	add	r5, sp, #16
    8d0c:	e3a02002 	mov	r2, #2
    8d10:	e1a00005 	mov	r0, r5
    8d14:	e08f1001 	add	r1, pc, r1
    8d18:	eb001c45 	bl	fe34 <memcpy>
    8d1c:	eaffff97 	b	8b80 <iobuf_ioctl+0x1ec>
    8d20:	e2577000 	subs	r7, r7, #0
    8d24:	e1844006 	orr	r4, r4, r6
    8d28:	13a07001 	movne	r7, #1
    8d2c:	e3540000 	cmp	r4, #0
    8d30:	13a07000 	movne	r7, #0
    8d34:	e3570000 	cmp	r7, #0
    8d38:	1affff6f 	bne	8afc <iobuf_ioctl+0x168>
    8d3c:	eaffff76 	b	8b1c <iobuf_ioctl+0x188>
    8d40:	e3e07000 	mvn	r7, #0
    8d44:	e3a03020 	mov	r3, #32
    8d48:	e58d300c 	str	r3, [sp, #12]
    8d4c:	e1a0a007 	mov	sl, r7
    8d50:	e59f1094 	ldr	r1, [pc, #148]	; 8dec <iobuf_ioctl+0x458>
    8d54:	e28d5010 	add	r5, sp, #16
    8d58:	e3a02002 	mov	r2, #2
    8d5c:	e1a00005 	mov	r0, r5
    8d60:	e08f1001 	add	r1, pc, r1
    8d64:	eb001c32 	bl	fe34 <memcpy>
    8d68:	eaffffc8 	b	8c90 <iobuf_ioctl+0x2fc>
    8d6c:	e3e09000 	mvn	r9, #0
    8d70:	e3a03020 	mov	r3, #32
    8d74:	e58d300c 	str	r3, [sp, #12]
    8d78:	e1a0b009 	mov	fp, r9
    8d7c:	e59f106c 	ldr	r1, [pc, #108]	; 8df0 <iobuf_ioctl+0x45c>
    8d80:	e28d5010 	add	r5, sp, #16
    8d84:	e3a02002 	mov	r2, #2
    8d88:	e1a00005 	mov	r0, r5
    8d8c:	e08f1001 	add	r1, pc, r1
    8d90:	eb001c27 	bl	fe34 <memcpy>
    8d94:	eaffff29 	b	8a40 <iobuf_ioctl+0xac>
    8d98:	e59f1054 	ldr	r1, [pc, #84]	; 8df4 <iobuf_ioctl+0x460>
    8d9c:	e08f1001 	add	r1, pc, r1
    8da0:	eaffff8a 	b	8bd0 <iobuf_ioctl+0x23c>
    8da4:	e59f104c 	ldr	r1, [pc, #76]	; 8df8 <iobuf_ioctl+0x464>
    8da8:	e59f004c 	ldr	r0, [pc, #76]	; 8dfc <iobuf_ioctl+0x468>
    8dac:	e08f1001 	add	r1, pc, r1
    8db0:	e08f0000 	add	r0, pc, r0
    8db4:	eb0024ea 	bl	12164 <tfp_printf>
    8db8:	eaffff57 	b	8b1c <iobuf_ioctl+0x188>
    8dbc:	0000d868 	.word	0x0000d868
    8dc0:	00033170 	.word	0x00033170
    8dc4:	0000001c 	.word	0x0000001c
    8dc8:	0000d88c 	.word	0x0000d88c
    8dcc:	00000048 	.word	0x00000048
    8dd0:	0000d880 	.word	0x0000d880
    8dd4:	0000d69c 	.word	0x0000d69c
    8dd8:	0000d680 	.word	0x0000d680
    8ddc:	0000d69c 	.word	0x0000d69c
    8de0:	0000d698 	.word	0x0000d698
    8de4:	0000d5d8 	.word	0x0000d5d8
    8de8:	0000d3c8 	.word	0x0000d3c8
    8dec:	0000d37c 	.word	0x0000d37c
    8df0:	0000d350 	.word	0x0000d350
    8df4:	0000d340 	.word	0x0000d340
    8df8:	0000d56c 	.word	0x0000d56c
    8dfc:	0000d4f0 	.word	0x0000d4f0

00008e00 <iobuf_fdopen>:
    8e00:	e1a03001 	mov	r3, r1
    8e04:	e3a01077 	mov	r1, #119	; 0x77
    8e08:	e92d43f0 	push	{r4, r5, r6, r7, r8, r9, lr}
    8e0c:	e1a07000 	mov	r7, r0
    8e10:	e59f60dc 	ldr	r6, [pc, #220]	; 8ef4 <iobuf_fdopen+0xf4>
    8e14:	e24dd014 	sub	sp, sp, #20
    8e18:	e1a00003 	mov	r0, r3
    8e1c:	e3a08000 	mov	r8, #0
    8e20:	e08f6006 	add	r6, pc, r6
    8e24:	eb001c63 	bl	ffb8 <strchr>
    8e28:	e3500000 	cmp	r0, #0
    8e2c:	e3a01a02 	mov	r1, #8192	; 0x2000
    8e30:	13a00002 	movne	r0, #2
    8e34:	01a00008 	moveq	r0, r8
    8e38:	e3a09001 	mov	r9, #1
    8e3c:	ebfffdaf 	bl	8500 <iobuf_alloc>
    8e40:	e1a05000 	mov	r5, r0
    8e44:	e3a0004c 	mov	r0, #76	; 0x4c
    8e48:	eb001bcb 	bl	fd7c <xmalloc>
    8e4c:	e59f10a4 	ldr	r1, [pc, #164]	; 8ef8 <iobuf_fdopen+0xf8>
    8e50:	e1a02007 	mov	r2, r7
    8e54:	e5807000 	str	r7, [r0]
    8e58:	e2807036 	add	r7, r0, #54	; 0x36
    8e5c:	e08f1001 	add	r1, pc, r1
    8e60:	e1a04000 	mov	r4, r0
    8e64:	e5809010 	str	r9, [r0, #16]
    8e68:	e5808004 	str	r8, [r0, #4]
    8e6c:	e1a00007 	mov	r0, r7
    8e70:	eb0024cb 	bl	121a4 <tfp_sprintf>
    8e74:	e59f3080 	ldr	r3, [pc, #128]	; 8efc <iobuf_fdopen+0xfc>
    8e78:	e1a01009 	mov	r1, r9
    8e7c:	e1a00004 	mov	r0, r4
    8e80:	e1a02008 	mov	r2, r8
    8e84:	e7963003 	ldr	r3, [r6, r3]
    8e88:	e5854030 	str	r4, [r5, #48]	; 0x30
    8e8c:	e585302c 	str	r3, [r5, #44]	; 0x2c
    8e90:	e28d300c 	add	r3, sp, #12
    8e94:	e58d3000 	str	r3, [sp]
    8e98:	e1a03008 	mov	r3, r8
    8e9c:	ebfffc8b 	bl	80d0 <file_filter>
    8ea0:	e59f3058 	ldr	r3, [pc, #88]	; 8f00 <iobuf_fdopen+0x100>
    8ea4:	e7963003 	ldr	r3, [r6, r3]
    8ea8:	e5933000 	ldr	r3, [r3]
    8eac:	e1530008 	cmp	r3, r8
    8eb0:	0a000007 	beq	8ed4 <iobuf_fdopen+0xd4>
    8eb4:	e59f3048 	ldr	r3, [pc, #72]	; 8f04 <iobuf_fdopen+0x104>
    8eb8:	e59f0048 	ldr	r0, [pc, #72]	; 8f08 <iobuf_fdopen+0x108>
    8ebc:	e5952044 	ldr	r2, [r5, #68]	; 0x44
    8ec0:	e5951040 	ldr	r1, [r5, #64]	; 0x40
    8ec4:	e08f3003 	add	r3, pc, r3
    8ec8:	e08f0000 	add	r0, pc, r0
    8ecc:	e58d7000 	str	r7, [sp]
    8ed0:	eb0024a3 	bl	12164 <tfp_printf>
    8ed4:	e3a03000 	mov	r3, #0
    8ed8:	e3a02001 	mov	r2, #1
    8edc:	e3a01003 	mov	r1, #3
    8ee0:	e1a00005 	mov	r0, r5
    8ee4:	ebfffeaa 	bl	8994 <iobuf_ioctl>
    8ee8:	e1a00005 	mov	r0, r5
    8eec:	e28dd014 	add	sp, sp, #20
    8ef0:	e8bd83f0 	pop	{r4, r5, r6, r7, r8, r9, pc}
    8ef4:	00032d04 	.word	0x00032d04
    8ef8:	0000d4c4 	.word	0x0000d4c4
    8efc:	00000048 	.word	0x00000048
    8f00:	0000001c 	.word	0x0000001c
    8f04:	0000e430 	.word	0x0000e430
    8f08:	0000d460 	.word	0x0000d460

00008f0c <iobuf_push_filter2>:
    8f0c:	e92d43f0 	push	{r4, r5, r6, r7, r8, r9, lr}
    8f10:	e24dd034 	sub	sp, sp, #52	; 0x34
    8f14:	e5d0c000 	ldrb	ip, [r0]
    8f18:	e1a09003 	mov	r9, r3
    8f1c:	e59f81bc 	ldr	r8, [pc, #444]	; 90e0 <iobuf_push_filter2+0x1d4>
    8f20:	e3a03000 	mov	r3, #0
    8f24:	e58d3008 	str	r3, [sp, #8]
    8f28:	e35c0002 	cmp	ip, #2
    8f2c:	e08f8008 	add	r8, pc, r8
    8f30:	e1a04000 	mov	r4, r0
    8f34:	e1a05001 	mov	r5, r1
    8f38:	e1a07002 	mov	r7, r2
    8f3c:	0a00005c 	beq	90b4 <iobuf_push_filter2+0x1a8>
    8f40:	e5943044 	ldr	r3, [r4, #68]	; 0x44
    8f44:	e353003f 	cmp	r3, #63	; 0x3f
    8f48:	ca000039 	bgt	9034 <iobuf_push_filter2+0x128>
    8f4c:	e3a00048 	mov	r0, #72	; 0x48
    8f50:	eb001b89 	bl	fd7c <xmalloc>
    8f54:	e3a02048 	mov	r2, #72	; 0x48
    8f58:	e1a01004 	mov	r1, r4
    8f5c:	e1a06000 	mov	r6, r0
    8f60:	eb001bb3 	bl	fe34 <memcpy>
    8f64:	e5d42000 	ldrb	r2, [r4]
    8f68:	e3a03000 	mov	r3, #0
    8f6c:	e584302c 	str	r3, [r4, #44]	; 0x2c
    8f70:	e5843030 	str	r3, [r4, #48]	; 0x30
    8f74:	e3520003 	cmp	r2, #3
    8f78:	e5843034 	str	r3, [r4, #52]	; 0x34
    8f7c:	e5843024 	str	r3, [r4, #36]	; 0x24
    8f80:	0a000026 	beq	9020 <iobuf_push_filter2+0x114>
    8f84:	e3520001 	cmp	r2, #1
    8f88:	05c43000 	strbeq	r3, [r4]
    8f8c:	03a00a02 	moveq	r0, #8192	; 0x2000
    8f90:	15940014 	ldrne	r0, [r4, #20]
    8f94:	05840014 	streq	r0, [r4, #20]
    8f98:	eb001b77 	bl	fd7c <xmalloc>
    8f9c:	e1c620d8 	ldrd	r2, [r6, #8]
    8fa0:	e584603c 	str	r6, [r4, #60]	; 0x3c
    8fa4:	e5966044 	ldr	r6, [r6, #68]	; 0x44
    8fa8:	e0833002 	add	r3, r3, r2
    8fac:	e59f2130 	ldr	r2, [pc, #304]	; 90e4 <iobuf_push_filter2+0x1d8>
    8fb0:	e2866001 	add	r6, r6, #1
    8fb4:	e584300c 	str	r3, [r4, #12]
    8fb8:	e3a03000 	mov	r3, #0
    8fbc:	e5840020 	str	r0, [r4, #32]
    8fc0:	e5849034 	str	r9, [r4, #52]	; 0x34
    8fc4:	e584502c 	str	r5, [r4, #44]	; 0x2c
    8fc8:	e5847030 	str	r7, [r4, #48]	; 0x30
    8fcc:	e5846044 	str	r6, [r4, #68]	; 0x44
    8fd0:	e584301c 	str	r3, [r4, #28]
    8fd4:	e5843018 	str	r3, [r4, #24]
    8fd8:	e5843008 	str	r3, [r4, #8]
    8fdc:	e5843004 	str	r3, [r4, #4]
    8fe0:	e5843010 	str	r3, [r4, #16]
    8fe4:	e7988002 	ldr	r8, [r8, r2]
    8fe8:	e5982000 	ldr	r2, [r8]
    8fec:	e1520003 	cmp	r2, r3
    8ff0:	1a000015 	bne	904c <iobuf_push_filter2+0x140>
    8ff4:	e3550000 	cmp	r5, #0
    8ff8:	0a000006 	beq	9018 <iobuf_push_filter2+0x10c>
    8ffc:	e594203c 	ldr	r2, [r4, #60]	; 0x3c
    9000:	e28d1008 	add	r1, sp, #8
    9004:	e5940030 	ldr	r0, [r4, #48]	; 0x30
    9008:	e3a03000 	mov	r3, #0
    900c:	e58d1000 	str	r1, [sp]
    9010:	e3a01001 	mov	r1, #1
    9014:	e12fff35 	blx	r5
    9018:	e28dd034 	add	sp, sp, #52	; 0x34
    901c:	e8bd83f0 	pop	{r4, r5, r6, r7, r8, r9, pc}
    9020:	e3a00a02 	mov	r0, #8192	; 0x2000
    9024:	e3a03002 	mov	r3, #2
    9028:	e5840014 	str	r0, [r4, #20]
    902c:	e5c43000 	strb	r3, [r4]
    9030:	eaffffd8 	b	8f98 <iobuf_push_filter2+0x8c>
    9034:	e59f00ac 	ldr	r0, [pc, #172]	; 90e8 <iobuf_push_filter2+0x1dc>
    9038:	e08f0000 	add	r0, pc, r0
    903c:	eb002448 	bl	12164 <tfp_printf>
    9040:	e3a00059 	mov	r0, #89	; 0x59
    9044:	e28dd034 	add	sp, sp, #52	; 0x34
    9048:	e8bd83f0 	pop	{r4, r5, r6, r7, r8, r9, pc}
    904c:	e1550003 	cmp	r5, r3
    9050:	e3a02020 	mov	r2, #32
    9054:	e5949040 	ldr	r9, [r4, #64]	; 0x40
    9058:	e58d200c 	str	r2, [sp, #12]
    905c:	0a000018 	beq	90c4 <iobuf_push_filter2+0x1b8>
    9060:	e1a02003 	mov	r2, r3
    9064:	e1a00007 	mov	r0, r7
    9068:	e28d300c 	add	r3, sp, #12
    906c:	e28d7010 	add	r7, sp, #16
    9070:	e58d3000 	str	r3, [sp]
    9074:	e3a01005 	mov	r1, #5
    9078:	e1a03007 	mov	r3, r7
    907c:	e12fff35 	blx	r5
    9080:	e59f0064 	ldr	r0, [pc, #100]	; 90ec <iobuf_push_filter2+0x1e0>
    9084:	e1a03007 	mov	r3, r7
    9088:	e1a02006 	mov	r2, r6
    908c:	e1a01009 	mov	r1, r9
    9090:	e08f0000 	add	r0, pc, r0
    9094:	eb002432 	bl	12164 <tfp_printf>
    9098:	e5983000 	ldr	r3, [r8]
    909c:	e3530000 	cmp	r3, #0
    90a0:	0a000001 	beq	90ac <iobuf_push_filter2+0x1a0>
    90a4:	e1a00004 	mov	r0, r4
    90a8:	ebfffcad 	bl	8364 <print_chain.part.0>
    90ac:	e594502c 	ldr	r5, [r4, #44]	; 0x2c
    90b0:	eaffffcf 	b	8ff4 <iobuf_push_filter2+0xe8>
    90b4:	ebfffc61 	bl	8240 <filter_flush>
    90b8:	e3500000 	cmp	r0, #0
    90bc:	0affff9f 	beq	8f40 <iobuf_push_filter2+0x34>
    90c0:	eaffffd4 	b	9018 <iobuf_push_filter2+0x10c>
    90c4:	e59f1024 	ldr	r1, [pc, #36]	; 90f0 <iobuf_push_filter2+0x1e4>
    90c8:	e28d7010 	add	r7, sp, #16
    90cc:	e3a02002 	mov	r2, #2
    90d0:	e1a00007 	mov	r0, r7
    90d4:	e08f1001 	add	r1, pc, r1
    90d8:	eb001b55 	bl	fe34 <memcpy>
    90dc:	eaffffe7 	b	9080 <iobuf_push_filter2+0x174>
    90e0:	00032bf8 	.word	0x00032bf8
    90e4:	0000001c 	.word	0x0000001c
    90e8:	0000d30c 	.word	0x0000d30c
    90ec:	0000d2e4 	.word	0x0000d2e4
    90f0:	0000d008 	.word	0x0000d008

000090f4 <iobuf_push_filter>:
    90f4:	e3a03000 	mov	r3, #0
    90f8:	eaffff83 	b	8f0c <iobuf_push_filter2>

000090fc <iobuf_pop_filter>:
    90fc:	e92d4ff0 	push	{r4, r5, r6, r7, r8, r9, sl, fp, lr}
    9100:	e1a06000 	mov	r6, r0
    9104:	e59f02b4 	ldr	r0, [pc, #692]	; 93c0 <iobuf_pop_filter+0x2c4>
    9108:	e24dd034 	sub	sp, sp, #52	; 0x34
    910c:	e59f42b0 	ldr	r4, [pc, #688]	; 93c4 <iobuf_pop_filter+0x2c8>
    9110:	e1a08001 	mov	r8, r1
    9114:	e08f0000 	add	r0, pc, r0
    9118:	e1a09002 	mov	r9, r2
    911c:	e5961008 	ldr	r1, [r6, #8]
    9120:	e08f4004 	add	r4, pc, r4
    9124:	eb00240e 	bl	12164 <tfp_printf>
    9128:	e59f1298 	ldr	r1, [pc, #664]	; 93c8 <iobuf_pop_filter+0x2cc>
    912c:	e3a02000 	mov	r2, #0
    9130:	e58d2008 	str	r2, [sp, #8]
    9134:	e1a03004 	mov	r3, r4
    9138:	e7947001 	ldr	r7, [r4, r1]
    913c:	e5973000 	ldr	r3, [r7]
    9140:	e1530002 	cmp	r3, r2
    9144:	1a000039 	bne	9230 <iobuf_pop_filter+0x134>
    9148:	e5d62000 	ldrb	r2, [r6]
    914c:	e20230fd 	and	r3, r2, #253	; 0xfd
    9150:	e3530001 	cmp	r3, #1
    9154:	0a00002e 	beq	9214 <iobuf_pop_filter+0x118>
    9158:	e596502c 	ldr	r5, [r6, #44]	; 0x2c
    915c:	e3550000 	cmp	r5, #0
    9160:	11a04006 	movne	r4, r6
    9164:	1a000004 	bne	917c <iobuf_pop_filter+0x80>
    9168:	ea00007c 	b	9360 <iobuf_pop_filter+0x264>
    916c:	e594403c 	ldr	r4, [r4, #60]	; 0x3c
    9170:	e3540000 	cmp	r4, #0
    9174:	0a00006d 	beq	9330 <iobuf_pop_filter+0x234>
    9178:	e594502c 	ldr	r5, [r4, #44]	; 0x2c
    917c:	e1580005 	cmp	r8, r5
    9180:	1afffff9 	bne	916c <iobuf_pop_filter+0x70>
    9184:	e3590000 	cmp	r9, #0
    9188:	0a000002 	beq	9198 <iobuf_pop_filter+0x9c>
    918c:	e5943030 	ldr	r3, [r4, #48]	; 0x30
    9190:	e1530009 	cmp	r3, r9
    9194:	1afffff4 	bne	916c <iobuf_pop_filter+0x70>
    9198:	e3520002 	cmp	r2, #2
    919c:	0a000038 	beq	9284 <iobuf_pop_filter+0x188>
    91a0:	e594502c 	ldr	r5, [r4, #44]	; 0x2c
    91a4:	e3550000 	cmp	r5, #0
    91a8:	0a000008 	beq	91d0 <iobuf_pop_filter+0xd4>
    91ac:	e594203c 	ldr	r2, [r4, #60]	; 0x3c
    91b0:	e28d3008 	add	r3, sp, #8
    91b4:	e5940030 	ldr	r0, [r4, #48]	; 0x30
    91b8:	e3a01002 	mov	r1, #2
    91bc:	e58d3000 	str	r3, [sp]
    91c0:	e3a03000 	mov	r3, #0
    91c4:	e12fff35 	blx	r5
    91c8:	e3500000 	cmp	r0, #0
    91cc:	1a00000e 	bne	920c <iobuf_pop_filter+0x110>
    91d0:	e5940030 	ldr	r0, [r4, #48]	; 0x30
    91d4:	e3500000 	cmp	r0, #0
    91d8:	0a000002 	beq	91e8 <iobuf_pop_filter+0xec>
    91dc:	e5943034 	ldr	r3, [r4, #52]	; 0x34
    91e0:	e3530000 	cmp	r3, #0
    91e4:	1a00002b 	bne	9298 <iobuf_pop_filter+0x19c>
    91e8:	e1560004 	cmp	r6, r4
    91ec:	0a000034 	beq	92c4 <iobuf_pop_filter+0x1c8>
    91f0:	e594503c 	ldr	r5, [r4, #60]	; 0x3c
    91f4:	e3550000 	cmp	r5, #0
    91f8:	0a000053 	beq	934c <iobuf_pop_filter+0x250>
    91fc:	e59f01c8 	ldr	r0, [pc, #456]	; 93cc <iobuf_pop_filter+0x2d0>
    9200:	e08f0000 	add	r0, pc, r0
    9204:	eb0023d6 	bl	12164 <tfp_printf>
    9208:	e3a00000 	mov	r0, #0
    920c:	e28dd034 	add	sp, sp, #52	; 0x34
    9210:	e8bd8ff0 	pop	{r4, r5, r6, r7, r8, r9, sl, fp, pc}
    9214:	e596003c 	ldr	r0, [r6, #60]	; 0x3c
    9218:	e16f0f10 	clz	r0, r0
    921c:	e1a002a0 	lsr	r0, r0, #5
    9220:	eb0023cf 	bl	12164 <tfp_printf>
    9224:	e3a00000 	mov	r0, #0
    9228:	e28dd034 	add	sp, sp, #52	; 0x34
    922c:	e8bd8ff0 	pop	{r4, r5, r6, r7, r8, r9, sl, fp, pc}
    9230:	e596402c 	ldr	r4, [r6, #44]	; 0x2c
    9234:	e3a03020 	mov	r3, #32
    9238:	e5965040 	ldr	r5, [r6, #64]	; 0x40
    923c:	e1540002 	cmp	r4, r2
    9240:	e596a044 	ldr	sl, [r6, #68]	; 0x44
    9244:	e58d300c 	str	r3, [sp, #12]
    9248:	0a000016 	beq	92a8 <iobuf_pop_filter+0x1ac>
    924c:	e5960030 	ldr	r0, [r6, #48]	; 0x30
    9250:	e28d300c 	add	r3, sp, #12
    9254:	e58d3000 	str	r3, [sp]
    9258:	e28db010 	add	fp, sp, #16
    925c:	e1a0300b 	mov	r3, fp
    9260:	e3a01005 	mov	r1, #5
    9264:	e12fff34 	blx	r4
    9268:	e59f0160 	ldr	r0, [pc, #352]	; 93d0 <iobuf_pop_filter+0x2d4>
    926c:	e1a0300b 	mov	r3, fp
    9270:	e1a0200a 	mov	r2, sl
    9274:	e1a01005 	mov	r1, r5
    9278:	e08f0000 	add	r0, pc, r0
    927c:	eb0023b8 	bl	12164 <tfp_printf>
    9280:	eaffffb0 	b	9148 <iobuf_pop_filter+0x4c>
    9284:	e1a00004 	mov	r0, r4
    9288:	ebfffbec 	bl	8240 <filter_flush>
    928c:	e3500000 	cmp	r0, #0
    9290:	0affffc2 	beq	91a0 <iobuf_pop_filter+0xa4>
    9294:	eaffffdc 	b	920c <iobuf_pop_filter+0x110>
    9298:	eb001aab 	bl	fd4c <xfree>
    929c:	e3a03000 	mov	r3, #0
    92a0:	e5843030 	str	r3, [r4, #48]	; 0x30
    92a4:	eaffffcf 	b	91e8 <iobuf_pop_filter+0xec>
    92a8:	e59f1124 	ldr	r1, [pc, #292]	; 93d4 <iobuf_pop_filter+0x2d8>
    92ac:	e28db010 	add	fp, sp, #16
    92b0:	e3a02002 	mov	r2, #2
    92b4:	e1a0000b 	mov	r0, fp
    92b8:	e08f1001 	add	r1, pc, r1
    92bc:	eb001adc 	bl	fe34 <memcpy>
    92c0:	eaffffe8 	b	9268 <iobuf_pop_filter+0x16c>
    92c4:	e596503c 	ldr	r5, [r6, #60]	; 0x3c
    92c8:	e3550000 	cmp	r5, #0
    92cc:	0a000036 	beq	93ac <iobuf_pop_filter+0x2b0>
    92d0:	e5960020 	ldr	r0, [r6, #32]
    92d4:	eb001a9c 	bl	fd4c <xfree>
    92d8:	e5960038 	ldr	r0, [r6, #56]	; 0x38
    92dc:	eb001a9a 	bl	fd4c <xfree>
    92e0:	e3a02048 	mov	r2, #72	; 0x48
    92e4:	e1a01005 	mov	r1, r5
    92e8:	e1a00006 	mov	r0, r6
    92ec:	eb001ad0 	bl	fe34 <memcpy>
    92f0:	e1a00005 	mov	r0, r5
    92f4:	eb001a94 	bl	fd4c <xfree>
    92f8:	e59f00d8 	ldr	r0, [pc, #216]	; 93d8 <iobuf_pop_filter+0x2dc>
    92fc:	e3a01048 	mov	r1, #72	; 0x48
    9300:	e08f0000 	add	r0, pc, r0
    9304:	eb002396 	bl	12164 <tfp_printf>
    9308:	e5970000 	ldr	r0, [r7]
    930c:	e3500000 	cmp	r0, #0
    9310:	0affffbd 	beq	920c <iobuf_pop_filter+0x110>
    9314:	e59f00c0 	ldr	r0, [pc, #192]	; 93dc <iobuf_pop_filter+0x2e0>
    9318:	e5962044 	ldr	r2, [r6, #68]	; 0x44
    931c:	e08f0000 	add	r0, pc, r0
    9320:	e5961040 	ldr	r1, [r6, #64]	; 0x40
    9324:	eb00238e 	bl	12164 <tfp_printf>
    9328:	e3a00000 	mov	r0, #0
    932c:	eaffffb6 	b	920c <iobuf_pop_filter+0x110>
    9330:	e59f00a8 	ldr	r0, [pc, #168]	; 93e0 <iobuf_pop_filter+0x2e4>
    9334:	e08f0000 	add	r0, pc, r0
    9338:	eb002389 	bl	12164 <tfp_printf>
    933c:	e5d62000 	ldrb	r2, [r6]
    9340:	e3520002 	cmp	r2, #2
    9344:	1affff95 	bne	91a0 <iobuf_pop_filter+0xa4>
    9348:	eaffffcd 	b	9284 <iobuf_pop_filter+0x188>
    934c:	e59f0090 	ldr	r0, [pc, #144]	; 93e4 <iobuf_pop_filter+0x2e8>
    9350:	e08f0000 	add	r0, pc, r0
    9354:	eb002382 	bl	12164 <tfp_printf>
    9358:	e1a00005 	mov	r0, r5
    935c:	eaffffaa 	b	920c <iobuf_pop_filter+0x110>
    9360:	e596403c 	ldr	r4, [r6, #60]	; 0x3c
    9364:	e1a00004 	mov	r0, r4
    9368:	eb00237d 	bl	12164 <tfp_printf>
    936c:	e5960020 	ldr	r0, [r6, #32]
    9370:	eb001a75 	bl	fd4c <xfree>
    9374:	e5960038 	ldr	r0, [r6, #56]	; 0x38
    9378:	eb001a73 	bl	fd4c <xfree>
    937c:	e59f0064 	ldr	r0, [pc, #100]	; 93e8 <iobuf_pop_filter+0x2ec>
    9380:	e3a01048 	mov	r1, #72	; 0x48
    9384:	e08f0000 	add	r0, pc, r0
    9388:	eb002375 	bl	12164 <tfp_printf>
    938c:	e3a02048 	mov	r2, #72	; 0x48
    9390:	e1a01004 	mov	r1, r4
    9394:	e1a00006 	mov	r0, r6
    9398:	eb001aa5 	bl	fe34 <memcpy>
    939c:	e1a00004 	mov	r0, r4
    93a0:	eb001a69 	bl	fd4c <xfree>
    93a4:	e1a00005 	mov	r0, r5
    93a8:	eaffff97 	b	920c <iobuf_pop_filter+0x110>
    93ac:	e59f0038 	ldr	r0, [pc, #56]	; 93ec <iobuf_pop_filter+0x2f0>
    93b0:	e08f0000 	add	r0, pc, r0
    93b4:	eb00236a 	bl	12164 <tfp_printf>
    93b8:	e1a00005 	mov	r0, r5
    93bc:	eaffff92 	b	920c <iobuf_pop_filter+0x110>
    93c0:	0000d278 	.word	0x0000d278
    93c4:	00032a04 	.word	0x00032a04
    93c8:	0000001c 	.word	0x0000001c
    93cc:	0000d280 	.word	0x0000d280
    93d0:	0000d12c 	.word	0x0000d12c
    93d4:	0000ce24 	.word	0x0000ce24
    93d8:	0000d10c 	.word	0x0000d10c
    93dc:	0000d11c 	.word	0x0000d11c
    93e0:	0000d180 	.word	0x0000d180
    93e4:	0000d104 	.word	0x0000d104
    93e8:	0000d038 	.word	0x0000d038
    93ec:	0000d02c 	.word	0x0000d02c

000093f0 <iobuf_readbyte>:
    93f0:	e92d40f0 	push	{r4, r5, r6, r7, lr}
    93f4:	e24dd01c 	sub	sp, sp, #28
    93f8:	e59f62c4 	ldr	r6, [pc, #708]	; 96c4 <iobuf_readbyte+0x2d4>
    93fc:	e1a04000 	mov	r4, r0
    9400:	e58d000c 	str	r0, [sp, #12]
    9404:	e5d00000 	ldrb	r0, [r0]
    9408:	e08f6006 	add	r6, pc, r6
    940c:	e2403002 	sub	r3, r0, #2
    9410:	e3530001 	cmp	r3, #1
    9414:	9a00009e 	bls	9694 <iobuf_readbyte+0x2a4>
    9418:	e5943004 	ldr	r3, [r4, #4]
    941c:	e3530000 	cmp	r3, #0
    9420:	1a00000d 	bne	945c <iobuf_readbyte+0x6c>
    9424:	e5941018 	ldr	r1, [r4, #24]
    9428:	e594201c 	ldr	r2, [r4, #28]
    942c:	e1510002 	cmp	r1, r2
    9430:	2a00000e 	bcs	9470 <iobuf_readbyte+0x80>
    9434:	e5943020 	ldr	r3, [r4, #32]
    9438:	e2812001 	add	r2, r1, #1
    943c:	e5842018 	str	r2, [r4, #24]
    9440:	e7d35001 	ldrb	r5, [r3, r1]
    9444:	e5943008 	ldr	r3, [r4, #8]
    9448:	e2833001 	add	r3, r3, #1
    944c:	e5843008 	str	r3, [r4, #8]
    9450:	e1a00005 	mov	r0, r5
    9454:	e28dd01c 	add	sp, sp, #28
    9458:	e8bd80f0 	pop	{r4, r5, r6, r7, pc}
    945c:	e5942008 	ldr	r2, [r4, #8]
    9460:	e1530002 	cmp	r3, r2
    9464:	caffffee 	bgt	9424 <iobuf_readbyte+0x34>
    9468:	e3e05000 	mvn	r5, #0
    946c:	eafffff7 	b	9450 <iobuf_readbyte+0x60>
    9470:	e3500001 	cmp	r0, #1
    9474:	0afffffb 	beq	9468 <iobuf_readbyte+0x78>
    9478:	e5940020 	ldr	r0, [r4, #32]
    947c:	e0422001 	sub	r2, r2, r1
    9480:	e584201c 	str	r2, [r4, #28]
    9484:	e0801001 	add	r1, r0, r1
    9488:	eb001a8f 	bl	fecc <memmove>
    948c:	e594301c 	ldr	r3, [r4, #28]
    9490:	e3a02000 	mov	r2, #0
    9494:	e5842018 	str	r2, [r4, #24]
    9498:	e1530002 	cmp	r3, r2
    949c:	0a00000a 	beq	94cc <iobuf_readbyte+0xdc>
    94a0:	e594502c 	ldr	r5, [r4, #44]	; 0x2c
    94a4:	e3550000 	cmp	r5, #0
    94a8:	0a000073 	beq	967c <iobuf_readbyte+0x28c>
    94ac:	e5941024 	ldr	r1, [r4, #36]	; 0x24
    94b0:	e3510000 	cmp	r1, #0
    94b4:	0a00007d 	beq	96b0 <iobuf_readbyte+0x2c0>
    94b8:	e5943020 	ldr	r3, [r4, #32]
    94bc:	e2821001 	add	r1, r2, #1
    94c0:	e5841018 	str	r1, [r4, #24]
    94c4:	e7d35002 	ldrb	r5, [r3, r2]
    94c8:	eaffffdd 	b	9444 <iobuf_readbyte+0x54>
    94cc:	e5942024 	ldr	r2, [r4, #36]	; 0x24
    94d0:	e3520000 	cmp	r2, #0
    94d4:	0a000015 	beq	9530 <iobuf_readbyte+0x140>
    94d8:	e594503c 	ldr	r5, [r4, #60]	; 0x3c
    94dc:	e3550000 	cmp	r5, #0
    94e0:	0a000063 	beq	9674 <iobuf_readbyte+0x284>
    94e4:	e5940020 	ldr	r0, [r4, #32]
    94e8:	eb001a17 	bl	fd4c <xfree>
    94ec:	e5940038 	ldr	r0, [r4, #56]	; 0x38
    94f0:	eb001a15 	bl	fd4c <xfree>
    94f4:	e3a02048 	mov	r2, #72	; 0x48
    94f8:	e1a01005 	mov	r1, r5
    94fc:	e1a00004 	mov	r0, r4
    9500:	eb001a4b 	bl	fe34 <memcpy>
    9504:	e1a00005 	mov	r0, r5
    9508:	eb001a0f 	bl	fd4c <xfree>
    950c:	e59f31b4 	ldr	r3, [pc, #436]	; 96c8 <iobuf_readbyte+0x2d8>
    9510:	e7963003 	ldr	r3, [r6, r3]
    9514:	e5933000 	ldr	r3, [r3]
    9518:	e3530000 	cmp	r3, #0
    951c:	0affffd1 	beq	9468 <iobuf_readbyte+0x78>
    9520:	e1a00004 	mov	r0, r4
    9524:	e3e05000 	mvn	r5, #0
    9528:	ebfffb8d 	bl	8364 <print_chain.part.0>
    952c:	eaffffc7 	b	9450 <iobuf_readbyte+0x60>
    9530:	e5942028 	ldr	r2, [r4, #40]	; 0x28
    9534:	e3520000 	cmp	r2, #0
    9538:	1affffca 	bne	9468 <iobuf_readbyte+0x78>
    953c:	e594502c 	ldr	r5, [r4, #44]	; 0x2c
    9540:	e3550000 	cmp	r5, #0
    9544:	0affffc7 	beq	9468 <iobuf_readbyte+0x78>
    9548:	e5942014 	ldr	r2, [r4, #20]
    954c:	e0422003 	sub	r2, r2, r3
    9550:	e58d2010 	str	r2, [sp, #16]
    9554:	e3520000 	cmp	r2, #0
    9558:	0a000042 	beq	9668 <iobuf_readbyte+0x278>
    955c:	e5942020 	ldr	r2, [r4, #32]
    9560:	e28d1010 	add	r1, sp, #16
    9564:	e5940030 	ldr	r0, [r4, #48]	; 0x30
    9568:	e0823003 	add	r3, r2, r3
    956c:	e594203c 	ldr	r2, [r4, #60]	; 0x3c
    9570:	e58d1000 	str	r1, [sp]
    9574:	e3a01003 	mov	r1, #3
    9578:	e12fff35 	blx	r5
    957c:	e594201c 	ldr	r2, [r4, #28]
    9580:	e3700001 	cmn	r0, #1
    9584:	e59d3010 	ldr	r3, [sp, #16]
    9588:	e1a05000 	mov	r5, r0
    958c:	e0823003 	add	r3, r2, r3
    9590:	e584301c 	str	r3, [r4, #28]
    9594:	1a00002d 	bne	9650 <iobuf_readbyte+0x260>
    9598:	e594702c 	ldr	r7, [r4, #44]	; 0x2c
    959c:	e3a03000 	mov	r3, #0
    95a0:	e594203c 	ldr	r2, [r4, #60]	; 0x3c
    95a4:	e28d1014 	add	r1, sp, #20
    95a8:	e58d1000 	str	r1, [sp]
    95ac:	e3a01002 	mov	r1, #2
    95b0:	e5940030 	ldr	r0, [r4, #48]	; 0x30
    95b4:	e58d3014 	str	r3, [sp, #20]
    95b8:	e12fff37 	blx	r7
    95bc:	e3500000 	cmp	r0, #0
    95c0:	1a00002f 	bne	9684 <iobuf_readbyte+0x294>
    95c4:	e5940030 	ldr	r0, [r4, #48]	; 0x30
    95c8:	e3500000 	cmp	r0, #0
    95cc:	0a000002 	beq	95dc <iobuf_readbyte+0x1ec>
    95d0:	e5943034 	ldr	r3, [r4, #52]	; 0x34
    95d4:	e3530000 	cmp	r3, #0
    95d8:	1a000032 	bne	96a8 <iobuf_readbyte+0x2b8>
    95dc:	e594301c 	ldr	r3, [r4, #28]
    95e0:	e3a02000 	mov	r2, #0
    95e4:	e5842030 	str	r2, [r4, #48]	; 0x30
    95e8:	e1530002 	cmp	r3, r2
    95ec:	e584202c 	str	r2, [r4, #44]	; 0x2c
    95f0:	e3a02001 	mov	r2, #1
    95f4:	e5842024 	str	r2, [r4, #36]	; 0x24
    95f8:	1a000019 	bne	9664 <iobuf_readbyte+0x274>
    95fc:	e594703c 	ldr	r7, [r4, #60]	; 0x3c
    9600:	e3570000 	cmp	r7, #0
    9604:	0affff91 	beq	9450 <iobuf_readbyte+0x60>
    9608:	e5940020 	ldr	r0, [r4, #32]
    960c:	eb0019ce 	bl	fd4c <xfree>
    9610:	e5940038 	ldr	r0, [r4, #56]	; 0x38
    9614:	eb0019cc 	bl	fd4c <xfree>
    9618:	e3a02048 	mov	r2, #72	; 0x48
    961c:	e1a01007 	mov	r1, r7
    9620:	e1a00004 	mov	r0, r4
    9624:	eb001a02 	bl	fe34 <memcpy>
    9628:	e1a00007 	mov	r0, r7
    962c:	eb0019c6 	bl	fd4c <xfree>
    9630:	e59f3090 	ldr	r3, [pc, #144]	; 96c8 <iobuf_readbyte+0x2d8>
    9634:	e7963003 	ldr	r3, [r6, r3]
    9638:	e5933000 	ldr	r3, [r3]
    963c:	e3530000 	cmp	r3, #0
    9640:	0affff82 	beq	9450 <iobuf_readbyte+0x60>
    9644:	e1a00004 	mov	r0, r4
    9648:	ebfffb45 	bl	8364 <print_chain.part.0>
    964c:	eaffff7f 	b	9450 <iobuf_readbyte+0x60>
    9650:	e3500000 	cmp	r0, #0
    9654:	0a000002 	beq	9664 <iobuf_readbyte+0x274>
    9658:	e5840028 	str	r0, [r4, #40]	; 0x28
    965c:	e3530000 	cmp	r3, #0
    9660:	0affff80 	beq	9468 <iobuf_readbyte+0x78>
    9664:	e5942018 	ldr	r2, [r4, #24]
    9668:	e1520003 	cmp	r2, r3
    966c:	3affff91 	bcc	94b8 <iobuf_readbyte+0xc8>
    9670:	eaffff7c 	b	9468 <iobuf_readbyte+0x78>
    9674:	e5845024 	str	r5, [r4, #36]	; 0x24
    9678:	eaffff7a 	b	9468 <iobuf_readbyte+0x78>
    967c:	e1a02005 	mov	r2, r5
    9680:	eaffff8c 	b	94b8 <iobuf_readbyte+0xc8>
    9684:	e59f0040 	ldr	r0, [pc, #64]	; 96cc <iobuf_readbyte+0x2dc>
    9688:	e08f0000 	add	r0, pc, r0
    968c:	eb0022b4 	bl	12164 <tfp_printf>
    9690:	eaffffcb 	b	95c4 <iobuf_readbyte+0x1d4>
    9694:	e59f0034 	ldr	r0, [pc, #52]	; 96d0 <iobuf_readbyte+0x2e0>
    9698:	e3e05000 	mvn	r5, #0
    969c:	e08f0000 	add	r0, pc, r0
    96a0:	eb0022af 	bl	12164 <tfp_printf>
    96a4:	eaffff69 	b	9450 <iobuf_readbyte+0x60>
    96a8:	eb0019a7 	bl	fd4c <xfree>
    96ac:	eaffffca 	b	95dc <iobuf_readbyte+0x1ec>
    96b0:	e5942028 	ldr	r2, [r4, #40]	; 0x28
    96b4:	e3520000 	cmp	r2, #0
    96b8:	11a02001 	movne	r2, r1
    96bc:	1affff7d 	bne	94b8 <iobuf_readbyte+0xc8>
    96c0:	eaffffa0 	b	9548 <iobuf_readbyte+0x158>
    96c4:	0003271c 	.word	0x0003271c
    96c8:	0000001c 	.word	0x0000001c
    96cc:	0000ce8c 	.word	0x0000ce8c
    96d0:	0000ce48 	.word	0x0000ce48

000096d4 <iobuf_read>:
    96d4:	e92d41f0 	push	{r4, r5, r6, r7, r8, lr}
    96d8:	e1a06000 	mov	r6, r0
    96dc:	e59f0138 	ldr	r0, [pc, #312]	; 981c <iobuf_read+0x148>
    96e0:	e1a07002 	mov	r7, r2
    96e4:	e5962004 	ldr	r2, [r6, #4]
    96e8:	e1a04001 	mov	r4, r1
    96ec:	e08f0000 	add	r0, pc, r0
    96f0:	e1a01007 	mov	r1, r7
    96f4:	eb00229a 	bl	12164 <tfp_printf>
    96f8:	e5d63000 	ldrb	r3, [r6]
    96fc:	e2433002 	sub	r3, r3, #2
    9700:	e3530001 	cmp	r3, #1
    9704:	9a00003f 	bls	9808 <iobuf_read+0x134>
    9708:	e5965004 	ldr	r5, [r6, #4]
    970c:	e3550000 	cmp	r5, #0
    9710:	0a000011 	beq	975c <iobuf_read+0x88>
    9714:	e2575000 	subs	r5, r7, #0
    9718:	0a000014 	beq	9770 <iobuf_read+0x9c>
    971c:	e3a08000 	mov	r8, #0
    9720:	ea000004 	b	9738 <iobuf_read+0x64>
    9724:	e3540000 	cmp	r4, #0
    9728:	e2888001 	add	r8, r8, #1
    972c:	14c40001 	strbne	r0, [r4], #1
    9730:	e1580007 	cmp	r8, r7
    9734:	0a00000d 	beq	9770 <iobuf_read+0x9c>
    9738:	e1a00006 	mov	r0, r6
    973c:	ebffff2b 	bl	93f0 <iobuf_readbyte>
    9740:	e3700001 	cmn	r0, #1
    9744:	1afffff6 	bne	9724 <iobuf_read+0x50>
    9748:	e3580000 	cmp	r8, #0
    974c:	11a05008 	movne	r5, r8
    9750:	03e05000 	mvneq	r5, #0
    9754:	e1a00005 	mov	r0, r5
    9758:	e8bd81f0 	pop	{r4, r5, r6, r7, r8, pc}
    975c:	e1550007 	cmp	r5, r7
    9760:	3a00001a 	bcc	97d0 <iobuf_read+0xfc>
    9764:	e5963008 	ldr	r3, [r6, #8]
    9768:	e0833005 	add	r3, r3, r5
    976c:	e5863008 	str	r3, [r6, #8]
    9770:	e1a00005 	mov	r0, r5
    9774:	e8bd81f0 	pop	{r4, r5, r6, r7, r8, pc}
    9778:	e1580001 	cmp	r8, r1
    977c:	21a08001 	movcs	r8, r1
    9780:	e3540000 	cmp	r4, #0
    9784:	e0832008 	add	r2, r3, r8
    9788:	0a000019 	beq	97f4 <iobuf_read+0x120>
    978c:	e5961020 	ldr	r1, [r6, #32]
    9790:	e1a00004 	mov	r0, r4
    9794:	e0855008 	add	r5, r5, r8
    9798:	e1a02008 	mov	r2, r8
    979c:	e0811003 	add	r1, r1, r3
    97a0:	e0844008 	add	r4, r4, r8
    97a4:	eb0019a2 	bl	fe34 <memcpy>
    97a8:	e5963018 	ldr	r3, [r6, #24]
    97ac:	e1570005 	cmp	r7, r5
    97b0:	e0833008 	add	r3, r3, r8
    97b4:	e5863018 	str	r3, [r6, #24]
    97b8:	9affffe9 	bls	9764 <iobuf_read+0x90>
    97bc:	e3a03000 	mov	r3, #0
    97c0:	e4c43001 	strb	r3, [r4], #1
    97c4:	e2855001 	add	r5, r5, #1
    97c8:	e1550007 	cmp	r5, r7
    97cc:	2affffe4 	bcs	9764 <iobuf_read+0x90>
    97d0:	e5963018 	ldr	r3, [r6, #24]
    97d4:	e596201c 	ldr	r2, [r6, #28]
    97d8:	e0478005 	sub	r8, r7, r5
    97dc:	e1530002 	cmp	r3, r2
    97e0:	e0421003 	sub	r1, r2, r3
    97e4:	3affffe3 	bcc	9778 <iobuf_read+0xa4>
    97e8:	e3540000 	cmp	r4, #0
    97ec:	1afffff2 	bne	97bc <iobuf_read+0xe8>
    97f0:	eafffff3 	b	97c4 <iobuf_read+0xf0>
    97f4:	e0855008 	add	r5, r5, r8
    97f8:	e1570005 	cmp	r7, r5
    97fc:	e5862018 	str	r2, [r6, #24]
    9800:	8affffef 	bhi	97c4 <iobuf_read+0xf0>
    9804:	eaffffd6 	b	9764 <iobuf_read+0x90>
    9808:	e59f0010 	ldr	r0, [pc, #16]	; 9820 <iobuf_read+0x14c>
    980c:	e3e05000 	mvn	r5, #0
    9810:	e08f0000 	add	r0, pc, r0
    9814:	eb002252 	bl	12164 <tfp_printf>
    9818:	eaffffd4 	b	9770 <iobuf_read+0x9c>
    981c:	0000ce44 	.word	0x0000ce44
    9820:	0000cd3c 	.word	0x0000cd3c

00009824 <iobuf_peek>:
    9824:	e590c014 	ldr	ip, [r0, #20]
    9828:	e1a03000 	mov	r3, r0
    982c:	e92d4010 	push	{r4, lr}
    9830:	e1a00001 	mov	r0, r1
    9834:	e152000c 	cmp	r2, ip
    9838:	e593401c 	ldr	r4, [r3, #28]
    983c:	21a0200c 	movcs	r2, ip
    9840:	e593c018 	ldr	ip, [r3, #24]
    9844:	e044100c 	sub	r1, r4, ip
    9848:	e1520001 	cmp	r2, r1
    984c:	9a00000d 	bls	9888 <iobuf_peek+0x64>
    9850:	e1520004 	cmp	r2, r4
    9854:	8afffffd 	bhi	9850 <iobuf_peek+0x2c>
    9858:	e3a0c000 	mov	ip, #0
    985c:	e583c018 	str	ip, [r3, #24]
    9860:	e1520004 	cmp	r2, r4
    9864:	31a04002 	movcc	r4, r2
    9868:	e3540000 	cmp	r4, #0
    986c:	0a000007 	beq	9890 <iobuf_peek+0x6c>
    9870:	e5931020 	ldr	r1, [r3, #32]
    9874:	e1a02004 	mov	r2, r4
    9878:	e081100c 	add	r1, r1, ip
    987c:	eb00196c 	bl	fe34 <memcpy>
    9880:	e1a00004 	mov	r0, r4
    9884:	e8bd8010 	pop	{r4, pc}
    9888:	e1a04001 	mov	r4, r1
    988c:	eafffff3 	b	9860 <iobuf_peek+0x3c>
    9890:	e3e04000 	mvn	r4, #0
    9894:	eafffff9 	b	9880 <iobuf_peek+0x5c>

00009898 <iobuf_writebyte>:
    9898:	e92d4070 	push	{r4, r5, r6, lr}
    989c:	e1a04000 	mov	r4, r0
    98a0:	e59f0090 	ldr	r0, [pc, #144]	; 9938 <iobuf_writebyte+0xa0>
    98a4:	e1a06001 	mov	r6, r1
    98a8:	e08f0000 	add	r0, pc, r0
    98ac:	eb00222c 	bl	12164 <tfp_printf>
    98b0:	e5d43000 	ldrb	r3, [r4]
    98b4:	e3530001 	cmp	r3, #1
    98b8:	9a000019 	bls	9924 <iobuf_writebyte+0x8c>
    98bc:	e594001c 	ldr	r0, [r4, #28]
    98c0:	e5943014 	ldr	r3, [r4, #20]
    98c4:	e1500003 	cmp	r0, r3
    98c8:	0a00000b 	beq	98fc <iobuf_writebyte+0x64>
    98cc:	e1500003 	cmp	r0, r3
    98d0:	e3a05000 	mov	r5, #0
    98d4:	23a00000 	movcs	r0, #0
    98d8:	33a00001 	movcc	r0, #1
    98dc:	eb002220 	bl	12164 <tfp_printf>
    98e0:	e594301c 	ldr	r3, [r4, #28]
    98e4:	e5942020 	ldr	r2, [r4, #32]
    98e8:	e2831001 	add	r1, r3, #1
    98ec:	e584101c 	str	r1, [r4, #28]
    98f0:	e7c26003 	strb	r6, [r2, r3]
    98f4:	e1a00005 	mov	r0, r5
    98f8:	e8bd8070 	pop	{r4, r5, r6, pc}
    98fc:	e1a00004 	mov	r0, r4
    9900:	ebfffa4e 	bl	8240 <filter_flush>
    9904:	e2505000 	subs	r5, r0, #0
    9908:	0594001c 	ldreq	r0, [r4, #28]
    990c:	05943014 	ldreq	r3, [r4, #20]
    9910:	0affffed 	beq	98cc <iobuf_writebyte+0x34>
    9914:	e59f0020 	ldr	r0, [pc, #32]	; 993c <iobuf_writebyte+0xa4>
    9918:	e08f0000 	add	r0, pc, r0
    991c:	eb002210 	bl	12164 <tfp_printf>
    9920:	eafffff3 	b	98f4 <iobuf_writebyte+0x5c>
    9924:	e59f0014 	ldr	r0, [pc, #20]	; 9940 <iobuf_writebyte+0xa8>
    9928:	e3e05000 	mvn	r5, #0
    992c:	e08f0000 	add	r0, pc, r0
    9930:	eb00220b 	bl	12164 <tfp_printf>
    9934:	eaffffee 	b	98f4 <iobuf_writebyte+0x5c>
    9938:	0000ccd0 	.word	0x0000ccd0
    993c:	0000cca8 	.word	0x0000cca8
    9940:	0000cc64 	.word	0x0000cc64

00009944 <iobuf_write>:
    9944:	e92d41f0 	push	{r4, r5, r6, r7, r8, lr}
    9948:	e1a06000 	mov	r6, r0
    994c:	e59f00bc 	ldr	r0, [pc, #188]	; 9a10 <iobuf_write+0xcc>
    9950:	e1a07001 	mov	r7, r1
    9954:	e1a01002 	mov	r1, r2
    9958:	e1a05002 	mov	r5, r2
    995c:	e08f0000 	add	r0, pc, r0
    9960:	eb0021ff 	bl	12164 <tfp_printf>
    9964:	e5d63000 	ldrb	r3, [r6]
    9968:	e3530001 	cmp	r3, #1
    996c:	9a000022 	bls	99fc <iobuf_write+0xb8>
    9970:	e59f809c 	ldr	r8, [pc, #156]	; 9a14 <iobuf_write+0xd0>
    9974:	e3550000 	cmp	r5, #0
    9978:	e08f8008 	add	r8, pc, r8
    997c:	0a000009 	beq	99a8 <iobuf_write+0x64>
    9980:	e596201c 	ldr	r2, [r6, #28]
    9984:	e5963014 	ldr	r3, [r6, #20]
    9988:	e1520003 	cmp	r2, r3
    998c:	3a000007 	bcc	99b0 <iobuf_write+0x6c>
    9990:	e1a00006 	mov	r0, r6
    9994:	ebfffa29 	bl	8240 <filter_flush>
    9998:	e3500000 	cmp	r0, #0
    999c:	18bd81f0 	popne	{r4, r5, r6, r7, r8, pc}
    99a0:	e3550000 	cmp	r5, #0
    99a4:	1afffff5 	bne	9980 <iobuf_write+0x3c>
    99a8:	e3a00000 	mov	r0, #0
    99ac:	e8bd81f0 	pop	{r4, r5, r6, r7, r8, pc}
    99b0:	e0433002 	sub	r3, r3, r2
    99b4:	e1a01007 	mov	r1, r7
    99b8:	e1550003 	cmp	r5, r3
    99bc:	e5960020 	ldr	r0, [r6, #32]
    99c0:	21a04003 	movcs	r4, r3
    99c4:	31a04005 	movcc	r4, r5
    99c8:	e0800002 	add	r0, r0, r2
    99cc:	e1a02004 	mov	r2, r4
    99d0:	eb001917 	bl	fe34 <memcpy>
    99d4:	e1a01004 	mov	r1, r4
    99d8:	e1a00008 	mov	r0, r8
    99dc:	eb0021e0 	bl	12164 <tfp_printf>
    99e0:	e596301c 	ldr	r3, [r6, #28]
    99e4:	e0555004 	subs	r5, r5, r4
    99e8:	e0833004 	add	r3, r3, r4
    99ec:	e586301c 	str	r3, [r6, #28]
    99f0:	0affffec 	beq	99a8 <iobuf_write+0x64>
    99f4:	e0877004 	add	r7, r7, r4
    99f8:	eaffffe4 	b	9990 <iobuf_write+0x4c>
    99fc:	e59f0014 	ldr	r0, [pc, #20]	; 9a18 <iobuf_write+0xd4>
    9a00:	e08f0000 	add	r0, pc, r0
    9a04:	eb0021d6 	bl	12164 <tfp_printf>
    9a08:	e3e00000 	mvn	r0, #0
    9a0c:	e8bd81f0 	pop	{r4, r5, r6, r7, r8, pc}
    9a10:	0000cc74 	.word	0x0000cc74
    9a14:	0000cc94 	.word	0x0000cc94
    9a18:	0000cbe0 	.word	0x0000cbe0

00009a1c <block_filter>:
    9a1c:	e59fc7ec 	ldr	ip, [pc, #2028]	; a210 <block_filter+0x7f4>
    9a20:	e92d4ff8 	push	{r3, r4, r5, r6, r7, r8, r9, sl, fp, lr}
    9a24:	e1a06001 	mov	r6, r1
    9a28:	e08fc00c 	add	ip, pc, ip
    9a2c:	e1a05000 	mov	r5, r0
    9a30:	e59fe7dc 	ldr	lr, [pc, #2012]	; a214 <block_filter+0x7f8>
    9a34:	e1a0100c 	mov	r1, ip
    9a38:	e59d8028 	ldr	r8, [sp, #40]	; 0x28
    9a3c:	e1a07002 	mov	r7, r2
    9a40:	e79c000e 	ldr	r0, [ip, lr]
    9a44:	e1a0a003 	mov	sl, r3
    9a48:	e7901106 	ldr	r1, [r0, r6, lsl #2]
    9a4c:	e59f07c4 	ldr	r0, [pc, #1988]	; a218 <block_filter+0x7fc>
    9a50:	e08f0000 	add	r0, pc, r0
    9a54:	eb0021c2 	bl	12164 <tfp_printf>
    9a58:	e5984000 	ldr	r4, [r8]
    9a5c:	e3560003 	cmp	r6, #3
    9a60:	0a000019 	beq	9acc <block_filter+0xb0>
    9a64:	e3560004 	cmp	r6, #4
    9a68:	0a0000ac 	beq	9d20 <block_filter+0x304>
    9a6c:	e3560001 	cmp	r6, #1
    9a70:	0a000004 	beq	9a88 <block_filter+0x6c>
    9a74:	e3560002 	cmp	r6, #2
    9a78:	0a0000fe 	beq	9e78 <block_filter+0x45c>
    9a7c:	e3a09000 	mov	r9, #0
    9a80:	e1a00009 	mov	r0, r9
    9a84:	e8bd8ff8 	pop	{r3, r4, r5, r6, r7, r8, r9, sl, fp, pc}
    9a88:	e595300c 	ldr	r3, [r5, #12]
    9a8c:	e3530000 	cmp	r3, #0
    9a90:	13a03000 	movne	r3, #0
    9a94:	15853008 	strne	r3, [r5, #8]
    9a98:	1a000004 	bne	9ab0 <block_filter+0x94>
    9a9c:	e5953000 	ldr	r3, [r5]
    9aa0:	e3530000 	cmp	r3, #0
    9aa4:	05853004 	streq	r3, [r5, #4]
    9aa8:	15953004 	ldrne	r3, [r5, #4]
    9aac:	e5853008 	str	r3, [r5, #8]
    9ab0:	e3a03000 	mov	r3, #0
    9ab4:	e585301c 	str	r3, [r5, #28]
    9ab8:	e1a09003 	mov	r9, r3
    9abc:	e5853010 	str	r3, [r5, #16]
    9ac0:	e1a00009 	mov	r0, r9
    9ac4:	e5853014 	str	r3, [r5, #20]
    9ac8:	e8bd8ff8 	pop	{r3, r4, r5, r6, r7, r8, r9, sl, fp, pc}
    9acc:	e59f0748 	ldr	r0, [pc, #1864]	; a21c <block_filter+0x800>
    9ad0:	e1a01004 	mov	r1, r4
    9ad4:	e08f0000 	add	r0, pc, r0
    9ad8:	eb0021a1 	bl	12164 <tfp_printf>
    9adc:	e1a00004 	mov	r0, r4
    9ae0:	eb00219f 	bl	12164 <tfp_printf>
    9ae4:	e595901c 	ldr	r9, [r5, #28]
    9ae8:	e3590000 	cmp	r9, #0
    9aec:	13a06000 	movne	r6, #0
    9af0:	13e09000 	mvnne	r9, #0
    9af4:	1a00001f 	bne	9b78 <block_filter+0x15c>
    9af8:	e3540000 	cmp	r4, #0
    9afc:	0a0001bc 	beq	a1f4 <block_filter+0x7d8>
    9b00:	e5953004 	ldr	r3, [r5, #4]
    9b04:	e3530000 	cmp	r3, #0
    9b08:	e1a06003 	mov	r6, r3
    9b0c:	11a06009 	movne	r6, r9
    9b10:	0a00001b 	beq	9b84 <block_filter+0x168>
    9b14:	e1a02003 	mov	r2, r3
    9b18:	e3520000 	cmp	r2, #0
    9b1c:	e1a0100a 	mov	r1, sl
    9b20:	e1a00007 	mov	r0, r7
    9b24:	0a000016 	beq	9b84 <block_filter+0x168>
    9b28:	e1520004 	cmp	r2, r4
    9b2c:	31a0b002 	movcc	fp, r2
    9b30:	21a0b004 	movcs	fp, r4
    9b34:	e1a0200b 	mov	r2, fp
    9b38:	ebfffee5 	bl	96d4 <iobuf_read>
    9b3c:	e15b0000 	cmp	fp, r0
    9b40:	e08aa000 	add	sl, sl, r0
    9b44:	da000021 	ble	9bd0 <block_filter+0x1b4>
    9b48:	e595c004 	ldr	ip, [r5, #4]
    9b4c:	e3700001 	cmn	r0, #1
    9b50:	11a03000 	movne	r3, r0
    9b54:	03a03000 	moveq	r3, #0
    9b58:	e59f06c0 	ldr	r0, [pc, #1728]	; a220 <block_filter+0x804>
    9b5c:	e1a01005 	mov	r1, r5
    9b60:	10844003 	addne	r4, r4, r3
    9b64:	e3a09059 	mov	r9, #89	; 0x59
    9b68:	e08f0000 	add	r0, pc, r0
    9b6c:	e1a02004 	mov	r2, r4
    9b70:	e083300c 	add	r3, r3, ip
    9b74:	eb00217a 	bl	12164 <tfp_printf>
    9b78:	e5886000 	str	r6, [r8]
    9b7c:	e1a00009 	mov	r0, r9
    9b80:	e8bd8ff8 	pop	{r3, r4, r5, r6, r7, r8, r9, sl, fp, pc}
    9b84:	e595200c 	ldr	r2, [r5, #12]
    9b88:	e3520002 	cmp	r2, #2
    9b8c:	0a00004c 	beq	9cc4 <block_filter+0x2a8>
    9b90:	e3520000 	cmp	r2, #0
    9b94:	0affffde 	beq	9b14 <block_filter+0xf8>
    9b98:	e59f0684 	ldr	r0, [pc, #1668]	; a224 <block_filter+0x808>
    9b9c:	e08f0000 	add	r0, pc, r0
    9ba0:	eb00216f 	bl	12164 <tfp_printf>
    9ba4:	e5953018 	ldr	r3, [r5, #24]
    9ba8:	e3530000 	cmp	r3, #0
    9bac:	0a00000f 	beq	9bf0 <block_filter+0x1d4>
    9bb0:	e35300bf 	cmp	r3, #191	; 0xbf
    9bb4:	e3a02000 	mov	r2, #0
    9bb8:	e5852018 	str	r2, [r5, #24]
    9bbc:	ca00001b 	bgt	9c30 <block_filter+0x214>
    9bc0:	e5853004 	str	r3, [r5, #4]
    9bc4:	e3a02002 	mov	r2, #2
    9bc8:	e585200c 	str	r2, [r5, #12]
    9bcc:	eaffffd0 	b	9b14 <block_filter+0xf8>
    9bd0:	e5953004 	ldr	r3, [r5, #4]
    9bd4:	e0544000 	subs	r4, r4, r0
    9bd8:	e0432000 	sub	r2, r3, r0
    9bdc:	e0866000 	add	r6, r6, r0
    9be0:	e1a03002 	mov	r3, r2
    9be4:	e5852004 	str	r2, [r5, #4]
    9be8:	1affffca 	bne	9b18 <block_filter+0xfc>
    9bec:	eaffffe1 	b	9b78 <block_filter+0x15c>
    9bf0:	e5973010 	ldr	r3, [r7, #16]
    9bf4:	e3530000 	cmp	r3, #0
    9bf8:	1a000037 	bne	9cdc <block_filter+0x2c0>
    9bfc:	e5973018 	ldr	r3, [r7, #24]
    9c00:	e597201c 	ldr	r2, [r7, #28]
    9c04:	e1530002 	cmp	r3, r2
    9c08:	2a000033 	bcs	9cdc <block_filter+0x2c0>
    9c0c:	e5972008 	ldr	r2, [r7, #8]
    9c10:	e5971020 	ldr	r1, [r7, #32]
    9c14:	e2822001 	add	r2, r2, #1
    9c18:	e5872008 	str	r2, [r7, #8]
    9c1c:	e2832001 	add	r2, r3, #1
    9c20:	e5872018 	str	r2, [r7, #24]
    9c24:	e7d13003 	ldrb	r3, [r1, r3]
    9c28:	e35300bf 	cmp	r3, #191	; 0xbf
    9c2c:	da00001f 	ble	9cb0 <block_filter+0x294>
    9c30:	e35300df 	cmp	r3, #223	; 0xdf
    9c34:	ca000032 	bgt	9d04 <block_filter+0x2e8>
    9c38:	e5972010 	ldr	r2, [r7, #16]
    9c3c:	e24330c0 	sub	r3, r3, #192	; 0xc0
    9c40:	e1a03403 	lsl	r3, r3, #8
    9c44:	e3520000 	cmp	r2, #0
    9c48:	e5853004 	str	r3, [r5, #4]
    9c4c:	1a000010 	bne	9c94 <block_filter+0x278>
    9c50:	e5972018 	ldr	r2, [r7, #24]
    9c54:	e597101c 	ldr	r1, [r7, #28]
    9c58:	e1520001 	cmp	r2, r1
    9c5c:	2a00000c 	bcs	9c94 <block_filter+0x278>
    9c60:	e5971008 	ldr	r1, [r7, #8]
    9c64:	e28330c0 	add	r3, r3, #192	; 0xc0
    9c68:	e5970020 	ldr	r0, [r7, #32]
    9c6c:	e2811001 	add	r1, r1, #1
    9c70:	e5871008 	str	r1, [r7, #8]
    9c74:	e2821001 	add	r1, r2, #1
    9c78:	e5871018 	str	r1, [r7, #24]
    9c7c:	e7d02002 	ldrb	r2, [r0, r2]
    9c80:	e0823003 	add	r3, r2, r3
    9c84:	e3a02002 	mov	r2, #2
    9c88:	e5853004 	str	r3, [r5, #4]
    9c8c:	e585200c 	str	r2, [r5, #12]
    9c90:	eaffff9f 	b	9b14 <block_filter+0xf8>
    9c94:	e1a00007 	mov	r0, r7
    9c98:	ebfffdd4 	bl	93f0 <iobuf_readbyte>
    9c9c:	e3700001 	cmn	r0, #1
    9ca0:	15953004 	ldrne	r3, [r5, #4]
    9ca4:	128330c0 	addne	r3, r3, #192	; 0xc0
    9ca8:	10833000 	addne	r3, r3, r0
    9cac:	0a0000e7 	beq	a050 <block_filter+0x634>
    9cb0:	e5853004 	str	r3, [r5, #4]
    9cb4:	e3530000 	cmp	r3, #0
    9cb8:	e3a02002 	mov	r2, #2
    9cbc:	e585200c 	str	r2, [r5, #12]
    9cc0:	1affff93 	bne	9b14 <block_filter+0xf8>
    9cc4:	e16f9f16 	clz	r9, r6
    9cc8:	e3a03001 	mov	r3, #1
    9ccc:	e585301c 	str	r3, [r5, #28]
    9cd0:	e1a092a9 	lsr	r9, r9, #5
    9cd4:	e2699000 	rsb	r9, r9, #0
    9cd8:	eaffffa6 	b	9b78 <block_filter+0x15c>
    9cdc:	e1a00007 	mov	r0, r7
    9ce0:	ebfffdc2 	bl	93f0 <iobuf_readbyte>
    9ce4:	e3700001 	cmn	r0, #1
    9ce8:	e1a03000 	mov	r3, r0
    9cec:	1affffcd 	bne	9c28 <block_filter+0x20c>
    9cf0:	e59f0530 	ldr	r0, [pc, #1328]	; a228 <block_filter+0x80c>
    9cf4:	e3a09059 	mov	r9, #89	; 0x59
    9cf8:	e08f0000 	add	r0, pc, r0
    9cfc:	eb002118 	bl	12164 <tfp_printf>
    9d00:	eaffff9c 	b	9b78 <block_filter+0x15c>
    9d04:	e35300ff 	cmp	r3, #255	; 0xff
    9d08:	0a000063 	beq	9e9c <block_filter+0x480>
    9d0c:	e203301f 	and	r3, r3, #31
    9d10:	e3a02001 	mov	r2, #1
    9d14:	e1a03312 	lsl	r3, r2, r3
    9d18:	e5853004 	str	r3, [r5, #4]
    9d1c:	eaffff7c 	b	9b14 <block_filter+0xf8>
    9d20:	e59f0504 	ldr	r0, [pc, #1284]	; a22c <block_filter+0x810>
    9d24:	e595100c 	ldr	r1, [r5, #12]
    9d28:	e08f0000 	add	r0, pc, r0
    9d2c:	eb00210c 	bl	12164 <tfp_printf>
    9d30:	e595300c 	ldr	r3, [r5, #12]
    9d34:	e3530000 	cmp	r3, #0
    9d38:	0affff4f 	beq	9a7c <block_filter+0x60>
    9d3c:	e5950014 	ldr	r0, [r5, #20]
    9d40:	e0806004 	add	r6, r0, r4
    9d44:	e3560c02 	cmp	r6, #512	; 0x200
    9d48:	3a000089 	bcc	9f74 <block_filter+0x558>
    9d4c:	e3560b01 	cmp	r6, #1024	; 0x400
    9d50:	3a0000c3 	bcc	a064 <block_filter+0x648>
    9d54:	e3a03b01 	mov	r3, #1024	; 0x400
    9d58:	e3a0200a 	mov	r2, #10
    9d5c:	e1a03083 	lsl	r3, r3, #1
    9d60:	e1a00002 	mov	r0, r2
    9d64:	e1560003 	cmp	r6, r3
    9d68:	e2822001 	add	r2, r2, #1
    9d6c:	2afffffa 	bcs	9d5c <block_filter+0x340>
    9d70:	e350001f 	cmp	r0, #31
    9d74:	e38080e0 	orr	r8, r0, #224	; 0xe0
    9d78:	e1a040a3 	lsr	r4, r3, #1
    9d7c:	c3a00000 	movgt	r0, #0
    9d80:	d3a00001 	movle	r0, #1
    9d84:	eb0020f6 	bl	12164 <tfp_printf>
    9d88:	e1a01008 	mov	r1, r8
    9d8c:	e1a00007 	mov	r0, r7
    9d90:	ebfffec0 	bl	9898 <iobuf_writebyte>
    9d94:	e5959014 	ldr	r9, [r5, #20]
    9d98:	e3590000 	cmp	r9, #0
    9d9c:	1a000009 	bne	9dc8 <block_filter+0x3ac>
    9da0:	e1540006 	cmp	r4, r6
    9da4:	21a04006 	movcs	r4, r6
    9da8:	e1a02004 	mov	r2, r4
    9dac:	e1a0100a 	mov	r1, sl
    9db0:	e1a00007 	mov	r0, r7
    9db4:	ebfffee2 	bl	9944 <iobuf_write>
    9db8:	e3500000 	cmp	r0, #0
    9dbc:	0a000013 	beq	9e10 <block_filter+0x3f4>
    9dc0:	e3e09000 	mvn	r9, #0
    9dc4:	eaffff2d 	b	9a80 <block_filter+0x64>
    9dc8:	e0466009 	sub	r6, r6, r9
    9dcc:	e2490c02 	sub	r0, r9, #512	; 0x200
    9dd0:	e16f0f10 	clz	r0, r0
    9dd4:	e1a002a0 	lsr	r0, r0, #5
    9dd8:	eb0020e1 	bl	12164 <tfp_printf>
    9ddc:	e5951010 	ldr	r1, [r5, #16]
    9de0:	e1a02009 	mov	r2, r9
    9de4:	e1a00007 	mov	r0, r7
    9de8:	ebfffed5 	bl	9944 <iobuf_write>
    9dec:	e2509000 	subs	r9, r0, #0
    9df0:	e3a03000 	mov	r3, #0
    9df4:	e5853014 	str	r3, [r5, #20]
    9df8:	13a09001 	movne	r9, #1
    9dfc:	e1540006 	cmp	r4, r6
    9e00:	e2699000 	rsb	r9, r9, #0
    9e04:	21a04006 	movcs	r4, r6
    9e08:	e3540000 	cmp	r4, #0
    9e0c:	1affffe5 	bne	9da8 <block_filter+0x38c>
    9e10:	e16f3f19 	clz	r3, r9
    9e14:	e0466004 	sub	r6, r6, r4
    9e18:	e1a032a3 	lsr	r3, r3, #5
    9e1c:	e08aa004 	add	sl, sl, r4
    9e20:	e3560c02 	cmp	r6, #512	; 0x200
    9e24:	33a02000 	movcc	r2, #0
    9e28:	22032001 	andcs	r2, r3, #1
    9e2c:	e3520000 	cmp	r2, #0
    9e30:	1affffc5 	bne	9d4c <block_filter+0x330>
    9e34:	e3560000 	cmp	r6, #0
    9e38:	03a03000 	moveq	r3, #0
    9e3c:	12033001 	andne	r3, r3, #1
    9e40:	e3530000 	cmp	r3, #0
    9e44:	0affff0d 	beq	9a80 <block_filter+0x64>
    9e48:	e59f03e0 	ldr	r0, [pc, #992]	; a230 <block_filter+0x814>
    9e4c:	e08f0000 	add	r0, pc, r0
    9e50:	eb0020c3 	bl	12164 <tfp_printf>
    9e54:	e5950010 	ldr	r0, [r5, #16]
    9e58:	e3500000 	cmp	r0, #0
    9e5c:	0a0000e0 	beq	a1e4 <block_filter+0x7c8>
    9e60:	e1a02006 	mov	r2, r6
    9e64:	e1a0100a 	mov	r1, sl
    9e68:	e3a09000 	mov	r9, #0
    9e6c:	eb0017f0 	bl	fe34 <memcpy>
    9e70:	e5856014 	str	r6, [r5, #20]
    9e74:	eaffff01 	b	9a80 <block_filter+0x64>
    9e78:	e5953000 	ldr	r3, [r5]
    9e7c:	e3530002 	cmp	r3, #2
    9e80:	0a00007b 	beq	a074 <block_filter+0x658>
    9e84:	e5959004 	ldr	r9, [r5, #4]
    9e88:	e3590000 	cmp	r9, #0
    9e8c:	1a00006a 	bne	a03c <block_filter+0x620>
    9e90:	e1a00005 	mov	r0, r5
    9e94:	eb0017ac 	bl	fd4c <xfree>
    9e98:	eafffef8 	b	9a80 <block_filter+0x64>
    9e9c:	e5973010 	ldr	r3, [r7, #16]
    9ea0:	e3530000 	cmp	r3, #0
    9ea4:	1a000003 	bne	9eb8 <block_filter+0x49c>
    9ea8:	e5973018 	ldr	r3, [r7, #24]
    9eac:	e597201c 	ldr	r2, [r7, #28]
    9eb0:	e1530002 	cmp	r3, r2
    9eb4:	3a000056 	bcc	a014 <block_filter+0x5f8>
    9eb8:	e1a00007 	mov	r0, r7
    9ebc:	ebfffd4b 	bl	93f0 <iobuf_readbyte>
    9ec0:	e5972010 	ldr	r2, [r7, #16]
    9ec4:	e1a03c00 	lsl	r3, r0, #24
    9ec8:	e5853004 	str	r3, [r5, #4]
    9ecc:	e3520000 	cmp	r2, #0
    9ed0:	0597201c 	ldreq	r2, [r7, #28]
    9ed4:	1a000002 	bne	9ee4 <block_filter+0x4c8>
    9ed8:	e5971018 	ldr	r1, [r7, #24]
    9edc:	e1510002 	cmp	r1, r2
    9ee0:	3a00002f 	bcc	9fa4 <block_filter+0x588>
    9ee4:	e1a00007 	mov	r0, r7
    9ee8:	ebfffd40 	bl	93f0 <iobuf_readbyte>
    9eec:	e5971010 	ldr	r1, [r7, #16]
    9ef0:	e5952004 	ldr	r2, [r5, #4]
    9ef4:	e1a03800 	lsl	r3, r0, #16
    9ef8:	e3510000 	cmp	r1, #0
    9efc:	e20338ff 	and	r3, r3, #16711680	; 0xff0000
    9f00:	e1833002 	orr	r3, r3, r2
    9f04:	e5853004 	str	r3, [r5, #4]
    9f08:	0597201c 	ldreq	r2, [r7, #28]
    9f0c:	1a000002 	bne	9f1c <block_filter+0x500>
    9f10:	e5971018 	ldr	r1, [r7, #24]
    9f14:	e1510002 	cmp	r1, r2
    9f18:	3a00002b 	bcc	9fcc <block_filter+0x5b0>
    9f1c:	e1a00007 	mov	r0, r7
    9f20:	ebfffd32 	bl	93f0 <iobuf_readbyte>
    9f24:	e5971010 	ldr	r1, [r7, #16]
    9f28:	e5952004 	ldr	r2, [r5, #4]
    9f2c:	e1a03400 	lsl	r3, r0, #8
    9f30:	e3510000 	cmp	r1, #0
    9f34:	e6ff3073 	uxth	r3, r3
    9f38:	e1833002 	orr	r3, r3, r2
    9f3c:	e5853004 	str	r3, [r5, #4]
    9f40:	0597201c 	ldreq	r2, [r7, #28]
    9f44:	1a000002 	bne	9f54 <block_filter+0x538>
    9f48:	e5971018 	ldr	r1, [r7, #24]
    9f4c:	e1510002 	cmp	r1, r2
    9f50:	3a000027 	bcc	9ff4 <block_filter+0x5d8>
    9f54:	e1a00007 	mov	r0, r7
    9f58:	ebfffd24 	bl	93f0 <iobuf_readbyte>
    9f5c:	e3700001 	cmn	r0, #1
    9f60:	e1a02000 	mov	r2, r0
    9f64:	15953004 	ldrne	r3, [r5, #4]
    9f68:	0a000098 	beq	a1d0 <block_filter+0x7b4>
    9f6c:	e1823003 	orr	r3, r2, r3
    9f70:	eaffff4e 	b	9cb0 <block_filter+0x294>
    9f74:	e5953010 	ldr	r3, [r5, #16]
    9f78:	e3530000 	cmp	r3, #0
    9f7c:	0a000058 	beq	a0e4 <block_filter+0x6c8>
    9f80:	e0830000 	add	r0, r3, r0
    9f84:	e1a02004 	mov	r2, r4
    9f88:	e1a0100a 	mov	r1, sl
    9f8c:	e3a09000 	mov	r9, #0
    9f90:	eb0017a7 	bl	fe34 <memcpy>
    9f94:	e5953014 	ldr	r3, [r5, #20]
    9f98:	e0834004 	add	r4, r3, r4
    9f9c:	e5854014 	str	r4, [r5, #20]
    9fa0:	eafffeb6 	b	9a80 <block_filter+0x64>
    9fa4:	e5970008 	ldr	r0, [r7, #8]
    9fa8:	e597c020 	ldr	ip, [r7, #32]
    9fac:	e2800001 	add	r0, r0, #1
    9fb0:	e5870008 	str	r0, [r7, #8]
    9fb4:	e2810001 	add	r0, r1, #1
    9fb8:	e5870018 	str	r0, [r7, #24]
    9fbc:	e7dc1001 	ldrb	r1, [ip, r1]
    9fc0:	e1833801 	orr	r3, r3, r1, lsl #16
    9fc4:	e5853004 	str	r3, [r5, #4]
    9fc8:	eaffffd0 	b	9f10 <block_filter+0x4f4>
    9fcc:	e5970008 	ldr	r0, [r7, #8]
    9fd0:	e597c020 	ldr	ip, [r7, #32]
    9fd4:	e2800001 	add	r0, r0, #1
    9fd8:	e5870008 	str	r0, [r7, #8]
    9fdc:	e2810001 	add	r0, r1, #1
    9fe0:	e5870018 	str	r0, [r7, #24]
    9fe4:	e7dc1001 	ldrb	r1, [ip, r1]
    9fe8:	e1833401 	orr	r3, r3, r1, lsl #8
    9fec:	e5853004 	str	r3, [r5, #4]
    9ff0:	eaffffd4 	b	9f48 <block_filter+0x52c>
    9ff4:	e5972008 	ldr	r2, [r7, #8]
    9ff8:	e5970020 	ldr	r0, [r7, #32]
    9ffc:	e2822001 	add	r2, r2, #1
    a000:	e5872008 	str	r2, [r7, #8]
    a004:	e2812001 	add	r2, r1, #1
    a008:	e5872018 	str	r2, [r7, #24]
    a00c:	e7d02001 	ldrb	r2, [r0, r1]
    a010:	eaffffd5 	b	9f6c <block_filter+0x550>
    a014:	e5971008 	ldr	r1, [r7, #8]
    a018:	e5970020 	ldr	r0, [r7, #32]
    a01c:	e2811001 	add	r1, r1, #1
    a020:	e5871008 	str	r1, [r7, #8]
    a024:	e2831001 	add	r1, r3, #1
    a028:	e5871018 	str	r1, [r7, #24]
    a02c:	e7d03003 	ldrb	r3, [r0, r3]
    a030:	e1a03c03 	lsl	r3, r3, #24
    a034:	e5853004 	str	r3, [r5, #4]
    a038:	eaffffa6 	b	9ed8 <block_filter+0x4bc>
    a03c:	e59f01f0 	ldr	r0, [pc, #496]	; a234 <block_filter+0x818>
    a040:	e3a09000 	mov	r9, #0
    a044:	e08f0000 	add	r0, pc, r0
    a048:	eb002045 	bl	12164 <tfp_printf>
    a04c:	eaffff8f 	b	9e90 <block_filter+0x474>
    a050:	e59f01e0 	ldr	r0, [pc, #480]	; a238 <block_filter+0x81c>
    a054:	e3a09059 	mov	r9, #89	; 0x59
    a058:	e08f0000 	add	r0, pc, r0
    a05c:	eb002040 	bl	12164 <tfp_printf>
    a060:	eafffec4 	b	9b78 <block_filter+0x15c>
    a064:	e3a00001 	mov	r0, #1
    a068:	e3a04c02 	mov	r4, #512	; 0x200
    a06c:	e3a080e9 	mov	r8, #233	; 0xe9
    a070:	eaffff43 	b	9d84 <block_filter+0x368>
    a074:	e595900c 	ldr	r9, [r5, #12]
    a078:	e3590000 	cmp	r9, #0
    a07c:	0affff83 	beq	9e90 <block_filter+0x474>
    a080:	e5956014 	ldr	r6, [r5, #20]
    a084:	e35600bf 	cmp	r6, #191	; 0xbf
    a088:	9a000047 	bls	a1ac <block_filter+0x790>
    a08c:	e3560d83 	cmp	r6, #8384	; 0x20c0
    a090:	2a000019 	bcs	a0fc <block_filter+0x6e0>
    a094:	e59f01a0 	ldr	r0, [pc, #416]	; a23c <block_filter+0x820>
    a098:	e24680c0 	sub	r8, r6, #192	; 0xc0
    a09c:	e1a01006 	mov	r1, r6
    a0a0:	e08f0000 	add	r0, pc, r0
    a0a4:	eb00202e 	bl	12164 <tfp_printf>
    a0a8:	e1a01428 	lsr	r1, r8, #8
    a0ac:	e1a00007 	mov	r0, r7
    a0b0:	e28110c0 	add	r1, r1, #192	; 0xc0
    a0b4:	ebfffdf7 	bl	9898 <iobuf_writebyte>
    a0b8:	e2504000 	subs	r4, r0, #0
    a0bc:	0a00004e 	beq	a1fc <block_filter+0x7e0>
    a0c0:	e2544000 	subs	r4, r4, #0
    a0c4:	e5950010 	ldr	r0, [r5, #16]
    a0c8:	13a04001 	movne	r4, #1
    a0cc:	e2649000 	rsb	r9, r4, #0
    a0d0:	eb00171d 	bl	fd4c <xfree>
    a0d4:	e3a03000 	mov	r3, #0
    a0d8:	e5853010 	str	r3, [r5, #16]
    a0dc:	e5853014 	str	r3, [r5, #20]
    a0e0:	eaffff6a 	b	9e90 <block_filter+0x474>
    a0e4:	e3a00c02 	mov	r0, #512	; 0x200
    a0e8:	eb001723 	bl	fd7c <xmalloc>
    a0ec:	e1a03000 	mov	r3, r0
    a0f0:	e5853010 	str	r3, [r5, #16]
    a0f4:	e5950014 	ldr	r0, [r5, #20]
    a0f8:	eaffffa0 	b	9f80 <block_filter+0x564>
    a0fc:	e59f013c 	ldr	r0, [pc, #316]	; a240 <block_filter+0x824>
    a100:	e1a01006 	mov	r1, r6
    a104:	e08f0000 	add	r0, pc, r0
    a108:	eb002015 	bl	12164 <tfp_printf>
    a10c:	e3a010ff 	mov	r1, #255	; 0xff
    a110:	e1a00007 	mov	r0, r7
    a114:	ebfffddf 	bl	9898 <iobuf_writebyte>
    a118:	e2504000 	subs	r4, r0, #0
    a11c:	1affffe7 	bne	a0c0 <block_filter+0x6a4>
    a120:	e1a01c26 	lsr	r1, r6, #24
    a124:	e1a00007 	mov	r0, r7
    a128:	ebfffdda 	bl	9898 <iobuf_writebyte>
    a12c:	e2504000 	subs	r4, r0, #0
    a130:	1affffe2 	bne	a0c0 <block_filter+0x6a4>
    a134:	e7e71856 	ubfx	r1, r6, #16, #8
    a138:	e1a00007 	mov	r0, r7
    a13c:	ebfffdd5 	bl	9898 <iobuf_writebyte>
    a140:	e2504000 	subs	r4, r0, #0
    a144:	1affffdd 	bne	a0c0 <block_filter+0x6a4>
    a148:	e7e71456 	ubfx	r1, r6, #8, #8
    a14c:	e1a00007 	mov	r0, r7
    a150:	ebfffdd0 	bl	9898 <iobuf_writebyte>
    a154:	e2504000 	subs	r4, r0, #0
    a158:	1affffd8 	bne	a0c0 <block_filter+0x6a4>
    a15c:	e6ef1076 	uxtb	r1, r6
    a160:	e1a00007 	mov	r0, r7
    a164:	ebfffdcb 	bl	9898 <iobuf_writebyte>
    a168:	e1a04000 	mov	r4, r0
    a16c:	e16f3f14 	clz	r3, r4
    a170:	e3560000 	cmp	r6, #0
    a174:	e1a032a3 	lsr	r3, r3, #5
    a178:	03a03000 	moveq	r3, #0
    a17c:	e3530000 	cmp	r3, #0
    a180:	0affffce 	beq	a0c0 <block_filter+0x6a4>
    a184:	e59f00b8 	ldr	r0, [pc, #184]	; a244 <block_filter+0x828>
    a188:	e1a01006 	mov	r1, r6
    a18c:	e08f0000 	add	r0, pc, r0
    a190:	eb001ff3 	bl	12164 <tfp_printf>
    a194:	e5951010 	ldr	r1, [r5, #16]
    a198:	e1a02006 	mov	r2, r6
    a19c:	e1a00007 	mov	r0, r7
    a1a0:	ebfffde7 	bl	9944 <iobuf_write>
    a1a4:	e1a04000 	mov	r4, r0
    a1a8:	eaffffc4 	b	a0c0 <block_filter+0x6a4>
    a1ac:	e1a01006 	mov	r1, r6
    a1b0:	e1a00007 	mov	r0, r7
    a1b4:	ebfffdb7 	bl	9898 <iobuf_writebyte>
    a1b8:	e1a04000 	mov	r4, r0
    a1bc:	e1a01006 	mov	r1, r6
    a1c0:	e59f0080 	ldr	r0, [pc, #128]	; a248 <block_filter+0x82c>
    a1c4:	e08f0000 	add	r0, pc, r0
    a1c8:	eb001fe5 	bl	12164 <tfp_printf>
    a1cc:	eaffffe6 	b	a16c <block_filter+0x750>
    a1d0:	e59f0074 	ldr	r0, [pc, #116]	; a24c <block_filter+0x830>
    a1d4:	e3a09059 	mov	r9, #89	; 0x59
    a1d8:	e08f0000 	add	r0, pc, r0
    a1dc:	eb001fe0 	bl	12164 <tfp_printf>
    a1e0:	eafffe64 	b	9b78 <block_filter+0x15c>
    a1e4:	e3a00c02 	mov	r0, #512	; 0x200
    a1e8:	eb0016e3 	bl	fd7c <xmalloc>
    a1ec:	e5850010 	str	r0, [r5, #16]
    a1f0:	eaffff1a 	b	9e60 <block_filter+0x444>
    a1f4:	e1a06009 	mov	r6, r9
    a1f8:	eafffe5e 	b	9b78 <block_filter+0x15c>
    a1fc:	e6ef1078 	uxtb	r1, r8
    a200:	e1a00007 	mov	r0, r7
    a204:	ebfffda3 	bl	9898 <iobuf_writebyte>
    a208:	e1a04000 	mov	r4, r0
    a20c:	eaffffd6 	b	a16c <block_filter+0x750>
    a210:	000320fc 	.word	0x000320fc
    a214:	00000008 	.word	0x00000008
    a218:	0000cbd4 	.word	0x0000cbd4
    a21c:	0000cb64 	.word	0x0000cb64
    a220:	0000cbb4 	.word	0x0000cbb4
    a224:	0000cab4 	.word	0x0000cab4
    a228:	0000c9ac 	.word	0x0000c9ac
    a22c:	0000ca28 	.word	0x0000ca28
    a230:	0000c918 	.word	0x0000c918
    a234:	0000c7f0 	.word	0x0000c7f0
    a238:	0000c674 	.word	0x0000c674
    a23c:	0000c710 	.word	0x0000c710
    a240:	0000c6d8 	.word	0x0000c6d8
    a244:	0000c67c 	.word	0x0000c67c
    a248:	0000c5c0 	.word	0x0000c5c0
    a24c:	0000c51c 	.word	0x0000c51c

0000a250 <iobuf_writestr>:
    a250:	e92d4070 	push	{r4, r5, r6, lr}
    a254:	e5d03000 	ldrb	r3, [r0]
    a258:	e3530001 	cmp	r3, #1
    a25c:	9a000008 	bls	a284 <iobuf_writestr+0x34>
    a260:	e1a04000 	mov	r4, r0
    a264:	e1a00001 	mov	r0, r1
    a268:	e1a05001 	mov	r5, r1
    a26c:	eb0012f8 	bl	ee54 <strlen>
    a270:	e1a02000 	mov	r2, r0
    a274:	e1a01005 	mov	r1, r5
    a278:	e1a00004 	mov	r0, r4
    a27c:	e8bd4070 	pop	{r4, r5, r6, lr}
    a280:	eafffdaf 	b	9944 <iobuf_write>
    a284:	e59f000c 	ldr	r0, [pc, #12]	; a298 <iobuf_writestr+0x48>
    a288:	e08f0000 	add	r0, pc, r0
    a28c:	eb001fb4 	bl	12164 <tfp_printf>
    a290:	e3e00000 	mvn	r0, #0
    a294:	e8bd8070 	pop	{r4, r5, r6, pc}
    a298:	0000c5cc 	.word	0x0000c5cc

0000a29c <iobuf_temp_to_buffer>:
    a29c:	e92d4ff0 	push	{r4, r5, r6, r7, r8, r9, sl, fp, lr}
    a2a0:	e24dd03c 	sub	sp, sp, #60	; 0x3c
    a2a4:	e59fa0d8 	ldr	sl, [pc, #216]	; a384 <iobuf_temp_to_buffer+0xe8>
    a2a8:	e1a04000 	mov	r4, r0
    a2ac:	e59fb0d4 	ldr	fp, [pc, #212]	; a388 <iobuf_temp_to_buffer+0xec>
    a2b0:	e3a09020 	mov	r9, #32
    a2b4:	e08fa00a 	add	sl, pc, sl
    a2b8:	e08fb00b 	add	fp, pc, fp
    a2bc:	e58d1008 	str	r1, [sp, #8]
    a2c0:	e58d200c 	str	r2, [sp, #12]
    a2c4:	ea000003 	b	a2d8 <iobuf_temp_to_buffer+0x3c>
    a2c8:	e594303c 	ldr	r3, [r4, #60]	; 0x3c
    a2cc:	e3530000 	cmp	r3, #0
    a2d0:	0a00001a 	beq	a340 <iobuf_temp_to_buffer+0xa4>
    a2d4:	e1a04003 	mov	r4, r3
    a2d8:	e1a00004 	mov	r0, r4
    a2dc:	ebfff7d7 	bl	8240 <filter_flush>
    a2e0:	e3500000 	cmp	r0, #0
    a2e4:	0afffff7 	beq	a2c8 <iobuf_temp_to_buffer+0x2c>
    a2e8:	e594602c 	ldr	r6, [r4, #44]	; 0x2c
    a2ec:	e28d5018 	add	r5, sp, #24
    a2f0:	e5947040 	ldr	r7, [r4, #64]	; 0x40
    a2f4:	e28dc014 	add	ip, sp, #20
    a2f8:	e5948044 	ldr	r8, [r4, #68]	; 0x44
    a2fc:	e3560000 	cmp	r6, #0
    a300:	e58d9014 	str	r9, [sp, #20]
    a304:	e1a03005 	mov	r3, r5
    a308:	e3a02000 	mov	r2, #0
    a30c:	e3a01005 	mov	r1, #5
    a310:	0a000016 	beq	a370 <iobuf_temp_to_buffer+0xd4>
    a314:	e5940030 	ldr	r0, [r4, #48]	; 0x30
    a318:	e58dc000 	str	ip, [sp]
    a31c:	e12fff36 	blx	r6
    a320:	e1a03005 	mov	r3, r5
    a324:	e1a02008 	mov	r2, r8
    a328:	e1a01007 	mov	r1, r7
    a32c:	e1a0000a 	mov	r0, sl
    a330:	eb001f8b 	bl	12164 <tfp_printf>
    a334:	e594303c 	ldr	r3, [r4, #60]	; 0x3c
    a338:	e3530000 	cmp	r3, #0
    a33c:	1affffe4 	bne	a2d4 <iobuf_temp_to_buffer+0x38>
    a340:	e594201c 	ldr	r2, [r4, #28]
    a344:	e59d300c 	ldr	r3, [sp, #12]
    a348:	e5941020 	ldr	r1, [r4, #32]
    a34c:	e1520003 	cmp	r2, r3
    a350:	e59d0008 	ldr	r0, [sp, #8]
    a354:	31a04002 	movcc	r4, r2
    a358:	21a04003 	movcs	r4, r3
    a35c:	e1a02004 	mov	r2, r4
    a360:	eb0016b3 	bl	fe34 <memcpy>
    a364:	e1a00004 	mov	r0, r4
    a368:	e28dd03c 	add	sp, sp, #60	; 0x3c
    a36c:	e8bd8ff0 	pop	{r4, r5, r6, r7, r8, r9, sl, fp, pc}
    a370:	e3a02002 	mov	r2, #2
    a374:	e1a0100b 	mov	r1, fp
    a378:	e1a00005 	mov	r0, r5
    a37c:	eb0016ac 	bl	fe34 <memcpy>
    a380:	eaffffe6 	b	a320 <iobuf_temp_to_buffer+0x84>
    a384:	0000c5d0 	.word	0x0000c5d0
    a388:	0000be24 	.word	0x0000be24

0000a38c <iobuf_copy>:
    a38c:	e92d47f0 	push	{r4, r5, r6, r7, r8, r9, sl, lr}
    a390:	e1a08000 	mov	r8, r0
    a394:	e59f0094 	ldr	r0, [pc, #148]	; a430 <iobuf_copy+0xa4>
    a398:	e1a09001 	mov	r9, r1
    a39c:	e08f0000 	add	r0, pc, r0
    a3a0:	eb001f6f 	bl	12164 <tfp_printf>
    a3a4:	e5985028 	ldr	r5, [r8, #40]	; 0x28
    a3a8:	e3550000 	cmp	r5, #0
    a3ac:	13e07000 	mvnne	r7, #0
    a3b0:	1a000018 	bne	a418 <iobuf_copy+0x8c>
    a3b4:	e3a00902 	mov	r0, #32768	; 0x8000
    a3b8:	e1a07005 	mov	r7, r5
    a3bc:	eb00166e 	bl	fd7c <xmalloc>
    a3c0:	e1a06000 	mov	r6, r0
    a3c4:	ea000005 	b	a3e0 <iobuf_copy+0x54>
    a3c8:	e1550004 	cmp	r5, r4
    a3cc:	31a05004 	movcc	r5, r4
    a3d0:	ebfffd5b 	bl	9944 <iobuf_write>
    a3d4:	e3500000 	cmp	r0, #0
    a3d8:	1a00000a 	bne	a408 <iobuf_copy+0x7c>
    a3dc:	e0877004 	add	r7, r7, r4
    a3e0:	e1a01006 	mov	r1, r6
    a3e4:	e3a02902 	mov	r2, #32768	; 0x8000
    a3e8:	e1a00009 	mov	r0, r9
    a3ec:	ebfffcb8 	bl	96d4 <iobuf_read>
    a3f0:	e1a04000 	mov	r4, r0
    a3f4:	e1a01006 	mov	r1, r6
    a3f8:	e3740001 	cmn	r4, #1
    a3fc:	e1a00008 	mov	r0, r8
    a400:	e1a02004 	mov	r2, r4
    a404:	1affffef 	bne	a3c8 <iobuf_copy+0x3c>
    a408:	e3550000 	cmp	r5, #0
    a40c:	1a000003 	bne	a420 <iobuf_copy+0x94>
    a410:	e1a00006 	mov	r0, r6
    a414:	eb00164c 	bl	fd4c <xfree>
    a418:	e1a00007 	mov	r0, r7
    a41c:	e8bd87f0 	pop	{r4, r5, r6, r7, r8, r9, sl, pc}
    a420:	e1a01005 	mov	r1, r5
    a424:	e1a00006 	mov	r0, r6
    a428:	eb0016be 	bl	ff28 <wipememory>
    a42c:	eafffff7 	b	a410 <iobuf_copy+0x84>
    a430:	0000c530 	.word	0x0000c530

0000a434 <iobuf_flush_temp>:
    a434:	e92d4010 	push	{r4, lr}
    a438:	e1a04000 	mov	r4, r0
    a43c:	e5d03000 	ldrb	r3, [r0]
    a440:	e3530001 	cmp	r3, #1
    a444:	9a00000a 	bls	a474 <iobuf_flush_temp+0x40>
    a448:	e594303c 	ldr	r3, [r4, #60]	; 0x3c
    a44c:	e3530000 	cmp	r3, #0
    a450:	08bd8010 	popeq	{r4, pc}
    a454:	e594102c 	ldr	r1, [r4, #44]	; 0x2c
    a458:	e3a02000 	mov	r2, #0
    a45c:	e1a00004 	mov	r0, r4
    a460:	ebfffb25 	bl	90fc <iobuf_pop_filter>
    a464:	e594303c 	ldr	r3, [r4, #60]	; 0x3c
    a468:	e3530000 	cmp	r3, #0
    a46c:	1afffff8 	bne	a454 <iobuf_flush_temp+0x20>
    a470:	e8bd8010 	pop	{r4, pc}
    a474:	e59f0008 	ldr	r0, [pc, #8]	; a484 <iobuf_flush_temp+0x50>
    a478:	e08f0000 	add	r0, pc, r0
    a47c:	eb001f38 	bl	12164 <tfp_printf>
    a480:	eafffff0 	b	a448 <iobuf_flush_temp+0x14>
    a484:	0000c460 	.word	0x0000c460

0000a488 <iobuf_write_temp>:
    a488:	e92d4070 	push	{r4, r5, r6, lr}
    a48c:	e1a04001 	mov	r4, r1
    a490:	e1a05000 	mov	r5, r0
    a494:	e1a00001 	mov	r0, r1
    a498:	ebffffe5 	bl	a434 <iobuf_flush_temp>
    a49c:	e594201c 	ldr	r2, [r4, #28]
    a4a0:	e1a00005 	mov	r0, r5
    a4a4:	e5941020 	ldr	r1, [r4, #32]
    a4a8:	e8bd4070 	pop	{r4, r5, r6, lr}
    a4ac:	eafffd24 	b	9944 <iobuf_write>

0000a4b0 <iobuf_set_limit>:
    a4b0:	e590300c 	ldr	r3, [r0, #12]
    a4b4:	e3a0c000 	mov	ip, #0
    a4b8:	e051200c 	subs	r2, r1, ip
    a4bc:	e5801004 	str	r1, [r0, #4]
    a4c0:	13a02001 	movne	r2, #1
    a4c4:	e5802010 	str	r2, [r0, #16]
    a4c8:	e5902008 	ldr	r2, [r0, #8]
    a4cc:	e580c008 	str	ip, [r0, #8]
    a4d0:	e0833002 	add	r3, r3, r2
    a4d4:	e580300c 	str	r3, [r0, #12]
    a4d8:	e12fff1e 	bx	lr

0000a4dc <iobuf_get_filelength>:
    a4dc:	e59f104c 	ldr	r1, [pc, #76]	; a530 <iobuf_get_filelength+0x54>
    a4e0:	e08f1001 	add	r1, pc, r1
    a4e4:	e1a03000 	mov	r3, r0
    a4e8:	e590003c 	ldr	r0, [r0, #60]	; 0x3c
    a4ec:	e3500000 	cmp	r0, #0
    a4f0:	1afffffb 	bne	a4e4 <iobuf_get_filelength+0x8>
    a4f4:	e59f2038 	ldr	r2, [pc, #56]	; a534 <iobuf_get_filelength+0x58>
    a4f8:	e593002c 	ldr	r0, [r3, #44]	; 0x2c
    a4fc:	e7913002 	ldr	r3, [r1, r2]
    a500:	e1500003 	cmp	r0, r3
    a504:	0a000002 	beq	a514 <iobuf_get_filelength+0x38>
    a508:	e3a00000 	mov	r0, #0
    a50c:	e3a01000 	mov	r1, #0
    a510:	e12fff1e 	bx	lr
    a514:	e59f001c 	ldr	r0, [pc, #28]	; a538 <iobuf_get_filelength+0x5c>
    a518:	e92d4010 	push	{r4, lr}
    a51c:	e08f0000 	add	r0, pc, r0
    a520:	eb001f0f 	bl	12164 <tfp_printf>
    a524:	e3a00000 	mov	r0, #0
    a528:	e3a01000 	mov	r1, #0
    a52c:	e8bd8010 	pop	{r4, pc}
    a530:	00031644 	.word	0x00031644
    a534:	00000048 	.word	0x00000048
    a538:	0000c3ec 	.word	0x0000c3ec

0000a53c <iobuf_get_fd>:
    a53c:	e92d4030 	push	{r4, r5, lr}
    a540:	e24dd00c 	sub	sp, sp, #12
    a544:	e59f5048 	ldr	r5, [pc, #72]	; a594 <iobuf_get_fd+0x58>
    a548:	e58d0004 	str	r0, [sp, #4]
    a54c:	e59f0044 	ldr	r0, [pc, #68]	; a598 <iobuf_get_fd+0x5c>
    a550:	e59d4004 	ldr	r4, [sp, #4]
    a554:	e08f0000 	add	r0, pc, r0
    a558:	e08f5005 	add	r5, pc, r5
    a55c:	eb001f00 	bl	12164 <tfp_printf>
    a560:	e1a03004 	mov	r3, r4
    a564:	e594403c 	ldr	r4, [r4, #60]	; 0x3c
    a568:	e3540000 	cmp	r4, #0
    a56c:	1afffffb 	bne	a560 <iobuf_get_fd+0x24>
    a570:	e59f2024 	ldr	r2, [pc, #36]	; a59c <iobuf_get_fd+0x60>
    a574:	e593102c 	ldr	r1, [r3, #44]	; 0x2c
    a578:	e7952002 	ldr	r2, [r5, r2]
    a57c:	e1510002 	cmp	r1, r2
    a580:	13e00000 	mvnne	r0, #0
    a584:	05933030 	ldreq	r3, [r3, #48]	; 0x30
    a588:	05930000 	ldreq	r0, [r3]
    a58c:	e28dd00c 	add	sp, sp, #12
    a590:	e8bd8030 	pop	{r4, r5, pc}
    a594:	000315cc 	.word	0x000315cc
    a598:	0000c3c8 	.word	0x0000c3c8
    a59c:	00000048 	.word	0x00000048

0000a5a0 <iobuf_tell>:
    a5a0:	e590200c 	ldr	r2, [r0, #12]
    a5a4:	e5900008 	ldr	r0, [r0, #8]
    a5a8:	e0820000 	add	r0, r2, r0
    a5ac:	e12fff1e 	bx	lr

0000a5b0 <iobuf_seek>:
    a5b0:	e92d4010 	push	{r4, lr}
    a5b4:	e1a04000 	mov	r4, r0
    a5b8:	e5d03000 	ldrb	r3, [r0]
    a5bc:	e59f20bc 	ldr	r2, [pc, #188]	; a680 <iobuf_seek+0xd0>
    a5c0:	e31300fd 	tst	r3, #253	; 0xfd
    a5c4:	e08f2002 	add	r2, pc, r2
    a5c8:	0a000018 	beq	a630 <iobuf_seek+0x80>
    a5cc:	e590203c 	ldr	r2, [r0, #60]	; 0x3c
    a5d0:	e3a03000 	mov	r3, #0
    a5d4:	e5803018 	str	r3, [r0, #24]
    a5d8:	e1520003 	cmp	r2, r3
    a5dc:	e5803008 	str	r3, [r0, #8]
    a5e0:	e5803004 	str	r3, [r0, #4]
    a5e4:	e5803010 	str	r3, [r0, #16]
    a5e8:	e580100c 	str	r1, [r0, #12]
    a5ec:	e5803028 	str	r3, [r0, #40]	; 0x28
    a5f0:	0a00000c 	beq	a628 <iobuf_seek+0x78>
    a5f4:	e59f0088 	ldr	r0, [pc, #136]	; a684 <iobuf_seek+0xd4>
    a5f8:	e08f0000 	add	r0, pc, r0
    a5fc:	eb001ed8 	bl	12164 <tfp_printf>
    a600:	e594303c 	ldr	r3, [r4, #60]	; 0x3c
    a604:	e3530000 	cmp	r3, #0
    a608:	0a000006 	beq	a628 <iobuf_seek+0x78>
    a60c:	e594102c 	ldr	r1, [r4, #44]	; 0x2c
    a610:	e3a02000 	mov	r2, #0
    a614:	e1a00004 	mov	r0, r4
    a618:	ebfffab7 	bl	90fc <iobuf_pop_filter>
    a61c:	e594303c 	ldr	r3, [r4, #60]	; 0x3c
    a620:	e3530000 	cmp	r3, #0
    a624:	1afffff8 	bne	a60c <iobuf_seek+0x5c>
    a628:	e3a00000 	mov	r0, #0
    a62c:	e8bd8010 	pop	{r4, pc}
    a630:	e1a03004 	mov	r3, r4
    a634:	e594403c 	ldr	r4, [r4, #60]	; 0x3c
    a638:	e3540000 	cmp	r4, #0
    a63c:	1afffffb 	bne	a630 <iobuf_seek+0x80>
    a640:	e59f0040 	ldr	r0, [pc, #64]	; a688 <iobuf_seek+0xd8>
    a644:	e7922000 	ldr	r2, [r2, r0]
    a648:	e593002c 	ldr	r0, [r3, #44]	; 0x2c
    a64c:	e1500002 	cmp	r0, r2
    a650:	1a000008 	bne	a678 <iobuf_seek+0xc8>
    a654:	e583401c 	str	r4, [r3, #28]
    a658:	e3a00000 	mov	r0, #0
    a65c:	e5834018 	str	r4, [r3, #24]
    a660:	e5834008 	str	r4, [r3, #8]
    a664:	e5834004 	str	r4, [r3, #4]
    a668:	e5834010 	str	r4, [r3, #16]
    a66c:	e583100c 	str	r1, [r3, #12]
    a670:	e5834028 	str	r4, [r3, #40]	; 0x28
    a674:	e8bd8010 	pop	{r4, pc}
    a678:	e3e00000 	mvn	r0, #0
    a67c:	e8bd8010 	pop	{r4, pc}
    a680:	00031560 	.word	0x00031560
    a684:	0000c334 	.word	0x0000c334
    a688:	00000048 	.word	0x00000048

0000a68c <iobuf_get_real_fname>:
    a68c:	e59f2058 	ldr	r2, [pc, #88]	; a6ec <iobuf_get_real_fname+0x60>
    a690:	e1a03000 	mov	r3, r0
    a694:	e5900038 	ldr	r0, [r0, #56]	; 0x38
    a698:	e08f2002 	add	r2, pc, r2
    a69c:	e3500000 	cmp	r0, #0
    a6a0:	112fff1e 	bxne	lr
    a6a4:	e2530000 	subs	r0, r3, #0
    a6a8:	012fff1e 	bxeq	lr
    a6ac:	e593303c 	ldr	r3, [r3, #60]	; 0x3c
    a6b0:	e3530000 	cmp	r3, #0
    a6b4:	1afffffa 	bne	a6a4 <iobuf_get_real_fname+0x18>
    a6b8:	e59f1030 	ldr	r1, [pc, #48]	; a6f0 <iobuf_get_real_fname+0x64>
    a6bc:	e590c02c 	ldr	ip, [r0, #44]	; 0x2c
    a6c0:	e7921001 	ldr	r1, [r2, r1]
    a6c4:	e15c0001 	cmp	ip, r1
    a6c8:	1afffff5 	bne	a6a4 <iobuf_get_real_fname+0x18>
    a6cc:	e5900030 	ldr	r0, [r0, #48]	; 0x30
    a6d0:	e5902010 	ldr	r2, [r0, #16]
    a6d4:	e3520000 	cmp	r2, #0
    a6d8:	1a000001 	bne	a6e4 <iobuf_get_real_fname+0x58>
    a6dc:	e2800036 	add	r0, r0, #54	; 0x36
    a6e0:	e12fff1e 	bx	lr
    a6e4:	e1a00003 	mov	r0, r3
    a6e8:	e12fff1e 	bx	lr
    a6ec:	0003148c 	.word	0x0003148c
    a6f0:	00000048 	.word	0x00000048

0000a6f4 <iobuf_cancel>:
    a6f4:	e92d40f0 	push	{r4, r5, r6, r7, lr}
    a6f8:	e2506000 	subs	r6, r0, #0
    a6fc:	e24dd014 	sub	sp, sp, #20
    a700:	0a000010 	beq	a748 <iobuf_cancel+0x54>
    a704:	e5d63000 	ldrb	r3, [r6]
    a708:	e3530002 	cmp	r3, #2
    a70c:	0a000011 	beq	a758 <iobuf_cancel+0x64>
    a710:	e1a04006 	mov	r4, r6
    a714:	e28d700c 	add	r7, sp, #12
    a718:	e594502c 	ldr	r5, [r4, #44]	; 0x2c
    a71c:	e3a03000 	mov	r3, #0
    a720:	e3a01006 	mov	r1, #6
    a724:	e1550003 	cmp	r5, r3
    a728:	0a000003 	beq	a73c <iobuf_cancel+0x48>
    a72c:	e594203c 	ldr	r2, [r4, #60]	; 0x3c
    a730:	e5940030 	ldr	r0, [r4, #48]	; 0x30
    a734:	e58d7000 	str	r7, [sp]
    a738:	e12fff35 	blx	r5
    a73c:	e594403c 	ldr	r4, [r4, #60]	; 0x3c
    a740:	e3540000 	cmp	r4, #0
    a744:	1afffff3 	bne	a718 <iobuf_cancel+0x24>
    a748:	e1a00006 	mov	r0, r6
    a74c:	e28dd014 	add	sp, sp, #20
    a750:	e8bd40f0 	pop	{r4, r5, r6, r7, lr}
    a754:	eafff807 	b	8778 <iobuf_close>
    a758:	ebffffcb 	bl	a68c <iobuf_get_real_fname>
    a75c:	eaffffeb 	b	a710 <iobuf_cancel+0x1c>

0000a760 <iobuf_get_fname>:
    a760:	e59f103c 	ldr	r1, [pc, #60]	; a7a4 <iobuf_get_fname+0x44>
    a764:	e08f1001 	add	r1, pc, r1
    a768:	ea000000 	b	a770 <iobuf_get_fname+0x10>
    a76c:	e1a00003 	mov	r0, r3
    a770:	e3500000 	cmp	r0, #0
    a774:	012fff1e 	bxeq	lr
    a778:	e590303c 	ldr	r3, [r0, #60]	; 0x3c
    a77c:	e3530000 	cmp	r3, #0
    a780:	1afffff9 	bne	a76c <iobuf_get_fname+0xc>
    a784:	e59f201c 	ldr	r2, [pc, #28]	; a7a8 <iobuf_get_fname+0x48>
    a788:	e590c02c 	ldr	ip, [r0, #44]	; 0x2c
    a78c:	e7912002 	ldr	r2, [r1, r2]
    a790:	e15c0002 	cmp	ip, r2
    a794:	05900030 	ldreq	r0, [r0, #48]	; 0x30
    a798:	02800036 	addeq	r0, r0, #54	; 0x36
    a79c:	11a00003 	movne	r0, r3
    a7a0:	e12fff1e 	bx	lr
    a7a4:	000313c0 	.word	0x000313c0
    a7a8:	00000048 	.word	0x00000048

0000a7ac <iobuf_get_fname_nonnull>:
    a7ac:	e92d4010 	push	{r4, lr}
    a7b0:	ebffffea 	bl	a760 <iobuf_get_fname>
    a7b4:	e3500000 	cmp	r0, #0
    a7b8:	18bd8010 	popne	{r4, pc}
    a7bc:	e59f0004 	ldr	r0, [pc, #4]	; a7c8 <iobuf_get_fname_nonnull+0x1c>
    a7c0:	e08f0000 	add	r0, pc, r0
    a7c4:	e8bd8010 	pop	{r4, pc}
    a7c8:	0000c1a4 	.word	0x0000c1a4

0000a7cc <iobuf_set_partial_body_length_mode>:
    a7cc:	e92d4070 	push	{r4, r5, r6, lr}
    a7d0:	e1a04000 	mov	r4, r0
    a7d4:	e59f00b8 	ldr	r0, [pc, #184]	; a894 <iobuf_set_partial_body_length_mode+0xc8>
    a7d8:	e1a05001 	mov	r5, r1
    a7dc:	e08f0000 	add	r0, pc, r0
    a7e0:	eb001e5f 	bl	12164 <tfp_printf>
    a7e4:	e3550000 	cmp	r5, #0
    a7e8:	1a000015 	bne	a844 <iobuf_set_partial_body_length_mode+0x78>
    a7ec:	e5d43000 	ldrb	r3, [r4]
    a7f0:	e3530000 	cmp	r3, #0
    a7f4:	0a00000e 	beq	a834 <iobuf_set_partial_body_length_mode+0x68>
    a7f8:	e59f0098 	ldr	r0, [pc, #152]	; a898 <iobuf_set_partial_body_length_mode+0xcc>
    a7fc:	e59f5098 	ldr	r5, [pc, #152]	; a89c <iobuf_set_partial_body_length_mode+0xd0>
    a800:	e08f0000 	add	r0, pc, r0
    a804:	e08f5005 	add	r5, pc, r5
    a808:	eb001e55 	bl	12164 <tfp_printf>
    a80c:	e594002c 	ldr	r0, [r4, #44]	; 0x2c
    a810:	e0400005 	sub	r0, r0, r5
    a814:	e16f0f10 	clz	r0, r0
    a818:	e1a002a0 	lsr	r0, r0, #5
    a81c:	eb001e50 	bl	12164 <tfp_printf>
    a820:	e1a01005 	mov	r1, r5
    a824:	e1a00004 	mov	r0, r4
    a828:	e3a02000 	mov	r2, #0
    a82c:	e8bd4070 	pop	{r4, r5, r6, lr}
    a830:	eafffa31 	b	90fc <iobuf_pop_filter>
    a834:	e59f0064 	ldr	r0, [pc, #100]	; a8a0 <iobuf_set_partial_body_length_mode+0xd4>
    a838:	e08f0000 	add	r0, pc, r0
    a83c:	eb001e48 	bl	12164 <tfp_printf>
    a840:	eaffffec 	b	a7f8 <iobuf_set_partial_body_length_mode+0x2c>
    a844:	e3a01020 	mov	r1, #32
    a848:	e3a00001 	mov	r0, #1
    a84c:	eb001567 	bl	fdf0 <xcalloc>
    a850:	e5d41000 	ldrb	r1, [r4]
    a854:	e3a03001 	mov	r3, #1
    a858:	e580300c 	str	r3, [r0, #12]
    a85c:	e3a03000 	mov	r3, #0
    a860:	e5801000 	str	r1, [r0]
    a864:	e1a06000 	mov	r6, r0
    a868:	e5803004 	str	r3, [r0, #4]
    a86c:	e59f0030 	ldr	r0, [pc, #48]	; a8a4 <iobuf_set_partial_body_length_mode+0xd8>
    a870:	e5865018 	str	r5, [r6, #24]
    a874:	e08f0000 	add	r0, pc, r0
    a878:	eb001e39 	bl	12164 <tfp_printf>
    a87c:	e59f1024 	ldr	r1, [pc, #36]	; a8a8 <iobuf_set_partial_body_length_mode+0xdc>
    a880:	e1a02006 	mov	r2, r6
    a884:	e1a00004 	mov	r0, r4
    a888:	e08f1001 	add	r1, pc, r1
    a88c:	e8bd4070 	pop	{r4, r5, r6, lr}
    a890:	eafffa17 	b	90f4 <iobuf_push_filter>
    a894:	0000c18c 	.word	0x0000c18c
    a898:	0000c1d4 	.word	0x0000c1d4
    a89c:	fffff210 	.word	0xfffff210
    a8a0:	0000c158 	.word	0x0000c158
    a8a4:	0000c194 	.word	0x0000c194
    a8a8:	fffff18c 	.word	0xfffff18c

0000a8ac <iobuf_read_line>:
    a8ac:	e92d4ff0 	push	{r4, r5, r6, r7, r8, r9, sl, fp, lr}
    a8b0:	e24dd00c 	sub	sp, sp, #12
    a8b4:	e591b000 	ldr	fp, [r1]
    a8b8:	e1a07001 	mov	r7, r1
    a8bc:	e592a000 	ldr	sl, [r2]
    a8c0:	e1a08002 	mov	r8, r2
    a8c4:	e5936000 	ldr	r6, [r3]
    a8c8:	e1a04000 	mov	r4, r0
    a8cc:	e35b0000 	cmp	fp, #0
    a8d0:	135a0001 	cmpne	sl, #1
    a8d4:	e58d3004 	str	r3, [sp, #4]
    a8d8:	9a00004c 	bls	aa10 <iobuf_read_line+0x164>
    a8dc:	e1a0900b 	mov	r9, fp
    a8e0:	e3a05000 	mov	r5, #0
    a8e4:	ea00000f 	b	a928 <iobuf_read_line+0x7c>
    a8e8:	e5941008 	ldr	r1, [r4, #8]
    a8ec:	e5940020 	ldr	r0, [r4, #32]
    a8f0:	e584c018 	str	ip, [r4, #24]
    a8f4:	e2811001 	add	r1, r1, #1
    a8f8:	e5841008 	str	r1, [r4, #8]
    a8fc:	e7d01002 	ldrb	r1, [r0, r2]
    a900:	e1a00001 	mov	r0, r1
    a904:	e1a02009 	mov	r2, r9
    a908:	e350000a 	cmp	r0, #10
    a90c:	e24ac001 	sub	ip, sl, #1
    a910:	e2855001 	add	r5, r5, #1
    a914:	e4c21001 	strb	r1, [r2], #1
    a918:	0a000010 	beq	a960 <iobuf_read_line+0xb4>
    a91c:	e15c0005 	cmp	ip, r5
    a920:	0a000013 	beq	a974 <iobuf_read_line+0xc8>
    a924:	e1a09002 	mov	r9, r2
    a928:	e5942010 	ldr	r2, [r4, #16]
    a92c:	e1a00004 	mov	r0, r4
    a930:	e3520000 	cmp	r2, #0
    a934:	1a000004 	bne	a94c <iobuf_read_line+0xa0>
    a938:	e5942018 	ldr	r2, [r4, #24]
    a93c:	e594101c 	ldr	r1, [r4, #28]
    a940:	e282c001 	add	ip, r2, #1
    a944:	e1520001 	cmp	r2, r1
    a948:	3affffe6 	bcc	a8e8 <iobuf_read_line+0x3c>
    a94c:	ebfffaa7 	bl	93f0 <iobuf_readbyte>
    a950:	e3700001 	cmn	r0, #1
    a954:	e6ef1070 	uxtb	r1, r0
    a958:	1affffe9 	bne	a904 <iobuf_read_line+0x58>
    a95c:	e1a02009 	mov	r2, r9
    a960:	e3a03000 	mov	r3, #0
    a964:	e1a00005 	mov	r0, r5
    a968:	e5c23000 	strb	r3, [r2]
    a96c:	e28dd00c 	add	sp, sp, #12
    a970:	e8bd8ff0 	pop	{r4, r5, r6, r7, r8, r9, sl, fp, pc}
    a974:	e15a0006 	cmp	sl, r6
    a978:	e1a0000b 	mov	r0, fp
    a97c:	0a000013 	beq	a9d0 <iobuf_read_line+0x124>
    a980:	e35a0b01 	cmp	sl, #1024	; 0x400
    a984:	33a01c01 	movcc	r1, #256	; 0x100
    a988:	23a01b01 	movcs	r1, #1024	; 0x400
    a98c:	e08aa001 	add	sl, sl, r1
    a990:	e156000a 	cmp	r6, sl
    a994:	31a0a006 	movcc	sl, r6
    a998:	e1a0100a 	mov	r1, sl
    a99c:	eb00152d 	bl	fe58 <xrealloc>
    a9a0:	e5870000 	str	r0, [r7]
    a9a4:	e1a0b000 	mov	fp, r0
    a9a8:	e0802005 	add	r2, r0, r5
    a9ac:	e588a000 	str	sl, [r8]
    a9b0:	eaffffdb 	b	a924 <iobuf_read_line+0x78>
    a9b4:	e58d2000 	str	r2, [sp]
    a9b8:	ebfffa8c 	bl	93f0 <iobuf_readbyte>
    a9bc:	e59d2000 	ldr	r2, [sp]
    a9c0:	e3700001 	cmn	r0, #1
    a9c4:	0a00001b 	beq	aa38 <iobuf_read_line+0x18c>
    a9c8:	e350000a 	cmp	r0, #10
    a9cc:	0a000019 	beq	aa38 <iobuf_read_line+0x18c>
    a9d0:	e5941010 	ldr	r1, [r4, #16]
    a9d4:	e1a00004 	mov	r0, r4
    a9d8:	e3510000 	cmp	r1, #0
    a9dc:	1afffff4 	bne	a9b4 <iobuf_read_line+0x108>
    a9e0:	e5941018 	ldr	r1, [r4, #24]
    a9e4:	e594c01c 	ldr	ip, [r4, #28]
    a9e8:	e151000c 	cmp	r1, ip
    a9ec:	e281c001 	add	ip, r1, #1
    a9f0:	2affffef 	bcs	a9b4 <iobuf_read_line+0x108>
    a9f4:	e5940008 	ldr	r0, [r4, #8]
    a9f8:	e594e020 	ldr	lr, [r4, #32]
    a9fc:	e584c018 	str	ip, [r4, #24]
    aa00:	e2800001 	add	r0, r0, #1
    aa04:	e5840008 	str	r0, [r4, #8]
    aa08:	e7de0001 	ldrb	r0, [lr, r1]
    aa0c:	eaffffed 	b	a9c8 <iobuf_read_line+0x11c>
    aa10:	e3560c01 	cmp	r6, #256	; 0x100
    aa14:	e1a0000b 	mov	r0, fp
    aa18:	31a0a006 	movcc	sl, r6
    aa1c:	23a0ac01 	movcs	sl, #256	; 0x100
    aa20:	e1a0100a 	mov	r1, sl
    aa24:	eb00150b 	bl	fe58 <xrealloc>
    aa28:	e5870000 	str	r0, [r7]
    aa2c:	e1a0b000 	mov	fp, r0
    aa30:	e588a000 	str	sl, [r8]
    aa34:	eaffffa8 	b	a8dc <iobuf_read_line+0x30>
    aa38:	e3a0100a 	mov	r1, #10
    aa3c:	e3a03000 	mov	r3, #0
    aa40:	e5c91000 	strb	r1, [r9]
    aa44:	e59d1004 	ldr	r1, [sp, #4]
    aa48:	e5813000 	str	r3, [r1]
    aa4c:	eaffffc3 	b	a960 <iobuf_read_line+0xb4>

0000aa50 <translate_file_handle>:
    aa50:	e12fff1e 	bx	lr

0000aa54 <iobuf_skip_rest>:
    aa54:	e3520000 	cmp	r2, #0
    aa58:	e92d4070 	push	{r4, r5, r6, lr}
    aa5c:	e1a04000 	mov	r4, r0
    aa60:	1a000031 	bne	ab2c <iobuf_skip_rest+0xd8>
    aa64:	e3510000 	cmp	r1, #0
    aa68:	e1a05001 	mov	r5, r1
    aa6c:	08bd8070 	popeq	{r4, r5, r6, pc}
    aa70:	e5943010 	ldr	r3, [r4, #16]
    aa74:	e1a00004 	mov	r0, r4
    aa78:	e3530000 	cmp	r3, #0
    aa7c:	0a000014 	beq	aad4 <iobuf_skip_rest+0x80>
    aa80:	e2455001 	sub	r5, r5, #1
    aa84:	ebfffa59 	bl	93f0 <iobuf_readbyte>
    aa88:	e3700001 	cmn	r0, #1
    aa8c:	08bd8070 	popeq	{r4, r5, r6, pc}
    aa90:	e3550000 	cmp	r5, #0
    aa94:	1a00000a 	bne	aac4 <iobuf_skip_rest+0x70>
    aa98:	e8bd8070 	pop	{r4, r5, r6, pc}
    aa9c:	e1530005 	cmp	r3, r5
    aaa0:	e5941008 	ldr	r1, [r4, #8]
    aaa4:	21a03005 	movcs	r3, r5
    aaa8:	e0455003 	sub	r5, r5, r3
    aaac:	e0811003 	add	r1, r1, r3
    aab0:	e3550000 	cmp	r5, #0
    aab4:	e0833002 	add	r3, r3, r2
    aab8:	e5841008 	str	r1, [r4, #8]
    aabc:	e5843018 	str	r3, [r4, #24]
    aac0:	08bd8070 	popeq	{r4, r5, r6, pc}
    aac4:	e5943010 	ldr	r3, [r4, #16]
    aac8:	e1a00004 	mov	r0, r4
    aacc:	e3530000 	cmp	r3, #0
    aad0:	1affffea 	bne	aa80 <iobuf_skip_rest+0x2c>
    aad4:	e5942018 	ldr	r2, [r4, #24]
    aad8:	e594101c 	ldr	r1, [r4, #28]
    aadc:	e1520001 	cmp	r2, r1
    aae0:	e0413002 	sub	r3, r1, r2
    aae4:	3affffec 	bcc	aa9c <iobuf_skip_rest+0x48>
    aae8:	eaffffe4 	b	aa80 <iobuf_skip_rest+0x2c>
    aaec:	e594101c 	ldr	r1, [r4, #28]
    aaf0:	e5942018 	ldr	r2, [r4, #24]
    aaf4:	e1520001 	cmp	r2, r1
    aaf8:	2a000007 	bcs	ab1c <iobuf_skip_rest+0xc8>
    aafc:	e5943008 	ldr	r3, [r4, #8]
    ab00:	e5841018 	str	r1, [r4, #24]
    ab04:	e0433002 	sub	r3, r3, r2
    ab08:	e5942018 	ldr	r2, [r4, #24]
    ab0c:	e0833001 	add	r3, r3, r1
    ab10:	e1520001 	cmp	r2, r1
    ab14:	e5843008 	str	r3, [r4, #8]
    ab18:	3afffff7 	bcc	aafc <iobuf_skip_rest+0xa8>
    ab1c:	e1a00004 	mov	r0, r4
    ab20:	ebfffa32 	bl	93f0 <iobuf_readbyte>
    ab24:	e3700001 	cmn	r0, #1
    ab28:	08bd8070 	popeq	{r4, r5, r6, pc}
    ab2c:	e5943010 	ldr	r3, [r4, #16]
    ab30:	e3530000 	cmp	r3, #0
    ab34:	1afffff8 	bne	ab1c <iobuf_skip_rest+0xc8>
    ab38:	eaffffeb 	b	aaec <iobuf_skip_rest+0x98>

0000ab3c <get_status_string>:
    ab3c:	e3500065 	cmp	r0, #101	; 0x65
    ab40:	8a000005 	bhi	ab5c <get_status_string+0x20>
    ab44:	e59f301c 	ldr	r3, [pc, #28]	; ab68 <get_status_string+0x2c>
    ab48:	e08f3003 	add	r3, pc, r3
    ab4c:	e0830100 	add	r0, r3, r0, lsl #2
    ab50:	e59004ec 	ldr	r0, [r0, #1260]	; 0x4ec
    ab54:	e0830000 	add	r0, r3, r0
    ab58:	e12fff1e 	bx	lr
    ab5c:	e59f0008 	ldr	r0, [pc, #8]	; ab6c <get_status_string+0x30>
    ab60:	e08f0000 	add	r0, pc, r0
    ab64:	e12fff1e 	bx	lr
    ab68:	00008d98 	.word	0x00008d98
    ab6c:	0000b57c 	.word	0x0000b57c

0000ab70 <get_inv_recpsgnr_code>:
    ab70:	e6ff0070 	uxth	r0, r0
    ab74:	e350007d 	cmp	r0, #125	; 0x7d
    ab78:	8a000057 	bhi	acdc <get_inv_recpsgnr_code+0x16c>
    ab7c:	e3500035 	cmp	r0, #53	; 0x35
    ab80:	9a00004e 	bls	acc0 <get_inv_recpsgnr_code+0x150>
    ab84:	e2400036 	sub	r0, r0, #54	; 0x36
    ab88:	e3500047 	cmp	r0, #71	; 0x47
    ab8c:	908ff100 	addls	pc, pc, r0, lsl #2
    ab90:	ea000047 	b	acb4 <get_inv_recpsgnr_code+0x144>
    ab94:	ea000073 	b	ad68 <get_inv_recpsgnr_code+0x1f8>
    ab98:	ea000045 	b	acb4 <get_inv_recpsgnr_code+0x144>
    ab9c:	ea000044 	b	acb4 <get_inv_recpsgnr_code+0x144>
    aba0:	ea00005b 	b	ad14 <get_inv_recpsgnr_code+0x1a4>
    aba4:	ea000042 	b	acb4 <get_inv_recpsgnr_code+0x144>
    aba8:	ea000041 	b	acb4 <get_inv_recpsgnr_code+0x144>
    abac:	ea000040 	b	acb4 <get_inv_recpsgnr_code+0x144>
    abb0:	ea00003f 	b	acb4 <get_inv_recpsgnr_code+0x144>
    abb4:	ea00003e 	b	acb4 <get_inv_recpsgnr_code+0x144>
    abb8:	ea00003d 	b	acb4 <get_inv_recpsgnr_code+0x144>
    abbc:	ea00003c 	b	acb4 <get_inv_recpsgnr_code+0x144>
    abc0:	ea00003b 	b	acb4 <get_inv_recpsgnr_code+0x144>
    abc4:	ea00003a 	b	acb4 <get_inv_recpsgnr_code+0x144>
    abc8:	ea000039 	b	acb4 <get_inv_recpsgnr_code+0x144>
    abcc:	ea000038 	b	acb4 <get_inv_recpsgnr_code+0x144>
    abd0:	ea000037 	b	acb4 <get_inv_recpsgnr_code+0x144>
    abd4:	ea000036 	b	acb4 <get_inv_recpsgnr_code+0x144>
    abd8:	ea000035 	b	acb4 <get_inv_recpsgnr_code+0x144>
    abdc:	ea000034 	b	acb4 <get_inv_recpsgnr_code+0x144>
    abe0:	ea000033 	b	acb4 <get_inv_recpsgnr_code+0x144>
    abe4:	ea000032 	b	acb4 <get_inv_recpsgnr_code+0x144>
    abe8:	ea000031 	b	acb4 <get_inv_recpsgnr_code+0x144>
    abec:	ea000030 	b	acb4 <get_inv_recpsgnr_code+0x144>
    abf0:	ea00002f 	b	acb4 <get_inv_recpsgnr_code+0x144>
    abf4:	ea00002e 	b	acb4 <get_inv_recpsgnr_code+0x144>
    abf8:	ea00002d 	b	acb4 <get_inv_recpsgnr_code+0x144>
    abfc:	ea00002c 	b	acb4 <get_inv_recpsgnr_code+0x144>
    ac00:	ea00002b 	b	acb4 <get_inv_recpsgnr_code+0x144>
    ac04:	ea00002a 	b	acb4 <get_inv_recpsgnr_code+0x144>
    ac08:	ea000029 	b	acb4 <get_inv_recpsgnr_code+0x144>
    ac0c:	ea000028 	b	acb4 <get_inv_recpsgnr_code+0x144>
    ac10:	ea000027 	b	acb4 <get_inv_recpsgnr_code+0x144>
    ac14:	ea000026 	b	acb4 <get_inv_recpsgnr_code+0x144>
    ac18:	ea000025 	b	acb4 <get_inv_recpsgnr_code+0x144>
    ac1c:	ea000024 	b	acb4 <get_inv_recpsgnr_code+0x144>
    ac20:	ea000023 	b	acb4 <get_inv_recpsgnr_code+0x144>
    ac24:	ea000022 	b	acb4 <get_inv_recpsgnr_code+0x144>
    ac28:	ea000021 	b	acb4 <get_inv_recpsgnr_code+0x144>
    ac2c:	ea000020 	b	acb4 <get_inv_recpsgnr_code+0x144>
    ac30:	ea00001f 	b	acb4 <get_inv_recpsgnr_code+0x144>
    ac34:	ea000039 	b	ad20 <get_inv_recpsgnr_code+0x1b0>
    ac38:	ea00003b 	b	ad2c <get_inv_recpsgnr_code+0x1bc>
    ac3c:	ea00003d 	b	ad38 <get_inv_recpsgnr_code+0x1c8>
    ac40:	ea00001b 	b	acb4 <get_inv_recpsgnr_code+0x144>
    ac44:	ea00003e 	b	ad44 <get_inv_recpsgnr_code+0x1d4>
    ac48:	ea000019 	b	acb4 <get_inv_recpsgnr_code+0x144>
    ac4c:	ea000018 	b	acb4 <get_inv_recpsgnr_code+0x144>
    ac50:	ea00003e 	b	ad50 <get_inv_recpsgnr_code+0x1e0>
    ac54:	ea000016 	b	acb4 <get_inv_recpsgnr_code+0x144>
    ac58:	ea000015 	b	acb4 <get_inv_recpsgnr_code+0x144>
    ac5c:	ea000014 	b	acb4 <get_inv_recpsgnr_code+0x144>
    ac60:	ea000013 	b	acb4 <get_inv_recpsgnr_code+0x144>
    ac64:	ea000012 	b	acb4 <get_inv_recpsgnr_code+0x144>
    ac68:	ea000041 	b	ad74 <get_inv_recpsgnr_code+0x204>
    ac6c:	ea000010 	b	acb4 <get_inv_recpsgnr_code+0x144>
    ac70:	ea00000f 	b	acb4 <get_inv_recpsgnr_code+0x144>
    ac74:	ea00000e 	b	acb4 <get_inv_recpsgnr_code+0x144>
    ac78:	ea00000d 	b	acb4 <get_inv_recpsgnr_code+0x144>
    ac7c:	ea00000c 	b	acb4 <get_inv_recpsgnr_code+0x144>
    ac80:	ea00000b 	b	acb4 <get_inv_recpsgnr_code+0x144>
    ac84:	ea00000a 	b	acb4 <get_inv_recpsgnr_code+0x144>
    ac88:	ea000009 	b	acb4 <get_inv_recpsgnr_code+0x144>
    ac8c:	ea00001d 	b	ad08 <get_inv_recpsgnr_code+0x198>
    ac90:	ea000007 	b	acb4 <get_inv_recpsgnr_code+0x144>
    ac94:	ea000006 	b	acb4 <get_inv_recpsgnr_code+0x144>
    ac98:	ea000005 	b	acb4 <get_inv_recpsgnr_code+0x144>
    ac9c:	ea000004 	b	acb4 <get_inv_recpsgnr_code+0x144>
    aca0:	ea000003 	b	acb4 <get_inv_recpsgnr_code+0x144>
    aca4:	ea000002 	b	acb4 <get_inv_recpsgnr_code+0x144>
    aca8:	ea000001 	b	acb4 <get_inv_recpsgnr_code+0x144>
    acac:	ea000000 	b	acb4 <get_inv_recpsgnr_code+0x144>
    acb0:	ea000029 	b	ad5c <get_inv_recpsgnr_code+0x1ec>
    acb4:	e59f00d0 	ldr	r0, [pc, #208]	; ad8c <get_inv_recpsgnr_code+0x21c>
    acb8:	e08f0000 	add	r0, pc, r0
    acbc:	e12fff1e 	bx	lr
    acc0:	e3500009 	cmp	r0, #9
    acc4:	0a000009 	beq	acf0 <get_inv_recpsgnr_code+0x180>
    acc8:	e3500011 	cmp	r0, #17
    accc:	1a00002b 	bne	ad80 <get_inv_recpsgnr_code+0x210>
    acd0:	e59f00b8 	ldr	r0, [pc, #184]	; ad90 <get_inv_recpsgnr_code+0x220>
    acd4:	e08f0000 	add	r0, pc, r0
    acd8:	e12fff1e 	bx	lr
    acdc:	e35000b9 	cmp	r0, #185	; 0xb9
    ace0:	1a000005 	bne	acfc <get_inv_recpsgnr_code+0x18c>
    ace4:	e59f00a8 	ldr	r0, [pc, #168]	; ad94 <get_inv_recpsgnr_code+0x224>
    ace8:	e08f0000 	add	r0, pc, r0
    acec:	e12fff1e 	bx	lr
    acf0:	e59f00a0 	ldr	r0, [pc, #160]	; ad98 <get_inv_recpsgnr_code+0x228>
    acf4:	e08f0000 	add	r0, pc, r0
    acf8:	e12fff1e 	bx	lr
    acfc:	e59f0098 	ldr	r0, [pc, #152]	; ad9c <get_inv_recpsgnr_code+0x22c>
    ad00:	e08f0000 	add	r0, pc, r0
    ad04:	e12fff1e 	bx	lr
    ad08:	e59f0090 	ldr	r0, [pc, #144]	; ada0 <get_inv_recpsgnr_code+0x230>
    ad0c:	e08f0000 	add	r0, pc, r0
    ad10:	e12fff1e 	bx	lr
    ad14:	e59f0088 	ldr	r0, [pc, #136]	; ada4 <get_inv_recpsgnr_code+0x234>
    ad18:	e08f0000 	add	r0, pc, r0
    ad1c:	e12fff1e 	bx	lr
    ad20:	e59f0080 	ldr	r0, [pc, #128]	; ada8 <get_inv_recpsgnr_code+0x238>
    ad24:	e08f0000 	add	r0, pc, r0
    ad28:	e12fff1e 	bx	lr
    ad2c:	e59f0078 	ldr	r0, [pc, #120]	; adac <get_inv_recpsgnr_code+0x23c>
    ad30:	e08f0000 	add	r0, pc, r0
    ad34:	e12fff1e 	bx	lr
    ad38:	e59f0070 	ldr	r0, [pc, #112]	; adb0 <get_inv_recpsgnr_code+0x240>
    ad3c:	e08f0000 	add	r0, pc, r0
    ad40:	e12fff1e 	bx	lr
    ad44:	e59f0068 	ldr	r0, [pc, #104]	; adb4 <get_inv_recpsgnr_code+0x244>
    ad48:	e08f0000 	add	r0, pc, r0
    ad4c:	e12fff1e 	bx	lr
    ad50:	e59f0060 	ldr	r0, [pc, #96]	; adb8 <get_inv_recpsgnr_code+0x248>
    ad54:	e08f0000 	add	r0, pc, r0
    ad58:	e12fff1e 	bx	lr
    ad5c:	e59f0058 	ldr	r0, [pc, #88]	; adbc <get_inv_recpsgnr_code+0x24c>
    ad60:	e08f0000 	add	r0, pc, r0
    ad64:	e12fff1e 	bx	lr
    ad68:	e59f0050 	ldr	r0, [pc, #80]	; adc0 <get_inv_recpsgnr_code+0x250>
    ad6c:	e08f0000 	add	r0, pc, r0
    ad70:	e12fff1e 	bx	lr
    ad74:	e59f0048 	ldr	r0, [pc, #72]	; adc4 <get_inv_recpsgnr_code+0x254>
    ad78:	e08f0000 	add	r0, pc, r0
    ad7c:	e12fff1e 	bx	lr
    ad80:	e59f0040 	ldr	r0, [pc, #64]	; adc8 <get_inv_recpsgnr_code+0x258>
    ad84:	e08f0000 	add	r0, pc, r0
    ad88:	e12fff1e 	bx	lr
    ad8c:	0000be04 	.word	0x0000be04
    ad90:	0000be04 	.word	0x0000be04
    ad94:	0000be00 	.word	0x0000be00
    ad98:	0000bdcc 	.word	0x0000bdcc
    ad9c:	0000bdbc 	.word	0x0000bdbc
    ada0:	0000bdc8 	.word	0x0000bdc8
    ada4:	0000bdc8 	.word	0x0000bdc8
    ada8:	0000bda4 	.word	0x0000bda4
    adac:	0000bd9c 	.word	0x0000bd9c
    adb0:	0000bd94 	.word	0x0000bd94
    adb4:	0000bd94 	.word	0x0000bd94
    adb8:	0000cf9c 	.word	0x0000cf9c
    adbc:	0000bd64 	.word	0x0000bd64
    adc0:	0000bd6c 	.word	0x0000bd6c
    adc4:	0000bd6c 	.word	0x0000bd6c
    adc8:	0000bd38 	.word	0x0000bd38

0000adcc <get_pkttype_name>:
    adcc:	e3500009 	cmp	r0, #9
    add0:	0a00000c 	beq	ae08 <get_pkttype_name+0x3c>
    add4:	e350000b 	cmp	r0, #11
    add8:	0a000004 	beq	adf0 <get_pkttype_name+0x24>
    addc:	e3500003 	cmp	r0, #3
    ade0:	0a000005 	beq	adfc <get_pkttype_name+0x30>
    ade4:	e59f0028 	ldr	r0, [pc, #40]	; ae14 <get_pkttype_name+0x48>
    ade8:	e08f0000 	add	r0, pc, r0
    adec:	e12fff1e 	bx	lr
    adf0:	e59f0020 	ldr	r0, [pc, #32]	; ae18 <get_pkttype_name+0x4c>
    adf4:	e08f0000 	add	r0, pc, r0
    adf8:	e12fff1e 	bx	lr
    adfc:	e59f0018 	ldr	r0, [pc, #24]	; ae1c <get_pkttype_name+0x50>
    ae00:	e08f0000 	add	r0, pc, r0
    ae04:	e12fff1e 	bx	lr
    ae08:	e59f0010 	ldr	r0, [pc, #16]	; ae20 <get_pkttype_name+0x54>
    ae0c:	e08f0000 	add	r0, pc, r0
    ae10:	e12fff1e 	bx	lr
    ae14:	0000bc44 	.word	0x0000bc44
    ae18:	0000bcf8 	.word	0x0000bcf8
    ae1c:	0000bd0c 	.word	0x0000bd0c
    ae20:	0000bcf0 	.word	0x0000bcf0

0000ae24 <calc_packet_length>:
    ae24:	e92d4070 	push	{r4, r5, r6, lr}
    ae28:	e5d03000 	ldrb	r3, [r0]
    ae2c:	e353000b 	cmp	r3, #11
    ae30:	0a000004 	beq	ae48 <calc_packet_length+0x24>
    ae34:	e59f00b0 	ldr	r0, [pc, #176]	; aeec <calc_packet_length+0xc8>
    ae38:	e08f0000 	add	r0, pc, r0
    ae3c:	eb001cc8 	bl	12164 <tfp_printf>
    ae40:	e3a00002 	mov	r0, #2
    ae44:	e8bd8070 	pop	{r4, r5, r6, pc}
    ae48:	e5903004 	ldr	r3, [r0, #4]
    ae4c:	e1a05000 	mov	r5, r0
    ae50:	e5932014 	ldr	r2, [r3, #20]
    ae54:	e5931000 	ldr	r1, [r3]
    ae58:	e35200ff 	cmp	r2, #255	; 0xff
    ae5c:	c3a020ff 	movgt	r2, #255	; 0xff
    ae60:	c5832014 	strgt	r2, [r3, #20]
    ae64:	e3510000 	cmp	r1, #0
    ae68:	0a000010 	beq	aeb0 <calc_packet_length+0x8c>
    ae6c:	e5934014 	ldr	r4, [r3, #20]
    ae70:	e2811006 	add	r1, r1, #6
    ae74:	e59f0074 	ldr	r0, [pc, #116]	; aef0 <calc_packet_length+0xcc>
    ae78:	e0814004 	add	r4, r1, r4
    ae7c:	e08f0000 	add	r0, pc, r0
    ae80:	e1a01004 	mov	r1, r4
    ae84:	eb001cb6 	bl	12164 <tfp_printf>
    ae88:	e5953004 	ldr	r3, [r5, #4]
    ae8c:	e5d33008 	ldrb	r3, [r3, #8]
    ae90:	e3530000 	cmp	r3, #0
    ae94:	0a00000c 	beq	aecc <calc_packet_length+0xa8>
    ae98:	e35400bf 	cmp	r4, #191	; 0xbf
    ae9c:	9a000010 	bls	aee4 <calc_packet_length+0xc0>
    aea0:	e3540d83 	cmp	r4, #8384	; 0x20c0
    aea4:	3a000006 	bcc	aec4 <calc_packet_length+0xa0>
    aea8:	e2840006 	add	r0, r4, #6
    aeac:	e8bd8070 	pop	{r4, r5, r6, pc}
    aeb0:	e59f003c 	ldr	r0, [pc, #60]	; aef4 <calc_packet_length+0xd0>
    aeb4:	e08f0000 	add	r0, pc, r0
    aeb8:	eb001ca9 	bl	12164 <tfp_printf>
    aebc:	e3a00002 	mov	r0, #2
    aec0:	e8bd8070 	pop	{r4, r5, r6, pc}
    aec4:	e2840003 	add	r0, r4, #3
    aec8:	e8bd8070 	pop	{r4, r5, r6, pc}
    aecc:	e35400ff 	cmp	r4, #255	; 0xff
    aed0:	9a000003 	bls	aee4 <calc_packet_length+0xc0>
    aed4:	e3540801 	cmp	r4, #65536	; 0x10000
    aed8:	3afffff9 	bcc	aec4 <calc_packet_length+0xa0>
    aedc:	e2840005 	add	r0, r4, #5
    aee0:	e8bd8070 	pop	{r4, r5, r6, pc}
    aee4:	e2840002 	add	r0, r4, #2
    aee8:	e8bd8070 	pop	{r4, r5, r6, pc}
    aeec:	0000bd04 	.word	0x0000bd04
    aef0:	0000bca0 	.word	0x0000bca0
    aef4:	0000bc68 	.word	0x0000bc68

0000aef8 <log_hexdump>:
    aef8:	e92d4ff0 	push	{r4, r5, r6, r7, r8, r9, sl, fp, lr}
    aefc:	e1a06000 	mov	r6, r0
    af00:	e59f013c 	ldr	r0, [pc, #316]	; b044 <log_hexdump+0x14c>
    af04:	e1a07001 	mov	r7, r1
    af08:	e24dd02c 	sub	sp, sp, #44	; 0x2c
    af0c:	e08f0000 	add	r0, pc, r0
    af10:	eb001c93 	bl	12164 <tfp_printf>
    af14:	e3570000 	cmp	r7, #0
    af18:	da000041 	ble	b024 <log_hexdump+0x12c>
    af1c:	e59f3124 	ldr	r3, [pc, #292]	; b048 <log_hexdump+0x150>
    af20:	e3a0a000 	mov	sl, #0
    af24:	e59f9120 	ldr	r9, [pc, #288]	; b04c <log_hexdump+0x154>
    af28:	e59f8120 	ldr	r8, [pc, #288]	; b050 <log_hexdump+0x158>
    af2c:	e59f5120 	ldr	r5, [pc, #288]	; b054 <log_hexdump+0x15c>
    af30:	e08f3003 	add	r3, pc, r3
    af34:	e58d3004 	str	r3, [sp, #4]
    af38:	e28d3013 	add	r3, sp, #19
    af3c:	e08f9009 	add	r9, pc, r9
    af40:	e08f8008 	add	r8, pc, r8
    af44:	e08f5005 	add	r5, pc, r5
    af48:	e58d3008 	str	r3, [sp, #8]
    af4c:	e28d3014 	add	r3, sp, #20
    af50:	e58d300c 	str	r3, [sp, #12]
    af54:	e59d0004 	ldr	r0, [sp, #4]
    af58:	e3570010 	cmp	r7, #16
    af5c:	e1a0100a 	mov	r1, sl
    af60:	e3a0b000 	mov	fp, #0
    af64:	b1a04007 	movlt	r4, r7
    af68:	a3a04010 	movge	r4, #16
    af6c:	eb001c7c 	bl	12164 <tfp_printf>
    af70:	ea000006 	b	af90 <log_hexdump+0x98>
    af74:	e59f00dc 	ldr	r0, [pc, #220]	; b058 <log_hexdump+0x160>
    af78:	e7d6100b 	ldrb	r1, [r6, fp]
    af7c:	e28bb001 	add	fp, fp, #1
    af80:	e08f0000 	add	r0, pc, r0
    af84:	eb001c76 	bl	12164 <tfp_printf>
    af88:	e35b0010 	cmp	fp, #16
    af8c:	0a00000a 	beq	afbc <log_hexdump+0xc4>
    af90:	e31b0001 	tst	fp, #1
    af94:	0a000027 	beq	b038 <log_hexdump+0x140>
    af98:	e31b0007 	tst	fp, #7
    af9c:	0a000022 	beq	b02c <log_hexdump+0x134>
    afa0:	e154000b 	cmp	r4, fp
    afa4:	e1a00005 	mov	r0, r5
    afa8:	cafffff1 	bgt	af74 <log_hexdump+0x7c>
    afac:	e28bb001 	add	fp, fp, #1
    afb0:	eb001c6b 	bl	12164 <tfp_printf>
    afb4:	e35b0010 	cmp	fp, #16
    afb8:	1afffff4 	bne	af90 <log_hexdump+0x98>
    afbc:	e59f0098 	ldr	r0, [pc, #152]	; b05c <log_hexdump+0x164>
    afc0:	e08f0000 	add	r0, pc, r0
    afc4:	eb001c66 	bl	12164 <tfp_printf>
    afc8:	e59d1008 	ldr	r1, [sp, #8]
    afcc:	e2462001 	sub	r2, r6, #1
    afd0:	e082c004 	add	ip, r2, r4
    afd4:	e5f23001 	ldrb	r3, [r2, #1]!
    afd8:	e2430020 	sub	r0, r3, #32
    afdc:	e350005e 	cmp	r0, #94	; 0x5e
    afe0:	83a0302e 	movhi	r3, #46	; 0x2e
    afe4:	e152000c 	cmp	r2, ip
    afe8:	e5e13001 	strb	r3, [r1, #1]!
    afec:	1afffff8 	bne	afd4 <log_hexdump+0xdc>
    aff0:	e59f0068 	ldr	r0, [pc, #104]	; b060 <log_hexdump+0x168>
    aff4:	e2843028 	add	r3, r4, #40	; 0x28
    aff8:	e08d3003 	add	r3, sp, r3
    affc:	e3a02000 	mov	r2, #0
    b000:	e08f0000 	add	r0, pc, r0
    b004:	e59d100c 	ldr	r1, [sp, #12]
    b008:	e0477004 	sub	r7, r7, r4
    b00c:	e5432014 	strb	r2, [r3, #-20]	; 0xffffffec
    b010:	e0866004 	add	r6, r6, r4
    b014:	eb001c52 	bl	12164 <tfp_printf>
    b018:	e08aa004 	add	sl, sl, r4
    b01c:	e3570000 	cmp	r7, #0
    b020:	caffffcb 	bgt	af54 <log_hexdump+0x5c>
    b024:	e28dd02c 	add	sp, sp, #44	; 0x2c
    b028:	e8bd8ff0 	pop	{r4, r5, r6, r7, r8, r9, sl, fp, pc}
    b02c:	e1a00008 	mov	r0, r8
    b030:	eb001c4b 	bl	12164 <tfp_printf>
    b034:	eaffffd9 	b	afa0 <log_hexdump+0xa8>
    b038:	e1a00009 	mov	r0, r9
    b03c:	eb001c48 	bl	12164 <tfp_printf>
    b040:	eaffffd4 	b	af98 <log_hexdump+0xa0>
    b044:	0000bc5c 	.word	0x0000bc5c
    b048:	0000bc44 	.word	0x0000bc44
    b04c:	0000c494 	.word	0x0000c494
    b050:	0000c490 	.word	0x0000c490
    b054:	0000bc40 	.word	0x0000bc40
    b058:	0000bbfc 	.word	0x0000bbfc
    b05c:	0000bbc4 	.word	0x0000bbc4
    b060:	0000cbd4 	.word	0x0000cbd4

0000b064 <write_header2.constprop.0.isra.0>:
    b064:	e92d40f0 	push	{r4, r5, r6, r7, lr}
    b068:	e1a07000 	mov	r7, r0
    b06c:	e59f0260 	ldr	r0, [pc, #608]	; b2d4 <write_header2.constprop.0.isra.0+0x270>
    b070:	e24dd00c 	sub	sp, sp, #12
    b074:	e5d73000 	ldrb	r3, [r7]
    b078:	e1a05002 	mov	r5, r2
    b07c:	e08f0000 	add	r0, pc, r0
    b080:	e2016040 	and	r6, r1, #64	; 0x40
    b084:	e58d3000 	str	r3, [sp]
    b088:	e3a02000 	mov	r2, #0
    b08c:	e1a03001 	mov	r3, r1
    b090:	e1a04001 	mov	r4, r1
    b094:	e1a01005 	mov	r1, r5
    b098:	eb001c31 	bl	12164 <tfp_printf>
    b09c:	e59f0234 	ldr	r0, [pc, #564]	; b2d8 <write_header2.constprop.0.isra.0+0x274>
    b0a0:	e1a01006 	mov	r1, r6
    b0a4:	e08f0000 	add	r0, pc, r0
    b0a8:	eb001c2d 	bl	12164 <tfp_printf>
    b0ac:	e3560000 	cmp	r6, #0
    b0b0:	1a00002b 	bne	b164 <write_header2.constprop.0.isra.0+0x100>
    b0b4:	e59f0220 	ldr	r0, [pc, #544]	; b2dc <write_header2.constprop.0.isra.0+0x278>
    b0b8:	e1a01005 	mov	r1, r5
    b0bc:	e08f0000 	add	r0, pc, r0
    b0c0:	eb001c27 	bl	12164 <tfp_printf>
    b0c4:	e3550000 	cmp	r5, #0
    b0c8:	1a00000f 	bne	b10c <write_header2.constprop.0.isra.0+0xa8>
    b0cc:	e3844003 	orr	r4, r4, #3
    b0d0:	e1a00007 	mov	r0, r7
    b0d4:	e1a01004 	mov	r1, r4
    b0d8:	ebfff9ee 	bl	9898 <iobuf_writebyte>
    b0dc:	e3500000 	cmp	r0, #0
    b0e0:	1a00006d 	bne	b29c <write_header2.constprop.0.isra.0+0x238>
    b0e4:	e59f01f4 	ldr	r0, [pc, #500]	; b2e0 <write_header2.constprop.0.isra.0+0x27c>
    b0e8:	e1a01004 	mov	r1, r4
    b0ec:	e1a02005 	mov	r2, r5
    b0f0:	e08f0000 	add	r0, pc, r0
    b0f4:	eb001c1a 	bl	12164 <tfp_printf>
    b0f8:	e597101c 	ldr	r1, [r7, #28]
    b0fc:	e5970020 	ldr	r0, [r7, #32]
    b100:	e28dd00c 	add	sp, sp, #12
    b104:	e8bd40f0 	pop	{r4, r5, r6, r7, lr}
    b108:	eaffff7a 	b	aef8 <log_hexdump>
    b10c:	e35500ff 	cmp	r5, #255	; 0xff
    b110:	8a000045 	bhi	b22c <write_header2.constprop.0.isra.0+0x1c8>
    b114:	e1a01004 	mov	r1, r4
    b118:	e1a00007 	mov	r0, r7
    b11c:	ebfff9dd 	bl	9898 <iobuf_writebyte>
    b120:	e3500000 	cmp	r0, #0
    b124:	1a00005c 	bne	b29c <write_header2.constprop.0.isra.0+0x238>
    b128:	e3140002 	tst	r4, #2
    b12c:	1a000047 	bne	b250 <write_header2.constprop.0.isra.0+0x1ec>
    b130:	e3140003 	tst	r4, #3
    b134:	0a000004 	beq	b14c <write_header2.constprop.0.isra.0+0xe8>
    b138:	e1a01425 	lsr	r1, r5, #8
    b13c:	e1a00007 	mov	r0, r7
    b140:	ebfff9d4 	bl	9898 <iobuf_writebyte>
    b144:	e3500000 	cmp	r0, #0
    b148:	1a00005f 	bne	b2cc <write_header2.constprop.0.isra.0+0x268>
    b14c:	e1a01005 	mov	r1, r5
    b150:	e1a00007 	mov	r0, r7
    b154:	ebfff9cf 	bl	9898 <iobuf_writebyte>
    b158:	e3500000 	cmp	r0, #0
    b15c:	0affffe0 	beq	b0e4 <write_header2.constprop.0.isra.0+0x80>
    b160:	ea000059 	b	b2cc <write_header2.constprop.0.isra.0+0x268>
    b164:	e59f0178 	ldr	r0, [pc, #376]	; b2e4 <write_header2.constprop.0.isra.0+0x280>
    b168:	e08f0000 	add	r0, pc, r0
    b16c:	eb001bfc 	bl	12164 <tfp_printf>
    b170:	e59f0170 	ldr	r0, [pc, #368]	; b2e8 <write_header2.constprop.0.isra.0+0x284>
    b174:	e3a03000 	mov	r3, #0
    b178:	e1a02005 	mov	r2, r5
    b17c:	e1a01004 	mov	r1, r4
    b180:	e08f0000 	add	r0, pc, r0
    b184:	eb001bf6 	bl	12164 <tfp_printf>
    b188:	e1a01004 	mov	r1, r4
    b18c:	e1a00007 	mov	r0, r7
    b190:	ebfff9c0 	bl	9898 <iobuf_writebyte>
    b194:	e3500000 	cmp	r0, #0
    b198:	1a00004b 	bne	b2cc <write_header2.constprop.0.isra.0+0x268>
    b19c:	e3550000 	cmp	r5, #0
    b1a0:	0a000035 	beq	b27c <write_header2.constprop.0.isra.0+0x218>
    b1a4:	e59f0140 	ldr	r0, [pc, #320]	; b2ec <write_header2.constprop.0.isra.0+0x288>
    b1a8:	e1a01005 	mov	r1, r5
    b1ac:	e08f0000 	add	r0, pc, r0
    b1b0:	eb001beb 	bl	12164 <tfp_printf>
    b1b4:	e35500bf 	cmp	r5, #191	; 0xbf
    b1b8:	91a01005 	movls	r1, r5
    b1bc:	9a000016 	bls	b21c <write_header2.constprop.0.isra.0+0x1b8>
    b1c0:	e3550d83 	cmp	r5, #8384	; 0x20c0
    b1c4:	3a000039 	bcc	b2b0 <write_header2.constprop.0.isra.0+0x24c>
    b1c8:	e3a010ff 	mov	r1, #255	; 0xff
    b1cc:	e1a00007 	mov	r0, r7
    b1d0:	ebfff9b0 	bl	9898 <iobuf_writebyte>
    b1d4:	e3500000 	cmp	r0, #0
    b1d8:	1a00003b 	bne	b2cc <write_header2.constprop.0.isra.0+0x268>
    b1dc:	e1a01c25 	lsr	r1, r5, #24
    b1e0:	e1a00007 	mov	r0, r7
    b1e4:	ebfff9ab 	bl	9898 <iobuf_writebyte>
    b1e8:	e3500000 	cmp	r0, #0
    b1ec:	1a000036 	bne	b2cc <write_header2.constprop.0.isra.0+0x268>
    b1f0:	e7e71855 	ubfx	r1, r5, #16, #8
    b1f4:	e1a00007 	mov	r0, r7
    b1f8:	ebfff9a6 	bl	9898 <iobuf_writebyte>
    b1fc:	e3500000 	cmp	r0, #0
    b200:	1a000031 	bne	b2cc <write_header2.constprop.0.isra.0+0x268>
    b204:	e7e71455 	ubfx	r1, r5, #8, #8
    b208:	e1a00007 	mov	r0, r7
    b20c:	ebfff9a1 	bl	9898 <iobuf_writebyte>
    b210:	e3500000 	cmp	r0, #0
    b214:	1a00002c 	bne	b2cc <write_header2.constprop.0.isra.0+0x268>
    b218:	e6ef1075 	uxtb	r1, r5
    b21c:	e1a00007 	mov	r0, r7
    b220:	e28dd00c 	add	sp, sp, #12
    b224:	e8bd40f0 	pop	{r4, r5, r6, r7, lr}
    b228:	eafff99a 	b	9898 <iobuf_writebyte>
    b22c:	e3550801 	cmp	r5, #65536	; 0x10000
    b230:	33844001 	orrcc	r4, r4, #1
    b234:	3affffb6 	bcc	b114 <write_header2.constprop.0.isra.0+0xb0>
    b238:	e3844002 	orr	r4, r4, #2
    b23c:	e1a00007 	mov	r0, r7
    b240:	e1a01004 	mov	r1, r4
    b244:	ebfff993 	bl	9898 <iobuf_writebyte>
    b248:	e3500000 	cmp	r0, #0
    b24c:	1a000012 	bne	b29c <write_header2.constprop.0.isra.0+0x238>
    b250:	e1a01c25 	lsr	r1, r5, #24
    b254:	e1a00007 	mov	r0, r7
    b258:	ebfff98e 	bl	9898 <iobuf_writebyte>
    b25c:	e3500000 	cmp	r0, #0
    b260:	1a000019 	bne	b2cc <write_header2.constprop.0.isra.0+0x268>
    b264:	e1a01825 	lsr	r1, r5, #16
    b268:	e1a00007 	mov	r0, r7
    b26c:	ebfff989 	bl	9898 <iobuf_writebyte>
    b270:	e3500000 	cmp	r0, #0
    b274:	0affffad 	beq	b130 <write_header2.constprop.0.isra.0+0xcc>
    b278:	ea000013 	b	b2cc <write_header2.constprop.0.isra.0+0x268>
    b27c:	e59f006c 	ldr	r0, [pc, #108]	; b2f0 <write_header2.constprop.0.isra.0+0x28c>
    b280:	e08f0000 	add	r0, pc, r0
    b284:	eb001bb6 	bl	12164 <tfp_printf>
    b288:	e3a01c02 	mov	r1, #512	; 0x200
    b28c:	e1a00007 	mov	r0, r7
    b290:	e28dd00c 	add	sp, sp, #12
    b294:	e8bd40f0 	pop	{r4, r5, r6, r7, lr}
    b298:	eafffd4b 	b	a7cc <iobuf_set_partial_body_length_mode>
    b29c:	e59f0050 	ldr	r0, [pc, #80]	; b2f4 <write_header2.constprop.0.isra.0+0x290>
    b2a0:	e08f0000 	add	r0, pc, r0
    b2a4:	e28dd00c 	add	sp, sp, #12
    b2a8:	e8bd40f0 	pop	{r4, r5, r6, r7, lr}
    b2ac:	ea001bac 	b	12164 <tfp_printf>
    b2b0:	e24550c0 	sub	r5, r5, #192	; 0xc0
    b2b4:	e1a00007 	mov	r0, r7
    b2b8:	e1a01425 	lsr	r1, r5, #8
    b2bc:	e28110c0 	add	r1, r1, #192	; 0xc0
    b2c0:	ebfff974 	bl	9898 <iobuf_writebyte>
    b2c4:	e3500000 	cmp	r0, #0
    b2c8:	0affffd2 	beq	b218 <write_header2.constprop.0.isra.0+0x1b4>
    b2cc:	e28dd00c 	add	sp, sp, #12
    b2d0:	e8bd80f0 	pop	{r4, r5, r6, r7, pc}
    b2d4:	0000bb0c 	.word	0x0000bb0c
    b2d8:	0000bb04 	.word	0x0000bb04
    b2dc:	0000bb84 	.word	0x0000bb84
    b2e0:	0000bb34 	.word	0x0000bb34
    b2e4:	0000ba54 	.word	0x0000ba54
    b2e8:	0000ba50 	.word	0x0000ba50
    b2ec:	0000ba94 	.word	0x0000ba94
    b2f0:	0000b970 	.word	0x0000b970
    b2f4:	0000b974 	.word	0x0000b974

0000b2f8 <build_packet>:
    b2f8:	e92d41f0 	push	{r4, r5, r6, r7, r8, lr}
    b2fc:	e1a05000 	mov	r5, r0
    b300:	e5d10000 	ldrb	r0, [r1]
    b304:	e1a06001 	mov	r6, r1
    b308:	ebfffeaf 	bl	adcc <get_pkttype_name>
    b30c:	e5d52000 	ldrb	r2, [r5]
    b310:	e1a01000 	mov	r1, r0
    b314:	e59f04b8 	ldr	r0, [pc, #1208]	; b7d4 <build_packet+0x4dc>
    b318:	e08f0000 	add	r0, pc, r0
    b31c:	eb001b90 	bl	12164 <tfp_printf>
    b320:	e5d64000 	ldrb	r4, [r6]
    b324:	e3540009 	cmp	r4, #9
    b328:	0a000002 	beq	b338 <build_packet+0x40>
    b32c:	e354000b 	cmp	r4, #11
    b330:	13a03000 	movne	r3, #0
    b334:	1a000003 	bne	b348 <build_packet+0x50>
    b338:	e5963004 	ldr	r3, [r6, #4]
    b33c:	e5d33008 	ldrb	r3, [r3, #8]
    b340:	e2533000 	subs	r3, r3, #0
    b344:	13a03001 	movne	r3, #1
    b348:	e354000f 	cmp	r4, #15
    b34c:	c3833001 	orrgt	r3, r3, #1
    b350:	e1a02004 	mov	r2, r4
    b354:	e59f047c 	ldr	r0, [pc, #1148]	; b7d8 <build_packet+0x4e0>
    b358:	e3530000 	cmp	r3, #0
    b35c:	01a07104 	lsleq	r7, r4, #2
    b360:	138470c0 	orrne	r7, r4, #192	; 0xc0
    b364:	e08f0000 	add	r0, pc, r0
    b368:	03877080 	orreq	r7, r7, #128	; 0x80
    b36c:	e1a01007 	mov	r1, r7
    b370:	eb001b7b 	bl	12164 <tfp_printf>
    b374:	e3540009 	cmp	r4, #9
    b378:	0a000009 	beq	b3a4 <build_packet+0xac>
    b37c:	e354000b 	cmp	r4, #11
    b380:	0a00006f 	beq	b544 <build_packet+0x24c>
    b384:	e3540003 	cmp	r4, #3
    b388:	0a000010 	beq	b3d0 <build_packet+0xd8>
    b38c:	e59f0448 	ldr	r0, [pc, #1096]	; b7dc <build_packet+0x4e4>
    b390:	e3a06000 	mov	r6, #0
    b394:	e08f0000 	add	r0, pc, r0
    b398:	eb001b71 	bl	12164 <tfp_printf>
    b39c:	e1a00006 	mov	r0, r6
    b3a0:	e8bd81f0 	pop	{r4, r5, r6, r7, r8, pc}
    b3a4:	e5963004 	ldr	r3, [r6, #4]
    b3a8:	e1a00005 	mov	r0, r5
    b3ac:	e1a01007 	mov	r1, r7
    b3b0:	e3a06000 	mov	r6, #0
    b3b4:	e5932000 	ldr	r2, [r3]
    b3b8:	e3520000 	cmp	r2, #0
    b3bc:	15933004 	ldrne	r3, [r3, #4]
    b3c0:	10822003 	addne	r2, r2, r3
    b3c4:	ebffff26 	bl	b064 <write_header2.constprop.0.isra.0>
    b3c8:	e1a00006 	mov	r0, r6
    b3cc:	e8bd81f0 	pop	{r4, r5, r6, r7, r8, pc}
    b3d0:	e59f0408 	ldr	r0, [pc, #1032]	; b7e0 <build_packet+0x4e8>
    b3d4:	e5d51000 	ldrb	r1, [r5]
    b3d8:	e08f0000 	add	r0, pc, r0
    b3dc:	e5964004 	ldr	r4, [r6, #4]
    b3e0:	eb001b5f 	bl	12164 <tfp_printf>
    b3e4:	e59f03f8 	ldr	r0, [pc, #1016]	; b7e4 <build_packet+0x4ec>
    b3e8:	e2846009 	add	r6, r4, #9
    b3ec:	e08f0000 	add	r0, pc, r0
    b3f0:	eb001b5b 	bl	12164 <tfp_printf>
    b3f4:	e59f03ec 	ldr	r0, [pc, #1004]	; b7e8 <build_packet+0x4f0>
    b3f8:	e5d41000 	ldrb	r1, [r4]
    b3fc:	e08f0000 	add	r0, pc, r0
    b400:	eb001b57 	bl	12164 <tfp_printf>
    b404:	e59f03e0 	ldr	r0, [pc, #992]	; b7ec <build_packet+0x4f4>
    b408:	e5d41001 	ldrb	r1, [r4, #1]
    b40c:	e08f0000 	add	r0, pc, r0
    b410:	eb001b53 	bl	12164 <tfp_printf>
    b414:	e59f03d4 	ldr	r0, [pc, #980]	; b7f0 <build_packet+0x4f8>
    b418:	e5d41002 	ldrb	r1, [r4, #2]
    b41c:	e08f0000 	add	r0, pc, r0
    b420:	eb001b4f 	bl	12164 <tfp_printf>
    b424:	e59f03c8 	ldr	r0, [pc, #968]	; b7f4 <build_packet+0x4fc>
    b428:	e08f0000 	add	r0, pc, r0
    b42c:	eb001b4c 	bl	12164 <tfp_printf>
    b430:	e59f03c0 	ldr	r0, [pc, #960]	; b7f8 <build_packet+0x500>
    b434:	e5941004 	ldr	r1, [r4, #4]
    b438:	e08f0000 	add	r0, pc, r0
    b43c:	eb001b48 	bl	12164 <tfp_printf>
    b440:	e59f03b4 	ldr	r0, [pc, #948]	; b7fc <build_packet+0x504>
    b444:	e5d41008 	ldrb	r1, [r4, #8]
    b448:	e08f0000 	add	r0, pc, r0
    b44c:	eb001b44 	bl	12164 <tfp_printf>
    b450:	e59f03a8 	ldr	r0, [pc, #936]	; b800 <build_packet+0x508>
    b454:	e08f0000 	add	r0, pc, r0
    b458:	eb001b41 	bl	12164 <tfp_printf>
    b45c:	e3a01008 	mov	r1, #8
    b460:	e1a00006 	mov	r0, r6
    b464:	ebfffea3 	bl	aef8 <log_hexdump>
    b468:	e59f0394 	ldr	r0, [pc, #916]	; b804 <build_packet+0x50c>
    b46c:	e5941014 	ldr	r1, [r4, #20]
    b470:	e08f0000 	add	r0, pc, r0
    b474:	eb001b3a 	bl	12164 <tfp_printf>
    b478:	e59f0388 	ldr	r0, [pc, #904]	; b808 <build_packet+0x510>
    b47c:	e5d41018 	ldrb	r1, [r4, #24]
    b480:	e08f0000 	add	r0, pc, r0
    b484:	eb001b36 	bl	12164 <tfp_printf>
    b488:	ebfff510 	bl	88d0 <iobuf_temp>
    b48c:	e5941004 	ldr	r1, [r4, #4]
    b490:	e1a08000 	mov	r8, r0
    b494:	e3510001 	cmp	r1, #1
    b498:	ca000026 	bgt	b538 <build_packet+0x240>
    b49c:	e3510000 	cmp	r1, #0
    b4a0:	aa000002 	bge	b4b0 <build_packet+0x1b8>
    b4a4:	e59f0360 	ldr	r0, [pc, #864]	; b80c <build_packet+0x514>
    b4a8:	e08f0000 	add	r0, pc, r0
    b4ac:	eb001b2c 	bl	12164 <tfp_printf>
    b4b0:	e5d41000 	ldrb	r1, [r4]
    b4b4:	e1a00008 	mov	r0, r8
    b4b8:	ebfff8f6 	bl	9898 <iobuf_writebyte>
    b4bc:	e5d41001 	ldrb	r1, [r4, #1]
    b4c0:	e1a00008 	mov	r0, r8
    b4c4:	ebfff8f3 	bl	9898 <iobuf_writebyte>
    b4c8:	e5d43000 	ldrb	r3, [r4]
    b4cc:	e3530005 	cmp	r3, #5
    b4d0:	0a0000bb 	beq	b7c4 <build_packet+0x4cc>
    b4d4:	e5941004 	ldr	r1, [r4, #4]
    b4d8:	e1a00008 	mov	r0, r8
    b4dc:	ebfff8ed 	bl	9898 <iobuf_writebyte>
    b4e0:	e5d41008 	ldrb	r1, [r4, #8]
    b4e4:	e1a00008 	mov	r0, r8
    b4e8:	ebfff8ea 	bl	9898 <iobuf_writebyte>
    b4ec:	e5943004 	ldr	r3, [r4, #4]
    b4f0:	e3c33002 	bic	r3, r3, #2
    b4f4:	e3530001 	cmp	r3, #1
    b4f8:	0a0000a6 	beq	b798 <build_packet+0x4a0>
    b4fc:	e5d42018 	ldrb	r2, [r4, #24]
    b500:	e3520000 	cmp	r2, #0
    b504:	1a00009f 	bne	b788 <build_packet+0x490>
    b508:	e598201c 	ldr	r2, [r8, #28]
    b50c:	e1a01007 	mov	r1, r7
    b510:	e1a00005 	mov	r0, r5
    b514:	ebfffed2 	bl	b064 <write_header2.constprop.0.isra.0>
    b518:	e1a01008 	mov	r1, r8
    b51c:	e1a00005 	mov	r0, r5
    b520:	ebfffbd8 	bl	a488 <iobuf_write_temp>
    b524:	e1a06000 	mov	r6, r0
    b528:	e1a00008 	mov	r0, r8
    b52c:	ebfff491 	bl	8778 <iobuf_close>
    b530:	e1a00006 	mov	r0, r6
    b534:	e8bd81f0 	pop	{r4, r5, r6, r7, r8, pc}
    b538:	e3510003 	cmp	r1, #3
    b53c:	0affffdb 	beq	b4b0 <build_packet+0x1b8>
    b540:	eaffffd7 	b	b4a4 <build_packet+0x1ac>
    b544:	e5964004 	ldr	r4, [r6, #4]
    b548:	e59f02c0 	ldr	r0, [pc, #704]	; b810 <build_packet+0x518>
    b54c:	e5941004 	ldr	r1, [r4, #4]
    b550:	e08f0000 	add	r0, pc, r0
    b554:	eb001b02 	bl	12164 <tfp_printf>
    b558:	e59f02b4 	ldr	r0, [pc, #692]	; b814 <build_packet+0x51c>
    b55c:	e08f0000 	add	r0, pc, r0
    b560:	eb001aff 	bl	12164 <tfp_printf>
    b564:	e59f02ac 	ldr	r0, [pc, #684]	; b818 <build_packet+0x520>
    b568:	e08f0000 	add	r0, pc, r0
    b56c:	eb001afc 	bl	12164 <tfp_printf>
    b570:	e5943014 	ldr	r3, [r4, #20]
    b574:	e5946000 	ldr	r6, [r4]
    b578:	e59f029c 	ldr	r0, [pc, #668]	; b81c <build_packet+0x524>
    b57c:	e35300ff 	cmp	r3, #255	; 0xff
    b580:	c3a030ff 	movgt	r3, #255	; 0xff
    b584:	c5843014 	strgt	r3, [r4, #20]
    b588:	e3560000 	cmp	r6, #0
    b58c:	e08f0000 	add	r0, pc, r0
    b590:	12866006 	addne	r6, r6, #6
    b594:	15943014 	ldrne	r3, [r4, #20]
    b598:	10866003 	addne	r6, r6, r3
    b59c:	e1a01006 	mov	r1, r6
    b5a0:	eb001aef 	bl	12164 <tfp_printf>
    b5a4:	e1a02006 	mov	r2, r6
    b5a8:	e1a01007 	mov	r1, r7
    b5ac:	e1a00005 	mov	r0, r5
    b5b0:	e2846018 	add	r6, r4, #24
    b5b4:	ebfffeaa 	bl	b064 <write_header2.constprop.0.isra.0>
    b5b8:	e59f0260 	ldr	r0, [pc, #608]	; b820 <build_packet+0x528>
    b5bc:	e1a01007 	mov	r1, r7
    b5c0:	e08f0000 	add	r0, pc, r0
    b5c4:	eb001ae6 	bl	12164 <tfp_printf>
    b5c8:	e59f0254 	ldr	r0, [pc, #596]	; b824 <build_packet+0x52c>
    b5cc:	e594100c 	ldr	r1, [r4, #12]
    b5d0:	e08f0000 	add	r0, pc, r0
    b5d4:	eb001ae2 	bl	12164 <tfp_printf>
    b5d8:	e59f0248 	ldr	r0, [pc, #584]	; b828 <build_packet+0x530>
    b5dc:	e594100c 	ldr	r1, [r4, #12]
    b5e0:	e08f0000 	add	r0, pc, r0
    b5e4:	eb001ade 	bl	12164 <tfp_printf>
    b5e8:	e594100c 	ldr	r1, [r4, #12]
    b5ec:	e1a00005 	mov	r0, r5
    b5f0:	ebfff8a8 	bl	9898 <iobuf_writebyte>
    b5f4:	e59f0230 	ldr	r0, [pc, #560]	; b82c <build_packet+0x534>
    b5f8:	e5941014 	ldr	r1, [r4, #20]
    b5fc:	e08f0000 	add	r0, pc, r0
    b600:	eb001ad7 	bl	12164 <tfp_printf>
    b604:	e5941014 	ldr	r1, [r4, #20]
    b608:	e1a00005 	mov	r0, r5
    b60c:	ebfff8a1 	bl	9898 <iobuf_writebyte>
    b610:	e59f0218 	ldr	r0, [pc, #536]	; b830 <build_packet+0x538>
    b614:	e1a02006 	mov	r2, r6
    b618:	e5941014 	ldr	r1, [r4, #20]
    b61c:	e08f0000 	add	r0, pc, r0
    b620:	eb001acf 	bl	12164 <tfp_printf>
    b624:	e5942014 	ldr	r2, [r4, #20]
    b628:	e1a01006 	mov	r1, r6
    b62c:	e1a00005 	mov	r0, r5
    b630:	ebfff8c3 	bl	9944 <iobuf_write>
    b634:	e59f01f8 	ldr	r0, [pc, #504]	; b834 <build_packet+0x53c>
    b638:	e3a01a03 	mov	r1, #12288	; 0x3000
    b63c:	e34610d8 	movt	r1, #24792	; 0x60d8
    b640:	e08f0000 	add	r0, pc, r0
    b644:	e5841010 	str	r1, [r4, #16]
    b648:	eb001ac5 	bl	12164 <tfp_printf>
    b64c:	e5946010 	ldr	r6, [r4, #16]
    b650:	e59f01e0 	ldr	r0, [pc, #480]	; b838 <build_packet+0x540>
    b654:	e1a01006 	mov	r1, r6
    b658:	e08f0000 	add	r0, pc, r0
    b65c:	eb001ac0 	bl	12164 <tfp_printf>
    b660:	e1a01c26 	lsr	r1, r6, #24
    b664:	e1a00005 	mov	r0, r5
    b668:	ebfff88a 	bl	9898 <iobuf_writebyte>
    b66c:	e1a01826 	lsr	r1, r6, #16
    b670:	e1a00005 	mov	r0, r5
    b674:	ebfff887 	bl	9898 <iobuf_writebyte>
    b678:	e1a01426 	lsr	r1, r6, #8
    b67c:	e1a00005 	mov	r0, r5
    b680:	ebfff884 	bl	9898 <iobuf_writebyte>
    b684:	e1a01006 	mov	r1, r6
    b688:	e1a00005 	mov	r0, r5
    b68c:	ebfff881 	bl	9898 <iobuf_writebyte>
    b690:	e1a06000 	mov	r6, r0
    b694:	e59f01a0 	ldr	r0, [pc, #416]	; b83c <build_packet+0x544>
    b698:	e1a01006 	mov	r1, r6
    b69c:	e08f0000 	add	r0, pc, r0
    b6a0:	eb001aaf 	bl	12164 <tfp_printf>
    b6a4:	e5943004 	ldr	r3, [r4, #4]
    b6a8:	e59f0190 	ldr	r0, [pc, #400]	; b840 <build_packet+0x548>
    b6ac:	e5931008 	ldr	r1, [r3, #8]
    b6b0:	e08f0000 	add	r0, pc, r0
    b6b4:	eb001aaa 	bl	12164 <tfp_printf>
    b6b8:	e3560000 	cmp	r6, #0
    b6bc:	1affff36 	bne	b39c <build_packet+0xa4>
    b6c0:	e5941004 	ldr	r1, [r4, #4]
    b6c4:	e3510000 	cmp	r1, #0
    b6c8:	0a000028 	beq	b770 <build_packet+0x478>
    b6cc:	e1a00005 	mov	r0, r5
    b6d0:	ebfffb2d 	bl	a38c <iobuf_copy>
    b6d4:	e1a08000 	mov	r8, r0
    b6d8:	e59f0164 	ldr	r0, [pc, #356]	; b844 <build_packet+0x54c>
    b6dc:	e1a01008 	mov	r1, r8
    b6e0:	e08f0000 	add	r0, pc, r0
    b6e4:	eb001a9e 	bl	12164 <tfp_printf>
    b6e8:	e5956028 	ldr	r6, [r5, #40]	; 0x28
    b6ec:	e3780001 	cmn	r8, #1
    b6f0:	1a000005 	bne	b70c <build_packet+0x414>
    b6f4:	e3560000 	cmp	r6, #0
    b6f8:	1affff27 	bne	b39c <build_packet+0xa4>
    b6fc:	e5943004 	ldr	r3, [r4, #4]
    b700:	e5936028 	ldr	r6, [r3, #40]	; 0x28
    b704:	e3560000 	cmp	r6, #0
    b708:	1affff23 	bne	b39c <build_packet+0xa4>
    b70c:	e59f0134 	ldr	r0, [pc, #308]	; b848 <build_packet+0x550>
    b710:	e2077040 	and	r7, r7, #64	; 0x40
    b714:	e1a01007 	mov	r1, r7
    b718:	e08f0000 	add	r0, pc, r0
    b71c:	eb001a90 	bl	12164 <tfp_printf>
    b720:	e5941000 	ldr	r1, [r4]
    b724:	e3570000 	cmp	r7, #0
    b728:	0a000007 	beq	b74c <build_packet+0x454>
    b72c:	e3510000 	cmp	r1, #0
    b730:	1a000005 	bne	b74c <build_packet+0x454>
    b734:	e1a00005 	mov	r0, r5
    b738:	ebfffc23 	bl	a7cc <iobuf_set_partial_body_length_mode>
    b73c:	e59f0108 	ldr	r0, [pc, #264]	; b84c <build_packet+0x554>
    b740:	e08f0000 	add	r0, pc, r0
    b744:	eb001a86 	bl	12164 <tfp_printf>
    b748:	e5941000 	ldr	r1, [r4]
    b74c:	e3510000 	cmp	r1, #0
    b750:	11580001 	cmpne	r8, r1
    b754:	13a01001 	movne	r1, #1
    b758:	03a01000 	moveq	r1, #0
    b75c:	e3560000 	cmp	r6, #0
    b760:	13a01000 	movne	r1, #0
    b764:	02011001 	andeq	r1, r1, #1
    b768:	e3510000 	cmp	r1, #0
    b76c:	13e06000 	mvnne	r6, #0
    b770:	e59f00d8 	ldr	r0, [pc, #216]	; b850 <build_packet+0x558>
    b774:	e1a01006 	mov	r1, r6
    b778:	e08f0000 	add	r0, pc, r0
    b77c:	eb001a78 	bl	12164 <tfp_printf>
    b780:	e1a00006 	mov	r0, r6
    b784:	e8bd81f0 	pop	{r4, r5, r6, r7, r8, pc}
    b788:	e2841019 	add	r1, r4, #25
    b78c:	e1a00008 	mov	r0, r8
    b790:	ebfff86b 	bl	9944 <iobuf_write>
    b794:	eaffff5b 	b	b508 <build_packet+0x210>
    b798:	e1a01006 	mov	r1, r6
    b79c:	e3a02008 	mov	r2, #8
    b7a0:	e1a00008 	mov	r0, r8
    b7a4:	ebfff866 	bl	9944 <iobuf_write>
    b7a8:	e5943004 	ldr	r3, [r4, #4]
    b7ac:	e3530003 	cmp	r3, #3
    b7b0:	1affff51 	bne	b4fc <build_packet+0x204>
    b7b4:	e5941014 	ldr	r1, [r4, #20]
    b7b8:	e1a00008 	mov	r0, r8
    b7bc:	ebfff835 	bl	9898 <iobuf_writebyte>
    b7c0:	eaffff4d 	b	b4fc <build_packet+0x204>
    b7c4:	e5d41002 	ldrb	r1, [r4, #2]
    b7c8:	e1a00008 	mov	r0, r8
    b7cc:	ebfff831 	bl	9898 <iobuf_writebyte>
    b7d0:	eaffff3f 	b	b4d4 <build_packet+0x1dc>
    b7d4:	0000b930 	.word	0x0000b930
    b7d8:	0000b90c 	.word	0x0000b90c
    b7dc:	0000bb24 	.word	0x0000bb24
    b7e0:	0000b8b0 	.word	0x0000b8b0
    b7e4:	0000b8b8 	.word	0x0000b8b8
    b7e8:	0000b8bc 	.word	0x0000b8bc
    b7ec:	0000b8bc 	.word	0x0000b8bc
    b7f0:	0000b8c0 	.word	0x0000b8c0
    b7f4:	0000b8c8 	.word	0x0000b8c8
    b7f8:	0000b8c0 	.word	0x0000b8c0
    b7fc:	0000b8c0 	.word	0x0000b8c0
    b800:	0000b8c8 	.word	0x0000b8c8
    b804:	0000b8b8 	.word	0x0000b8b8
    b808:	0000b8bc 	.word	0x0000b8bc
    b80c:	0000b8a8 	.word	0x0000b8a8
    b810:	0000b818 	.word	0x0000b818
    b814:	0000b828 	.word	0x0000b828
    b818:	0000b834 	.word	0x0000b834
    b81c:	0000b590 	.word	0x0000b590
    b820:	0000b7ec 	.word	0x0000b7ec
    b824:	0000b7e8 	.word	0x0000b7e8
    b828:	0000b7fc 	.word	0x0000b7fc
    b82c:	0000b7f4 	.word	0x0000b7f4
    b830:	0000b7ec 	.word	0x0000b7ec
    b834:	0000b7dc 	.word	0x0000b7dc
    b838:	0000b7dc 	.word	0x0000b7dc
    b83c:	0000b7a8 	.word	0x0000b7a8
    b840:	0000b79c 	.word	0x0000b79c
    b844:	0000b77c 	.word	0x0000b77c
    b848:	0000b490 	.word	0x0000b490
    b84c:	0000b738 	.word	0x0000b738
    b850:	0000b728 	.word	0x0000b728

0000b854 <print_iobuf_info2>:
    b854:	e92d41f0 	push	{r4, r5, r6, r7, r8, lr}
    b858:	e1a04000 	mov	r4, r0
    b85c:	e59f6118 	ldr	r6, [pc, #280]	; b97c <print_iobuf_info2+0x128>
    b860:	e59f5118 	ldr	r5, [pc, #280]	; b980 <print_iobuf_info2+0x12c>
    b864:	e59f7118 	ldr	r7, [pc, #280]	; b984 <print_iobuf_info2+0x130>
    b868:	e08f6006 	add	r6, pc, r6
    b86c:	e08f5005 	add	r5, pc, r5
    b870:	e08f7007 	add	r7, pc, r7
    b874:	ea000037 	b	b958 <print_iobuf_info2+0x104>
    b878:	e5d41000 	ldrb	r1, [r4]
    b87c:	eb001a38 	bl	12164 <tfp_printf>
    b880:	e5941004 	ldr	r1, [r4, #4]
    b884:	e1a00007 	mov	r0, r7
    b888:	eb001a35 	bl	12164 <tfp_printf>
    b88c:	e59f00f4 	ldr	r0, [pc, #244]	; b988 <print_iobuf_info2+0x134>
    b890:	e5941008 	ldr	r1, [r4, #8]
    b894:	e08f0000 	add	r0, pc, r0
    b898:	eb001a31 	bl	12164 <tfp_printf>
    b89c:	e59f00e8 	ldr	r0, [pc, #232]	; b98c <print_iobuf_info2+0x138>
    b8a0:	e594100c 	ldr	r1, [r4, #12]
    b8a4:	e08f0000 	add	r0, pc, r0
    b8a8:	eb001a2d 	bl	12164 <tfp_printf>
    b8ac:	e59f00dc 	ldr	r0, [pc, #220]	; b990 <print_iobuf_info2+0x13c>
    b8b0:	e5941010 	ldr	r1, [r4, #16]
    b8b4:	e08f0000 	add	r0, pc, r0
    b8b8:	eb001a29 	bl	12164 <tfp_printf>
    b8bc:	e59f00d0 	ldr	r0, [pc, #208]	; b994 <print_iobuf_info2+0x140>
    b8c0:	e5941014 	ldr	r1, [r4, #20]
    b8c4:	e08f0000 	add	r0, pc, r0
    b8c8:	eb001a25 	bl	12164 <tfp_printf>
    b8cc:	e59f00c4 	ldr	r0, [pc, #196]	; b998 <print_iobuf_info2+0x144>
    b8d0:	e5941018 	ldr	r1, [r4, #24]
    b8d4:	e08f0000 	add	r0, pc, r0
    b8d8:	eb001a21 	bl	12164 <tfp_printf>
    b8dc:	e59f00b8 	ldr	r0, [pc, #184]	; b99c <print_iobuf_info2+0x148>
    b8e0:	e594101c 	ldr	r1, [r4, #28]
    b8e4:	e08f0000 	add	r0, pc, r0
    b8e8:	eb001a1d 	bl	12164 <tfp_printf>
    b8ec:	e59f00ac 	ldr	r0, [pc, #172]	; b9a0 <print_iobuf_info2+0x14c>
    b8f0:	e5941024 	ldr	r1, [r4, #36]	; 0x24
    b8f4:	e08f0000 	add	r0, pc, r0
    b8f8:	eb001a19 	bl	12164 <tfp_printf>
    b8fc:	e59f00a0 	ldr	r0, [pc, #160]	; b9a4 <print_iobuf_info2+0x150>
    b900:	e5941028 	ldr	r1, [r4, #40]	; 0x28
    b904:	e08f0000 	add	r0, pc, r0
    b908:	eb001a15 	bl	12164 <tfp_printf>
    b90c:	e59f0094 	ldr	r0, [pc, #148]	; b9a8 <print_iobuf_info2+0x154>
    b910:	e5941034 	ldr	r1, [r4, #52]	; 0x34
    b914:	e08f0000 	add	r0, pc, r0
    b918:	eb001a11 	bl	12164 <tfp_printf>
    b91c:	e59f0088 	ldr	r0, [pc, #136]	; b9ac <print_iobuf_info2+0x158>
    b920:	e5941040 	ldr	r1, [r4, #64]	; 0x40
    b924:	e08f0000 	add	r0, pc, r0
    b928:	eb001a0d 	bl	12164 <tfp_printf>
    b92c:	e59f007c 	ldr	r0, [pc, #124]	; b9b0 <print_iobuf_info2+0x15c>
    b930:	e5941044 	ldr	r1, [r4, #68]	; 0x44
    b934:	e08f0000 	add	r0, pc, r0
    b938:	eb001a09 	bl	12164 <tfp_printf>
    b93c:	e594303c 	ldr	r3, [r4, #60]	; 0x3c
    b940:	e59f006c 	ldr	r0, [pc, #108]	; b9b4 <print_iobuf_info2+0x160>
    b944:	e3530000 	cmp	r3, #0
    b948:	e08f0000 	add	r0, pc, r0
    b94c:	08bd81f0 	popeq	{r4, r5, r6, r7, r8, pc}
    b950:	eb001a03 	bl	12164 <tfp_printf>
    b954:	e594403c 	ldr	r4, [r4, #60]	; 0x3c
    b958:	e1a00006 	mov	r0, r6
    b95c:	eb001a00 	bl	12164 <tfp_printf>
    b960:	e3540000 	cmp	r4, #0
    b964:	e1a00005 	mov	r0, r5
    b968:	1affffc2 	bne	b878 <print_iobuf_info2+0x24>
    b96c:	e59f0044 	ldr	r0, [pc, #68]	; b9b8 <print_iobuf_info2+0x164>
    b970:	e8bd41f0 	pop	{r4, r5, r6, r7, r8, lr}
    b974:	e08f0000 	add	r0, pc, r0
    b978:	ea0019f9 	b	12164 <tfp_printf>
    b97c:	0000b678 	.word	0x0000b678
    b980:	0000b698 	.word	0x0000b698
    b984:	0000b6a0 	.word	0x0000b6a0
    b988:	0000b68c 	.word	0x0000b68c
    b98c:	0000b68c 	.word	0x0000b68c
    b990:	0000b68c 	.word	0x0000b68c
    b994:	0000b68c 	.word	0x0000b68c
    b998:	0000b690 	.word	0x0000b690
    b99c:	0000b698 	.word	0x0000b698
    b9a0:	0000b6a0 	.word	0x0000b6a0
    b9a4:	0000b6a4 	.word	0x0000b6a4
    b9a8:	0000b6a4 	.word	0x0000b6a4
    b9ac:	0000b6a8 	.word	0x0000b6a8
    b9b0:	0000b6b0 	.word	0x0000b6b0
    b9b4:	0000b6b8 	.word	0x0000b6b8
    b9b8:	0000b580 	.word	0x0000b580

0000b9bc <_gcry_cipher_encrypt>:
    b9bc:	e92d41f0 	push	{r4, r5, r6, r7, r8, lr}
    b9c0:	e24dd008 	sub	sp, sp, #8
    b9c4:	e1a08000 	mov	r8, r0
    b9c8:	e1a04001 	mov	r4, r1
    b9cc:	e59d6020 	ldr	r6, [sp, #32]
    b9d0:	e1a07003 	mov	r7, r3
    b9d4:	e59f006c 	ldr	r0, [pc, #108]	; ba48 <_gcry_cipher_encrypt+0x8c>
    b9d8:	e1a05002 	mov	r5, r2
    b9dc:	e5983020 	ldr	r3, [r8, #32]
    b9e0:	e1a01006 	mov	r1, r6
    b9e4:	e08f0000 	add	r0, pc, r0
    b9e8:	eb0019dd 	bl	12164 <tfp_printf>
    b9ec:	e3570000 	cmp	r7, #0
    b9f0:	e1a00008 	mov	r0, r8
    b9f4:	01a06005 	moveq	r6, r5
    b9f8:	11a03007 	movne	r3, r7
    b9fc:	e58d6000 	str	r6, [sp]
    ba00:	01a03004 	moveq	r3, r4
    ba04:	e1a02005 	mov	r2, r5
    ba08:	e1a01004 	mov	r1, r4
    ba0c:	eb000bf7 	bl	e9f0 <_gcry_cipher_cfb_encrypt>
    ba10:	e3500000 	cmp	r0, #0
    ba14:	13540000 	cmpne	r4, #0
    ba18:	e1a06000 	mov	r6, r0
    ba1c:	1a000002 	bne	ba2c <_gcry_cipher_encrypt+0x70>
    ba20:	e1a00006 	mov	r0, r6
    ba24:	e28dd008 	add	sp, sp, #8
    ba28:	e8bd81f0 	pop	{r4, r5, r6, r7, r8, pc}
    ba2c:	e1a02005 	mov	r2, r5
    ba30:	e3a01042 	mov	r1, #66	; 0x42
    ba34:	e1a00004 	mov	r0, r4
    ba38:	eb0010c6 	bl	fd58 <memset>
    ba3c:	e1a00006 	mov	r0, r6
    ba40:	e28dd008 	add	sp, sp, #8
    ba44:	e8bd81f0 	pop	{r4, r5, r6, r7, r8, pc}
    ba48:	0000b628 	.word	0x0000b628

0000ba4c <cipher_filter_cfb>:
    ba4c:	e92d43f0 	push	{r4, r5, r6, r7, r8, r9, lr}
    ba50:	e1a05000 	mov	r5, r0
    ba54:	e59f0278 	ldr	r0, [pc, #632]	; bcd4 <cipher_filter_cfb+0x288>
    ba58:	e24dd044 	sub	sp, sp, #68	; 0x44
    ba5c:	e1a04001 	mov	r4, r1
    ba60:	e1a07002 	mov	r7, r2
    ba64:	e08f0000 	add	r0, pc, r0
    ba68:	e1a06003 	mov	r6, r3
    ba6c:	eb0019bc 	bl	12164 <tfp_printf>
    ba70:	e5d5200c 	ldrb	r2, [r5, #12]
    ba74:	e1a01004 	mov	r1, r4
    ba78:	e59f0258 	ldr	r0, [pc, #600]	; bcd8 <cipher_filter_cfb+0x28c>
    ba7c:	e59d3060 	ldr	r3, [sp, #96]	; 0x60
    ba80:	e2022001 	and	r2, r2, #1
    ba84:	e08f0000 	add	r0, pc, r0
    ba88:	e5938000 	ldr	r8, [r3]
    ba8c:	eb0019b4 	bl	12164 <tfp_printf>
    ba90:	e3540003 	cmp	r4, #3
    ba94:	0a00008c 	beq	bccc <cipher_filter_cfb+0x280>
    ba98:	e3540004 	cmp	r4, #4
    ba9c:	0a000009 	beq	bac8 <cipher_filter_cfb+0x7c>
    baa0:	e3540002 	cmp	r4, #2
    baa4:	13a04000 	movne	r4, #0
    baa8:	0a00007c 	beq	bca0 <cipher_filter_cfb+0x254>
    baac:	e59f0228 	ldr	r0, [pc, #552]	; bcdc <cipher_filter_cfb+0x290>
    bab0:	e1a01004 	mov	r1, r4
    bab4:	e08f0000 	add	r0, pc, r0
    bab8:	eb0019a9 	bl	12164 <tfp_printf>
    babc:	e1a00004 	mov	r0, r4
    bac0:	e28dd044 	add	sp, sp, #68	; 0x44
    bac4:	e8bd83f0 	pop	{r4, r5, r6, r7, r8, r9, pc}
    bac8:	e59f0210 	ldr	r0, [pc, #528]	; bce0 <cipher_filter_cfb+0x294>
    bacc:	e08f0000 	add	r0, pc, r0
    bad0:	eb0019a3 	bl	12164 <tfp_printf>
    bad4:	e5d5100c 	ldrb	r1, [r5, #12]
    bad8:	e2114001 	ands	r4, r1, #1
    badc:	0a000017 	beq	bb40 <cipher_filter_cfb+0xf4>
    bae0:	e59f01fc 	ldr	r0, [pc, #508]	; bce4 <cipher_filter_cfb+0x298>
    bae4:	e1a01008 	mov	r1, r8
    bae8:	e08f0000 	add	r0, pc, r0
    baec:	eb00199c 	bl	12164 <tfp_printf>
    baf0:	e3a03000 	mov	r3, #0
    baf4:	e1a02008 	mov	r2, r8
    baf8:	e58d3000 	str	r3, [sp]
    bafc:	e1a01006 	mov	r1, r6
    bb00:	e5950008 	ldr	r0, [r5, #8]
    bb04:	ebffffac 	bl	b9bc <_gcry_cipher_encrypt>
    bb08:	e5d5300c 	ldrb	r3, [r5, #12]
    bb0c:	e5951010 	ldr	r1, [r5, #16]
    bb10:	e59f01d0 	ldr	r0, [pc, #464]	; bce8 <cipher_filter_cfb+0x29c>
    bb14:	e3130002 	tst	r3, #2
    bb18:	10881001 	addne	r1, r8, r1
    bb1c:	15851010 	strne	r1, [r5, #16]
    bb20:	e08f0000 	add	r0, pc, r0
    bb24:	eb00198e 	bl	12164 <tfp_printf>
    bb28:	e1a02008 	mov	r2, r8
    bb2c:	e1a01006 	mov	r1, r6
    bb30:	e1a00007 	mov	r0, r7
    bb34:	ebfff782 	bl	9944 <iobuf_write>
    bb38:	e1a04000 	mov	r4, r0
    bb3c:	eaffffda 	b	baac <cipher_filter_cfb+0x60>
    bb40:	e59f01a4 	ldr	r0, [pc, #420]	; bcec <cipher_filter_cfb+0x2a0>
    bb44:	e28d902c 	add	r9, sp, #44	; 0x2c
    bb48:	e08f0000 	add	r0, pc, r0
    bb4c:	eb001984 	bl	12164 <tfp_printf>
    bb50:	e3a02014 	mov	r2, #20
    bb54:	e1a01004 	mov	r1, r4
    bb58:	e1a00009 	mov	r0, r9
    bb5c:	eb00107d 	bl	fd58 <memset>
    bb60:	e5953004 	ldr	r3, [r5, #4]
    bb64:	e59f0184 	ldr	r0, [pc, #388]	; bcf0 <cipher_filter_cfb+0x2a4>
    bb68:	e58d302c 	str	r3, [sp, #44]	; 0x2c
    bb6c:	e16f3f13 	clz	r3, r3
    bb70:	e08f0000 	add	r0, pc, r0
    bb74:	e1a032a3 	lsr	r3, r3, #5
    bb78:	e5cd3034 	strb	r3, [sp, #52]	; 0x34
    bb7c:	e5953000 	ldr	r3, [r5]
    bb80:	e5cd4008 	strb	r4, [sp, #8]
    bb84:	e5d31008 	ldrb	r1, [r3, #8]
    bb88:	e3a0300a 	mov	r3, #10
    bb8c:	e58d3030 	str	r3, [sp, #48]	; 0x30
    bb90:	e7e012d1 	ubfx	r1, r1, #5, #1
    bb94:	e58d400c 	str	r4, [sp, #12]
    bb98:	eb001971 	bl	12164 <tfp_printf>
    bb9c:	e58d900c 	str	r9, [sp, #12]
    bba0:	e3a03009 	mov	r3, #9
    bba4:	e5cd3008 	strb	r3, [sp, #8]
    bba8:	e28d1008 	add	r1, sp, #8
    bbac:	e1a00007 	mov	r0, r7
    bbb0:	ebfffdd0 	bl	b2f8 <build_packet>
    bbb4:	e3500000 	cmp	r0, #0
    bbb8:	1a00003f 	bne	bcbc <cipher_filter_cfb+0x270>
    bbbc:	e59f0130 	ldr	r0, [pc, #304]	; bcf4 <cipher_filter_cfb+0x2a8>
    bbc0:	e3a01008 	mov	r1, #8
    bbc4:	e28d4018 	add	r4, sp, #24
    bbc8:	e08f0000 	add	r0, pc, r0
    bbcc:	eb001964 	bl	12164 <tfp_printf>
    bbd0:	e59f3120 	ldr	r3, [pc, #288]	; bcf8 <cipher_filter_cfb+0x2ac>
    bbd4:	e3a02008 	mov	r2, #8
    bbd8:	e08f3003 	add	r3, pc, r3
    bbdc:	e8930003 	ldm	r3, {r0, r1}
    bbe0:	e28d3010 	add	r3, sp, #16
    bbe4:	e8830003 	stm	r3, {r0, r1}
    bbe8:	e1a01003 	mov	r1, r3
    bbec:	e1a00004 	mov	r0, r4
    bbf0:	eb00108f 	bl	fe34 <memcpy>
    bbf4:	e5dd201e 	ldrb	r2, [sp, #30]
    bbf8:	e5953000 	ldr	r3, [r5]
    bbfc:	e5cd2020 	strb	r2, [sp, #32]
    bc00:	e5dd201f 	ldrb	r2, [sp, #31]
    bc04:	e2831009 	add	r1, r3, #9
    bc08:	e5950008 	ldr	r0, [r5, #8]
    bc0c:	e5cd2021 	strb	r2, [sp, #33]	; 0x21
    bc10:	e5932004 	ldr	r2, [r3, #4]
    bc14:	eb000933 	bl	e0e8 <_gcry_cipher_setkey>
    bc18:	e5950008 	ldr	r0, [r5, #8]
    bc1c:	e3a01010 	mov	r1, #16
    bc20:	e2800030 	add	r0, r0, #48	; 0x30
    bc24:	ebfffcb3 	bl	aef8 <log_hexdump>
    bc28:	e5950008 	ldr	r0, [r5, #8]
    bc2c:	e3a02008 	mov	r2, #8
    bc30:	e3a01000 	mov	r1, #0
    bc34:	eb00093f 	bl	e138 <_gcry_cipher_setiv>
    bc38:	e5950008 	ldr	r0, [r5, #8]
    bc3c:	e3a01008 	mov	r1, #8
    bc40:	ebfffcac 	bl	aef8 <log_hexdump>
    bc44:	e59f00b0 	ldr	r0, [pc, #176]	; bcfc <cipher_filter_cfb+0x2b0>
    bc48:	e3a0100a 	mov	r1, #10
    bc4c:	e08f0000 	add	r0, pc, r0
    bc50:	eb001943 	bl	12164 <tfp_printf>
    bc54:	e3a03000 	mov	r3, #0
    bc58:	e3a0200a 	mov	r2, #10
    bc5c:	e58d3000 	str	r3, [sp]
    bc60:	e1a01004 	mov	r1, r4
    bc64:	e5950008 	ldr	r0, [r5, #8]
    bc68:	ebffff53 	bl	b9bc <_gcry_cipher_encrypt>
    bc6c:	e5950008 	ldr	r0, [r5, #8]
    bc70:	eb00093b 	bl	e164 <cipher_sync>
    bc74:	e1a01004 	mov	r1, r4
    bc78:	e3a0200a 	mov	r2, #10
    bc7c:	e1a00007 	mov	r0, r7
    bc80:	ebfff72f 	bl	9944 <iobuf_write>
    bc84:	e3a0300a 	mov	r3, #10
    bc88:	e5853010 	str	r3, [r5, #16]
    bc8c:	e5d5300c 	ldrb	r3, [r5, #12]
    bc90:	e3c33003 	bic	r3, r3, #3
    bc94:	e3833003 	orr	r3, r3, #3
    bc98:	e5c5300c 	strb	r3, [r5, #12]
    bc9c:	eaffff8f 	b	bae0 <cipher_filter_cfb+0x94>
    bca0:	e59f0058 	ldr	r0, [pc, #88]	; bd00 <cipher_filter_cfb+0x2b4>
    bca4:	e3a04000 	mov	r4, #0
    bca8:	e08f0000 	add	r0, pc, r0
    bcac:	eb00192c 	bl	12164 <tfp_printf>
    bcb0:	e5950008 	ldr	r0, [r5, #8]
    bcb4:	eb00091c 	bl	e12c <_gcry_cipher_close>
    bcb8:	eaffff7b 	b	baac <cipher_filter_cfb+0x60>
    bcbc:	e59f0040 	ldr	r0, [pc, #64]	; bd04 <cipher_filter_cfb+0x2b8>
    bcc0:	e08f0000 	add	r0, pc, r0
    bcc4:	eb001926 	bl	12164 <tfp_printf>
    bcc8:	eaffffbb 	b	bbbc <cipher_filter_cfb+0x170>
    bccc:	e3e04000 	mvn	r4, #0
    bcd0:	eaffff75 	b	baac <cipher_filter_cfb+0x60>
    bcd4:	0000b5e4 	.word	0x0000b5e4
    bcd8:	0000b5d8 	.word	0x0000b5d8
    bcdc:	0000b688 	.word	0x0000b688
    bce0:	0000b5ac 	.word	0x0000b5ac
    bce4:	0000b614 	.word	0x0000b614
    bce8:	0000b5f4 	.word	0x0000b5f4
    bcec:	0000b544 	.word	0x0000b544
    bcf0:	0000b530 	.word	0x0000b530
    bcf4:	0000b504 	.word	0x0000b504
    bcf8:	0000b584 	.word	0x0000b584
    bcfc:	0000b498 	.word	0x0000b498
    bd00:	0000b484 	.word	0x0000b484
    bd04:	0000b3ec 	.word	0x0000b3ec

0000bd08 <decrypt_memory>:
    bd08:	e92d43f0 	push	{r4, r5, r6, r7, r8, r9, lr}
    bd0c:	e1a07000 	mov	r7, r0
    bd10:	e59f00fc 	ldr	r0, [pc, #252]	; be14 <decrypt_memory+0x10c>
    bd14:	e24dd014 	sub	sp, sp, #20
    bd18:	e59f80f8 	ldr	r8, [pc, #248]	; be18 <decrypt_memory+0x110>
    bd1c:	e1a05002 	mov	r5, r2
    bd20:	e08f0000 	add	r0, pc, r0
    bd24:	e1a06001 	mov	r6, r1
    bd28:	e08f8008 	add	r8, pc, r8
    bd2c:	eb00190c 	bl	12164 <tfp_printf>
    bd30:	e5875020 	str	r5, [r7, #32]
    bd34:	e1a00006 	mov	r0, r6
    bd38:	e3a04000 	mov	r4, #0
    bd3c:	e1a01005 	mov	r1, r5
    bd40:	e58d400c 	str	r4, [sp, #12]
    bd44:	ebfff2e4 	bl	88dc <iobuf_temp_with_content>
    bd48:	e2506000 	subs	r6, r0, #0
    bd4c:	0a00002e 	beq	be0c <decrypt_memory+0x104>
    bd50:	e59f50c4 	ldr	r5, [pc, #196]	; be1c <decrypt_memory+0x114>
    bd54:	e1a01004 	mov	r1, r4
    bd58:	e1a00004 	mov	r0, r4
    bd5c:	e08f5005 	add	r5, pc, r5
    bd60:	ebfffb3a 	bl	aa50 <translate_file_handle>
    bd64:	e1a01005 	mov	r1, r5
    bd68:	ebfff424 	bl	8e00 <iobuf_fdopen>
    bd6c:	e1a01005 	mov	r1, r5
    bd70:	e1a00004 	mov	r0, r4
    bd74:	ebfff1a9 	bl	8420 <fd_cache_open>
    bd78:	e1a09000 	mov	r9, r0
    bd7c:	e1a00004 	mov	r0, r4
    bd80:	eb000c33 	bl	ee54 <strlen>
    bd84:	e2800038 	add	r0, r0, #56	; 0x38
    bd88:	eb000ffb 	bl	fd7c <xmalloc>
    bd8c:	e5804010 	str	r4, [r0, #16]
    bd90:	e1a05000 	mov	r5, r0
    bd94:	e5809000 	str	r9, [r0]
    bd98:	e1a01004 	mov	r1, r4
    bd9c:	e2800036 	add	r0, r0, #54	; 0x36
    bda0:	eb00106a 	bl	ff50 <strcpy>
    bda4:	e1a00004 	mov	r0, r4
    bda8:	eb0010c0 	bl	100b0 <xstrdup>
    bdac:	e59f306c 	ldr	r3, [pc, #108]	; be20 <decrypt_memory+0x118>
    bdb0:	e3a01001 	mov	r1, #1
    bdb4:	e5860038 	str	r0, [r6, #56]	; 0x38
    bdb8:	e1a02004 	mov	r2, r4
    bdbc:	e7983003 	ldr	r3, [r8, r3]
    bdc0:	e1a00005 	mov	r0, r5
    bdc4:	e586302c 	str	r3, [r6, #44]	; 0x2c
    bdc8:	e28d300c 	add	r3, sp, #12
    bdcc:	e5851008 	str	r1, [r5, #8]
    bdd0:	e5865030 	str	r5, [r6, #48]	; 0x30
    bdd4:	e58d3000 	str	r3, [sp]
    bdd8:	e1a03004 	mov	r3, r4
    bddc:	ebfff0bb 	bl	80d0 <file_filter>
    bde0:	e1a01004 	mov	r1, r4
    bde4:	e1a02006 	mov	r2, r6
    bde8:	e1a00007 	mov	r0, r7
    bdec:	eb000f5b 	bl	fb60 <proc_encryption_packets>
    bdf0:	e1a04000 	mov	r4, r0
    bdf4:	e59f0028 	ldr	r0, [pc, #40]	; be24 <decrypt_memory+0x11c>
    bdf8:	e08f0000 	add	r0, pc, r0
    bdfc:	eb0018d8 	bl	12164 <tfp_printf>
    be00:	e1a00004 	mov	r0, r4
    be04:	e28dd014 	add	sp, sp, #20
    be08:	e8bd83f0 	pop	{r4, r5, r6, r7, r8, r9, pc}
    be0c:	e3e04000 	mvn	r4, #0
    be10:	eafffffa 	b	be00 <decrypt_memory+0xf8>
    be14:	0000b448 	.word	0x0000b448
    be18:	0002fdfc 	.word	0x0002fdfc
    be1c:	0000a4ac 	.word	0x0000a4ac
    be20:	00000048 	.word	0x00000048
    be24:	0000b380 	.word	0x0000b380

0000be28 <decrypt_message>:
    be28:	e92d4070 	push	{r4, r5, r6, lr}
    be2c:	e1a05000 	mov	r5, r0
    be30:	e59f0070 	ldr	r0, [pc, #112]	; bea8 <decrypt_message+0x80>
    be34:	e1a04001 	mov	r4, r1
    be38:	e59f606c 	ldr	r6, [pc, #108]	; beac <decrypt_message+0x84>
    be3c:	e08f0000 	add	r0, pc, r0
    be40:	e08f6006 	add	r6, pc, r6
    be44:	eb0018c6 	bl	12164 <tfp_printf>
    be48:	e1a00004 	mov	r0, r4
    be4c:	ebfff2be 	bl	894c <iobuf_open>
    be50:	e1a04000 	mov	r4, r0
    be54:	ebfff9b8 	bl	a53c <iobuf_get_fd>
    be58:	e3540000 	cmp	r4, #0
    be5c:	0a00000f 	beq	bea0 <decrypt_message+0x78>
    be60:	e59f3048 	ldr	r3, [pc, #72]	; beb0 <decrypt_message+0x88>
    be64:	e59f0048 	ldr	r0, [pc, #72]	; beb4 <decrypt_message+0x8c>
    be68:	e7963003 	ldr	r3, [r6, r3]
    be6c:	e08f0000 	add	r0, pc, r0
    be70:	e5931010 	ldr	r1, [r3, #16]
    be74:	eb0018ba 	bl	12164 <tfp_printf>
    be78:	e1a02004 	mov	r2, r4
    be7c:	e3a01000 	mov	r1, #0
    be80:	e1a00005 	mov	r0, r5
    be84:	eb000f35 	bl	fb60 <proc_encryption_packets>
    be88:	e1a03000 	mov	r3, r0
    be8c:	e1a00004 	mov	r0, r4
    be90:	e1a04003 	mov	r4, r3
    be94:	ebfff237 	bl	8778 <iobuf_close>
    be98:	e1a00004 	mov	r0, r4
    be9c:	e8bd8070 	pop	{r4, r5, r6, pc}
    bea0:	e3e04000 	mvn	r4, #0
    bea4:	eafffffb 	b	be98 <decrypt_message+0x70>
    bea8:	0000b354 	.word	0x0000b354
    beac:	0002fce4 	.word	0x0002fce4
    beb0:	0000002c 	.word	0x0000002c
    beb4:	0000b344 	.word	0x0000b344

0000beb8 <release_dfx_context>:
    beb8:	e92d4070 	push	{r4, r5, r6, lr}
    bebc:	e2504000 	subs	r4, r0, #0
    bec0:	08bd8070 	popeq	{r4, r5, r6, pc}
    bec4:	e5940000 	ldr	r0, [r4]
    bec8:	eb0018a5 	bl	12164 <tfp_printf>
    becc:	e5945000 	ldr	r5, [r4]
    bed0:	e2455001 	sub	r5, r5, #1
    bed4:	e5845000 	str	r5, [r4]
    bed8:	e3550000 	cmp	r5, #0
    bedc:	18bd8070 	popne	{r4, r5, r6, pc}
    bee0:	e5940004 	ldr	r0, [r4, #4]
    bee4:	eb000f98 	bl	fd4c <xfree>
    bee8:	e5940008 	ldr	r0, [r4, #8]
    beec:	e5845004 	str	r5, [r4, #4]
    bef0:	eb000f95 	bl	fd4c <xfree>
    bef4:	e5845008 	str	r5, [r4, #8]
    bef8:	e1a00004 	mov	r0, r4
    befc:	e8bd4070 	pop	{r4, r5, r6, lr}
    bf00:	ea000f91 	b	fd4c <xfree>

0000bf04 <decode_filter>:
    bf04:	e92d47f0 	push	{r4, r5, r6, r7, r8, r9, sl, lr}
    bf08:	e24dd008 	sub	sp, sp, #8
    bf0c:	e1a05000 	mov	r5, r0
    bf10:	e1a04001 	mov	r4, r1
    bf14:	e59d9028 	ldr	r9, [sp, #40]	; 0x28
    bf18:	e1a07002 	mov	r7, r2
    bf1c:	e59f01e4 	ldr	r0, [pc, #484]	; c108 <decode_filter+0x204>
    bf20:	e1a06003 	mov	r6, r3
    bf24:	e5992000 	ldr	r2, [r9]
    bf28:	e08f0000 	add	r0, pc, r0
    bf2c:	e5953078 	ldr	r3, [r5, #120]	; 0x78
    bf30:	eb00188b 	bl	12164 <tfp_printf>
    bf34:	e3540003 	cmp	r4, #3
    bf38:	0a000004 	beq	bf50 <decode_filter+0x4c>
    bf3c:	e3540002 	cmp	r4, #2
    bf40:	13a00000 	movne	r0, #0
    bf44:	0a000046 	beq	c064 <decode_filter+0x160>
    bf48:	e28dd008 	add	sp, sp, #8
    bf4c:	e8bd87f0 	pop	{r4, r5, r6, r7, r8, r9, sl, pc}
    bf50:	e5d54050 	ldrb	r4, [r5, #80]	; 0x50
    bf54:	e214a006 	ands	sl, r4, #6
    bf58:	1a000063 	bne	c0ec <decode_filter+0x1e8>
    bf5c:	e59f01a8 	ldr	r0, [pc, #424]	; c10c <decode_filter+0x208>
    bf60:	e5998000 	ldr	r8, [r9]
    bf64:	e08f0000 	add	r0, pc, r0
    bf68:	eb00187d 	bl	12164 <tfp_printf>
    bf6c:	e59f019c 	ldr	r0, [pc, #412]	; c110 <decode_filter+0x20c>
    bf70:	e08f0000 	add	r0, pc, r0
    bf74:	eb00187a 	bl	12164 <tfp_printf>
    bf78:	e5d53050 	ldrb	r3, [r5, #80]	; 0x50
    bf7c:	e2134001 	ands	r4, r3, #1
    bf80:	1a000024 	bne	c018 <decode_filter+0x114>
    bf84:	e3580000 	cmp	r8, #0
    bf88:	0a000050 	beq	c0d0 <decode_filter+0x1cc>
    bf8c:	e595c078 	ldr	ip, [r5, #120]	; 0x78
    bf90:	ea00000b 	b	bfc4 <decode_filter+0xc0>
    bf94:	e152000c 	cmp	r2, ip
    bf98:	e1a00007 	mov	r0, r7
    bf9c:	21a0200c 	movcs	r2, ip
    bfa0:	ebfff5cb 	bl	96d4 <iobuf_read>
    bfa4:	e3700001 	cmn	r0, #1
    bfa8:	0a000041 	beq	c0b4 <decode_filter+0x1b0>
    bfac:	e595c078 	ldr	ip, [r5, #120]	; 0x78
    bfb0:	e0844000 	add	r4, r4, r0
    bfb4:	e1580004 	cmp	r8, r4
    bfb8:	e04cc000 	sub	ip, ip, r0
    bfbc:	e585c078 	str	ip, [r5, #120]	; 0x78
    bfc0:	9a00003f 	bls	c0c4 <decode_filter+0x1c0>
    bfc4:	e0482004 	sub	r2, r8, r4
    bfc8:	e35c0000 	cmp	ip, #0
    bfcc:	e0861004 	add	r1, r6, r4
    bfd0:	1affffef 	bne	bf94 <decode_filter+0x90>
    bfd4:	e5d53050 	ldrb	r3, [r5, #80]	; 0x50
    bfd8:	e3a02001 	mov	r2, #1
    bfdc:	e7c23092 	bfi	r3, r2, #1, #2
    bfe0:	e5c53050 	strb	r3, [r5, #80]	; 0x50
    bfe4:	e3540000 	cmp	r4, #0
    bfe8:	1a000022 	bne	c078 <decode_filter+0x174>
    bfec:	e5d53050 	ldrb	r3, [r5, #80]	; 0x50
    bff0:	e2134006 	ands	r4, r3, #6
    bff4:	e3e00000 	mvn	r0, #0
    bff8:	03a02001 	moveq	r2, #1
    bffc:	13a04000 	movne	r4, #0
    c000:	05d53050 	ldrbeq	r3, [r5, #80]	; 0x50
    c004:	07c23092 	bfieq	r3, r2, #1, #2
    c008:	05c53050 	strbeq	r3, [r5, #80]	; 0x50
    c00c:	e5894000 	str	r4, [r9]
    c010:	e28dd008 	add	sp, sp, #8
    c014:	e8bd87f0 	pop	{r4, r5, r6, r7, r8, r9, sl, pc}
    c018:	e59f00f4 	ldr	r0, [pc, #244]	; c114 <decode_filter+0x210>
    c01c:	e1a02008 	mov	r2, r8
    c020:	e1a0100a 	mov	r1, sl
    c024:	e08f0000 	add	r0, pc, r0
    c028:	eb00184d 	bl	12164 <tfp_printf>
    c02c:	e3580000 	cmp	r8, #0
    c030:	11a0400a 	movne	r4, sl
    c034:	1a000003 	bne	c048 <decode_filter+0x144>
    c038:	eaffffeb 	b	bfec <decode_filter+0xe8>
    c03c:	e0844000 	add	r4, r4, r0
    c040:	e1580004 	cmp	r8, r4
    c044:	9a00000b 	bls	c078 <decode_filter+0x174>
    c048:	e0482004 	sub	r2, r8, r4
    c04c:	e1a00007 	mov	r0, r7
    c050:	e0861004 	add	r1, r6, r4
    c054:	ebfff59e 	bl	96d4 <iobuf_read>
    c058:	e3700001 	cmn	r0, #1
    c05c:	1afffff6 	bne	c03c <decode_filter+0x138>
    c060:	eaffffdb 	b	bfd4 <decode_filter+0xd0>
    c064:	e1a00005 	mov	r0, r5
    c068:	ebffff92 	bl	beb8 <release_dfx_context>
    c06c:	e3a00000 	mov	r0, #0
    c070:	e28dd008 	add	sp, sp, #8
    c074:	e8bd87f0 	pop	{r4, r5, r6, r7, r8, r9, sl, pc}
    c078:	e5950004 	ldr	r0, [r5, #4]
    c07c:	e3500000 	cmp	r0, #0
    c080:	0a000003 	beq	c094 <decode_filter+0x190>
    c084:	e59f008c 	ldr	r0, [pc, #140]	; c118 <decode_filter+0x214>
    c088:	e08f0000 	add	r0, pc, r0
    c08c:	eb001834 	bl	12164 <tfp_printf>
    c090:	e5950004 	ldr	r0, [r5, #4]
    c094:	e3a05000 	mov	r5, #0
    c098:	e1a01006 	mov	r1, r6
    c09c:	e58d5000 	str	r5, [sp]
    c0a0:	e1a03005 	mov	r3, r5
    c0a4:	e1a02004 	mov	r2, r4
    c0a8:	eb000a25 	bl	e944 <_gcry_cipher_decrypt>
    c0ac:	e1a00005 	mov	r0, r5
    c0b0:	eaffffd5 	b	c00c <decode_filter+0x108>
    c0b4:	e5d53050 	ldrb	r3, [r5, #80]	; 0x50
    c0b8:	e595c078 	ldr	ip, [r5, #120]	; 0x78
    c0bc:	e3833006 	orr	r3, r3, #6
    c0c0:	e5c53050 	strb	r3, [r5, #80]	; 0x50
    c0c4:	e35c0000 	cmp	ip, #0
    c0c8:	1affffc5 	bne	bfe4 <decode_filter+0xe0>
    c0cc:	eaffffc0 	b	bfd4 <decode_filter+0xd0>
    c0d0:	e5952078 	ldr	r2, [r5, #120]	; 0x78
    c0d4:	e3520000 	cmp	r2, #0
    c0d8:	03a02001 	moveq	r2, #1
    c0dc:	07c23092 	bfieq	r3, r2, #1, #2
    c0e0:	05c53050 	strbeq	r3, [r5, #80]	; 0x50
    c0e4:	06ef3073 	uxtbeq	r3, r3
    c0e8:	eaffffc0 	b	bff0 <decode_filter+0xec>
    c0ec:	e59f0028 	ldr	r0, [pc, #40]	; c11c <decode_filter+0x218>
    c0f0:	e08f0000 	add	r0, pc, r0
    c0f4:	eb00181a 	bl	12164 <tfp_printf>
    c0f8:	e3a03000 	mov	r3, #0
    c0fc:	e3e00000 	mvn	r0, #0
    c100:	e5893000 	str	r3, [r9]
    c104:	eaffff8f 	b	bf48 <decode_filter+0x44>
    c108:	0000b298 	.word	0x0000b298
    c10c:	0000b2b4 	.word	0x0000b2b4
    c110:	0000b2c8 	.word	0x0000b2c8
    c114:	0000b224 	.word	0x0000b224
    c118:	0000b1e4 	.word	0x0000b1e4
    c11c:	0000b100 	.word	0x0000b100

0000c120 <decrypt_data>:
    c120:	e92d47f0 	push	{r4, r5, r6, r7, r8, r9, sl, lr}
    c124:	e24dd030 	sub	sp, sp, #48	; 0x30
    c128:	e1a07000 	mov	r7, r0
    c12c:	e3a06000 	mov	r6, #0
    c130:	e59f033c 	ldr	r0, [pc, #828]	; c474 <decrypt_data+0x354>
    c134:	e1a08001 	mov	r8, r1
    c138:	e59d9050 	ldr	r9, [sp, #80]	; 0x50
    c13c:	e1a04002 	mov	r4, r2
    c140:	e08f0000 	add	r0, pc, r0
    c144:	e1a05003 	mov	r5, r3
    c148:	eb001805 	bl	12164 <tfp_printf>
    c14c:	e5896000 	str	r6, [r9]
    c150:	e3a01080 	mov	r1, #128	; 0x80
    c154:	e3a00001 	mov	r0, #1
    c158:	eb000f82 	bl	ff68 <xtrycalloc>
    c15c:	e1500006 	cmp	r0, r6
    c160:	e58d000c 	str	r0, [sp, #12]
    c164:	0a0000c0 	beq	c46c <decrypt_data+0x34c>
    c168:	e5901078 	ldr	r1, [r0, #120]	; 0x78
    c16c:	e3a03001 	mov	r3, #1
    c170:	e5803000 	str	r3, [r0]
    c174:	e59f02fc 	ldr	r0, [pc, #764]	; c478 <decrypt_data+0x358>
    c178:	e08f0000 	add	r0, pc, r0
    c17c:	eb0017f8 	bl	12164 <tfp_printf>
    c180:	e59f12f4 	ldr	r1, [pc, #756]	; c47c <decrypt_data+0x35c>
    c184:	e3a00017 	mov	r0, #23
    c188:	e58d6000 	str	r6, [sp]
    c18c:	e08f1001 	add	r1, pc, r1
    c190:	e5953000 	ldr	r3, [r5]
    c194:	e5d4200a 	ldrb	r2, [r4, #10]
    c198:	eb0017f1 	bl	12164 <tfp_printf>
    c19c:	e5d4900b 	ldrb	r9, [r4, #11]
    c1a0:	e3590000 	cmp	r9, #0
    c1a4:	1a000059 	bne	c310 <decrypt_data+0x1f0>
    c1a8:	e5943000 	ldr	r3, [r4]
    c1ac:	e2433001 	sub	r3, r3, #1
    c1b0:	e3530008 	cmp	r3, #8
    c1b4:	9a000084 	bls	c3cc <decrypt_data+0x2ac>
    c1b8:	e3a02004 	mov	r2, #4
    c1bc:	e1a01009 	mov	r1, r9
    c1c0:	e28d000c 	add	r0, sp, #12
    c1c4:	eb000ee3 	bl	fd58 <memset>
    c1c8:	e59d600c 	ldr	r6, [sp, #12]
    c1cc:	e3a00040 	mov	r0, #64	; 0x40
    c1d0:	eb000e7c 	bl	fbc8 <malloc>
    c1d4:	e59d300c 	ldr	r3, [sp, #12]
    c1d8:	e5860004 	str	r0, [r6, #4]
    c1dc:	e5930004 	ldr	r0, [r3, #4]
    c1e0:	e3500000 	cmp	r0, #0
    c1e4:	0a0000a0 	beq	c46c <decrypt_data+0x34c>
    c1e8:	e3a02040 	mov	r2, #64	; 0x40
    c1ec:	e1a01009 	mov	r1, r9
    c1f0:	eb000ed8 	bl	fd58 <memset>
    c1f4:	e59d300c 	ldr	r3, [sp, #12]
    c1f8:	e2851009 	add	r1, r5, #9
    c1fc:	e5952004 	ldr	r2, [r5, #4]
    c200:	e5930004 	ldr	r0, [r3, #4]
    c204:	eb0007b7 	bl	e0e8 <_gcry_cipher_setkey>
    c208:	e5943010 	ldr	r3, [r4, #16]
    c20c:	e1a06000 	mov	r6, r0
    c210:	e3530000 	cmp	r3, #0
    c214:	0a000065 	beq	c3b0 <decrypt_data+0x290>
    c218:	e59d300c 	ldr	r3, [sp, #12]
    c21c:	e1a01009 	mov	r1, r9
    c220:	e3a02008 	mov	r2, #8
    c224:	e5930004 	ldr	r0, [r3, #4]
    c228:	eb0007c2 	bl	e138 <_gcry_cipher_setiv>
    c22c:	e5941000 	ldr	r1, [r4]
    c230:	e3510000 	cmp	r1, #0
    c234:	028da00f 	addeq	sl, sp, #15
    c238:	028d9019 	addeq	r9, sp, #25
    c23c:	0a000009 	beq	c268 <decrypt_data+0x148>
    c240:	ea000065 	b	c3dc <decrypt_data+0x2bc>
    c244:	e5821018 	str	r1, [r2, #24]
    c248:	e5921008 	ldr	r1, [r2, #8]
    c24c:	e5920020 	ldr	r0, [r2, #32]
    c250:	e2811001 	add	r1, r1, #1
    c254:	e5821008 	str	r1, [r2, #8]
    c258:	e7d00003 	ldrb	r0, [r0, r3]
    c25c:	e5ea0001 	strb	r0, [sl, #1]!
    c260:	e15a0009 	cmp	sl, r9
    c264:	0a00000d 	beq	c2a0 <decrypt_data+0x180>
    c268:	e5942010 	ldr	r2, [r4, #16]
    c26c:	e5923010 	ldr	r3, [r2, #16]
    c270:	e1a00002 	mov	r0, r2
    c274:	e3530000 	cmp	r3, #0
    c278:	1a000004 	bne	c290 <decrypt_data+0x170>
    c27c:	e5923018 	ldr	r3, [r2, #24]
    c280:	e592101c 	ldr	r1, [r2, #28]
    c284:	e1530001 	cmp	r3, r1
    c288:	e2831001 	add	r1, r3, #1
    c28c:	3affffec 	bcc	c244 <decrypt_data+0x124>
    c290:	ebfff456 	bl	93f0 <iobuf_readbyte>
    c294:	e3700001 	cmn	r0, #1
    c298:	e6ef0070 	uxtb	r0, r0
    c29c:	1affffee 	bne	c25c <decrypt_data+0x13c>
    c2a0:	e59d300c 	ldr	r3, [sp, #12]
    c2a4:	e3a0200a 	mov	r2, #10
    c2a8:	e28d1010 	add	r1, sp, #16
    c2ac:	e5930004 	ldr	r0, [r3, #4]
    c2b0:	e3a03000 	mov	r3, #0
    c2b4:	e58d3000 	str	r3, [sp]
    c2b8:	eb0009a1 	bl	e944 <_gcry_cipher_decrypt>
    c2bc:	e59d300c 	ldr	r3, [sp, #12]
    c2c0:	e5930004 	ldr	r0, [r3, #4]
    c2c4:	eb0007a6 	bl	e164 <cipher_sync>
    c2c8:	e5d53008 	ldrb	r3, [r5, #8]
    c2cc:	e3130040 	tst	r3, #64	; 0x40
    c2d0:	0a000015 	beq	c32c <decrypt_data+0x20c>
    c2d4:	e5dd2016 	ldrb	r2, [sp, #22]
    c2d8:	e5dd3018 	ldrb	r3, [sp, #24]
    c2dc:	e1520003 	cmp	r2, r3
    c2e0:	1a000003 	bne	c2f4 <decrypt_data+0x1d4>
    c2e4:	e5dd2017 	ldrb	r2, [sp, #23]
    c2e8:	e5dd3019 	ldrb	r3, [sp, #25]
    c2ec:	e1520003 	cmp	r2, r3
    c2f0:	0a00000d 	beq	c32c <decrypt_data+0x20c>
    c2f4:	e59f0184 	ldr	r0, [pc, #388]	; c480 <decrypt_data+0x360>
    c2f8:	e3a06013 	mov	r6, #19
    c2fc:	e3406200 	movt	r6, #512	; 0x200
    c300:	e08f0000 	add	r0, pc, r0
    c304:	eb001796 	bl	12164 <tfp_printf>
    c308:	e59d000c 	ldr	r0, [sp, #12]
    c30c:	ea000002 	b	c31c <decrypt_data+0x1fc>
    c310:	e59d000c 	ldr	r0, [sp, #12]
    c314:	e3a0600c 	mov	r6, #12
    c318:	e3406200 	movt	r6, #512	; 0x200
    c31c:	ebfffee5 	bl	beb8 <release_dfx_context>
    c320:	e1a00006 	mov	r0, r6
    c324:	e28dd030 	add	sp, sp, #48	; 0x30
    c328:	e8bd87f0 	pop	{r4, r5, r6, r7, r8, r9, sl, pc}
    c32c:	e59f0150 	ldr	r0, [pc, #336]	; c484 <decrypt_data+0x364>
    c330:	e08f0000 	add	r0, pc, r0
    c334:	eb00178a 	bl	12164 <tfp_printf>
    c338:	e59d200c 	ldr	r2, [sp, #12]
    c33c:	e5940010 	ldr	r0, [r4, #16]
    c340:	e5923000 	ldr	r3, [r2]
    c344:	e5d2c050 	ldrb	ip, [r2, #80]	; 0x50
    c348:	e59f1138 	ldr	r1, [pc, #312]	; c488 <decrypt_data+0x368>
    c34c:	e2833001 	add	r3, r3, #1
    c350:	e5823000 	str	r3, [r2]
    c354:	e5d43009 	ldrb	r3, [r4, #9]
    c358:	e08f1001 	add	r1, pc, r1
    c35c:	e2533000 	subs	r3, r3, #0
    c360:	13a03001 	movne	r3, #1
    c364:	e7c0c013 	bfi	ip, r3, #0, #1
    c368:	e5c2c050 	strb	ip, [r2, #80]	; 0x50
    c36c:	e5943000 	ldr	r3, [r4]
    c370:	e5823078 	str	r3, [r2, #120]	; 0x78
    c374:	ebfff35e 	bl	90f4 <iobuf_push_filter>
    c378:	e5942010 	ldr	r2, [r4, #16]
    c37c:	e1a01008 	mov	r1, r8
    c380:	e1a00007 	mov	r0, r7
    c384:	eb000ddf 	bl	fb08 <proc_packets>
    c388:	e59d000c 	ldr	r0, [sp, #12]
    c38c:	e3a0200e 	mov	r2, #14
    c390:	e3402200 	movt	r2, #512	; 0x200
    c394:	e3a01000 	mov	r1, #0
    c398:	e5d03050 	ldrb	r3, [r0, #80]	; 0x50
    c39c:	e5841010 	str	r1, [r4, #16]
    c3a0:	e7e130d3 	ubfx	r3, r3, #1, #2
    c3a4:	e3530001 	cmp	r3, #1
    c3a8:	81a06002 	movhi	r6, r2
    c3ac:	eaffffda 	b	c31c <decrypt_data+0x1fc>
    c3b0:	e59f00d4 	ldr	r0, [pc, #212]	; c48c <decrypt_data+0x36c>
    c3b4:	e3a0600e 	mov	r6, #14
    c3b8:	e3406200 	movt	r6, #512	; 0x200
    c3bc:	e08f0000 	add	r0, pc, r0
    c3c0:	eb001767 	bl	12164 <tfp_printf>
    c3c4:	e59d000c 	ldr	r0, [sp, #12]
    c3c8:	eaffffd3 	b	c31c <decrypt_data+0x1fc>
    c3cc:	e59d000c 	ldr	r0, [sp, #12]
    c3d0:	e3a0600e 	mov	r6, #14
    c3d4:	e3406200 	movt	r6, #512	; 0x200
    c3d8:	eaffffcf 	b	c31c <decrypt_data+0x1fc>
    c3dc:	e59f00ac 	ldr	r0, [pc, #172]	; c490 <decrypt_data+0x370>
    c3e0:	e28da00f 	add	sl, sp, #15
    c3e4:	e28d9019 	add	r9, sp, #25
    c3e8:	e08f0000 	add	r0, pc, r0
    c3ec:	eb00175c 	bl	12164 <tfp_printf>
    c3f0:	e5942000 	ldr	r2, [r4]
    c3f4:	ea00000a 	b	c424 <decrypt_data+0x304>
    c3f8:	e5930008 	ldr	r0, [r3, #8]
    c3fc:	e583c018 	str	ip, [r3, #24]
    c400:	e593c020 	ldr	ip, [r3, #32]
    c404:	e2800001 	add	r0, r0, #1
    c408:	e5830008 	str	r0, [r3, #8]
    c40c:	e7dc0001 	ldrb	r0, [ip, r1]
    c410:	e5ea0001 	strb	r0, [sl, #1]!
    c414:	e2422001 	sub	r2, r2, #1
    c418:	e159000a 	cmp	r9, sl
    c41c:	e5842000 	str	r2, [r4]
    c420:	0affff9e 	beq	c2a0 <decrypt_data+0x180>
    c424:	e3520000 	cmp	r2, #0
    c428:	0affff9c 	beq	c2a0 <decrypt_data+0x180>
    c42c:	e5943010 	ldr	r3, [r4, #16]
    c430:	e5931010 	ldr	r1, [r3, #16]
    c434:	e1a00003 	mov	r0, r3
    c438:	e3510000 	cmp	r1, #0
    c43c:	1a000004 	bne	c454 <decrypt_data+0x334>
    c440:	e5931018 	ldr	r1, [r3, #24]
    c444:	e593c01c 	ldr	ip, [r3, #28]
    c448:	e151000c 	cmp	r1, ip
    c44c:	e281c001 	add	ip, r1, #1
    c450:	3affffe8 	bcc	c3f8 <decrypt_data+0x2d8>
    c454:	ebfff3e5 	bl	93f0 <iobuf_readbyte>
    c458:	e3700001 	cmn	r0, #1
    c45c:	e6ef0070 	uxtb	r0, r0
    c460:	0affff8e 	beq	c2a0 <decrypt_data+0x180>
    c464:	e5942000 	ldr	r2, [r4]
    c468:	eaffffe8 	b	c410 <decrypt_data+0x2f0>
    c46c:	e3e06000 	mvn	r6, #0
    c470:	eaffffaa 	b	c320 <decrypt_data+0x200>
    c474:	0000b144 	.word	0x0000b144
    c478:	0000b11c 	.word	0x0000b11c
    c47c:	0000b11c 	.word	0x0000b11c
    c480:	0000afe8 	.word	0x0000afe8
    c484:	0000afc8 	.word	0x0000afc8
    c488:	fffffba4 	.word	0xfffffba4
    c48c:	0000aef8 	.word	0x0000aef8
    c490:	0000aef0 	.word	0x0000aef0

0000c494 <free_symkey_enc>:
    c494:	ea000e2c 	b	fd4c <xfree>

0000c498 <free_encrypted>:
    c498:	e92d4010 	push	{r4, lr}
    c49c:	e2504000 	subs	r4, r0, #0
    c4a0:	08bd8010 	popeq	{r4, pc}
    c4a4:	e5940010 	ldr	r0, [r4, #16]
    c4a8:	e3500000 	cmp	r0, #0
    c4ac:	0a000012 	beq	c4fc <free_encrypted+0x64>
    c4b0:	e5d43009 	ldrb	r3, [r4, #9]
    c4b4:	e3530000 	cmp	r3, #0
    c4b8:	1a000013 	bne	c50c <free_encrypted+0x74>
    c4bc:	e5942000 	ldr	r2, [r4]
    c4c0:	e3520000 	cmp	r2, #0
    c4c4:	1a000006 	bne	c4e4 <free_encrypted+0x4c>
    c4c8:	ea00000b 	b	c4fc <free_encrypted+0x64>
    c4cc:	e5942000 	ldr	r2, [r4]
    c4d0:	e0422000 	sub	r2, r2, r0
    c4d4:	e5842000 	str	r2, [r4]
    c4d8:	e3520000 	cmp	r2, #0
    c4dc:	0a000006 	beq	c4fc <free_encrypted+0x64>
    c4e0:	e5940010 	ldr	r0, [r4, #16]
    c4e4:	e3a01000 	mov	r1, #0
    c4e8:	ebfff479 	bl	96d4 <iobuf_read>
    c4ec:	e3700001 	cmn	r0, #1
    c4f0:	1afffff5 	bne	c4cc <free_encrypted+0x34>
    c4f4:	e3a03000 	mov	r3, #0
    c4f8:	e5843000 	str	r3, [r4]
    c4fc:	e1a00004 	mov	r0, r4
    c500:	e8bd4010 	pop	{r4, lr}
    c504:	ea000e10 	b	fd4c <xfree>
    c508:	e5940010 	ldr	r0, [r4, #16]
    c50c:	e3a02101 	mov	r2, #1073741824	; 0x40000000
    c510:	e3a01000 	mov	r1, #0
    c514:	ebfff46e 	bl	96d4 <iobuf_read>
    c518:	e3700001 	cmn	r0, #1
    c51c:	1afffff9 	bne	c508 <free_encrypted+0x70>
    c520:	e1a00004 	mov	r0, r4
    c524:	e8bd4010 	pop	{r4, lr}
    c528:	ea000e07 	b	fd4c <xfree>

0000c52c <free_plaintext>:
    c52c:	e92d4010 	push	{r4, lr}
    c530:	e2504000 	subs	r4, r0, #0
    c534:	08bd8010 	popeq	{r4, pc}
    c538:	e5940004 	ldr	r0, [r4, #4]
    c53c:	e3500000 	cmp	r0, #0
    c540:	0a000012 	beq	c590 <free_plaintext+0x64>
    c544:	e5d43009 	ldrb	r3, [r4, #9]
    c548:	e3530000 	cmp	r3, #0
    c54c:	1a000013 	bne	c5a0 <free_plaintext+0x74>
    c550:	e5942000 	ldr	r2, [r4]
    c554:	e3520000 	cmp	r2, #0
    c558:	1a000006 	bne	c578 <free_plaintext+0x4c>
    c55c:	ea00000b 	b	c590 <free_plaintext+0x64>
    c560:	e5942000 	ldr	r2, [r4]
    c564:	e0422000 	sub	r2, r2, r0
    c568:	e5842000 	str	r2, [r4]
    c56c:	e3520000 	cmp	r2, #0
    c570:	0a000006 	beq	c590 <free_plaintext+0x64>
    c574:	e5940004 	ldr	r0, [r4, #4]
    c578:	e3a01000 	mov	r1, #0
    c57c:	ebfff454 	bl	96d4 <iobuf_read>
    c580:	e3700001 	cmn	r0, #1
    c584:	1afffff5 	bne	c560 <free_plaintext+0x34>
    c588:	e3a03000 	mov	r3, #0
    c58c:	e5843000 	str	r3, [r4]
    c590:	e1a00004 	mov	r0, r4
    c594:	e8bd4010 	pop	{r4, lr}
    c598:	ea000deb 	b	fd4c <xfree>
    c59c:	e5940004 	ldr	r0, [r4, #4]
    c5a0:	e3a02101 	mov	r2, #1073741824	; 0x40000000
    c5a4:	e3a01000 	mov	r1, #0
    c5a8:	ebfff449 	bl	96d4 <iobuf_read>
    c5ac:	e3700001 	cmn	r0, #1
    c5b0:	1afffff9 	bne	c59c <free_plaintext+0x70>
    c5b4:	e1a00004 	mov	r0, r4
    c5b8:	e8bd4010 	pop	{r4, lr}
    c5bc:	ea000de2 	b	fd4c <xfree>

0000c5c0 <free_packet>:
    c5c0:	e3500000 	cmp	r0, #0
    c5c4:	e92d4010 	push	{r4, lr}
    c5c8:	e1a04001 	mov	r4, r1
    c5cc:	0a000007 	beq	c5f0 <free_packet+0x30>
    c5d0:	e5903004 	ldr	r3, [r0, #4]
    c5d4:	e3530000 	cmp	r3, #0
    c5d8:	0a000004 	beq	c5f0 <free_packet+0x30>
    c5dc:	e5d01000 	ldrb	r1, [r0]
    c5e0:	e59f0050 	ldr	r0, [pc, #80]	; c638 <free_packet+0x78>
    c5e4:	e8bd4010 	pop	{r4, lr}
    c5e8:	e08f0000 	add	r0, pc, r0
    c5ec:	ea0016dc 	b	12164 <tfp_printf>
    c5f0:	e3540000 	cmp	r4, #0
    c5f4:	08bd8010 	popeq	{r4, pc}
    c5f8:	e5943008 	ldr	r3, [r4, #8]
    c5fc:	e3530000 	cmp	r3, #0
    c600:	08bd8010 	popeq	{r4, pc}
    c604:	e594300c 	ldr	r3, [r4, #12]
    c608:	e3530000 	cmp	r3, #0
    c60c:	1a000003 	bne	c620 <free_packet+0x60>
    c610:	e3a03000 	mov	r3, #0
    c614:	e5c43004 	strb	r3, [r4, #4]
    c618:	e5843008 	str	r3, [r4, #8]
    c61c:	e8bd8010 	pop	{r4, pc}
    c620:	e3a01000 	mov	r1, #0
    c624:	e2840004 	add	r0, r4, #4
    c628:	ebffffe4 	bl	c5c0 <free_packet>
    c62c:	e3a03000 	mov	r3, #0
    c630:	e584300c 	str	r3, [r4, #12]
    c634:	eafffff5 	b	c610 <free_packet+0x50>
    c638:	0000ad20 	.word	0x0000ad20

0000c63c <run>:
    c63c:	e92d4ff0 	push	{r4, r5, r6, r7, r8, r9, sl, fp, lr}
    c640:	e24ddf75 	sub	sp, sp, #468	; 0x1d4
    c644:	e59fcff0 	ldr	ip, [pc, #4080]	; d63c <run+0x1000>
    c648:	e3a05000 	mov	r5, #0
    c64c:	e58d0060 	str	r0, [sp, #96]	; 0x60
    c650:	e28d00a0 	add	r0, sp, #160	; 0xa0
    c654:	e08fc00c 	add	ip, pc, ip
    c658:	e1a04001 	mov	r4, r1
    c65c:	e880000c 	stm	r0, {r2, r3}
    c660:	e59d30a4 	ldr	r3, [sp, #164]	; 0xa4
    c664:	e28d00a8 	add	r0, sp, #168	; 0xa8
    c668:	e58d206c 	str	r2, [sp, #108]	; 0x6c
    c66c:	e3a02010 	mov	r2, #16
    c670:	e58d3070 	str	r3, [sp, #112]	; 0x70
    c674:	e58dc064 	str	ip, [sp, #100]	; 0x64
    c678:	e58d0074 	str	r0, [sp, #116]	; 0x74
    c67c:	e58d50a8 	str	r5, [sp, #168]	; 0xa8
    c680:	e5805004 	str	r5, [r0, #4]
    c684:	e5805008 	str	r5, [r0, #8]
    c688:	e580500c 	str	r5, [r0, #12]
    c68c:	eb000de8 	bl	fe34 <memcpy>
    c690:	e59d31fc 	ldr	r3, [sp, #508]	; 0x1fc
    c694:	e58d50b8 	str	r5, [sp, #184]	; 0xb8
    c698:	e1530005 	cmp	r3, r5
    c69c:	e28d30b8 	add	r3, sp, #184	; 0xb8
    c6a0:	e58d50bc 	str	r5, [sp, #188]	; 0xbc
    c6a4:	e58d50c0 	str	r5, [sp, #192]	; 0xc0
    c6a8:	e58d50c4 	str	r5, [sp, #196]	; 0xc4
    c6ac:	e58d3078 	str	r3, [sp, #120]	; 0x78
    c6b0:	1a00042c 	bne	d768 <run+0x112c>
    c6b4:	e59f4f84 	ldr	r4, [pc, #3972]	; d640 <run+0x1004>
    c6b8:	e3a02080 	mov	r2, #128	; 0x80
    c6bc:	e59f3f80 	ldr	r3, [pc, #3968]	; d644 <run+0x1008>
    c6c0:	e3a01000 	mov	r1, #0
    c6c4:	e08f4004 	add	r4, pc, r4
    c6c8:	e28d0e15 	add	r0, sp, #336	; 0x150
    c6cc:	e08f3003 	add	r3, pc, r3
    c6d0:	e58d307c 	str	r3, [sp, #124]	; 0x7c
    c6d4:	e58d4080 	str	r4, [sp, #128]	; 0x80
    c6d8:	eb000d9e 	bl	fd58 <memset>
    c6dc:	e59d2064 	ldr	r2, [sp, #100]	; 0x64
    c6e0:	e59f3f60 	ldr	r3, [pc, #3936]	; d648 <run+0x100c>
    c6e4:	e7929003 	ldr	r9, [r2, r3]
    c6e8:	e59f3f5c 	ldr	r3, [pc, #3932]	; d64c <run+0x1010>
    c6ec:	e792a003 	ldr	sl, [r2, r3]
    c6f0:	e59f3f58 	ldr	r3, [pc, #3928]	; d650 <run+0x1014>
    c6f4:	e7928003 	ldr	r8, [r2, r3]
    c6f8:	e59f3f54 	ldr	r3, [pc, #3924]	; d654 <run+0x1018>
    c6fc:	e792b003 	ldr	fp, [r2, r3]
    c700:	e3a03000 	mov	r3, #0
    c704:	e58d301c 	str	r3, [sp, #28]
    c708:	e28d2e16 	add	r2, sp, #352	; 0x160
    c70c:	e58d3038 	str	r3, [sp, #56]	; 0x38
    c710:	e28d30c8 	add	r3, sp, #200	; 0xc8
    c714:	e58d3068 	str	r3, [sp, #104]	; 0x68
    c718:	e284300f 	add	r3, r4, #15
    c71c:	e58d3084 	str	r3, [sp, #132]	; 0x84
    c720:	e1a0300a 	mov	r3, sl
    c724:	e58d2018 	str	r2, [sp, #24]
    c728:	e1a0a009 	mov	sl, r9
    c72c:	e1a09003 	mov	r9, r3
    c730:	e59d31fc 	ldr	r3, [sp, #508]	; 0x1fc
    c734:	e3530000 	cmp	r3, #0
    c738:	1a000383 	bne	d54c <run+0xf10>
    c73c:	e59d21fc 	ldr	r2, [sp, #508]	; 0x1fc
    c740:	e5dd30b6 	ldrb	r3, [sp, #182]	; 0xb6
    c744:	e59d10a8 	ldr	r1, [sp, #168]	; 0xa8
    c748:	e3520000 	cmp	r2, #0
    c74c:	e5dd20b4 	ldrb	r2, [sp, #180]	; 0xb4
    c750:	e79a3103 	ldr	r3, [sl, r3, lsl #2]
    c754:	e7992102 	ldr	r2, [r9, r2, lsl #2]
    c758:	e0233002 	eor	r3, r3, r2
    c75c:	e5dd20b7 	ldrb	r2, [sp, #183]	; 0xb7
    c760:	e0233001 	eor	r3, r3, r1
    c764:	e7982102 	ldr	r2, [r8, r2, lsl #2]
    c768:	e0233002 	eor	r3, r3, r2
    c76c:	e5dd20b5 	ldrb	r2, [sp, #181]	; 0xb5
    c770:	e79b2102 	ldr	r2, [fp, r2, lsl #2]
    c774:	e0233002 	eor	r3, r3, r2
    c778:	e5dd20b3 	ldrb	r2, [sp, #179]	; 0xb3
    c77c:	e7982102 	ldr	r2, [r8, r2, lsl #2]
    c780:	e0236002 	eor	r6, r3, r2
    c784:	e5dd30b1 	ldrb	r3, [sp, #177]	; 0xb1
    c788:	e1a01c26 	lsr	r1, r6, #24
    c78c:	e59d20b0 	ldr	r2, [sp, #176]	; 0xb0
    c790:	e79b3103 	ldr	r3, [fp, r3, lsl #2]
    c794:	e7e75456 	ubfx	r5, r6, #8, #8
    c798:	e0233002 	eor	r3, r3, r2
    c79c:	e79a2101 	ldr	r2, [sl, r1, lsl #2]
    c7a0:	e58d1020 	str	r1, [sp, #32]
    c7a4:	e0233002 	eor	r3, r3, r2
    c7a8:	e7992105 	ldr	r2, [r9, r5, lsl #2]
    c7ac:	e7e71856 	ubfx	r1, r6, #16, #8
    c7b0:	e0233002 	eor	r3, r3, r2
    c7b4:	e6ef2076 	uxtb	r2, r6
    c7b8:	e58d1030 	str	r1, [sp, #48]	; 0x30
    c7bc:	e7981101 	ldr	r1, [r8, r1, lsl #2]
    c7c0:	e58d2024 	str	r2, [sp, #36]	; 0x24
    c7c4:	e79b2102 	ldr	r2, [fp, r2, lsl #2]
    c7c8:	e0233001 	eor	r3, r3, r1
    c7cc:	e0232002 	eor	r2, r3, r2
    c7d0:	e5dd30b2 	ldrb	r3, [sp, #178]	; 0xb2
    c7d4:	e6ef0072 	uxtb	r0, r2
    c7d8:	e58d1034 	str	r1, [sp, #52]	; 0x34
    c7dc:	e79a1103 	ldr	r1, [sl, r3, lsl #2]
    c7e0:	e59d30b4 	ldr	r3, [sp, #180]	; 0xb4
    c7e4:	e7e7c452 	ubfx	ip, r2, #8, #8
    c7e8:	e0211003 	eor	r1, r1, r3
    c7ec:	e79a3100 	ldr	r3, [sl, r0, lsl #2]
    c7f0:	e58d203c 	str	r2, [sp, #60]	; 0x3c
    c7f4:	e0211003 	eor	r1, r1, r3
    c7f8:	e1a03002 	mov	r3, r2
    c7fc:	e58d20bc 	str	r2, [sp, #188]	; 0xbc
    c800:	e7e72852 	ubfx	r2, r2, #16, #8
    c804:	e58d0028 	str	r0, [sp, #40]	; 0x28
    c808:	e58dc02c 	str	ip, [sp, #44]	; 0x2c
    c80c:	e58d60b8 	str	r6, [sp, #184]	; 0xb8
    c810:	e58d2044 	str	r2, [sp, #68]	; 0x44
    c814:	e799010c 	ldr	r0, [r9, ip, lsl #2]
    c818:	e0211000 	eor	r1, r1, r0
    c81c:	e58d0040 	str	r0, [sp, #64]	; 0x40
    c820:	e1a00c23 	lsr	r0, r3, #24
    c824:	e7983102 	ldr	r3, [r8, r2, lsl #2]
    c828:	e79b2100 	ldr	r2, [fp, r0, lsl #2]
    c82c:	e0211003 	eor	r1, r1, r3
    c830:	e58d204c 	str	r2, [sp, #76]	; 0x4c
    c834:	e0212002 	eor	r2, r1, r2
    c838:	e58d0048 	str	r0, [sp, #72]	; 0x48
    c83c:	e7e70452 	ubfx	r0, r2, #8, #8
    c840:	e5dd10b0 	ldrb	r1, [sp, #176]	; 0xb0
    c844:	e79a7100 	ldr	r7, [sl, r0, lsl #2]
    c848:	e7e70852 	ubfx	r0, r2, #16, #8
    c84c:	e7991101 	ldr	r1, [r9, r1, lsl #2]
    c850:	e799c100 	ldr	ip, [r9, r0, lsl #2]
    c854:	e58d0054 	str	r0, [sp, #84]	; 0x54
    c858:	e59d00ac 	ldr	r0, [sp, #172]	; 0xac
    c85c:	e58d2050 	str	r2, [sp, #80]	; 0x50
    c860:	e0211000 	eor	r1, r1, r0
    c864:	e1a00002 	mov	r0, r2
    c868:	e58d20c0 	str	r2, [sp, #192]	; 0xc0
    c86c:	e6ef2072 	uxtb	r2, r2
    c870:	e0211007 	eor	r1, r1, r7
    c874:	e021100c 	eor	r1, r1, ip
    c878:	e58dc058 	str	ip, [sp, #88]	; 0x58
    c87c:	e1a0cc20 	lsr	ip, r0, #24
    c880:	e7980102 	ldr	r0, [r8, r2, lsl #2]
    c884:	e58dc05c 	str	ip, [sp, #92]	; 0x5c
    c888:	e0211000 	eor	r1, r1, r0
    c88c:	e79b010c 	ldr	r0, [fp, ip, lsl #2]
    c890:	e0214000 	eor	r4, r1, r0
    c894:	e58d40c4 	str	r4, [sp, #196]	; 0xc4
    c898:	1a0003dc 	bne	d810 <run+0x11d4>
    c89c:	e59d1040 	ldr	r1, [sp, #64]	; 0x40
    c8a0:	e59de018 	ldr	lr, [sp, #24]
    c8a4:	e0211003 	eor	r1, r1, r3
    c8a8:	e59d005c 	ldr	r0, [sp, #92]	; 0x5c
    c8ac:	e1a03001 	mov	r3, r1
    c8b0:	e59d104c 	ldr	r1, [sp, #76]	; 0x4c
    c8b4:	e79a0100 	ldr	r0, [sl, r0, lsl #2]
    c8b8:	e0233001 	eor	r3, r3, r1
    c8bc:	e0277003 	eor	r7, r7, r3
    c8c0:	e59d302c 	ldr	r3, [sp, #44]	; 0x2c
    c8c4:	e59d1054 	ldr	r1, [sp, #84]	; 0x54
    c8c8:	e79b3103 	ldr	r3, [fp, r3, lsl #2]
    c8cc:	e7981101 	ldr	r1, [r8, r1, lsl #2]
    c8d0:	e58d302c 	str	r3, [sp, #44]	; 0x2c
    c8d4:	e7993102 	ldr	r3, [r9, r2, lsl #2]
    c8d8:	e59d21fc 	ldr	r2, [sp, #508]	; 0x1fc
    c8dc:	e0277003 	eor	r7, r7, r3
    c8e0:	e7e73454 	ubfx	r3, r4, #8, #8
    c8e4:	e3520000 	cmp	r2, #0
    c8e8:	e50e700c 	str	r7, [lr, #-12]
    c8ec:	e79ac103 	ldr	ip, [sl, r3, lsl #2]
    c8f0:	e59d3028 	ldr	r3, [sp, #40]	; 0x28
    c8f4:	e59d702c 	ldr	r7, [sp, #44]	; 0x2c
    c8f8:	e7983103 	ldr	r3, [r8, r3, lsl #2]
    c8fc:	e79ae105 	ldr	lr, [sl, r5, lsl #2]
    c900:	e0233007 	eor	r3, r3, r7
    c904:	e79b7105 	ldr	r7, [fp, r5, lsl #2]
    c908:	e59d5058 	ldr	r5, [sp, #88]	; 0x58
    c90c:	e023300e 	eor	r3, r3, lr
    c910:	e0233005 	eor	r3, r3, r5
    c914:	e59de018 	ldr	lr, [sp, #24]
    c918:	e0233000 	eor	r3, r3, r0
    c91c:	e50e3010 	str	r3, [lr, #-16]
    c920:	e59d3024 	ldr	r3, [sp, #36]	; 0x24
    c924:	e59d0034 	ldr	r0, [sp, #52]	; 0x34
    c928:	e7983103 	ldr	r3, [r8, r3, lsl #2]
    c92c:	e1a02c24 	lsr	r2, r4, #24
    c930:	e0233007 	eor	r3, r3, r7
    c934:	e0211003 	eor	r1, r1, r3
    c938:	e59d3020 	ldr	r3, [sp, #32]
    c93c:	e58d7040 	str	r7, [sp, #64]	; 0x40
    c940:	e79b3103 	ldr	r3, [fp, r3, lsl #2]
    c944:	e0200003 	eor	r0, r0, r3
    c948:	e6ef3074 	uxtb	r3, r4
    c94c:	e02cc000 	eor	ip, ip, r0
    c950:	e7993103 	ldr	r3, [r9, r3, lsl #2]
    c954:	e79a0102 	ldr	r0, [sl, r2, lsl #2]
    c958:	e02cc003 	eor	ip, ip, r3
    c95c:	e7e73854 	ubfx	r3, r4, #16, #8
    c960:	e0211000 	eor	r1, r1, r0
    c964:	e7993103 	ldr	r3, [r9, r3, lsl #2]
    c968:	e0211003 	eor	r1, r1, r3
    c96c:	e50e1008 	str	r1, [lr, #-8]
    c970:	e79b3102 	ldr	r3, [fp, r2, lsl #2]
    c974:	e02cc003 	eor	ip, ip, r3
    c978:	e59d301c 	ldr	r3, [sp, #28]
    c97c:	e50ec004 	str	ip, [lr, #-4]
    c980:	e2832003 	add	r2, r3, #3
    c984:	1a0003e3 	bne	d918 <run+0x12dc>
    c988:	e59d3040 	ldr	r3, [sp, #64]	; 0x40
    c98c:	e59d202c 	ldr	r2, [sp, #44]	; 0x2c
    c990:	e0266003 	eor	r6, r6, r3
    c994:	e59d3044 	ldr	r3, [sp, #68]	; 0x44
    c998:	e79a3103 	ldr	r3, [sl, r3, lsl #2]
    c99c:	e0222003 	eor	r2, r2, r3
    c9a0:	e1a03002 	mov	r3, r2
    c9a4:	e59d2020 	ldr	r2, [sp, #32]
    c9a8:	e7982102 	ldr	r2, [r8, r2, lsl #2]
    c9ac:	e0233002 	eor	r3, r3, r2
    c9b0:	e59d2028 	ldr	r2, [sp, #40]	; 0x28
    c9b4:	e7992102 	ldr	r2, [r9, r2, lsl #2]
    c9b8:	e0233002 	eor	r3, r3, r2
    c9bc:	e59d2048 	ldr	r2, [sp, #72]	; 0x48
    c9c0:	e7982102 	ldr	r2, [r8, r2, lsl #2]
    c9c4:	e0233002 	eor	r3, r3, r2
    c9c8:	e59d2050 	ldr	r2, [sp, #80]	; 0x50
    c9cc:	e0233002 	eor	r3, r3, r2
    c9d0:	e59d2030 	ldr	r2, [sp, #48]	; 0x30
    c9d4:	e1a00c23 	lsr	r0, r3, #24
    c9d8:	e79ae102 	ldr	lr, [sl, r2, lsl #2]
    c9dc:	e59d203c 	ldr	r2, [sp, #60]	; 0x3c
    c9e0:	e7e7c853 	ubfx	ip, r3, #16, #8
    c9e4:	e022200e 	eor	r2, r2, lr
    c9e8:	e58d30a8 	str	r3, [sp, #168]	; 0xa8
    c9ec:	e1a0e002 	mov	lr, r2
    c9f0:	e59d2024 	ldr	r2, [sp, #36]	; 0x24
    c9f4:	e7991102 	ldr	r1, [r9, r2, lsl #2]
    c9f8:	e59d21fc 	ldr	r2, [sp, #508]	; 0x1fc
    c9fc:	e0247001 	eor	r7, r4, r1
    ca00:	e3520000 	cmp	r2, #0
    ca04:	e7e72453 	ubfx	r2, r3, #8, #8
    ca08:	e6ef3073 	uxtb	r3, r3
    ca0c:	e7991102 	ldr	r1, [r9, r2, lsl #2]
    ca10:	e79a2100 	ldr	r2, [sl, r0, lsl #2]
    ca14:	e79b3103 	ldr	r3, [fp, r3, lsl #2]
    ca18:	e0266002 	eor	r6, r6, r2
    ca1c:	e798210c 	ldr	r2, [r8, ip, lsl #2]
    ca20:	e0266001 	eor	r6, r6, r1
    ca24:	e0222006 	eor	r2, r2, r6
    ca28:	e0222003 	eor	r2, r2, r3
    ca2c:	e7e75852 	ubfx	r5, r2, #16, #8
    ca30:	e6ef3072 	uxtb	r3, r2
    ca34:	e58d20ac 	str	r2, [sp, #172]	; 0xac
    ca38:	e79a3103 	ldr	r3, [sl, r3, lsl #2]
    ca3c:	e58d1024 	str	r1, [sp, #36]	; 0x24
    ca40:	e02ee003 	eor	lr, lr, r3
    ca44:	e7e73452 	ubfx	r3, r2, #8, #8
    ca48:	e1a02c22 	lsr	r2, r2, #24
    ca4c:	e7993103 	ldr	r3, [r9, r3, lsl #2]
    ca50:	e79b1102 	ldr	r1, [fp, r2, lsl #2]
    ca54:	e02ee003 	eor	lr, lr, r3
    ca58:	e58d3028 	str	r3, [sp, #40]	; 0x28
    ca5c:	e7983105 	ldr	r3, [r8, r5, lsl #2]
    ca60:	e023300e 	eor	r3, r3, lr
    ca64:	e0233001 	eor	r3, r3, r1
    ca68:	e7e74453 	ubfx	r4, r3, #8, #8
    ca6c:	e6ef1073 	uxtb	r1, r3
    ca70:	e7e7e853 	ubfx	lr, r3, #16, #8
    ca74:	e7986101 	ldr	r6, [r8, r1, lsl #2]
    ca78:	e79a1104 	ldr	r1, [sl, r4, lsl #2]
    ca7c:	e58d30b0 	str	r3, [sp, #176]	; 0xb0
    ca80:	e0211007 	eor	r1, r1, r7
    ca84:	e799710e 	ldr	r7, [r9, lr, lsl #2]
    ca88:	e1a03c23 	lsr	r3, r3, #24
    ca8c:	e0211007 	eor	r1, r1, r7
    ca90:	e0266001 	eor	r6, r6, r1
    ca94:	e79b1103 	ldr	r1, [fp, r3, lsl #2]
    ca98:	e0266001 	eor	r6, r6, r1
    ca9c:	e58d60b4 	str	r6, [sp, #180]	; 0xb4
    caa0:	1a00037f 	bne	d8a4 <run+0x1268>
    caa4:	e7990100 	ldr	r0, [r9, r0, lsl #2]
    caa8:	e79ac10c 	ldr	ip, [sl, ip, lsl #2]
    caac:	e58d003c 	str	r0, [sp, #60]	; 0x3c
    cab0:	e5dd00b7 	ldrb	r0, [sp, #183]	; 0xb7
    cab4:	e79a1105 	ldr	r1, [sl, r5, lsl #2]
    cab8:	e58dc034 	str	ip, [sp, #52]	; 0x34
    cabc:	e798c100 	ldr	ip, [r8, r0, lsl #2]
    cac0:	e5dd00b4 	ldrb	r0, [sp, #180]	; 0xb4
    cac4:	e58d1040 	str	r1, [sp, #64]	; 0x40
    cac8:	e58d0030 	str	r0, [sp, #48]	; 0x30
    cacc:	e1a06000 	mov	r6, r0
    cad0:	e5dd10a8 	ldrb	r1, [sp, #168]	; 0xa8
    cad4:	e5dd00b0 	ldrb	r0, [sp, #176]	; 0xb0
    cad8:	e7992102 	ldr	r2, [r9, r2, lsl #2]
    cadc:	e58d0020 	str	r0, [sp, #32]
    cae0:	e5dd70b5 	ldrb	r7, [sp, #181]	; 0xb5
    cae4:	e79a0101 	ldr	r0, [sl, r1, lsl #2]
    cae8:	e79b6106 	ldr	r6, [fp, r6, lsl #2]
    caec:	e58d2044 	str	r2, [sp, #68]	; 0x44
    caf0:	e020000c 	eor	r0, r0, ip
    caf4:	e5dd20ac 	ldrb	r2, [sp, #172]	; 0xac
    caf8:	e58dc02c 	str	ip, [sp, #44]	; 0x2c
    cafc:	e798c107 	ldr	ip, [r8, r7, lsl #2]
    cb00:	e7981101 	ldr	r1, [r8, r1, lsl #2]
    cb04:	e02cc006 	eor	ip, ip, r6
    cb08:	e79a6102 	ldr	r6, [sl, r2, lsl #2]
    cb0c:	e79b2102 	ldr	r2, [fp, r2, lsl #2]
    cb10:	e0211006 	eor	r1, r1, r6
    cb14:	e59d6028 	ldr	r6, [sp, #40]	; 0x28
    cb18:	e59d51fc 	ldr	r5, [sp, #508]	; 0x1fc
    cb1c:	e0211006 	eor	r1, r1, r6
    cb20:	e59d6020 	ldr	r6, [sp, #32]
    cb24:	e3550000 	cmp	r5, #0
    cb28:	e5dd50b6 	ldrb	r5, [sp, #182]	; 0xb6
    cb2c:	e79b6106 	ldr	r6, [fp, r6, lsl #2]
    cb30:	e0222006 	eor	r2, r2, r6
    cb34:	e59d6040 	ldr	r6, [sp, #64]	; 0x40
    cb38:	e0222006 	eor	r2, r2, r6
    cb3c:	e59d6044 	ldr	r6, [sp, #68]	; 0x44
    cb40:	e0226006 	eor	r6, r2, r6
    cb44:	e79b2105 	ldr	r2, [fp, r5, lsl #2]
    cb48:	e0200002 	eor	r0, r0, r2
    cb4c:	e59d2024 	ldr	r2, [sp, #36]	; 0x24
    cb50:	e0200002 	eor	r0, r0, r2
    cb54:	e7992105 	ldr	r2, [r9, r5, lsl #2]
    cb58:	e022200c 	eor	r2, r2, ip
    cb5c:	e59dc034 	ldr	ip, [sp, #52]	; 0x34
    cb60:	e022200c 	eor	r2, r2, ip
    cb64:	e59dc03c 	ldr	ip, [sp, #60]	; 0x3c
    cb68:	e022200c 	eor	r2, r2, ip
    cb6c:	e59dc018 	ldr	ip, [sp, #24]
    cb70:	e58c2004 	str	r2, [ip, #4]
    cb74:	e798c103 	ldr	ip, [r8, r3, lsl #2]
    cb78:	e79a3103 	ldr	r3, [sl, r3, lsl #2]
    cb7c:	e021100c 	eor	r1, r1, ip
    cb80:	e0200003 	eor	r0, r0, r3
    cb84:	e79b310e 	ldr	r3, [fp, lr, lsl #2]
    cb88:	e59d2018 	ldr	r2, [sp, #24]
    cb8c:	e0211003 	eor	r1, r1, r3
    cb90:	e7983104 	ldr	r3, [r8, r4, lsl #2]
    cb94:	e5821008 	str	r1, [r2, #8]
    cb98:	e0233006 	eor	r3, r3, r6
    cb9c:	e582300c 	str	r3, [r2, #12]
    cba0:	e59d301c 	ldr	r3, [sp, #28]
    cba4:	e5820000 	str	r0, [r2]
    cba8:	e2831004 	add	r1, r3, #4
    cbac:	e2832007 	add	r2, r3, #7
    cbb0:	1a0003e2 	bne	db40 <run+0x1504>
    cbb4:	e59d302c 	ldr	r3, [sp, #44]	; 0x2c
    cbb8:	e79a210e 	ldr	r2, [sl, lr, lsl #2]
    cbbc:	e59de1fc 	ldr	lr, [sp, #508]	; 0x1fc
    cbc0:	e023300c 	eor	r3, r3, ip
    cbc4:	e79a0105 	ldr	r0, [sl, r5, lsl #2]
    cbc8:	e1a0c003 	mov	ip, r3
    cbcc:	e59d3030 	ldr	r3, [sp, #48]	; 0x30
    cbd0:	e35e0000 	cmp	lr, #0
    cbd4:	e59de0a8 	ldr	lr, [sp, #168]	; 0xa8
    cbd8:	e7995103 	ldr	r5, [r9, r3, lsl #2]
    cbdc:	e02cc00e 	eor	ip, ip, lr
    cbe0:	e79b7107 	ldr	r7, [fp, r7, lsl #2]
    cbe4:	e02cc000 	eor	ip, ip, r0
    cbe8:	e02cc005 	eor	ip, ip, r5
    cbec:	e027700c 	eor	r7, r7, ip
    cbf0:	e79b1104 	ldr	r1, [fp, r4, lsl #2]
    cbf4:	e1a0ec27 	lsr	lr, r7, #24
    cbf8:	e59d00b0 	ldr	r0, [sp, #176]	; 0xb0
    cbfc:	e7e7c457 	ubfx	ip, r7, #8, #8
    cc00:	e0211000 	eor	r1, r1, r0
    cc04:	e79a010e 	ldr	r0, [sl, lr, lsl #2]
    cc08:	e7e74857 	ubfx	r4, r7, #16, #8
    cc0c:	e0211000 	eor	r1, r1, r0
    cc10:	e799010c 	ldr	r0, [r9, ip, lsl #2]
    cc14:	e58dc024 	str	ip, [sp, #36]	; 0x24
    cc18:	e6efc077 	uxtb	ip, r7
    cc1c:	e0211000 	eor	r1, r1, r0
    cc20:	e58d003c 	str	r0, [sp, #60]	; 0x3c
    cc24:	e7980104 	ldr	r0, [r8, r4, lsl #2]
    cc28:	e58dc028 	str	ip, [sp, #40]	; 0x28
    cc2c:	e0211000 	eor	r1, r1, r0
    cc30:	e79b010c 	ldr	r0, [fp, ip, lsl #2]
    cc34:	e59d3020 	ldr	r3, [sp, #32]
    cc38:	e0210000 	eor	r0, r1, r0
    cc3c:	e59d10b4 	ldr	r1, [sp, #180]	; 0xb4
    cc40:	e6efc070 	uxtb	ip, r0
    cc44:	e58de020 	str	lr, [sp, #32]
    cc48:	e7e7e450 	ubfx	lr, r0, #8, #8
    cc4c:	e0211002 	eor	r1, r1, r2
    cc50:	e79a210c 	ldr	r2, [sl, ip, lsl #2]
    cc54:	e58dc044 	str	ip, [sp, #68]	; 0x44
    cc58:	e799c10e 	ldr	ip, [r9, lr, lsl #2]
    cc5c:	e0211002 	eor	r1, r1, r2
    cc60:	e58d2034 	str	r2, [sp, #52]	; 0x34
    cc64:	e7e72850 	ubfx	r2, r0, #16, #8
    cc68:	e021100c 	eor	r1, r1, ip
    cc6c:	e58dc04c 	str	ip, [sp, #76]	; 0x4c
    cc70:	e1a0cc20 	lsr	ip, r0, #24
    cc74:	e7993103 	ldr	r3, [r9, r3, lsl #2]
    cc78:	e58d4030 	str	r4, [sp, #48]	; 0x30
    cc7c:	e58d0040 	str	r0, [sp, #64]	; 0x40
    cc80:	e58d00bc 	str	r0, [sp, #188]	; 0xbc
    cc84:	e58d2050 	str	r2, [sp, #80]	; 0x50
    cc88:	e58d70b8 	str	r7, [sp, #184]	; 0xb8
    cc8c:	e58de048 	str	lr, [sp, #72]	; 0x48
    cc90:	e58dc02c 	str	ip, [sp, #44]	; 0x2c
    cc94:	e7980102 	ldr	r0, [r8, r2, lsl #2]
    cc98:	e59d40ac 	ldr	r4, [sp, #172]	; 0xac
    cc9c:	e0211000 	eor	r1, r1, r0
    cca0:	e79b010c 	ldr	r0, [fp, ip, lsl #2]
    cca4:	e0244003 	eor	r4, r4, r3
    cca8:	e0211000 	eor	r1, r1, r0
    ccac:	e7e72451 	ubfx	r2, r1, #8, #8
    ccb0:	e6ef6071 	uxtb	r6, r1
    ccb4:	e7e75851 	ubfx	r5, r1, #16, #8
    ccb8:	e79a3102 	ldr	r3, [sl, r2, lsl #2]
    ccbc:	e58d1054 	str	r1, [sp, #84]	; 0x54
    ccc0:	e0244003 	eor	r4, r4, r3
    ccc4:	e58d10c0 	str	r1, [sp, #192]	; 0xc0
    ccc8:	e1a03c21 	lsr	r3, r1, #24
    cccc:	e7991105 	ldr	r1, [r9, r5, lsl #2]
    ccd0:	e0244001 	eor	r4, r4, r1
    ccd4:	e7981106 	ldr	r1, [r8, r6, lsl #2]
    ccd8:	e0244001 	eor	r4, r4, r1
    ccdc:	e79b1103 	ldr	r1, [fp, r3, lsl #2]
    cce0:	e0244001 	eor	r4, r4, r1
    cce4:	e58d40c4 	str	r4, [sp, #196]	; 0xc4
    cce8:	1a00036e 	bne	daa8 <run+0x146c>
    ccec:	e59dc050 	ldr	ip, [sp, #80]	; 0x50
    ccf0:	e59de048 	ldr	lr, [sp, #72]	; 0x48
    ccf4:	e59d004c 	ldr	r0, [sp, #76]	; 0x4c
    ccf8:	e59d1034 	ldr	r1, [sp, #52]	; 0x34
    ccfc:	e79ac10c 	ldr	ip, [sl, ip, lsl #2]
    cd00:	e79be10e 	ldr	lr, [fp, lr, lsl #2]
    cd04:	e0211000 	eor	r1, r1, r0
    cd08:	e58de034 	str	lr, [sp, #52]	; 0x34
    cd0c:	e59d0030 	ldr	r0, [sp, #48]	; 0x30
    cd10:	e798e102 	ldr	lr, [r8, r2, lsl #2]
    cd14:	e58dc030 	str	ip, [sp, #48]	; 0x30
    cd18:	e59d21fc 	ldr	r2, [sp, #508]	; 0x1fc
    cd1c:	e798c103 	ldr	ip, [r8, r3, lsl #2]
    cd20:	e7e73454 	ubfx	r3, r4, #8, #8
    cd24:	e3520000 	cmp	r2, #0
    cd28:	e58d1058 	str	r1, [sp, #88]	; 0x58
    cd2c:	e7982103 	ldr	r2, [r8, r3, lsl #2]
    cd30:	e59d3028 	ldr	r3, [sp, #40]	; 0x28
    cd34:	e79a0100 	ldr	r0, [sl, r0, lsl #2]
    cd38:	e79a1103 	ldr	r1, [sl, r3, lsl #2]
    cd3c:	e59d303c 	ldr	r3, [sp, #60]	; 0x3c
    cd40:	e58d004c 	str	r0, [sp, #76]	; 0x4c
    cd44:	e0233001 	eor	r3, r3, r1
    cd48:	e79b6106 	ldr	r6, [fp, r6, lsl #2]
    cd4c:	e1a01003 	mov	r1, r3
    cd50:	e59d3020 	ldr	r3, [sp, #32]
    cd54:	e7993103 	ldr	r3, [r9, r3, lsl #2]
    cd58:	e0233000 	eor	r3, r3, r0
    cd5c:	e0233002 	eor	r3, r3, r2
    cd60:	e6ef2074 	uxtb	r2, r4
    cd64:	e59d0030 	ldr	r0, [sp, #48]	; 0x30
    cd68:	e79b2102 	ldr	r2, [fp, r2, lsl #2]
    cd6c:	e0233002 	eor	r3, r3, r2
    cd70:	e59d202c 	ldr	r2, [sp, #44]	; 0x2c
    cd74:	e58d303c 	str	r3, [sp, #60]	; 0x3c
    cd78:	e7992102 	ldr	r2, [r9, r2, lsl #2]
    cd7c:	e0222000 	eor	r2, r2, r0
    cd80:	e59d0034 	ldr	r0, [sp, #52]	; 0x34
    cd84:	e0222000 	eor	r2, r2, r0
    cd88:	e022200e 	eor	r2, r2, lr
    cd8c:	e0222006 	eor	r2, r2, r6
    cd90:	e59d6018 	ldr	r6, [sp, #24]
    cd94:	e1a00c24 	lsr	r0, r4, #24
    cd98:	e586201c 	str	r2, [r6, #28]
    cd9c:	e79a2105 	ldr	r2, [sl, r5, lsl #2]
    cda0:	e79b5105 	ldr	r5, [fp, r5, lsl #2]
    cda4:	e0211002 	eor	r1, r1, r2
    cda8:	e7e72854 	ubfx	r2, r4, #16, #8
    cdac:	e79be102 	ldr	lr, [fp, r2, lsl #2]
    cdb0:	e59d2024 	ldr	r2, [sp, #36]	; 0x24
    cdb4:	e59d3058 	ldr	r3, [sp, #88]	; 0x58
    cdb8:	e7982102 	ldr	r2, [r8, r2, lsl #2]
    cdbc:	e0222003 	eor	r2, r2, r3
    cdc0:	e022200c 	eor	r2, r2, ip
    cdc4:	e0222005 	eor	r2, r2, r5
    cdc8:	e5862018 	str	r2, [r6, #24]
    cdcc:	e7982100 	ldr	r2, [r8, r0, lsl #2]
    cdd0:	e59d303c 	ldr	r3, [sp, #60]	; 0x3c
    cdd4:	e0211002 	eor	r1, r1, r2
    cdd8:	e7992100 	ldr	r2, [r9, r0, lsl #2]
    cddc:	e02ee001 	eor	lr, lr, r1
    cde0:	e0233002 	eor	r3, r3, r2
    cde4:	e5863014 	str	r3, [r6, #20]
    cde8:	e59d301c 	ldr	r3, [sp, #28]
    cdec:	e586e010 	str	lr, [r6, #16]
    cdf0:	e2831008 	add	r1, r3, #8
    cdf4:	e283200b 	add	r2, r3, #11
    cdf8:	1a000315 	bne	da54 <run+0x1418>
    cdfc:	e59d3034 	ldr	r3, [sp, #52]	; 0x34
    ce00:	e59d1030 	ldr	r1, [sp, #48]	; 0x30
    ce04:	e59d204c 	ldr	r2, [sp, #76]	; 0x4c
    ce08:	e0211003 	eor	r1, r1, r3
    ce0c:	e59d3040 	ldr	r3, [sp, #64]	; 0x40
    ce10:	e0233002 	eor	r3, r3, r2
    ce14:	e59d2020 	ldr	r2, [sp, #32]
    ce18:	e7982102 	ldr	r2, [r8, r2, lsl #2]
    ce1c:	e0211002 	eor	r1, r1, r2
    ce20:	e59d2044 	ldr	r2, [sp, #68]	; 0x44
    ce24:	e7992102 	ldr	r2, [r9, r2, lsl #2]
    ce28:	e0211002 	eor	r1, r1, r2
    ce2c:	e59d202c 	ldr	r2, [sp, #44]	; 0x2c
    ce30:	e7982102 	ldr	r2, [r8, r2, lsl #2]
    ce34:	e0211002 	eor	r1, r1, r2
    ce38:	e59d2054 	ldr	r2, [sp, #84]	; 0x54
    ce3c:	e0211002 	eor	r1, r1, r2
    ce40:	e59d2024 	ldr	r2, [sp, #36]	; 0x24
    ce44:	e7e7c851 	ubfx	ip, r1, #16, #8
    ce48:	e79be102 	ldr	lr, [fp, r2, lsl #2]
    ce4c:	e59d2028 	ldr	r2, [sp, #40]	; 0x28
    ce50:	e798510c 	ldr	r5, [r8, ip, lsl #2]
    ce54:	e7992102 	ldr	r2, [r9, r2, lsl #2]
    ce58:	e7e70451 	ubfx	r0, r1, #8, #8
    ce5c:	e0244002 	eor	r4, r4, r2
    ce60:	e59d21fc 	ldr	r2, [sp, #508]	; 0x1fc
    ce64:	e02ee007 	eor	lr, lr, r7
    ce68:	e58d10a8 	str	r1, [sp, #168]	; 0xa8
    ce6c:	e3520000 	cmp	r2, #0
    ce70:	e1a02c21 	lsr	r2, r1, #24
    ce74:	e6ef1071 	uxtb	r1, r1
    ce78:	e58d5020 	str	r5, [sp, #32]
    ce7c:	e79ac102 	ldr	ip, [sl, r2, lsl #2]
    ce80:	e79b1101 	ldr	r1, [fp, r1, lsl #2]
    ce84:	e02ee00c 	eor	lr, lr, ip
    ce88:	e799c100 	ldr	ip, [r9, r0, lsl #2]
    ce8c:	e02cc00e 	eor	ip, ip, lr
    ce90:	e02cc005 	eor	ip, ip, r5
    ce94:	e02cc001 	eor	ip, ip, r1
    ce98:	e7e7e85c 	ubfx	lr, ip, #16, #8
    ce9c:	e6ef107c 	uxtb	r1, ip
    cea0:	e58dc0ac 	str	ip, [sp, #172]	; 0xac
    cea4:	e79a1101 	ldr	r1, [sl, r1, lsl #2]
    cea8:	e798510e 	ldr	r5, [r8, lr, lsl #2]
    ceac:	e0233001 	eor	r3, r3, r1
    ceb0:	e7e7145c 	ubfx	r1, ip, #8, #8
    ceb4:	e1a0cc2c 	lsr	ip, ip, #24
    ceb8:	e58d5024 	str	r5, [sp, #36]	; 0x24
    cebc:	e79be10c 	ldr	lr, [fp, ip, lsl #2]
    cec0:	e799c101 	ldr	ip, [r9, r1, lsl #2]
    cec4:	e023300c 	eor	r3, r3, ip
    cec8:	e0233005 	eor	r3, r3, r5
    cecc:	e023300e 	eor	r3, r3, lr
    ced0:	e7e7c453 	ubfx	ip, r3, #8, #8
    ced4:	e58d30b0 	str	r3, [sp, #176]	; 0xb0
    ced8:	e79a510c 	ldr	r5, [sl, ip, lsl #2]
    cedc:	e7e7c853 	ubfx	ip, r3, #16, #8
    cee0:	e0244005 	eor	r4, r4, r5
    cee4:	e799c10c 	ldr	ip, [r9, ip, lsl #2]
    cee8:	e024400c 	eor	r4, r4, ip
    ceec:	e58dc028 	str	ip, [sp, #40]	; 0x28
    cef0:	e6efc073 	uxtb	ip, r3
    cef4:	e1a03c23 	lsr	r3, r3, #24
    cef8:	e798c10c 	ldr	ip, [r8, ip, lsl #2]
    cefc:	e024400c 	eor	r4, r4, ip
    cf00:	e79bc103 	ldr	ip, [fp, r3, lsl #2]
    cf04:	e024400c 	eor	r4, r4, ip
    cf08:	e58d40b4 	str	r4, [sp, #180]	; 0xb4
    cf0c:	1a0002af 	bne	d9d0 <run+0x1394>
    cf10:	e79bc101 	ldr	ip, [fp, r1, lsl #2]
    cf14:	e79b0100 	ldr	r0, [fp, r0, lsl #2]
    cf18:	e5dd10b5 	ldrb	r1, [sp, #181]	; 0xb5
    cf1c:	e79b2102 	ldr	r2, [fp, r2, lsl #2]
    cf20:	e58d0030 	str	r0, [sp, #48]	; 0x30
    cf24:	e79a0101 	ldr	r0, [sl, r1, lsl #2]
    cf28:	e5dd10b4 	ldrb	r1, [sp, #180]	; 0xb4
    cf2c:	e5dd70ac 	ldrb	r7, [sp, #172]	; 0xac
    cf30:	e7991101 	ldr	r1, [r9, r1, lsl #2]
    cf34:	e58d2034 	str	r2, [sp, #52]	; 0x34
    cf38:	e5dd20b0 	ldrb	r2, [sp, #176]	; 0xb0
    cf3c:	e0200001 	eor	r0, r0, r1
    cf40:	e58dc02c 	str	ip, [sp, #44]	; 0x2c
    cf44:	e7981107 	ldr	r1, [r8, r7, lsl #2]
    cf48:	e799c102 	ldr	ip, [r9, r2, lsl #2]
    cf4c:	e7997107 	ldr	r7, [r9, r7, lsl #2]
    cf50:	e5dd60a8 	ldrb	r6, [sp, #168]	; 0xa8
    cf54:	e02cc007 	eor	ip, ip, r7
    cf58:	e02cc005 	eor	ip, ip, r5
    cf5c:	e59d5024 	ldr	r5, [sp, #36]	; 0x24
    cf60:	e59d41fc 	ldr	r4, [sp, #508]	; 0x1fc
    cf64:	e02cc005 	eor	ip, ip, r5
    cf68:	e59d5018 	ldr	r5, [sp, #24]
    cf6c:	e3540000 	cmp	r4, #0
    cf70:	e02cc00e 	eor	ip, ip, lr
    cf74:	e585c024 	str	ip, [r5, #36]	; 0x24
    cf78:	e79ac106 	ldr	ip, [sl, r6, lsl #2]
    cf7c:	e5dd40b6 	ldrb	r4, [sp, #182]	; 0xb6
    cf80:	e5dd20b7 	ldrb	r2, [sp, #183]	; 0xb7
    cf84:	e021100c 	eor	r1, r1, ip
    cf88:	e59dc028 	ldr	ip, [sp, #40]	; 0x28
    cf8c:	e799e104 	ldr	lr, [r9, r4, lsl #2]
    cf90:	e79a2102 	ldr	r2, [sl, r2, lsl #2]
    cf94:	e02cc001 	eor	ip, ip, r1
    cf98:	e7981106 	ldr	r1, [r8, r6, lsl #2]
    cf9c:	e022200e 	eor	r2, r2, lr
    cfa0:	e0222001 	eor	r2, r2, r1
    cfa4:	e59d1030 	ldr	r1, [sp, #48]	; 0x30
    cfa8:	e59de020 	ldr	lr, [sp, #32]
    cfac:	e0222001 	eor	r2, r2, r1
    cfb0:	e79b1104 	ldr	r1, [fp, r4, lsl #2]
    cfb4:	e0211000 	eor	r1, r1, r0
    cfb8:	e59d0034 	ldr	r0, [sp, #52]	; 0x34
    cfbc:	e021100e 	eor	r1, r1, lr
    cfc0:	e0211000 	eor	r1, r1, r0
    cfc4:	e585102c 	str	r1, [r5, #44]	; 0x2c
    cfc8:	e79a1103 	ldr	r1, [sl, r3, lsl #2]
    cfcc:	e7983103 	ldr	r3, [r8, r3, lsl #2]
    cfd0:	e021100c 	eor	r1, r1, ip
    cfd4:	e59dc02c 	ldr	ip, [sp, #44]	; 0x2c
    cfd8:	e0222003 	eor	r2, r2, r3
    cfdc:	e59d301c 	ldr	r3, [sp, #28]
    cfe0:	e021100c 	eor	r1, r1, ip
    cfe4:	e5851020 	str	r1, [r5, #32]
    cfe8:	e283100c 	add	r1, r3, #12
    cfec:	e5852028 	str	r2, [r5, #40]	; 0x28
    cff0:	e283200f 	add	r2, r3, #15
    cff4:	1a0001f4 	bne	d7cc <run+0x1190>
    cff8:	e59d3038 	ldr	r3, [sp, #56]	; 0x38
    cffc:	e3530001 	cmp	r3, #1
    d000:	e59d301c 	ldr	r3, [sp, #28]
    d004:	e2833010 	add	r3, r3, #16
    d008:	e58d301c 	str	r3, [sp, #28]
    d00c:	e59d3018 	ldr	r3, [sp, #24]
    d010:	e2833040 	add	r3, r3, #64	; 0x40
    d014:	e58d3018 	str	r3, [sp, #24]
    d018:	1a000146 	bne	d538 <run+0xefc>
    d01c:	e3a02040 	mov	r2, #64	; 0x40
    d020:	e3a01000 	mov	r1, #0
    d024:	e28d00cc 	add	r0, sp, #204	; 0xcc
    d028:	eb000b4a 	bl	fd58 <memset>
    d02c:	e59d306c 	ldr	r3, [sp, #108]	; 0x6c
    d030:	e3a02040 	mov	r2, #64	; 0x40
    d034:	e3a01000 	mov	r1, #0
    d038:	e28d0e11 	add	r0, sp, #272	; 0x110
    d03c:	e58d30c8 	str	r3, [sp, #200]	; 0xc8
    d040:	eb000b44 	bl	fd58 <memset>
    d044:	e59d31fc 	ldr	r3, [sp, #508]	; 0x1fc
    d048:	e3530000 	cmp	r3, #0
    d04c:	1a0001c1 	bne	d758 <run+0x111c>
    d050:	e59d2064 	ldr	r2, [sp, #100]	; 0x64
    d054:	e28d7f43 	add	r7, sp, #268	; 0x10c
    d058:	e59f35f8 	ldr	r3, [pc, #1528]	; d658 <run+0x101c>
    d05c:	e3a04001 	mov	r4, #1
    d060:	e59d5068 	ldr	r5, [sp, #104]	; 0x68
    d064:	e7923003 	ldr	r3, [r2, r3]
    d068:	e59d6070 	ldr	r6, [sp, #112]	; 0x70
    d06c:	e58d3020 	str	r3, [sp, #32]
    d070:	e59f35e4 	ldr	r3, [pc, #1508]	; d65c <run+0x1020>
    d074:	e7923003 	ldr	r3, [r2, r3]
    d078:	e58d3024 	str	r3, [sp, #36]	; 0x24
    d07c:	e59f35dc 	ldr	r3, [pc, #1500]	; d660 <run+0x1024>
    d080:	e7923003 	ldr	r3, [r2, r3]
    d084:	e58d3028 	str	r3, [sp, #40]	; 0x28
    d088:	e59f35d4 	ldr	r3, [pc, #1492]	; d664 <run+0x1028>
    d08c:	e7923003 	ldr	r3, [r2, r3]
    d090:	e58d7018 	str	r7, [sp, #24]
    d094:	e58d302c 	str	r3, [sp, #44]	; 0x2c
    d098:	e30a3aab 	movw	r3, #43691	; 0xaaab
    d09c:	e34a3aaa 	movt	r3, #43690	; 0xaaaa
    d0a0:	e58d301c 	str	r3, [sp, #28]
    d0a4:	e59f35bc 	ldr	r3, [pc, #1468]	; d668 <run+0x102c>
    d0a8:	e08f3003 	add	r3, pc, r3
    d0ac:	e58d3034 	str	r3, [sp, #52]	; 0x34
    d0b0:	e59f35b4 	ldr	r3, [pc, #1460]	; d66c <run+0x1030>
    d0b4:	e08f3003 	add	r3, pc, r3
    d0b8:	e58d3038 	str	r3, [sp, #56]	; 0x38
    d0bc:	ea000021 	b	d148 <run+0xb0c>
    d0c0:	e0899006 	add	r9, r9, r6
    d0c4:	e26aa020 	rsb	sl, sl, #32
    d0c8:	e59d2024 	ldr	r2, [sp, #36]	; 0x24
    d0cc:	e1a09a79 	ror	r9, r9, sl
    d0d0:	e7e73859 	ubfx	r3, r9, #16, #8
    d0d4:	e59d1020 	ldr	r1, [sp, #32]
    d0d8:	e7923103 	ldr	r3, [r2, r3, lsl #2]
    d0dc:	e1a02c29 	lsr	r2, r9, #24
    d0e0:	e7912102 	ldr	r2, [r1, r2, lsl #2]
    d0e4:	e59d1028 	ldr	r1, [sp, #40]	; 0x28
    d0e8:	e0233002 	eor	r3, r3, r2
    d0ec:	e7e72459 	ubfx	r2, r9, #8, #8
    d0f0:	e6ef9079 	uxtb	r9, r9
    d0f4:	e7912102 	ldr	r2, [r1, r2, lsl #2]
    d0f8:	e0433002 	sub	r3, r3, r2
    d0fc:	e59d202c 	ldr	r2, [sp, #44]	; 0x2c
    d100:	e7922109 	ldr	r2, [r2, r9, lsl #2]
    d104:	e0833002 	add	r3, r3, r2
    d108:	e5952000 	ldr	r2, [r5]
    d10c:	e5856004 	str	r6, [r5, #4]
    d110:	e1a06004 	mov	r6, r4
    d114:	e0233002 	eor	r3, r3, r2
    d118:	e59d2018 	ldr	r2, [sp, #24]
    d11c:	e5823004 	str	r3, [r2, #4]
    d120:	e59d3018 	ldr	r3, [sp, #24]
    d124:	e2844001 	add	r4, r4, #1
    d128:	e3540011 	cmp	r4, #17
    d12c:	e2855004 	add	r5, r5, #4
    d130:	e2833004 	add	r3, r3, #4
    d134:	e58d3018 	str	r3, [sp, #24]
    d138:	0a00012b 	beq	d5ec <run+0xfb0>
    d13c:	e28d3e1d 	add	r3, sp, #464	; 0x1d0
    d140:	e0836106 	add	r6, r3, r6, lsl #2
    d144:	e51660c4 	ldr	r6, [r6, #-196]	; 0xffffff3c
    d148:	e59d31f8 	ldr	r3, [sp, #504]	; 0x1f8
    d14c:	e2448001 	sub	r8, r4, #1
    d150:	e3530000 	cmp	r3, #0
    d154:	e59d31fc 	ldr	r3, [sp, #508]	; 0x1fc
    d158:	12647010 	rsbne	r7, r4, #16
    d15c:	01a07008 	moveq	r7, r8
    d160:	e3530000 	cmp	r3, #0
    d164:	e28d3e1d 	add	r3, sp, #464	; 0x1d0
    d168:	e0833107 	add	r3, r3, r7, lsl #2
    d16c:	e287b010 	add	fp, r7, #16
    d170:	e5139080 	ldr	r9, [r3, #-128]	; 0xffffff80
    d174:	e28d3e1d 	add	r3, sp, #464	; 0x1d0
    d178:	e083310b 	add	r3, r3, fp, lsl #2
    d17c:	e5133080 	ldr	r3, [r3, #-128]	; 0xffffff80
    d180:	e203a01f 	and	sl, r3, #31
    d184:	1a00001e 	bne	d204 <run+0xbc8>
    d188:	e59d301c 	ldr	r3, [sp, #28]
    d18c:	e0832793 	umull	r2, r3, r3, r7
    d190:	e3a02003 	mov	r2, #3
    d194:	e1a030a3 	lsr	r3, r3, #1
    d198:	e0637392 	mls	r3, r2, r3, r7
    d19c:	e3530001 	cmp	r3, #1
    d1a0:	0a000076 	beq	d380 <run+0xd44>
    d1a4:	e3530002 	cmp	r3, #2
    d1a8:	1affffc4 	bne	d0c0 <run+0xa84>
    d1ac:	e59d31fc 	ldr	r3, [sp, #508]	; 0x1fc
    d1b0:	e0497006 	sub	r7, r9, r6
    d1b4:	e3530000 	cmp	r3, #0
    d1b8:	e26a3020 	rsb	r3, sl, #32
    d1bc:	e1a07377 	ror	r7, r7, r3
    d1c0:	1a0000b0 	bne	d488 <run+0xe4c>
    d1c4:	e7e73857 	ubfx	r3, r7, #16, #8
    d1c8:	e59d2024 	ldr	r2, [sp, #36]	; 0x24
    d1cc:	e59d1020 	ldr	r1, [sp, #32]
    d1d0:	e7923103 	ldr	r3, [r2, r3, lsl #2]
    d1d4:	e1a02c27 	lsr	r2, r7, #24
    d1d8:	e7912102 	ldr	r2, [r1, r2, lsl #2]
    d1dc:	e59d1028 	ldr	r1, [sp, #40]	; 0x28
    d1e0:	e0833002 	add	r3, r3, r2
    d1e4:	e7e72457 	ubfx	r2, r7, #8, #8
    d1e8:	e6ef7077 	uxtb	r7, r7
    d1ec:	e7912102 	ldr	r2, [r1, r2, lsl #2]
    d1f0:	e0233002 	eor	r3, r3, r2
    d1f4:	e59d202c 	ldr	r2, [sp, #44]	; 0x2c
    d1f8:	e7922107 	ldr	r2, [r2, r7, lsl #2]
    d1fc:	e0433002 	sub	r3, r3, r2
    d200:	eaffffc0 	b	d108 <run+0xacc>
    d204:	e59f0464 	ldr	r0, [pc, #1124]	; d670 <run+0x1034>
    d208:	e1a01008 	mov	r1, r8
    d20c:	e58d3030 	str	r3, [sp, #48]	; 0x30
    d210:	e08f0000 	add	r0, pc, r0
    d214:	eb0013d2 	bl	12164 <tfp_printf>
    d218:	e59d3030 	ldr	r3, [sp, #48]	; 0x30
    d21c:	e1a01007 	mov	r1, r7
    d220:	e59f044c 	ldr	r0, [pc, #1100]	; d674 <run+0x1038>
    d224:	e1a02009 	mov	r2, r9
    d228:	e88d0408 	stm	sp, {r3, sl}
    d22c:	e08f0000 	add	r0, pc, r0
    d230:	e1a0300b 	mov	r3, fp
    d234:	eb0013ca 	bl	12164 <tfp_printf>
    d238:	e59f0438 	ldr	r0, [pc, #1080]	; d678 <run+0x103c>
    d23c:	e1a02006 	mov	r2, r6
    d240:	e5951000 	ldr	r1, [r5]
    d244:	e08f0000 	add	r0, pc, r0
    d248:	eb0013c5 	bl	12164 <tfp_printf>
    d24c:	e59d301c 	ldr	r3, [sp, #28]
    d250:	e0832793 	umull	r2, r3, r3, r7
    d254:	e3a02003 	mov	r2, #3
    d258:	e1a030a3 	lsr	r3, r3, #1
    d25c:	e0637392 	mls	r3, r2, r3, r7
    d260:	e3530001 	cmp	r3, #1
    d264:	0a000058 	beq	d3cc <run+0xd90>
    d268:	e3530002 	cmp	r3, #2
    d26c:	0affffce 	beq	d1ac <run+0xb70>
    d270:	e0897006 	add	r7, r9, r6
    d274:	e26a3020 	rsb	r3, sl, #32
    d278:	e59f03fc 	ldr	r0, [pc, #1020]	; d67c <run+0x1040>
    d27c:	e1a01009 	mov	r1, r9
    d280:	e1a07377 	ror	r7, r7, r3
    d284:	e1a02006 	mov	r2, r6
    d288:	e08f0000 	add	r0, pc, r0
    d28c:	e1a0300a 	mov	r3, sl
    d290:	e58d7000 	str	r7, [sp]
    d294:	e7e7a857 	ubfx	sl, r7, #16, #8
    d298:	eb0013b1 	bl	12164 <tfp_printf>
    d29c:	e59f03dc 	ldr	r0, [pc, #988]	; d680 <run+0x1044>
    d2a0:	e1a0200a 	mov	r2, sl
    d2a4:	e1a09c27 	lsr	r9, r7, #24
    d2a8:	e7e7b457 	ubfx	fp, r7, #8, #8
    d2ac:	e6ef7077 	uxtb	r7, r7
    d2b0:	e08f0000 	add	r0, pc, r0
    d2b4:	e1a0300b 	mov	r3, fp
    d2b8:	e58d7000 	str	r7, [sp]
    d2bc:	e1a01009 	mov	r1, r9
    d2c0:	eb0013a7 	bl	12164 <tfp_printf>
    d2c4:	e59d302c 	ldr	r3, [sp, #44]	; 0x2c
    d2c8:	e58d700c 	str	r7, [sp, #12]
    d2cc:	e7930107 	ldr	r0, [r3, r7, lsl #2]
    d2d0:	e59d3028 	ldr	r3, [sp, #40]	; 0x28
    d2d4:	e58d0010 	str	r0, [sp, #16]
    d2d8:	e793c10b 	ldr	ip, [r3, fp, lsl #2]
    d2dc:	e59d3020 	ldr	r3, [sp, #32]
    d2e0:	e58db004 	str	fp, [sp, #4]
    d2e4:	e7932109 	ldr	r2, [r3, r9, lsl #2]
    d2e8:	e59d3024 	ldr	r3, [sp, #36]	; 0x24
    d2ec:	e58dc008 	str	ip, [sp, #8]
    d2f0:	e793110a 	ldr	r1, [r3, sl, lsl #2]
    d2f4:	e1a0300a 	mov	r3, sl
    d2f8:	e0227001 	eor	r7, r2, r1
    d2fc:	e047700c 	sub	r7, r7, ip
    d300:	e0877000 	add	r7, r7, r0
    d304:	e59f0378 	ldr	r0, [pc, #888]	; d684 <run+0x1048>
    d308:	e58d1000 	str	r1, [sp]
    d30c:	e1a01009 	mov	r1, r9
    d310:	e08f0000 	add	r0, pc, r0
    d314:	eb001392 	bl	12164 <tfp_printf>
    d318:	e59f0368 	ldr	r0, [pc, #872]	; d688 <run+0x104c>
    d31c:	e1a01007 	mov	r1, r7
    d320:	e08f0000 	add	r0, pc, r0
    d324:	eb00138e 	bl	12164 <tfp_printf>
    d328:	e5959000 	ldr	r9, [r5]
    d32c:	e1a01008 	mov	r1, r8
    d330:	e59d3018 	ldr	r3, [sp, #24]
    d334:	e027a009 	eor	sl, r7, r9
    d338:	e59d0034 	ldr	r0, [sp, #52]	; 0x34
    d33c:	e5856004 	str	r6, [r5, #4]
    d340:	e583a004 	str	sl, [r3, #4]
    d344:	eb001386 	bl	12164 <tfp_printf>
    d348:	e59d0038 	ldr	r0, [sp, #56]	; 0x38
    d34c:	e1a03006 	mov	r3, r6
    d350:	e1a02008 	mov	r2, r8
    d354:	e1a01004 	mov	r1, r4
    d358:	e1a06004 	mov	r6, r4
    d35c:	eb001380 	bl	12164 <tfp_printf>
    d360:	e59f0324 	ldr	r0, [pc, #804]	; d68c <run+0x1050>
    d364:	e1a03009 	mov	r3, r9
    d368:	e1a02008 	mov	r2, r8
    d36c:	e1a01004 	mov	r1, r4
    d370:	e08f0000 	add	r0, pc, r0
    d374:	e88d0480 	stm	sp, {r7, sl}
    d378:	eb001379 	bl	12164 <tfp_printf>
    d37c:	eaffff67 	b	d120 <run+0xae4>
    d380:	e0299006 	eor	r9, r9, r6
    d384:	e26aa020 	rsb	sl, sl, #32
    d388:	e59d2028 	ldr	r2, [sp, #40]	; 0x28
    d38c:	e1a09a79 	ror	r9, r9, sl
    d390:	e7e73459 	ubfx	r3, r9, #8, #8
    d394:	e59d1020 	ldr	r1, [sp, #32]
    d398:	e7923103 	ldr	r3, [r2, r3, lsl #2]
    d39c:	e1a02c29 	lsr	r2, r9, #24
    d3a0:	e7912102 	ldr	r2, [r1, r2, lsl #2]
    d3a4:	e59d1024 	ldr	r1, [sp, #36]	; 0x24
    d3a8:	e0833002 	add	r3, r3, r2
    d3ac:	e7e72859 	ubfx	r2, r9, #16, #8
    d3b0:	e6ef9079 	uxtb	r9, r9
    d3b4:	e7912102 	ldr	r2, [r1, r2, lsl #2]
    d3b8:	e0433002 	sub	r3, r3, r2
    d3bc:	e59d202c 	ldr	r2, [sp, #44]	; 0x2c
    d3c0:	e7922109 	ldr	r2, [r2, r9, lsl #2]
    d3c4:	e0233002 	eor	r3, r3, r2
    d3c8:	eaffff4e 	b	d108 <run+0xacc>
    d3cc:	e0297006 	eor	r7, r9, r6
    d3d0:	e26a3020 	rsb	r3, sl, #32
    d3d4:	e59f02b4 	ldr	r0, [pc, #692]	; d690 <run+0x1054>
    d3d8:	e1a01009 	mov	r1, r9
    d3dc:	e1a07377 	ror	r7, r7, r3
    d3e0:	e1a02006 	mov	r2, r6
    d3e4:	e58d7000 	str	r7, [sp]
    d3e8:	e1a0300a 	mov	r3, sl
    d3ec:	e08f0000 	add	r0, pc, r0
    d3f0:	e7e7a857 	ubfx	sl, r7, #16, #8
    d3f4:	eb00135a 	bl	12164 <tfp_printf>
    d3f8:	e59f0294 	ldr	r0, [pc, #660]	; d694 <run+0x1058>
    d3fc:	e1a0200a 	mov	r2, sl
    d400:	e1a09c27 	lsr	r9, r7, #24
    d404:	e7e7b457 	ubfx	fp, r7, #8, #8
    d408:	e6ef7077 	uxtb	r7, r7
    d40c:	e58d7000 	str	r7, [sp]
    d410:	e1a0300b 	mov	r3, fp
    d414:	e08f0000 	add	r0, pc, r0
    d418:	e1a01009 	mov	r1, r9
    d41c:	eb001350 	bl	12164 <tfp_printf>
    d420:	e59d302c 	ldr	r3, [sp, #44]	; 0x2c
    d424:	e59d2020 	ldr	r2, [sp, #32]
    d428:	e7931107 	ldr	r1, [r3, r7, lsl #2]
    d42c:	e59d3028 	ldr	r3, [sp, #40]	; 0x28
    d430:	e7922109 	ldr	r2, [r2, r9, lsl #2]
    d434:	e793310b 	ldr	r3, [r3, fp, lsl #2]
    d438:	e58d700c 	str	r7, [sp, #12]
    d43c:	e58d3008 	str	r3, [sp, #8]
    d440:	e0827003 	add	r7, r2, r3
    d444:	e59d3024 	ldr	r3, [sp, #36]	; 0x24
    d448:	e58d1010 	str	r1, [sp, #16]
    d44c:	e793010a 	ldr	r0, [r3, sl, lsl #2]
    d450:	e1a0300a 	mov	r3, sl
    d454:	e58db004 	str	fp, [sp, #4]
    d458:	e58d0000 	str	r0, [sp]
    d45c:	e0477000 	sub	r7, r7, r0
    d460:	e59f0230 	ldr	r0, [pc, #560]	; d698 <run+0x105c>
    d464:	e0277001 	eor	r7, r7, r1
    d468:	e1a01009 	mov	r1, r9
    d46c:	e08f0000 	add	r0, pc, r0
    d470:	eb00133b 	bl	12164 <tfp_printf>
    d474:	e59f0220 	ldr	r0, [pc, #544]	; d69c <run+0x1060>
    d478:	e1a01007 	mov	r1, r7
    d47c:	e08f0000 	add	r0, pc, r0
    d480:	eb001337 	bl	12164 <tfp_printf>
    d484:	eaffffa7 	b	d328 <run+0xcec>
    d488:	e59f0210 	ldr	r0, [pc, #528]	; d6a0 <run+0x1064>
    d48c:	e1a0300a 	mov	r3, sl
    d490:	e58d7000 	str	r7, [sp]
    d494:	e1a01009 	mov	r1, r9
    d498:	e08f0000 	add	r0, pc, r0
    d49c:	e1a02006 	mov	r2, r6
    d4a0:	e7e7a857 	ubfx	sl, r7, #16, #8
    d4a4:	eb00132e 	bl	12164 <tfp_printf>
    d4a8:	e59f01f4 	ldr	r0, [pc, #500]	; d6a4 <run+0x1068>
    d4ac:	e1a0200a 	mov	r2, sl
    d4b0:	e1a09c27 	lsr	r9, r7, #24
    d4b4:	e7e7b457 	ubfx	fp, r7, #8, #8
    d4b8:	e6ef7077 	uxtb	r7, r7
    d4bc:	e58d7000 	str	r7, [sp]
    d4c0:	e1a0300b 	mov	r3, fp
    d4c4:	e08f0000 	add	r0, pc, r0
    d4c8:	e1a01009 	mov	r1, r9
    d4cc:	eb001324 	bl	12164 <tfp_printf>
    d4d0:	e59d302c 	ldr	r3, [sp, #44]	; 0x2c
    d4d4:	e58d700c 	str	r7, [sp, #12]
    d4d8:	e7930107 	ldr	r0, [r3, r7, lsl #2]
    d4dc:	e59d3028 	ldr	r3, [sp, #40]	; 0x28
    d4e0:	e58d0010 	str	r0, [sp, #16]
    d4e4:	e793c10b 	ldr	ip, [r3, fp, lsl #2]
    d4e8:	e59d3020 	ldr	r3, [sp, #32]
    d4ec:	e58db004 	str	fp, [sp, #4]
    d4f0:	e7932109 	ldr	r2, [r3, r9, lsl #2]
    d4f4:	e59d3024 	ldr	r3, [sp, #36]	; 0x24
    d4f8:	e58dc008 	str	ip, [sp, #8]
    d4fc:	e793110a 	ldr	r1, [r3, sl, lsl #2]
    d500:	e1a0300a 	mov	r3, sl
    d504:	e0817002 	add	r7, r1, r2
    d508:	e027700c 	eor	r7, r7, ip
    d50c:	e0477000 	sub	r7, r7, r0
    d510:	e59f0190 	ldr	r0, [pc, #400]	; d6a8 <run+0x106c>
    d514:	e58d1000 	str	r1, [sp]
    d518:	e1a01009 	mov	r1, r9
    d51c:	e08f0000 	add	r0, pc, r0
    d520:	eb00130f 	bl	12164 <tfp_printf>
    d524:	e59f0180 	ldr	r0, [pc, #384]	; d6ac <run+0x1070>
    d528:	e1a01007 	mov	r1, r7
    d52c:	e08f0000 	add	r0, pc, r0
    d530:	eb00130b 	bl	12164 <tfp_printf>
    d534:	eaffff7b 	b	d328 <run+0xcec>
    d538:	e3a03001 	mov	r3, #1
    d53c:	e58d3038 	str	r3, [sp, #56]	; 0x38
    d540:	e59d31fc 	ldr	r3, [sp, #508]	; 0x1fc
    d544:	e3530000 	cmp	r3, #0
    d548:	0afffc7b 	beq	c73c <run+0x100>
    d54c:	e59d1038 	ldr	r1, [sp, #56]	; 0x38
    d550:	e59d007c 	ldr	r0, [sp, #124]	; 0x7c
    d554:	e59f4154 	ldr	r4, [pc, #340]	; d6b0 <run+0x1074>
    d558:	eb001301 	bl	12164 <tfp_printf>
    d55c:	e59f0150 	ldr	r0, [pc, #336]	; d6b4 <run+0x1078>
    d560:	e59d5074 	ldr	r5, [sp, #116]	; 0x74
    d564:	e08f0000 	add	r0, pc, r0
    d568:	e08f4004 	add	r4, pc, r4
    d56c:	eb0012fc 	bl	12164 <tfp_printf>
    d570:	e59d6078 	ldr	r6, [sp, #120]	; 0x78
    d574:	e4951004 	ldr	r1, [r5], #4
    d578:	e1a00004 	mov	r0, r4
    d57c:	eb0012f8 	bl	12164 <tfp_printf>
    d580:	e1560005 	cmp	r6, r5
    d584:	1afffffa 	bne	d574 <run+0xf38>
    d588:	e59f0128 	ldr	r0, [pc, #296]	; d6b8 <run+0x107c>
    d58c:	e59f4128 	ldr	r4, [pc, #296]	; d6bc <run+0x1080>
    d590:	e08f0000 	add	r0, pc, r0
    d594:	e08f4004 	add	r4, pc, r4
    d598:	eb0012f1 	bl	12164 <tfp_printf>
    d59c:	e59f011c 	ldr	r0, [pc, #284]	; d6c0 <run+0x1084>
    d5a0:	e08f0000 	add	r0, pc, r0
    d5a4:	eb0012ee 	bl	12164 <tfp_printf>
    d5a8:	e59d3080 	ldr	r3, [sp, #128]	; 0x80
    d5ac:	e59d6084 	ldr	r6, [sp, #132]	; 0x84
    d5b0:	e2835008 	add	r5, r3, #8
    d5b4:	e3a0300b 	mov	r3, #11
    d5b8:	ea000000 	b	d5c0 <run+0xf84>
    d5bc:	e5f53001 	ldrb	r3, [r5, #1]!
    d5c0:	e2833e1d 	add	r3, r3, #464	; 0x1d0
    d5c4:	e1a00004 	mov	r0, r4
    d5c8:	e08d3003 	add	r3, sp, r3
    d5cc:	e5531128 	ldrb	r1, [r3, #-296]	; 0xfffffed8
    d5d0:	eb0012e3 	bl	12164 <tfp_printf>
    d5d4:	e1560005 	cmp	r6, r5
    d5d8:	1afffff7 	bne	d5bc <run+0xf80>
    d5dc:	e59f00e0 	ldr	r0, [pc, #224]	; d6c4 <run+0x1088>
    d5e0:	e08f0000 	add	r0, pc, r0
    d5e4:	eb0012de 	bl	12164 <tfp_printf>
    d5e8:	eafffc53 	b	c73c <run+0x100>
    d5ec:	e59d31fc 	ldr	r3, [sp, #508]	; 0x1fc
    d5f0:	e59d514c 	ldr	r5, [sp, #332]	; 0x14c
    d5f4:	e59d4108 	ldr	r4, [sp, #264]	; 0x108
    d5f8:	e3530000 	cmp	r3, #0
    d5fc:	1a000005 	bne	d618 <run+0xfdc>
    d600:	e59d3060 	ldr	r3, [sp, #96]	; 0x60
    d604:	e5835000 	str	r5, [r3]
    d608:	e1a00003 	mov	r0, r3
    d60c:	e5834004 	str	r4, [r3, #4]
    d610:	e28ddf75 	add	sp, sp, #468	; 0x1d4
    d614:	e8bd8ff0 	pop	{r4, r5, r6, r7, r8, r9, sl, fp, pc}
    d618:	e59f00a8 	ldr	r0, [pc, #168]	; d6c8 <run+0x108c>
    d61c:	e08f0000 	add	r0, pc, r0
    d620:	eb0012cf 	bl	12164 <tfp_printf>
    d624:	e59f00a0 	ldr	r0, [pc, #160]	; d6cc <run+0x1090>
    d628:	e1a02004 	mov	r2, r4
    d62c:	e1a01005 	mov	r1, r5
    d630:	e08f0000 	add	r0, pc, r0
    d634:	eb0012ca 	bl	12164 <tfp_printf>
    d638:	eafffff0 	b	d600 <run+0xfc4>
    d63c:	0002f4d0 	.word	0x0002f4d0
    d640:	000078a0 	.word	0x000078a0
    d644:	0000acbc 	.word	0x0000acbc
    d648:	00000050 	.word	0x00000050
    d64c:	00000014 	.word	0x00000014
    d650:	00000028 	.word	0x00000028
    d654:	00000010 	.word	0x00000010
    d658:	00000024 	.word	0x00000024
    d65c:	0000004c 	.word	0x0000004c
    d660:	00000000 	.word	0x00000000
    d664:	00000044 	.word	0x00000044
    d668:	0000a51c 	.word	0x0000a51c
    d66c:	0000a524 	.word	0x0000a524
    d670:	0000a268 	.word	0x0000a268
    d674:	0000a25c 	.word	0x0000a25c
    d678:	0000a274 	.word	0x0000a274
    d67c:	0000a394 	.word	0x0000a394
    d680:	0000a264 	.word	0x0000a264
    d684:	0000a224 	.word	0x0000a224
    d688:	0000a25c 	.word	0x0000a25c
    d68c:	0000a280 	.word	0x0000a280
    d690:	0000a270 	.word	0x0000a270
    d694:	0000a100 	.word	0x0000a100
    d698:	0000a0c8 	.word	0x0000a0c8
    d69c:	0000a100 	.word	0x0000a100
    d6a0:	0000a038 	.word	0x0000a038
    d6a4:	0000a050 	.word	0x0000a050
    d6a8:	0000a018 	.word	0x0000a018
    d6ac:	0000a050 	.word	0x0000a050
    d6b0:	00009e54 	.word	0x00009e54
    d6b4:	00009e44 	.word	0x00009e44
    d6b8:	00009d74 	.word	0x00009d74
    d6bc:	00009e40 	.word	0x00009e40
    d6c0:	00009e24 	.word	0x00009e24
    d6c4:	00009d24 	.word	0x00009d24
    d6c8:	00009f78 	.word	0x00009f78
    d6cc:	00009f7c 	.word	0x00009f7c
    d6d0:	00009d00 	.word	0x00009d00
    d6d4:	00009ba8 	.word	0x00009ba8
    d6d8:	00009bcc 	.word	0x00009bcc
    d6dc:	00009bb4 	.word	0x00009bb4
    d6e0:	00009ba4 	.word	0x00009ba4
    d6e4:	00009bb4 	.word	0x00009bb4
    d6e8:	00009c1c 	.word	0x00009c1c
    d6ec:	00009be4 	.word	0x00009be4
    d6f0:	00009b00 	.word	0x00009b00
    d6f4:	00009bc0 	.word	0x00009bc0
    d6f8:	00009b9c 	.word	0x00009b9c
    d6fc:	00009a84 	.word	0x00009a84
    d700:	00009b6c 	.word	0x00009b6c
    d704:	00009b0c 	.word	0x00009b0c
    d708:	00009a2c 	.word	0x00009a2c
    d70c:	00009acc 	.word	0x00009acc
    d710:	00009a94 	.word	0x00009a94
    d714:	000099a4 	.word	0x000099a4
    d718:	000065f0 	.word	0x000065f0
    d71c:	00009a84 	.word	0x00009a84
    d720:	00009a58 	.word	0x00009a58
    d724:	00009940 	.word	0x00009940
    d728:	00009a6c 	.word	0x00009a6c
    d72c:	000099e0 	.word	0x000099e0
    d730:	00009900 	.word	0x00009900
    d734:	00009994 	.word	0x00009994
    d738:	0000995c 	.word	0x0000995c
    d73c:	00009868 	.word	0x00009868
    d740:	0000997c 	.word	0x0000997c
    d744:	00009904 	.word	0x00009904
    d748:	000097ec 	.word	0x000097ec
    d74c:	000098a8 	.word	0x000098a8
    d750:	00009870 	.word	0x00009870
    d754:	0000978c 	.word	0x0000978c
    d758:	e51f0090 	ldr	r0, [pc, #-144]	; d6d0 <run+0x1094>
    d75c:	e08f0000 	add	r0, pc, r0
    d760:	eb00127f 	bl	12164 <tfp_printf>
    d764:	eafffe39 	b	d050 <run+0xa14>
    d768:	e51f009c 	ldr	r0, [pc, #-156]	; d6d4 <run+0x1098>
    d76c:	e2446004 	sub	r6, r4, #4
    d770:	e51f50a0 	ldr	r5, [pc, #-160]	; d6d8 <run+0x109c>
    d774:	e284400c 	add	r4, r4, #12
    d778:	e08f0000 	add	r0, pc, r0
    d77c:	e08f5005 	add	r5, pc, r5
    d780:	eb001277 	bl	12164 <tfp_printf>
    d784:	e51f00b0 	ldr	r0, [pc, #-176]	; d6dc <run+0x10a0>
    d788:	e08f0000 	add	r0, pc, r0
    d78c:	eb001274 	bl	12164 <tfp_printf>
    d790:	e5b61004 	ldr	r1, [r6, #4]!
    d794:	e1a00005 	mov	r0, r5
    d798:	eb001271 	bl	12164 <tfp_printf>
    d79c:	e1540006 	cmp	r4, r6
    d7a0:	1afffffa 	bne	d790 <run+0x1154>
    d7a4:	e51f00cc 	ldr	r0, [pc, #-204]	; d6e0 <run+0x10a4>
    d7a8:	e59d106c 	ldr	r1, [sp, #108]	; 0x6c
    d7ac:	e08f0000 	add	r0, pc, r0
    d7b0:	e59d2070 	ldr	r2, [sp, #112]	; 0x70
    d7b4:	eb00126a 	bl	12164 <tfp_printf>
    d7b8:	e51f00dc 	ldr	r0, [pc, #-220]	; d6e4 <run+0x10a8>
    d7bc:	e59d11f8 	ldr	r1, [sp, #504]	; 0x1f8
    d7c0:	e08f0000 	add	r0, pc, r0
    d7c4:	eb001266 	bl	12164 <tfp_printf>
    d7c8:	eafffbb9 	b	c6b4 <run+0x78>
    d7cc:	e51f00ec 	ldr	r0, [pc, #-236]	; d6e8 <run+0x10ac>
    d7d0:	e51f50ec 	ldr	r5, [pc, #-236]	; d6ec <run+0x10b0>
    d7d4:	e08f0000 	add	r0, pc, r0
    d7d8:	e08f5005 	add	r5, pc, r5
    d7dc:	eb001260 	bl	12164 <tfp_printf>
    d7e0:	e59d3018 	ldr	r3, [sp, #24]
    d7e4:	e2836020 	add	r6, r3, #32
    d7e8:	e2834030 	add	r4, r3, #48	; 0x30
    d7ec:	e4961004 	ldr	r1, [r6], #4
    d7f0:	e1a00005 	mov	r0, r5
    d7f4:	eb00125a 	bl	12164 <tfp_printf>
    d7f8:	e1540006 	cmp	r4, r6
    d7fc:	1afffffa 	bne	d7ec <run+0x11b0>
    d800:	e51f0118 	ldr	r0, [pc, #-280]	; d6f0 <run+0x10b4>
    d804:	e08f0000 	add	r0, pc, r0
    d808:	eb001255 	bl	12164 <tfp_printf>
    d80c:	eafffdf9 	b	cff8 <run+0x9bc>
    d810:	e58d3094 	str	r3, [sp, #148]	; 0x94
    d814:	e51f0128 	ldr	r0, [pc, #-296]	; d6f4 <run+0x10b8>
    d818:	e51f3128 	ldr	r3, [pc, #-296]	; d6f8 <run+0x10bc>
    d81c:	e08f0000 	add	r0, pc, r0
    d820:	e08f3003 	add	r3, pc, r3
    d824:	e58d2098 	str	r2, [sp, #152]	; 0x98
    d828:	e58d3088 	str	r3, [sp, #136]	; 0x88
    d82c:	eb00124c 	bl	12164 <tfp_printf>
    d830:	e58d5090 	str	r5, [sp, #144]	; 0x90
    d834:	e28d00bc 	add	r0, sp, #188	; 0xbc
    d838:	e59d5088 	ldr	r5, [sp, #136]	; 0x88
    d83c:	e1a01006 	mov	r1, r6
    d840:	e58d608c 	str	r6, [sp, #140]	; 0x8c
    d844:	e59d6068 	ldr	r6, [sp, #104]	; 0x68
    d848:	e58d409c 	str	r4, [sp, #156]	; 0x9c
    d84c:	e1a04000 	mov	r4, r0
    d850:	e1a00005 	mov	r0, r5
    d854:	eb001242 	bl	12164 <tfp_printf>
    d858:	e1560004 	cmp	r6, r4
    d85c:	0a000004 	beq	d874 <run+0x1238>
    d860:	e4941004 	ldr	r1, [r4], #4
    d864:	e1a00005 	mov	r0, r5
    d868:	eb00123d 	bl	12164 <tfp_printf>
    d86c:	e1560004 	cmp	r6, r4
    d870:	1afffffa 	bne	d860 <run+0x1224>
    d874:	e51f0180 	ldr	r0, [pc, #-384]	; d6fc <run+0x10c0>
    d878:	e59d3094 	ldr	r3, [sp, #148]	; 0x94
    d87c:	e59d2098 	ldr	r2, [sp, #152]	; 0x98
    d880:	e08f0000 	add	r0, pc, r0
    d884:	e59d608c 	ldr	r6, [sp, #140]	; 0x8c
    d888:	e58d2088 	str	r2, [sp, #136]	; 0x88
    d88c:	e58d308c 	str	r3, [sp, #140]	; 0x8c
    d890:	e59d5090 	ldr	r5, [sp, #144]	; 0x90
    d894:	e59d409c 	ldr	r4, [sp, #156]	; 0x9c
    d898:	eb001231 	bl	12164 <tfp_printf>
    d89c:	e1cd28d8 	ldrd	r2, [sp, #136]	; 0x88
    d8a0:	eafffbfd 	b	c89c <run+0x260>
    d8a4:	e51f01ac 	ldr	r0, [pc, #-428]	; d700 <run+0x10c4>
    d8a8:	e51f41ac 	ldr	r4, [pc, #-428]	; d704 <run+0x10c8>
    d8ac:	e08f0000 	add	r0, pc, r0
    d8b0:	e08f4004 	add	r4, pc, r4
    d8b4:	eb00122a 	bl	12164 <tfp_printf>
    d8b8:	e59d5074 	ldr	r5, [sp, #116]	; 0x74
    d8bc:	e59d6078 	ldr	r6, [sp, #120]	; 0x78
    d8c0:	e4951004 	ldr	r1, [r5], #4
    d8c4:	e1a00004 	mov	r0, r4
    d8c8:	eb001225 	bl	12164 <tfp_printf>
    d8cc:	e1560005 	cmp	r6, r5
    d8d0:	1afffffa 	bne	d8c0 <run+0x1284>
    d8d4:	e51f01d4 	ldr	r0, [pc, #-468]	; d708 <run+0x10cc>
    d8d8:	e08f0000 	add	r0, pc, r0
    d8dc:	eb001220 	bl	12164 <tfp_printf>
    d8e0:	e5dd30a9 	ldrb	r3, [sp, #169]	; 0xa9
    d8e4:	e5ddc0aa 	ldrb	ip, [sp, #170]	; 0xaa
    d8e8:	e7993103 	ldr	r3, [r9, r3, lsl #2]
    d8ec:	e5dd00ab 	ldrb	r0, [sp, #171]	; 0xab
    d8f0:	e58d3024 	str	r3, [sp, #36]	; 0x24
    d8f4:	e5dd30ad 	ldrb	r3, [sp, #173]	; 0xad
    d8f8:	e5dde0b2 	ldrb	lr, [sp, #178]	; 0xb2
    d8fc:	e7993103 	ldr	r3, [r9, r3, lsl #2]
    d900:	e5dd50ae 	ldrb	r5, [sp, #174]	; 0xae
    d904:	e58d3028 	str	r3, [sp, #40]	; 0x28
    d908:	e5dd20af 	ldrb	r2, [sp, #175]	; 0xaf
    d90c:	e5dd30b3 	ldrb	r3, [sp, #179]	; 0xb3
    d910:	e5dd40b1 	ldrb	r4, [sp, #177]	; 0xb1
    d914:	eafffc62 	b	caa4 <run+0x468>
    d918:	e51f0214 	ldr	r0, [pc, #-532]	; d70c <run+0x10d0>
    d91c:	e1a01003 	mov	r1, r3
    d920:	e51f7218 	ldr	r7, [pc, #-536]	; d710 <run+0x10d4>
    d924:	e08f0000 	add	r0, pc, r0
    d928:	e08f7007 	add	r7, pc, r7
    d92c:	eb00120c 	bl	12164 <tfp_printf>
    d930:	e59d3018 	ldr	r3, [sp, #24]
    d934:	e58d4034 	str	r4, [sp, #52]	; 0x34
    d938:	e1a04007 	mov	r4, r7
    d93c:	e2435010 	sub	r5, r3, #16
    d940:	e1a07003 	mov	r7, r3
    d944:	e4951004 	ldr	r1, [r5], #4
    d948:	e1a00004 	mov	r0, r4
    d94c:	eb001204 	bl	12164 <tfp_printf>
    d950:	e1570005 	cmp	r7, r5
    d954:	1afffffa 	bne	d944 <run+0x1308>
    d958:	e51f024c 	ldr	r0, [pc, #-588]	; d714 <run+0x10d8>
    d95c:	e59d4034 	ldr	r4, [sp, #52]	; 0x34
    d960:	e08f0000 	add	r0, pc, r0
    d964:	e51f7254 	ldr	r7, [pc, #-596]	; d718 <run+0x10dc>
    d968:	eb0011fd 	bl	12164 <tfp_printf>
    d96c:	e51f0258 	ldr	r0, [pc, #-600]	; d71c <run+0x10e0>
    d970:	e51f5258 	ldr	r5, [pc, #-600]	; d720 <run+0x10e4>
    d974:	e08f7007 	add	r7, pc, r7
    d978:	e08f0000 	add	r0, pc, r0
    d97c:	e08f5005 	add	r5, pc, r5
    d980:	eb0011f7 	bl	12164 <tfp_printf>
    d984:	e58d4034 	str	r4, [sp, #52]	; 0x34
    d988:	e2872007 	add	r2, r7, #7
    d98c:	e1a04005 	mov	r4, r5
    d990:	e3a03003 	mov	r3, #3
    d994:	e1a05002 	mov	r5, r2
    d998:	ea000000 	b	d9a0 <run+0x1364>
    d99c:	e5f73001 	ldrb	r3, [r7, #1]!
    d9a0:	e2833e1d 	add	r3, r3, #464	; 0x1d0
    d9a4:	e1a00004 	mov	r0, r4
    d9a8:	e08d3003 	add	r3, sp, r3
    d9ac:	e5531118 	ldrb	r1, [r3, #-280]	; 0xfffffee8
    d9b0:	eb0011eb 	bl	12164 <tfp_printf>
    d9b4:	e1550007 	cmp	r5, r7
    d9b8:	1afffff7 	bne	d99c <run+0x1360>
    d9bc:	e51f02a0 	ldr	r0, [pc, #-672]	; d724 <run+0x10e8>
    d9c0:	e59d4034 	ldr	r4, [sp, #52]	; 0x34
    d9c4:	e08f0000 	add	r0, pc, r0
    d9c8:	eb0011e5 	bl	12164 <tfp_printf>
    d9cc:	eafffbed 	b	c988 <run+0x34c>
    d9d0:	e51f02b0 	ldr	r0, [pc, #-688]	; d728 <run+0x10ec>
    d9d4:	e51f42b0 	ldr	r4, [pc, #-688]	; d72c <run+0x10f0>
    d9d8:	e08f0000 	add	r0, pc, r0
    d9dc:	e08f4004 	add	r4, pc, r4
    d9e0:	eb0011df 	bl	12164 <tfp_printf>
    d9e4:	e59d5074 	ldr	r5, [sp, #116]	; 0x74
    d9e8:	e59d6078 	ldr	r6, [sp, #120]	; 0x78
    d9ec:	e4951004 	ldr	r1, [r5], #4
    d9f0:	e1a00004 	mov	r0, r4
    d9f4:	eb0011da 	bl	12164 <tfp_printf>
    d9f8:	e1560005 	cmp	r6, r5
    d9fc:	1afffffa 	bne	d9ec <run+0x13b0>
    da00:	e51f02d8 	ldr	r0, [pc, #-728]	; d730 <run+0x10f4>
    da04:	e08f0000 	add	r0, pc, r0
    da08:	eb0011d5 	bl	12164 <tfp_printf>
    da0c:	e5dd30b2 	ldrb	r3, [sp, #178]	; 0xb2
    da10:	e5dd10ad 	ldrb	r1, [sp, #173]	; 0xad
    da14:	e7993103 	ldr	r3, [r9, r3, lsl #2]
    da18:	e5dd00a9 	ldrb	r0, [sp, #169]	; 0xa9
    da1c:	e58d3028 	str	r3, [sp, #40]	; 0x28
    da20:	e5dd30b1 	ldrb	r3, [sp, #177]	; 0xb1
    da24:	e5dd20ab 	ldrb	r2, [sp, #171]	; 0xab
    da28:	e79a5103 	ldr	r5, [sl, r3, lsl #2]
    da2c:	e5dd30ae 	ldrb	r3, [sp, #174]	; 0xae
    da30:	e7983103 	ldr	r3, [r8, r3, lsl #2]
    da34:	e58d3024 	str	r3, [sp, #36]	; 0x24
    da38:	e5dd30af 	ldrb	r3, [sp, #175]	; 0xaf
    da3c:	e79be103 	ldr	lr, [fp, r3, lsl #2]
    da40:	e5dd30aa 	ldrb	r3, [sp, #170]	; 0xaa
    da44:	e7983103 	ldr	r3, [r8, r3, lsl #2]
    da48:	e58d3020 	str	r3, [sp, #32]
    da4c:	e5dd30b3 	ldrb	r3, [sp, #179]	; 0xb3
    da50:	eafffd2e 	b	cf10 <run+0x8d4>
    da54:	e51f0328 	ldr	r0, [pc, #-808]	; d734 <run+0x10f8>
    da58:	e51f6328 	ldr	r6, [pc, #-808]	; d738 <run+0x10fc>
    da5c:	e08f0000 	add	r0, pc, r0
    da60:	e08f6006 	add	r6, pc, r6
    da64:	eb0011be 	bl	12164 <tfp_printf>
    da68:	e59d3018 	ldr	r3, [sp, #24]
    da6c:	e58d403c 	str	r4, [sp, #60]	; 0x3c
    da70:	e1a04006 	mov	r4, r6
    da74:	e2835010 	add	r5, r3, #16
    da78:	e2833020 	add	r3, r3, #32
    da7c:	e1a06003 	mov	r6, r3
    da80:	e4951004 	ldr	r1, [r5], #4
    da84:	e1a00004 	mov	r0, r4
    da88:	eb0011b5 	bl	12164 <tfp_printf>
    da8c:	e1560005 	cmp	r6, r5
    da90:	1afffffa 	bne	da80 <run+0x1444>
    da94:	e51f0360 	ldr	r0, [pc, #-864]	; d73c <run+0x1100>
    da98:	e59d403c 	ldr	r4, [sp, #60]	; 0x3c
    da9c:	e08f0000 	add	r0, pc, r0
    daa0:	eb0011af 	bl	12164 <tfp_printf>
    daa4:	eafffcd4 	b	cdfc <run+0x7c0>
    daa8:	e58d3090 	str	r3, [sp, #144]	; 0x90
    daac:	e51f0374 	ldr	r0, [pc, #-884]	; d740 <run+0x1104>
    dab0:	e51f3374 	ldr	r3, [pc, #-884]	; d744 <run+0x1108>
    dab4:	e08f0000 	add	r0, pc, r0
    dab8:	e08f3003 	add	r3, pc, r3
    dabc:	e58d2088 	str	r2, [sp, #136]	; 0x88
    dac0:	e58d3058 	str	r3, [sp, #88]	; 0x58
    dac4:	eb0011a6 	bl	12164 <tfp_printf>
    dac8:	e58d508c 	str	r5, [sp, #140]	; 0x8c
    dacc:	e28d00bc 	add	r0, sp, #188	; 0xbc
    dad0:	e59d5058 	ldr	r5, [sp, #88]	; 0x58
    dad4:	e1a01007 	mov	r1, r7
    dad8:	e58d705c 	str	r7, [sp, #92]	; 0x5c
    dadc:	e59d7068 	ldr	r7, [sp, #104]	; 0x68
    dae0:	e58d4094 	str	r4, [sp, #148]	; 0x94
    dae4:	e1a04000 	mov	r4, r0
    dae8:	e1a00005 	mov	r0, r5
    daec:	eb00119c 	bl	12164 <tfp_printf>
    daf0:	e1570004 	cmp	r7, r4
    daf4:	0a000004 	beq	db0c <run+0x14d0>
    daf8:	e4941004 	ldr	r1, [r4], #4
    dafc:	e1a00005 	mov	r0, r5
    db00:	eb001197 	bl	12164 <tfp_printf>
    db04:	e1570004 	cmp	r7, r4
    db08:	1afffffa 	bne	daf8 <run+0x14bc>
    db0c:	e51f03cc 	ldr	r0, [pc, #-972]	; d748 <run+0x110c>
    db10:	e59d2088 	ldr	r2, [sp, #136]	; 0x88
    db14:	e59d3090 	ldr	r3, [sp, #144]	; 0x90
    db18:	e08f0000 	add	r0, pc, r0
    db1c:	e59d705c 	ldr	r7, [sp, #92]	; 0x5c
    db20:	e58d3058 	str	r3, [sp, #88]	; 0x58
    db24:	e58d205c 	str	r2, [sp, #92]	; 0x5c
    db28:	e59d508c 	ldr	r5, [sp, #140]	; 0x8c
    db2c:	e59d4094 	ldr	r4, [sp, #148]	; 0x94
    db30:	eb00118b 	bl	12164 <tfp_printf>
    db34:	e59d205c 	ldr	r2, [sp, #92]	; 0x5c
    db38:	e59d3058 	ldr	r3, [sp, #88]	; 0x58
    db3c:	eafffc6a 	b	ccec <run+0x6b0>
    db40:	e51f03fc 	ldr	r0, [pc, #-1020]	; d74c <run+0x1110>
    db44:	e51f43fc 	ldr	r4, [pc, #-1020]	; d750 <run+0x1114>
    db48:	e08f0000 	add	r0, pc, r0
    db4c:	e08f4004 	add	r4, pc, r4
    db50:	eb001183 	bl	12164 <tfp_printf>
    db54:	e59d3018 	ldr	r3, [sp, #24]
    db58:	e1a06003 	mov	r6, r3
    db5c:	e2835010 	add	r5, r3, #16
    db60:	e4961004 	ldr	r1, [r6], #4
    db64:	e1a00004 	mov	r0, r4
    db68:	eb00117d 	bl	12164 <tfp_printf>
    db6c:	e1550006 	cmp	r5, r6
    db70:	1afffffa 	bne	db60 <run+0x1524>
    db74:	e51f0428 	ldr	r0, [pc, #-1064]	; d754 <run+0x1118>
    db78:	e08f0000 	add	r0, pc, r0
    db7c:	eb001178 	bl	12164 <tfp_printf>
    db80:	e5dd30b7 	ldrb	r3, [sp, #183]	; 0xb7
    db84:	e5dd50b6 	ldrb	r5, [sp, #182]	; 0xb6
    db88:	e7983103 	ldr	r3, [r8, r3, lsl #2]
    db8c:	e5dd70b5 	ldrb	r7, [sp, #181]	; 0xb5
    db90:	e58d302c 	str	r3, [sp, #44]	; 0x2c
    db94:	e5dd30b3 	ldrb	r3, [sp, #179]	; 0xb3
    db98:	e5dd40b1 	ldrb	r4, [sp, #177]	; 0xb1
    db9c:	e798c103 	ldr	ip, [r8, r3, lsl #2]
    dba0:	e5dd30b4 	ldrb	r3, [sp, #180]	; 0xb4
    dba4:	e5dde0b2 	ldrb	lr, [sp, #178]	; 0xb2
    dba8:	e58d3030 	str	r3, [sp, #48]	; 0x30
    dbac:	e5dd30b0 	ldrb	r3, [sp, #176]	; 0xb0
    dbb0:	e58d3020 	str	r3, [sp, #32]
    dbb4:	eafffbfe 	b	cbb4 <run+0x578>

0000dbb8 <buf_get_le32>:
    dbb8:	e3500000 	cmp	r0, #0
    dbbc:	012fff1e 	bxeq	lr
    dbc0:	e5d01000 	ldrb	r1, [r0]
    dbc4:	e5d02001 	ldrb	r2, [r0, #1]
    dbc8:	e5d03002 	ldrb	r3, [r0, #2]
    dbcc:	e5d0c003 	ldrb	ip, [r0, #3]
    dbd0:	e1a00803 	lsl	r0, r3, #16
    dbd4:	e1800c0c 	orr	r0, r0, ip, lsl #24
    dbd8:	e1800001 	orr	r0, r0, r1
    dbdc:	e1800402 	orr	r0, r0, r2, lsl #8
    dbe0:	e12fff1e 	bx	lr

0000dbe4 <buf_put_le32>:
    dbe4:	e1a0cc21 	lsr	ip, r1, #24
    dbe8:	e1a02821 	lsr	r2, r1, #16
    dbec:	e1a03421 	lsr	r3, r1, #8
    dbf0:	e5c0c003 	strb	ip, [r0, #3]
    dbf4:	e5c02002 	strb	r2, [r0, #2]
    dbf8:	e5c03001 	strb	r3, [r0, #1]
    dbfc:	e5c01000 	strb	r1, [r0]
    dc00:	e12fff1e 	bx	lr

0000dc04 <cipher_block_xor_2dst>:
    dc04:	e3530008 	cmp	r3, #8
    dc08:	e241c001 	sub	ip, r1, #1
    dc0c:	e52de004 	push	{lr}		; (str lr, [sp, #-4]!)
    dc10:	e242e001 	sub	lr, r2, #1
    dc14:	e2402001 	sub	r2, r0, #1
    dc18:	1281000f 	addne	r0, r1, #15
    dc1c:	0a000007 	beq	dc40 <cipher_block_xor_2dst+0x3c>
    dc20:	e5fc3001 	ldrb	r3, [ip, #1]!
    dc24:	e5fe1001 	ldrb	r1, [lr, #1]!
    dc28:	e15c0000 	cmp	ip, r0
    dc2c:	e0233001 	eor	r3, r3, r1
    dc30:	e5cc3000 	strb	r3, [ip]
    dc34:	e5e23001 	strb	r3, [r2, #1]!
    dc38:	1afffff8 	bne	dc20 <cipher_block_xor_2dst+0x1c>
    dc3c:	e49df004 	pop	{pc}		; (ldr pc, [sp], #4)
    dc40:	e2810007 	add	r0, r1, #7
    dc44:	e5fc3001 	ldrb	r3, [ip, #1]!
    dc48:	e5fe1001 	ldrb	r1, [lr, #1]!
    dc4c:	e15c0000 	cmp	ip, r0
    dc50:	e0233001 	eor	r3, r3, r1
    dc54:	e5cc3000 	strb	r3, [ip]
    dc58:	e5e23001 	strb	r3, [r2, #1]!
    dc5c:	1afffff8 	bne	dc44 <cipher_block_xor_2dst+0x40>
    dc60:	e49df004 	pop	{pc}		; (ldr pc, [sp], #4)

0000dc64 <buf_xor_2dst>:
    dc64:	e3530000 	cmp	r3, #0
    dc68:	012fff1e 	bxeq	lr
    dc6c:	e2433001 	sub	r3, r3, #1
    dc70:	e241c001 	sub	ip, r1, #1
    dc74:	e52de004 	push	{lr}		; (str lr, [sp, #-4]!)
    dc78:	e2422001 	sub	r2, r2, #1
    dc7c:	e081e003 	add	lr, r1, r3
    dc80:	e2400001 	sub	r0, r0, #1
    dc84:	e5fc3001 	ldrb	r3, [ip, #1]!
    dc88:	e5f21001 	ldrb	r1, [r2, #1]!
    dc8c:	e15c000e 	cmp	ip, lr
    dc90:	e0233001 	eor	r3, r3, r1
    dc94:	e5cc3000 	strb	r3, [ip]
    dc98:	e5e03001 	strb	r3, [r0, #1]!
    dc9c:	1afffff8 	bne	dc84 <buf_xor_2dst+0x20>
    dca0:	e49df004 	pop	{pc}		; (ldr pc, [sp], #4)

0000dca4 <cipher_block_cpy>:
    dca4:	e3520008 	cmp	r2, #8
    dca8:	e92d41f0 	push	{r4, r5, r6, r7, r8, lr}
    dcac:	e1a04000 	mov	r4, r0
    dcb0:	e1a05001 	mov	r5, r1
    dcb4:	e1a00001 	mov	r0, r1
    dcb8:	0a000017 	beq	dd1c <cipher_block_cpy+0x78>
    dcbc:	ebffffbd 	bl	dbb8 <buf_get_le32>
    dcc0:	e1a08000 	mov	r8, r0
    dcc4:	e2850004 	add	r0, r5, #4
    dcc8:	ebffffba 	bl	dbb8 <buf_get_le32>
    dccc:	e1a07000 	mov	r7, r0
    dcd0:	e2850008 	add	r0, r5, #8
    dcd4:	ebffffb7 	bl	dbb8 <buf_get_le32>
    dcd8:	e1a06000 	mov	r6, r0
    dcdc:	e285000c 	add	r0, r5, #12
    dce0:	ebffffb4 	bl	dbb8 <buf_get_le32>
    dce4:	e1a05000 	mov	r5, r0
    dce8:	e1a01008 	mov	r1, r8
    dcec:	e1a00004 	mov	r0, r4
    dcf0:	ebffffbb 	bl	dbe4 <buf_put_le32>
    dcf4:	e1a01007 	mov	r1, r7
    dcf8:	e2840004 	add	r0, r4, #4
    dcfc:	ebffffb8 	bl	dbe4 <buf_put_le32>
    dd00:	e1a01006 	mov	r1, r6
    dd04:	e2840008 	add	r0, r4, #8
    dd08:	ebffffb5 	bl	dbe4 <buf_put_le32>
    dd0c:	e1a01005 	mov	r1, r5
    dd10:	e284000c 	add	r0, r4, #12
    dd14:	e8bd41f0 	pop	{r4, r5, r6, r7, r8, lr}
    dd18:	eaffffb1 	b	dbe4 <buf_put_le32>
    dd1c:	ebffffa5 	bl	dbb8 <buf_get_le32>
    dd20:	e1a06000 	mov	r6, r0
    dd24:	e2850004 	add	r0, r5, #4
    dd28:	ebffffa2 	bl	dbb8 <buf_get_le32>
    dd2c:	e1a05000 	mov	r5, r0
    dd30:	e1a01006 	mov	r1, r6
    dd34:	e1a00004 	mov	r0, r4
    dd38:	ebffffa9 	bl	dbe4 <buf_put_le32>
    dd3c:	e1a01005 	mov	r1, r5
    dd40:	e2840004 	add	r0, r4, #4
    dd44:	e8bd41f0 	pop	{r4, r5, r6, r7, r8, lr}
    dd48:	eaffffa5 	b	dbe4 <buf_put_le32>

0000dd4c <cipher_block_xor_n_copy_2>:
    dd4c:	e92d4ff8 	push	{r3, r4, r5, r6, r7, r8, r9, sl, fp, lr}
    dd50:	e1a08000 	mov	r8, r0
    dd54:	e59dc028 	ldr	ip, [sp, #40]	; 0x28
    dd58:	e1a09001 	mov	r9, r1
    dd5c:	e1a07002 	mov	r7, r2
    dd60:	e1a0a003 	mov	sl, r3
    dd64:	e35c0008 	cmp	ip, #8
    dd68:	13a04000 	movne	r4, #0
    dd6c:	0a000012 	beq	ddbc <cipher_block_xor_n_copy_2+0x70>
    dd70:	e08a0004 	add	r0, sl, r4
    dd74:	e087b004 	add	fp, r7, r4
    dd78:	ebffff8e 	bl	dbb8 <buf_get_le32>
    dd7c:	e1a05000 	mov	r5, r0
    dd80:	e1a0000b 	mov	r0, fp
    dd84:	ebffff8b 	bl	dbb8 <buf_get_le32>
    dd88:	e1a06000 	mov	r6, r0
    dd8c:	e0890004 	add	r0, r9, r4
    dd90:	ebffff88 	bl	dbb8 <buf_get_le32>
    dd94:	e0261000 	eor	r1, r6, r0
    dd98:	e0880004 	add	r0, r8, r4
    dd9c:	e2844004 	add	r4, r4, #4
    dda0:	ebffff8f 	bl	dbe4 <buf_put_le32>
    dda4:	e1a01005 	mov	r1, r5
    dda8:	e1a0000b 	mov	r0, fp
    ddac:	ebffff8c 	bl	dbe4 <buf_put_le32>
    ddb0:	e3540010 	cmp	r4, #16
    ddb4:	1affffed 	bne	dd70 <cipher_block_xor_n_copy_2+0x24>
    ddb8:	e8bd8ff8 	pop	{r3, r4, r5, r6, r7, r8, r9, sl, fp, pc}
    ddbc:	e1a00003 	mov	r0, r3
    ddc0:	e287b004 	add	fp, r7, #4
    ddc4:	ebffff7b 	bl	dbb8 <buf_get_le32>
    ddc8:	e1a03000 	mov	r3, r0
    ddcc:	e28a0004 	add	r0, sl, #4
    ddd0:	e1a0a003 	mov	sl, r3
    ddd4:	ebffff77 	bl	dbb8 <buf_get_le32>
    ddd8:	e1a06000 	mov	r6, r0
    dddc:	e1a00007 	mov	r0, r7
    dde0:	ebffff74 	bl	dbb8 <buf_get_le32>
    dde4:	e1a05000 	mov	r5, r0
    dde8:	e1a0000b 	mov	r0, fp
    ddec:	ebffff71 	bl	dbb8 <buf_get_le32>
    ddf0:	e1a04000 	mov	r4, r0
    ddf4:	e1a00009 	mov	r0, r9
    ddf8:	ebffff6e 	bl	dbb8 <buf_get_le32>
    ddfc:	e0255000 	eor	r5, r5, r0
    de00:	e2890004 	add	r0, r9, #4
    de04:	ebffff6b 	bl	dbb8 <buf_get_le32>
    de08:	e0244000 	eor	r4, r4, r0
    de0c:	e1a01005 	mov	r1, r5
    de10:	e1a00008 	mov	r0, r8
    de14:	ebffff72 	bl	dbe4 <buf_put_le32>
    de18:	e1a01004 	mov	r1, r4
    de1c:	e2880004 	add	r0, r8, #4
    de20:	ebffff6f 	bl	dbe4 <buf_put_le32>
    de24:	e1a0100a 	mov	r1, sl
    de28:	e1a00007 	mov	r0, r7
    de2c:	ebffff6c 	bl	dbe4 <buf_put_le32>
    de30:	e1a01006 	mov	r1, r6
    de34:	e1a0000b 	mov	r0, fp
    de38:	e8bd4ff8 	pop	{r3, r4, r5, r6, r7, r8, r9, sl, fp, lr}
    de3c:	eaffff68 	b	dbe4 <buf_put_le32>

0000de40 <buf_xor_n_copy_2>:
    de40:	e92d4ff0 	push	{r4, r5, r6, r7, r8, r9, sl, fp, lr}
    de44:	e24dd014 	sub	sp, sp, #20
    de48:	e1a05000 	mov	r5, r0
    de4c:	e1a06001 	mov	r6, r1
    de50:	e59dc038 	ldr	ip, [sp, #56]	; 0x38
    de54:	e1a07003 	mov	r7, r3
    de58:	e58d2000 	str	r2, [sp]
    de5c:	e35c0003 	cmp	ip, #3
    de60:	9a000032 	bls	df30 <buf_xor_n_copy_2+0xf0>
    de64:	e082b00c 	add	fp, r2, ip
    de68:	e1a0400c 	mov	r4, ip
    de6c:	e087a00c 	add	sl, r7, ip
    de70:	e081900c 	add	r9, r1, ip
    de74:	e080800c 	add	r8, r0, ip
    de78:	e98d00e0 	stmib	sp, {r5, r6, r7}
    de7c:	e04a0004 	sub	r0, sl, r4
    de80:	e04b5004 	sub	r5, fp, r4
    de84:	ebffff4b 	bl	dbb8 <buf_get_le32>
    de88:	e1a06000 	mov	r6, r0
    de8c:	e1a00005 	mov	r0, r5
    de90:	ebffff48 	bl	dbb8 <buf_get_le32>
    de94:	e1a07000 	mov	r7, r0
    de98:	e0490004 	sub	r0, r9, r4
    de9c:	ebffff45 	bl	dbb8 <buf_get_le32>
    dea0:	e0271000 	eor	r1, r7, r0
    dea4:	e0480004 	sub	r0, r8, r4
    dea8:	e2444004 	sub	r4, r4, #4
    deac:	ebffff4c 	bl	dbe4 <buf_put_le32>
    deb0:	e1a01006 	mov	r1, r6
    deb4:	e1a00005 	mov	r0, r5
    deb8:	ebffff49 	bl	dbe4 <buf_put_le32>
    debc:	e3540003 	cmp	r4, #3
    dec0:	8affffed 	bhi	de7c <buf_xor_n_copy_2+0x3c>
    dec4:	e59d3038 	ldr	r3, [sp, #56]	; 0x38
    dec8:	e99d00e0 	ldmib	sp, {r5, r6, r7}
    decc:	e2432004 	sub	r2, r3, #4
    ded0:	e3c22003 	bic	r2, r2, #3
    ded4:	e2033003 	and	r3, r3, #3
    ded8:	e59d1000 	ldr	r1, [sp]
    dedc:	e2822004 	add	r2, r2, #4
    dee0:	e0855002 	add	r5, r5, r2
    dee4:	e0866002 	add	r6, r6, r2
    dee8:	e0877002 	add	r7, r7, r2
    deec:	e0811002 	add	r1, r1, r2
    def0:	e58d1000 	str	r1, [sp]
    def4:	e3530000 	cmp	r3, #0
    def8:	0a00000a 	beq	df28 <buf_xor_n_copy_2+0xe8>
    defc:	e59d2000 	ldr	r2, [sp]
    df00:	e0853003 	add	r3, r5, r3
    df04:	e2422001 	sub	r2, r2, #1
    df08:	e5f21001 	ldrb	r1, [r2, #1]!
    df0c:	e4d6c001 	ldrb	ip, [r6], #1
    df10:	e4d70001 	ldrb	r0, [r7], #1
    df14:	e021100c 	eor	r1, r1, ip
    df18:	e4c51001 	strb	r1, [r5], #1
    df1c:	e1550003 	cmp	r5, r3
    df20:	e5c20000 	strb	r0, [r2]
    df24:	1afffff7 	bne	df08 <buf_xor_n_copy_2+0xc8>
    df28:	e28dd014 	add	sp, sp, #20
    df2c:	e8bd8ff0 	pop	{r4, r5, r6, r7, r8, r9, sl, fp, pc}
    df30:	e59d3038 	ldr	r3, [sp, #56]	; 0x38
    df34:	eaffffee 	b	def4 <buf_xor_n_copy_2+0xb4>

0000df38 <buf_xor_n_copy>:
    df38:	e52de004 	push	{lr}		; (str lr, [sp, #-4]!)
    df3c:	e24dd00c 	sub	sp, sp, #12
    df40:	e58d3000 	str	r3, [sp]
    df44:	e1a03002 	mov	r3, r2
    df48:	e1a02001 	mov	r2, r1
    df4c:	e1a01003 	mov	r1, r3
    df50:	ebffffba 	bl	de40 <buf_xor_n_copy_2>
    df54:	e28dd00c 	add	sp, sp, #12
    df58:	e49df004 	pop	{pc}		; (ldr pc, [sp], #4)

0000df5c <cipher_block_xor_n_copy>:
    df5c:	e52de004 	push	{lr}		; (str lr, [sp, #-4]!)
    df60:	e24dd00c 	sub	sp, sp, #12
    df64:	e58d3000 	str	r3, [sp]
    df68:	e1a03002 	mov	r3, r2
    df6c:	e1a02001 	mov	r2, r1
    df70:	e1a01003 	mov	r1, r3
    df74:	ebffff74 	bl	dd4c <cipher_block_xor_n_copy_2>
    df78:	e28dd00c 	add	sp, sp, #12
    df7c:	e49df004 	pop	{pc}		; (ldr pc, [sp], #4)

0000df80 <buf_xor>:
    df80:	e92d4ff0 	push	{r4, r5, r6, r7, r8, r9, sl, fp, lr}
    df84:	e3530003 	cmp	r3, #3
    df88:	e24dd014 	sub	sp, sp, #20
    df8c:	e1a04000 	mov	r4, r0
    df90:	e1a08001 	mov	r8, r1
    df94:	e1a09002 	mov	r9, r2
    df98:	e59db038 	ldr	fp, [sp, #56]	; 0x38
    df9c:	e58d3000 	str	r3, [sp]
    dfa0:	9a000047 	bls	e0c4 <buf_xor+0x144>
    dfa4:	e59fa120 	ldr	sl, [pc, #288]	; e0cc <buf_xor+0x14c>
    dfa8:	e2433004 	sub	r3, r3, #4
    dfac:	e3c33003 	bic	r3, r3, #3
    dfb0:	e1a06002 	mov	r6, r2
    dfb4:	e08fa00a 	add	sl, pc, sl
    dfb8:	e2833004 	add	r3, r3, #4
    dfbc:	e0807003 	add	r7, r0, r3
    dfc0:	e1a05001 	mov	r5, r1
    dfc4:	e58d3004 	str	r3, [sp, #4]
    dfc8:	e1cd80f8 	strd	r8, [sp, #8]
    dfcc:	ea00000c 	b	e004 <buf_xor+0x84>
    dfd0:	e1a00005 	mov	r0, r5
    dfd4:	e2855004 	add	r5, r5, #4
    dfd8:	ebfffef6 	bl	dbb8 <buf_get_le32>
    dfdc:	e1a08000 	mov	r8, r0
    dfe0:	e1a00006 	mov	r0, r6
    dfe4:	e2866004 	add	r6, r6, #4
    dfe8:	ebfffef2 	bl	dbb8 <buf_get_le32>
    dfec:	e0281000 	eor	r1, r8, r0
    dff0:	e1a00004 	mov	r0, r4
    dff4:	e2844004 	add	r4, r4, #4
    dff8:	ebfffef9 	bl	dbe4 <buf_put_le32>
    dffc:	e1540007 	cmp	r4, r7
    e000:	0a000012 	beq	e050 <buf_xor+0xd0>
    e004:	e35b0000 	cmp	fp, #0
    e008:	0afffff0 	beq	dfd0 <buf_xor+0x50>
    e00c:	e1a00005 	mov	r0, r5
    e010:	ebfffee8 	bl	dbb8 <buf_get_le32>
    e014:	e1a08000 	mov	r8, r0
    e018:	e1a00006 	mov	r0, r6
    e01c:	ebfffee5 	bl	dbb8 <buf_get_le32>
    e020:	e0288000 	eor	r8, r8, r0
    e024:	e1a00005 	mov	r0, r5
    e028:	ebfffee2 	bl	dbb8 <buf_get_le32>
    e02c:	e1a09000 	mov	r9, r0
    e030:	e1a00006 	mov	r0, r6
    e034:	ebfffedf 	bl	dbb8 <buf_get_le32>
    e038:	e1a03000 	mov	r3, r0
    e03c:	e1a02009 	mov	r2, r9
    e040:	e1a01008 	mov	r1, r8
    e044:	e1a0000a 	mov	r0, sl
    e048:	eb001045 	bl	12164 <tfp_printf>
    e04c:	eaffffdf 	b	dfd0 <buf_xor+0x50>
    e050:	e59d3004 	ldr	r3, [sp, #4]
    e054:	e1cd80d8 	ldrd	r8, [sp, #8]
    e058:	e0888003 	add	r8, r8, r3
    e05c:	e0899003 	add	r9, r9, r3
    e060:	e59d3000 	ldr	r3, [sp]
    e064:	e2033003 	and	r3, r3, #3
    e068:	e58d3000 	str	r3, [sp]
    e06c:	e59d3000 	ldr	r3, [sp]
    e070:	e3530000 	cmp	r3, #0
    e074:	0a00000a 	beq	e0a4 <buf_xor+0x124>
    e078:	e59f4050 	ldr	r4, [pc, #80]	; e0d0 <buf_xor+0x150>
    e07c:	e087a003 	add	sl, r7, r3
    e080:	e08f4004 	add	r4, pc, r4
    e084:	e35b0000 	cmp	fp, #0
    e088:	1a000007 	bne	e0ac <buf_xor+0x12c>
    e08c:	e4d83001 	ldrb	r3, [r8], #1
    e090:	e4d92001 	ldrb	r2, [r9], #1
    e094:	e0233002 	eor	r3, r3, r2
    e098:	e4c73001 	strb	r3, [r7], #1
    e09c:	e157000a 	cmp	r7, sl
    e0a0:	1afffff7 	bne	e084 <buf_xor+0x104>
    e0a4:	e28dd014 	add	sp, sp, #20
    e0a8:	e8bd8ff0 	pop	{r4, r5, r6, r7, r8, r9, sl, fp, pc}
    e0ac:	e5d82000 	ldrb	r2, [r8]
    e0b0:	e1a00004 	mov	r0, r4
    e0b4:	e5d93000 	ldrb	r3, [r9]
    e0b8:	e0221003 	eor	r1, r2, r3
    e0bc:	eb001028 	bl	12164 <tfp_printf>
    e0c0:	eafffff1 	b	e08c <buf_xor+0x10c>
    e0c4:	e1a07000 	mov	r7, r0
    e0c8:	eaffffe7 	b	e06c <buf_xor+0xec>
    e0cc:	000096dc 	.word	0x000096dc
    e0d0:	00009628 	.word	0x00009628

0000e0d4 <printUint32Hex>:
    e0d4:	e1a01000 	mov	r1, r0
    e0d8:	e59f0004 	ldr	r0, [pc, #4]	; e0e4 <printUint32Hex+0x10>
    e0dc:	e08f0000 	add	r0, pc, r0
    e0e0:	ea00101f 	b	12164 <tfp_printf>
    e0e4:	00009430 	.word	0x00009430

0000e0e8 <_gcry_cipher_setkey>:
    e0e8:	e2802030 	add	r2, r0, #48	; 0x30
    e0ec:	e2800040 	add	r0, r0, #64	; 0x40
    e0f0:	e92d4010 	push	{r4, lr}
    e0f4:	e2811004 	add	r1, r1, #4
    e0f8:	e5513003 	ldrb	r3, [r1, #-3]
    e0fc:	e5514004 	ldrb	r4, [r1, #-4]
    e100:	e551e002 	ldrb	lr, [r1, #-2]
    e104:	e1a03803 	lsl	r3, r3, #16
    e108:	e551c001 	ldrb	ip, [r1, #-1]
    e10c:	e0833c04 	add	r3, r3, r4, lsl #24
    e110:	e083340e 	add	r3, r3, lr, lsl #8
    e114:	e083300c 	add	r3, r3, ip
    e118:	e4823004 	str	r3, [r2], #4
    e11c:	e1500002 	cmp	r0, r2
    e120:	1afffff3 	bne	e0f4 <_gcry_cipher_setkey+0xc>
    e124:	e3a00000 	mov	r0, #0
    e128:	e8bd8010 	pop	{r4, pc}

0000e12c <_gcry_cipher_close>:
    e12c:	e3500000 	cmp	r0, #0
    e130:	012fff1e 	bxeq	lr
    e134:	ea000704 	b	fd4c <xfree>

0000e138 <_gcry_cipher_setiv>:
    e138:	e3510000 	cmp	r1, #0
    e13c:	e3a0c000 	mov	ip, #0
    e140:	e92d4010 	push	{r4, lr}
    e144:	e580c020 	str	ip, [r0, #32]
    e148:	0a000002 	beq	e158 <_gcry_cipher_setiv+0x20>
    e14c:	eb000738 	bl	fe34 <memcpy>
    e150:	e3a00000 	mov	r0, #0
    e154:	e8bd8010 	pop	{r4, pc}
    e158:	eb0006fe 	bl	fd58 <memset>
    e15c:	e3a00000 	mov	r0, #0
    e160:	e8bd8010 	pop	{r4, pc}

0000e164 <cipher_sync>:
    e164:	e5902020 	ldr	r2, [r0, #32]
    e168:	e3520000 	cmp	r2, #0
    e16c:	012fff1e 	bxeq	lr
    e170:	e92d4010 	push	{r4, lr}
    e174:	e1a04000 	mov	r4, r0
    e178:	e0800002 	add	r0, r0, r2
    e17c:	e1a01004 	mov	r1, r4
    e180:	e2622008 	rsb	r2, r2, #8
    e184:	eb000750 	bl	fecc <memmove>
    e188:	e5942020 	ldr	r2, [r4, #32]
    e18c:	e1a00004 	mov	r0, r4
    e190:	e0441002 	sub	r1, r4, r2
    e194:	e2811018 	add	r1, r1, #24
    e198:	eb000725 	bl	fe34 <memcpy>
    e19c:	e3a03000 	mov	r3, #0
    e1a0:	e5843020 	str	r3, [r4, #32]
    e1a4:	e8bd8010 	pop	{r4, pc}

0000e1a8 <bytesFromBlock>:
    e1a8:	e5c21007 	strb	r1, [r2, #7]
    e1ac:	e24dd008 	sub	sp, sp, #8
    e1b0:	e1a0c421 	lsr	ip, r1, #8
    e1b4:	e28d3008 	add	r3, sp, #8
    e1b8:	e5c2c006 	strb	ip, [r2, #6]
    e1bc:	e9030003 	stmdb	r3, {r0, r1}
    e1c0:	e1a03000 	mov	r3, r0
    e1c4:	e1a00821 	lsr	r0, r1, #16
    e1c8:	e1a0c423 	lsr	ip, r3, #8
    e1cc:	e1a01c21 	lsr	r1, r1, #24
    e1d0:	e5c20005 	strb	r0, [r2, #5]
    e1d4:	e5c23003 	strb	r3, [r2, #3]
    e1d8:	e1a00823 	lsr	r0, r3, #16
    e1dc:	e1a03c23 	lsr	r3, r3, #24
    e1e0:	e5c21004 	strb	r1, [r2, #4]
    e1e4:	e5c2c002 	strb	ip, [r2, #2]
    e1e8:	e5c20001 	strb	r0, [r2, #1]
    e1ec:	e5c23000 	strb	r3, [r2]
    e1f0:	e28dd008 	add	sp, sp, #8
    e1f4:	e12fff1e 	bx	lr

0000e1f8 <encrypt>:
    e1f8:	e92d4010 	push	{r4, lr}
    e1fc:	e24dd010 	sub	sp, sp, #16
    e200:	e1a04000 	mov	r4, r0
    e204:	e59dc018 	ldr	ip, [sp, #24]
    e208:	e58dc004 	str	ip, [sp, #4]
    e20c:	e28dc008 	add	ip, sp, #8
    e210:	e88c000c 	stm	ip, {r2, r3}
    e214:	e3a03000 	mov	r3, #0
    e218:	e58d3000 	str	r3, [sp]
    e21c:	e89c000c 	ldm	ip, {r2, r3}
    e220:	ebfff905 	bl	c63c <run>
    e224:	e1a00004 	mov	r0, r4
    e228:	e28dd010 	add	sp, sp, #16
    e22c:	e8bd8010 	pop	{r4, pc}

0000e230 <decrypt>:
    e230:	e92d4010 	push	{r4, lr}
    e234:	e24dd010 	sub	sp, sp, #16
    e238:	e28dc008 	add	ip, sp, #8
    e23c:	e1a04000 	mov	r4, r0
    e240:	e88c000c 	stm	ip, {r2, r3}
    e244:	e3a02001 	mov	r2, #1
    e248:	e3a03000 	mov	r3, #0
    e24c:	e1cd20f0 	strd	r2, [sp]
    e250:	e89c000c 	ldm	ip, {r2, r3}
    e254:	ebfff8f8 	bl	c63c <run>
    e258:	e1a00004 	mov	r0, r4
    e25c:	e28dd010 	add	sp, sp, #16
    e260:	e8bd8010 	pop	{r4, pc}

0000e264 <xorBlock>:
    e264:	e24dd008 	sub	sp, sp, #8
    e268:	e24dd008 	sub	sp, sp, #8
    e26c:	e28dc008 	add	ip, sp, #8
    e270:	e58d300c 	str	r3, [sp, #12]
    e274:	e90c0006 	stmdb	ip, {r1, r2}
    e278:	e59dc010 	ldr	ip, [sp, #16]
    e27c:	e1a01002 	mov	r1, r2
    e280:	e021100c 	eor	r1, r1, ip
    e284:	e5801004 	str	r1, [r0, #4]
    e288:	e59d1000 	ldr	r1, [sp]
    e28c:	e0211003 	eor	r1, r1, r3
    e290:	e5801000 	str	r1, [r0]
    e294:	e28dd008 	add	sp, sp, #8
    e298:	e28dd008 	add	sp, sp, #8
    e29c:	e12fff1e 	bx	lr

0000e2a0 <blockFromBytes>:
    e2a0:	e3a0c000 	mov	ip, #0
    e2a4:	e3a03001 	mov	r3, #1
    e2a8:	e52de004 	push	{lr}		; (str lr, [sp, #-4]!)
    e2ac:	e1a0e00c 	mov	lr, ip
    e2b0:	ea000001 	b	e2bc <blockFromBytes+0x1c>
    e2b4:	e2833001 	add	r3, r3, #1
    e2b8:	e2811001 	add	r1, r1, #1
    e2bc:	e2432001 	sub	r2, r3, #1
    e2c0:	e3520003 	cmp	r2, #3
    e2c4:	e5d12000 	ldrb	r2, [r1]
    e2c8:	9182e40e 	orrls	lr, r2, lr, lsl #8
    e2cc:	9afffff8 	bls	e2b4 <blockFromBytes+0x14>
    e2d0:	e182c40c 	orr	ip, r2, ip, lsl #8
    e2d4:	e3530008 	cmp	r3, #8
    e2d8:	1afffff5 	bne	e2b4 <blockFromBytes+0x14>
    e2dc:	e580e000 	str	lr, [r0]
    e2e0:	e580c004 	str	ip, [r0, #4]
    e2e4:	e49df004 	pop	{pc}		; (ldr pc, [sp], #4)

0000e2e8 <_gcry_cipher_cfb_decrypt>:
    e2e8:	e92d4ff0 	push	{r4, r5, r6, r7, r8, r9, sl, fp, lr}
    e2ec:	e1a08000 	mov	r8, r0
    e2f0:	e59f05f8 	ldr	r0, [pc, #1528]	; e8f0 <_gcry_cipher_cfb_decrypt+0x608>
    e2f4:	e24dd05c 	sub	sp, sp, #92	; 0x5c
    e2f8:	e59f65f4 	ldr	r6, [pc, #1524]	; e8f4 <_gcry_cipher_cfb_decrypt+0x60c>
    e2fc:	e2485001 	sub	r5, r8, #1
    e300:	e08f0000 	add	r0, pc, r0
    e304:	e2884007 	add	r4, r8, #7
    e308:	e58d1024 	str	r1, [sp, #36]	; 0x24
    e30c:	e1a07005 	mov	r7, r5
    e310:	e59d1080 	ldr	r1, [sp, #128]	; 0x80
    e314:	e58d3028 	str	r3, [sp, #40]	; 0x28
    e318:	e3a03001 	mov	r3, #1
    e31c:	e58d201c 	str	r2, [sp, #28]
    e320:	eb000f8f 	bl	12164 <tfp_printf>
    e324:	e59f05cc 	ldr	r0, [pc, #1484]	; e8f8 <_gcry_cipher_cfb_decrypt+0x610>
    e328:	e08f6006 	add	r6, pc, r6
    e32c:	e08f0000 	add	r0, pc, r0
    e330:	eb000f8b 	bl	12164 <tfp_printf>
    e334:	e5f71001 	ldrb	r1, [r7, #1]!
    e338:	e1a00006 	mov	r0, r6
    e33c:	eb000f88 	bl	12164 <tfp_printf>
    e340:	e1570004 	cmp	r7, r4
    e344:	1afffffa 	bne	e334 <_gcry_cipher_cfb_decrypt+0x4c>
    e348:	e59f05ac 	ldr	r0, [pc, #1452]	; e8fc <_gcry_cipher_cfb_decrypt+0x614>
    e34c:	e08f0000 	add	r0, pc, r0
    e350:	eb000f83 	bl	12164 <tfp_printf>
    e354:	e59d3080 	ldr	r3, [sp, #128]	; 0x80
    e358:	e59d201c 	ldr	r2, [sp, #28]
    e35c:	e1530002 	cmp	r3, r2
    e360:	83e04000 	mvnhi	r4, #0
    e364:	8a00007a 	bhi	e554 <_gcry_cipher_cfb_decrypt+0x26c>
    e368:	e5983020 	ldr	r3, [r8, #32]
    e36c:	e59d2080 	ldr	r2, [sp, #128]	; 0x80
    e370:	e1530002 	cmp	r3, r2
    e374:	2a00013d 	bcs	e870 <_gcry_cipher_cfb_decrypt+0x588>
    e378:	e3530000 	cmp	r3, #0
    e37c:	1a00010f 	bne	e7c0 <_gcry_cipher_cfb_decrypt+0x4d8>
    e380:	e59d3080 	ldr	r3, [sp, #128]	; 0x80
    e384:	e353000f 	cmp	r3, #15
    e388:	8a000074 	bhi	e560 <_gcry_cipher_cfb_decrypt+0x278>
    e38c:	e59d401c 	ldr	r4, [sp, #28]
    e390:	e3a03000 	mov	r3, #0
    e394:	e59f0564 	ldr	r0, [pc, #1380]	; e900 <_gcry_cipher_cfb_decrypt+0x618>
    e398:	e59d1080 	ldr	r1, [sp, #128]	; 0x80
    e39c:	e1a02004 	mov	r2, r4
    e3a0:	e08f0000 	add	r0, pc, r0
    e3a4:	eb000f6e 	bl	12164 <tfp_printf>
    e3a8:	e59d3080 	ldr	r3, [sp, #128]	; 0x80
    e3ac:	e3530007 	cmp	r3, #7
    e3b0:	9a000142 	bls	e8c0 <_gcry_cipher_cfb_decrypt+0x5d8>
    e3b4:	e59f0548 	ldr	r0, [pc, #1352]	; e904 <_gcry_cipher_cfb_decrypt+0x61c>
    e3b8:	e1a02004 	mov	r2, r4
    e3bc:	e5983020 	ldr	r3, [r8, #32]
    e3c0:	e28d5038 	add	r5, sp, #56	; 0x38
    e3c4:	e08f0000 	add	r0, pc, r0
    e3c8:	e28d6030 	add	r6, sp, #48	; 0x30
    e3cc:	e59d1080 	ldr	r1, [sp, #128]	; 0x80
    e3d0:	e59f7530 	ldr	r7, [pc, #1328]	; e908 <_gcry_cipher_cfb_decrypt+0x620>
    e3d4:	eb000f62 	bl	12164 <tfp_printf>
    e3d8:	e59d3080 	ldr	r3, [sp, #128]	; 0x80
    e3dc:	e3a02008 	mov	r2, #8
    e3e0:	e08f7007 	add	r7, pc, r7
    e3e4:	e1a01008 	mov	r1, r8
    e3e8:	e2880010 	add	r0, r8, #16
    e3ec:	e2434008 	sub	r4, r3, #8
    e3f0:	ebfffe2b 	bl	dca4 <cipher_block_cpy>
    e3f4:	e1a01008 	mov	r1, r8
    e3f8:	e1a00005 	mov	r0, r5
    e3fc:	ebffffa7 	bl	e2a0 <blockFromBytes>
    e400:	e59d203c 	ldr	r2, [sp, #60]	; 0x3c
    e404:	e1a00007 	mov	r0, r7
    e408:	e59d1038 	ldr	r1, [sp, #56]	; 0x38
    e40c:	eb000f54 	bl	12164 <tfp_printf>
    e410:	e3a03000 	mov	r3, #0
    e414:	e1a00006 	mov	r0, r6
    e418:	e58d3000 	str	r3, [sp]
    e41c:	e2881030 	add	r1, r8, #48	; 0x30
    e420:	e895000c 	ldm	r5, {r2, r3}
    e424:	ebffff73 	bl	e1f8 <encrypt>
    e428:	e8960003 	ldm	r6, {r0, r1}
    e42c:	e1a02008 	mov	r2, r8
    e430:	e1a06000 	mov	r6, r0
    e434:	e1a09001 	mov	r9, r1
    e438:	e8850003 	stm	r5, {r0, r1}
    e43c:	ebffff59 	bl	e1a8 <bytesFromBlock>
    e440:	e1a02009 	mov	r2, r9
    e444:	e1a01006 	mov	r1, r6
    e448:	e1a00007 	mov	r0, r7
    e44c:	eb000f44 	bl	12164 <tfp_printf>
    e450:	e59d3028 	ldr	r3, [sp, #40]	; 0x28
    e454:	e1a01008 	mov	r1, r8
    e458:	e1a02003 	mov	r2, r3
    e45c:	e2833008 	add	r3, r3, #8
    e460:	e58d3028 	str	r3, [sp, #40]	; 0x28
    e464:	e59d3024 	ldr	r3, [sp, #36]	; 0x24
    e468:	e1a00003 	mov	r0, r3
    e46c:	e2833008 	add	r3, r3, #8
    e470:	e58d3024 	str	r3, [sp, #36]	; 0x24
    e474:	e3a03008 	mov	r3, #8
    e478:	ebfffeb7 	bl	df5c <cipher_block_xor_n_copy>
    e47c:	e3540000 	cmp	r4, #0
    e480:	0a000033 	beq	e554 <_gcry_cipher_cfb_decrypt+0x26c>
    e484:	e59f0480 	ldr	r0, [pc, #1152]	; e90c <_gcry_cipher_cfb_decrypt+0x624>
    e488:	e1a01004 	mov	r1, r4
    e48c:	e5983020 	ldr	r3, [r8, #32]
    e490:	e28d5040 	add	r5, sp, #64	; 0x40
    e494:	e59d201c 	ldr	r2, [sp, #28]
    e498:	e28d7030 	add	r7, sp, #48	; 0x30
    e49c:	e08f0000 	add	r0, pc, r0
    e4a0:	e3a09000 	mov	r9, #0
    e4a4:	e59f6464 	ldr	r6, [pc, #1124]	; e910 <_gcry_cipher_cfb_decrypt+0x628>
    e4a8:	eb000f2d 	bl	12164 <tfp_printf>
    e4ac:	e3a02008 	mov	r2, #8
    e4b0:	e1a01008 	mov	r1, r8
    e4b4:	e08f6006 	add	r6, pc, r6
    e4b8:	e2880010 	add	r0, r8, #16
    e4bc:	ebfffdf8 	bl	dca4 <cipher_block_cpy>
    e4c0:	e1a01008 	mov	r1, r8
    e4c4:	e1a00005 	mov	r0, r5
    e4c8:	ebffff74 	bl	e2a0 <blockFromBytes>
    e4cc:	e59d2044 	ldr	r2, [sp, #68]	; 0x44
    e4d0:	e1a00006 	mov	r0, r6
    e4d4:	e59d1040 	ldr	r1, [sp, #64]	; 0x40
    e4d8:	eb000f21 	bl	12164 <tfp_printf>
    e4dc:	e58d9000 	str	r9, [sp]
    e4e0:	e1a00007 	mov	r0, r7
    e4e4:	e895000c 	ldm	r5, {r2, r3}
    e4e8:	e2881030 	add	r1, r8, #48	; 0x30
    e4ec:	ebffff41 	bl	e1f8 <encrypt>
    e4f0:	e8970003 	ldm	r7, {r0, r1}
    e4f4:	e1a02008 	mov	r2, r8
    e4f8:	e1a07000 	mov	r7, r0
    e4fc:	e1a0a001 	mov	sl, r1
    e500:	e8850003 	stm	r5, {r0, r1}
    e504:	ebffff27 	bl	e1a8 <bytesFromBlock>
    e508:	e1a0200a 	mov	r2, sl
    e50c:	e1a01007 	mov	r1, r7
    e510:	e1a00006 	mov	r0, r6
    e514:	eb000f12 	bl	12164 <tfp_printf>
    e518:	e59d2028 	ldr	r2, [sp, #40]	; 0x28
    e51c:	e2643008 	rsb	r3, r4, #8
    e520:	e59d0024 	ldr	r0, [sp, #36]	; 0x24
    e524:	e1a01008 	mov	r1, r8
    e528:	e5883020 	str	r3, [r8, #32]
    e52c:	e1a03004 	mov	r3, r4
    e530:	e1a04009 	mov	r4, r9
    e534:	ebfffe7f 	bl	df38 <buf_xor_n_copy>
    e538:	e1a01008 	mov	r1, r8
    e53c:	e1a00005 	mov	r0, r5
    e540:	ebffff56 	bl	e2a0 <blockFromBytes>
    e544:	e59d2044 	ldr	r2, [sp, #68]	; 0x44
    e548:	e1a00006 	mov	r0, r6
    e54c:	e59d1040 	ldr	r1, [sp, #64]	; 0x40
    e550:	eb000f03 	bl	12164 <tfp_printf>
    e554:	e1a00004 	mov	r0, r4
    e558:	e28dd05c 	add	sp, sp, #92	; 0x5c
    e55c:	e8bd8ff0 	pop	{r4, r5, r6, r7, r8, r9, sl, fp, pc}
    e560:	e59f03ac 	ldr	r0, [pc, #940]	; e914 <_gcry_cipher_cfb_decrypt+0x62c>
    e564:	e3a03000 	mov	r3, #0
    e568:	e59d201c 	ldr	r2, [sp, #28]
    e56c:	e59d1080 	ldr	r1, [sp, #128]	; 0x80
    e570:	e08f0000 	add	r0, pc, r0
    e574:	e59f639c 	ldr	r6, [pc, #924]	; e918 <_gcry_cipher_cfb_decrypt+0x630>
    e578:	eb000ef9 	bl	12164 <tfp_printf>
    e57c:	e59d3080 	ldr	r3, [sp, #128]	; 0x80
    e580:	e59f0394 	ldr	r0, [pc, #916]	; e91c <_gcry_cipher_cfb_decrypt+0x634>
    e584:	e1a031a3 	lsr	r3, r3, #3
    e588:	e08f0000 	add	r0, pc, r0
    e58c:	e1a07003 	mov	r7, r3
    e590:	e58d300c 	str	r3, [sp, #12]
    e594:	eb000ef2 	bl	12164 <tfp_printf>
    e598:	e59f0380 	ldr	r0, [pc, #896]	; e920 <_gcry_cipher_cfb_decrypt+0x638>
    e59c:	e1a01007 	mov	r1, r7
    e5a0:	e08f6006 	add	r6, pc, r6
    e5a4:	e08f0000 	add	r0, pc, r0
    e5a8:	eb000eed 	bl	12164 <tfp_printf>
    e5ac:	e59f1370 	ldr	r1, [pc, #880]	; e924 <_gcry_cipher_cfb_decrypt+0x63c>
    e5b0:	e59f0370 	ldr	r0, [pc, #880]	; e928 <_gcry_cipher_cfb_decrypt+0x640>
    e5b4:	e08f1001 	add	r1, pc, r1
    e5b8:	e08f0000 	add	r0, pc, r0
    e5bc:	eb000ee8 	bl	12164 <tfp_printf>
    e5c0:	e5f51001 	ldrb	r1, [r5, #1]!
    e5c4:	e1a00006 	mov	r0, r6
    e5c8:	eb000ee5 	bl	12164 <tfp_printf>
    e5cc:	e1550004 	cmp	r5, r4
    e5d0:	1afffffa 	bne	e5c0 <_gcry_cipher_cfb_decrypt+0x2d8>
    e5d4:	e59f0350 	ldr	r0, [pc, #848]	; e92c <_gcry_cipher_cfb_decrypt+0x644>
    e5d8:	e08f0000 	add	r0, pc, r0
    e5dc:	eb000ee0 	bl	12164 <tfp_printf>
    e5e0:	e59d300c 	ldr	r3, [sp, #12]
    e5e4:	e3530002 	cmp	r3, #2
    e5e8:	0a0000b6 	beq	e8c8 <_gcry_cipher_cfb_decrypt+0x5e0>
    e5ec:	e59d3024 	ldr	r3, [sp, #36]	; 0x24
    e5f0:	e288b030 	add	fp, r8, #48	; 0x30
    e5f4:	e59f7334 	ldr	r7, [pc, #820]	; e930 <_gcry_cipher_cfb_decrypt+0x648>
    e5f8:	e28d4038 	add	r4, sp, #56	; 0x38
    e5fc:	e59da028 	ldr	sl, [sp, #40]	; 0x28
    e600:	e2836017 	add	r6, r3, #23
    e604:	e08f7007 	add	r7, pc, r7
    e608:	e3a03001 	mov	r3, #1
    e60c:	e58d3014 	str	r3, [sp, #20]
    e610:	e28d9030 	add	r9, sp, #48	; 0x30
    e614:	e58d8020 	str	r8, [sp, #32]
    e618:	e28d3040 	add	r3, sp, #64	; 0x40
    e61c:	e58d3010 	str	r3, [sp, #16]
    e620:	e28d3048 	add	r3, sp, #72	; 0x48
    e624:	e58d302c 	str	r3, [sp, #44]	; 0x2c
    e628:	e59d8020 	ldr	r8, [sp, #32]
    e62c:	e3a02008 	mov	r2, #8
    e630:	e59d5010 	ldr	r5, [sp, #16]
    e634:	e1a01008 	mov	r1, r8
    e638:	e1a00005 	mov	r0, r5
    e63c:	ebfffd98 	bl	dca4 <cipher_block_cpy>
    e640:	e59d002c 	ldr	r0, [sp, #44]	; 0x2c
    e644:	e3a02010 	mov	r2, #16
    e648:	e1a0100a 	mov	r1, sl
    e64c:	ebfffd94 	bl	dca4 <cipher_block_cpy>
    e650:	e2463017 	sub	r3, r6, #23
    e654:	e1a00008 	mov	r0, r8
    e658:	e58d3018 	str	r3, [sp, #24]
    e65c:	e3a02008 	mov	r2, #8
    e660:	e28a1010 	add	r1, sl, #16
    e664:	e3a08000 	mov	r8, #0
    e668:	ebfffd8d 	bl	dca4 <cipher_block_cpy>
    e66c:	e28d3058 	add	r3, sp, #88	; 0x58
    e670:	e58d3008 	str	r3, [sp, #8]
    e674:	e1a01005 	mov	r1, r5
    e678:	e1a00004 	mov	r0, r4
    e67c:	ebffff07 	bl	e2a0 <blockFromBytes>
    e680:	e58d8000 	str	r8, [sp]
    e684:	e1a0100b 	mov	r1, fp
    e688:	e894000c 	ldm	r4, {r2, r3}
    e68c:	e1a00009 	mov	r0, r9
    e690:	ebfffed8 	bl	e1f8 <encrypt>
    e694:	e8990003 	ldm	r9, {r0, r1}
    e698:	e1a02005 	mov	r2, r5
    e69c:	e2855008 	add	r5, r5, #8
    e6a0:	e8840003 	stm	r4, {r0, r1}
    e6a4:	ebfffebf 	bl	e1a8 <bytesFromBlock>
    e6a8:	e59d3008 	ldr	r3, [sp, #8]
    e6ac:	e1530005 	cmp	r3, r5
    e6b0:	1affffef 	bne	e674 <_gcry_cipher_cfb_decrypt+0x38c>
    e6b4:	e59d0018 	ldr	r0, [sp, #24]
    e6b8:	e3a03018 	mov	r3, #24
    e6bc:	e59d2010 	ldr	r2, [sp, #16]
    e6c0:	e1a0100a 	mov	r1, sl
    e6c4:	e58d8000 	str	r8, [sp]
    e6c8:	e2465018 	sub	r5, r6, #24
    e6cc:	ebfffe2b 	bl	df80 <buf_xor>
    e6d0:	e5f51001 	ldrb	r1, [r5, #1]!
    e6d4:	e1a00007 	mov	r0, r7
    e6d8:	eb000ea1 	bl	12164 <tfp_printf>
    e6dc:	e1560005 	cmp	r6, r5
    e6e0:	1afffffa 	bne	e6d0 <_gcry_cipher_cfb_decrypt+0x3e8>
    e6e4:	e59d300c 	ldr	r3, [sp, #12]
    e6e8:	e28aa018 	add	sl, sl, #24
    e6ec:	e2433003 	sub	r3, r3, #3
    e6f0:	e58d300c 	str	r3, [sp, #12]
    e6f4:	e3530002 	cmp	r3, #2
    e6f8:	e59d3014 	ldr	r3, [sp, #20]
    e6fc:	e2433001 	sub	r3, r3, #1
    e700:	e58d3014 	str	r3, [sp, #20]
    e704:	e2863001 	add	r3, r6, #1
    e708:	e2866018 	add	r6, r6, #24
    e70c:	8affffc5 	bhi	e628 <_gcry_cipher_cfb_decrypt+0x340>
    e710:	e59d200c 	ldr	r2, [sp, #12]
    e714:	e59d8020 	ldr	r8, [sp, #32]
    e718:	e3520000 	cmp	r2, #0
    e71c:	0a000042 	beq	e82c <_gcry_cipher_cfb_decrypt+0x544>
    e720:	e59f720c 	ldr	r7, [pc, #524]	; e934 <_gcry_cipher_cfb_decrypt+0x64c>
    e724:	e2836007 	add	r6, r3, #7
    e728:	e58db008 	str	fp, [sp, #8]
    e72c:	e08f7007 	add	r7, pc, r7
    e730:	e59db014 	ldr	fp, [sp, #20]
    e734:	e1a01008 	mov	r1, r8
    e738:	e1a00004 	mov	r0, r4
    e73c:	e2465008 	sub	r5, r6, #8
    e740:	ebfffed6 	bl	e2a0 <blockFromBytes>
    e744:	e59d1008 	ldr	r1, [sp, #8]
    e748:	e35b0000 	cmp	fp, #0
    e74c:	c3a03001 	movgt	r3, #1
    e750:	d3a03000 	movle	r3, #0
    e754:	e58d3000 	str	r3, [sp]
    e758:	e1a00009 	mov	r0, r9
    e75c:	e894000c 	ldm	r4, {r2, r3}
    e760:	ebfffea4 	bl	e1f8 <encrypt>
    e764:	e8990003 	ldm	r9, {r0, r1}
    e768:	e1a02008 	mov	r2, r8
    e76c:	e8840003 	stm	r4, {r0, r1}
    e770:	ebfffe8c 	bl	e1a8 <bytesFromBlock>
    e774:	e3a03008 	mov	r3, #8
    e778:	e1a0200a 	mov	r2, sl
    e77c:	e1a01008 	mov	r1, r8
    e780:	e2460007 	sub	r0, r6, #7
    e784:	ebfffdf4 	bl	df5c <cipher_block_xor_n_copy>
    e788:	e5f51001 	ldrb	r1, [r5, #1]!
    e78c:	e1a00007 	mov	r0, r7
    e790:	eb000e73 	bl	12164 <tfp_printf>
    e794:	e1550006 	cmp	r5, r6
    e798:	1afffffa 	bne	e788 <_gcry_cipher_cfb_decrypt+0x4a0>
    e79c:	e59d300c 	ldr	r3, [sp, #12]
    e7a0:	e28aa008 	add	sl, sl, #8
    e7a4:	e24bb001 	sub	fp, fp, #1
    e7a8:	e2866008 	add	r6, r6, #8
    e7ac:	e3530001 	cmp	r3, #1
    e7b0:	0a00001d 	beq	e82c <_gcry_cipher_cfb_decrypt+0x544>
    e7b4:	e3a03001 	mov	r3, #1
    e7b8:	e58d300c 	str	r3, [sp, #12]
    e7bc:	eaffffdc 	b	e734 <_gcry_cipher_cfb_decrypt+0x44c>
    e7c0:	e59f0170 	ldr	r0, [pc, #368]	; e938 <_gcry_cipher_cfb_decrypt+0x650>
    e7c4:	e59d1080 	ldr	r1, [sp, #128]	; 0x80
    e7c8:	e08f0000 	add	r0, pc, r0
    e7cc:	e59d201c 	ldr	r2, [sp, #28]
    e7d0:	eb000e63 	bl	12164 <tfp_printf>
    e7d4:	e5983020 	ldr	r3, [r8, #32]
    e7d8:	e59d2080 	ldr	r2, [sp, #128]	; 0x80
    e7dc:	e59d7028 	ldr	r7, [sp, #40]	; 0x28
    e7e0:	e2631008 	rsb	r1, r3, #8
    e7e4:	e59d6024 	ldr	r6, [sp, #36]	; 0x24
    e7e8:	e0422003 	sub	r2, r2, r3
    e7ec:	e58d2080 	str	r2, [sp, #128]	; 0x80
    e7f0:	e1a00006 	mov	r0, r6
    e7f4:	e0881001 	add	r1, r8, r1
    e7f8:	e1a02007 	mov	r2, r7
    e7fc:	ebfffdcd 	bl	df38 <buf_xor_n_copy>
    e800:	e5983020 	ldr	r3, [r8, #32]
    e804:	e0862003 	add	r2, r6, r3
    e808:	e0873003 	add	r3, r7, r3
    e80c:	e58d3028 	str	r3, [sp, #40]	; 0x28
    e810:	e3a03000 	mov	r3, #0
    e814:	e5883020 	str	r3, [r8, #32]
    e818:	e59d3080 	ldr	r3, [sp, #128]	; 0x80
    e81c:	e58d2024 	str	r2, [sp, #36]	; 0x24
    e820:	e353000f 	cmp	r3, #15
    e824:	9afffed8 	bls	e38c <_gcry_cipher_cfb_decrypt+0xa4>
    e828:	eaffff4c 	b	e560 <_gcry_cipher_cfb_decrypt+0x278>
    e82c:	e59f0108 	ldr	r0, [pc, #264]	; e93c <_gcry_cipher_cfb_decrypt+0x654>
    e830:	e08f0000 	add	r0, pc, r0
    e834:	eb000e4a 	bl	12164 <tfp_printf>
    e838:	e59d0010 	ldr	r0, [sp, #16]
    e83c:	e3a01018 	mov	r1, #24
    e840:	eb0005b8 	bl	ff28 <wipememory>
    e844:	e59d3080 	ldr	r3, [sp, #128]	; 0x80
    e848:	e59d2024 	ldr	r2, [sp, #36]	; 0x24
    e84c:	e3c33007 	bic	r3, r3, #7
    e850:	e0822003 	add	r2, r2, r3
    e854:	e58d2024 	str	r2, [sp, #36]	; 0x24
    e858:	e59d2028 	ldr	r2, [sp, #40]	; 0x28
    e85c:	e0823003 	add	r3, r2, r3
    e860:	e58d3028 	str	r3, [sp, #40]	; 0x28
    e864:	e59d3080 	ldr	r3, [sp, #128]	; 0x80
    e868:	e2034007 	and	r4, r3, #7
    e86c:	eaffff02 	b	e47c <_gcry_cipher_cfb_decrypt+0x194>
    e870:	e59f00c8 	ldr	r0, [pc, #200]	; e940 <_gcry_cipher_cfb_decrypt+0x658>
    e874:	e3a04000 	mov	r4, #0
    e878:	e59d201c 	ldr	r2, [sp, #28]
    e87c:	e59d1080 	ldr	r1, [sp, #128]	; 0x80
    e880:	e08f0000 	add	r0, pc, r0
    e884:	eb000e36 	bl	12164 <tfp_printf>
    e888:	e5981020 	ldr	r1, [r8, #32]
    e88c:	e59d2028 	ldr	r2, [sp, #40]	; 0x28
    e890:	e59d0024 	ldr	r0, [sp, #36]	; 0x24
    e894:	e2611008 	rsb	r1, r1, #8
    e898:	e59d3080 	ldr	r3, [sp, #128]	; 0x80
    e89c:	e0881001 	add	r1, r8, r1
    e8a0:	ebfffda4 	bl	df38 <buf_xor_n_copy>
    e8a4:	e5983020 	ldr	r3, [r8, #32]
    e8a8:	e1a00004 	mov	r0, r4
    e8ac:	e59d2080 	ldr	r2, [sp, #128]	; 0x80
    e8b0:	e0433002 	sub	r3, r3, r2
    e8b4:	e5883020 	str	r3, [r8, #32]
    e8b8:	e28dd05c 	add	sp, sp, #92	; 0x5c
    e8bc:	e8bd8ff0 	pop	{r4, r5, r6, r7, r8, r9, sl, fp, pc}
    e8c0:	e59d4080 	ldr	r4, [sp, #128]	; 0x80
    e8c4:	eafffeec 	b	e47c <_gcry_cipher_cfb_decrypt+0x194>
    e8c8:	e59da028 	ldr	sl, [sp, #40]	; 0x28
    e8cc:	e3a02001 	mov	r2, #1
    e8d0:	e58d2014 	str	r2, [sp, #20]
    e8d4:	e28d2040 	add	r2, sp, #64	; 0x40
    e8d8:	e59d3024 	ldr	r3, [sp, #36]	; 0x24
    e8dc:	e288b030 	add	fp, r8, #48	; 0x30
    e8e0:	e58d2010 	str	r2, [sp, #16]
    e8e4:	e28d4038 	add	r4, sp, #56	; 0x38
    e8e8:	e28d9030 	add	r9, sp, #48	; 0x30
    e8ec:	eaffff8b 	b	e720 <_gcry_cipher_cfb_decrypt+0x438>
    e8f0:	000093c0 	.word	0x000093c0
    e8f4:	00008260 	.word	0x00008260
    e8f8:	000093d4 	.word	0x000093d4
    e8fc:	00008fb8 	.word	0x00008fb8
    e900:	00009414 	.word	0x00009414
    e904:	00009408 	.word	0x00009408
    e908:	00009404 	.word	0x00009404
    e90c:	00009354 	.word	0x00009354
    e910:	00009330 	.word	0x00009330
    e914:	000091d8 	.word	0x000091d8
    e918:	00007fe8 	.word	0x00007fe8
    e91c:	000091d8 	.word	0x000091d8
    e920:	000091d4 	.word	0x000091d4
    e924:	000091d4 	.word	0x000091d4
    e928:	000091d4 	.word	0x000091d4
    e92c:	00008d2c 	.word	0x00008d2c
    e930:	00009190 	.word	0x00009190
    e934:	00009068 	.word	0x00009068
    e938:	00008f68 	.word	0x00008f68
    e93c:	00008f68 	.word	0x00008f68
    e940:	00008e98 	.word	0x00008e98

0000e944 <_gcry_cipher_decrypt>:
    e944:	e92d41f0 	push	{r4, r5, r6, r7, r8, lr}
    e948:	e1a07000 	mov	r7, r0
    e94c:	e59d6018 	ldr	r6, [sp, #24]
    e950:	e1a04002 	mov	r4, r2
    e954:	e59f0084 	ldr	r0, [pc, #132]	; e9e0 <_gcry_cipher_decrypt+0x9c>
    e958:	e1a08001 	mov	r8, r1
    e95c:	e1a02006 	mov	r2, r6
    e960:	e1a01003 	mov	r1, r3
    e964:	e08f0000 	add	r0, pc, r0
    e968:	e1a05003 	mov	r5, r3
    e96c:	eb000dfc 	bl	12164 <tfp_printf>
    e970:	e59f006c 	ldr	r0, [pc, #108]	; e9e4 <_gcry_cipher_decrypt+0xa0>
    e974:	e1a02004 	mov	r2, r4
    e978:	e5973020 	ldr	r3, [r7, #32]
    e97c:	e1a01006 	mov	r1, r6
    e980:	e08f0000 	add	r0, pc, r0
    e984:	eb000df6 	bl	12164 <tfp_printf>
    e988:	e3550000 	cmp	r5, #0
    e98c:	0a00000d 	beq	e9c8 <_gcry_cipher_decrypt+0x84>
    e990:	e1560004 	cmp	r6, r4
    e994:	0a000004 	beq	e9ac <_gcry_cipher_decrypt+0x68>
    e998:	e59f0048 	ldr	r0, [pc, #72]	; e9e8 <_gcry_cipher_decrypt+0xa4>
    e99c:	e1a02004 	mov	r2, r4
    e9a0:	e1a01006 	mov	r1, r6
    e9a4:	e08f0000 	add	r0, pc, r0
    e9a8:	eb000ded 	bl	12164 <tfp_printf>
    e9ac:	e58d6018 	str	r6, [sp, #24]
    e9b0:	e1a03005 	mov	r3, r5
    e9b4:	e1a02004 	mov	r2, r4
    e9b8:	e1a01008 	mov	r1, r8
    e9bc:	e1a00007 	mov	r0, r7
    e9c0:	e8bd41f0 	pop	{r4, r5, r6, r7, r8, lr}
    e9c4:	eafffe47 	b	e2e8 <_gcry_cipher_cfb_decrypt>
    e9c8:	e59f001c 	ldr	r0, [pc, #28]	; e9ec <_gcry_cipher_decrypt+0xa8>
    e9cc:	e1a06004 	mov	r6, r4
    e9d0:	e1a05008 	mov	r5, r8
    e9d4:	e08f0000 	add	r0, pc, r0
    e9d8:	eb000de1 	bl	12164 <tfp_printf>
    e9dc:	eafffff2 	b	e9ac <_gcry_cipher_decrypt+0x68>
    e9e0:	00008ea4 	.word	0x00008ea4
    e9e4:	00008eac 	.word	0x00008eac
    e9e8:	00008eec 	.word	0x00008eec
    e9ec:	00008e94 	.word	0x00008e94

0000e9f0 <_gcry_cipher_cfb_encrypt>:
    e9f0:	e92d4ff0 	push	{r4, r5, r6, r7, r8, r9, sl, fp, lr}
    e9f4:	e24dd03c 	sub	sp, sp, #60	; 0x3c
    e9f8:	e59f7428 	ldr	r7, [pc, #1064]	; ee28 <_gcry_cipher_cfb_encrypt+0x438>
    e9fc:	e1a05000 	mov	r5, r0
    ea00:	e59d9060 	ldr	r9, [sp, #96]	; 0x60
    ea04:	e2454001 	sub	r4, r5, #1
    ea08:	e59f041c 	ldr	r0, [pc, #1052]	; ee2c <_gcry_cipher_cfb_encrypt+0x43c>
    ea0c:	e2856007 	add	r6, r5, #7
    ea10:	e58d100c 	str	r1, [sp, #12]
    ea14:	e1a01009 	mov	r1, r9
    ea18:	e08f0000 	add	r0, pc, r0
    ea1c:	e08f7007 	add	r7, pc, r7
    ea20:	e58d2014 	str	r2, [sp, #20]
    ea24:	e58d3010 	str	r3, [sp, #16]
    ea28:	eb000dcd 	bl	12164 <tfp_printf>
    ea2c:	e5f41001 	ldrb	r1, [r4, #1]!
    ea30:	e1a00007 	mov	r0, r7
    ea34:	eb000dca 	bl	12164 <tfp_printf>
    ea38:	e1540006 	cmp	r4, r6
    ea3c:	1afffffa 	bne	ea2c <_gcry_cipher_cfb_encrypt+0x3c>
    ea40:	e59f03e8 	ldr	r0, [pc, #1000]	; ee30 <_gcry_cipher_cfb_encrypt+0x440>
    ea44:	e08f0000 	add	r0, pc, r0
    ea48:	eb000dc5 	bl	12164 <tfp_printf>
    ea4c:	e59d3014 	ldr	r3, [sp, #20]
    ea50:	e1590003 	cmp	r9, r3
    ea54:	8a0000f1 	bhi	ee20 <_gcry_cipher_cfb_encrypt+0x430>
    ea58:	e5953020 	ldr	r3, [r5, #32]
    ea5c:	e1530009 	cmp	r3, r9
    ea60:	2a0000d2 	bcs	edb0 <_gcry_cipher_cfb_encrypt+0x3c0>
    ea64:	e3530000 	cmp	r3, #0
    ea68:	1a000079 	bne	ec54 <_gcry_cipher_cfb_encrypt+0x264>
    ea6c:	e59f03c0 	ldr	r0, [pc, #960]	; ee34 <_gcry_cipher_cfb_encrypt+0x444>
    ea70:	e3a03000 	mov	r3, #0
    ea74:	e59d2014 	ldr	r2, [sp, #20]
    ea78:	e1a01009 	mov	r1, r9
    ea7c:	e08f0000 	add	r0, pc, r0
    ea80:	eb000db7 	bl	12164 <tfp_printf>
    ea84:	e359000f 	cmp	r9, #15
    ea88:	9a00006c 	bls	ec40 <_gcry_cipher_cfb_encrypt+0x250>
    ea8c:	e59d2010 	ldr	r2, [sp, #16]
    ea90:	e2493010 	sub	r3, r9, #16
    ea94:	e58d301c 	str	r3, [sp, #28]
    ea98:	e285b030 	add	fp, r5, #48	; 0x30
    ea9c:	e1a031a3 	lsr	r3, r3, #3
    eaa0:	e1a06002 	mov	r6, r2
    eaa4:	e58d3018 	str	r3, [sp, #24]
    eaa8:	e2833001 	add	r3, r3, #1
    eaac:	e59fa384 	ldr	sl, [pc, #900]	; ee38 <_gcry_cipher_cfb_encrypt+0x448>
    eab0:	e28d4030 	add	r4, sp, #48	; 0x30
    eab4:	e0823183 	add	r3, r2, r3, lsl #3
    eab8:	e28d7020 	add	r7, sp, #32
    eabc:	e58d9060 	str	r9, [sp, #96]	; 0x60
    eac0:	e1a09003 	mov	r9, r3
    eac4:	e08fa00a 	add	sl, pc, sl
    eac8:	e59d800c 	ldr	r8, [sp, #12]
    eacc:	e1a01005 	mov	r1, r5
    ead0:	e1a00004 	mov	r0, r4
    ead4:	ebfffdf1 	bl	e2a0 <blockFromBytes>
    ead8:	e3a03000 	mov	r3, #0
    eadc:	e1a0100b 	mov	r1, fp
    eae0:	e58d3000 	str	r3, [sp]
    eae4:	e1a00007 	mov	r0, r7
    eae8:	e894000c 	ldm	r4, {r2, r3}
    eaec:	ebfffdc1 	bl	e1f8 <encrypt>
    eaf0:	e8970003 	ldm	r7, {r0, r1}
    eaf4:	e1a02005 	mov	r2, r5
    eaf8:	e8840003 	stm	r4, {r0, r1}
    eafc:	ebfffda9 	bl	e1a8 <bytesFromBlock>
    eb00:	e59d2034 	ldr	r2, [sp, #52]	; 0x34
    eb04:	e1a0000a 	mov	r0, sl
    eb08:	e59d1030 	ldr	r1, [sp, #48]	; 0x30
    eb0c:	eb000d94 	bl	12164 <tfp_printf>
    eb10:	e1a02006 	mov	r2, r6
    eb14:	e1a00008 	mov	r0, r8
    eb18:	e2866008 	add	r6, r6, #8
    eb1c:	e3a03008 	mov	r3, #8
    eb20:	e1a01005 	mov	r1, r5
    eb24:	e2888008 	add	r8, r8, #8
    eb28:	ebfffc35 	bl	dc04 <cipher_block_xor_2dst>
    eb2c:	e1560009 	cmp	r6, r9
    eb30:	1affffe5 	bne	eacc <_gcry_cipher_cfb_encrypt+0xdc>
    eb34:	e59d301c 	ldr	r3, [sp, #28]
    eb38:	e3e00007 	mvn	r0, #7
    eb3c:	e59d200c 	ldr	r2, [sp, #12]
    eb40:	e3c33007 	bic	r3, r3, #7
    eb44:	e59d9060 	ldr	r9, [sp, #96]	; 0x60
    eb48:	e2833008 	add	r3, r3, #8
    eb4c:	e0822003 	add	r2, r2, r3
    eb50:	e58d200c 	str	r2, [sp, #12]
    eb54:	e2499008 	sub	r9, r9, #8
    eb58:	e59d2010 	ldr	r2, [sp, #16]
    eb5c:	e0823003 	add	r3, r2, r3
    eb60:	e58d3010 	str	r3, [sp, #16]
    eb64:	e59d3018 	ldr	r3, [sp, #24]
    eb68:	e0299390 	mla	r9, r0, r3, r9
    eb6c:	e59f02c8 	ldr	r0, [pc, #712]	; ee3c <_gcry_cipher_cfb_encrypt+0x44c>
    eb70:	e1a01009 	mov	r1, r9
    eb74:	e5953020 	ldr	r3, [r5, #32]
    eb78:	e28d4028 	add	r4, sp, #40	; 0x28
    eb7c:	e08f0000 	add	r0, pc, r0
    eb80:	e2499008 	sub	r9, r9, #8
    eb84:	e59d2014 	ldr	r2, [sp, #20]
    eb88:	e59f62b0 	ldr	r6, [pc, #688]	; ee40 <_gcry_cipher_cfb_encrypt+0x450>
    eb8c:	eb000d74 	bl	12164 <tfp_printf>
    eb90:	e3a02008 	mov	r2, #8
    eb94:	e1a01005 	mov	r1, r5
    eb98:	e08f6006 	add	r6, pc, r6
    eb9c:	e2850010 	add	r0, r5, #16
    eba0:	ebfffc3f 	bl	dca4 <cipher_block_cpy>
    eba4:	e1a01005 	mov	r1, r5
    eba8:	e1a00004 	mov	r0, r4
    ebac:	ebfffdbb 	bl	e2a0 <blockFromBytes>
    ebb0:	e59d202c 	ldr	r2, [sp, #44]	; 0x2c
    ebb4:	e1a00006 	mov	r0, r6
    ebb8:	e59d1028 	ldr	r1, [sp, #40]	; 0x28
    ebbc:	eb000d68 	bl	12164 <tfp_printf>
    ebc0:	e3a03000 	mov	r3, #0
    ebc4:	e1a00007 	mov	r0, r7
    ebc8:	e58d3000 	str	r3, [sp]
    ebcc:	e1a0100b 	mov	r1, fp
    ebd0:	e894000c 	ldm	r4, {r2, r3}
    ebd4:	ebfffd87 	bl	e1f8 <encrypt>
    ebd8:	e8970003 	ldm	r7, {r0, r1}
    ebdc:	e1a02005 	mov	r2, r5
    ebe0:	e1a07000 	mov	r7, r0
    ebe4:	e1a08001 	mov	r8, r1
    ebe8:	e8840003 	stm	r4, {r0, r1}
    ebec:	ebfffd6d 	bl	e1a8 <bytesFromBlock>
    ebf0:	e1a02008 	mov	r2, r8
    ebf4:	e1a01007 	mov	r1, r7
    ebf8:	e1a00006 	mov	r0, r6
    ebfc:	eb000d58 	bl	12164 <tfp_printf>
    ec00:	e59d3010 	ldr	r3, [sp, #16]
    ec04:	e1a01005 	mov	r1, r5
    ec08:	e1a02003 	mov	r2, r3
    ec0c:	e2833008 	add	r3, r3, #8
    ec10:	e58d3010 	str	r3, [sp, #16]
    ec14:	e59d300c 	ldr	r3, [sp, #12]
    ec18:	e1a00003 	mov	r0, r3
    ec1c:	e2833008 	add	r3, r3, #8
    ec20:	e58d300c 	str	r3, [sp, #12]
    ec24:	e3a03008 	mov	r3, #8
    ec28:	ebfffbf5 	bl	dc04 <cipher_block_xor_2dst>
    ec2c:	e3590000 	cmp	r9, #0
    ec30:	01a00009 	moveq	r0, r9
    ec34:	1a000027 	bne	ecd8 <_gcry_cipher_cfb_encrypt+0x2e8>
    ec38:	e28dd03c 	add	sp, sp, #60	; 0x3c
    ec3c:	e8bd8ff0 	pop	{r4, r5, r6, r7, r8, r9, sl, fp, pc}
    ec40:	e3590007 	cmp	r9, #7
    ec44:	9afffff8 	bls	ec2c <_gcry_cipher_cfb_encrypt+0x23c>
    ec48:	e285b030 	add	fp, r5, #48	; 0x30
    ec4c:	e28d7020 	add	r7, sp, #32
    ec50:	eaffffc5 	b	eb6c <_gcry_cipher_cfb_encrypt+0x17c>
    ec54:	e59f01e8 	ldr	r0, [pc, #488]	; ee44 <_gcry_cipher_cfb_encrypt+0x454>
    ec58:	e1a01009 	mov	r1, r9
    ec5c:	e59d2014 	ldr	r2, [sp, #20]
    ec60:	e08f0000 	add	r0, pc, r0
    ec64:	eb000d3e 	bl	12164 <tfp_printf>
    ec68:	e595c020 	ldr	ip, [r5, #32]
    ec6c:	e049900c 	sub	r9, r9, ip
    ec70:	e35c0000 	cmp	ip, #0
    ec74:	0a00000e 	beq	ecb4 <_gcry_cipher_cfb_encrypt+0x2c4>
    ec78:	e59d3010 	ldr	r3, [sp, #16]
    ec7c:	e26c2007 	rsb	r2, ip, #7
    ec80:	e0852002 	add	r2, r5, r2
    ec84:	e2431001 	sub	r1, r3, #1
    ec88:	e59d300c 	ldr	r3, [sp, #12]
    ec8c:	e081c00c 	add	ip, r1, ip
    ec90:	e2430001 	sub	r0, r3, #1
    ec94:	e5f1e001 	ldrb	lr, [r1, #1]!
    ec98:	e5f23001 	ldrb	r3, [r2, #1]!
    ec9c:	e151000c 	cmp	r1, ip
    eca0:	e023300e 	eor	r3, r3, lr
    eca4:	e5c23000 	strb	r3, [r2]
    eca8:	e5e03001 	strb	r3, [r0, #1]!
    ecac:	1afffff8 	bne	ec94 <_gcry_cipher_cfb_encrypt+0x2a4>
    ecb0:	e595c020 	ldr	ip, [r5, #32]
    ecb4:	e59d300c 	ldr	r3, [sp, #12]
    ecb8:	e083300c 	add	r3, r3, ip
    ecbc:	e58d300c 	str	r3, [sp, #12]
    ecc0:	e59d3010 	ldr	r3, [sp, #16]
    ecc4:	e083300c 	add	r3, r3, ip
    ecc8:	e58d3010 	str	r3, [sp, #16]
    eccc:	e3a03000 	mov	r3, #0
    ecd0:	e5853020 	str	r3, [r5, #32]
    ecd4:	eaffff64 	b	ea6c <_gcry_cipher_cfb_encrypt+0x7c>
    ecd8:	e59f0168 	ldr	r0, [pc, #360]	; ee48 <_gcry_cipher_cfb_encrypt+0x458>
    ecdc:	e1a01009 	mov	r1, r9
    ece0:	e5953020 	ldr	r3, [r5, #32]
    ece4:	e28d4030 	add	r4, sp, #48	; 0x30
    ece8:	e59d2014 	ldr	r2, [sp, #20]
    ecec:	e28d7020 	add	r7, sp, #32
    ecf0:	e08f0000 	add	r0, pc, r0
    ecf4:	e3a08000 	mov	r8, #0
    ecf8:	e59f614c 	ldr	r6, [pc, #332]	; ee4c <_gcry_cipher_cfb_encrypt+0x45c>
    ecfc:	eb000d18 	bl	12164 <tfp_printf>
    ed00:	e3a02008 	mov	r2, #8
    ed04:	e1a01005 	mov	r1, r5
    ed08:	e08f6006 	add	r6, pc, r6
    ed0c:	e2850010 	add	r0, r5, #16
    ed10:	ebfffbe3 	bl	dca4 <cipher_block_cpy>
    ed14:	e1a01005 	mov	r1, r5
    ed18:	e1a00004 	mov	r0, r4
    ed1c:	ebfffd5f 	bl	e2a0 <blockFromBytes>
    ed20:	e59d2034 	ldr	r2, [sp, #52]	; 0x34
    ed24:	e1a00006 	mov	r0, r6
    ed28:	e59d1030 	ldr	r1, [sp, #48]	; 0x30
    ed2c:	eb000d0c 	bl	12164 <tfp_printf>
    ed30:	e58d8000 	str	r8, [sp]
    ed34:	e2851030 	add	r1, r5, #48	; 0x30
    ed38:	e894000c 	ldm	r4, {r2, r3}
    ed3c:	e1a00007 	mov	r0, r7
    ed40:	ebfffd2c 	bl	e1f8 <encrypt>
    ed44:	e8970003 	ldm	r7, {r0, r1}
    ed48:	e1a02005 	mov	r2, r5
    ed4c:	e1a07000 	mov	r7, r0
    ed50:	e1a0a001 	mov	sl, r1
    ed54:	e8840003 	stm	r4, {r0, r1}
    ed58:	ebfffd12 	bl	e1a8 <bytesFromBlock>
    ed5c:	e1a0200a 	mov	r2, sl
    ed60:	e1a01007 	mov	r1, r7
    ed64:	e1a00006 	mov	r0, r6
    ed68:	eb000cfd 	bl	12164 <tfp_printf>
    ed6c:	e59d2010 	ldr	r2, [sp, #16]
    ed70:	e2693008 	rsb	r3, r9, #8
    ed74:	e59d000c 	ldr	r0, [sp, #12]
    ed78:	e1a01005 	mov	r1, r5
    ed7c:	e5853020 	str	r3, [r5, #32]
    ed80:	e1a03009 	mov	r3, r9
    ed84:	ebfffbb6 	bl	dc64 <buf_xor_2dst>
    ed88:	e1a01005 	mov	r1, r5
    ed8c:	e1a00004 	mov	r0, r4
    ed90:	ebfffd42 	bl	e2a0 <blockFromBytes>
    ed94:	e59d2034 	ldr	r2, [sp, #52]	; 0x34
    ed98:	e1a00006 	mov	r0, r6
    ed9c:	e59d1030 	ldr	r1, [sp, #48]	; 0x30
    eda0:	eb000cef 	bl	12164 <tfp_printf>
    eda4:	e1a00008 	mov	r0, r8
    eda8:	e28dd03c 	add	sp, sp, #60	; 0x3c
    edac:	e8bd8ff0 	pop	{r4, r5, r6, r7, r8, r9, sl, fp, pc}
    edb0:	e59f0098 	ldr	r0, [pc, #152]	; ee50 <_gcry_cipher_cfb_encrypt+0x460>
    edb4:	e1a01009 	mov	r1, r9
    edb8:	e59d2014 	ldr	r2, [sp, #20]
    edbc:	e08f0000 	add	r0, pc, r0
    edc0:	eb000ce7 	bl	12164 <tfp_printf>
    edc4:	e5952020 	ldr	r2, [r5, #32]
    edc8:	e3590000 	cmp	r9, #0
    edcc:	0a00000e 	beq	ee0c <_gcry_cipher_cfb_encrypt+0x41c>
    edd0:	e59d3010 	ldr	r3, [sp, #16]
    edd4:	e2622007 	rsb	r2, r2, #7
    edd8:	e0852002 	add	r2, r5, r2
    eddc:	e2431001 	sub	r1, r3, #1
    ede0:	e59d300c 	ldr	r3, [sp, #12]
    ede4:	e081e009 	add	lr, r1, r9
    ede8:	e2430001 	sub	r0, r3, #1
    edec:	e5f1c001 	ldrb	ip, [r1, #1]!
    edf0:	e5f23001 	ldrb	r3, [r2, #1]!
    edf4:	e151000e 	cmp	r1, lr
    edf8:	e023300c 	eor	r3, r3, ip
    edfc:	e5c23000 	strb	r3, [r2]
    ee00:	e5e03001 	strb	r3, [r0, #1]!
    ee04:	1afffff8 	bne	edec <_gcry_cipher_cfb_encrypt+0x3fc>
    ee08:	e5952020 	ldr	r2, [r5, #32]
    ee0c:	e0422009 	sub	r2, r2, r9
    ee10:	e3a00000 	mov	r0, #0
    ee14:	e5852020 	str	r2, [r5, #32]
    ee18:	e28dd03c 	add	sp, sp, #60	; 0x3c
    ee1c:	e8bd8ff0 	pop	{r4, r5, r6, r7, r8, r9, sl, fp, pc}
    ee20:	e3e00000 	mvn	r0, #0
    ee24:	eaffff83 	b	ec38 <_gcry_cipher_cfb_encrypt+0x248>
    ee28:	00008160 	.word	0x00008160
    ee2c:	00008ea0 	.word	0x00008ea0
    ee30:	000088c0 	.word	0x000088c0
    ee34:	00008ea0 	.word	0x00008ea0
    ee38:	00008d20 	.word	0x00008d20
    ee3c:	00008db8 	.word	0x00008db8
    ee40:	00008c4c 	.word	0x00008c4c
    ee44:	00008ca4 	.word	0x00008ca4
    ee48:	00008c5c 	.word	0x00008c5c
    ee4c:	00008adc 	.word	0x00008adc
    ee50:	00008b30 	.word	0x00008b30

0000ee54 <strlen>:
    ee54:	e5d03000 	ldrb	r3, [r0]
    ee58:	e3530000 	cmp	r3, #0
    ee5c:	0a000005 	beq	ee78 <strlen+0x24>
    ee60:	e1a03000 	mov	r3, r0
    ee64:	e5f32001 	ldrb	r2, [r3, #1]!
    ee68:	e3520000 	cmp	r2, #0
    ee6c:	1afffffc 	bne	ee64 <strlen+0x10>
    ee70:	e0430000 	sub	r0, r3, r0
    ee74:	e12fff1e 	bx	lr
    ee78:	e1a00003 	mov	r0, r3
    ee7c:	e12fff1e 	bx	lr

0000ee80 <print_memory_map>:
    ee80:	e59f0084 	ldr	r0, [pc, #132]	; ef0c <print_memory_map+0x8c>
    ee84:	e92d4010 	push	{r4, lr}
    ee88:	e59f4080 	ldr	r4, [pc, #128]	; ef10 <print_memory_map+0x90>
    ee8c:	e08f0000 	add	r0, pc, r0
    ee90:	e08f4004 	add	r4, pc, r4
    ee94:	eb000cb2 	bl	12164 <tfp_printf>
    ee98:	e59f3074 	ldr	r3, [pc, #116]	; ef14 <print_memory_map+0x94>
    ee9c:	e59f2074 	ldr	r2, [pc, #116]	; ef18 <print_memory_map+0x98>
    eea0:	e59f0074 	ldr	r0, [pc, #116]	; ef1c <print_memory_map+0x9c>
    eea4:	e7941003 	ldr	r1, [r4, r3]
    eea8:	e7942002 	ldr	r2, [r4, r2]
    eeac:	e08f0000 	add	r0, pc, r0
    eeb0:	eb000cab 	bl	12164 <tfp_printf>
    eeb4:	e59f3064 	ldr	r3, [pc, #100]	; ef20 <print_memory_map+0xa0>
    eeb8:	e59f2064 	ldr	r2, [pc, #100]	; ef24 <print_memory_map+0xa4>
    eebc:	e59f0064 	ldr	r0, [pc, #100]	; ef28 <print_memory_map+0xa8>
    eec0:	e7941003 	ldr	r1, [r4, r3]
    eec4:	e7942002 	ldr	r2, [r4, r2]
    eec8:	e08f0000 	add	r0, pc, r0
    eecc:	eb000ca4 	bl	12164 <tfp_printf>
    eed0:	e59f3054 	ldr	r3, [pc, #84]	; ef2c <print_memory_map+0xac>
    eed4:	e59f2054 	ldr	r2, [pc, #84]	; ef30 <print_memory_map+0xb0>
    eed8:	e59f0054 	ldr	r0, [pc, #84]	; ef34 <print_memory_map+0xb4>
    eedc:	e7941003 	ldr	r1, [r4, r3]
    eee0:	e7942002 	ldr	r2, [r4, r2]
    eee4:	e08f0000 	add	r0, pc, r0
    eee8:	eb000c9d 	bl	12164 <tfp_printf>
    eeec:	e59f2044 	ldr	r2, [pc, #68]	; ef38 <print_memory_map+0xb8>
    eef0:	e59f3044 	ldr	r3, [pc, #68]	; ef3c <print_memory_map+0xbc>
    eef4:	e59f0044 	ldr	r0, [pc, #68]	; ef40 <print_memory_map+0xc0>
    eef8:	e7942002 	ldr	r2, [r4, r2]
    eefc:	e7941003 	ldr	r1, [r4, r3]
    ef00:	e08f0000 	add	r0, pc, r0
    ef04:	e8bd4010 	pop	{r4, lr}
    ef08:	ea000c95 	b	12164 <tfp_printf>
    ef0c:	00008ad8 	.word	0x00008ad8
    ef10:	0002cc94 	.word	0x0002cc94
    ef14:	0000000c 	.word	0x0000000c
    ef18:	00000038 	.word	0x00000038
    ef1c:	00008ac8 	.word	0x00008ac8
    ef20:	00000030 	.word	0x00000030
    ef24:	00000018 	.word	0x00000018
    ef28:	00008abc 	.word	0x00008abc
    ef2c:	00000058 	.word	0x00000058
    ef30:	00000034 	.word	0x00000034
    ef34:	00008ab4 	.word	0x00008ab4
    ef38:	00000020 	.word	0x00000020
    ef3c:	0000003c 	.word	0x0000003c
    ef40:	00008aa8 	.word	0x00008aa8

0000ef44 <uart_putc>:
    ef44:	e3a03a01 	mov	r3, #4096	; 0x1000
    ef48:	e341301f 	movt	r3, #4127	; 0x101f
    ef4c:	e5830000 	str	r0, [r3]
    ef50:	e12fff1e 	bx	lr

0000ef54 <putc_uart>:
    ef54:	e1a00001 	mov	r0, r1
    ef58:	eafffff9 	b	ef44 <uart_putc>

0000ef5c <putc_uart2>:
    ef5c:	e1a00001 	mov	r0, r1
    ef60:	eafffff7 	b	ef44 <uart_putc>

0000ef64 <reset_literals_seen>:
    ef64:	e59f300c 	ldr	r3, [pc, #12]	; ef78 <reset_literals_seen+0x14>
    ef68:	e3a02000 	mov	r2, #0
    ef6c:	e08f3003 	add	r3, pc, r3
    ef70:	e5832000 	str	r2, [r3]
    ef74:	e12fff1e 	bx	lr
    ef78:	0002d2b4 	.word	0x0002d2b4

0000ef7c <derive_key>:
    ef7c:	e92d4ff0 	push	{r4, r5, r6, r7, r8, r9, sl, fp, lr}
    ef80:	e1a09000 	mov	r9, r0
    ef84:	e59f01c8 	ldr	r0, [pc, #456]	; f154 <derive_key+0x1d8>
    ef88:	e24dd074 	sub	sp, sp, #116	; 0x74
    ef8c:	e59fa1c4 	ldr	sl, [pc, #452]	; f158 <derive_key+0x1dc>
    ef90:	e1a04001 	mov	r4, r1
    ef94:	e08f0000 	add	r0, pc, r0
    ef98:	e1a06002 	mov	r6, r2
    ef9c:	e58d100c 	str	r1, [sp, #12]
    efa0:	e1a07003 	mov	r7, r3
    efa4:	e08fa00a 	add	sl, pc, sl
    efa8:	eb000c6d 	bl	12164 <tfp_printf>
    efac:	e59f01a8 	ldr	r0, [pc, #424]	; f15c <derive_key+0x1e0>
    efb0:	e1a02004 	mov	r2, r4
    efb4:	e58d7000 	str	r7, [sp]
    efb8:	e1a03006 	mov	r3, r6
    efbc:	e08f0000 	add	r0, pc, r0
    efc0:	e1a01009 	mov	r1, r9
    efc4:	e2494001 	sub	r4, r9, #1
    efc8:	eb000c65 	bl	12164 <tfp_printf>
    efcc:	e59f018c 	ldr	r0, [pc, #396]	; f160 <derive_key+0x1e4>
    efd0:	e2898007 	add	r8, r9, #7
    efd4:	e08f0000 	add	r0, pc, r0
    efd8:	eb000c61 	bl	12164 <tfp_printf>
    efdc:	e5f41001 	ldrb	r1, [r4, #1]!
    efe0:	e1a0000a 	mov	r0, sl
    efe4:	eb000c5e 	bl	12164 <tfp_printf>
    efe8:	e1580004 	cmp	r8, r4
    efec:	1afffffa 	bne	efdc <derive_key+0x60>
    eff0:	e59f016c 	ldr	r0, [pc, #364]	; f164 <derive_key+0x1e8>
    eff4:	e08f0000 	add	r0, pc, r0
    eff8:	eb000c59 	bl	12164 <tfp_printf>
    effc:	e3560003 	cmp	r6, #3
    f000:	31a01006 	movcc	r1, r6
    f004:	23a01003 	movcs	r1, #3
    f008:	8a00004c 	bhi	f140 <derive_key+0x1c4>
    f00c:	e59f3154 	ldr	r3, [pc, #340]	; f168 <derive_key+0x1ec>
    f010:	e08f3003 	add	r3, pc, r3
    f014:	e59f0150 	ldr	r0, [pc, #336]	; f16c <derive_key+0x1f0>
    f018:	e28d8014 	add	r8, sp, #20
    f01c:	e59d200c 	ldr	r2, [sp, #12]
    f020:	e08f0000 	add	r0, pc, r0
    f024:	eb000c4e 	bl	12164 <tfp_printf>
    f028:	e1a00008 	mov	r0, r8
    f02c:	eb001128 	bl	134d4 <SHA1Init>
    f030:	e59f0138 	ldr	r0, [pc, #312]	; f170 <derive_key+0x1f4>
    f034:	e08f0000 	add	r0, pc, r0
    f038:	eb000c49 	bl	12164 <tfp_printf>
    f03c:	e3570000 	cmp	r7, #0
    f040:	0a000041 	beq	f14c <derive_key+0x1d0>
    f044:	e28db013 	add	fp, sp, #19
    f048:	e1a03008 	mov	r3, r8
    f04c:	e3a04000 	mov	r4, #0
    f050:	e1a0800b 	mov	r8, fp
    f054:	e286a008 	add	sl, r6, #8
    f058:	e1a05004 	mov	r5, r4
    f05c:	e1a0b003 	mov	fp, r3
    f060:	e3540007 	cmp	r4, #7
    f064:	9a000032 	bls	f134 <derive_key+0x1b8>
    f068:	e2443008 	sub	r3, r4, #8
    f06c:	e2844001 	add	r4, r4, #1
    f070:	e732f613 	udiv	r2, r3, r6
    f074:	e0633296 	mls	r3, r6, r2, r3
    f078:	e59d200c 	ldr	r2, [sp, #12]
    f07c:	e7d23003 	ldrb	r3, [r2, r3]
    f080:	e5cd3013 	strb	r3, [sp, #19]
    f084:	e3a02001 	mov	r2, #1
    f088:	e1a01008 	mov	r1, r8
    f08c:	e1a0000b 	mov	r0, fp
    f090:	e2855001 	add	r5, r5, #1
    f094:	eb001121 	bl	13520 <SHA1Update>
    f098:	e15a0004 	cmp	sl, r4
    f09c:	8a000005 	bhi	f0b8 <derive_key+0x13c>
    f0a0:	e1570005 	cmp	r7, r5
    f0a4:	e3a03000 	mov	r3, #0
    f0a8:	e3a04001 	mov	r4, #1
    f0ac:	9a000003 	bls	f0c0 <derive_key+0x144>
    f0b0:	e7d93003 	ldrb	r3, [r9, r3]
    f0b4:	eafffff1 	b	f080 <derive_key+0x104>
    f0b8:	e1570005 	cmp	r7, r5
    f0bc:	8affffe7 	bhi	f060 <derive_key+0xe4>
    f0c0:	e1a0800b 	mov	r8, fp
    f0c4:	e59f00a8 	ldr	r0, [pc, #168]	; f174 <derive_key+0x1f8>
    f0c8:	e1a01005 	mov	r1, r5
    f0cc:	e59f60a4 	ldr	r6, [pc, #164]	; f178 <derive_key+0x1fc>
    f0d0:	e08f0000 	add	r0, pc, r0
    f0d4:	e08f6006 	add	r6, pc, r6
    f0d8:	eb000c21 	bl	12164 <tfp_printf>
    f0dc:	e59d0098 	ldr	r0, [sp, #152]	; 0x98
    f0e0:	e1a01008 	mov	r1, r8
    f0e4:	eb00113d 	bl	135e0 <SHA1Final>
    f0e8:	e59f008c 	ldr	r0, [pc, #140]	; f17c <derive_key+0x200>
    f0ec:	e59d3098 	ldr	r3, [sp, #152]	; 0x98
    f0f0:	e08f0000 	add	r0, pc, r0
    f0f4:	e2434001 	sub	r4, r3, #1
    f0f8:	e2835013 	add	r5, r3, #19
    f0fc:	eb000c18 	bl	12164 <tfp_printf>
    f100:	e5f41001 	ldrb	r1, [r4, #1]!
    f104:	e1a00006 	mov	r0, r6
    f108:	eb000c15 	bl	12164 <tfp_printf>
    f10c:	e1550004 	cmp	r5, r4
    f110:	1afffffa 	bne	f100 <derive_key+0x184>
    f114:	e59f0064 	ldr	r0, [pc, #100]	; f180 <derive_key+0x204>
    f118:	e08f0000 	add	r0, pc, r0
    f11c:	eb000c10 	bl	12164 <tfp_printf>
    f120:	e59f005c 	ldr	r0, [pc, #92]	; f184 <derive_key+0x208>
    f124:	e08f0000 	add	r0, pc, r0
    f128:	eb000c0d 	bl	12164 <tfp_printf>
    f12c:	e28dd074 	add	sp, sp, #116	; 0x74
    f130:	e8bd8ff0 	pop	{r4, r5, r6, r7, r8, r9, sl, fp, pc}
    f134:	e1a03004 	mov	r3, r4
    f138:	e2844001 	add	r4, r4, #1
    f13c:	eaffffdb 	b	f0b0 <derive_key+0x134>
    f140:	e59f3040 	ldr	r3, [pc, #64]	; f188 <derive_key+0x20c>
    f144:	e08f3003 	add	r3, pc, r3
    f148:	eaffffb1 	b	f014 <derive_key+0x98>
    f14c:	e1a05007 	mov	r5, r7
    f150:	eaffffdb 	b	f0c4 <derive_key+0x148>
    f154:	00008b1c 	.word	0x00008b1c
    f158:	00008b68 	.word	0x00008b68
    f15c:	00008b08 	.word	0x00008b08
    f160:	00008b30 	.word	0x00008b30
    f164:	00008310 	.word	0x00008310
    f168:	000082e4 	.word	0x000082e4
    f16c:	00008af4 	.word	0x00008af4
    f170:	00008af4 	.word	0x00008af4
    f174:	00008a74 	.word	0x00008a74
    f178:	00007aa8 	.word	0x00007aa8
    f17c:	00008a84 	.word	0x00008a84
    f180:	000081ec 	.word	0x000081ec
    f184:	00008a60 	.word	0x00008a60
    f188:	00008968 	.word	0x00008968

0000f18c <hex_to_bytes>:
    f18c:	e3520000 	cmp	r2, #0
    f190:	012fff1e 	bxeq	lr
    f194:	e080c082 	add	ip, r0, r2, lsl #1
    f198:	e2411001 	sub	r1, r1, #1
    f19c:	e52de004 	push	{lr}		; (str lr, [sp, #-4]!)
    f1a0:	ea000018 	b	f208 <hex_to_bytes+0x7c>
    f1a4:	e2423061 	sub	r3, r2, #97	; 0x61
    f1a8:	e3530005 	cmp	r3, #5
    f1ac:	92423057 	subls	r3, r2, #87	; 0x57
    f1b0:	83a03000 	movhi	r3, #0
    f1b4:	97a33053 	sbfxls	r3, r3, #0, #4
    f1b8:	91a03203 	lslls	r3, r3, #4
    f1bc:	e5d0e001 	ldrb	lr, [r0, #1]
    f1c0:	e24e2030 	sub	r2, lr, #48	; 0x30
    f1c4:	e6ef2072 	uxtb	r2, r2
    f1c8:	e3520009 	cmp	r2, #9
    f1cc:	91833002 	orrls	r3, r3, r2
    f1d0:	96af3073 	sxtbls	r3, r3
    f1d4:	9a000007 	bls	f1f8 <hex_to_bytes+0x6c>
    f1d8:	e24e2041 	sub	r2, lr, #65	; 0x41
    f1dc:	e3520005 	cmp	r2, #5
    f1e0:	9a000016 	bls	f240 <hex_to_bytes+0xb4>
    f1e4:	e24e2061 	sub	r2, lr, #97	; 0x61
    f1e8:	e3520005 	cmp	r2, #5
    f1ec:	924ee057 	subls	lr, lr, #87	; 0x57
    f1f0:	9183300e 	orrls	r3, r3, lr
    f1f4:	96af3073 	sxtbls	r3, r3
    f1f8:	e5e13001 	strb	r3, [r1, #1]!
    f1fc:	e2800002 	add	r0, r0, #2
    f200:	e150000c 	cmp	r0, ip
    f204:	049df004 	popeq	{pc}		; (ldreq pc, [sp], #4)
    f208:	e5d02000 	ldrb	r2, [r0]
    f20c:	e2423030 	sub	r3, r2, #48	; 0x30
    f210:	e6ef3073 	uxtb	r3, r3
    f214:	e3530009 	cmp	r3, #9
    f218:	91a03203 	lslls	r3, r3, #4
    f21c:	96af3073 	sxtbls	r3, r3
    f220:	9affffe5 	bls	f1bc <hex_to_bytes+0x30>
    f224:	e2423041 	sub	r3, r2, #65	; 0x41
    f228:	e3530005 	cmp	r3, #5
    f22c:	8affffdc 	bhi	f1a4 <hex_to_bytes+0x18>
    f230:	e2423037 	sub	r3, r2, #55	; 0x37
    f234:	e7a33053 	sbfx	r3, r3, #0, #4
    f238:	e1a03203 	lsl	r3, r3, #4
    f23c:	eaffffde 	b	f1bc <hex_to_bytes+0x30>
    f240:	e24ee037 	sub	lr, lr, #55	; 0x37
    f244:	e183300e 	orr	r3, r3, lr
    f248:	e6af3073 	sxtb	r3, r3
    f24c:	eaffffe9 	b	f1f8 <hex_to_bytes+0x6c>

0000f250 <passphrase_to_dek>:
    f250:	e92d4bf0 	push	{r4, r5, r6, r7, r8, r9, fp, lr}
    f254:	e28db01c 	add	fp, sp, #28
    f258:	e1a04000 	mov	r4, r0
    f25c:	e24dd010 	sub	sp, sp, #16
    f260:	e59f0208 	ldr	r0, [pc, #520]	; f470 <passphrase_to_dek+0x220>
    f264:	e59b800c 	ldr	r8, [fp, #12]
    f268:	e1a05002 	mov	r5, r2
    f26c:	e08f0000 	add	r0, pc, r0
    f270:	e1a07001 	mov	r7, r1
    f274:	e59b6014 	ldr	r6, [fp, #20]
    f278:	eb000bb9 	bl	12164 <tfp_printf>
    f27c:	e3580000 	cmp	r8, #0
    f280:	e3a03000 	mov	r3, #0
    f284:	024b8020 	subeq	r8, fp, #32
    f288:	e3550000 	cmp	r5, #0
    f28c:	e5883000 	str	r3, [r8]
    f290:	0a000003 	beq	f2a4 <passphrase_to_dek+0x54>
    f294:	e5973000 	ldr	r3, [r7]
    f298:	e3c33002 	bic	r3, r3, #2
    f29c:	e3530001 	cmp	r3, #1
    f2a0:	0a000061 	beq	f42c <passphrase_to_dek+0x1dc>
    f2a4:	e3a0003c 	mov	r0, #60	; 0x3c
    f2a8:	eb0002c6 	bl	fdc8 <xmalloc_clear>
    f2ac:	e5973010 	ldr	r3, [r7, #16]
    f2b0:	e3560000 	cmp	r6, #0
    f2b4:	e5804000 	str	r4, [r0]
    f2b8:	e3a02010 	mov	r2, #16
    f2bc:	e5802004 	str	r2, [r0, #4]
    f2c0:	e203400f 	and	r4, r3, #15
    f2c4:	e1a03223 	lsr	r3, r3, #4
    f2c8:	e2844010 	add	r4, r4, #16
    f2cc:	e2833006 	add	r3, r3, #6
    f2d0:	e1a05000 	mov	r5, r0
    f2d4:	e1a04314 	lsl	r4, r4, r3
    f2d8:	0a000048 	beq	f400 <passphrase_to_dek+0x1b0>
    f2dc:	e59f0190 	ldr	r0, [pc, #400]	; f474 <passphrase_to_dek+0x224>
    f2e0:	e1a01006 	mov	r1, r6
    f2e4:	e1a0800d 	mov	r8, sp
    f2e8:	e08f0000 	add	r0, pc, r0
    f2ec:	eb000b9c 	bl	12164 <tfp_printf>
    f2f0:	e5952004 	ldr	r2, [r5, #4]
    f2f4:	e1a00006 	mov	r0, r6
    f2f8:	e2876005 	add	r6, r7, #5
    f2fc:	e2823007 	add	r3, r2, #7
    f300:	e3c33007 	bic	r3, r3, #7
    f304:	e04dd003 	sub	sp, sp, r3
    f308:	e28d9008 	add	r9, sp, #8
    f30c:	e1a01009 	mov	r1, r9
    f310:	ebffff9d 	bl	f18c <hex_to_bytes>
    f314:	e5952004 	ldr	r2, [r5, #4]
    f318:	e1a01009 	mov	r1, r9
    f31c:	e2850009 	add	r0, r5, #9
    f320:	eb0002c3 	bl	fe34 <memcpy>
    f324:	e1a0d008 	mov	sp, r8
    f328:	e59f0148 	ldr	r0, [pc, #328]	; f478 <passphrase_to_dek+0x228>
    f32c:	e08f0000 	add	r0, pc, r0
    f330:	eb000b8b 	bl	12164 <tfp_printf>
    f334:	e59f0140 	ldr	r0, [pc, #320]	; f47c <passphrase_to_dek+0x22c>
    f338:	e5951000 	ldr	r1, [r5]
    f33c:	e08f0000 	add	r0, pc, r0
    f340:	eb000b87 	bl	12164 <tfp_printf>
    f344:	e59f0134 	ldr	r0, [pc, #308]	; f480 <passphrase_to_dek+0x230>
    f348:	e5951004 	ldr	r1, [r5, #4]
    f34c:	e08f0000 	add	r0, pc, r0
    f350:	eb000b83 	bl	12164 <tfp_printf>
    f354:	e59f0128 	ldr	r0, [pc, #296]	; f484 <passphrase_to_dek+0x234>
    f358:	e1a01004 	mov	r1, r4
    f35c:	e08f0000 	add	r0, pc, r0
    f360:	eb000b7f 	bl	12164 <tfp_printf>
    f364:	e59f011c 	ldr	r0, [pc, #284]	; f488 <passphrase_to_dek+0x238>
    f368:	e08f0000 	add	r0, pc, r0
    f36c:	eb000b7c 	bl	12164 <tfp_printf>
    f370:	e5953004 	ldr	r3, [r5, #4]
    f374:	e3530000 	cmp	r3, #0
    f378:	da00000b 	ble	f3ac <passphrase_to_dek+0x15c>
    f37c:	e59f9108 	ldr	r9, [pc, #264]	; f48c <passphrase_to_dek+0x23c>
    f380:	e2858008 	add	r8, r5, #8
    f384:	e08f9009 	add	r9, pc, r9
    f388:	e1a04008 	mov	r4, r8
    f38c:	e1a00009 	mov	r0, r9
    f390:	e5f81001 	ldrb	r1, [r8, #1]!
    f394:	e2444007 	sub	r4, r4, #7
    f398:	e0444005 	sub	r4, r4, r5
    f39c:	eb000b70 	bl	12164 <tfp_printf>
    f3a0:	e5953004 	ldr	r3, [r5, #4]
    f3a4:	e1530004 	cmp	r3, r4
    f3a8:	cafffff6 	bgt	f388 <passphrase_to_dek+0x138>
    f3ac:	e59f00dc 	ldr	r0, [pc, #220]	; f490 <passphrase_to_dek+0x240>
    f3b0:	e1a04006 	mov	r4, r6
    f3b4:	e59f60d8 	ldr	r6, [pc, #216]	; f494 <passphrase_to_dek+0x244>
    f3b8:	e287700d 	add	r7, r7, #13
    f3bc:	e08f0000 	add	r0, pc, r0
    f3c0:	e08f6006 	add	r6, pc, r6
    f3c4:	eb000b66 	bl	12164 <tfp_printf>
    f3c8:	e59f00c8 	ldr	r0, [pc, #200]	; f498 <passphrase_to_dek+0x248>
    f3cc:	e08f0000 	add	r0, pc, r0
    f3d0:	eb000b63 	bl	12164 <tfp_printf>
    f3d4:	e4d41001 	ldrb	r1, [r4], #1
    f3d8:	e1a00006 	mov	r0, r6
    f3dc:	eb000b60 	bl	12164 <tfp_printf>
    f3e0:	e1540007 	cmp	r4, r7
    f3e4:	1afffffa 	bne	f3d4 <passphrase_to_dek+0x184>
    f3e8:	e59f00ac 	ldr	r0, [pc, #172]	; f49c <passphrase_to_dek+0x24c>
    f3ec:	e08f0000 	add	r0, pc, r0
    f3f0:	eb000b5b 	bl	12164 <tfp_printf>
    f3f4:	e1a00005 	mov	r0, r5
    f3f8:	e24bd01c 	sub	sp, fp, #28
    f3fc:	e8bd8bf0 	pop	{r4, r5, r6, r7, r8, r9, fp, pc}
    f400:	e59b0010 	ldr	r0, [fp, #16]
    f404:	e2876005 	add	r6, r7, #5
    f408:	ebfffe91 	bl	ee54 <strlen>
    f40c:	e2853009 	add	r3, r5, #9
    f410:	e1a02000 	mov	r2, r0
    f414:	e58d3000 	str	r3, [sp]
    f418:	e1a00006 	mov	r0, r6
    f41c:	e59b1010 	ldr	r1, [fp, #16]
    f420:	e1a03004 	mov	r3, r4
    f424:	ebfffed4 	bl	ef7c <derive_key>
    f428:	eaffffbe 	b	f328 <passphrase_to_dek+0xd8>
    f42c:	e59f006c 	ldr	r0, [pc, #108]	; f4a0 <passphrase_to_dek+0x250>
    f430:	e08f0000 	add	r0, pc, r0
    f434:	eb000b4a 	bl	12164 <tfp_printf>
    f438:	e5971000 	ldr	r1, [r7]
    f43c:	e3a0200a 	mov	r2, #10
    f440:	e5c72005 	strb	r2, [r7, #5]
    f444:	e3003e0d 	movw	r3, #3597	; 0xe0d
    f448:	e341300f 	movt	r3, #4111	; 0x100f
    f44c:	e3510003 	cmp	r1, #3
    f450:	e5873008 	str	r3, [r7, #8]
    f454:	e3002c0b 	movw	r2, #3083	; 0xc0b
    f458:	e1c720b6 	strh	r2, [r7, #6]
    f45c:	03a030ff 	moveq	r3, #255	; 0xff
    f460:	05873010 	streq	r3, [r7, #16]
    f464:	e3a02011 	mov	r2, #17
    f468:	e5c7200c 	strb	r2, [r7, #12]
    f46c:	eaffff8c 	b	f2a4 <passphrase_to_dek+0x54>
    f470:	00008934 	.word	0x00008934
    f474:	000088e0 	.word	0x000088e0
    f478:	000088ac 	.word	0x000088ac
    f47c:	000088b0 	.word	0x000088b0
    f480:	000088b0 	.word	0x000088b0
    f484:	000088b8 	.word	0x000088b8
    f488:	000088bc 	.word	0x000088bc
    f48c:	000077f8 	.word	0x000077f8
    f490:	00007f48 	.word	0x00007f48
    f494:	000077bc 	.word	0x000077bc
    f498:	00008860 	.word	0x00008860
    f49c:	00007f18 	.word	0x00007f18
    f4a0:	00008784 	.word	0x00008784

0000f4a4 <do_proc_packets>:
    f4a4:	e92d4ff0 	push	{r4, r5, r6, r7, r8, r9, sl, fp, lr}
    f4a8:	e1a05000 	mov	r5, r0
    f4ac:	e59f05e0 	ldr	r0, [pc, #1504]	; fa94 <do_proc_packets+0x5f0>
    f4b0:	e24dd044 	sub	sp, sp, #68	; 0x44
    f4b4:	e1a04001 	mov	r4, r1
    f4b8:	e1a09002 	mov	r9, r2
    f4bc:	e08f0000 	add	r0, pc, r0
    f4c0:	e5951020 	ldr	r1, [r5, #32]
    f4c4:	eb000b26 	bl	12164 <tfp_printf>
    f4c8:	e5950018 	ldr	r0, [r5, #24]
    f4cc:	e3500000 	cmp	r0, #0
    f4d0:	0a000009 	beq	f4fc <do_proc_packets+0x58>
    f4d4:	ebfffe5e 	bl	ee54 <strlen>
    f4d8:	e2800001 	add	r0, r0, #1
    f4dc:	eb0001b9 	bl	fbc8 <malloc>
    f4e0:	e5951018 	ldr	r1, [r5, #24]
    f4e4:	e2402001 	sub	r2, r0, #1
    f4e8:	e5840030 	str	r0, [r4, #48]	; 0x30
    f4ec:	e4d13001 	ldrb	r3, [r1], #1
    f4f0:	e5e23001 	strb	r3, [r2, #1]!
    f4f4:	e3530000 	cmp	r3, #0
    f4f8:	1afffffb 	bne	f4ec <do_proc_packets+0x48>
    f4fc:	e595001c 	ldr	r0, [r5, #28]
    f500:	e3500000 	cmp	r0, #0
    f504:	0a0000cc 	beq	f83c <do_proc_packets+0x398>
    f508:	ebfffe51 	bl	ee54 <strlen>
    f50c:	e2800001 	add	r0, r0, #1
    f510:	eb0001ac 	bl	fbc8 <malloc>
    f514:	e595101c 	ldr	r1, [r5, #28]
    f518:	e2402001 	sub	r2, r0, #1
    f51c:	e5840034 	str	r0, [r4, #52]	; 0x34
    f520:	e4d13001 	ldrb	r3, [r1], #1
    f524:	e5e23001 	strb	r3, [r2, #1]!
    f528:	e3530000 	cmp	r3, #0
    f52c:	1afffffb 	bne	f520 <do_proc_packets+0x7c>
    f530:	e5953020 	ldr	r3, [r5, #32]
    f534:	e1a0b004 	mov	fp, r4
    f538:	e584301c 	str	r3, [r4, #28]
    f53c:	e3a03000 	mov	r3, #0
    f540:	e59bb004 	ldr	fp, [fp, #4]
    f544:	e2833001 	add	r3, r3, #1
    f548:	e35b0000 	cmp	fp, #0
    f54c:	1afffffb 	bne	f540 <do_proc_packets+0x9c>
    f550:	e3530020 	cmp	r3, #32
    f554:	ca0000d9 	bgt	f8c0 <do_proc_packets+0x41c>
    f558:	e59f7538 	ldr	r7, [pc, #1336]	; fa98 <do_proc_packets+0x5f4>
    f55c:	e3a00008 	mov	r0, #8
    f560:	e59f8534 	ldr	r8, [pc, #1332]	; fa9c <do_proc_packets+0x5f8>
    f564:	eb000204 	bl	fd7c <xmalloc>
    f568:	e59f3530 	ldr	r3, [pc, #1328]	; faa0 <do_proc_packets+0x5fc>
    f56c:	e1a05000 	mov	r5, r0
    f570:	e59fa52c 	ldr	sl, [pc, #1324]	; faa4 <do_proc_packets+0x600>
    f574:	e28d6028 	add	r6, sp, #40	; 0x28
    f578:	e08f3003 	add	r3, pc, r3
    f57c:	e5849040 	str	r9, [r4, #64]	; 0x40
    f580:	e08f7007 	add	r7, pc, r7
    f584:	e5c0b000 	strb	fp, [r0]
    f588:	e580b004 	str	fp, [r0, #4]
    f58c:	e08f8008 	add	r8, pc, r8
    f590:	e08fa00a 	add	sl, pc, sl
    f594:	e58d9028 	str	r9, [sp, #40]	; 0x28
    f598:	e5cdb02c 	strb	fp, [sp, #44]	; 0x2c
    f59c:	e58db030 	str	fp, [sp, #48]	; 0x30
    f5a0:	e58db034 	str	fp, [sp, #52]	; 0x34
    f5a4:	e58db038 	str	fp, [sp, #56]	; 0x38
    f5a8:	e58db03c 	str	fp, [sp, #60]	; 0x3c
    f5ac:	e58d3018 	str	r3, [sp, #24]
    f5b0:	ea00000a 	b	f5e0 <do_proc_packets+0x13c>
    f5b4:	e5d53000 	ldrb	r3, [r5]
    f5b8:	e3530002 	cmp	r3, #2
    f5bc:	13530013 	cmpne	r3, #19
    f5c0:	0a000005 	beq	f5dc <do_proc_packets+0x138>
    f5c4:	e5d4205c 	ldrb	r2, [r4, #92]	; 0x5c
    f5c8:	e243300b 	sub	r3, r3, #11
    f5cc:	e16f3f13 	clz	r3, r3
    f5d0:	e1a032a3 	lsr	r3, r3, #5
    f5d4:	e7c12093 	bfi	r2, r3, #1, #1
    f5d8:	e5c4205c 	strb	r2, [r4, #92]	; 0x5c
    f5dc:	e3a0b001 	mov	fp, #1
    f5e0:	e300378e 	movw	r3, #1934	; 0x78e
    f5e4:	e1a02007 	mov	r2, r7
    f5e8:	e1a01005 	mov	r1, r5
    f5ec:	e1a00006 	mov	r0, r6
    f5f0:	eb000872 	bl	117c0 <dbg_parse_packet>
    f5f4:	e3700001 	cmn	r0, #1
    f5f8:	0a0000bb 	beq	f8ec <do_proc_packets+0x448>
    f5fc:	e3500000 	cmp	r0, #0
    f600:	1a0000c2 	bne	f910 <do_proc_packets+0x46c>
    f604:	e5943014 	ldr	r3, [r4, #20]
    f608:	e3530000 	cmp	r3, #0
    f60c:	0affffe8 	beq	f5b4 <do_proc_packets+0x110>
    f610:	e1a00008 	mov	r0, r8
    f614:	eb000ad2 	bl	12164 <tfp_printf>
    f618:	e5d52000 	ldrb	r2, [r5]
    f61c:	e2423003 	sub	r3, r2, #3
    f620:	e3530011 	cmp	r3, #17
    f624:	908ff103 	addls	pc, pc, r3, lsl #2
    f628:	ea000011 	b	f674 <do_proc_packets+0x1d0>
    f62c:	ea000069 	b	f7d8 <do_proc_packets+0x334>
    f630:	ea00000f 	b	f674 <do_proc_packets+0x1d0>
    f634:	ea000059 	b	f7a0 <do_proc_packets+0x2fc>
    f638:	ea000058 	b	f7a0 <do_proc_packets+0x2fc>
    f63c:	ea00000c 	b	f674 <do_proc_packets+0x1d0>
    f640:	ea00000b 	b	f674 <do_proc_packets+0x1d0>
    f644:	ea000018 	b	f6ac <do_proc_packets+0x208>
    f648:	ea000009 	b	f674 <do_proc_packets+0x1d0>
    f64c:	ea000008 	b	f674 <do_proc_packets+0x1d0>
    f650:	ea000007 	b	f674 <do_proc_packets+0x1d0>
    f654:	ea000051 	b	f7a0 <do_proc_packets+0x2fc>
    f658:	ea000005 	b	f674 <do_proc_packets+0x1d0>
    f65c:	ea000004 	b	f674 <do_proc_packets+0x1d0>
    f660:	ea000003 	b	f674 <do_proc_packets+0x1d0>
    f664:	ea000002 	b	f674 <do_proc_packets+0x1d0>
    f668:	ea00000f 	b	f6ac <do_proc_packets+0x208>
    f66c:	ea000000 	b	f674 <do_proc_packets+0x1d0>
    f670:	ea00000d 	b	f6ac <do_proc_packets+0x208>
    f674:	e3520002 	cmp	r2, #2
    f678:	13520013 	cmpne	r2, #19
    f67c:	0a000005 	beq	f698 <do_proc_packets+0x1f4>
    f680:	e5d4305c 	ldrb	r3, [r4, #92]	; 0x5c
    f684:	e242200b 	sub	r2, r2, #11
    f688:	e16f2f12 	clz	r2, r2
    f68c:	e1a022a2 	lsr	r2, r2, #5
    f690:	e7c13092 	bfi	r3, r2, #1, #1
    f694:	e5c4305c 	strb	r3, [r4, #92]	; 0x5c
    f698:	e1a01006 	mov	r1, r6
    f69c:	e1a00005 	mov	r0, r5
    f6a0:	e3a0b001 	mov	fp, #1
    f6a4:	ebfff3c5 	bl	c5c0 <free_packet>
    f6a8:	eaffffcc 	b	f5e0 <do_proc_packets+0x13c>
    f6ac:	e1a0000a 	mov	r0, sl
    f6b0:	eb000aab 	bl	12164 <tfp_printf>
    f6b4:	e5d53000 	ldrb	r3, [r5]
    f6b8:	e59d2018 	ldr	r2, [sp, #24]
    f6bc:	e3530014 	cmp	r3, #20
    f6c0:	e592b000 	ldr	fp, [r2]
    f6c4:	03a03001 	moveq	r3, #1
    f6c8:	05843054 	streq	r3, [r4, #84]	; 0x54
    f6cc:	0a000002 	beq	f6dc <do_proc_packets+0x238>
    f6d0:	e3530012 	cmp	r3, #18
    f6d4:	03a03001 	moveq	r3, #1
    f6d8:	05843058 	streq	r3, [r4, #88]	; 0x58
    f6dc:	e35b0000 	cmp	fp, #0
    f6e0:	1a00005d 	bne	f85c <do_proc_packets+0x3b8>
    f6e4:	e5941048 	ldr	r1, [r4, #72]	; 0x48
    f6e8:	e3510001 	cmp	r1, #1
    f6ec:	8a000056 	bhi	f84c <do_proc_packets+0x3a8>
    f6f0:	0a0000e3 	beq	fa84 <do_proc_packets+0x5e0>
    f6f4:	e59f03ac 	ldr	r0, [pc, #940]	; faa8 <do_proc_packets+0x604>
    f6f8:	e5951004 	ldr	r1, [r5, #4]
    f6fc:	e08f0000 	add	r0, pc, r0
    f700:	eb000a97 	bl	12164 <tfp_printf>
    f704:	e594302c 	ldr	r3, [r4, #44]	; 0x2c
    f708:	e28d1024 	add	r1, sp, #36	; 0x24
    f70c:	e5952004 	ldr	r2, [r5, #4]
    f710:	e5940000 	ldr	r0, [r4]
    f714:	e58d1000 	str	r1, [sp]
    f718:	e1a01004 	mov	r1, r4
    f71c:	ebfff27f 	bl	c120 <decrypt_data>
    f720:	e1a09000 	mov	r9, r0
    f724:	e59f0380 	ldr	r0, [pc, #896]	; faac <do_proc_packets+0x608>
    f728:	e1a01009 	mov	r1, r9
    f72c:	e08f0000 	add	r0, pc, r0
    f730:	eb000a8b 	bl	12164 <tfp_printf>
    f734:	e16f3f19 	clz	r3, r9
    f738:	e35b0000 	cmp	fp, #0
    f73c:	e1a032a3 	lsr	r3, r3, #5
    f740:	03a03000 	moveq	r3, #0
    f744:	e3530000 	cmp	r3, #0
    f748:	0a00004f 	beq	f88c <do_proc_packets+0x3e8>
    f74c:	e3a00018 	mov	r0, #24
    f750:	eb000a83 	bl	12164 <tfp_printf>
    f754:	e59f0354 	ldr	r0, [pc, #852]	; fab0 <do_proc_packets+0x60c>
    f758:	e08f0000 	add	r0, pc, r0
    f75c:	eb000a80 	bl	12164 <tfp_printf>
    f760:	e594002c 	ldr	r0, [r4, #44]	; 0x2c
    f764:	e3a09000 	mov	r9, #0
    f768:	eb000177 	bl	fd4c <xfree>
    f76c:	e584902c 	str	r9, [r4, #44]	; 0x2c
    f770:	e1a01009 	mov	r1, r9
    f774:	e1a00005 	mov	r0, r5
    f778:	ebfff390 	bl	c5c0 <free_packet>
    f77c:	e5849038 	str	r9, [r4, #56]	; 0x38
    f780:	e3a0002a 	mov	r0, #42	; 0x2a
    f784:	eb000a76 	bl	12164 <tfp_printf>
    f788:	e59f2324 	ldr	r2, [pc, #804]	; fab4 <do_proc_packets+0x610>
    f78c:	e08f2002 	add	r2, pc, r2
    f790:	e5923000 	ldr	r3, [r2]
    f794:	e2833001 	add	r3, r3, #1
    f798:	e5823000 	str	r3, [r2]
    f79c:	eaffff84 	b	f5b4 <do_proc_packets+0x110>
    f7a0:	e3a09026 	mov	r9, #38	; 0x26
    f7a4:	e594002c 	ldr	r0, [r4, #44]	; 0x2c
    f7a8:	eb000167 	bl	fd4c <xfree>
    f7ac:	e1a01006 	mov	r1, r6
    f7b0:	e1a00005 	mov	r0, r5
    f7b4:	ebfff381 	bl	c5c0 <free_packet>
    f7b8:	e59d2034 	ldr	r2, [sp, #52]	; 0x34
    f7bc:	e3520000 	cmp	r2, #0
    f7c0:	1a00002d 	bne	f87c <do_proc_packets+0x3d8>
    f7c4:	e1a00005 	mov	r0, r5
    f7c8:	eb00015f 	bl	fd4c <xfree>
    f7cc:	e1a00009 	mov	r0, r9
    f7d0:	e28dd044 	add	sp, sp, #68	; 0x44
    f7d4:	e8bd8ff0 	pop	{r4, r5, r6, r7, r8, r9, sl, fp, pc}
    f7d8:	e59f02d8 	ldr	r0, [pc, #728]	; fab8 <do_proc_packets+0x614>
    f7dc:	e08f0000 	add	r0, pc, r0
    f7e0:	eb000a5f 	bl	12164 <tfp_printf>
    f7e4:	e5959004 	ldr	r9, [r5, #4]
    f7e8:	e3590000 	cmp	r9, #0
    f7ec:	0a00004c 	beq	f924 <do_proc_packets+0x480>
    f7f0:	e594b02c 	ldr	fp, [r4, #44]	; 0x2c
    f7f4:	e35b0000 	cmp	fp, #0
    f7f8:	0a000061 	beq	f984 <do_proc_packets+0x4e0>
    f7fc:	e3a01010 	mov	r1, #16
    f800:	e3a00001 	mov	r0, #1
    f804:	eb000179 	bl	fdf0 <xcalloc>
    f808:	e5d93001 	ldrb	r3, [r9, #1]
    f80c:	e5803004 	str	r3, [r0, #4]
    f810:	e5d93002 	ldrb	r3, [r9, #2]
    f814:	e16f3f13 	clz	r3, r3
    f818:	e1a032a3 	lsr	r3, r3, #5
    f81c:	e5803008 	str	r3, [r0, #8]
    f820:	e5943048 	ldr	r3, [r4, #72]	; 0x48
    f824:	e5942050 	ldr	r2, [r4, #80]	; 0x50
    f828:	e2833001 	add	r3, r3, #1
    f82c:	e5802000 	str	r2, [r0]
    f830:	e5840050 	str	r0, [r4, #80]	; 0x50
    f834:	e5843048 	str	r3, [r4, #72]	; 0x48
    f838:	eaffff5d 	b	f5b4 <do_proc_packets+0x110>
    f83c:	e59f0278 	ldr	r0, [pc, #632]	; fabc <do_proc_packets+0x618>
    f840:	e08f0000 	add	r0, pc, r0
    f844:	eb000a46 	bl	12164 <tfp_printf>
    f848:	eaffff38 	b	f530 <do_proc_packets+0x8c>
    f84c:	e59f026c 	ldr	r0, [pc, #620]	; fac0 <do_proc_packets+0x61c>
    f850:	e08f0000 	add	r0, pc, r0
    f854:	eb000a42 	bl	12164 <tfp_printf>
    f858:	eaffffa5 	b	f6f4 <do_proc_packets+0x250>
    f85c:	e59f0260 	ldr	r0, [pc, #608]	; fac4 <do_proc_packets+0x620>
    f860:	e08f0000 	add	r0, pc, r0
    f864:	eb000a3e 	bl	12164 <tfp_printf>
    f868:	e59f0258 	ldr	r0, [pc, #600]	; fac8 <do_proc_packets+0x624>
    f86c:	e3a01059 	mov	r1, #89	; 0x59
    f870:	e08f0000 	add	r0, pc, r0
    f874:	eb000a3a 	bl	12164 <tfp_printf>
    f878:	eaffff99 	b	f6e4 <do_proc_packets+0x240>
    f87c:	e1a01006 	mov	r1, r6
    f880:	e3a00000 	mov	r0, #0
    f884:	ebfff34d 	bl	c5c0 <free_packet>
    f888:	eaffffcd 	b	f7c4 <do_proc_packets+0x320>
    f88c:	e3790001 	cmn	r9, #1
    f890:	0affffb2 	beq	f760 <do_proc_packets+0x2bc>
    f894:	e3590000 	cmp	r9, #0
    f898:	1a00002a 	bne	f948 <do_proc_packets+0x4a4>
    f89c:	e3a00019 	mov	r0, #25
    f8a0:	eb000a2f 	bl	12164 <tfp_printf>
    f8a4:	e59f0220 	ldr	r0, [pc, #544]	; facc <do_proc_packets+0x628>
    f8a8:	e08f0000 	add	r0, pc, r0
    f8ac:	eb000a2c 	bl	12164 <tfp_printf>
    f8b0:	e59f0218 	ldr	r0, [pc, #536]	; fad0 <do_proc_packets+0x62c>
    f8b4:	e08f0000 	add	r0, pc, r0
    f8b8:	eb000a29 	bl	12164 <tfp_printf>
    f8bc:	eaffffa7 	b	f760 <do_proc_packets+0x2bc>
    f8c0:	e59f020c 	ldr	r0, [pc, #524]	; fad4 <do_proc_packets+0x630>
    f8c4:	e3a09059 	mov	r9, #89	; 0x59
    f8c8:	e08f0000 	add	r0, pc, r0
    f8cc:	eb000a24 	bl	12164 <tfp_printf>
    f8d0:	e59f1200 	ldr	r1, [pc, #512]	; fad8 <do_proc_packets+0x634>
    f8d4:	e3a0003c 	mov	r0, #60	; 0x3c
    f8d8:	e08f1001 	add	r1, pc, r1
    f8dc:	eb000a20 	bl	12164 <tfp_printf>
    f8e0:	e1a00009 	mov	r0, r9
    f8e4:	e28dd044 	add	sp, sp, #68	; 0x44
    f8e8:	e8bd8ff0 	pop	{r4, r5, r6, r7, r8, r9, sl, fp, pc}
    f8ec:	e35b0000 	cmp	fp, #0
    f8f0:	e1a09000 	mov	r9, r0
    f8f4:	13a09000 	movne	r9, #0
    f8f8:	1affffa9 	bne	f7a4 <do_proc_packets+0x300>
    f8fc:	e59f11d8 	ldr	r1, [pc, #472]	; fadc <do_proc_packets+0x638>
    f900:	e3a00011 	mov	r0, #17
    f904:	e08f1001 	add	r1, pc, r1
    f908:	eb000a15 	bl	12164 <tfp_printf>
    f90c:	eaffffa4 	b	f7a4 <do_proc_packets+0x300>
    f910:	e1a09000 	mov	r9, r0
    f914:	e1a01006 	mov	r1, r6
    f918:	e1a00005 	mov	r0, r5
    f91c:	ebfff327 	bl	c5c0 <free_packet>
    f920:	eaffff9f 	b	f7a4 <do_proc_packets+0x300>
    f924:	e59f01b4 	ldr	r0, [pc, #436]	; fae0 <do_proc_packets+0x63c>
    f928:	e08f0000 	add	r0, pc, r0
    f92c:	eb000a0c 	bl	12164 <tfp_printf>
    f930:	e3a01010 	mov	r1, #16
    f934:	e3a00001 	mov	r0, #1
    f938:	eb00012c 	bl	fdf0 <xcalloc>
    f93c:	e3a03001 	mov	r3, #1
    f940:	e580300c 	str	r3, [r0, #12]
    f944:	eaffffb5 	b	f820 <do_proc_packets+0x37c>
    f948:	e6ff9079 	uxth	r9, r9
    f94c:	e3590008 	cmp	r9, #8
    f950:	1a00003c 	bne	fa48 <do_proc_packets+0x5a4>
    f954:	e5953004 	ldr	r3, [r5, #4]
    f958:	e5d3300b 	ldrb	r3, [r3, #11]
    f95c:	e3530000 	cmp	r3, #0
    f960:	0affffcd 	beq	f89c <do_proc_packets+0x3f8>
    f964:	e59f0178 	ldr	r0, [pc, #376]	; fae4 <do_proc_packets+0x640>
    f968:	e08f0000 	add	r0, pc, r0
    f96c:	eb0009fc 	bl	12164 <tfp_printf>
    f970:	e3a0001d 	mov	r0, #29
    f974:	eb0009fa 	bl	12164 <tfp_printf>
    f978:	e3a00018 	mov	r0, #24
    f97c:	eb0009f8 	bl	12164 <tfp_printf>
    f980:	eaffff76 	b	f760 <do_proc_packets+0x2bc>
    f984:	e59f015c 	ldr	r0, [pc, #348]	; fae8 <do_proc_packets+0x644>
    f988:	e08f0000 	add	r0, pc, r0
    f98c:	eb0009f4 	bl	12164 <tfp_printf>
    f990:	e59f2154 	ldr	r2, [pc, #340]	; faec <do_proc_packets+0x648>
    f994:	e59f1154 	ldr	r1, [pc, #340]	; faf0 <do_proc_packets+0x64c>
    f998:	e59f0154 	ldr	r0, [pc, #340]	; faf4 <do_proc_packets+0x650>
    f99c:	e5d93001 	ldrb	r3, [r9, #1]
    f9a0:	e08f1001 	add	r1, pc, r1
    f9a4:	e08f2002 	add	r2, pc, r2
    f9a8:	e08f0000 	add	r0, pc, r0
    f9ac:	e58d301c 	str	r3, [sp, #28]
    f9b0:	eb0009eb 	bl	12164 <tfp_printf>
    f9b4:	e5940030 	ldr	r0, [r4, #48]	; 0x30
    f9b8:	e3a02002 	mov	r2, #2
    f9bc:	e5842038 	str	r2, [r4, #56]	; 0x38
    f9c0:	ebfffd23 	bl	ee54 <strlen>
    f9c4:	e1a01000 	mov	r1, r0
    f9c8:	e59f0128 	ldr	r0, [pc, #296]	; faf8 <do_proc_packets+0x654>
    f9cc:	e08f0000 	add	r0, pc, r0
    f9d0:	eb0009e3 	bl	12164 <tfp_printf>
    f9d4:	e59f0120 	ldr	r0, [pc, #288]	; fafc <do_proc_packets+0x658>
    f9d8:	e5941030 	ldr	r1, [r4, #48]	; 0x30
    f9dc:	e08f0000 	add	r0, pc, r0
    f9e0:	eb0009df 	bl	12164 <tfp_printf>
    f9e4:	e59d301c 	ldr	r3, [sp, #28]
    f9e8:	e1a0200b 	mov	r2, fp
    f9ec:	e58db008 	str	fp, [sp, #8]
    f9f0:	e2891004 	add	r1, r9, #4
    f9f4:	e58db004 	str	fp, [sp, #4]
    f9f8:	e1a00003 	mov	r0, r3
    f9fc:	e58db000 	str	fp, [sp]
    fa00:	e5943034 	ldr	r3, [r4, #52]	; 0x34
    fa04:	e58d3010 	str	r3, [sp, #16]
    fa08:	e5943030 	ldr	r3, [r4, #48]	; 0x30
    fa0c:	e58d300c 	str	r3, [sp, #12]
    fa10:	e3a03001 	mov	r3, #1
    fa14:	ebfffe0d 	bl	f250 <passphrase_to_dek>
    fa18:	e584002c 	str	r0, [r4, #44]	; 0x2c
    fa1c:	e3500000 	cmp	r0, #0
    fa20:	0affff75 	beq	f7fc <do_proc_packets+0x358>
    fa24:	e5d93002 	ldrb	r3, [r9, #2]
    fa28:	e5d02008 	ldrb	r2, [r0, #8]
    fa2c:	e1a03083 	lsl	r3, r3, #1
    fa30:	e3c2205f 	bic	r2, r2, #95	; 0x5f
    fa34:	e203301e 	and	r3, r3, #30
    fa38:	e3833041 	orr	r3, r3, #65	; 0x41
    fa3c:	e1833002 	orr	r3, r3, r2
    fa40:	e5c03008 	strb	r3, [r0, #8]
    fa44:	eaffff6c 	b	f7fc <do_proc_packets+0x358>
    fa48:	e359004a 	cmp	r9, #74	; 0x4a
    fa4c:	0affffc4 	beq	f964 <do_proc_packets+0x4c0>
    fa50:	e249300a 	sub	r3, r9, #10
    fa54:	e3c33002 	bic	r3, r3, #2
    fa58:	e3530000 	cmp	r3, #0
    fa5c:	13590013 	cmpne	r9, #19
    fa60:	1affff39 	bne	f74c <do_proc_packets+0x2a8>
    fa64:	e5943048 	ldr	r3, [r4, #72]	; 0x48
    fa68:	e3530000 	cmp	r3, #0
    fa6c:	0affff36 	beq	f74c <do_proc_packets+0x2a8>
    fa70:	e59f1088 	ldr	r1, [pc, #136]	; fb00 <do_proc_packets+0x65c>
    fa74:	e3a00061 	mov	r0, #97	; 0x61
    fa78:	e08f1001 	add	r1, pc, r1
    fa7c:	eb0009b8 	bl	12164 <tfp_printf>
    fa80:	eaffff31 	b	f74c <do_proc_packets+0x2a8>
    fa84:	e59f0078 	ldr	r0, [pc, #120]	; fb04 <do_proc_packets+0x660>
    fa88:	e08f0000 	add	r0, pc, r0
    fa8c:	eb0009b4 	bl	12164 <tfp_printf>
    fa90:	eaffff17 	b	f6f4 <do_proc_packets+0x250>
    fa94:	00008778 	.word	0x00008778
    fa98:	00008948 	.word	0x00008948
    fa9c:	0000870c 	.word	0x0000870c
    faa0:	0002cca8 	.word	0x0002cca8
    faa4:	000087a4 	.word	0x000087a4
    faa8:	000086d8 	.word	0x000086d8
    faac:	000086c0 	.word	0x000086c0
    fab0:	00008758 	.word	0x00008758
    fab4:	0002ca94 	.word	0x0002ca94
    fab8:	000084cc 	.word	0x000084cc
    fabc:	00008408 	.word	0x00008408
    fac0:	00008544 	.word	0x00008544
    fac4:	000084f4 	.word	0x000084f4
    fac8:	00008508 	.word	0x00008508
    facc:	00008560 	.word	0x00008560
    fad0:	00008568 	.word	0x00008568
    fad4:	000083a4 	.word	0x000083a4
    fad8:	000071e8 	.word	0x000071e8
    fadc:	000071e0 	.word	0x000071e0
    fae0:	00008394 	.word	0x00008394
    fae4:	000084e4 	.word	0x000084e4
    fae8:	00008358 	.word	0x00008358
    faec:	00008344 	.word	0x00008344
    faf0:	0000834c 	.word	0x0000834c
    faf4:	0000834c 	.word	0x0000834c
    faf8:	00008340 	.word	0x00008340
    fafc:	00008348 	.word	0x00008348
    fb00:	00008408 	.word	0x00008408
    fb04:	0000832c 	.word	0x0000832c

0000fb08 <proc_packets>:
    fb08:	e92d41f0 	push	{r4, r5, r6, r7, r8, lr}
    fb0c:	e1a05000 	mov	r5, r0
    fb10:	e59f0044 	ldr	r0, [pc, #68]	; fb5c <proc_packets+0x54>
    fb14:	e1a06001 	mov	r6, r1
    fb18:	e1a07002 	mov	r7, r2
    fb1c:	e08f0000 	add	r0, pc, r0
    fb20:	eb00098f 	bl	12164 <tfp_printf>
    fb24:	e3a00060 	mov	r0, #96	; 0x60
    fb28:	eb0000a6 	bl	fdc8 <xmalloc_clear>
    fb2c:	e5805000 	str	r5, [r0]
    fb30:	e1a01000 	mov	r1, r0
    fb34:	e5806004 	str	r6, [r0, #4]
    fb38:	e1a04000 	mov	r4, r0
    fb3c:	e1a02007 	mov	r2, r7
    fb40:	e1a00005 	mov	r0, r5
    fb44:	ebfffe56 	bl	f4a4 <do_proc_packets>
    fb48:	e1a05000 	mov	r5, r0
    fb4c:	e1a00004 	mov	r0, r4
    fb50:	eb00007d 	bl	fd4c <xfree>
    fb54:	e1a00005 	mov	r0, r5
    fb58:	e8bd81f0 	pop	{r4, r5, r6, r7, r8, pc}
    fb5c:	000083bc 	.word	0x000083bc

0000fb60 <proc_encryption_packets>:
    fb60:	e92d41f0 	push	{r4, r5, r6, r7, r8, lr}
    fb64:	e1a06000 	mov	r6, r0
    fb68:	e59f0054 	ldr	r0, [pc, #84]	; fbc4 <proc_encryption_packets+0x64>
    fb6c:	e1a05002 	mov	r5, r2
    fb70:	e592202c 	ldr	r2, [r2, #44]	; 0x2c
    fb74:	e1a07001 	mov	r7, r1
    fb78:	e08f0000 	add	r0, pc, r0
    fb7c:	e5d51000 	ldrb	r1, [r5]
    fb80:	eb000977 	bl	12164 <tfp_printf>
    fb84:	e3a00060 	mov	r0, #96	; 0x60
    fb88:	eb00008e 	bl	fdc8 <xmalloc_clear>
    fb8c:	e5806000 	str	r6, [r0]
    fb90:	e1a04000 	mov	r4, r0
    fb94:	e5807004 	str	r7, [r0, #4]
    fb98:	e3a03001 	mov	r3, #1
    fb9c:	e5843014 	str	r3, [r4, #20]
    fba0:	e1a02005 	mov	r2, r5
    fba4:	e1a01004 	mov	r1, r4
    fba8:	e1a00006 	mov	r0, r6
    fbac:	ebfffe3c 	bl	f4a4 <do_proc_packets>
    fbb0:	e1a05000 	mov	r5, r0
    fbb4:	e1a00004 	mov	r0, r4
    fbb8:	eb000063 	bl	fd4c <xfree>
    fbbc:	e1a00005 	mov	r0, r5
    fbc0:	e8bd81f0 	pop	{r4, r5, r6, r7, r8, pc}
    fbc4:	00008370 	.word	0x00008370

0000fbc8 <malloc>:
    fbc8:	e59f10cc 	ldr	r1, [pc, #204]	; fc9c <malloc+0xd4>
    fbcc:	e08f1001 	add	r1, pc, r1
    fbd0:	e5d1c000 	ldrb	ip, [r1]
    fbd4:	e35c0000 	cmp	ip, #0
    fbd8:	0a000011 	beq	fc24 <malloc+0x5c>
    fbdc:	e3500000 	cmp	r0, #0
    fbe0:	0a00000d 	beq	fc1c <malloc+0x54>
    fbe4:	e5913004 	ldr	r3, [r1, #4]
    fbe8:	e280101b 	add	r1, r0, #27
    fbec:	e3c1100f 	bic	r1, r1, #15
    fbf0:	e3530000 	cmp	r3, #0
    fbf4:	0a000008 	beq	fc1c <malloc+0x54>
    fbf8:	e5d32004 	ldrb	r2, [r3, #4]
    fbfc:	e3520000 	cmp	r2, #0
    fc00:	0a000002 	beq	fc10 <malloc+0x48>
    fc04:	e5932000 	ldr	r2, [r3]
    fc08:	e1520001 	cmp	r2, r1
    fc0c:	2a000012 	bcs	fc5c <malloc+0x94>
    fc10:	e5933008 	ldr	r3, [r3, #8]
    fc14:	e3530000 	cmp	r3, #0
    fc18:	1afffff6 	bne	fbf8 <malloc+0x30>
    fc1c:	e3a00000 	mov	r0, #0
    fc20:	e12fff1e 	bx	lr
    fc24:	e59f3074 	ldr	r3, [pc, #116]	; fca0 <malloc+0xd8>
    fc28:	e3a02802 	mov	r2, #131072	; 0x20000
    fc2c:	e3500000 	cmp	r0, #0
    fc30:	e08f3003 	add	r3, pc, r3
    fc34:	e5813004 	str	r3, [r1, #4]
    fc38:	e5832000 	str	r2, [r3]
    fc3c:	e3a02001 	mov	r2, #1
    fc40:	e5c12000 	strb	r2, [r1]
    fc44:	1280101b 	addne	r1, r0, #27
    fc48:	13c1100f 	bicne	r1, r1, #15
    fc4c:	e5c32004 	strb	r2, [r3, #4]
    fc50:	e583c008 	str	ip, [r3, #8]
    fc54:	1affffe8 	bne	fbfc <malloc+0x34>
    fc58:	eaffffef 	b	fc1c <malloc+0x54>
    fc5c:	e281001c 	add	r0, r1, #28
    fc60:	e1520000 	cmp	r2, r0
    fc64:	3a000008 	bcc	fc8c <malloc+0xc4>
    fc68:	e0830001 	add	r0, r3, r1
    fc6c:	e0422001 	sub	r2, r2, r1
    fc70:	e7832001 	str	r2, [r3, r1]
    fc74:	e3a02001 	mov	r2, #1
    fc78:	e5c02004 	strb	r2, [r0, #4]
    fc7c:	e5932008 	ldr	r2, [r3, #8]
    fc80:	e5802008 	str	r2, [r0, #8]
    fc84:	e5831000 	str	r1, [r3]
    fc88:	e5830008 	str	r0, [r3, #8]
    fc8c:	e3a02000 	mov	r2, #0
    fc90:	e283000c 	add	r0, r3, #12
    fc94:	e5c32004 	strb	r2, [r3, #4]
    fc98:	e12fff1e 	bx	lr
    fc9c:	0002c65c 	.word	0x0002c65c
    fca0:	0002c600 	.word	0x0002c600

0000fca4 <free>:
    fca4:	e3500000 	cmp	r0, #0
    fca8:	012fff1e 	bxeq	lr
    fcac:	e5103004 	ldr	r3, [r0, #-4]
    fcb0:	e3a02001 	mov	r2, #1
    fcb4:	e52de004 	push	{lr}		; (str lr, [sp, #-4]!)
    fcb8:	e3530000 	cmp	r3, #0
    fcbc:	e5402008 	strb	r2, [r0, #-8]
    fcc0:	e240e00c 	sub	lr, r0, #12
    fcc4:	0a000002 	beq	fcd4 <free+0x30>
    fcc8:	e5d32004 	ldrb	r2, [r3, #4]
    fccc:	e3520000 	cmp	r2, #0
    fcd0:	1a000015 	bne	fd2c <free+0x88>
    fcd4:	e59f306c 	ldr	r3, [pc, #108]	; fd48 <free+0xa4>
    fcd8:	e08f3003 	add	r3, pc, r3
    fcdc:	e5933004 	ldr	r3, [r3, #4]
    fce0:	e3530000 	cmp	r3, #0
    fce4:	049df004 	popeq	{pc}		; (ldreq pc, [sp], #4)
    fce8:	e1a02003 	mov	r2, r3
    fcec:	e5933008 	ldr	r3, [r3, #8]
    fcf0:	e3530000 	cmp	r3, #0
    fcf4:	049df004 	popeq	{pc}		; (ldreq pc, [sp], #4)
    fcf8:	e5d21004 	ldrb	r1, [r2, #4]
    fcfc:	e3510000 	cmp	r1, #0
    fd00:	0afffff8 	beq	fce8 <free+0x44>
    fd04:	e5921000 	ldr	r1, [r2]
    fd08:	e082c001 	add	ip, r2, r1
    fd0c:	e15e000c 	cmp	lr, ip
    fd10:	1afffff4 	bne	fce8 <free+0x44>
    fd14:	e510300c 	ldr	r3, [r0, #-12]
    fd18:	e5100004 	ldr	r0, [r0, #-4]
    fd1c:	e0831001 	add	r1, r3, r1
    fd20:	e5820008 	str	r0, [r2, #8]
    fd24:	e5821000 	str	r1, [r2]
    fd28:	e49df004 	pop	{pc}		; (ldr pc, [sp], #4)
    fd2c:	e593c000 	ldr	ip, [r3]
    fd30:	e510200c 	ldr	r2, [r0, #-12]
    fd34:	e5931008 	ldr	r1, [r3, #8]
    fd38:	e082300c 	add	r3, r2, ip
    fd3c:	e500300c 	str	r3, [r0, #-12]
    fd40:	e5001004 	str	r1, [r0, #-4]
    fd44:	eaffffe2 	b	fcd4 <free+0x30>
    fd48:	0002c550 	.word	0x0002c550

0000fd4c <xfree>:
    fd4c:	e3500000 	cmp	r0, #0
    fd50:	012fff1e 	bxeq	lr
    fd54:	eaffffd2 	b	fca4 <free>

0000fd58 <memset>:
    fd58:	e3520000 	cmp	r2, #0
    fd5c:	012fff1e 	bxeq	lr
    fd60:	e0802002 	add	r2, r0, r2
    fd64:	e6ef1071 	uxtb	r1, r1
    fd68:	e1a03000 	mov	r3, r0
    fd6c:	e4c31001 	strb	r1, [r3], #1
    fd70:	e1530002 	cmp	r3, r2
    fd74:	1afffffc 	bne	fd6c <memset+0x14>
    fd78:	e12fff1e 	bx	lr

0000fd7c <xmalloc>:
    fd7c:	e3500001 	cmp	r0, #1
    fd80:	e92d4070 	push	{r4, r5, r6, lr}
    fd84:	21a04000 	movcs	r4, r0
    fd88:	33a04001 	movcc	r4, #1
    fd8c:	e1a00004 	mov	r0, r4
    fd90:	ebffff8c 	bl	fbc8 <malloc>
    fd94:	e2505000 	subs	r5, r0, #0
    fd98:	0a000004 	beq	fdb0 <xmalloc+0x34>
    fd9c:	e1a02004 	mov	r2, r4
    fda0:	e3a01000 	mov	r1, #0
    fda4:	ebffffeb 	bl	fd58 <memset>
    fda8:	e1a00005 	mov	r0, r5
    fdac:	e8bd8070 	pop	{r4, r5, r6, pc}
    fdb0:	e59f000c 	ldr	r0, [pc, #12]	; fdc4 <xmalloc+0x48>
    fdb4:	e1a01004 	mov	r1, r4
    fdb8:	e08f0000 	add	r0, pc, r0
    fdbc:	eb0008e8 	bl	12164 <tfp_printf>
    fdc0:	eafffff8 	b	fda8 <xmalloc+0x2c>
    fdc4:	00008164 	.word	0x00008164

0000fdc8 <xmalloc_clear>:
    fdc8:	e92d4070 	push	{r4, r5, r6, lr}
    fdcc:	e1a05000 	mov	r5, r0
    fdd0:	ebffff7c 	bl	fbc8 <malloc>
    fdd4:	e2504000 	subs	r4, r0, #0
    fdd8:	0a000002 	beq	fde8 <xmalloc_clear+0x20>
    fddc:	e1a02005 	mov	r2, r5
    fde0:	e3a01000 	mov	r1, #0
    fde4:	ebffffdb 	bl	fd58 <memset>
    fde8:	e1a00004 	mov	r0, r4
    fdec:	e8bd8070 	pop	{r4, r5, r6, pc}

0000fdf0 <xcalloc>:
    fdf0:	e3500000 	cmp	r0, #0
    fdf4:	e92d4070 	push	{r4, r5, r6, lr}
    fdf8:	0a000003 	beq	fe0c <xcalloc+0x1c>
    fdfc:	e0832190 	umull	r2, r3, r0, r1
    fe00:	e3530000 	cmp	r3, #0
    fe04:	13a05000 	movne	r5, #0
    fe08:	1a000007 	bne	fe2c <xcalloc+0x3c>
    fe0c:	e0040091 	mul	r4, r1, r0
    fe10:	e1a00004 	mov	r0, r4
    fe14:	ebffff6b 	bl	fbc8 <malloc>
    fe18:	e2505000 	subs	r5, r0, #0
    fe1c:	0a000002 	beq	fe2c <xcalloc+0x3c>
    fe20:	e1a02004 	mov	r2, r4
    fe24:	e3a01000 	mov	r1, #0
    fe28:	ebffffca 	bl	fd58 <memset>
    fe2c:	e1a00005 	mov	r0, r5
    fe30:	e8bd8070 	pop	{r4, r5, r6, pc}

0000fe34 <memcpy>:
    fe34:	e3520000 	cmp	r2, #0
    fe38:	012fff1e 	bxeq	lr
    fe3c:	e081c002 	add	ip, r1, r2
    fe40:	e2403001 	sub	r3, r0, #1
    fe44:	e4d12001 	ldrb	r2, [r1], #1
    fe48:	e151000c 	cmp	r1, ip
    fe4c:	e5e32001 	strb	r2, [r3, #1]!
    fe50:	1afffffb 	bne	fe44 <memcpy+0x10>
    fe54:	e12fff1e 	bx	lr

0000fe58 <xrealloc>:
    fe58:	e92d4070 	push	{r4, r5, r6, lr}
    fe5c:	e2505000 	subs	r5, r0, #0
    fe60:	0a000013 	beq	feb4 <xrealloc+0x5c>
    fe64:	e3510000 	cmp	r1, #0
    fe68:	0a000014 	beq	fec0 <xrealloc+0x68>
    fe6c:	e515600c 	ldr	r6, [r5, #-12]
    fe70:	e246600c 	sub	r6, r6, #12
    fe74:	e1510006 	cmp	r1, r6
    fe78:	91a04005 	movls	r4, r5
    fe7c:	8a000001 	bhi	fe88 <xrealloc+0x30>
    fe80:	e1a00004 	mov	r0, r4
    fe84:	e8bd8070 	pop	{r4, r5, r6, pc}
    fe88:	e1a00001 	mov	r0, r1
    fe8c:	ebffff4d 	bl	fbc8 <malloc>
    fe90:	e2504000 	subs	r4, r0, #0
    fe94:	0afffff9 	beq	fe80 <xrealloc+0x28>
    fe98:	e1a02006 	mov	r2, r6
    fe9c:	e1a01005 	mov	r1, r5
    fea0:	ebffffe3 	bl	fe34 <memcpy>
    fea4:	e1a00005 	mov	r0, r5
    fea8:	ebffff7d 	bl	fca4 <free>
    feac:	e1a00004 	mov	r0, r4
    feb0:	e8bd8070 	pop	{r4, r5, r6, pc}
    feb4:	e8bd4070 	pop	{r4, r5, r6, lr}
    feb8:	e1a00001 	mov	r0, r1
    febc:	eaffff41 	b	fbc8 <malloc>
    fec0:	e1a04001 	mov	r4, r1
    fec4:	ebffff76 	bl	fca4 <free>
    fec8:	eaffffec 	b	fe80 <xrealloc+0x28>

0000fecc <memmove>:
    fecc:	e1500001 	cmp	r0, r1
    fed0:	9a00000b 	bls	ff04 <memmove+0x38>
    fed4:	e0813002 	add	r3, r1, r2
    fed8:	e1530000 	cmp	r3, r0
    fedc:	9a000008 	bls	ff04 <memmove+0x38>
    fee0:	e080c002 	add	ip, r0, r2
    fee4:	e3520000 	cmp	r2, #0
    fee8:	012fff1e 	bxeq	lr
    feec:	e1a0200c 	mov	r2, ip
    fef0:	e573c001 	ldrb	ip, [r3, #-1]!
    fef4:	e1510003 	cmp	r1, r3
    fef8:	e562c001 	strb	ip, [r2, #-1]!
    fefc:	1afffffb 	bne	fef0 <memmove+0x24>
    ff00:	e12fff1e 	bx	lr
    ff04:	e3520000 	cmp	r2, #0
    ff08:	012fff1e 	bxeq	lr
    ff0c:	e081c002 	add	ip, r1, r2
    ff10:	e2403001 	sub	r3, r0, #1
    ff14:	e4d12001 	ldrb	r2, [r1], #1
    ff18:	e15c0001 	cmp	ip, r1
    ff1c:	e5e32001 	strb	r2, [r3, #1]!
    ff20:	1afffffb 	bne	ff14 <memmove+0x48>
    ff24:	e12fff1e 	bx	lr

0000ff28 <wipememory>:
    ff28:	e3510000 	cmp	r1, #0
    ff2c:	012fff1e 	bxeq	lr
    ff30:	e0801001 	add	r1, r0, r1
    ff34:	e3a02000 	mov	r2, #0
    ff38:	e1a03000 	mov	r3, r0
    ff3c:	e2800001 	add	r0, r0, #1
    ff40:	e1500001 	cmp	r0, r1
    ff44:	e5c32000 	strb	r2, [r3]
    ff48:	1afffffa 	bne	ff38 <wipememory+0x10>
    ff4c:	e12fff1e 	bx	lr

0000ff50 <strcpy>:
    ff50:	e2400001 	sub	r0, r0, #1
    ff54:	e4d13001 	ldrb	r3, [r1], #1
    ff58:	e5e03001 	strb	r3, [r0, #1]!
    ff5c:	e3530000 	cmp	r3, #0
    ff60:	1afffffb 	bne	ff54 <strcpy+0x4>
    ff64:	e12fff1e 	bx	lr

0000ff68 <xtrycalloc>:
    ff68:	e3500000 	cmp	r0, #0
    ff6c:	13510000 	cmpne	r1, #0
    ff70:	e92d4070 	push	{r4, r5, r6, lr}
    ff74:	e0050091 	mul	r5, r1, r0
    ff78:	0a000002 	beq	ff88 <xtrycalloc+0x20>
    ff7c:	e730f015 	udiv	r0, r5, r0
    ff80:	e1500001 	cmp	r0, r1
    ff84:	1a000008 	bne	ffac <xtrycalloc+0x44>
    ff88:	e1a00005 	mov	r0, r5
    ff8c:	ebffff0d 	bl	fbc8 <malloc>
    ff90:	e2504000 	subs	r4, r0, #0
    ff94:	0a000002 	beq	ffa4 <xtrycalloc+0x3c>
    ff98:	e1a02005 	mov	r2, r5
    ff9c:	e3a01000 	mov	r1, #0
    ffa0:	ebffff6c 	bl	fd58 <memset>
    ffa4:	e1a00004 	mov	r0, r4
    ffa8:	e8bd8070 	pop	{r4, r5, r6, pc}
    ffac:	e3a04000 	mov	r4, #0
    ffb0:	e1a00004 	mov	r0, r4
    ffb4:	e8bd8070 	pop	{r4, r5, r6, pc}

0000ffb8 <strchr>:
    ffb8:	e6ef1071 	uxtb	r1, r1
    ffbc:	e1a03000 	mov	r3, r0
    ffc0:	e5d32000 	ldrb	r2, [r3]
    ffc4:	e1a00003 	mov	r0, r3
    ffc8:	e2833001 	add	r3, r3, #1
    ffcc:	e1520001 	cmp	r2, r1
    ffd0:	012fff1e 	bxeq	lr
    ffd4:	e3520000 	cmp	r2, #0
    ffd8:	1afffff8 	bne	ffc0 <strchr+0x8>
    ffdc:	e1a00002 	mov	r0, r2
    ffe0:	e12fff1e 	bx	lr

0000ffe4 <strcmp>:
    ffe4:	e5d03000 	ldrb	r3, [r0]
    ffe8:	e3530000 	cmp	r3, #0
    ffec:	05d12000 	ldrbeq	r2, [r1]
    fff0:	1a000003 	bne	10004 <strcmp+0x20>
    fff4:	ea000006 	b	10014 <strcmp+0x30>
    fff8:	e5f03001 	ldrb	r3, [r0, #1]!
    fffc:	e3530000 	cmp	r3, #0
   10000:	0a000005 	beq	1001c <strcmp+0x38>
   10004:	e1a0c001 	mov	ip, r1
   10008:	e4d12001 	ldrb	r2, [r1], #1
   1000c:	e1520003 	cmp	r2, r3
   10010:	0afffff8 	beq	fff8 <strcmp+0x14>
   10014:	e0430002 	sub	r0, r3, r2
   10018:	e12fff1e 	bx	lr
   1001c:	e5dc2001 	ldrb	r2, [ip, #1]
   10020:	e0430002 	sub	r0, r3, r2
   10024:	e12fff1e 	bx	lr

00010028 <open>:
   10028:	e92d000e 	push	{r1, r2, r3}
   1002c:	e59f1040 	ldr	r1, [pc, #64]	; 10074 <open+0x4c>
   10030:	e92d4030 	push	{r4, r5, lr}
   10034:	e1a04000 	mov	r4, r0
   10038:	e08f1001 	add	r1, pc, r1
   1003c:	ebffffe8 	bl	ffe4 <strcmp>
   10040:	e3500000 	cmp	r0, #0
   10044:	03a00001 	moveq	r0, #1
   10048:	0a000006 	beq	10068 <open+0x40>
   1004c:	e59f1024 	ldr	r1, [pc, #36]	; 10078 <open+0x50>
   10050:	e1a00004 	mov	r0, r4
   10054:	e08f1001 	add	r1, pc, r1
   10058:	ebffffe1 	bl	ffe4 <strcmp>
   1005c:	e2500000 	subs	r0, r0, #0
   10060:	13a00001 	movne	r0, #1
   10064:	e2600000 	rsb	r0, r0, #0
   10068:	e8bd4030 	pop	{r4, r5, lr}
   1006c:	e28dd00c 	add	sp, sp, #12
   10070:	e12fff1e 	bx	lr
   10074:	00007f0c 	.word	0x00007f0c
   10078:	00007ef8 	.word	0x00007ef8

0001007c <strdup>:
   1007c:	e92d4070 	push	{r4, r5, r6, lr}
   10080:	e1a06000 	mov	r6, r0
   10084:	ebfffb72 	bl	ee54 <strlen>
   10088:	e2805001 	add	r5, r0, #1
   1008c:	e1a00005 	mov	r0, r5
   10090:	ebfffecc 	bl	fbc8 <malloc>
   10094:	e2504000 	subs	r4, r0, #0
   10098:	0a000002 	beq	100a8 <strdup+0x2c>
   1009c:	e1a02005 	mov	r2, r5
   100a0:	e1a01006 	mov	r1, r6
   100a4:	ebffff62 	bl	fe34 <memcpy>
   100a8:	e1a00004 	mov	r0, r4
   100ac:	e8bd8070 	pop	{r4, r5, r6, pc}

000100b0 <xstrdup>:
   100b0:	e92d4010 	push	{r4, lr}
   100b4:	ebfffff0 	bl	1007c <strdup>
   100b8:	e3500000 	cmp	r0, #0
   100bc:	18bd8010 	popne	{r4, pc}
   100c0:	eafffffe 	b	100c0 <xstrdup+0x10>

000100c4 <pubkey_get_nsig>:
   100c4:	e2400001 	sub	r0, r0, #1
   100c8:	e6ef0070 	uxtb	r0, r0
   100cc:	e3500015 	cmp	r0, #21
   100d0:	8a000003 	bhi	100e4 <pubkey_get_nsig+0x20>
   100d4:	e59f3010 	ldr	r3, [pc, #16]	; 100ec <pubkey_get_nsig+0x28>
   100d8:	e08f3003 	add	r3, pc, r3
   100dc:	e7930100 	ldr	r0, [r3, r0, lsl #2]
   100e0:	e12fff1e 	bx	lr
   100e4:	e3a00000 	mov	r0, #0
   100e8:	e12fff1e 	bx	lr
   100ec:	00005e9c 	.word	0x00005e9c

000100f0 <pubkey_get_nenc>:
   100f0:	e2400001 	sub	r0, r0, #1
   100f4:	e6ef0070 	uxtb	r0, r0
   100f8:	e3500015 	cmp	r0, #21
   100fc:	8a000004 	bhi	10114 <pubkey_get_nenc+0x24>
   10100:	e59f3014 	ldr	r3, [pc, #20]	; 1011c <pubkey_get_nenc+0x2c>
   10104:	e08f3003 	add	r3, pc, r3
   10108:	e0830100 	add	r0, r3, r0, lsl #2
   1010c:	e5900058 	ldr	r0, [r0, #88]	; 0x58
   10110:	e12fff1e 	bx	lr
   10114:	e3a00000 	mov	r0, #0
   10118:	e12fff1e 	bx	lr
   1011c:	00005e70 	.word	0x00005e70

00010120 <parse.constprop.0>:
   10120:	e92d4ff0 	push	{r4, r5, r6, r7, r8, r9, sl, fp, lr}
   10124:	e24dd09c 	sub	sp, sp, #156	; 0x9c
   10128:	e5904000 	ldr	r4, [r0]
   1012c:	e2538000 	subs	r8, r3, #0
   10130:	e58d100c 	str	r1, [sp, #12]
   10134:	e1a07002 	mov	r7, r2
   10138:	e59d20c0 	ldr	r2, [sp, #192]	; 0xc0
   1013c:	e3a03000 	mov	r3, #0
   10140:	e1a06000 	mov	r6, r0
   10144:	e5823000 	str	r3, [r2]
   10148:	0a000007 	beq	1016c <parse.constprop.0+0x4c>
   1014c:	e1a00004 	mov	r0, r4
   10150:	ebffe912 	bl	a5a0 <iobuf_tell>
   10154:	e1a05000 	mov	r5, r0
   10158:	e59f0fd4 	ldr	r0, [pc, #4052]	; 11134 <parse.constprop.0+0x1014>
   1015c:	e1a01005 	mov	r1, r5
   10160:	e08f0000 	add	r0, pc, r0
   10164:	eb0007fe 	bl	12164 <tfp_printf>
   10168:	e5885000 	str	r5, [r8]
   1016c:	e5943010 	ldr	r3, [r4, #16]
   10170:	e3530000 	cmp	r3, #0
   10174:	1a000003 	bne	10188 <parse.constprop.0+0x68>
   10178:	e5943018 	ldr	r3, [r4, #24]
   1017c:	e594201c 	ldr	r2, [r4, #28]
   10180:	e1530002 	cmp	r3, r2
   10184:	3a000036 	bcc	10264 <parse.constprop.0+0x144>
   10188:	e1a00004 	mov	r0, r4
   1018c:	ebffe497 	bl	93f0 <iobuf_readbyte>
   10190:	e3700001 	cmn	r0, #1
   10194:	16ef3070 	uxtbne	r3, r0
   10198:	0a00009e 	beq	10418 <parse.constprop.0+0x2f8>
   1019c:	e5cd302c 	strb	r3, [sp, #44]	; 0x2c
   101a0:	e3100080 	tst	r0, #128	; 0x80
   101a4:	0a000039 	beq	10290 <parse.constprop.0+0x170>
   101a8:	e2103040 	ands	r3, r0, #64	; 0x40
   101ac:	e58d3010 	str	r3, [sp, #16]
   101b0:	1a00003f 	bne	102b4 <parse.constprop.0+0x194>
   101b4:	e2003003 	and	r3, r0, #3
   101b8:	e1a00140 	asr	r0, r0, #2
   101bc:	e3530003 	cmp	r3, #3
   101c0:	e200800f 	and	r8, r0, #15
   101c4:	0a0000c1 	beq	104d0 <parse.constprop.0+0x3b0>
   101c8:	e59d5010 	ldr	r5, [sp, #16]
   101cc:	e3a0a001 	mov	sl, #1
   101d0:	e28db02d 	add	fp, sp, #45	; 0x2d
   101d4:	e1a0331a 	lsl	r3, sl, r3
   101d8:	e083900a 	add	r9, r3, sl
   101dc:	ea00000a 	b	1020c <parse.constprop.0+0xec>
   101e0:	e5842018 	str	r2, [r4, #24]
   101e4:	e5942008 	ldr	r2, [r4, #8]
   101e8:	e5941020 	ldr	r1, [r4, #32]
   101ec:	e2822001 	add	r2, r2, #1
   101f0:	e5842008 	str	r2, [r4, #8]
   101f4:	e7d10003 	ldrb	r0, [r1, r3]
   101f8:	e1805005 	orr	r5, r0, r5
   101fc:	e28aa001 	add	sl, sl, #1
   10200:	e159000a 	cmp	r9, sl
   10204:	e4cb0001 	strb	r0, [fp], #1
   10208:	0a00003e 	beq	10308 <parse.constprop.0+0x1e8>
   1020c:	e5943010 	ldr	r3, [r4, #16]
   10210:	e1a00004 	mov	r0, r4
   10214:	e1a05405 	lsl	r5, r5, #8
   10218:	e3530000 	cmp	r3, #0
   1021c:	1a000004 	bne	10234 <parse.constprop.0+0x114>
   10220:	e5943018 	ldr	r3, [r4, #24]
   10224:	e594201c 	ldr	r2, [r4, #28]
   10228:	e1530002 	cmp	r3, r2
   1022c:	e2832001 	add	r2, r3, #1
   10230:	3affffea 	bcc	101e0 <parse.constprop.0+0xc0>
   10234:	ebffe46d 	bl	93f0 <iobuf_readbyte>
   10238:	e3700001 	cmn	r0, #1
   1023c:	e6ef0070 	uxtb	r0, r0
   10240:	1affffec 	bne	101f8 <parse.constprop.0+0xd8>
   10244:	e59f1eec 	ldr	r1, [pc, #3820]	; 11138 <parse.constprop.0+0x1018>
   10248:	e59f0eec 	ldr	r0, [pc, #3820]	; 1113c <parse.constprop.0+0x101c>
   1024c:	e08f1001 	add	r1, pc, r1
   10250:	e08f0000 	add	r0, pc, r0
   10254:	eb0007c2 	bl	12164 <tfp_printf>
   10258:	e3a0000e 	mov	r0, #14
   1025c:	e28dd09c 	add	sp, sp, #156	; 0x9c
   10260:	e8bd8ff0 	pop	{r4, r5, r6, r7, r8, r9, sl, fp, pc}
   10264:	e5942008 	ldr	r2, [r4, #8]
   10268:	e5941020 	ldr	r1, [r4, #32]
   1026c:	e2822001 	add	r2, r2, #1
   10270:	e5842008 	str	r2, [r4, #8]
   10274:	e2832001 	add	r2, r3, #1
   10278:	e5842018 	str	r2, [r4, #24]
   1027c:	e7d13003 	ldrb	r3, [r1, r3]
   10280:	e5cd302c 	strb	r3, [sp, #44]	; 0x2c
   10284:	e1a00003 	mov	r0, r3
   10288:	e3100080 	tst	r0, #128	; 0x80
   1028c:	1affffc5 	bne	101a8 <parse.constprop.0+0x88>
   10290:	e59f1ea8 	ldr	r1, [pc, #3752]	; 11140 <parse.constprop.0+0x1020>
   10294:	e1a02000 	mov	r2, r0
   10298:	e59f0ea4 	ldr	r0, [pc, #3748]	; 11144 <parse.constprop.0+0x1024>
   1029c:	e08f1001 	add	r1, pc, r1
   102a0:	e08f0000 	add	r0, pc, r0
   102a4:	eb0007ae 	bl	12164 <tfp_printf>
   102a8:	e3a0000e 	mov	r0, #14
   102ac:	e28dd09c 	add	sp, sp, #156	; 0x9c
   102b0:	e8bd8ff0 	pop	{r4, r5, r6, r7, r8, r9, sl, fp, pc}
   102b4:	e5943010 	ldr	r3, [r4, #16]
   102b8:	e200803f 	and	r8, r0, #63	; 0x3f
   102bc:	e3530000 	cmp	r3, #0
   102c0:	1a000003 	bne	102d4 <parse.constprop.0+0x1b4>
   102c4:	e5943018 	ldr	r3, [r4, #24]
   102c8:	e594201c 	ldr	r2, [r4, #28]
   102cc:	e1530002 	cmp	r3, r2
   102d0:	3a00006b 	bcc	10484 <parse.constprop.0+0x364>
   102d4:	e1a00004 	mov	r0, r4
   102d8:	ebffe444 	bl	93f0 <iobuf_readbyte>
   102dc:	e3700001 	cmn	r0, #1
   102e0:	16ef3070 	uxtbne	r3, r0
   102e4:	0a0000c0 	beq	105ec <parse.constprop.0+0x4cc>
   102e8:	e5cd302d 	strb	r3, [sp, #45]	; 0x2d
   102ec:	e35000bf 	cmp	r0, #191	; 0xbf
   102f0:	d1a05000 	movle	r5, r0
   102f4:	d3a09002 	movle	r9, #2
   102f8:	ca000049 	bgt	10424 <parse.constprop.0+0x304>
   102fc:	e358003f 	cmp	r8, #63	; 0x3f
   10300:	03750001 	cmneq	r5, #1
   10304:	0a00003e 	beq	10404 <parse.constprop.0+0x2e4>
   10308:	e59d30c4 	ldr	r3, [sp, #196]	; 0xc4
   1030c:	e3530000 	cmp	r3, #0
   10310:	13580000 	cmpne	r8, #0
   10314:	13a0a001 	movne	sl, #1
   10318:	03a0a000 	moveq	sl, #0
   1031c:	1a000061 	bne	104a8 <parse.constprop.0+0x388>
   10320:	e248b00d 	sub	fp, r8, #13
   10324:	e16fbf1b 	clz	fp, fp
   10328:	e1a0b2ab 	lsr	fp, fp, #5
   1032c:	e3570002 	cmp	r7, #2
   10330:	13a03000 	movne	r3, #0
   10334:	020b3001 	andeq	r3, fp, #1
   10338:	e3530000 	cmp	r3, #0
   1033c:	1a000093 	bne	10590 <parse.constprop.0+0x470>
   10340:	e59d30c8 	ldr	r3, [sp, #200]	; 0xc8
   10344:	e2033001 	and	r3, r3, #1
   10348:	e3580000 	cmp	r8, #0
   1034c:	03833001 	orreq	r3, r3, #1
   10350:	e58d3014 	str	r3, [sp, #20]
   10354:	e3530000 	cmp	r3, #0
   10358:	1a000141 	bne	10864 <parse.constprop.0+0x744>
   1035c:	e3570000 	cmp	r7, #0
   10360:	1358000e 	cmpne	r8, #14
   10364:	0a000002 	beq	10374 <parse.constprop.0+0x254>
   10368:	e2483005 	sub	r3, r8, #5
   1036c:	e3530002 	cmp	r3, #2
   10370:	8a00013b 	bhi	10864 <parse.constprop.0+0x744>
   10374:	e5963014 	ldr	r3, [r6, #20]
   10378:	e59f2dc8 	ldr	r2, [pc, #3528]	; 11148 <parse.constprop.0+0x1028>
   1037c:	e59f0dc8 	ldr	r0, [pc, #3528]	; 1114c <parse.constprop.0+0x102c>
   10380:	e2833001 	add	r3, r3, #1
   10384:	e5863014 	str	r3, [r6, #20]
   10388:	e08f2002 	add	r2, pc, r2
   1038c:	e59d300c 	ldr	r3, [sp, #12]
   10390:	e7921108 	ldr	r1, [r2, r8, lsl #2]
   10394:	e1a02008 	mov	r2, r8
   10398:	e5c38000 	strb	r8, [r3]
   1039c:	e08f0000 	add	r0, pc, r0
   103a0:	eb00076f 	bl	12164 <tfp_printf>
   103a4:	e59d3010 	ldr	r3, [sp, #16]
   103a8:	e2482003 	sub	r2, r8, #3
   103ac:	e2533000 	subs	r3, r3, #0
   103b0:	13a03001 	movne	r3, #1
   103b4:	e3520010 	cmp	r2, #16
   103b8:	908ff102 	addls	pc, pc, r2, lsl #2
   103bc:	ea00007e 	b	105bc <parse.constprop.0+0x49c>
   103c0:	ea000137 	b	108a4 <parse.constprop.0+0x784>
   103c4:	ea00007c 	b	105bc <parse.constprop.0+0x49c>
   103c8:	ea00007b 	b	105bc <parse.constprop.0+0x49c>
   103cc:	ea00007a 	b	105bc <parse.constprop.0+0x49c>
   103d0:	ea000079 	b	105bc <parse.constprop.0+0x49c>
   103d4:	ea000078 	b	105bc <parse.constprop.0+0x49c>
   103d8:	ea000090 	b	10620 <parse.constprop.0+0x500>
   103dc:	ea000201 	b	10be8 <parse.constprop.0+0xac8>
   103e0:	ea0001aa 	b	10a90 <parse.constprop.0+0x970>
   103e4:	ea000074 	b	105bc <parse.constprop.0+0x49c>
   103e8:	ea000073 	b	105bc <parse.constprop.0+0x49c>
   103ec:	ea000072 	b	105bc <parse.constprop.0+0x49c>
   103f0:	ea000071 	b	105bc <parse.constprop.0+0x49c>
   103f4:	ea000070 	b	105bc <parse.constprop.0+0x49c>
   103f8:	ea00006f 	b	105bc <parse.constprop.0+0x49c>
   103fc:	ea000087 	b	10620 <parse.constprop.0+0x500>
   10400:	ea00017f 	b	10a04 <parse.constprop.0+0x8e4>
   10404:	e59f1d44 	ldr	r1, [pc, #3396]	; 11150 <parse.constprop.0+0x1030>
   10408:	e59f0d44 	ldr	r0, [pc, #3396]	; 11154 <parse.constprop.0+0x1034>
   1040c:	e08f1001 	add	r1, pc, r1
   10410:	e08f0000 	add	r0, pc, r0
   10414:	eb000752 	bl	12164 <tfp_printf>
   10418:	e3e00000 	mvn	r0, #0
   1041c:	e28dd09c 	add	sp, sp, #156	; 0x9c
   10420:	e8bd8ff0 	pop	{r4, r5, r6, r7, r8, r9, sl, fp, pc}
   10424:	e35000df 	cmp	r0, #223	; 0xdf
   10428:	ca000035 	bgt	10504 <parse.constprop.0+0x3e4>
   1042c:	e5943010 	ldr	r3, [r4, #16]
   10430:	e24050c0 	sub	r5, r0, #192	; 0xc0
   10434:	e1a05405 	lsl	r5, r5, #8
   10438:	e3530000 	cmp	r3, #0
   1043c:	1a0000f4 	bne	10814 <parse.constprop.0+0x6f4>
   10440:	e5943018 	ldr	r3, [r4, #24]
   10444:	e594201c 	ldr	r2, [r4, #28]
   10448:	e1530002 	cmp	r3, r2
   1044c:	2a0000f0 	bcs	10814 <parse.constprop.0+0x6f4>
   10450:	e5942008 	ldr	r2, [r4, #8]
   10454:	e5941020 	ldr	r1, [r4, #32]
   10458:	e2822001 	add	r2, r2, #1
   1045c:	e5842008 	str	r2, [r4, #8]
   10460:	e2832001 	add	r2, r3, #1
   10464:	e5842018 	str	r2, [r4, #24]
   10468:	e7d13003 	ldrb	r3, [r1, r3]
   1046c:	e1a00003 	mov	r0, r3
   10470:	e5cd302e 	strb	r3, [sp, #46]	; 0x2e
   10474:	e28550c0 	add	r5, r5, #192	; 0xc0
   10478:	e0805005 	add	r5, r0, r5
   1047c:	e3a09003 	mov	r9, #3
   10480:	eaffff9d 	b	102fc <parse.constprop.0+0x1dc>
   10484:	e5942008 	ldr	r2, [r4, #8]
   10488:	e5941020 	ldr	r1, [r4, #32]
   1048c:	e2822001 	add	r2, r2, #1
   10490:	e5842008 	str	r2, [r4, #8]
   10494:	e2832001 	add	r2, r3, #1
   10498:	e5842018 	str	r2, [r4, #24]
   1049c:	e7d13003 	ldrb	r3, [r1, r3]
   104a0:	e1a00003 	mov	r0, r3
   104a4:	eaffff8f 	b	102e8 <parse.constprop.0+0x1c8>
   104a8:	e59d00c4 	ldr	r0, [sp, #196]	; 0xc4
   104ac:	e1a02009 	mov	r2, r9
   104b0:	e28d102c 	add	r1, sp, #44	; 0x2c
   104b4:	ebffe522 	bl	9944 <iobuf_write>
   104b8:	e3500000 	cmp	r0, #0
   104bc:	0a000222 	beq	10d4c <parse.constprop.0+0xc2c>
   104c0:	e3700001 	cmn	r0, #1
   104c4:	0affffd3 	beq	10418 <parse.constprop.0+0x2f8>
   104c8:	e6ff0070 	uxth	r0, r0
   104cc:	eaffffd2 	b	1041c <parse.constprop.0+0x2fc>
   104d0:	e200000d 	and	r0, r0, #13
   104d4:	e3500009 	cmp	r0, #9
   104d8:	0a00001c 	beq	10550 <parse.constprop.0+0x430>
   104dc:	e3580008 	cmp	r8, #8
   104e0:	1a0000e7 	bne	10884 <parse.constprop.0+0x764>
   104e4:	e59d30c4 	ldr	r3, [sp, #196]	; 0xc4
   104e8:	e3530000 	cmp	r3, #0
   104ec:	1a000021 	bne	10578 <parse.constprop.0+0x458>
   104f0:	e59db010 	ldr	fp, [sp, #16]
   104f4:	e3a0a001 	mov	sl, #1
   104f8:	e1a0900a 	mov	r9, sl
   104fc:	e1a0500b 	mov	r5, fp
   10500:	eaffff8e 	b	10340 <parse.constprop.0+0x220>
   10504:	e35000ff 	cmp	r0, #255	; 0xff
   10508:	0a0000a7 	beq	107ac <parse.constprop.0+0x68c>
   1050c:	e2483008 	sub	r3, r8, #8
   10510:	e353000c 	cmp	r3, #12
   10514:	908ff103 	addls	pc, pc, r3, lsl #2
   10518:	ea0000c9 	b	10844 <parse.constprop.0+0x724>
   1051c:	ea000039 	b	10608 <parse.constprop.0+0x4e8>
   10520:	ea000038 	b	10608 <parse.constprop.0+0x4e8>
   10524:	ea0000c6 	b	10844 <parse.constprop.0+0x724>
   10528:	ea000036 	b	10608 <parse.constprop.0+0x4e8>
   1052c:	ea0000c4 	b	10844 <parse.constprop.0+0x724>
   10530:	ea0000c3 	b	10844 <parse.constprop.0+0x724>
   10534:	ea0000c2 	b	10844 <parse.constprop.0+0x724>
   10538:	ea0000c1 	b	10844 <parse.constprop.0+0x724>
   1053c:	ea0000c0 	b	10844 <parse.constprop.0+0x724>
   10540:	ea0000bf 	b	10844 <parse.constprop.0+0x724>
   10544:	ea00002f 	b	10608 <parse.constprop.0+0x4e8>
   10548:	ea0000bd 	b	10844 <parse.constprop.0+0x724>
   1054c:	ea00002d 	b	10608 <parse.constprop.0+0x4e8>
   10550:	e2585000 	subs	r5, r8, #0
   10554:	e3a09001 	mov	r9, #1
   10558:	13a05001 	movne	r5, #1
   1055c:	e59d30c4 	ldr	r3, [sp, #196]	; 0xc4
   10560:	e3530000 	cmp	r3, #0
   10564:	03a05000 	moveq	r5, #0
   10568:	12055001 	andne	r5, r5, #1
   1056c:	e3550000 	cmp	r5, #0
   10570:	03a0a001 	moveq	sl, #1
   10574:	0affff69 	beq	10320 <parse.constprop.0+0x200>
   10578:	e59f0bd8 	ldr	r0, [pc, #3032]	; 11158 <parse.constprop.0+0x1038>
   1057c:	e08f0000 	add	r0, pc, r0
   10580:	eb0006f7 	bl	12164 <tfp_printf>
   10584:	e3a0000e 	mov	r0, #14
   10588:	e28dd09c 	add	sp, sp, #156	; 0x9c
   1058c:	e8bd8ff0 	pop	{r4, r5, r6, r7, r8, r9, sl, fp, pc}
   10590:	e5963014 	ldr	r3, [r6, #20]
   10594:	e3a0200d 	mov	r2, #13
   10598:	e59f1bbc 	ldr	r1, [pc, #3004]	; 1115c <parse.constprop.0+0x103c>
   1059c:	e59f0bbc 	ldr	r0, [pc, #3004]	; 11160 <parse.constprop.0+0x1040>
   105a0:	e2833001 	add	r3, r3, #1
   105a4:	e5863014 	str	r3, [r6, #20]
   105a8:	e59d300c 	ldr	r3, [sp, #12]
   105ac:	e08f1001 	add	r1, pc, r1
   105b0:	e08f0000 	add	r0, pc, r0
   105b4:	e5c32000 	strb	r2, [r3]
   105b8:	eb0006e9 	bl	12164 <tfp_printf>
   105bc:	e3a00000 	mov	r0, #0
   105c0:	e1a01006 	mov	r1, r6
   105c4:	ebffeffd 	bl	c5c0 <free_packet>
   105c8:	e59f0b94 	ldr	r0, [pc, #2964]	; 11164 <parse.constprop.0+0x1044>
   105cc:	e1a01009 	mov	r1, r9
   105d0:	e08f0000 	add	r0, pc, r0
   105d4:	eb0006e2 	bl	12164 <tfp_printf>
   105d8:	e1a01009 	mov	r1, r9
   105dc:	e28d002c 	add	r0, sp, #44	; 0x2c
   105e0:	ebffea44 	bl	aef8 <log_hexdump>
   105e4:	e3a00002 	mov	r0, #2
   105e8:	eaffff8b 	b	1041c <parse.constprop.0+0x2fc>
   105ec:	e59f1b74 	ldr	r1, [pc, #2932]	; 11168 <parse.constprop.0+0x1048>
   105f0:	e59f0b74 	ldr	r0, [pc, #2932]	; 1116c <parse.constprop.0+0x104c>
   105f4:	e08f1001 	add	r1, pc, r1
   105f8:	e08f0000 	add	r0, pc, r0
   105fc:	eb0006d8 	bl	12164 <tfp_printf>
   10600:	e3a0000e 	mov	r0, #14
   10604:	eaffff84 	b	1041c <parse.constprop.0+0x2fc>
   10608:	e6ef1070 	uxtb	r1, r0
   1060c:	e1a00004 	mov	r0, r4
   10610:	e3a09002 	mov	r9, #2
   10614:	e3a05001 	mov	r5, #1
   10618:	ebffe86b 	bl	a7cc <iobuf_set_partial_body_length_mode>
   1061c:	eaffffce 	b	1055c <parse.constprop.0+0x43c>
   10620:	e59f0b48 	ldr	r0, [pc, #2888]	; 11170 <parse.constprop.0+0x1050>
   10624:	e58d3010 	str	r3, [sp, #16]
   10628:	e08f0000 	add	r0, pc, r0
   1062c:	eb0006cc 	bl	12164 <tfp_printf>
   10630:	e59f0b3c 	ldr	r0, [pc, #2876]	; 11174 <parse.constprop.0+0x1054>
   10634:	e1a01005 	mov	r1, r5
   10638:	e08f0000 	add	r0, pc, r0
   1063c:	eb0006c8 	bl	12164 <tfp_printf>
   10640:	e59f0b30 	ldr	r0, [pc, #2864]	; 11178 <parse.constprop.0+0x1058>
   10644:	e08f0000 	add	r0, pc, r0
   10648:	eb0006c5 	bl	12164 <tfp_printf>
   1064c:	e59f0b28 	ldr	r0, [pc, #2856]	; 1117c <parse.constprop.0+0x105c>
   10650:	e1a01004 	mov	r1, r4
   10654:	e08f0000 	add	r0, pc, r0
   10658:	eb0006c1 	bl	12164 <tfp_printf>
   1065c:	e59f0b1c 	ldr	r0, [pc, #2844]	; 11180 <parse.constprop.0+0x1060>
   10660:	e2482012 	sub	r2, r8, #18
   10664:	e16f2f12 	clz	r2, r2
   10668:	e1a01008 	mov	r1, r8
   1066c:	e08f0000 	add	r0, pc, r0
   10670:	e1a022a2 	lsr	r2, r2, #5
   10674:	eb0006ba 	bl	12164 <tfp_printf>
   10678:	e59f0b04 	ldr	r0, [pc, #2820]	; 11184 <parse.constprop.0+0x1064>
   1067c:	e1a0100a 	mov	r1, sl
   10680:	e08f0000 	add	r0, pc, r0
   10684:	eb0006b6 	bl	12164 <tfp_printf>
   10688:	e59f0af8 	ldr	r0, [pc, #2808]	; 11188 <parse.constprop.0+0x1068>
   1068c:	e5d41000 	ldrb	r1, [r4]
   10690:	e08f0000 	add	r0, pc, r0
   10694:	eb0006b2 	bl	12164 <tfp_printf>
   10698:	e3a00014 	mov	r0, #20
   1069c:	ebfffdb6 	bl	fd7c <xmalloc>
   106a0:	e59d300c 	ldr	r3, [sp, #12]
   106a4:	e3580012 	cmp	r8, #18
   106a8:	e1a07000 	mov	r7, r0
   106ac:	e5830004 	str	r0, [r3, #4]
   106b0:	e59d3010 	ldr	r3, [sp, #16]
   106b4:	e5c0a009 	strb	sl, [r0, #9]
   106b8:	e5c03008 	strb	r3, [r0, #8]
   106bc:	e3a03000 	mov	r3, #0
   106c0:	e5803004 	str	r3, [r0, #4]
   106c4:	e5803010 	str	r3, [r0, #16]
   106c8:	e5c0300b 	strb	r3, [r0, #11]
   106cc:	e1c030bc 	strh	r3, [r0, #12]
   106d0:	15c0300a 	strbne	r3, [r0, #10]
   106d4:	11a03005 	movne	r3, r5
   106d8:	0a0002d0 	beq	11220 <parse.constprop.0+0x1100>
   106dc:	e2555000 	subs	r5, r5, #0
   106e0:	13a05001 	movne	r5, #1
   106e4:	e3530009 	cmp	r3, #9
   106e8:	83a05000 	movhi	r5, #0
   106ec:	e3550000 	cmp	r5, #0
   106f0:	1a000311 	bne	1133c <parse.constprop.0+0x121c>
   106f4:	e59f5a90 	ldr	r5, [pc, #2704]	; 1118c <parse.constprop.0+0x106c>
   106f8:	e1a01003 	mov	r1, r3
   106fc:	e5873000 	str	r3, [r7]
   10700:	e08f5005 	add	r5, pc, r5
   10704:	e1a00005 	mov	r0, r5
   10708:	eb000695 	bl	12164 <tfp_printf>
   1070c:	e5971000 	ldr	r1, [r7]
   10710:	e3510000 	cmp	r1, #0
   10714:	1a0002ff 	bne	11318 <parse.constprop.0+0x11f8>
   10718:	e59f0a70 	ldr	r0, [pc, #2672]	; 11190 <parse.constprop.0+0x1070>
   1071c:	e1a01007 	mov	r1, r7
   10720:	e08f0000 	add	r0, pc, r0
   10724:	eb00068e 	bl	12164 <tfp_printf>
   10728:	e59f0a64 	ldr	r0, [pc, #2660]	; 11194 <parse.constprop.0+0x1074>
   1072c:	e1a01004 	mov	r1, r4
   10730:	e08f0000 	add	r0, pc, r0
   10734:	eb00068a 	bl	12164 <tfp_printf>
   10738:	e59f0a58 	ldr	r0, [pc, #2648]	; 11198 <parse.constprop.0+0x1078>
   1073c:	e3a01000 	mov	r1, #0
   10740:	e5874010 	str	r4, [r7, #16]
   10744:	e08f0000 	add	r0, pc, r0
   10748:	eb000685 	bl	12164 <tfp_printf>
   1074c:	e1a01006 	mov	r1, r6
   10750:	e3a00000 	mov	r0, #0
   10754:	ebffef99 	bl	c5c0 <free_packet>
   10758:	e2483005 	sub	r3, r8, #5
   1075c:	e3530001 	cmp	r3, #1
   10760:	938bb001 	orrls	fp, fp, #1
   10764:	e35b0000 	cmp	fp, #0
   10768:	0a000154 	beq	10cc0 <parse.constprop.0+0xba0>
   1076c:	e59d300c 	ldr	r3, [sp, #12]
   10770:	e8930003 	ldm	r3, {r0, r1}
   10774:	e9860003 	stmib	r6, {r0, r1}
   10778:	e59f0a1c 	ldr	r0, [pc, #2588]	; 1119c <parse.constprop.0+0x107c>
   1077c:	e1a01009 	mov	r1, r9
   10780:	e08f0000 	add	r0, pc, r0
   10784:	eb000676 	bl	12164 <tfp_printf>
   10788:	e1a01009 	mov	r1, r9
   1078c:	e28d002c 	add	r0, sp, #44	; 0x2c
   10790:	ebffe9d8 	bl	aef8 <log_hexdump>
   10794:	e5943028 	ldr	r3, [r4, #40]	; 0x28
   10798:	e3530000 	cmp	r3, #0
   1079c:	03a00000 	moveq	r0, #0
   107a0:	13a00022 	movne	r0, #34	; 0x22
   107a4:	e28dd09c 	add	sp, sp, #156	; 0x9c
   107a8:	e8bd8ff0 	pop	{r4, r5, r6, r7, r8, r9, sl, fp, pc}
   107ac:	e28da02e 	add	sl, sp, #46	; 0x2e
   107b0:	e28d5034 	add	r5, sp, #52	; 0x34
   107b4:	e3a09002 	mov	r9, #2
   107b8:	e5943010 	ldr	r3, [r4, #16]
   107bc:	e1a00004 	mov	r0, r4
   107c0:	e3530000 	cmp	r3, #0
   107c4:	1a000155 	bne	10d20 <parse.constprop.0+0xc00>
   107c8:	e5943018 	ldr	r3, [r4, #24]
   107cc:	e594201c 	ldr	r2, [r4, #28]
   107d0:	e1530002 	cmp	r3, r2
   107d4:	e2832001 	add	r2, r3, #1
   107d8:	2a000150 	bcs	10d20 <parse.constprop.0+0xc00>
   107dc:	e5842018 	str	r2, [r4, #24]
   107e0:	e5942008 	ldr	r2, [r4, #8]
   107e4:	e5941020 	ldr	r1, [r4, #32]
   107e8:	e2822001 	add	r2, r2, #1
   107ec:	e5842008 	str	r2, [r4, #8]
   107f0:	e7d13003 	ldrb	r3, [r1, r3]
   107f4:	e4ca3001 	strb	r3, [sl], #1
   107f8:	e2899001 	add	r9, r9, #1
   107fc:	e4c53001 	strb	r3, [r5], #1
   10800:	e3590006 	cmp	r9, #6
   10804:	1affffeb 	bne	107b8 <parse.constprop.0+0x698>
   10808:	e59d5034 	ldr	r5, [sp, #52]	; 0x34
   1080c:	e6bf5f35 	rev	r5, r5
   10810:	eafffeb9 	b	102fc <parse.constprop.0+0x1dc>
   10814:	e1a00004 	mov	r0, r4
   10818:	ebffe2f4 	bl	93f0 <iobuf_readbyte>
   1081c:	e3700001 	cmn	r0, #1
   10820:	16ef3070 	uxtbne	r3, r0
   10824:	1affff11 	bne	10470 <parse.constprop.0+0x350>
   10828:	e59f1970 	ldr	r1, [pc, #2416]	; 111a0 <parse.constprop.0+0x1080>
   1082c:	e59f0970 	ldr	r0, [pc, #2416]	; 111a4 <parse.constprop.0+0x1084>
   10830:	e08f1001 	add	r1, pc, r1
   10834:	e08f0000 	add	r0, pc, r0
   10838:	eb000649 	bl	12164 <tfp_printf>
   1083c:	e3a0000e 	mov	r0, #14
   10840:	eafffef5 	b	1041c <parse.constprop.0+0x2fc>
   10844:	e59f195c 	ldr	r1, [pc, #2396]	; 111a8 <parse.constprop.0+0x1088>
   10848:	e1a02008 	mov	r2, r8
   1084c:	e59f0958 	ldr	r0, [pc, #2392]	; 111ac <parse.constprop.0+0x108c>
   10850:	e08f1001 	add	r1, pc, r1
   10854:	e08f0000 	add	r0, pc, r0
   10858:	eb000641 	bl	12164 <tfp_printf>
   1085c:	e3a0000e 	mov	r0, #14
   10860:	eafffeed 	b	1041c <parse.constprop.0+0x2fc>
   10864:	e1a0200a 	mov	r2, sl
   10868:	e1a01005 	mov	r1, r5
   1086c:	e1a00004 	mov	r0, r4
   10870:	ebffe877 	bl	aa54 <iobuf_skip_rest>
   10874:	e59d20c0 	ldr	r2, [sp, #192]	; 0xc0
   10878:	e3a03001 	mov	r3, #1
   1087c:	e5823000 	str	r3, [r2]
   10880:	eaffffc3 	b	10794 <parse.constprop.0+0x674>
   10884:	e59f1924 	ldr	r1, [pc, #2340]	; 111b0 <parse.constprop.0+0x1090>
   10888:	e1a02008 	mov	r2, r8
   1088c:	e59f0920 	ldr	r0, [pc, #2336]	; 111b4 <parse.constprop.0+0x1094>
   10890:	e08f1001 	add	r1, pc, r1
   10894:	e08f0000 	add	r0, pc, r0
   10898:	eb000631 	bl	12164 <tfp_printf>
   1089c:	e3a0000e 	mov	r0, #14
   108a0:	eafffedd 	b	1041c <parse.constprop.0+0x2fc>
   108a4:	e3550003 	cmp	r5, #3
   108a8:	9a000283 	bls	112bc <parse.constprop.0+0x119c>
   108ac:	e5943010 	ldr	r3, [r4, #16]
   108b0:	e3530000 	cmp	r3, #0
   108b4:	1a0001b0 	bne	10f7c <parse.constprop.0+0xe5c>
   108b8:	e5943018 	ldr	r3, [r4, #24]
   108bc:	e594201c 	ldr	r2, [r4, #28]
   108c0:	e1530002 	cmp	r3, r2
   108c4:	2a0001ac 	bcs	10f7c <parse.constprop.0+0xe5c>
   108c8:	e5942008 	ldr	r2, [r4, #8]
   108cc:	e5941020 	ldr	r1, [r4, #32]
   108d0:	e2822001 	add	r2, r2, #1
   108d4:	e5842008 	str	r2, [r4, #8]
   108d8:	e2832001 	add	r2, r3, #1
   108dc:	e5842018 	str	r2, [r4, #24]
   108e0:	e7d1b003 	ldrb	fp, [r1, r3]
   108e4:	e24b3004 	sub	r3, fp, #4
   108e8:	e2457001 	sub	r7, r5, #1
   108ec:	e3530001 	cmp	r3, #1
   108f0:	8a000393 	bhi	11744 <parse.constprop.0+0x1624>
   108f4:	e35700c8 	cmp	r7, #200	; 0xc8
   108f8:	8a00039d 	bhi	11774 <parse.constprop.0+0x1654>
   108fc:	e594a010 	ldr	sl, [r4, #16]
   10900:	e35a0000 	cmp	sl, #0
   10904:	1a0001e6 	bne	110a4 <parse.constprop.0+0xf84>
   10908:	e594201c 	ldr	r2, [r4, #28]
   1090c:	e5941018 	ldr	r1, [r4, #24]
   10910:	e1a03002 	mov	r3, r2
   10914:	e1510002 	cmp	r1, r2
   10918:	2a0001e1 	bcs	110a4 <parse.constprop.0+0xf84>
   1091c:	e5940008 	ldr	r0, [r4, #8]
   10920:	e35b0005 	cmp	fp, #5
   10924:	e594c020 	ldr	ip, [r4, #32]
   10928:	12458002 	subne	r8, r5, #2
   1092c:	e2800001 	add	r0, r0, #1
   10930:	e5840008 	str	r0, [r4, #8]
   10934:	e2810001 	add	r0, r1, #1
   10938:	e5840018 	str	r0, [r4, #24]
   1093c:	e7dc1001 	ldrb	r1, [ip, r1]
   10940:	e58d1010 	str	r1, [sp, #16]
   10944:	0a000359 	beq	116b0 <parse.constprop.0+0x1590>
   10948:	e5941018 	ldr	r1, [r4, #24]
   1094c:	e1a03002 	mov	r3, r2
   10950:	e1510003 	cmp	r1, r3
   10954:	2a0001de 	bcs	110d4 <parse.constprop.0+0xfb4>
   10958:	e5942008 	ldr	r2, [r4, #8]
   1095c:	e5940020 	ldr	r0, [r4, #32]
   10960:	e2822001 	add	r2, r2, #1
   10964:	e5842008 	str	r2, [r4, #8]
   10968:	e2812001 	add	r2, r1, #1
   1096c:	e5842018 	str	r2, [r4, #24]
   10970:	e7d07001 	ldrb	r7, [r0, r1]
   10974:	e1530002 	cmp	r3, r2
   10978:	9a0001dc 	bls	110f0 <parse.constprop.0+0xfd0>
   1097c:	e5943008 	ldr	r3, [r4, #8]
   10980:	e5941020 	ldr	r1, [r4, #32]
   10984:	e2833001 	add	r3, r3, #1
   10988:	e5843008 	str	r3, [r4, #8]
   1098c:	e2823001 	add	r3, r2, #1
   10990:	e5843018 	str	r3, [r4, #24]
   10994:	e7d13002 	ldrb	r3, [r1, r2]
   10998:	e58d3018 	str	r3, [sp, #24]
   1099c:	e3570001 	cmp	r7, #1
   109a0:	e2485002 	sub	r5, r8, #2
   109a4:	0a00034e 	beq	116e4 <parse.constprop.0+0x15c4>
   109a8:	e3570003 	cmp	r7, #3
   109ac:	0a000273 	beq	11380 <parse.constprop.0+0x1260>
   109b0:	e3570000 	cmp	r7, #0
   109b4:	0a0002b0 	beq	1147c <parse.constprop.0+0x135c>
   109b8:	e59f07f8 	ldr	r0, [pc, #2040]	; 111b8 <parse.constprop.0+0x1098>
   109bc:	e1a01007 	mov	r1, r7
   109c0:	e08f0000 	add	r0, pc, r0
   109c4:	eb0005e6 	bl	12164 <tfp_printf>
   109c8:	e1a01005 	mov	r1, r5
   109cc:	e1a00004 	mov	r0, r4
   109d0:	e3a02000 	mov	r2, #0
   109d4:	ebffe81e 	bl	aa54 <iobuf_skip_rest>
   109d8:	e1a01006 	mov	r1, r6
   109dc:	e3a00000 	mov	r0, #0
   109e0:	ebffeef6 	bl	c5c0 <free_packet>
   109e4:	e59f07d0 	ldr	r0, [pc, #2000]	; 111bc <parse.constprop.0+0x109c>
   109e8:	e1a01009 	mov	r1, r9
   109ec:	e08f0000 	add	r0, pc, r0
   109f0:	eb0005db 	bl	12164 <tfp_printf>
   109f4:	e1a01009 	mov	r1, r9
   109f8:	e28d002c 	add	r0, sp, #44	; 0x2c
   109fc:	ebffe93d 	bl	aef8 <log_hexdump>
   10a00:	eaffff63 	b	10794 <parse.constprop.0+0x674>
   10a04:	e3a00014 	mov	r0, #20
   10a08:	ebfffcdb 	bl	fd7c <xmalloc>
   10a0c:	e2555014 	subs	r5, r5, #20
   10a10:	e59d3010 	ldr	r3, [sp, #16]
   10a14:	13a05001 	movne	r5, #1
   10a18:	e3530000 	cmp	r3, #0
   10a1c:	03855001 	orreq	r5, r5, #1
   10a20:	e59d300c 	ldr	r3, [sp, #12]
   10a24:	e3550000 	cmp	r5, #0
   10a28:	02807014 	addeq	r7, r0, #20
   10a2c:	e1a05000 	mov	r5, r0
   10a30:	e5830004 	str	r0, [r3, #4]
   10a34:	0a000009 	beq	10a60 <parse.constprop.0+0x940>
   10a38:	ea00032b 	b	116ec <parse.constprop.0+0x15cc>
   10a3c:	e5842018 	str	r2, [r4, #24]
   10a40:	e5942008 	ldr	r2, [r4, #8]
   10a44:	e5941020 	ldr	r1, [r4, #32]
   10a48:	e2822001 	add	r2, r2, #1
   10a4c:	e5842008 	str	r2, [r4, #8]
   10a50:	e7d10003 	ldrb	r0, [r1, r3]
   10a54:	e4c50001 	strb	r0, [r5], #1
   10a58:	e1570005 	cmp	r7, r5
   10a5c:	0a000094 	beq	10cb4 <parse.constprop.0+0xb94>
   10a60:	e5943010 	ldr	r3, [r4, #16]
   10a64:	e1a00004 	mov	r0, r4
   10a68:	e3530000 	cmp	r3, #0
   10a6c:	1a000004 	bne	10a84 <parse.constprop.0+0x964>
   10a70:	e5943018 	ldr	r3, [r4, #24]
   10a74:	e594201c 	ldr	r2, [r4, #28]
   10a78:	e1530002 	cmp	r3, r2
   10a7c:	e2832001 	add	r2, r3, #1
   10a80:	3affffed 	bcc	10a3c <parse.constprop.0+0x91c>
   10a84:	ebffe259 	bl	93f0 <iobuf_readbyte>
   10a88:	e6ef0070 	uxtb	r0, r0
   10a8c:	eafffff0 	b	10a54 <parse.constprop.0+0x934>
   10a90:	e22a2001 	eor	r2, sl, #1
   10a94:	e3550005 	cmp	r5, #5
   10a98:	83a02000 	movhi	r2, #0
   10a9c:	92022001 	andls	r2, r2, #1
   10aa0:	e3520000 	cmp	r2, #0
   10aa4:	1a00031a 	bne	11714 <parse.constprop.0+0x15f4>
   10aa8:	e5942010 	ldr	r2, [r4, #16]
   10aac:	e3520000 	cmp	r2, #0
   10ab0:	1a000102 	bne	10ec0 <parse.constprop.0+0xda0>
   10ab4:	e5940018 	ldr	r0, [r4, #24]
   10ab8:	e594201c 	ldr	r2, [r4, #28]
   10abc:	e1500002 	cmp	r0, r2
   10ac0:	2a0000fe 	bcs	10ec0 <parse.constprop.0+0xda0>
   10ac4:	e5941008 	ldr	r1, [r4, #8]
   10ac8:	e3550000 	cmp	r5, #0
   10acc:	e594c020 	ldr	ip, [r4, #32]
   10ad0:	12455001 	subne	r5, r5, #1
   10ad4:	e2811001 	add	r1, r1, #1
   10ad8:	e5841008 	str	r1, [r4, #8]
   10adc:	e2801001 	add	r1, r0, #1
   10ae0:	e5841018 	str	r1, [r4, #24]
   10ae4:	e7dc8000 	ldrb	r8, [ip, r0]
   10ae8:	0a000000 	beq	10af0 <parse.constprop.0+0x9d0>
   10aec:	e5941018 	ldr	r1, [r4, #24]
   10af0:	e1510002 	cmp	r1, r2
   10af4:	2a0000fb 	bcs	10ee8 <parse.constprop.0+0xdc8>
   10af8:	e5942008 	ldr	r2, [r4, #8]
   10afc:	e5940020 	ldr	r0, [r4, #32]
   10b00:	e2822001 	add	r2, r2, #1
   10b04:	e5842008 	str	r2, [r4, #8]
   10b08:	e2812001 	add	r2, r1, #1
   10b0c:	e5842018 	str	r2, [r4, #24]
   10b10:	e7d07001 	ldrb	r7, [r0, r1]
   10b14:	e58d3010 	str	r3, [sp, #16]
   10b18:	e3550000 	cmp	r5, #0
   10b1c:	0a00011a 	beq	10f8c <parse.constprop.0+0xe6c>
   10b20:	e287001b 	add	r0, r7, #27
   10b24:	e2455001 	sub	r5, r5, #1
   10b28:	ebfffc93 	bl	fd7c <xmalloc>
   10b2c:	e59d300c 	ldr	r3, [sp, #12]
   10b30:	e3550000 	cmp	r5, #0
   10b34:	e1a0b000 	mov	fp, r0
   10b38:	e5830004 	str	r0, [r3, #4]
   10b3c:	e59d3010 	ldr	r3, [sp, #16]
   10b40:	e580800c 	str	r8, [r0, #12]
   10b44:	e5c03008 	strb	r3, [r0, #8]
   10b48:	e5c0a009 	strb	sl, [r0, #9]
   10b4c:	e5807014 	str	r7, [r0, #20]
   10b50:	0a000117 	beq	10fb4 <parse.constprop.0+0xe94>
   10b54:	e3570000 	cmp	r7, #0
   10b58:	13550004 	cmpne	r5, #4
   10b5c:	e5942010 	ldr	r2, [r4, #16]
   10b60:	83a03001 	movhi	r3, #1
   10b64:	93a03000 	movls	r3, #0
   10b68:	9a000312 	bls	117b8 <parse.constprop.0+0x1698>
   10b6c:	e2808017 	add	r8, r0, #23
   10b70:	e3a0a000 	mov	sl, #0
   10b74:	ea00000f 	b	10bb8 <parse.constprop.0+0xa98>
   10b78:	e5841018 	str	r1, [r4, #24]
   10b7c:	e5941008 	ldr	r1, [r4, #8]
   10b80:	e5940020 	ldr	r0, [r4, #32]
   10b84:	e2811001 	add	r1, r1, #1
   10b88:	e5841008 	str	r1, [r4, #8]
   10b8c:	e7d00003 	ldrb	r0, [r0, r3]
   10b90:	e5e80001 	strb	r0, [r8, #1]!
   10b94:	e2455001 	sub	r5, r5, #1
   10b98:	e3550004 	cmp	r5, #4
   10b9c:	e28aa001 	add	sl, sl, #1
   10ba0:	93a03000 	movls	r3, #0
   10ba4:	83a03001 	movhi	r3, #1
   10ba8:	e157000a 	cmp	r7, sl
   10bac:	d3a03000 	movle	r3, #0
   10bb0:	e3530000 	cmp	r3, #0
   10bb4:	0a000082 	beq	10dc4 <parse.constprop.0+0xca4>
   10bb8:	e3520000 	cmp	r2, #0
   10bbc:	e1a00004 	mov	r0, r4
   10bc0:	1a000004 	bne	10bd8 <parse.constprop.0+0xab8>
   10bc4:	e5943018 	ldr	r3, [r4, #24]
   10bc8:	e594101c 	ldr	r1, [r4, #28]
   10bcc:	e1530001 	cmp	r3, r1
   10bd0:	e2831001 	add	r1, r3, #1
   10bd4:	3affffe7 	bcc	10b78 <parse.constprop.0+0xa58>
   10bd8:	ebffe204 	bl	93f0 <iobuf_readbyte>
   10bdc:	e5942010 	ldr	r2, [r4, #16]
   10be0:	e6ef0070 	uxtb	r0, r0
   10be4:	eaffffe9 	b	10b90 <parse.constprop.0+0xa70>
   10be8:	e3550003 	cmp	r5, #3
   10bec:	1a000038 	bne	10cd4 <parse.constprop.0+0xbb4>
   10bf0:	e5943010 	ldr	r3, [r4, #16]
   10bf4:	e3530000 	cmp	r3, #0
   10bf8:	1a000112 	bne	11048 <parse.constprop.0+0xf28>
   10bfc:	e5943018 	ldr	r3, [r4, #24]
   10c00:	e594201c 	ldr	r2, [r4, #28]
   10c04:	e1530002 	cmp	r3, r2
   10c08:	2a00010e 	bcs	11048 <parse.constprop.0+0xf28>
   10c0c:	e5942008 	ldr	r2, [r4, #8]
   10c10:	e5941020 	ldr	r1, [r4, #32]
   10c14:	e2822001 	add	r2, r2, #1
   10c18:	e5842008 	str	r2, [r4, #8]
   10c1c:	e2832001 	add	r2, r3, #1
   10c20:	e5842018 	str	r2, [r4, #24]
   10c24:	e7d13003 	ldrb	r3, [r1, r3]
   10c28:	e2533050 	subs	r3, r3, #80	; 0x50
   10c2c:	13a03001 	movne	r3, #1
   10c30:	e3530000 	cmp	r3, #0
   10c34:	1a000025 	bne	10cd0 <parse.constprop.0+0xbb0>
   10c38:	e5943010 	ldr	r3, [r4, #16]
   10c3c:	e3530000 	cmp	r3, #0
   10c40:	1a00012f 	bne	11104 <parse.constprop.0+0xfe4>
   10c44:	e5943018 	ldr	r3, [r4, #24]
   10c48:	e594201c 	ldr	r2, [r4, #28]
   10c4c:	e1530002 	cmp	r3, r2
   10c50:	2a00012b 	bcs	11104 <parse.constprop.0+0xfe4>
   10c54:	e5942008 	ldr	r2, [r4, #8]
   10c58:	e5941020 	ldr	r1, [r4, #32]
   10c5c:	e2822001 	add	r2, r2, #1
   10c60:	e5842008 	str	r2, [r4, #8]
   10c64:	e2832001 	add	r2, r3, #1
   10c68:	e5842018 	str	r2, [r4, #24]
   10c6c:	e7d13003 	ldrb	r3, [r1, r3]
   10c70:	e3530047 	cmp	r3, #71	; 0x47
   10c74:	1a000015 	bne	10cd0 <parse.constprop.0+0xbb0>
   10c78:	e5943018 	ldr	r3, [r4, #24]
   10c7c:	e594201c 	ldr	r2, [r4, #28]
   10c80:	e1530002 	cmp	r3, r2
   10c84:	2a000125 	bcs	11120 <parse.constprop.0+0x1000>
   10c88:	e5942008 	ldr	r2, [r4, #8]
   10c8c:	e5941020 	ldr	r1, [r4, #32]
   10c90:	e2822001 	add	r2, r2, #1
   10c94:	e5842008 	str	r2, [r4, #8]
   10c98:	e2832001 	add	r2, r3, #1
   10c9c:	e5842018 	str	r2, [r4, #24]
   10ca0:	e7d13003 	ldrb	r3, [r1, r3]
   10ca4:	e2533050 	subs	r3, r3, #80	; 0x50
   10ca8:	13a03001 	movne	r3, #1
   10cac:	e3530000 	cmp	r3, #0
   10cb0:	1a000006 	bne	10cd0 <parse.constprop.0+0xbb0>
   10cb4:	e1a01006 	mov	r1, r6
   10cb8:	e3a00000 	mov	r0, #0
   10cbc:	ebffee3f 	bl	c5c0 <free_packet>
   10cc0:	e3580002 	cmp	r8, #2
   10cc4:	13580011 	cmpne	r8, #17
   10cc8:	0afffea7 	beq	1076c <parse.constprop.0+0x64c>
   10ccc:	eaffff44 	b	109e4 <parse.constprop.0+0x8c4>
   10cd0:	e3a05002 	mov	r5, #2
   10cd4:	e59f04e4 	ldr	r0, [pc, #1252]	; 111c0 <parse.constprop.0+0x10a0>
   10cd8:	e08f0000 	add	r0, pc, r0
   10cdc:	eb000520 	bl	12164 <tfp_printf>
   10ce0:	e3a02000 	mov	r2, #0
   10ce4:	e1a00004 	mov	r0, r4
   10ce8:	e1a01005 	mov	r1, r5
   10cec:	ebffe758 	bl	aa54 <iobuf_skip_rest>
   10cf0:	e1a01006 	mov	r1, r6
   10cf4:	e3a00000 	mov	r0, #0
   10cf8:	ebffee30 	bl	c5c0 <free_packet>
   10cfc:	e59f04c0 	ldr	r0, [pc, #1216]	; 111c4 <parse.constprop.0+0x10a4>
   10d00:	e1a01009 	mov	r1, r9
   10d04:	e08f0000 	add	r0, pc, r0
   10d08:	eb000515 	bl	12164 <tfp_printf>
   10d0c:	e1a01009 	mov	r1, r9
   10d10:	e28d002c 	add	r0, sp, #44	; 0x2c
   10d14:	ebffe877 	bl	aef8 <log_hexdump>
   10d18:	e3a0000e 	mov	r0, #14
   10d1c:	eafffdbe 	b	1041c <parse.constprop.0+0x2fc>
   10d20:	ebffe1b2 	bl	93f0 <iobuf_readbyte>
   10d24:	e3700001 	cmn	r0, #1
   10d28:	e6ef3070 	uxtb	r3, r0
   10d2c:	1afffeb0 	bne	107f4 <parse.constprop.0+0x6d4>
   10d30:	e59f1490 	ldr	r1, [pc, #1168]	; 111c8 <parse.constprop.0+0x10a8>
   10d34:	e59f0490 	ldr	r0, [pc, #1168]	; 111cc <parse.constprop.0+0x10ac>
   10d38:	e08f1001 	add	r1, pc, r1
   10d3c:	e08f0000 	add	r0, pc, r0
   10d40:	eb000507 	bl	12164 <tfp_printf>
   10d44:	e3a0000e 	mov	r0, #14
   10d48:	eafffdb3 	b	1041c <parse.constprop.0+0x2fc>
   10d4c:	e3550000 	cmp	r5, #0
   10d50:	03580008 	cmpeq	r8, #8
   10d54:	0a0000c0 	beq	1105c <parse.constprop.0+0xf3c>
   10d58:	e3550000 	cmp	r5, #0
   10d5c:	0afffe8c 	beq	10794 <parse.constprop.0+0x674>
   10d60:	e28d7034 	add	r7, sp, #52	; 0x34
   10d64:	ea000005 	b	10d80 <parse.constprop.0+0xc60>
   10d68:	e59d00c4 	ldr	r0, [sp, #196]	; 0xc4
   10d6c:	ebffe2f4 	bl	9944 <iobuf_write>
   10d70:	e3500000 	cmp	r0, #0
   10d74:	1afffdd1 	bne	104c0 <parse.constprop.0+0x3a0>
   10d78:	e0555006 	subs	r5, r5, r6
   10d7c:	0afffe84 	beq	10794 <parse.constprop.0+0x674>
   10d80:	e3550064 	cmp	r5, #100	; 0x64
   10d84:	e1a01007 	mov	r1, r7
   10d88:	31a02005 	movcc	r2, r5
   10d8c:	23a02064 	movcs	r2, #100	; 0x64
   10d90:	e1a00004 	mov	r0, r4
   10d94:	ebffe24e 	bl	96d4 <iobuf_read>
   10d98:	e3700001 	cmn	r0, #1
   10d9c:	e1a01007 	mov	r1, r7
   10da0:	e1a06000 	mov	r6, r0
   10da4:	e1a02000 	mov	r2, r0
   10da8:	1affffee 	bne	10d68 <parse.constprop.0+0xc48>
   10dac:	e3030fff 	movw	r0, #16383	; 0x3fff
   10db0:	e3400200 	movt	r0, #512	; 0x200
   10db4:	eafffdc3 	b	104c8 <parse.constprop.0+0x3a8>
   10db8:	e59d700c 	ldr	r7, [sp, #12]
   10dbc:	e3a05000 	mov	r5, #0
   10dc0:	e5942010 	ldr	r2, [r4, #16]
   10dc4:	e157000a 	cmp	r7, sl
   10dc8:	da000007 	ble	10dec <parse.constprop.0+0xccc>
   10dcc:	e28a3018 	add	r3, sl, #24
   10dd0:	e2871018 	add	r1, r7, #24
   10dd4:	e08b3003 	add	r3, fp, r3
   10dd8:	e3a00000 	mov	r0, #0
   10ddc:	e08b1001 	add	r1, fp, r1
   10de0:	e4c30001 	strb	r0, [r3], #1
   10de4:	e1510003 	cmp	r1, r3
   10de8:	1afffffc 	bne	10de0 <parse.constprop.0+0xcc0>
   10dec:	e3520000 	cmp	r2, #0
   10df0:	1a00004f 	bne	10f34 <parse.constprop.0+0xe14>
   10df4:	e5941018 	ldr	r1, [r4, #24]
   10df8:	e594301c 	ldr	r3, [r4, #28]
   10dfc:	e1510003 	cmp	r1, r3
   10e00:	2a00004b 	bcs	10f34 <parse.constprop.0+0xe14>
   10e04:	e5942008 	ldr	r2, [r4, #8]
   10e08:	e5940020 	ldr	r0, [r4, #32]
   10e0c:	e2822001 	add	r2, r2, #1
   10e10:	e5842008 	str	r2, [r4, #8]
   10e14:	e2812001 	add	r2, r1, #1
   10e18:	e5842018 	str	r2, [r4, #24]
   10e1c:	e7d01001 	ldrb	r1, [r0, r1]
   10e20:	e1a08c01 	lsl	r8, r1, #24
   10e24:	e1530002 	cmp	r3, r2
   10e28:	9a000048 	bls	10f50 <parse.constprop.0+0xe30>
   10e2c:	e5941008 	ldr	r1, [r4, #8]
   10e30:	e5940020 	ldr	r0, [r4, #32]
   10e34:	e2811001 	add	r1, r1, #1
   10e38:	e5841008 	str	r1, [r4, #8]
   10e3c:	e2821001 	add	r1, r2, #1
   10e40:	e5841018 	str	r1, [r4, #24]
   10e44:	e7d07002 	ldrb	r7, [r0, r2]
   10e48:	e1887807 	orr	r7, r8, r7, lsl #16
   10e4c:	e1530001 	cmp	r3, r1
   10e50:	9a00002a 	bls	10f00 <parse.constprop.0+0xde0>
   10e54:	e5942008 	ldr	r2, [r4, #8]
   10e58:	e5940020 	ldr	r0, [r4, #32]
   10e5c:	e2822001 	add	r2, r2, #1
   10e60:	e5842008 	str	r2, [r4, #8]
   10e64:	e2812001 	add	r2, r1, #1
   10e68:	e5842018 	str	r2, [r4, #24]
   10e6c:	e7d01001 	ldrb	r1, [r0, r1]
   10e70:	e1877401 	orr	r7, r7, r1, lsl #8
   10e74:	e1520003 	cmp	r2, r3
   10e78:	2a000029 	bcs	10f24 <parse.constprop.0+0xe04>
   10e7c:	e5943008 	ldr	r3, [r4, #8]
   10e80:	e5941020 	ldr	r1, [r4, #32]
   10e84:	e2833001 	add	r3, r3, #1
   10e88:	e5843008 	str	r3, [r4, #8]
   10e8c:	e2823001 	add	r3, r2, #1
   10e90:	e5843018 	str	r3, [r4, #24]
   10e94:	e7d13002 	ldrb	r3, [r1, r2]
   10e98:	e1833007 	orr	r3, r3, r7
   10e9c:	e3550000 	cmp	r5, #0
   10ea0:	e58b3010 	str	r3, [fp, #16]
   10ea4:	12455004 	subne	r5, r5, #4
   10ea8:	e58b5000 	str	r5, [fp]
   10eac:	e1a01006 	mov	r1, r6
   10eb0:	e58b4004 	str	r4, [fp, #4]
   10eb4:	e3a00000 	mov	r0, #0
   10eb8:	ebffedc0 	bl	c5c0 <free_packet>
   10ebc:	eafffec8 	b	109e4 <parse.constprop.0+0x8c4>
   10ec0:	e58d3010 	str	r3, [sp, #16]
   10ec4:	e1a00004 	mov	r0, r4
   10ec8:	ebffe148 	bl	93f0 <iobuf_readbyte>
   10ecc:	e5942010 	ldr	r2, [r4, #16]
   10ed0:	e3550000 	cmp	r5, #0
   10ed4:	e59d3010 	ldr	r3, [sp, #16]
   10ed8:	12455001 	subne	r5, r5, #1
   10edc:	e3520000 	cmp	r2, #0
   10ee0:	e6ef8070 	uxtb	r8, r0
   10ee4:	0a000109 	beq	11310 <parse.constprop.0+0x11f0>
   10ee8:	e58d3010 	str	r3, [sp, #16]
   10eec:	e1a00004 	mov	r0, r4
   10ef0:	ebffe13e 	bl	93f0 <iobuf_readbyte>
   10ef4:	e59d3010 	ldr	r3, [sp, #16]
   10ef8:	e6ef7070 	uxtb	r7, r0
   10efc:	eaffff04 	b	10b14 <parse.constprop.0+0x9f4>
   10f00:	e1a00004 	mov	r0, r4
   10f04:	ebffe139 	bl	93f0 <iobuf_readbyte>
   10f08:	e5942010 	ldr	r2, [r4, #16]
   10f0c:	e1a03400 	lsl	r3, r0, #8
   10f10:	e3520000 	cmp	r2, #0
   10f14:	e6ff3073 	uxth	r3, r3
   10f18:	e1837007 	orr	r7, r3, r7
   10f1c:	01c421d8 	ldrdeq	r2, [r4, #24]
   10f20:	0affffd3 	beq	10e74 <parse.constprop.0+0xd54>
   10f24:	e1a00004 	mov	r0, r4
   10f28:	ebffe130 	bl	93f0 <iobuf_readbyte>
   10f2c:	e6ef3070 	uxtb	r3, r0
   10f30:	eaffffd8 	b	10e98 <parse.constprop.0+0xd78>
   10f34:	e1a00004 	mov	r0, r4
   10f38:	ebffe12c 	bl	93f0 <iobuf_readbyte>
   10f3c:	e5943010 	ldr	r3, [r4, #16]
   10f40:	e1a08c00 	lsl	r8, r0, #24
   10f44:	e3530000 	cmp	r3, #0
   10f48:	01c421d8 	ldrdeq	r2, [r4, #24]
   10f4c:	0affffb4 	beq	10e24 <parse.constprop.0+0xd04>
   10f50:	e1a00004 	mov	r0, r4
   10f54:	ebffe125 	bl	93f0 <iobuf_readbyte>
   10f58:	e5943010 	ldr	r3, [r4, #16]
   10f5c:	e1a07800 	lsl	r7, r0, #16
   10f60:	e3530000 	cmp	r3, #0
   10f64:	e20778ff 	and	r7, r7, #16711680	; 0xff0000
   10f68:	e1877008 	orr	r7, r7, r8
   10f6c:	1affffe3 	bne	10f00 <parse.constprop.0+0xde0>
   10f70:	e5941018 	ldr	r1, [r4, #24]
   10f74:	e594301c 	ldr	r3, [r4, #28]
   10f78:	eaffffb3 	b	10e4c <parse.constprop.0+0xd2c>
   10f7c:	e1a00004 	mov	r0, r4
   10f80:	ebffe11a 	bl	93f0 <iobuf_readbyte>
   10f84:	e6efb070 	uxtb	fp, r0
   10f88:	eafffe55 	b	108e4 <parse.constprop.0+0x7c4>
   10f8c:	e287001b 	add	r0, r7, #27
   10f90:	ebfffb79 	bl	fd7c <xmalloc>
   10f94:	e59d300c 	ldr	r3, [sp, #12]
   10f98:	e1a0b000 	mov	fp, r0
   10f9c:	e5830004 	str	r0, [r3, #4]
   10fa0:	e59d3010 	ldr	r3, [sp, #16]
   10fa4:	e580800c 	str	r8, [r0, #12]
   10fa8:	e5c03008 	strb	r3, [r0, #8]
   10fac:	e5c0a009 	strb	sl, [r0, #9]
   10fb0:	e5807014 	str	r7, [r0, #20]
   10fb4:	e5942010 	ldr	r2, [r4, #16]
   10fb8:	e3570000 	cmp	r7, #0
   10fbc:	0a0000d8 	beq	11324 <parse.constprop.0+0x1204>
   10fc0:	e58d700c 	str	r7, [sp, #12]
   10fc4:	e2873017 	add	r3, r7, #23
   10fc8:	e083300b 	add	r3, r3, fp
   10fcc:	e30f5fe9 	movw	r5, #65513	; 0xffe9
   10fd0:	e34f5fff 	movt	r5, #65535	; 0xffff
   10fd4:	e28b8017 	add	r8, fp, #23
   10fd8:	e045500b 	sub	r5, r5, fp
   10fdc:	e1a07008 	mov	r7, r8
   10fe0:	e1a08003 	mov	r8, r3
   10fe4:	ea000009 	b	11010 <parse.constprop.0+0xef0>
   10fe8:	e5940008 	ldr	r0, [r4, #8]
   10fec:	e594c020 	ldr	ip, [r4, #32]
   10ff0:	e2800001 	add	r0, r0, #1
   10ff4:	e5840008 	str	r0, [r4, #8]
   10ff8:	e2810001 	add	r0, r1, #1
   10ffc:	e5840018 	str	r0, [r4, #24]
   11000:	e7dc0001 	ldrb	r0, [ip, r1]
   11004:	e5e70001 	strb	r0, [r7, #1]!
   11008:	e1580007 	cmp	r8, r7
   1100c:	0a0000c4 	beq	11324 <parse.constprop.0+0x1204>
   11010:	e085a007 	add	sl, r5, r7
   11014:	e3520000 	cmp	r2, #0
   11018:	e1a00004 	mov	r0, r4
   1101c:	1a000003 	bne	11030 <parse.constprop.0+0xf10>
   11020:	e5941018 	ldr	r1, [r4, #24]
   11024:	e594c01c 	ldr	ip, [r4, #28]
   11028:	e151000c 	cmp	r1, ip
   1102c:	3affffed 	bcc	10fe8 <parse.constprop.0+0xec8>
   11030:	ebffe0ee 	bl	93f0 <iobuf_readbyte>
   11034:	e3700001 	cmn	r0, #1
   11038:	e6ef0070 	uxtb	r0, r0
   1103c:	0affff5d 	beq	10db8 <parse.constprop.0+0xc98>
   11040:	e5942010 	ldr	r2, [r4, #16]
   11044:	eaffffee 	b	11004 <parse.constprop.0+0xee4>
   11048:	e1a00004 	mov	r0, r4
   1104c:	ebffe0e7 	bl	93f0 <iobuf_readbyte>
   11050:	e2503050 	subs	r3, r0, #80	; 0x50
   11054:	13a03001 	movne	r3, #1
   11058:	eafffef4 	b	10c30 <parse.constprop.0+0xb10>
   1105c:	e59f016c 	ldr	r0, [pc, #364]	; 111d0 <parse.constprop.0+0x10b0>
   11060:	e28d7034 	add	r7, sp, #52	; 0x34
   11064:	e08f0000 	add	r0, pc, r0
   11068:	eb00043d 	bl	12164 <tfp_printf>
   1106c:	ea000002 	b	1107c <parse.constprop.0+0xf5c>
   11070:	ebffe233 	bl	9944 <iobuf_write>
   11074:	e3500000 	cmp	r0, #0
   11078:	1afffd10 	bne	104c0 <parse.constprop.0+0x3a0>
   1107c:	e3a02064 	mov	r2, #100	; 0x64
   11080:	e1a01007 	mov	r1, r7
   11084:	e1a00004 	mov	r0, r4
   11088:	ebffe191 	bl	96d4 <iobuf_read>
   1108c:	e1a02000 	mov	r2, r0
   11090:	e1a01007 	mov	r1, r7
   11094:	e59d00c4 	ldr	r0, [sp, #196]	; 0xc4
   11098:	e3720001 	cmn	r2, #1
   1109c:	1afffff3 	bne	11070 <parse.constprop.0+0xf50>
   110a0:	eafffdbb 	b	10794 <parse.constprop.0+0x674>
   110a4:	e1a00004 	mov	r0, r4
   110a8:	ebffe0d0 	bl	93f0 <iobuf_readbyte>
   110ac:	e35b0005 	cmp	fp, #5
   110b0:	e6ef3070 	uxtb	r3, r0
   110b4:	e58d3010 	str	r3, [sp, #16]
   110b8:	0a000177 	beq	1169c <parse.constprop.0+0x157c>
   110bc:	e5943010 	ldr	r3, [r4, #16]
   110c0:	e2458002 	sub	r8, r5, #2
   110c4:	e3a0a000 	mov	sl, #0
   110c8:	e3530000 	cmp	r3, #0
   110cc:	0594201c 	ldreq	r2, [r4, #28]
   110d0:	0afffe1c 	beq	10948 <parse.constprop.0+0x828>
   110d4:	e1a00004 	mov	r0, r4
   110d8:	ebffe0c4 	bl	93f0 <iobuf_readbyte>
   110dc:	e5943010 	ldr	r3, [r4, #16]
   110e0:	e6ef7070 	uxtb	r7, r0
   110e4:	e3530000 	cmp	r3, #0
   110e8:	01c421d8 	ldrdeq	r2, [r4, #24]
   110ec:	0afffe20 	beq	10974 <parse.constprop.0+0x854>
   110f0:	e1a00004 	mov	r0, r4
   110f4:	ebffe0bd 	bl	93f0 <iobuf_readbyte>
   110f8:	e6ef3070 	uxtb	r3, r0
   110fc:	e58d3018 	str	r3, [sp, #24]
   11100:	eafffe25 	b	1099c <parse.constprop.0+0x87c>
   11104:	e1a00004 	mov	r0, r4
   11108:	ebffe0b8 	bl	93f0 <iobuf_readbyte>
   1110c:	e3500047 	cmp	r0, #71	; 0x47
   11110:	1afffeee 	bne	10cd0 <parse.constprop.0+0xbb0>
   11114:	e5943010 	ldr	r3, [r4, #16]
   11118:	e3530000 	cmp	r3, #0
   1111c:	0afffed5 	beq	10c78 <parse.constprop.0+0xb58>
   11120:	e1a00004 	mov	r0, r4
   11124:	ebffe0b1 	bl	93f0 <iobuf_readbyte>
   11128:	e2503050 	subs	r3, r0, #80	; 0x50
   1112c:	13a03001 	movne	r3, #1
   11130:	eafffedd 	b	10cac <parse.constprop.0+0xb8c>
   11134:	00007df4 	.word	0x00007df4
   11138:	00007d18 	.word	0x00007d18
   1113c:	00007e08 	.word	0x00007e08
   11140:	00007cc8 	.word	0x00007cc8
   11144:	00007cd4 	.word	0x00007cd4
   11148:	0002b804 	.word	0x0002b804
   1114c:	00007d3c 	.word	0x00007d3c
   11150:	00007b58 	.word	0x00007b58
   11154:	00007c5c 	.word	0x00007c5c
   11158:	00007b10 	.word	0x00007b10
   1115c:	00007e70 	.word	0x00007e70
   11160:	00007b28 	.word	0x00007b28
   11164:	00007b2c 	.word	0x00007b2c
   11168:	00007970 	.word	0x00007970
   1116c:	0000799c 	.word	0x0000799c
   11170:	00007c64 	.word	0x00007c64
   11174:	00007c68 	.word	0x00007c68
   11178:	00007c70 	.word	0x00007c70
   1117c:	00007c80 	.word	0x00007c80
   11180:	00007c7c 	.word	0x00007c7c
   11184:	00007c84 	.word	0x00007c84
   11188:	00007c84 	.word	0x00007c84
   1118c:	00007c54 	.word	0x00007c54
   11190:	00007c50 	.word	0x00007c50
   11194:	00007c64 	.word	0x00007c64
   11198:	00007c74 	.word	0x00007c74
   1119c:	0000797c 	.word	0x0000797c
   111a0:	00007734 	.word	0x00007734
   111a4:	00007780 	.word	0x00007780
   111a8:	00007714 	.word	0x00007714
   111ac:	0000779c 	.word	0x0000779c
   111b0:	000076d4 	.word	0x000076d4
   111b4:	0000778c 	.word	0x0000778c
   111b8:	00007794 	.word	0x00007794
   111bc:	00007710 	.word	0x00007710
   111c0:	0000772c 	.word	0x0000772c
   111c4:	000073f8 	.word	0x000073f8
   111c8:	0000722c 	.word	0x0000722c
   111cc:	00007298 	.word	0x00007298
   111d0:	00007058 	.word	0x00007058
   111d4:	000070ac 	.word	0x000070ac
   111d8:	00006e68 	.word	0x00006e68
   111dc:	00006f94 	.word	0x00006f94
   111e0:	00006e0c 	.word	0x00006e0c
   111e4:	00006f10 	.word	0x00006f10
   111e8:	00006d84 	.word	0x00006d84
   111ec:	00006c20 	.word	0x00006c20
   111f0:	00006c48 	.word	0x00006c48
   111f4:	00006c88 	.word	0x00006c88
   111f8:	00006b60 	.word	0x00006b60
   111fc:	00006b84 	.word	0x00006b84
   11200:	00006cf0 	.word	0x00006cf0
   11204:	000069f0 	.word	0x000069f0
   11208:	00006b50 	.word	0x00006b50
   1120c:	000069c0 	.word	0x000069c0
   11210:	000069c4 	.word	0x000069c4
   11214:	00006a04 	.word	0x00006a04
   11218:	000069bc 	.word	0x000069bc
   1121c:	00006a98 	.word	0x00006a98
   11220:	e5943010 	ldr	r3, [r4, #16]
   11224:	e3530000 	cmp	r3, #0
   11228:	1a00003f 	bne	1132c <parse.constprop.0+0x120c>
   1122c:	e5943018 	ldr	r3, [r4, #24]
   11230:	e594201c 	ldr	r2, [r4, #28]
   11234:	e1530002 	cmp	r3, r2
   11238:	2a00003b 	bcs	1132c <parse.constprop.0+0x120c>
   1123c:	e5942008 	ldr	r2, [r4, #8]
   11240:	e5941020 	ldr	r1, [r4, #32]
   11244:	e2822001 	add	r2, r2, #1
   11248:	e5842008 	str	r2, [r4, #8]
   1124c:	e2832001 	add	r2, r3, #1
   11250:	e5842018 	str	r2, [r4, #24]
   11254:	e7d11003 	ldrb	r1, [r1, r3]
   11258:	e3550000 	cmp	r5, #0
   1125c:	12453001 	subne	r3, r5, #1
   11260:	01a03005 	moveq	r3, r5
   11264:	e3510001 	cmp	r1, #1
   11268:	03a02002 	moveq	r2, #2
   1126c:	05c7200a 	strbeq	r2, [r7, #10]
   11270:	0afffd19 	beq	106dc <parse.constprop.0+0x5bc>
   11274:	e51f00a8 	ldr	r0, [pc, #-168]	; 111d4 <parse.constprop.0+0x10b4>
   11278:	e08f0000 	add	r0, pc, r0
   1127c:	eb0003b8 	bl	12164 <tfp_printf>
   11280:	e1a01006 	mov	r1, r6
   11284:	e3a00000 	mov	r0, #0
   11288:	ebffeccc 	bl	c5c0 <free_packet>
   1128c:	e51f00bc 	ldr	r0, [pc, #-188]	; 111d8 <parse.constprop.0+0x10b8>
   11290:	e1a01009 	mov	r1, r9
   11294:	e08f0000 	add	r0, pc, r0
   11298:	eafffe9a 	b	10d08 <parse.constprop.0+0xbe8>
   1129c:	e1a00004 	mov	r0, r4
   112a0:	e2458003 	sub	r8, r5, #3
   112a4:	ebffe051 	bl	93f0 <iobuf_readbyte>
   112a8:	e3550004 	cmp	r5, #4
   112ac:	16efa070 	uxtbne	sl, r0
   112b0:	15943010 	ldrne	r3, [r4, #16]
   112b4:	1affff83 	bne	110c8 <parse.constprop.0+0xfa8>
   112b8:	e3a05001 	mov	r5, #1
   112bc:	e51f00e8 	ldr	r0, [pc, #-232]	; 111dc <parse.constprop.0+0x10bc>
   112c0:	e3a01003 	mov	r1, #3
   112c4:	e08f0000 	add	r0, pc, r0
   112c8:	eb0003a5 	bl	12164 <tfp_printf>
   112cc:	e3a02000 	mov	r2, #0
   112d0:	e1a00004 	mov	r0, r4
   112d4:	e1a01005 	mov	r1, r5
   112d8:	ebffe5dd 	bl	aa54 <iobuf_skip_rest>
   112dc:	e1a01006 	mov	r1, r6
   112e0:	e3a00000 	mov	r0, #0
   112e4:	ebffecb5 	bl	c5c0 <free_packet>
   112e8:	e51f0110 	ldr	r0, [pc, #-272]	; 111e0 <parse.constprop.0+0x10c0>
   112ec:	e1a01009 	mov	r1, r9
   112f0:	e08f0000 	add	r0, pc, r0
   112f4:	eb00039a 	bl	12164 <tfp_printf>
   112f8:	e1a01009 	mov	r1, r9
   112fc:	e28d002c 	add	r0, sp, #44	; 0x2c
   11300:	ebffe6fc 	bl	aef8 <log_hexdump>
   11304:	e3a0000e 	mov	r0, #14
   11308:	e3400200 	movt	r0, #512	; 0x200
   1130c:	eafffc6d 	b	104c8 <parse.constprop.0+0x3a8>
   11310:	e594201c 	ldr	r2, [r4, #28]
   11314:	eafffdf4 	b	10aec <parse.constprop.0+0x9cc>
   11318:	e1a00005 	mov	r0, r5
   1131c:	eb000390 	bl	12164 <tfp_printf>
   11320:	eafffcfc 	b	10718 <parse.constprop.0+0x5f8>
   11324:	e3a05000 	mov	r5, #0
   11328:	eafffeaf 	b	10dec <parse.constprop.0+0xccc>
   1132c:	e1a00004 	mov	r0, r4
   11330:	ebffe02e 	bl	93f0 <iobuf_readbyte>
   11334:	e6ef1070 	uxtb	r1, r0
   11338:	eaffffc6 	b	11258 <parse.constprop.0+0x1138>
   1133c:	e51f0160 	ldr	r0, [pc, #-352]	; 111e4 <parse.constprop.0+0x10c4>
   11340:	e1a01008 	mov	r1, r8
   11344:	e58d300c 	str	r3, [sp, #12]
   11348:	e08f0000 	add	r0, pc, r0
   1134c:	eb000384 	bl	12164 <tfp_printf>
   11350:	e59d300c 	ldr	r3, [sp, #12]
   11354:	e1a0200a 	mov	r2, sl
   11358:	e1a00004 	mov	r0, r4
   1135c:	e1a01003 	mov	r1, r3
   11360:	ebffe5bb 	bl	aa54 <iobuf_skip_rest>
   11364:	e1a01006 	mov	r1, r6
   11368:	e3a00000 	mov	r0, #0
   1136c:	ebffec93 	bl	c5c0 <free_packet>
   11370:	e51f0190 	ldr	r0, [pc, #-400]	; 111e8 <parse.constprop.0+0x10c8>
   11374:	e1a01009 	mov	r1, r9
   11378:	e08f0000 	add	r0, pc, r0
   1137c:	eafffe61 	b	10d08 <parse.constprop.0+0xbe8>
   11380:	e3a03009 	mov	r3, #9
   11384:	e1550003 	cmp	r5, r3
   11388:	3a0000f4 	bcc	11760 <parse.constprop.0+0x1640>
   1138c:	e0453003 	sub	r3, r5, r3
   11390:	e2472003 	sub	r2, r7, #3
   11394:	e16f2f12 	clz	r2, r2
   11398:	e283001b 	add	r0, r3, #27
   1139c:	e58d3020 	str	r3, [sp, #32]
   113a0:	e1a022a2 	lsr	r2, r2, #5
   113a4:	e58d2014 	str	r2, [sp, #20]
   113a8:	ebfffa86 	bl	fdc8 <xmalloc_clear>
   113ac:	e59d100c 	ldr	r1, [sp, #12]
   113b0:	e3c73002 	bic	r3, r7, #2
   113b4:	e5810004 	str	r0, [r1, #4]
   113b8:	e3530001 	cmp	r3, #1
   113bc:	e59d1010 	ldr	r1, [sp, #16]
   113c0:	e59d2020 	ldr	r2, [sp, #32]
   113c4:	e5c01001 	strb	r1, [r0, #1]
   113c8:	e59d1018 	ldr	r1, [sp, #24]
   113cc:	e58d001c 	str	r0, [sp, #28]
   113d0:	e5c0b000 	strb	fp, [r0]
   113d4:	e5c0a002 	strb	sl, [r0, #2]
   113d8:	e5807004 	str	r7, [r0, #4]
   113dc:	e5c01008 	strb	r1, [r0, #8]
   113e0:	e58d200c 	str	r2, [sp, #12]
   113e4:	1a000032 	bne	114b4 <parse.constprop.0+0x1394>
   113e8:	e58d6024 	str	r6, [sp, #36]	; 0x24
   113ec:	e2802008 	add	r2, r0, #8
   113f0:	e1a06005 	mov	r6, r5
   113f4:	e1a05002 	mov	r5, r2
   113f8:	ea000013 	b	1144c <parse.constprop.0+0x132c>
   113fc:	e5841018 	str	r1, [r4, #24]
   11400:	e5941008 	ldr	r1, [r4, #8]
   11404:	e5940020 	ldr	r0, [r4, #32]
   11408:	e2811001 	add	r1, r1, #1
   1140c:	e5841008 	str	r1, [r4, #8]
   11410:	e7d03003 	ldrb	r3, [r0, r3]
   11414:	e5e53001 	strb	r3, [r5, #1]!
   11418:	e30f3ffe 	movw	r3, #65534	; 0xfffe
   1141c:	e34f3fff 	movt	r3, #65535	; 0xffff
   11420:	e2461001 	sub	r1, r6, #1
   11424:	e0433001 	sub	r3, r3, r1
   11428:	e0833008 	add	r3, r3, r8
   1142c:	e3530007 	cmp	r3, #7
   11430:	c3a03000 	movgt	r3, #0
   11434:	d3a03001 	movle	r3, #1
   11438:	e3510000 	cmp	r1, #0
   1143c:	03a03000 	moveq	r3, #0
   11440:	e3530000 	cmp	r3, #0
   11444:	0a000064 	beq	115dc <parse.constprop.0+0x14bc>
   11448:	e1a06001 	mov	r6, r1
   1144c:	e5943010 	ldr	r3, [r4, #16]
   11450:	e1a00004 	mov	r0, r4
   11454:	e3530000 	cmp	r3, #0
   11458:	1a000004 	bne	11470 <parse.constprop.0+0x1350>
   1145c:	e5943018 	ldr	r3, [r4, #24]
   11460:	e594101c 	ldr	r1, [r4, #28]
   11464:	e1530001 	cmp	r3, r1
   11468:	e2831001 	add	r1, r3, #1
   1146c:	3affffe2 	bcc	113fc <parse.constprop.0+0x12dc>
   11470:	ebffdfde 	bl	93f0 <iobuf_readbyte>
   11474:	e6ef3070 	uxtb	r3, r0
   11478:	eaffffe5 	b	11414 <parse.constprop.0+0x12f4>
   1147c:	e2880019 	add	r0, r8, #25
   11480:	ebfffa50 	bl	fdc8 <xmalloc_clear>
   11484:	e59d300c 	ldr	r3, [sp, #12]
   11488:	e58d001c 	str	r0, [sp, #28]
   1148c:	e5830004 	str	r0, [r3, #4]
   11490:	e59d3010 	ldr	r3, [sp, #16]
   11494:	e5c0b000 	strb	fp, [r0]
   11498:	e5c03001 	strb	r3, [r0, #1]
   1149c:	e59d3018 	ldr	r3, [sp, #24]
   114a0:	e5c0a002 	strb	sl, [r0, #2]
   114a4:	e5807004 	str	r7, [r0, #4]
   114a8:	e5c03008 	strb	r3, [r0, #8]
   114ac:	e58d500c 	str	r5, [sp, #12]
   114b0:	e58d5020 	str	r5, [sp, #32]
   114b4:	e5dd3020 	ldrb	r3, [sp, #32]
   114b8:	e59d201c 	ldr	r2, [sp, #28]
   114bc:	e3530000 	cmp	r3, #0
   114c0:	e5c23018 	strb	r3, [r2, #24]
   114c4:	0a00002a 	beq	11574 <parse.constprop.0+0x1454>
   114c8:	e59d300c 	ldr	r3, [sp, #12]
   114cc:	e3550000 	cmp	r5, #0
   114d0:	13530000 	cmpne	r3, #0
   114d4:	da00001e 	ble	11554 <parse.constprop.0+0x1434>
   114d8:	e58d7020 	str	r7, [sp, #32]
   114dc:	e2822018 	add	r2, r2, #24
   114e0:	e58d6024 	str	r6, [sp, #36]	; 0x24
   114e4:	e1a08005 	mov	r8, r5
   114e8:	e1a07002 	mov	r7, r2
   114ec:	e1a06003 	mov	r6, r3
   114f0:	ea00000b 	b	11524 <parse.constprop.0+0x1404>
   114f4:	e5940008 	ldr	r0, [r4, #8]
   114f8:	e584c018 	str	ip, [r4, #24]
   114fc:	e594c020 	ldr	ip, [r4, #32]
   11500:	e2800001 	add	r0, r0, #1
   11504:	e5840008 	str	r0, [r4, #8]
   11508:	e7dc1001 	ldrb	r1, [ip, r1]
   1150c:	e5e71001 	strb	r1, [r7, #1]!
   11510:	e2488001 	sub	r8, r8, #1
   11514:	e0451008 	sub	r1, r5, r8
   11518:	e3580000 	cmp	r8, #0
   1151c:	11510006 	cmpne	r1, r6
   11520:	aa000047 	bge	11644 <parse.constprop.0+0x1524>
   11524:	e5941010 	ldr	r1, [r4, #16]
   11528:	e1a00004 	mov	r0, r4
   1152c:	e3510000 	cmp	r1, #0
   11530:	1a000004 	bne	11548 <parse.constprop.0+0x1428>
   11534:	e5941018 	ldr	r1, [r4, #24]
   11538:	e594c01c 	ldr	ip, [r4, #28]
   1153c:	e151000c 	cmp	r1, ip
   11540:	e281c001 	add	ip, r1, #1
   11544:	3affffea 	bcc	114f4 <parse.constprop.0+0x13d4>
   11548:	ebffdfa8 	bl	93f0 <iobuf_readbyte>
   1154c:	e6ef1070 	uxtb	r1, r0
   11550:	eaffffed 	b	1150c <parse.constprop.0+0x13ec>
   11554:	e3c73002 	bic	r3, r7, #2
   11558:	e3530001 	cmp	r3, #1
   1155c:	0a000004 	beq	11574 <parse.constprop.0+0x1454>
   11560:	e1a08005 	mov	r8, r5
   11564:	e51f0380 	ldr	r0, [pc, #-896]	; 111ec <parse.constprop.0+0x10cc>
   11568:	e1a05008 	mov	r5, r8
   1156c:	e08f0000 	add	r0, pc, r0
   11570:	eb0002fb 	bl	12164 <tfp_printf>
   11574:	e59d3018 	ldr	r3, [sp, #24]
   11578:	e1a0100b 	mov	r1, fp
   1157c:	e51f0394 	ldr	r0, [pc, #-916]	; 111f0 <parse.constprop.0+0x10d0>
   11580:	e58d3004 	str	r3, [sp, #4]
   11584:	e1a0300a 	mov	r3, sl
   11588:	e08f0000 	add	r0, pc, r0
   1158c:	e59d2010 	ldr	r2, [sp, #16]
   11590:	e58d7000 	str	r7, [sp]
   11594:	eb0002f2 	bl	12164 <tfp_printf>
   11598:	e59d300c 	ldr	r3, [sp, #12]
   1159c:	e3530000 	cmp	r3, #0
   115a0:	1a000036 	bne	11680 <parse.constprop.0+0x1560>
   115a4:	e59d3014 	ldr	r3, [sp, #20]
   115a8:	e3530000 	cmp	r3, #0
   115ac:	0afffd05 	beq	109c8 <parse.constprop.0+0x8a8>
   115b0:	e59d301c 	ldr	r3, [sp, #28]
   115b4:	e51f03c8 	ldr	r0, [pc, #-968]	; 111f4 <parse.constprop.0+0x10d4>
   115b8:	e5932014 	ldr	r2, [r3, #20]
   115bc:	e08f0000 	add	r0, pc, r0
   115c0:	e1a03222 	lsr	r3, r2, #4
   115c4:	e202100f 	and	r1, r2, #15
   115c8:	e2833006 	add	r3, r3, #6
   115cc:	e2811010 	add	r1, r1, #16
   115d0:	e1a01311 	lsl	r1, r1, r3
   115d4:	eb0002e2 	bl	12164 <tfp_printf>
   115d8:	eafffcfa 	b	109c8 <parse.constprop.0+0x8a8>
   115dc:	e58d3014 	str	r3, [sp, #20]
   115e0:	e3570003 	cmp	r7, #3
   115e4:	e1a05006 	mov	r5, r6
   115e8:	11a05001 	movne	r5, r1
   115ec:	e59d6024 	ldr	r6, [sp, #36]	; 0x24
   115f0:	1affffaf 	bne	114b4 <parse.constprop.0+0x1394>
   115f4:	e5943010 	ldr	r3, [r4, #16]
   115f8:	e3530000 	cmp	r3, #0
   115fc:	1a000069 	bne	117a8 <parse.constprop.0+0x1688>
   11600:	e5943018 	ldr	r3, [r4, #24]
   11604:	e594201c 	ldr	r2, [r4, #28]
   11608:	e1530002 	cmp	r3, r2
   1160c:	2a000065 	bcs	117a8 <parse.constprop.0+0x1688>
   11610:	e5942008 	ldr	r2, [r4, #8]
   11614:	e5941020 	ldr	r1, [r4, #32]
   11618:	e2822001 	add	r2, r2, #1
   1161c:	e5842008 	str	r2, [r4, #8]
   11620:	e2832001 	add	r2, r3, #1
   11624:	e5842018 	str	r2, [r4, #24]
   11628:	e7d13003 	ldrb	r3, [r1, r3]
   1162c:	e59d201c 	ldr	r2, [sp, #28]
   11630:	e2455002 	sub	r5, r5, #2
   11634:	e5823014 	str	r3, [r2, #20]
   11638:	e3a03001 	mov	r3, #1
   1163c:	e58d3014 	str	r3, [sp, #20]
   11640:	eaffff9b 	b	114b4 <parse.constprop.0+0x1394>
   11644:	e59d7020 	ldr	r7, [sp, #32]
   11648:	e59d6024 	ldr	r6, [sp, #36]	; 0x24
   1164c:	e3c73002 	bic	r3, r7, #2
   11650:	e3530001 	cmp	r3, #1
   11654:	1affffc2 	bne	11564 <parse.constprop.0+0x1444>
   11658:	e59d3018 	ldr	r3, [sp, #24]
   1165c:	e1a0100b 	mov	r1, fp
   11660:	e51f0470 	ldr	r0, [pc, #-1136]	; 111f8 <parse.constprop.0+0x10d8>
   11664:	e1a05008 	mov	r5, r8
   11668:	e58d3004 	str	r3, [sp, #4]
   1166c:	e1a0300a 	mov	r3, sl
   11670:	e08f0000 	add	r0, pc, r0
   11674:	e59d2010 	ldr	r2, [sp, #16]
   11678:	e58d7000 	str	r7, [sp]
   1167c:	eb0002b8 	bl	12164 <tfp_printf>
   11680:	e35a0000 	cmp	sl, #0
   11684:	0a000040 	beq	1178c <parse.constprop.0+0x166c>
   11688:	e51f0494 	ldr	r0, [pc, #-1172]	; 111fc <parse.constprop.0+0x10dc>
   1168c:	e59d100c 	ldr	r1, [sp, #12]
   11690:	e08f0000 	add	r0, pc, r0
   11694:	eb0002b2 	bl	12164 <tfp_printf>
   11698:	eaffffc1 	b	115a4 <parse.constprop.0+0x1484>
   1169c:	e5943010 	ldr	r3, [r4, #16]
   116a0:	e3530000 	cmp	r3, #0
   116a4:	1afffefc 	bne	1129c <parse.constprop.0+0x117c>
   116a8:	e5940018 	ldr	r0, [r4, #24]
   116ac:	e594301c 	ldr	r3, [r4, #28]
   116b0:	e1500003 	cmp	r0, r3
   116b4:	2afffef8 	bcs	1129c <parse.constprop.0+0x117c>
   116b8:	e5942008 	ldr	r2, [r4, #8]
   116bc:	e3550004 	cmp	r5, #4
   116c0:	e594c020 	ldr	ip, [r4, #32]
   116c4:	e2801001 	add	r1, r0, #1
   116c8:	e5841018 	str	r1, [r4, #24]
   116cc:	e2822001 	add	r2, r2, #1
   116d0:	e5842008 	str	r2, [r4, #8]
   116d4:	e2458003 	sub	r8, r5, #3
   116d8:	0afffef6 	beq	112b8 <parse.constprop.0+0x1198>
   116dc:	e7dca000 	ldrb	sl, [ip, r0]
   116e0:	eafffc9a 	b	10950 <parse.constprop.0+0x830>
   116e4:	e3a03008 	mov	r3, #8
   116e8:	eaffff25 	b	11384 <parse.constprop.0+0x1264>
   116ec:	e51f04f4 	ldr	r0, [pc, #-1268]	; 11200 <parse.constprop.0+0x10e0>
   116f0:	e08f0000 	add	r0, pc, r0
   116f4:	eb00029a 	bl	12164 <tfp_printf>
   116f8:	e1a01006 	mov	r1, r6
   116fc:	e3a00000 	mov	r0, #0
   11700:	ebffebae 	bl	c5c0 <free_packet>
   11704:	e51f0508 	ldr	r0, [pc, #-1288]	; 11204 <parse.constprop.0+0x10e4>
   11708:	e1a01009 	mov	r1, r9
   1170c:	e08f0000 	add	r0, pc, r0
   11710:	eafffd7c 	b	10d08 <parse.constprop.0+0xbe8>
   11714:	e51f0514 	ldr	r0, [pc, #-1300]	; 11208 <parse.constprop.0+0x10e8>
   11718:	e1a02005 	mov	r2, r5
   1171c:	e3a0100b 	mov	r1, #11
   11720:	e08f0000 	add	r0, pc, r0
   11724:	eb00028e 	bl	12164 <tfp_printf>
   11728:	e1a01006 	mov	r1, r6
   1172c:	e3a00000 	mov	r0, #0
   11730:	ebffeba2 	bl	c5c0 <free_packet>
   11734:	e51f0530 	ldr	r0, [pc, #-1328]	; 1120c <parse.constprop.0+0x10ec>
   11738:	e1a01009 	mov	r1, r9
   1173c:	e08f0000 	add	r0, pc, r0
   11740:	eafffd70 	b	10d08 <parse.constprop.0+0xbe8>
   11744:	e51f053c 	ldr	r0, [pc, #-1340]	; 11210 <parse.constprop.0+0x10f0>
   11748:	e1a0200b 	mov	r2, fp
   1174c:	e3a01003 	mov	r1, #3
   11750:	e1a05007 	mov	r5, r7
   11754:	e08f0000 	add	r0, pc, r0
   11758:	eb000281 	bl	12164 <tfp_printf>
   1175c:	eafffeda 	b	112cc <parse.constprop.0+0x11ac>
   11760:	e51f0554 	ldr	r0, [pc, #-1364]	; 11214 <parse.constprop.0+0x10f4>
   11764:	e1a01007 	mov	r1, r7
   11768:	e08f0000 	add	r0, pc, r0
   1176c:	eb00027c 	bl	12164 <tfp_printf>
   11770:	eafffed5 	b	112cc <parse.constprop.0+0x11ac>
   11774:	e51f0564 	ldr	r0, [pc, #-1380]	; 11218 <parse.constprop.0+0x10f8>
   11778:	e3a01003 	mov	r1, #3
   1177c:	e1a05007 	mov	r5, r7
   11780:	e08f0000 	add	r0, pc, r0
   11784:	eb000276 	bl	12164 <tfp_printf>
   11788:	eafffecf 	b	112cc <parse.constprop.0+0x11ac>
   1178c:	e59d300c 	ldr	r3, [sp, #12]
   11790:	e51f057c 	ldr	r0, [pc, #-1404]	; 1121c <parse.constprop.0+0x10fc>
   11794:	e2431001 	sub	r1, r3, #1
   11798:	e08f0000 	add	r0, pc, r0
   1179c:	e1a01181 	lsl	r1, r1, #3
   117a0:	eb00026f 	bl	12164 <tfp_printf>
   117a4:	eaffff7e 	b	115a4 <parse.constprop.0+0x1484>
   117a8:	e1a00004 	mov	r0, r4
   117ac:	ebffdf0f 	bl	93f0 <iobuf_readbyte>
   117b0:	e6ef3070 	uxtb	r3, r0
   117b4:	eaffff9c 	b	1162c <parse.constprop.0+0x150c>
   117b8:	e1a0a003 	mov	sl, r3
   117bc:	eafffd80 	b	10dc4 <parse.constprop.0+0xca4>

000117c0 <dbg_parse_packet>:
   117c0:	e92d40f0 	push	{r4, r5, r6, r7, lr}
   117c4:	e1a06000 	mov	r6, r0
   117c8:	e59f0058 	ldr	r0, [pc, #88]	; 11828 <dbg_parse_packet+0x68>
   117cc:	e24dd01c 	sub	sp, sp, #28
   117d0:	e28d7014 	add	r7, sp, #20
   117d4:	e3a04000 	mov	r4, #0
   117d8:	e08f0000 	add	r0, pc, r0
   117dc:	e1a05001 	mov	r5, r1
   117e0:	eb00025f 	bl	12164 <tfp_printf>
   117e4:	e58d4008 	str	r4, [sp, #8]
   117e8:	e3a03000 	mov	r3, #0
   117ec:	e58d4004 	str	r4, [sp, #4]
   117f0:	e1a02003 	mov	r2, r3
   117f4:	e58d7000 	str	r7, [sp]
   117f8:	e1a01005 	mov	r1, r5
   117fc:	e1a00006 	mov	r0, r6
   11800:	ebfffa46 	bl	10120 <parse.constprop.0>
   11804:	e59d3014 	ldr	r3, [sp, #20]
   11808:	e2533000 	subs	r3, r3, #0
   1180c:	13a03001 	movne	r3, #1
   11810:	e3500000 	cmp	r0, #0
   11814:	13a03000 	movne	r3, #0
   11818:	e3530000 	cmp	r3, #0
   1181c:	1afffff0 	bne	117e4 <dbg_parse_packet+0x24>
   11820:	e28dd01c 	add	sp, sp, #28
   11824:	e8bd80f0 	pop	{r4, r5, r6, r7, pc}
   11828:	00006c4c 	.word	0x00006c4c

0001182c <dbg_search_packet>:
   1182c:	e92d43f0 	push	{r4, r5, r6, r7, r8, r9, lr}
   11830:	e3530000 	cmp	r3, #0
   11834:	e24dd01c 	sub	sp, sp, #28
   11838:	e1a07000 	mov	r7, r0
   1183c:	e1a06001 	mov	r6, r1
   11840:	e1a05002 	mov	r5, r2
   11844:	13a09002 	movne	r9, #2
   11848:	03a09001 	moveq	r9, #1
   1184c:	e28d8014 	add	r8, sp, #20
   11850:	e3a04000 	mov	r4, #0
   11854:	e58d4008 	str	r4, [sp, #8]
   11858:	e1a03005 	mov	r3, r5
   1185c:	e58d4004 	str	r4, [sp, #4]
   11860:	e1a02009 	mov	r2, r9
   11864:	e58d8000 	str	r8, [sp]
   11868:	e1a01006 	mov	r1, r6
   1186c:	e1a00007 	mov	r0, r7
   11870:	ebfffa2a 	bl	10120 <parse.constprop.0>
   11874:	e59dc014 	ldr	ip, [sp, #20]
   11878:	e1a0e000 	mov	lr, r0
   1187c:	e25cc000 	subs	ip, ip, #0
   11880:	13a0c001 	movne	ip, #1
   11884:	e3500000 	cmp	r0, #0
   11888:	13a0c000 	movne	ip, #0
   1188c:	e35c0000 	cmp	ip, #0
   11890:	1affffef 	bne	11854 <dbg_search_packet+0x28>
   11894:	e28dd01c 	add	sp, sp, #28
   11898:	e8bd83f0 	pop	{r4, r5, r6, r7, r8, r9, pc}

0001189c <dbg_copy_all_packets>:
   1189c:	e92d43f0 	push	{r4, r5, r6, r7, r8, r9, lr}
   118a0:	e2516000 	subs	r6, r1, #0
   118a4:	e24dd03c 	sub	sp, sp, #60	; 0x3c
   118a8:	e1a04000 	mov	r4, r0
   118ac:	0a000021 	beq	11938 <dbg_copy_all_packets+0x9c>
   118b0:	e58d4020 	str	r4, [sp, #32]
   118b4:	e28d9018 	add	r9, sp, #24
   118b8:	e28d7020 	add	r7, sp, #32
   118bc:	e28d8014 	add	r8, sp, #20
   118c0:	e3a05000 	mov	r5, #0
   118c4:	e5cd5024 	strb	r5, [sp, #36]	; 0x24
   118c8:	e58d5028 	str	r5, [sp, #40]	; 0x28
   118cc:	e58d502c 	str	r5, [sp, #44]	; 0x2c
   118d0:	e58d5030 	str	r5, [sp, #48]	; 0x30
   118d4:	e58d5034 	str	r5, [sp, #52]	; 0x34
   118d8:	e58d5008 	str	r5, [sp, #8]
   118dc:	e3a03000 	mov	r3, #0
   118e0:	e58d6004 	str	r6, [sp, #4]
   118e4:	e1a02003 	mov	r2, r3
   118e8:	e58d8000 	str	r8, [sp]
   118ec:	e1a01009 	mov	r1, r9
   118f0:	e5cd5018 	strb	r5, [sp, #24]
   118f4:	e1a00007 	mov	r0, r7
   118f8:	e58d501c 	str	r5, [sp, #28]
   118fc:	ebfffa07 	bl	10120 <parse.constprop.0>
   11900:	e2504000 	subs	r4, r0, #0
   11904:	0afffff3 	beq	118d8 <dbg_copy_all_packets+0x3c>
   11908:	e59d302c 	ldr	r3, [sp, #44]	; 0x2c
   1190c:	e3530000 	cmp	r3, #0
   11910:	1a000002 	bne	11920 <dbg_copy_all_packets+0x84>
   11914:	e1a00004 	mov	r0, r4
   11918:	e28dd03c 	add	sp, sp, #60	; 0x3c
   1191c:	e8bd83f0 	pop	{r4, r5, r6, r7, r8, r9, pc}
   11920:	e1a01007 	mov	r1, r7
   11924:	e3a00000 	mov	r0, #0
   11928:	ebffeb24 	bl	c5c0 <free_packet>
   1192c:	e1a00004 	mov	r0, r4
   11930:	e28dd03c 	add	sp, sp, #60	; 0x3c
   11934:	e8bd83f0 	pop	{r4, r5, r6, r7, r8, r9, pc}
   11938:	e59f0008 	ldr	r0, [pc, #8]	; 11948 <dbg_copy_all_packets+0xac>
   1193c:	e08f0000 	add	r0, pc, r0
   11940:	eb000207 	bl	12164 <tfp_printf>
   11944:	eaffffd9 	b	118b0 <dbg_copy_all_packets+0x14>
   11948:	00006afc 	.word	0x00006afc

0001194c <dbg_copy_some_packets>:
   1194c:	e92d47f0 	push	{r4, r5, r6, r7, r8, r9, sl, lr}
   11950:	e24dd038 	sub	sp, sp, #56	; 0x38
   11954:	e3a05000 	mov	r5, #0
   11958:	e1a08001 	mov	r8, r1
   1195c:	e5cd5024 	strb	r5, [sp, #36]	; 0x24
   11960:	e1a07002 	mov	r7, r2
   11964:	e58d0020 	str	r0, [sp, #32]
   11968:	e28da018 	add	sl, sp, #24
   1196c:	e58d5028 	str	r5, [sp, #40]	; 0x28
   11970:	e28d9020 	add	r9, sp, #32
   11974:	e58d502c 	str	r5, [sp, #44]	; 0x2c
   11978:	e1a06000 	mov	r6, r0
   1197c:	e58d5030 	str	r5, [sp, #48]	; 0x30
   11980:	e58d5034 	str	r5, [sp, #52]	; 0x34
   11984:	ea000007 	b	119a8 <dbg_copy_some_packets+0x5c>
   11988:	e58d5008 	str	r5, [sp, #8]
   1198c:	e58d8004 	str	r8, [sp, #4]
   11990:	e58dc000 	str	ip, [sp]
   11994:	e5cd5018 	strb	r5, [sp, #24]
   11998:	e58d501c 	str	r5, [sp, #28]
   1199c:	ebfff9df 	bl	10120 <parse.constprop.0>
   119a0:	e2504000 	subs	r4, r0, #0
   119a4:	1a00000e 	bne	119e4 <dbg_copy_some_packets+0x98>
   119a8:	e1a00006 	mov	r0, r6
   119ac:	ebffe2fb 	bl	a5a0 <iobuf_tell>
   119b0:	e1500007 	cmp	r0, r7
   119b4:	e3a03000 	mov	r3, #0
   119b8:	e28dc014 	add	ip, sp, #20
   119bc:	e1a02003 	mov	r2, r3
   119c0:	e1a0100a 	mov	r1, sl
   119c4:	e1a00009 	mov	r0, r9
   119c8:	baffffee 	blt	11988 <dbg_copy_some_packets+0x3c>
   119cc:	e59d402c 	ldr	r4, [sp, #44]	; 0x2c
   119d0:	e1540003 	cmp	r4, r3
   119d4:	1a00000b 	bne	11a08 <dbg_copy_some_packets+0xbc>
   119d8:	e1a00004 	mov	r0, r4
   119dc:	e28dd038 	add	sp, sp, #56	; 0x38
   119e0:	e8bd87f0 	pop	{r4, r5, r6, r7, r8, r9, sl, pc}
   119e4:	e59d302c 	ldr	r3, [sp, #44]	; 0x2c
   119e8:	e3530000 	cmp	r3, #0
   119ec:	0afffff9 	beq	119d8 <dbg_copy_some_packets+0x8c>
   119f0:	e1a01009 	mov	r1, r9
   119f4:	e3a00000 	mov	r0, #0
   119f8:	ebffeaf0 	bl	c5c0 <free_packet>
   119fc:	e1a00004 	mov	r0, r4
   11a00:	e28dd038 	add	sp, sp, #56	; 0x38
   11a04:	e8bd87f0 	pop	{r4, r5, r6, r7, r8, r9, sl, pc}
   11a08:	e1a00003 	mov	r0, r3
   11a0c:	e28d1020 	add	r1, sp, #32
   11a10:	e1a04003 	mov	r4, r3
   11a14:	ebffeae9 	bl	c5c0 <free_packet>
   11a18:	e1a00004 	mov	r0, r4
   11a1c:	e28dd038 	add	sp, sp, #56	; 0x38
   11a20:	e8bd87f0 	pop	{r4, r5, r6, r7, r8, r9, sl, pc}

00011a24 <dbg_skip_some_packets>:
   11a24:	e92d47f0 	push	{r4, r5, r6, r7, r8, r9, sl, lr}
   11a28:	e2516000 	subs	r6, r1, #0
   11a2c:	e24dd038 	sub	sp, sp, #56	; 0x38
   11a30:	e3a05000 	mov	r5, #0
   11a34:	e5cd5024 	strb	r5, [sp, #36]	; 0x24
   11a38:	e58d5028 	str	r5, [sp, #40]	; 0x28
   11a3c:	e58d0020 	str	r0, [sp, #32]
   11a40:	e58d502c 	str	r5, [sp, #44]	; 0x2c
   11a44:	e58d5030 	str	r5, [sp, #48]	; 0x30
   11a48:	e58d5034 	str	r5, [sp, #52]	; 0x34
   11a4c:	0a00001e 	beq	11acc <dbg_skip_some_packets+0xa8>
   11a50:	e28da018 	add	sl, sp, #24
   11a54:	e28d7020 	add	r7, sp, #32
   11a58:	e28d9014 	add	r9, sp, #20
   11a5c:	e3a08001 	mov	r8, #1
   11a60:	e58d8008 	str	r8, [sp, #8]
   11a64:	e3a03000 	mov	r3, #0
   11a68:	e58d5004 	str	r5, [sp, #4]
   11a6c:	e1a02003 	mov	r2, r3
   11a70:	e58d9000 	str	r9, [sp]
   11a74:	e1a0100a 	mov	r1, sl
   11a78:	e5cd5018 	strb	r5, [sp, #24]
   11a7c:	e1a00007 	mov	r0, r7
   11a80:	e58d501c 	str	r5, [sp, #28]
   11a84:	ebfff9a5 	bl	10120 <parse.constprop.0>
   11a88:	e2566001 	subs	r6, r6, #1
   11a8c:	e1a04000 	mov	r4, r0
   11a90:	13a00001 	movne	r0, #1
   11a94:	03a00000 	moveq	r0, #0
   11a98:	e3540000 	cmp	r4, #0
   11a9c:	13a00000 	movne	r0, #0
   11aa0:	02000001 	andeq	r0, r0, #1
   11aa4:	e3500000 	cmp	r0, #0
   11aa8:	1affffec 	bne	11a60 <dbg_skip_some_packets+0x3c>
   11aac:	e59d302c 	ldr	r3, [sp, #44]	; 0x2c
   11ab0:	e3530000 	cmp	r3, #0
   11ab4:	0a000001 	beq	11ac0 <dbg_skip_some_packets+0x9c>
   11ab8:	e1a01007 	mov	r1, r7
   11abc:	ebffeabf 	bl	c5c0 <free_packet>
   11ac0:	e1a00004 	mov	r0, r4
   11ac4:	e28dd038 	add	sp, sp, #56	; 0x38
   11ac8:	e8bd87f0 	pop	{r4, r5, r6, r7, r8, r9, sl, pc}
   11acc:	e1a04006 	mov	r4, r6
   11ad0:	e1a00004 	mov	r0, r4
   11ad4:	e28dd038 	add	sp, sp, #56	; 0x38
   11ad8:	e8bd87f0 	pop	{r4, r5, r6, r7, r8, r9, sl, pc}

00011adc <create_gpg_control>:
   11adc:	e92d41f0 	push	{r4, r5, r6, r7, r8, lr}
   11ae0:	e1a07000 	mov	r7, r0
   11ae4:	e3a00008 	mov	r0, #8
   11ae8:	e1a05002 	mov	r5, r2
   11aec:	e1a04001 	mov	r4, r1
   11af0:	ebfff8a1 	bl	fd7c <xmalloc>
   11af4:	e3a03000 	mov	r3, #0
   11af8:	e1a06000 	mov	r6, r0
   11afc:	e5803004 	str	r3, [r0, #4]
   11b00:	e3a0303f 	mov	r3, #63	; 0x3f
   11b04:	e5c03000 	strb	r3, [r0]
   11b08:	e285000b 	add	r0, r5, #11
   11b0c:	ebfff89a 	bl	fd7c <xmalloc>
   11b10:	e5860004 	str	r0, [r6, #4]
   11b14:	e3550000 	cmp	r5, #0
   11b18:	e5807000 	str	r7, [r0]
   11b1c:	e5805004 	str	r5, [r0, #4]
   11b20:	0a000005 	beq	11b3c <create_gpg_control+0x60>
   11b24:	e0841005 	add	r1, r4, r5
   11b28:	e2803008 	add	r3, r0, #8
   11b2c:	e4d42001 	ldrb	r2, [r4], #1
   11b30:	e1540001 	cmp	r4, r1
   11b34:	e4c32001 	strb	r2, [r3], #1
   11b38:	1afffffb 	bne	11b2c <create_gpg_control+0x50>
   11b3c:	e1a00006 	mov	r0, r6
   11b40:	e8bd81f0 	pop	{r4, r5, r6, r7, r8, pc}

00011b44 <ui2a>:
   11b44:	e1500001 	cmp	r0, r1
   11b48:	e3a0c001 	mov	ip, #1
   11b4c:	e92d4070 	push	{r4, r5, r6, lr}
   11b50:	3a000028 	bcc	11bf8 <ui2a+0xb4>
   11b54:	e00c0c91 	mul	ip, r1, ip
   11b58:	e73efc10 	udiv	lr, r0, ip
   11b5c:	e15e0001 	cmp	lr, r1
   11b60:	2afffffb 	bcs	11b54 <ui2a+0x10>
   11b64:	e35c0000 	cmp	ip, #0
   11b68:	0a000020 	beq	11bf0 <ui2a+0xac>
   11b6c:	e3a04000 	mov	r4, #0
   11b70:	e35e0000 	cmp	lr, #0
   11b74:	d3540000 	cmple	r4, #0
   11b78:	e736f11c 	udiv	r6, ip, r1
   11b7c:	13a05001 	movne	r5, #1
   11b80:	03a05000 	moveq	r5, #0
   11b84:	e0600e9c 	mls	r0, ip, lr, r0
   11b88:	1a000008 	bne	11bb0 <ui2a+0x6c>
   11b8c:	e151000c 	cmp	r1, ip
   11b90:	e1a04005 	mov	r4, r5
   11b94:	9a000012 	bls	11be4 <ui2a+0xa0>
   11b98:	e1a0c003 	mov	ip, r3
   11b9c:	e28ee030 	add	lr, lr, #48	; 0x30
   11ba0:	e4cce001 	strb	lr, [ip], #1
   11ba4:	e3a03000 	mov	r3, #0
   11ba8:	e5cc3000 	strb	r3, [ip]
   11bac:	e8bd8070 	pop	{r4, r5, r6, pc}
   11bb0:	e35e0009 	cmp	lr, #9
   11bb4:	d3a05030 	movle	r5, #48	; 0x30
   11bb8:	da000002 	ble	11bc8 <ui2a+0x84>
   11bbc:	e3520000 	cmp	r2, #0
   11bc0:	13a05037 	movne	r5, #55	; 0x37
   11bc4:	03a05057 	moveq	r5, #87	; 0x57
   11bc8:	e151000c 	cmp	r1, ip
   11bcc:	e1a0c003 	mov	ip, r3
   11bd0:	e085e00e 	add	lr, r5, lr
   11bd4:	e2844001 	add	r4, r4, #1
   11bd8:	e4cce001 	strb	lr, [ip], #1
   11bdc:	e1a0300c 	mov	r3, ip
   11be0:	8affffef 	bhi	11ba4 <ui2a+0x60>
   11be4:	e73ef610 	udiv	lr, r0, r6
   11be8:	e1a0c006 	mov	ip, r6
   11bec:	eaffffdf 	b	11b70 <ui2a+0x2c>
   11bf0:	e1a0c003 	mov	ip, r3
   11bf4:	eaffffea 	b	11ba4 <ui2a+0x60>
   11bf8:	e1a0e000 	mov	lr, r0
   11bfc:	eaffffda 	b	11b6c <ui2a+0x28>

00011c00 <putchw>:
   11c00:	e92d41f0 	push	{r4, r5, r6, r7, r8, lr}
   11c04:	e1a07001 	mov	r7, r1
   11c08:	e59d5018 	ldr	r5, [sp, #24]
   11c0c:	e3530000 	cmp	r3, #0
   11c10:	13a08030 	movne	r8, #48	; 0x30
   11c14:	03a08020 	moveq	r8, #32
   11c18:	e4d51001 	ldrb	r1, [r5], #1
   11c1c:	e1a06000 	mov	r6, r0
   11c20:	e3510000 	cmp	r1, #0
   11c24:	0a00001d 	beq	11ca0 <putchw+0xa0>
   11c28:	e3520000 	cmp	r2, #0
   11c2c:	da000015 	ble	11c88 <putchw+0x88>
   11c30:	e1a03005 	mov	r3, r5
   11c34:	ea000001 	b	11c40 <putchw+0x40>
   11c38:	e3520000 	cmp	r2, #0
   11c3c:	0a000011 	beq	11c88 <putchw+0x88>
   11c40:	e4d30001 	ldrb	r0, [r3], #1
   11c44:	e1a04002 	mov	r4, r2
   11c48:	e2422001 	sub	r2, r2, #1
   11c4c:	e3500000 	cmp	r0, #0
   11c50:	1afffff8 	bne	11c38 <putchw+0x38>
   11c54:	e3520000 	cmp	r2, #0
   11c58:	e2444002 	sub	r4, r4, #2
   11c5c:	0a000009 	beq	11c88 <putchw+0x88>
   11c60:	e1a01008 	mov	r1, r8
   11c64:	e1a00006 	mov	r0, r6
   11c68:	e12fff37 	blx	r7
   11c6c:	e3540000 	cmp	r4, #0
   11c70:	e2444001 	sub	r4, r4, #1
   11c74:	cafffff9 	bgt	11c60 <putchw+0x60>
   11c78:	e59d3018 	ldr	r3, [sp, #24]
   11c7c:	e5d31000 	ldrb	r1, [r3]
   11c80:	e3510000 	cmp	r1, #0
   11c84:	08bd81f0 	popeq	{r4, r5, r6, r7, r8, pc}
   11c88:	e1a00006 	mov	r0, r6
   11c8c:	e12fff37 	blx	r7
   11c90:	e4d51001 	ldrb	r1, [r5], #1
   11c94:	e3510000 	cmp	r1, #0
   11c98:	1afffffa 	bne	11c88 <putchw+0x88>
   11c9c:	e8bd81f0 	pop	{r4, r5, r6, r7, r8, pc}
   11ca0:	e3520000 	cmp	r2, #0
   11ca4:	e2424001 	sub	r4, r2, #1
   11ca8:	caffffec 	bgt	11c60 <putchw+0x60>
   11cac:	e8bd81f0 	pop	{r4, r5, r6, r7, r8, pc}

00011cb0 <putcp>:
   11cb0:	e5903000 	ldr	r3, [r0]
   11cb4:	e2832001 	add	r2, r3, #1
   11cb8:	e5802000 	str	r2, [r0]
   11cbc:	e5c31000 	strb	r1, [r3]
   11cc0:	e12fff1e 	bx	lr

00011cc4 <tfp_format>:
   11cc4:	e92d4ff0 	push	{r4, r5, r6, r7, r8, r9, sl, fp, lr}
   11cc8:	e1a04002 	mov	r4, r2
   11ccc:	e1a07001 	mov	r7, r1
   11cd0:	e24dd024 	sub	sp, sp, #36	; 0x24
   11cd4:	e4d21001 	ldrb	r1, [r2], #1
   11cd8:	e3510000 	cmp	r1, #0
   11cdc:	0a000052 	beq	11e2c <tfp_format+0x168>
   11ce0:	e30c9ccd 	movw	r9, #52429	; 0xcccd
   11ce4:	e1a06000 	mov	r6, r0
   11ce8:	e34c9ccc 	movt	r9, #52428	; 0xcccc
   11cec:	e1a0a003 	mov	sl, r3
   11cf0:	e28db014 	add	fp, sp, #20
   11cf4:	ea000006 	b	11d14 <tfp_format+0x50>
   11cf8:	e1a00006 	mov	r0, r6
   11cfc:	e1a04002 	mov	r4, r2
   11d00:	e12fff37 	blx	r7
   11d04:	e1a02004 	mov	r2, r4
   11d08:	e4d21001 	ldrb	r1, [r2], #1
   11d0c:	e3510000 	cmp	r1, #0
   11d10:	0a000045 	beq	11e2c <tfp_format+0x168>
   11d14:	e3510025 	cmp	r1, #37	; 0x25
   11d18:	1afffff6 	bne	11cf8 <tfp_format+0x34>
   11d1c:	e5d42001 	ldrb	r2, [r4, #1]
   11d20:	e3a05000 	mov	r5, #0
   11d24:	e3520030 	cmp	r2, #48	; 0x30
   11d28:	12844002 	addne	r4, r4, #2
   11d2c:	13a08000 	movne	r8, #0
   11d30:	05d42002 	ldrbeq	r2, [r4, #2]
   11d34:	03a08001 	moveq	r8, #1
   11d38:	02844003 	addeq	r4, r4, #3
   11d3c:	e2421030 	sub	r1, r2, #48	; 0x30
   11d40:	e6ef3071 	uxtb	r3, r1
   11d44:	e3530009 	cmp	r3, #9
   11d48:	9a000065 	bls	11ee4 <tfp_format+0x220>
   11d4c:	e352006c 	cmp	r2, #108	; 0x6c
   11d50:	0a000037 	beq	11e34 <tfp_format+0x170>
   11d54:	e352007a 	cmp	r2, #122	; 0x7a
   11d58:	8affffe9 	bhi	11d04 <tfp_format+0x40>
   11d5c:	e3520057 	cmp	r2, #87	; 0x57
   11d60:	9a000026 	bls	11e00 <tfp_format+0x13c>
   11d64:	e2423058 	sub	r3, r2, #88	; 0x58
   11d68:	e3530022 	cmp	r3, #34	; 0x22
   11d6c:	908ff103 	addls	pc, pc, r3, lsl #2
   11d70:	eaffffe3 	b	11d04 <tfp_format+0x40>
   11d74:	ea0000cf 	b	120b8 <tfp_format+0x3f4>
   11d78:	eaffffe1 	b	11d04 <tfp_format+0x40>
   11d7c:	eaffffe0 	b	11d04 <tfp_format+0x40>
   11d80:	eaffffdf 	b	11d04 <tfp_format+0x40>
   11d84:	eaffffde 	b	11d04 <tfp_format+0x40>
   11d88:	eaffffdd 	b	11d04 <tfp_format+0x40>
   11d8c:	eaffffdc 	b	11d04 <tfp_format+0x40>
   11d90:	eaffffdb 	b	11d04 <tfp_format+0x40>
   11d94:	eaffffda 	b	11d04 <tfp_format+0x40>
   11d98:	eaffffd9 	b	11d04 <tfp_format+0x40>
   11d9c:	eaffffd8 	b	11d04 <tfp_format+0x40>
   11da0:	ea000074 	b	11f78 <tfp_format+0x2b4>
   11da4:	ea000062 	b	11f34 <tfp_format+0x270>
   11da8:	eaffffd5 	b	11d04 <tfp_format+0x40>
   11dac:	eaffffd4 	b	11d04 <tfp_format+0x40>
   11db0:	eaffffd3 	b	11d04 <tfp_format+0x40>
   11db4:	eaffffd2 	b	11d04 <tfp_format+0x40>
   11db8:	ea00005d 	b	11f34 <tfp_format+0x270>
   11dbc:	eaffffd0 	b	11d04 <tfp_format+0x40>
   11dc0:	eaffffcf 	b	11d04 <tfp_format+0x40>
   11dc4:	eaffffce 	b	11d04 <tfp_format+0x40>
   11dc8:	eaffffcd 	b	11d04 <tfp_format+0x40>
   11dcc:	eaffffcc 	b	11d04 <tfp_format+0x40>
   11dd0:	eaffffcb 	b	11d04 <tfp_format+0x40>
   11dd4:	ea00009f 	b	12058 <tfp_format+0x394>
   11dd8:	eaffffc9 	b	11d04 <tfp_format+0x40>
   11ddc:	eaffffc8 	b	11d04 <tfp_format+0x40>
   11de0:	ea000094 	b	12038 <tfp_format+0x374>
   11de4:	eaffffc6 	b	11d04 <tfp_format+0x40>
   11de8:	ea0000ac 	b	120a0 <tfp_format+0x3dc>
   11dec:	eaffffc4 	b	11d04 <tfp_format+0x40>
   11df0:	eaffffc3 	b	11d04 <tfp_format+0x40>
   11df4:	ea0000af 	b	120b8 <tfp_format+0x3f4>
   11df8:	eaffffc1 	b	11d04 <tfp_format+0x40>
   11dfc:	ea000062 	b	11f8c <tfp_format+0x2c8>
   11e00:	e3520000 	cmp	r2, #0
   11e04:	0a000008 	beq	11e2c <tfp_format+0x168>
   11e08:	e3520025 	cmp	r2, #37	; 0x25
   11e0c:	1affffbc 	bne	11d04 <tfp_format+0x40>
   11e10:	e3a01025 	mov	r1, #37	; 0x25
   11e14:	e1a00006 	mov	r0, r6
   11e18:	e12fff37 	blx	r7
   11e1c:	e1a02004 	mov	r2, r4
   11e20:	e4d21001 	ldrb	r1, [r2], #1
   11e24:	e3510000 	cmp	r1, #0
   11e28:	1affffb9 	bne	11d14 <tfp_format+0x50>
   11e2c:	e28dd024 	add	sp, sp, #36	; 0x24
   11e30:	e8bd8ff0 	pop	{r4, r5, r6, r7, r8, r9, sl, fp, pc}
   11e34:	e4d42001 	ldrb	r2, [r4], #1
   11e38:	e352007a 	cmp	r2, #122	; 0x7a
   11e3c:	8affffb0 	bhi	11d04 <tfp_format+0x40>
   11e40:	e3520057 	cmp	r2, #87	; 0x57
   11e44:	9affffed 	bls	11e00 <tfp_format+0x13c>
   11e48:	e2423058 	sub	r3, r2, #88	; 0x58
   11e4c:	e3530022 	cmp	r3, #34	; 0x22
   11e50:	908ff103 	addls	pc, pc, r3, lsl #2
   11e54:	eaffffaa 	b	11d04 <tfp_format+0x40>
   11e58:	ea00009e 	b	120d8 <tfp_format+0x414>
   11e5c:	eaffffa8 	b	11d04 <tfp_format+0x40>
   11e60:	eaffffa7 	b	11d04 <tfp_format+0x40>
   11e64:	eaffffa6 	b	11d04 <tfp_format+0x40>
   11e68:	eaffffa5 	b	11d04 <tfp_format+0x40>
   11e6c:	eaffffa4 	b	11d04 <tfp_format+0x40>
   11e70:	eaffffa3 	b	11d04 <tfp_format+0x40>
   11e74:	eaffffa2 	b	11d04 <tfp_format+0x40>
   11e78:	eaffffa1 	b	11d04 <tfp_format+0x40>
   11e7c:	eaffffa0 	b	11d04 <tfp_format+0x40>
   11e80:	eaffff9f 	b	11d04 <tfp_format+0x40>
   11e84:	ea00003b 	b	11f78 <tfp_format+0x2b4>
   11e88:	ea000029 	b	11f34 <tfp_format+0x270>
   11e8c:	eaffff9c 	b	11d04 <tfp_format+0x40>
   11e90:	eaffff9b 	b	11d04 <tfp_format+0x40>
   11e94:	eaffff9a 	b	11d04 <tfp_format+0x40>
   11e98:	eaffff99 	b	11d04 <tfp_format+0x40>
   11e9c:	ea000024 	b	11f34 <tfp_format+0x270>
   11ea0:	eaffff97 	b	11d04 <tfp_format+0x40>
   11ea4:	eaffff96 	b	11d04 <tfp_format+0x40>
   11ea8:	eaffff95 	b	11d04 <tfp_format+0x40>
   11eac:	eaffff94 	b	11d04 <tfp_format+0x40>
   11eb0:	eaffff93 	b	11d04 <tfp_format+0x40>
   11eb4:	eaffff92 	b	11d04 <tfp_format+0x40>
   11eb8:	ea000066 	b	12058 <tfp_format+0x394>
   11ebc:	eaffff90 	b	11d04 <tfp_format+0x40>
   11ec0:	eaffff8f 	b	11d04 <tfp_format+0x40>
   11ec4:	ea00005b 	b	12038 <tfp_format+0x374>
   11ec8:	eaffff8d 	b	11d04 <tfp_format+0x40>
   11ecc:	ea000089 	b	120f8 <tfp_format+0x434>
   11ed0:	eaffff8b 	b	11d04 <tfp_format+0x40>
   11ed4:	eaffff8a 	b	11d04 <tfp_format+0x40>
   11ed8:	ea00007e 	b	120d8 <tfp_format+0x414>
   11edc:	eaffff88 	b	11d04 <tfp_format+0x40>
   11ee0:	ea000029 	b	11f8c <tfp_format+0x2c8>
   11ee4:	e3a0e00a 	mov	lr, #10
   11ee8:	ea000002 	b	11ef8 <tfp_format+0x234>
   11eec:	e4d42001 	ldrb	r2, [r4], #1
   11ef0:	e025359e 	mla	r5, lr, r5, r3
   11ef4:	e2421030 	sub	r1, r2, #48	; 0x30
   11ef8:	e6ef3071 	uxtb	r3, r1
   11efc:	e2420061 	sub	r0, r2, #97	; 0x61
   11f00:	e3530009 	cmp	r3, #9
   11f04:	e242c041 	sub	ip, r2, #65	; 0x41
   11f08:	e2423037 	sub	r3, r2, #55	; 0x37
   11f0c:	91a03001 	movls	r3, r1
   11f10:	9afffff5 	bls	11eec <tfp_format+0x228>
   11f14:	e3500005 	cmp	r0, #5
   11f18:	92423057 	subls	r3, r2, #87	; 0x57
   11f1c:	9a000001 	bls	11f28 <tfp_format+0x264>
   11f20:	e35c0005 	cmp	ip, #5
   11f24:	8affff88 	bhi	11d4c <tfp_format+0x88>
   11f28:	e353000a 	cmp	r3, #10
   11f2c:	0affffee 	beq	11eec <tfp_format+0x228>
   11f30:	eaffff85 	b	11d4c <tfp_format+0x88>
   11f34:	e49a0004 	ldr	r0, [sl], #4
   11f38:	e3a02000 	mov	r2, #0
   11f3c:	e3a0100a 	mov	r1, #10
   11f40:	e3500000 	cmp	r0, #0
   11f44:	b3a0302d 	movlt	r3, #45	; 0x2d
   11f48:	b2600000 	rsblt	r0, r0, #0
   11f4c:	b5cd3014 	strblt	r3, [sp, #20]
   11f50:	a1a0300b 	movge	r3, fp
   11f54:	b28d3015 	addlt	r3, sp, #21
   11f58:	ebfffef9 	bl	11b44 <ui2a>
   11f5c:	e58db000 	str	fp, [sp]
   11f60:	e1a03008 	mov	r3, r8
   11f64:	e1a02005 	mov	r2, r5
   11f68:	e1a01007 	mov	r1, r7
   11f6c:	e1a00006 	mov	r0, r6
   11f70:	ebffff22 	bl	11c00 <putchw>
   11f74:	eaffff62 	b	11d04 <tfp_format+0x40>
   11f78:	e49a1004 	ldr	r1, [sl], #4
   11f7c:	e1a00006 	mov	r0, r6
   11f80:	e6ef1071 	uxtb	r1, r1
   11f84:	e12fff37 	blx	r7
   11f88:	eaffff5d 	b	11d04 <tfp_format+0x40>
   11f8c:	e4d43001 	ldrb	r3, [r4], #1
   11f90:	e3530075 	cmp	r3, #117	; 0x75
   11f94:	1affff5a 	bne	11d04 <tfp_format+0x40>
   11f98:	e1a0300a 	mov	r3, sl
   11f9c:	e493e004 	ldr	lr, [r3], #4
   11fa0:	e58d3008 	str	r3, [sp, #8]
   11fa4:	e35e0009 	cmp	lr, #9
   11fa8:	e3a03001 	mov	r3, #1
   11fac:	9a000062 	bls	1213c <tfp_format+0x478>
   11fb0:	e3a0100a 	mov	r1, #10
   11fb4:	e0030391 	mul	r3, r1, r3
   11fb8:	e732f31e 	udiv	r2, lr, r3
   11fbc:	e3520009 	cmp	r2, #9
   11fc0:	8afffffb 	bhi	11fb4 <tfp_format+0x2f0>
   11fc4:	e3530000 	cmp	r3, #0
   11fc8:	0a00005d 	beq	12144 <tfp_format+0x480>
   11fcc:	e58d800c 	str	r8, [sp, #12]
   11fd0:	e3a0a000 	mov	sl, #0
   11fd4:	e1a0800b 	mov	r8, fp
   11fd8:	e1a0c002 	mov	ip, r2
   11fdc:	ea000005 	b	11ff8 <tfp_format+0x334>
   11fe0:	e4c0c001 	strb	ip, [r0], #1
   11fe4:	e3530009 	cmp	r3, #9
   11fe8:	e1a08000 	mov	r8, r0
   11fec:	9a000047 	bls	12110 <tfp_format+0x44c>
   11ff0:	e73cf11e 	udiv	ip, lr, r1
   11ff4:	e1a03001 	mov	r3, r1
   11ff8:	e0812399 	umull	r2, r1, r9, r3
   11ffc:	e25a2000 	subs	r2, sl, #0
   12000:	e1a00008 	mov	r0, r8
   12004:	13a02001 	movne	r2, #1
   12008:	e28aa001 	add	sl, sl, #1
   1200c:	e06eec93 	mls	lr, r3, ip, lr
   12010:	e3530009 	cmp	r3, #9
   12014:	93822001 	orrls	r2, r2, #1
   12018:	e35c0000 	cmp	ip, #0
   1201c:	c3822001 	orrgt	r2, r2, #1
   12020:	e28cc030 	add	ip, ip, #48	; 0x30
   12024:	e1a011a1 	lsr	r1, r1, #3
   12028:	e3520000 	cmp	r2, #0
   1202c:	1affffeb 	bne	11fe0 <tfp_format+0x31c>
   12030:	e1a0a002 	mov	sl, r2
   12034:	eaffffed 	b	11ff0 <tfp_format+0x32c>
   12038:	e49a3004 	ldr	r3, [sl], #4
   1203c:	e1a02005 	mov	r2, r5
   12040:	e1a01007 	mov	r1, r7
   12044:	e1a00006 	mov	r0, r6
   12048:	e58d3000 	str	r3, [sp]
   1204c:	e3a03000 	mov	r3, #0
   12050:	ebfffeea 	bl	11c00 <putchw>
   12054:	eaffff2a 	b	11d04 <tfp_format+0x40>
   12058:	e1a00006 	mov	r0, r6
   1205c:	e3a01030 	mov	r1, #48	; 0x30
   12060:	e12fff37 	blx	r7
   12064:	e1a00006 	mov	r0, r6
   12068:	e3a01078 	mov	r1, #120	; 0x78
   1206c:	e12fff37 	blx	r7
   12070:	e49a0004 	ldr	r0, [sl], #4
   12074:	e1a0300b 	mov	r3, fp
   12078:	e3a02001 	mov	r2, #1
   1207c:	e3a01010 	mov	r1, #16
   12080:	ebfffeaf 	bl	11b44 <ui2a>
   12084:	e58db000 	str	fp, [sp]
   12088:	e1a03008 	mov	r3, r8
   1208c:	e1a02005 	mov	r2, r5
   12090:	e1a01007 	mov	r1, r7
   12094:	e1a00006 	mov	r0, r6
   12098:	ebfffed8 	bl	11c00 <putchw>
   1209c:	eaffff18 	b	11d04 <tfp_format+0x40>
   120a0:	e49a0004 	ldr	r0, [sl], #4
   120a4:	e1a0300b 	mov	r3, fp
   120a8:	e3a02000 	mov	r2, #0
   120ac:	e3a0100a 	mov	r1, #10
   120b0:	ebfffea3 	bl	11b44 <ui2a>
   120b4:	eaffffa8 	b	11f5c <tfp_format+0x298>
   120b8:	e49a0004 	ldr	r0, [sl], #4
   120bc:	e2422058 	sub	r2, r2, #88	; 0x58
   120c0:	e16f2f12 	clz	r2, r2
   120c4:	e1a0300b 	mov	r3, fp
   120c8:	e3a01010 	mov	r1, #16
   120cc:	e1a022a2 	lsr	r2, r2, #5
   120d0:	ebfffe9b 	bl	11b44 <ui2a>
   120d4:	eaffffa0 	b	11f5c <tfp_format+0x298>
   120d8:	e49a0004 	ldr	r0, [sl], #4
   120dc:	e2422058 	sub	r2, r2, #88	; 0x58
   120e0:	e16f2f12 	clz	r2, r2
   120e4:	e1a0300b 	mov	r3, fp
   120e8:	e3a01010 	mov	r1, #16
   120ec:	e1a022a2 	lsr	r2, r2, #5
   120f0:	ebfffe93 	bl	11b44 <ui2a>
   120f4:	eaffff98 	b	11f5c <tfp_format+0x298>
   120f8:	e49a0004 	ldr	r0, [sl], #4
   120fc:	e1a0300b 	mov	r3, fp
   12100:	e3a02000 	mov	r2, #0
   12104:	e3a0100a 	mov	r1, #10
   12108:	ebfffe8d 	bl	11b44 <ui2a>
   1210c:	eaffff92 	b	11f5c <tfp_format+0x298>
   12110:	e59d800c 	ldr	r8, [sp, #12]
   12114:	e59da008 	ldr	sl, [sp, #8]
   12118:	e3a01000 	mov	r1, #0
   1211c:	e5c01000 	strb	r1, [r0]
   12120:	e1a03008 	mov	r3, r8
   12124:	e58db000 	str	fp, [sp]
   12128:	e1a02005 	mov	r2, r5
   1212c:	e1a01007 	mov	r1, r7
   12130:	e1a00006 	mov	r0, r6
   12134:	ebfffeb1 	bl	11c00 <putchw>
   12138:	eafffef1 	b	11d04 <tfp_format+0x40>
   1213c:	e1a0200e 	mov	r2, lr
   12140:	eaffffa1 	b	11fcc <tfp_format+0x308>
   12144:	e1a0000b 	mov	r0, fp
   12148:	eafffff1 	b	12114 <tfp_format+0x450>

0001214c <init_printf>:
   1214c:	e59f300c 	ldr	r3, [pc, #12]	; 12160 <init_printf+0x14>
   12150:	e08f3003 	add	r3, pc, r3
   12154:	e5830004 	str	r0, [r3, #4]
   12158:	e5831000 	str	r1, [r3]
   1215c:	e12fff1e 	bx	lr
   12160:	0004a0e0 	.word	0x0004a0e0

00012164 <tfp_printf>:
   12164:	e92d000f 	push	{r0, r1, r2, r3}
   12168:	e59f0030 	ldr	r0, [pc, #48]	; 121a0 <tfp_printf+0x3c>
   1216c:	e52de004 	push	{lr}		; (str lr, [sp, #-4]!)
   12170:	e24dd00c 	sub	sp, sp, #12
   12174:	e08f0000 	add	r0, pc, r0
   12178:	e28d3014 	add	r3, sp, #20
   1217c:	e59d2010 	ldr	r2, [sp, #16]
   12180:	e5901000 	ldr	r1, [r0]
   12184:	e5900004 	ldr	r0, [r0, #4]
   12188:	e58d3004 	str	r3, [sp, #4]
   1218c:	ebfffecc 	bl	11cc4 <tfp_format>
   12190:	e28dd00c 	add	sp, sp, #12
   12194:	e49de004 	pop	{lr}		; (ldr lr, [sp], #4)
   12198:	e28dd010 	add	sp, sp, #16
   1219c:	e12fff1e 	bx	lr
   121a0:	0004a0bc 	.word	0x0004a0bc

000121a4 <tfp_sprintf>:
   121a4:	e92d000e 	push	{r1, r2, r3}
   121a8:	e59f103c 	ldr	r1, [pc, #60]	; 121ec <tfp_sprintf+0x48>
   121ac:	e52de004 	push	{lr}		; (str lr, [sp, #-4]!)
   121b0:	e24dd010 	sub	sp, sp, #16
   121b4:	e08f1001 	add	r1, pc, r1
   121b8:	e28d3018 	add	r3, sp, #24
   121bc:	e59d2014 	ldr	r2, [sp, #20]
   121c0:	e58d0004 	str	r0, [sp, #4]
   121c4:	e28d0004 	add	r0, sp, #4
   121c8:	e58d300c 	str	r3, [sp, #12]
   121cc:	ebfffebc 	bl	11cc4 <tfp_format>
   121d0:	e59d3004 	ldr	r3, [sp, #4]
   121d4:	e3a02000 	mov	r2, #0
   121d8:	e5c32000 	strb	r2, [r3]
   121dc:	e28dd010 	add	sp, sp, #16
   121e0:	e49de004 	pop	{lr}		; (ldr lr, [sp], #4)
   121e4:	e28dd00c 	add	sp, sp, #12
   121e8:	e12fff1e 	bx	lr
   121ec:	fffffaf4 	.word	0xfffffaf4

000121f0 <SHA1Transform>:
   121f0:	e92d4ff0 	push	{r4, r5, r6, r7, r8, r9, sl, fp, lr}
   121f4:	e1a04000 	mov	r4, r0
   121f8:	e24dd0a4 	sub	sp, sp, #164	; 0xa4
   121fc:	e3a02040 	mov	r2, #64	; 0x40
   12200:	e28d0060 	add	r0, sp, #96	; 0x60
   12204:	ebfff70a 	bl	fe34 <memcpy>
   12208:	e5945008 	ldr	r5, [r4, #8]
   1220c:	e3073999 	movw	r3, #31129	; 0x7999
   12210:	e594100c 	ldr	r1, [r4, #12]
   12214:	e5942004 	ldr	r2, [r4, #4]
   12218:	e5940000 	ldr	r0, [r4]
   1221c:	e594c010 	ldr	ip, [r4, #16]
   12220:	e3453a82 	movt	r3, #23170	; 0x5a82
   12224:	e1a06000 	mov	r6, r0
   12228:	e0257001 	eor	r7, r5, r1
   1222c:	e58d405c 	str	r4, [sp, #92]	; 0x5c
   12230:	e0077002 	and	r7, r7, r2
   12234:	e1a04162 	ror	r4, r2, #2
   12238:	e59db060 	ldr	fp, [sp, #96]	; 0x60
   1223c:	e0258004 	eor	r8, r5, r4
   12240:	e58d204c 	str	r2, [sp, #76]	; 0x4c
   12244:	e0088000 	and	r8, r8, r0
   12248:	e08c2003 	add	r2, ip, r3
   1224c:	e0822de0 	add	r2, r2, r0, ror #27
   12250:	e0277001 	eor	r7, r7, r1
   12254:	e59d0064 	ldr	r0, [sp, #100]	; 0x64
   12258:	e1a0a166 	ror	sl, r6, #2
   1225c:	e58dc058 	str	ip, [sp, #88]	; 0x58
   12260:	e6bfbf3b 	rev	fp, fp
   12264:	e59dc068 	ldr	ip, [sp, #104]	; 0x68
   12268:	e0877002 	add	r7, r7, r2
   1226c:	e0288005 	eor	r8, r8, r5
   12270:	e0812003 	add	r2, r1, r3
   12274:	e08b7007 	add	r7, fp, r7
   12278:	e58d1054 	str	r1, [sp, #84]	; 0x54
   1227c:	e6bf0f30 	rev	r0, r0
   12280:	e024100a 	eor	r1, r4, sl
   12284:	e0888002 	add	r8, r8, r2
   12288:	e0011007 	and	r1, r1, r7
   1228c:	e6bfcf3c 	rev	ip, ip
   12290:	e085e003 	add	lr, r5, r3
   12294:	e0888000 	add	r8, r8, r0
   12298:	e0888de7 	add	r8, r8, r7, ror #27
   1229c:	e08ee00c 	add	lr, lr, ip
   122a0:	e1a07167 	ror	r7, r7, #2
   122a4:	e0211004 	eor	r1, r1, r4
   122a8:	e081100e 	add	r1, r1, lr
   122ac:	e02ae007 	eor	lr, sl, r7
   122b0:	e0811de8 	add	r1, r1, r8, ror #27
   122b4:	e00ee008 	and	lr, lr, r8
   122b8:	e58d6048 	str	r6, [sp, #72]	; 0x48
   122bc:	e1a08168 	ror	r8, r8, #2
   122c0:	e59d6070 	ldr	r6, [sp, #112]	; 0x70
   122c4:	e0279008 	eor	r9, r7, r8
   122c8:	e6bf6f36 	rev	r6, r6
   122cc:	e0099001 	and	r9, r9, r1
   122d0:	e59d206c 	ldr	r2, [sp, #108]	; 0x6c
   122d4:	e02ee00a 	eor	lr, lr, sl
   122d8:	e08aa003 	add	sl, sl, r3
   122dc:	e08aa006 	add	sl, sl, r6
   122e0:	e0299007 	eor	r9, r9, r7
   122e4:	e6bf2f32 	rev	r2, r2
   122e8:	e0844003 	add	r4, r4, r3
   122ec:	e089900a 	add	r9, r9, sl
   122f0:	e59da078 	ldr	sl, [sp, #120]	; 0x78
   122f4:	e0844002 	add	r4, r4, r2
   122f8:	e6bfaf3a 	rev	sl, sl
   122fc:	e58d5050 	str	r5, [sp, #80]	; 0x50
   12300:	e08ee004 	add	lr, lr, r4
   12304:	e59d5074 	ldr	r5, [sp, #116]	; 0x74
   12308:	e08eede1 	add	lr, lr, r1, ror #27
   1230c:	e026400a 	eor	r4, r6, sl
   12310:	e1a01161 	ror	r1, r1, #2
   12314:	e6bf5f35 	rev	r5, r5
   12318:	e58d4004 	str	r4, [sp, #4]
   1231c:	e0284001 	eor	r4, r8, r1
   12320:	e02bb00c 	eor	fp, fp, ip
   12324:	e004400e 	and	r4, r4, lr
   12328:	e02cc006 	eor	ip, ip, r6
   1232c:	e0856003 	add	r6, r5, r3
   12330:	e0244008 	eor	r4, r4, r8
   12334:	e0867007 	add	r7, r6, r7
   12338:	e0847007 	add	r7, r4, r7
   1233c:	e59d407c 	ldr	r4, [sp, #124]	; 0x7c
   12340:	e0899dee 	add	r9, r9, lr, ror #27
   12344:	e6bf4f34 	rev	r4, r4
   12348:	e1a0e16e 	ror	lr, lr, #2
   1234c:	e0256004 	eor	r6, r5, r4
   12350:	e0200002 	eor	r0, r0, r2
   12354:	e0222005 	eor	r2, r2, r5
   12358:	e08a5003 	add	r5, sl, r3
   1235c:	e0855008 	add	r5, r5, r8
   12360:	e58d600c 	str	r6, [sp, #12]
   12364:	e59d8080 	ldr	r8, [sp, #128]	; 0x80
   12368:	e021600e 	eor	r6, r1, lr
   1236c:	e6bf8f38 	rev	r8, r8
   12370:	e0066009 	and	r6, r6, r9
   12374:	e0877de9 	add	r7, r7, r9, ror #27
   12378:	e0266001 	eor	r6, r6, r1
   1237c:	e1a09169 	ror	r9, r9, #2
   12380:	e02aa008 	eor	sl, sl, r8
   12384:	e0866005 	add	r6, r6, r5
   12388:	e02e5009 	eor	r5, lr, r9
   1238c:	e58da01c 	str	sl, [sp, #28]
   12390:	e0055007 	and	r5, r5, r7
   12394:	e084a003 	add	sl, r4, r3
   12398:	e08a1001 	add	r1, sl, r1
   1239c:	e025500e 	eor	r5, r5, lr
   123a0:	e0855001 	add	r5, r5, r1
   123a4:	e59d1084 	ldr	r1, [sp, #132]	; 0x84
   123a8:	e0866de7 	add	r6, r6, r7, ror #27
   123ac:	e6bf1f31 	rev	r1, r1
   123b0:	e0200001 	eor	r0, r0, r1
   123b4:	e58d0008 	str	r0, [sp, #8]
   123b8:	e0240001 	eor	r0, r4, r1
   123bc:	e1a07167 	ror	r7, r7, #2
   123c0:	e58d0020 	str	r0, [sp, #32]
   123c4:	e0880003 	add	r0, r8, r3
   123c8:	e0294007 	eor	r4, r9, r7
   123cc:	e080e00e 	add	lr, r0, lr
   123d0:	e0044006 	and	r4, r4, r6
   123d4:	e59d0088 	ldr	r0, [sp, #136]	; 0x88
   123d8:	e59da08c 	ldr	sl, [sp, #140]	; 0x8c
   123dc:	e6bf0f30 	rev	r0, r0
   123e0:	e0855de6 	add	r5, r5, r6, ror #27
   123e4:	e02bb008 	eor	fp, fp, r8
   123e8:	e1a06166 	ror	r6, r6, #2
   123ec:	e0244009 	eor	r4, r4, r9
   123f0:	e6bfaf3a 	rev	sl, sl
   123f4:	e58db000 	str	fp, [sp]
   123f8:	e084400e 	add	r4, r4, lr
   123fc:	e02cb000 	eor	fp, ip, r0
   12400:	e027e006 	eor	lr, r7, r6
   12404:	e081c003 	add	ip, r1, r3
   12408:	e00ee005 	and	lr, lr, r5
   1240c:	e08cc009 	add	ip, ip, r9
   12410:	e021900a 	eor	r9, r1, sl
   12414:	e0801003 	add	r1, r0, r3
   12418:	e0844de5 	add	r4, r4, r5, ror #27
   1241c:	e0811007 	add	r1, r1, r7
   12420:	e1a05165 	ror	r5, r5, #2
   12424:	e02ee007 	eor	lr, lr, r7
   12428:	e59d7090 	ldr	r7, [sp, #144]	; 0x90
   1242c:	e58db014 	str	fp, [sp, #20]
   12430:	e08ee00c 	add	lr, lr, ip
   12434:	e58d9024 	str	r9, [sp, #36]	; 0x24
   12438:	e026c005 	eor	ip, r6, r5
   1243c:	e59d9004 	ldr	r9, [sp, #4]
   12440:	e00cc004 	and	ip, ip, r4
   12444:	e08eede4 	add	lr, lr, r4, ror #27
   12448:	e6bf7f37 	rev	r7, r7
   1244c:	e1a04164 	ror	r4, r4, #2
   12450:	e029b007 	eor	fp, r9, r7
   12454:	e0288000 	eor	r8, r8, r0
   12458:	e0209007 	eor	r9, r0, r7
   1245c:	e02cc006 	eor	ip, ip, r6
   12460:	e0250004 	eor	r0, r5, r4
   12464:	e08cc001 	add	ip, ip, r1
   12468:	e000000e 	and	r0, r0, lr
   1246c:	e08a1003 	add	r1, sl, r3
   12470:	e58d9034 	str	r9, [sp, #52]	; 0x34
   12474:	e0811006 	add	r1, r1, r6
   12478:	e59d9094 	ldr	r9, [sp, #148]	; 0x94
   1247c:	e0200005 	eor	r0, r0, r5
   12480:	e0800001 	add	r0, r0, r1
   12484:	e59d1000 	ldr	r1, [sp]
   12488:	e6bf9f39 	rev	r9, r9
   1248c:	e0216009 	eor	r6, r1, r9
   12490:	e022200a 	eor	r2, r2, sl
   12494:	e1a06fe6 	ror	r6, r6, #31
   12498:	e59d100c 	ldr	r1, [sp, #12]
   1249c:	e0222006 	eor	r2, r2, r6
   124a0:	e08ccdee 	add	ip, ip, lr, ror #27
   124a4:	e0211009 	eor	r1, r1, r9
   124a8:	e1a0e16e 	ror	lr, lr, #2
   124ac:	e58d1000 	str	r1, [sp]
   124b0:	e02aa009 	eor	sl, sl, r9
   124b4:	e0288006 	eor	r8, r8, r6
   124b8:	e1a02fe2 	ror	r2, r2, #31
   124bc:	e024100e 	eor	r1, r4, lr
   124c0:	e58d802c 	str	r8, [sp, #44]	; 0x2c
   124c4:	e001100c 	and	r1, r1, ip
   124c8:	e02a8002 	eor	r8, sl, r2
   124cc:	e58d2018 	str	r2, [sp, #24]
   124d0:	e0872003 	add	r2, r7, r3
   124d4:	e0800dec 	add	r0, r0, ip, ror #27
   124d8:	e0822005 	add	r2, r2, r5
   124dc:	e0211004 	eor	r1, r1, r4
   124e0:	e58d8038 	str	r8, [sp, #56]	; 0x38
   124e4:	e0811002 	add	r1, r1, r2
   124e8:	e59d8098 	ldr	r8, [sp, #152]	; 0x98
   124ec:	e0812de0 	add	r2, r1, r0, ror #27
   124f0:	e59d1008 	ldr	r1, [sp, #8]
   124f4:	e6bf8f38 	rev	r8, r8
   124f8:	e59da01c 	ldr	sl, [sp, #28]
   124fc:	e0215008 	eor	r5, r1, r8
   12500:	e59d1018 	ldr	r1, [sp, #24]
   12504:	e02aa008 	eor	sl, sl, r8
   12508:	e02aa001 	eor	sl, sl, r1
   1250c:	e1a05fe5 	ror	r5, r5, #31
   12510:	e1a01fea 	ror	r1, sl, #31
   12514:	e59da024 	ldr	sl, [sp, #36]	; 0x24
   12518:	e02bb005 	eor	fp, fp, r5
   1251c:	e02aa005 	eor	sl, sl, r5
   12520:	e02aa001 	eor	sl, sl, r1
   12524:	e1a0bfeb 	ror	fp, fp, #31
   12528:	e0277008 	eor	r7, r7, r8
   1252c:	e1a0afea 	ror	sl, sl, #31
   12530:	e027700b 	eor	r7, r7, fp
   12534:	e027700a 	eor	r7, r7, sl
   12538:	e1a0c16c 	ror	ip, ip, #2
   1253c:	e58d2004 	str	r2, [sp, #4]
   12540:	e1a07fe7 	ror	r7, r7, #31
   12544:	e02e200c 	eor	r2, lr, ip
   12548:	e58d7024 	str	r7, [sp, #36]	; 0x24
   1254c:	e0022000 	and	r2, r2, r0
   12550:	e0897003 	add	r7, r9, r3
   12554:	e0874004 	add	r4, r7, r4
   12558:	e022200e 	eor	r2, r2, lr
   1255c:	e0822004 	add	r2, r2, r4
   12560:	e59d4004 	ldr	r4, [sp, #4]
   12564:	e59d709c 	ldr	r7, [sp, #156]	; 0x9c
   12568:	e0822de4 	add	r2, r2, r4, ror #27
   1256c:	e58da030 	str	sl, [sp, #48]	; 0x30
   12570:	e59d4014 	ldr	r4, [sp, #20]
   12574:	e59da020 	ldr	sl, [sp, #32]
   12578:	e6bf7f37 	rev	r7, r7
   1257c:	e0244007 	eor	r4, r4, r7
   12580:	e02aa007 	eor	sl, sl, r7
   12584:	e02aa00b 	eor	sl, sl, fp
   12588:	e58db028 	str	fp, [sp, #40]	; 0x28
   1258c:	e59db000 	ldr	fp, [sp]
   12590:	e1a04fe4 	ror	r4, r4, #31
   12594:	e02bb004 	eor	fp, fp, r4
   12598:	e58d100c 	str	r1, [sp, #12]
   1259c:	e1a01fea 	ror	r1, sl, #31
   125a0:	e59da034 	ldr	sl, [sp, #52]	; 0x34
   125a4:	e1a0bfeb 	ror	fp, fp, #31
   125a8:	e58db000 	str	fp, [sp]
   125ac:	e1a00160 	ror	r0, r0, #2
   125b0:	e02aa004 	eor	sl, sl, r4
   125b4:	e58d0010 	str	r0, [sp, #16]
   125b8:	e58d101c 	str	r1, [sp, #28]
   125bc:	e59d002c 	ldr	r0, [sp, #44]	; 0x2c
   125c0:	e02aa001 	eor	sl, sl, r1
   125c4:	e59d1000 	ldr	r1, [sp]
   125c8:	e0299007 	eor	r9, r9, r7
   125cc:	e020b001 	eor	fp, r0, r1
   125d0:	e1a0afea 	ror	sl, sl, #31
   125d4:	e59d0038 	ldr	r0, [sp, #56]	; 0x38
   125d8:	e0299001 	eor	r9, r9, r1
   125dc:	e1a0bfeb 	ror	fp, fp, #31
   125e0:	e029900a 	eor	r9, r9, sl
   125e4:	e58da020 	str	sl, [sp, #32]
   125e8:	e020a00b 	eor	sl, r0, fp
   125ec:	e1a09fe9 	ror	r9, r9, #31
   125f0:	e58d9008 	str	r9, [sp, #8]
   125f4:	e59d1010 	ldr	r1, [sp, #16]
   125f8:	e1a09fea 	ror	r9, sl, #31
   125fc:	e02ca001 	eor	sl, ip, r1
   12600:	e1a00009 	mov	r0, r9
   12604:	e59d9004 	ldr	r9, [sp, #4]
   12608:	e58d0004 	str	r0, [sp, #4]
   1260c:	e1a01169 	ror	r1, r9, #2
   12610:	e00aa009 	and	sl, sl, r9
   12614:	e0889003 	add	r9, r8, r3
   12618:	e089e00e 	add	lr, r9, lr
   1261c:	e59d900c 	ldr	r9, [sp, #12]
   12620:	e0288006 	eor	r8, r8, r6
   12624:	e0288009 	eor	r8, r8, r9
   12628:	e0288000 	eor	r8, r8, r0
   1262c:	e02aa00c 	eor	sl, sl, ip
   12630:	e1a08fe8 	ror	r8, r8, #31
   12634:	e58d800c 	str	r8, [sp, #12]
   12638:	e0878003 	add	r8, r7, r3
   1263c:	e088c00c 	add	ip, r8, ip
   12640:	e59d801c 	ldr	r8, [sp, #28]
   12644:	e0277005 	eor	r7, r7, r5
   12648:	e0277008 	eor	r7, r7, r8
   1264c:	e59d8024 	ldr	r8, [sp, #36]	; 0x24
   12650:	e59d0010 	ldr	r0, [sp, #16]
   12654:	e0277008 	eor	r7, r7, r8
   12658:	e08aa00e 	add	sl, sl, lr
   1265c:	e020e001 	eor	lr, r0, r1
   12660:	e08aade2 	add	sl, sl, r2, ror #27
   12664:	e00ee002 	and	lr, lr, r2
   12668:	e1a07fe7 	ror	r7, r7, #31
   1266c:	e1a02162 	ror	r2, r2, #2
   12670:	e58d7010 	str	r7, [sp, #16]
   12674:	e02ee000 	eor	lr, lr, r0
   12678:	e0217002 	eor	r7, r1, r2
   1267c:	e08ee00c 	add	lr, lr, ip
   12680:	e007700a 	and	r7, r7, sl
   12684:	e086c003 	add	ip, r6, r3
   12688:	e08c0000 	add	r0, ip, r0
   1268c:	e0277001 	eor	r7, r7, r1
   12690:	e0877000 	add	r7, r7, r0
   12694:	e0266004 	eor	r6, r6, r4
   12698:	e59d0008 	ldr	r0, [sp, #8]
   1269c:	e026600b 	eor	r6, r6, fp
   126a0:	e0266000 	eor	r6, r6, r0
   126a4:	e59dc018 	ldr	ip, [sp, #24]
   126a8:	e1a00fe6 	ror	r0, r6, #31
   126ac:	e0856003 	add	r6, r5, r3
   126b0:	e0861001 	add	r1, r6, r1
   126b4:	e59d6030 	ldr	r6, [sp, #48]	; 0x30
   126b8:	e08eedea 	add	lr, lr, sl, ror #27
   126bc:	e59d800c 	ldr	r8, [sp, #12]
   126c0:	e1a0a16a 	ror	sl, sl, #2
   126c4:	e025500c 	eor	r5, r5, ip
   126c8:	e58d0014 	str	r0, [sp, #20]
   126cc:	e0255006 	eor	r5, r5, r6
   126d0:	e022000a 	eor	r0, r2, sl
   126d4:	e0255008 	eor	r5, r5, r8
   126d8:	e000000e 	and	r0, r0, lr
   126dc:	e0877dee 	add	r7, r7, lr, ror #27
   126e0:	e0200002 	eor	r0, r0, r2
   126e4:	e1a0e16e 	ror	lr, lr, #2
   126e8:	e0800001 	add	r0, r0, r1
   126ec:	e1a05fe5 	ror	r5, r5, #31
   126f0:	e02a100e 	eor	r1, sl, lr
   126f4:	e58d5018 	str	r5, [sp, #24]
   126f8:	e0011007 	and	r1, r1, r7
   126fc:	e0845003 	add	r5, r4, r3
   12700:	e08c3003 	add	r3, ip, r3
   12704:	e021100a 	eor	r1, r1, sl
   12708:	e0852002 	add	r2, r5, r2
   1270c:	e083a00a 	add	sl, r3, sl
   12710:	e59d3000 	ldr	r3, [sp]
   12714:	e0812002 	add	r2, r1, r2
   12718:	e59d1028 	ldr	r1, [sp, #40]	; 0x28
   1271c:	e02c3003 	eor	r3, ip, r3
   12720:	e59dc020 	ldr	ip, [sp, #32]
   12724:	e0244001 	eor	r4, r4, r1
   12728:	e024400c 	eor	r4, r4, ip
   1272c:	e59dc004 	ldr	ip, [sp, #4]
   12730:	e59d6014 	ldr	r6, [sp, #20]
   12734:	e023300c 	eor	r3, r3, ip
   12738:	e59dc010 	ldr	ip, [sp, #16]
   1273c:	e0233006 	eor	r3, r3, r6
   12740:	e1a06009 	mov	r6, r9
   12744:	e024400c 	eor	r4, r4, ip
   12748:	e30ecba1 	movw	ip, #60321	; 0xeba1
   1274c:	e0800de7 	add	r0, r0, r7, ror #27
   12750:	e1a07167 	ror	r7, r7, #2
   12754:	e1a08fe4 	ror	r8, r4, #31
   12758:	e1a04fe3 	ror	r4, r3, #31
   1275c:	e02e3007 	eor	r3, lr, r7
   12760:	e346ced9 	movt	ip, #28377	; 0x6ed9
   12764:	e0033000 	and	r3, r3, r0
   12768:	e023300e 	eor	r3, r3, lr
   1276c:	e083a00a 	add	sl, r3, sl
   12770:	e081300c 	add	r3, r1, ip
   12774:	e083e00e 	add	lr, r3, lr
   12778:	e59d3024 	ldr	r3, [sp, #36]	; 0x24
   1277c:	e0211009 	eor	r1, r1, r9
   12780:	e59d9018 	ldr	r9, [sp, #24]
   12784:	e0822de0 	add	r2, r2, r0, ror #27
   12788:	e0211003 	eor	r1, r1, r3
   1278c:	e1a00160 	ror	r0, r0, #2
   12790:	e59d3000 	ldr	r3, [sp]
   12794:	e58d4028 	str	r4, [sp, #40]	; 0x28
   12798:	e0211009 	eor	r1, r1, r9
   1279c:	e0274000 	eor	r4, r7, r0
   127a0:	e08aade2 	add	sl, sl, r2, ror #27
   127a4:	e0244002 	eor	r4, r4, r2
   127a8:	e1a02162 	ror	r2, r2, #2
   127ac:	e1a09fe1 	ror	r9, r1, #31
   127b0:	e084400e 	add	r4, r4, lr
   127b4:	e083100c 	add	r1, r3, ip
   127b8:	e020e002 	eor	lr, r0, r2
   127bc:	e0817007 	add	r7, r1, r7
   127c0:	e02ee00a 	eor	lr, lr, sl
   127c4:	e59d101c 	ldr	r1, [sp, #28]
   127c8:	e08ee007 	add	lr, lr, r7
   127cc:	e59d7008 	ldr	r7, [sp, #8]
   127d0:	e0233001 	eor	r3, r3, r1
   127d4:	e0233007 	eor	r3, r3, r7
   127d8:	e0233008 	eor	r3, r3, r8
   127dc:	e1a0516a 	ror	r5, sl, #2
   127e0:	e1a07fe3 	ror	r7, r3, #31
   127e4:	e1a03006 	mov	r3, r6
   127e8:	e0844dea 	add	r4, r4, sl, ror #27
   127ec:	e0221005 	eor	r1, r2, r5
   127f0:	e086600c 	add	r6, r6, ip
   127f4:	e0860000 	add	r0, r6, r0
   127f8:	e0211004 	eor	r1, r1, r4
   127fc:	e0811000 	add	r1, r1, r0
   12800:	e59d000c 	ldr	r0, [sp, #12]
   12804:	e023a00b 	eor	sl, r3, fp
   12808:	e59d3028 	ldr	r3, [sp, #40]	; 0x28
   1280c:	e02aa000 	eor	sl, sl, r0
   12810:	e02aa003 	eor	sl, sl, r3
   12814:	e08eede4 	add	lr, lr, r4, ror #27
   12818:	e1a00fea 	ror	r0, sl, #31
   1281c:	e59da01c 	ldr	sl, [sp, #28]
   12820:	e1a04164 	ror	r4, r4, #2
   12824:	e0253004 	eor	r3, r5, r4
   12828:	e58d002c 	str	r0, [sp, #44]	; 0x2c
   1282c:	e08a000c 	add	r0, sl, ip
   12830:	e59d6030 	ldr	r6, [sp, #48]	; 0x30
   12834:	e023300e 	eor	r3, r3, lr
   12838:	e0802002 	add	r2, r0, r2
   1283c:	e0832002 	add	r2, r3, r2
   12840:	e59d3010 	ldr	r3, [sp, #16]
   12844:	e0811dee 	add	r1, r1, lr, ror #27
   12848:	e02aa006 	eor	sl, sl, r6
   1284c:	e1a0e16e 	ror	lr, lr, #2
   12850:	e02a0003 	eor	r0, sl, r3
   12854:	e024300e 	eor	r3, r4, lr
   12858:	e08ba00c 	add	sl, fp, ip
   1285c:	e08aa005 	add	sl, sl, r5
   12860:	e0233001 	eor	r3, r3, r1
   12864:	e083300a 	add	r3, r3, sl
   12868:	e59da020 	ldr	sl, [sp, #32]
   1286c:	e59d5014 	ldr	r5, [sp, #20]
   12870:	e0822de1 	add	r2, r2, r1, ror #27
   12874:	e02bb00a 	eor	fp, fp, sl
   12878:	e1a0a006 	mov	sl, r6
   1287c:	e1a01161 	ror	r1, r1, #2
   12880:	e086600c 	add	r6, r6, ip
   12884:	e02bb005 	eor	fp, fp, r5
   12888:	e02e5001 	eor	r5, lr, r1
   1288c:	e0864004 	add	r4, r6, r4
   12890:	e0255002 	eor	r5, r5, r2
   12894:	e0855004 	add	r5, r5, r4
   12898:	e59d4004 	ldr	r4, [sp, #4]
   1289c:	e59d602c 	ldr	r6, [sp, #44]	; 0x2c
   128a0:	e02aa004 	eor	sl, sl, r4
   128a4:	e59d4018 	ldr	r4, [sp, #24]
   128a8:	e0200009 	eor	r0, r0, r9
   128ac:	e02aa004 	eor	sl, sl, r4
   128b0:	e02aa006 	eor	sl, sl, r6
   128b4:	e1a00fe0 	ror	r0, r0, #31
   128b8:	e1a06fea 	ror	r6, sl, #31
   128bc:	e59da020 	ldr	sl, [sp, #32]
   128c0:	e58d601c 	str	r6, [sp, #28]
   128c4:	e08a600c 	add	r6, sl, ip
   128c8:	e086e00e 	add	lr, r6, lr
   128cc:	e59d6024 	ldr	r6, [sp, #36]	; 0x24
   128d0:	e0833de2 	add	r3, r3, r2, ror #27
   128d4:	e02aa006 	eor	sl, sl, r6
   128d8:	e02aa008 	eor	sl, sl, r8
   128dc:	e02aa000 	eor	sl, sl, r0
   128e0:	e1a02162 	ror	r2, r2, #2
   128e4:	e1a0afea 	ror	sl, sl, #31
   128e8:	e58da020 	str	sl, [sp, #32]
   128ec:	e0214002 	eor	r4, r1, r2
   128f0:	e59da004 	ldr	sl, [sp, #4]
   128f4:	e0855de3 	add	r5, r5, r3, ror #27
   128f8:	e0244003 	eor	r4, r4, r3
   128fc:	e1a03163 	ror	r3, r3, #2
   12900:	e08aa00c 	add	sl, sl, ip
   12904:	e084400e 	add	r4, r4, lr
   12908:	e022e003 	eor	lr, r2, r3
   1290c:	e02ee005 	eor	lr, lr, r5
   12910:	e08a1001 	add	r1, sl, r1
   12914:	e08e1001 	add	r1, lr, r1
   12918:	e99d4400 	ldmib	sp, {sl, lr}
   1291c:	e02bb007 	eor	fp, fp, r7
   12920:	e02ea00a 	eor	sl, lr, sl
   12924:	e59de028 	ldr	lr, [sp, #40]	; 0x28
   12928:	e1a0bfeb 	ror	fp, fp, #31
   1292c:	e02aa00e 	eor	sl, sl, lr
   12930:	e02aa00b 	eor	sl, sl, fp
   12934:	e0844de5 	add	r4, r4, r5, ror #27
   12938:	e1a0afea 	ror	sl, sl, #31
   1293c:	e58da000 	str	sl, [sp]
   12940:	e1a0a006 	mov	sl, r6
   12944:	e1a05165 	ror	r5, r5, #2
   12948:	e086600c 	add	r6, r6, ip
   1294c:	e023e005 	eor	lr, r3, r5
   12950:	e0862002 	add	r2, r6, r2
   12954:	e59d600c 	ldr	r6, [sp, #12]
   12958:	e02ee004 	eor	lr, lr, r4
   1295c:	e08e2002 	add	r2, lr, r2
   12960:	e02ae006 	eor	lr, sl, r6
   12964:	e59d601c 	ldr	r6, [sp, #28]
   12968:	e02ee009 	eor	lr, lr, r9
   1296c:	e02ee006 	eor	lr, lr, r6
   12970:	e59da008 	ldr	sl, [sp, #8]
   12974:	e1a06fee 	ror	r6, lr, #31
   12978:	e0811de4 	add	r1, r1, r4, ror #27
   1297c:	e58d6024 	str	r6, [sp, #36]	; 0x24
   12980:	e1a04164 	ror	r4, r4, #2
   12984:	e08a600c 	add	r6, sl, ip
   12988:	e025e004 	eor	lr, r5, r4
   1298c:	e0863003 	add	r3, r6, r3
   12990:	e59d6010 	ldr	r6, [sp, #16]
   12994:	e02ee001 	eor	lr, lr, r1
   12998:	e08e3003 	add	r3, lr, r3
   1299c:	e02ae006 	eor	lr, sl, r6
   129a0:	e59da020 	ldr	sl, [sp, #32]
   129a4:	e02ee007 	eor	lr, lr, r7
   129a8:	e02ee00a 	eor	lr, lr, sl
   129ac:	e59da00c 	ldr	sl, [sp, #12]
   129b0:	e0822de1 	add	r2, r2, r1, ror #27
   129b4:	e08a600c 	add	r6, sl, ip
   129b8:	e1a01161 	ror	r1, r1, #2
   129bc:	e1a0efee 	ror	lr, lr, #31
   129c0:	e58de004 	str	lr, [sp, #4]
   129c4:	e0865005 	add	r5, r6, r5
   129c8:	e024e001 	eor	lr, r4, r1
   129cc:	e59d6014 	ldr	r6, [sp, #20]
   129d0:	e02ee002 	eor	lr, lr, r2
   129d4:	e08e5005 	add	r5, lr, r5
   129d8:	e02ae006 	eor	lr, sl, r6
   129dc:	e59da02c 	ldr	sl, [sp, #44]	; 0x2c
   129e0:	e0833de2 	add	r3, r3, r2, ror #27
   129e4:	e02ee00a 	eor	lr, lr, sl
   129e8:	e59da000 	ldr	sl, [sp]
   129ec:	e1a02162 	ror	r2, r2, #2
   129f0:	e02ee00a 	eor	lr, lr, sl
   129f4:	e0855de3 	add	r5, r5, r3, ror #27
   129f8:	e1a0afee 	ror	sl, lr, #31
   129fc:	e58da030 	str	sl, [sp, #48]	; 0x30
   12a00:	e59da010 	ldr	sl, [sp, #16]
   12a04:	e021e002 	eor	lr, r1, r2
   12a08:	e08a600c 	add	r6, sl, ip
   12a0c:	e0864004 	add	r4, r6, r4
   12a10:	e59d6018 	ldr	r6, [sp, #24]
   12a14:	e02ee003 	eor	lr, lr, r3
   12a18:	e08e4004 	add	r4, lr, r4
   12a1c:	e02ae006 	eor	lr, sl, r6
   12a20:	e59da024 	ldr	sl, [sp, #36]	; 0x24
   12a24:	e02ee000 	eor	lr, lr, r0
   12a28:	e02ee00a 	eor	lr, lr, sl
   12a2c:	e1a03163 	ror	r3, r3, #2
   12a30:	e1a06fee 	ror	r6, lr, #31
   12a34:	e59de014 	ldr	lr, [sp, #20]
   12a38:	e022a003 	eor	sl, r2, r3
   12a3c:	e58d6034 	str	r6, [sp, #52]	; 0x34
   12a40:	e08e600c 	add	r6, lr, ip
   12a44:	e0861001 	add	r1, r6, r1
   12a48:	e02aa005 	eor	sl, sl, r5
   12a4c:	e02e6008 	eor	r6, lr, r8
   12a50:	e08aa001 	add	sl, sl, r1
   12a54:	e59d1004 	ldr	r1, [sp, #4]
   12a58:	e026600b 	eor	r6, r6, fp
   12a5c:	e0266001 	eor	r6, r6, r1
   12a60:	e0844de5 	add	r4, r4, r5, ror #27
   12a64:	e1a01fe6 	ror	r1, r6, #31
   12a68:	e1a05165 	ror	r5, r5, #2
   12a6c:	e58d1038 	str	r1, [sp, #56]	; 0x38
   12a70:	e0231005 	eor	r1, r3, r5
   12a74:	e08aade4 	add	sl, sl, r4, ror #27
   12a78:	e0211004 	eor	r1, r1, r4
   12a7c:	e1a04164 	ror	r4, r4, #2
   12a80:	e58d4008 	str	r4, [sp, #8]
   12a84:	e59d4018 	ldr	r4, [sp, #24]
   12a88:	e59d6028 	ldr	r6, [sp, #40]	; 0x28
   12a8c:	e084e00c 	add	lr, r4, ip
   12a90:	e08e2002 	add	r2, lr, r2
   12a94:	e0811002 	add	r1, r1, r2
   12a98:	e59d201c 	ldr	r2, [sp, #28]
   12a9c:	e0244006 	eor	r4, r4, r6
   12aa0:	e0244002 	eor	r4, r4, r2
   12aa4:	e59d2030 	ldr	r2, [sp, #48]	; 0x30
   12aa8:	e59de008 	ldr	lr, [sp, #8]
   12aac:	e0244002 	eor	r4, r4, r2
   12ab0:	e025200e 	eor	r2, r5, lr
   12ab4:	e1a04fe4 	ror	r4, r4, #31
   12ab8:	e58d4028 	str	r4, [sp, #40]	; 0x28
   12abc:	e088400c 	add	r4, r8, ip
   12ac0:	e0843003 	add	r3, r4, r3
   12ac4:	e022200a 	eor	r2, r2, sl
   12ac8:	e0822003 	add	r2, r2, r3
   12acc:	e59d3020 	ldr	r3, [sp, #32]
   12ad0:	e0284009 	eor	r4, r8, r9
   12ad4:	e0244003 	eor	r4, r4, r3
   12ad8:	e59d3034 	ldr	r3, [sp, #52]	; 0x34
   12adc:	e0811dea 	add	r1, r1, sl, ror #27
   12ae0:	e0244003 	eor	r4, r4, r3
   12ae4:	e1a0a16a 	ror	sl, sl, #2
   12ae8:	e02e300a 	eor	r3, lr, sl
   12aec:	e0822de1 	add	r2, r2, r1, ror #27
   12af0:	e1a08fe4 	ror	r8, r4, #31
   12af4:	e1a0400e 	mov	r4, lr
   12af8:	e0233001 	eor	r3, r3, r1
   12afc:	e1a0e161 	ror	lr, r1, #2
   12b00:	e1a01006 	mov	r1, r6
   12b04:	e086600c 	add	r6, r6, ip
   12b08:	e0865005 	add	r5, r6, r5
   12b0c:	e0835005 	add	r5, r3, r5
   12b10:	e0213007 	eor	r3, r1, r7
   12b14:	e59d1000 	ldr	r1, [sp]
   12b18:	e59d6038 	ldr	r6, [sp, #56]	; 0x38
   12b1c:	e0233001 	eor	r3, r3, r1
   12b20:	e0233006 	eor	r3, r3, r6
   12b24:	e089100c 	add	r1, r9, ip
   12b28:	e1a06fe3 	ror	r6, r3, #31
   12b2c:	e58d6040 	str	r6, [sp, #64]	; 0x40
   12b30:	e02a600e 	eor	r6, sl, lr
   12b34:	e0814004 	add	r4, r1, r4
   12b38:	e0266002 	eor	r6, r6, r2
   12b3c:	e0866004 	add	r6, r6, r4
   12b40:	e59d402c 	ldr	r4, [sp, #44]	; 0x2c
   12b44:	e58d803c 	str	r8, [sp, #60]	; 0x3c
   12b48:	e59d8024 	ldr	r8, [sp, #36]	; 0x24
   12b4c:	e0291004 	eor	r1, r9, r4
   12b50:	e59d9028 	ldr	r9, [sp, #40]	; 0x28
   12b54:	e0211008 	eor	r1, r1, r8
   12b58:	e0211009 	eor	r1, r1, r9
   12b5c:	e0855de2 	add	r5, r5, r2, ror #27
   12b60:	e1a09fe1 	ror	r9, r1, #31
   12b64:	e58d902c 	str	r9, [sp, #44]	; 0x2c
   12b68:	e087100c 	add	r1, r7, ip
   12b6c:	e59d9004 	ldr	r9, [sp, #4]
   12b70:	e081a00a 	add	sl, r1, sl
   12b74:	e0277000 	eor	r7, r7, r0
   12b78:	e59d103c 	ldr	r1, [sp, #60]	; 0x3c
   12b7c:	e0277009 	eor	r7, r7, r9
   12b80:	e1a02162 	ror	r2, r2, #2
   12b84:	e0277001 	eor	r7, r7, r1
   12b88:	e02e3002 	eor	r3, lr, r2
   12b8c:	e0866de5 	add	r6, r6, r5, ror #27
   12b90:	e1a01fe7 	ror	r1, r7, #31
   12b94:	e0233005 	eor	r3, r3, r5
   12b98:	e1a09001 	mov	r9, r1
   12b9c:	e59d701c 	ldr	r7, [sp, #28]
   12ba0:	e1a05165 	ror	r5, r5, #2
   12ba4:	e083300a 	add	r3, r3, sl
   12ba8:	e084100c 	add	r1, r4, ip
   12bac:	e080c00c 	add	ip, r0, ip
   12bb0:	e0838de6 	add	r8, r3, r6, ror #27
   12bb4:	e0223005 	eor	r3, r2, r5
   12bb8:	e08c2002 	add	r2, ip, r2
   12bbc:	e59dc034 	ldr	ip, [sp, #52]	; 0x34
   12bc0:	e0200007 	eor	r0, r0, r7
   12bc4:	e0233006 	eor	r3, r3, r6
   12bc8:	e024a00b 	eor	sl, r4, fp
   12bcc:	e081100e 	add	r1, r1, lr
   12bd0:	e59d4030 	ldr	r4, [sp, #48]	; 0x30
   12bd4:	e020000c 	eor	r0, r0, ip
   12bd8:	e59dc02c 	ldr	ip, [sp, #44]	; 0x2c
   12bdc:	e1a06166 	ror	r6, r6, #2
   12be0:	e0831001 	add	r1, r3, r1
   12be4:	e59d3040 	ldr	r3, [sp, #64]	; 0x40
   12be8:	e02aa004 	eor	sl, sl, r4
   12bec:	e020000c 	eor	r0, r0, ip
   12bf0:	e025c006 	eor	ip, r5, r6
   12bf4:	e0811de8 	add	r1, r1, r8, ror #27
   12bf8:	e02aa003 	eor	sl, sl, r3
   12bfc:	e02cc008 	eor	ip, ip, r8
   12c00:	e1a00fe0 	ror	r0, r0, #31
   12c04:	e1a08168 	ror	r8, r8, #2
   12c08:	e08c2002 	add	r2, ip, r2
   12c0c:	e082cde1 	add	ip, r2, r1, ror #27
   12c10:	e30b2cdc 	movw	r2, #48348	; 0xbcdc
   12c14:	e1a04fea 	ror	r4, sl, #31
   12c18:	e58d0008 	str	r0, [sp, #8]
   12c1c:	e1a0e004 	mov	lr, r4
   12c20:	e1810008 	orr	r0, r1, r8
   12c24:	e3482f1b 	movt	r2, #36635	; 0x8f1b
   12c28:	e0000006 	and	r0, r0, r6
   12c2c:	e1a04161 	ror	r4, r1, #2
   12c30:	e0011008 	and	r1, r1, r8
   12c34:	e1801001 	orr	r1, r0, r1
   12c38:	e08b0002 	add	r0, fp, r2
   12c3c:	e0805005 	add	r5, r0, r5
   12c40:	e0811005 	add	r1, r1, r5
   12c44:	e59d5020 	ldr	r5, [sp, #32]
   12c48:	e59d3038 	ldr	r3, [sp, #56]	; 0x38
   12c4c:	e18c0004 	orr	r0, ip, r4
   12c50:	e02bb005 	eor	fp, fp, r5
   12c54:	e0000008 	and	r0, r0, r8
   12c58:	e02bb003 	eor	fp, fp, r3
   12c5c:	e00c3004 	and	r3, ip, r4
   12c60:	e1800003 	orr	r0, r0, r3
   12c64:	e0873002 	add	r3, r7, r2
   12c68:	e0836006 	add	r6, r3, r6
   12c6c:	e59d3000 	ldr	r3, [sp]
   12c70:	e0811dec 	add	r1, r1, ip, ror #27
   12c74:	e1a0c16c 	ror	ip, ip, #2
   12c78:	e027a003 	eor	sl, r7, r3
   12c7c:	e0800006 	add	r0, r0, r6
   12c80:	e181300c 	orr	r3, r1, ip
   12c84:	e59d6028 	ldr	r6, [sp, #40]	; 0x28
   12c88:	e0033004 	and	r3, r3, r4
   12c8c:	e0800de1 	add	r0, r0, r1, ror #27
   12c90:	e58d9020 	str	r9, [sp, #32]
   12c94:	e02bb009 	eor	fp, fp, r9
   12c98:	e1a09161 	ror	r9, r1, #2
   12c9c:	e001100c 	and	r1, r1, ip
   12ca0:	e02aa006 	eor	sl, sl, r6
   12ca4:	e1831001 	orr	r1, r3, r1
   12ca8:	e0853002 	add	r3, r5, r2
   12cac:	e0838008 	add	r8, r3, r8
   12cb0:	e02aa00e 	eor	sl, sl, lr
   12cb4:	e58de044 	str	lr, [sp, #68]	; 0x44
   12cb8:	e0811008 	add	r1, r1, r8
   12cbc:	e59d8024 	ldr	r8, [sp, #36]	; 0x24
   12cc0:	e59d703c 	ldr	r7, [sp, #60]	; 0x3c
   12cc4:	e1a0afea 	ror	sl, sl, #31
   12cc8:	e58da00c 	str	sl, [sp, #12]
   12ccc:	e59d6008 	ldr	r6, [sp, #8]
   12cd0:	e025a008 	eor	sl, r5, r8
   12cd4:	e1805009 	orr	r5, r0, r9
   12cd8:	e0003009 	and	r3, r0, r9
   12cdc:	e005500c 	and	r5, r5, ip
   12ce0:	e02aa007 	eor	sl, sl, r7
   12ce4:	e02ae006 	eor	lr, sl, r6
   12ce8:	e1855003 	orr	r5, r5, r3
   12cec:	e59d3000 	ldr	r3, [sp]
   12cf0:	e1a0afee 	ror	sl, lr, #31
   12cf4:	e083e002 	add	lr, r3, r2
   12cf8:	e08ee004 	add	lr, lr, r4
   12cfc:	e59d4004 	ldr	r4, [sp, #4]
   12d00:	e58da010 	str	sl, [sp, #16]
   12d04:	e023a004 	eor	sl, r3, r4
   12d08:	e59d3040 	ldr	r3, [sp, #64]	; 0x40
   12d0c:	e1a0bfeb 	ror	fp, fp, #31
   12d10:	e02aa003 	eor	sl, sl, r3
   12d14:	e0811de0 	add	r1, r1, r0, ror #27
   12d18:	e02a700b 	eor	r7, sl, fp
   12d1c:	e1a00160 	ror	r0, r0, #2
   12d20:	e59da030 	ldr	sl, [sp, #48]	; 0x30
   12d24:	e085500e 	add	r5, r5, lr
   12d28:	e181e000 	orr	lr, r1, r0
   12d2c:	e1a06161 	ror	r6, r1, #2
   12d30:	e00ee009 	and	lr, lr, r9
   12d34:	e0855de1 	add	r5, r5, r1, ror #27
   12d38:	e0011000 	and	r1, r1, r0
   12d3c:	e59d402c 	ldr	r4, [sp, #44]	; 0x2c
   12d40:	e1a03fe7 	ror	r3, r7, #31
   12d44:	e58d3014 	str	r3, [sp, #20]
   12d48:	e18e1001 	orr	r1, lr, r1
   12d4c:	e0883002 	add	r3, r8, r2
   12d50:	e028e00a 	eor	lr, r8, sl
   12d54:	e59d800c 	ldr	r8, [sp, #12]
   12d58:	e02ee004 	eor	lr, lr, r4
   12d5c:	e02e4008 	eor	r4, lr, r8
   12d60:	e083c00c 	add	ip, r3, ip
   12d64:	e081100c 	add	r1, r1, ip
   12d68:	e1853006 	orr	r3, r5, r6
   12d6c:	e1a0cfe4 	ror	ip, r4, #31
   12d70:	e0033000 	and	r3, r3, r0
   12d74:	e58dc000 	str	ip, [sp]
   12d78:	e005c006 	and	ip, r5, r6
   12d7c:	e183300c 	orr	r3, r3, ip
   12d80:	e59dc004 	ldr	ip, [sp, #4]
   12d84:	e59d4010 	ldr	r4, [sp, #16]
   12d88:	e08c7002 	add	r7, ip, r2
   12d8c:	e0877009 	add	r7, r7, r9
   12d90:	e0833007 	add	r3, r3, r7
   12d94:	e59d7034 	ldr	r7, [sp, #52]	; 0x34
   12d98:	e0811de5 	add	r1, r1, r5, ror #27
   12d9c:	e02ce007 	eor	lr, ip, r7
   12da0:	e59dc020 	ldr	ip, [sp, #32]
   12da4:	e1a05165 	ror	r5, r5, #2
   12da8:	e02ee00c 	eor	lr, lr, ip
   12dac:	e02ee004 	eor	lr, lr, r4
   12db0:	e59d8038 	ldr	r8, [sp, #56]	; 0x38
   12db4:	e1a04fee 	ror	r4, lr, #31
   12db8:	e181e005 	orr	lr, r1, r5
   12dbc:	e0833de1 	add	r3, r3, r1, ror #27
   12dc0:	e00ee006 	and	lr, lr, r6
   12dc4:	e08ac002 	add	ip, sl, r2
   12dc8:	e58d4004 	str	r4, [sp, #4]
   12dcc:	e1a04161 	ror	r4, r1, #2
   12dd0:	e0011005 	and	r1, r1, r5
   12dd4:	e18e1001 	orr	r1, lr, r1
   12dd8:	e08c0000 	add	r0, ip, r0
   12ddc:	e02ae008 	eor	lr, sl, r8
   12de0:	e59da044 	ldr	sl, [sp, #68]	; 0x44
   12de4:	e0810000 	add	r0, r1, r0
   12de8:	e59d1014 	ldr	r1, [sp, #20]
   12dec:	e02ee00a 	eor	lr, lr, sl
   12df0:	e02ee001 	eor	lr, lr, r1
   12df4:	e183c004 	orr	ip, r3, r4
   12df8:	e1a01fee 	ror	r1, lr, #31
   12dfc:	e00cc005 	and	ip, ip, r5
   12e00:	e58d1018 	str	r1, [sp, #24]
   12e04:	e0031004 	and	r1, r3, r4
   12e08:	e59d9028 	ldr	r9, [sp, #40]	; 0x28
   12e0c:	e18cc001 	orr	ip, ip, r1
   12e10:	e0871002 	add	r1, r7, r2
   12e14:	e0811006 	add	r1, r1, r6
   12e18:	e59d6008 	ldr	r6, [sp, #8]
   12e1c:	e027e009 	eor	lr, r7, r9
   12e20:	e08c1001 	add	r1, ip, r1
   12e24:	e59dc000 	ldr	ip, [sp]
   12e28:	e02ee006 	eor	lr, lr, r6
   12e2c:	e02ee00c 	eor	lr, lr, ip
   12e30:	e0800de3 	add	r0, r0, r3, ror #27
   12e34:	e1a03163 	ror	r3, r3, #2
   12e38:	e1a06fee 	ror	r6, lr, #31
   12e3c:	e180e003 	orr	lr, r0, r3
   12e40:	e1a0c160 	ror	ip, r0, #2
   12e44:	e00ee004 	and	lr, lr, r4
   12e48:	e0811de0 	add	r1, r1, r0, ror #27
   12e4c:	e0000003 	and	r0, r0, r3
   12e50:	e59d703c 	ldr	r7, [sp, #60]	; 0x3c
   12e54:	e18e0000 	orr	r0, lr, r0
   12e58:	e088e002 	add	lr, r8, r2
   12e5c:	e08e5005 	add	r5, lr, r5
   12e60:	e58d601c 	str	r6, [sp, #28]
   12e64:	e0805005 	add	r5, r0, r5
   12e68:	e0286007 	eor	r6, r8, r7
   12e6c:	e59d0004 	ldr	r0, [sp, #4]
   12e70:	e026600b 	eor	r6, r6, fp
   12e74:	e026e000 	eor	lr, r6, r0
   12e78:	e001a00c 	and	sl, r1, ip
   12e7c:	e1a00fee 	ror	r0, lr, #31
   12e80:	e58d0024 	str	r0, [sp, #36]	; 0x24
   12e84:	e58d0060 	str	r0, [sp, #96]	; 0x60
   12e88:	e181000c 	orr	r0, r1, ip
   12e8c:	e59d8040 	ldr	r8, [sp, #64]	; 0x40
   12e90:	e0000003 	and	r0, r0, r3
   12e94:	e180000a 	orr	r0, r0, sl
   12e98:	e089a002 	add	sl, r9, r2
   12e9c:	e08aa004 	add	sl, sl, r4
   12ea0:	e080a00a 	add	sl, r0, sl
   12ea4:	e59d000c 	ldr	r0, [sp, #12]
   12ea8:	e0294008 	eor	r4, r9, r8
   12eac:	e59d9018 	ldr	r9, [sp, #24]
   12eb0:	e0244000 	eor	r4, r4, r0
   12eb4:	e0244009 	eor	r4, r4, r9
   12eb8:	e0855de1 	add	r5, r5, r1, ror #27
   12ebc:	e1a01161 	ror	r1, r1, #2
   12ec0:	e1a09fe4 	ror	r9, r4, #31
   12ec4:	e185e001 	orr	lr, r5, r1
   12ec8:	e08aade5 	add	sl, sl, r5, ror #27
   12ecc:	e00ee00c 	and	lr, lr, ip
   12ed0:	e58d9028 	str	r9, [sp, #40]	; 0x28
   12ed4:	e0870002 	add	r0, r7, r2
   12ed8:	e58d9064 	str	r9, [sp, #100]	; 0x64
   12edc:	e1a09165 	ror	r9, r5, #2
   12ee0:	e0055001 	and	r5, r5, r1
   12ee4:	e18e5005 	orr	r5, lr, r5
   12ee8:	e0800003 	add	r0, r0, r3
   12eec:	e0850000 	add	r0, r5, r0
   12ef0:	e59d502c 	ldr	r5, [sp, #44]	; 0x2c
   12ef4:	e59d3010 	ldr	r3, [sp, #16]
   12ef8:	e0274005 	eor	r4, r7, r5
   12efc:	e0244003 	eor	r4, r4, r3
   12f00:	e59d701c 	ldr	r7, [sp, #28]
   12f04:	e18a3009 	orr	r3, sl, r9
   12f08:	e00a6009 	and	r6, sl, r9
   12f0c:	e0033001 	and	r3, r3, r1
   12f10:	e1833006 	orr	r3, r3, r6
   12f14:	e0244007 	eor	r4, r4, r7
   12f18:	e0886002 	add	r6, r8, r2
   12f1c:	e086600c 	add	r6, r6, ip
   12f20:	e59dc020 	ldr	ip, [sp, #32]
   12f24:	e59d7014 	ldr	r7, [sp, #20]
   12f28:	e1a04fe4 	ror	r4, r4, #31
   12f2c:	e0800dea 	add	r0, r0, sl, ror #27
   12f30:	e58d402c 	str	r4, [sp, #44]	; 0x2c
   12f34:	e1a0a16a 	ror	sl, sl, #2
   12f38:	e58d4068 	str	r4, [sp, #104]	; 0x68
   12f3c:	e0836006 	add	r6, r3, r6
   12f40:	e59d4024 	ldr	r4, [sp, #36]	; 0x24
   12f44:	e028300c 	eor	r3, r8, ip
   12f48:	e023c007 	eor	ip, r3, r7
   12f4c:	e59d8044 	ldr	r8, [sp, #68]	; 0x44
   12f50:	e180e00a 	orr	lr, r0, sl
   12f54:	e1a07160 	ror	r7, r0, #2
   12f58:	e00ee009 	and	lr, lr, r9
   12f5c:	e0866de0 	add	r6, r6, r0, ror #27
   12f60:	e000000a 	and	r0, r0, sl
   12f64:	e59d3000 	ldr	r3, [sp]
   12f68:	e02cc004 	eor	ip, ip, r4
   12f6c:	e0854002 	add	r4, r5, r2
   12f70:	e18e0000 	orr	r0, lr, r0
   12f74:	e0844001 	add	r4, r4, r1
   12f78:	e0251008 	eor	r1, r5, r8
   12f7c:	e0804004 	add	r4, r0, r4
   12f80:	e0210003 	eor	r0, r1, r3
   12f84:	e59d3028 	ldr	r3, [sp, #40]	; 0x28
   12f88:	e59d1020 	ldr	r1, [sp, #32]
   12f8c:	e0200003 	eor	r0, r0, r3
   12f90:	e1863007 	orr	r3, r6, r7
   12f94:	e006e007 	and	lr, r6, r7
   12f98:	e003300a 	and	r3, r3, sl
   12f9c:	e183300e 	orr	r3, r3, lr
   12fa0:	e081e002 	add	lr, r1, r2
   12fa4:	e08ee009 	add	lr, lr, r9
   12fa8:	e083e00e 	add	lr, r3, lr
   12fac:	e59d3008 	ldr	r3, [sp, #8]
   12fb0:	e59d9004 	ldr	r9, [sp, #4]
   12fb4:	e0844de6 	add	r4, r4, r6, ror #27
   12fb8:	e0213003 	eor	r3, r1, r3
   12fbc:	e1a06166 	ror	r6, r6, #2
   12fc0:	e0235009 	eor	r5, r3, r9
   12fc4:	e1843006 	orr	r3, r4, r6
   12fc8:	e1a01164 	ror	r1, r4, #2
   12fcc:	e0033007 	and	r3, r3, r7
   12fd0:	e08eede4 	add	lr, lr, r4, ror #27
   12fd4:	e0044006 	and	r4, r4, r6
   12fd8:	e1834004 	orr	r4, r3, r4
   12fdc:	e1a03008 	mov	r3, r8
   12fe0:	e0888002 	add	r8, r8, r2
   12fe4:	e088800a 	add	r8, r8, sl
   12fe8:	e0848008 	add	r8, r4, r8
   12fec:	e59d4018 	ldr	r4, [sp, #24]
   12ff0:	e023a00b 	eor	sl, r3, fp
   12ff4:	e1a0cfec 	ror	ip, ip, #31
   12ff8:	e02aa004 	eor	sl, sl, r4
   12ffc:	e59d902c 	ldr	r9, [sp, #44]	; 0x2c
   13000:	e02aa00c 	eor	sl, sl, ip
   13004:	e18e3001 	orr	r3, lr, r1
   13008:	e0255009 	eor	r5, r5, r9
   1300c:	e0033006 	and	r3, r3, r6
   13010:	e1a09fea 	ror	r9, sl, #31
   13014:	e59da008 	ldr	sl, [sp, #8]
   13018:	e00e4001 	and	r4, lr, r1
   1301c:	e1833004 	orr	r3, r3, r4
   13020:	e08a4002 	add	r4, sl, r2
   13024:	e0844007 	add	r4, r4, r7
   13028:	e0834004 	add	r4, r3, r4
   1302c:	e59d300c 	ldr	r3, [sp, #12]
   13030:	e1a00fe0 	ror	r0, r0, #31
   13034:	e02a3003 	eor	r3, sl, r3
   13038:	e59da01c 	ldr	sl, [sp, #28]
   1303c:	e08b7002 	add	r7, fp, r2
   13040:	e023300a 	eor	r3, r3, sl
   13044:	e0233000 	eor	r3, r3, r0
   13048:	e0888dee 	add	r8, r8, lr, ror #27
   1304c:	e0877006 	add	r7, r7, r6
   13050:	e1a0e16e 	ror	lr, lr, #2
   13054:	e59d6010 	ldr	r6, [sp, #16]
   13058:	e1a0afe3 	ror	sl, r3, #31
   1305c:	e188300e 	orr	r3, r8, lr
   13060:	e0844de8 	add	r4, r4, r8, ror #27
   13064:	e0033001 	and	r3, r3, r1
   13068:	e58da008 	str	sl, [sp, #8]
   1306c:	e58da07c 	str	sl, [sp, #124]	; 0x7c
   13070:	e02bb006 	eor	fp, fp, r6
   13074:	e1a0a168 	ror	sl, r8, #2
   13078:	e008800e 	and	r8, r8, lr
   1307c:	e59d6024 	ldr	r6, [sp, #36]	; 0x24
   13080:	e1838008 	orr	r8, r3, r8
   13084:	e1a05fe5 	ror	r5, r5, #31
   13088:	e184300a 	orr	r3, r4, sl
   1308c:	e0887007 	add	r7, r8, r7
   13090:	e003300e 	and	r3, r3, lr
   13094:	e59d800c 	ldr	r8, [sp, #12]
   13098:	e02bb006 	eor	fp, fp, r6
   1309c:	e02bb005 	eor	fp, fp, r5
   130a0:	e004600a 	and	r6, r4, sl
   130a4:	e1833006 	orr	r3, r3, r6
   130a8:	e0886002 	add	r6, r8, r2
   130ac:	e1a0bfeb 	ror	fp, fp, #31
   130b0:	e0866001 	add	r6, r6, r1
   130b4:	e58dc06c 	str	ip, [sp, #108]	; 0x6c
   130b8:	e58d0070 	str	r0, [sp, #112]	; 0x70
   130bc:	e58d5074 	str	r5, [sp, #116]	; 0x74
   130c0:	e58d9078 	str	r9, [sp, #120]	; 0x78
   130c4:	e58db080 	str	fp, [sp, #128]	; 0x80
   130c8:	e0836006 	add	r6, r3, r6
   130cc:	e59d3014 	ldr	r3, [sp, #20]
   130d0:	e59d1028 	ldr	r1, [sp, #40]	; 0x28
   130d4:	e0288003 	eor	r8, r8, r3
   130d8:	e0288001 	eor	r8, r8, r1
   130dc:	e0288009 	eor	r8, r8, r9
   130e0:	e0877de4 	add	r7, r7, r4, ror #27
   130e4:	e1a04164 	ror	r4, r4, #2
   130e8:	e1a08fe8 	ror	r8, r8, #31
   130ec:	e1871004 	orr	r1, r7, r4
   130f0:	e0866de7 	add	r6, r6, r7, ror #27
   130f4:	e001100a 	and	r1, r1, sl
   130f8:	e58d800c 	str	r8, [sp, #12]
   130fc:	e58d8084 	str	r8, [sp, #132]	; 0x84
   13100:	e1a08167 	ror	r8, r7, #2
   13104:	e0077004 	and	r7, r7, r4
   13108:	e1817007 	orr	r7, r1, r7
   1310c:	e59d1010 	ldr	r1, [sp, #16]
   13110:	e0813002 	add	r3, r1, r2
   13114:	e083300e 	add	r3, r3, lr
   13118:	e0873003 	add	r3, r7, r3
   1311c:	e59d7014 	ldr	r7, [sp, #20]
   13120:	e0833de6 	add	r3, r3, r6, ror #27
   13124:	e0872002 	add	r2, r7, r2
   13128:	e082200a 	add	r2, r2, sl
   1312c:	e59da000 	ldr	sl, [sp]
   13130:	e021e00a 	eor	lr, r1, sl
   13134:	e59da02c 	ldr	sl, [sp, #44]	; 0x2c
   13138:	e59d1004 	ldr	r1, [sp, #4]
   1313c:	e02ee00a 	eor	lr, lr, sl
   13140:	e59da008 	ldr	sl, [sp, #8]
   13144:	e0277001 	eor	r7, r7, r1
   13148:	e1861008 	orr	r1, r6, r8
   1314c:	e02ee00a 	eor	lr, lr, sl
   13150:	e0011004 	and	r1, r1, r4
   13154:	e006a008 	and	sl, r6, r8
   13158:	e181100a 	orr	r1, r1, sl
   1315c:	e0811002 	add	r1, r1, r2
   13160:	e30c21d6 	movw	r2, #49622	; 0xc1d6
   13164:	e34c2a62 	movt	r2, #51810	; 0xca62
   13168:	e027700c 	eor	r7, r7, ip
   1316c:	e027700b 	eor	r7, r7, fp
   13170:	e08bb002 	add	fp, fp, r2
   13174:	e58db014 	str	fp, [sp, #20]
   13178:	e59db048 	ldr	fp, [sp, #72]	; 0x48
   1317c:	e1a06166 	ror	r6, r6, #2
   13180:	e08cc002 	add	ip, ip, r2
   13184:	e08bb002 	add	fp, fp, r2
   13188:	e58dc010 	str	ip, [sp, #16]
   1318c:	e028c006 	eor	ip, r8, r6
   13190:	e0811de3 	add	r1, r1, r3, ror #27
   13194:	e59da02c 	ldr	sl, [sp, #44]	; 0x2c
   13198:	e02cc003 	eor	ip, ip, r3
   1319c:	e58db02c 	str	fp, [sp, #44]	; 0x2c
   131a0:	e1a0b163 	ror	fp, r3, #2
   131a4:	e59d3000 	ldr	r3, [sp]
   131a8:	e1a0efee 	ror	lr, lr, #31
   131ac:	e0833002 	add	r3, r3, r2
   131b0:	e0833004 	add	r3, r3, r4
   131b4:	e08cc003 	add	ip, ip, r3
   131b8:	e59d4018 	ldr	r4, [sp, #24]
   131bc:	e59d3000 	ldr	r3, [sp]
   131c0:	e08ccde1 	add	ip, ip, r1, ror #27
   131c4:	e0234004 	eor	r4, r3, r4
   131c8:	e0244000 	eor	r4, r4, r0
   131cc:	e0800002 	add	r0, r0, r2
   131d0:	e58d0000 	str	r0, [sp]
   131d4:	e59d000c 	ldr	r0, [sp, #12]
   131d8:	e59d3004 	ldr	r3, [sp, #4]
   131dc:	e0244000 	eor	r4, r4, r0
   131e0:	e0800002 	add	r0, r0, r2
   131e4:	e58d000c 	str	r0, [sp, #12]
   131e8:	e0833002 	add	r3, r3, r2
   131ec:	e026000b 	eor	r0, r6, fp
   131f0:	e0833008 	add	r3, r3, r8
   131f4:	e0200001 	eor	r0, r0, r1
   131f8:	e59d801c 	ldr	r8, [sp, #28]
   131fc:	e0800003 	add	r0, r0, r3
   13200:	e59d3004 	ldr	r3, [sp, #4]
   13204:	e1a01161 	ror	r1, r1, #2
   13208:	e0233008 	eor	r3, r3, r8
   1320c:	e0233005 	eor	r3, r3, r5
   13210:	e023300e 	eor	r3, r3, lr
   13214:	e08e8002 	add	r8, lr, r2
   13218:	e1a03fe3 	ror	r3, r3, #31
   1321c:	e58d8004 	str	r8, [sp, #4]
   13220:	e59d8018 	ldr	r8, [sp, #24]
   13224:	e58de088 	str	lr, [sp, #136]	; 0x88
   13228:	e083e002 	add	lr, r3, r2
   1322c:	e58d3094 	str	r3, [sp, #148]	; 0x94
   13230:	e58de020 	str	lr, [sp, #32]
   13234:	e02b3001 	eor	r3, fp, r1
   13238:	e088e002 	add	lr, r8, r2
   1323c:	e023300c 	eor	r3, r3, ip
   13240:	e08e6006 	add	r6, lr, r6
   13244:	e0836006 	add	r6, r3, r6
   13248:	e59d3024 	ldr	r3, [sp, #36]	; 0x24
   1324c:	e1a07fe7 	ror	r7, r7, #31
   13250:	e0288003 	eor	r8, r8, r3
   13254:	e0288009 	eor	r8, r8, r9
   13258:	e0288007 	eor	r8, r8, r7
   1325c:	e1a04fe4 	ror	r4, r4, #31
   13260:	e1a08fe8 	ror	r8, r8, #31
   13264:	e58d708c 	str	r7, [sp, #140]	; 0x8c
   13268:	e0877002 	add	r7, r7, r2
   1326c:	e58d4090 	str	r4, [sp, #144]	; 0x90
   13270:	e58d7018 	str	r7, [sp, #24]
   13274:	e0887002 	add	r7, r8, r2
   13278:	e58d7024 	str	r7, [sp, #36]	; 0x24
   1327c:	e59d701c 	ldr	r7, [sp, #28]
   13280:	e0800dec 	add	r0, r0, ip, ror #27
   13284:	e083e002 	add	lr, r3, r2
   13288:	e1a0c16c 	ror	ip, ip, #2
   1328c:	e08ee001 	add	lr, lr, r1
   13290:	e0873002 	add	r3, r7, r2
   13294:	e021100c 	eor	r1, r1, ip
   13298:	e083300b 	add	r3, r3, fp
   1329c:	e0211000 	eor	r1, r1, r0
   132a0:	e0811003 	add	r1, r1, r3
   132a4:	e59d3028 	ldr	r3, [sp, #40]	; 0x28
   132a8:	e0866de0 	add	r6, r6, r0, ror #27
   132ac:	e58d8098 	str	r8, [sp, #152]	; 0x98
   132b0:	e1a00160 	ror	r0, r0, #2
   132b4:	e0838002 	add	r8, r3, r2
   132b8:	e088800c 	add	r8, r8, ip
   132bc:	e02cc000 	eor	ip, ip, r0
   132c0:	e0811de6 	add	r1, r1, r6, ror #27
   132c4:	e08aa002 	add	sl, sl, r2
   132c8:	e02cc006 	eor	ip, ip, r6
   132cc:	e1a06166 	ror	r6, r6, #2
   132d0:	e08aa000 	add	sl, sl, r0
   132d4:	e0200006 	eor	r0, r0, r6
   132d8:	e0200001 	eor	r0, r0, r1
   132dc:	e08cc00e 	add	ip, ip, lr
   132e0:	e0800008 	add	r0, r0, r8
   132e4:	e59d8010 	ldr	r8, [sp, #16]
   132e8:	e08ccde1 	add	ip, ip, r1, ror #27
   132ec:	e1a01161 	ror	r1, r1, #2
   132f0:	e0888006 	add	r8, r8, r6
   132f4:	e0277003 	eor	r7, r7, r3
   132f8:	e0266001 	eor	r6, r6, r1
   132fc:	e59d3000 	ldr	r3, [sp]
   13300:	e0800dec 	add	r0, r0, ip, ror #27
   13304:	e026600c 	eor	r6, r6, ip
   13308:	e1a0c16c 	ror	ip, ip, #2
   1330c:	e083b001 	add	fp, r3, r1
   13310:	e086600a 	add	r6, r6, sl
   13314:	e021100c 	eor	r1, r1, ip
   13318:	e0866de0 	add	r6, r6, r0, ror #27
   1331c:	e0855002 	add	r5, r5, r2
   13320:	e0211000 	eor	r1, r1, r0
   13324:	e1a00160 	ror	r0, r0, #2
   13328:	e085500c 	add	r5, r5, ip
   1332c:	e0811008 	add	r1, r1, r8
   13330:	e02cc000 	eor	ip, ip, r0
   13334:	e0811de6 	add	r1, r1, r6, ror #27
   13338:	e59d3008 	ldr	r3, [sp, #8]
   1333c:	e0899002 	add	r9, r9, r2
   13340:	e02cc006 	eor	ip, ip, r6
   13344:	e1a06166 	ror	r6, r6, #2
   13348:	e0899000 	add	r9, r9, r0
   1334c:	e08cc00b 	add	ip, ip, fp
   13350:	e0200006 	eor	r0, r0, r6
   13354:	e08ccde1 	add	ip, ip, r1, ror #27
   13358:	e0200001 	eor	r0, r0, r1
   1335c:	e0277003 	eor	r7, r7, r3
   13360:	e1a01161 	ror	r1, r1, #2
   13364:	e0833002 	add	r3, r3, r2
   13368:	e59db014 	ldr	fp, [sp, #20]
   1336c:	e0833006 	add	r3, r3, r6
   13370:	e0800005 	add	r0, r0, r5
   13374:	e0266001 	eor	r6, r6, r1
   13378:	e0800dec 	add	r0, r0, ip, ror #27
   1337c:	e026600c 	eor	r6, r6, ip
   13380:	e1a0c16c 	ror	ip, ip, #2
   13384:	e08bb001 	add	fp, fp, r1
   13388:	e021100c 	eor	r1, r1, ip
   1338c:	e0211000 	eor	r1, r1, r0
   13390:	e0869009 	add	r9, r6, r9
   13394:	e0811003 	add	r1, r1, r3
   13398:	e59d300c 	ldr	r3, [sp, #12]
   1339c:	e0899de0 	add	r9, r9, r0, ror #27
   133a0:	e1a00160 	ror	r0, r0, #2
   133a4:	e083800c 	add	r8, r3, ip
   133a8:	e59d3004 	ldr	r3, [sp, #4]
   133ac:	e02cc000 	eor	ip, ip, r0
   133b0:	e0811de9 	add	r1, r1, r9, ror #27
   133b4:	e02cc009 	eor	ip, ip, r9
   133b8:	e1a09169 	ror	r9, r9, #2
   133bc:	e083e000 	add	lr, r3, r0
   133c0:	e59d6018 	ldr	r6, [sp, #24]
   133c4:	e08cc00b 	add	ip, ip, fp
   133c8:	e0200009 	eor	r0, r0, r9
   133cc:	e08ccde1 	add	ip, ip, r1, ror #27
   133d0:	e0200001 	eor	r0, r0, r1
   133d4:	e1a01161 	ror	r1, r1, #2
   133d8:	e0865009 	add	r5, r6, r9
   133dc:	e0800008 	add	r0, r0, r8
   133e0:	e0299001 	eor	r9, r9, r1
   133e4:	e0800dec 	add	r0, r0, ip, ror #27
   133e8:	e0842002 	add	r2, r4, r2
   133ec:	e029900c 	eor	r9, r9, ip
   133f0:	e1a0c16c 	ror	ip, ip, #2
   133f4:	e59d3020 	ldr	r3, [sp, #32]
   133f8:	e089900e 	add	r9, r9, lr
   133fc:	e0822001 	add	r2, r2, r1
   13400:	e021100c 	eor	r1, r1, ip
   13404:	e0899de0 	add	r9, r9, r0, ror #27
   13408:	e0211000 	eor	r1, r1, r0
   1340c:	e1a00160 	ror	r0, r0, #2
   13410:	e0277004 	eor	r7, r7, r4
   13414:	e083300c 	add	r3, r3, ip
   13418:	e59d4024 	ldr	r4, [sp, #36]	; 0x24
   1341c:	e0811005 	add	r1, r1, r5
   13420:	e02cc000 	eor	ip, ip, r0
   13424:	e0811de9 	add	r1, r1, r9, ror #27
   13428:	e02cc009 	eor	ip, ip, r9
   1342c:	e1a09169 	ror	r9, r9, #2
   13430:	e0848000 	add	r8, r4, r0
   13434:	e08c2002 	add	r2, ip, r2
   13438:	e0200009 	eor	r0, r0, r9
   1343c:	e0822de1 	add	r2, r2, r1, ror #27
   13440:	e0200001 	eor	r0, r0, r1
   13444:	e0803003 	add	r3, r0, r3
   13448:	e0833de2 	add	r3, r3, r2, ror #27
   1344c:	e59db02c 	ldr	fp, [sp, #44]	; 0x2c
   13450:	e59d5050 	ldr	r5, [sp, #80]	; 0x50
   13454:	e59de05c 	ldr	lr, [sp, #92]	; 0x5c
   13458:	e1a07fe7 	ror	r7, r7, #31
   1345c:	e085c163 	add	ip, r5, r3, ror #2
   13460:	e1a01161 	ror	r1, r1, #2
   13464:	e08b0007 	add	r0, fp, r7
   13468:	e0800009 	add	r0, r0, r9
   1346c:	e58ec008 	str	ip, [lr, #8]
   13470:	e0299001 	eor	r9, r9, r1
   13474:	e59dc054 	ldr	ip, [sp, #84]	; 0x54
   13478:	e0299002 	eor	r9, r9, r2
   1347c:	e1a02162 	ror	r2, r2, #2
   13480:	e08cc002 	add	ip, ip, r2
   13484:	e0898008 	add	r8, r9, r8
   13488:	e0222001 	eor	r2, r2, r1
   1348c:	e0888de3 	add	r8, r8, r3, ror #27
   13490:	e58ec00c 	str	ip, [lr, #12]
   13494:	e0233002 	eor	r3, r3, r2
   13498:	e59dc058 	ldr	ip, [sp, #88]	; 0x58
   1349c:	e59d204c 	ldr	r2, [sp, #76]	; 0x4c
   134a0:	e0803003 	add	r3, r0, r3
   134a4:	e28d0060 	add	r0, sp, #96	; 0x60
   134a8:	e08c1001 	add	r1, ip, r1
   134ac:	e082c008 	add	ip, r2, r8
   134b0:	e3a02040 	mov	r2, #64	; 0x40
   134b4:	e0838de8 	add	r8, r3, r8, ror #27
   134b8:	e58e1010 	str	r1, [lr, #16]
   134bc:	e3a01000 	mov	r1, #0
   134c0:	e88e1100 	stm	lr, {r8, ip}
   134c4:	e58d709c 	str	r7, [sp, #156]	; 0x9c
   134c8:	ebfff222 	bl	fd58 <memset>
   134cc:	e28dd0a4 	add	sp, sp, #164	; 0xa4
   134d0:	e8bd8ff0 	pop	{r4, r5, r6, r7, r8, r9, sl, fp, pc}

000134d4 <SHA1Init>:
   134d4:	e3023301 	movw	r3, #8961	; 0x2301
   134d8:	e30acb89 	movw	ip, #43913	; 0xab89
   134dc:	e3463745 	movt	r3, #26437	; 0x6745
   134e0:	e3051476 	movw	r1, #21622	; 0x5476
   134e4:	e5803000 	str	r3, [r0]
   134e8:	e30d3cfe 	movw	r3, #56574	; 0xdcfe
   134ec:	e34938ba 	movt	r3, #39098	; 0x98ba
   134f0:	e30e21f0 	movw	r2, #57840	; 0xe1f0
   134f4:	e34ecfcd 	movt	ip, #61389	; 0xefcd
   134f8:	e3411032 	movt	r1, #4146	; 0x1032
   134fc:	e34c23d2 	movt	r2, #50130	; 0xc3d2
   13500:	e5803008 	str	r3, [r0, #8]
   13504:	e3a03000 	mov	r3, #0
   13508:	e580c004 	str	ip, [r0, #4]
   1350c:	e580100c 	str	r1, [r0, #12]
   13510:	e5802010 	str	r2, [r0, #16]
   13514:	e5803018 	str	r3, [r0, #24]
   13518:	e5803014 	str	r3, [r0, #20]
   1351c:	e12fff1e 	bx	lr

00013520 <SHA1Update>:
   13520:	e92d41f0 	push	{r4, r5, r6, r7, r8, lr}
   13524:	e1a05000 	mov	r5, r0
   13528:	e5900014 	ldr	r0, [r0, #20]
   1352c:	e1a06002 	mov	r6, r2
   13530:	e1a03182 	lsl	r3, r2, #3
   13534:	e1a07001 	mov	r7, r1
   13538:	e0933000 	adds	r3, r3, r0
   1353c:	e5853014 	str	r3, [r5, #20]
   13540:	e5953018 	ldr	r3, [r5, #24]
   13544:	e7e581d0 	ubfx	r8, r0, #3, #6
   13548:	22833001 	addcs	r3, r3, #1
   1354c:	e0833ea2 	add	r3, r3, r2, lsr #29
   13550:	e5853018 	str	r3, [r5, #24]
   13554:	e0823008 	add	r3, r2, r8
   13558:	e353003f 	cmp	r3, #63	; 0x3f
   1355c:	9288001c 	addls	r0, r8, #28
   13560:	8a000004 	bhi	13578 <SHA1Update+0x58>
   13564:	e0850000 	add	r0, r5, r0
   13568:	e1a02006 	mov	r2, r6
   1356c:	e1a01007 	mov	r1, r7
   13570:	e8bd41f0 	pop	{r4, r5, r6, r7, r8, lr}
   13574:	eafff22e 	b	fe34 <memcpy>
   13578:	e2684040 	rsb	r4, r8, #64	; 0x40
   1357c:	e288001c 	add	r0, r8, #28
   13580:	e0850000 	add	r0, r5, r0
   13584:	e1a02004 	mov	r2, r4
   13588:	ebfff229 	bl	fe34 <memcpy>
   1358c:	e1a00005 	mov	r0, r5
   13590:	e285101c 	add	r1, r5, #28
   13594:	ebfffb15 	bl	121f0 <SHA1Transform>
   13598:	e268307f 	rsb	r3, r8, #127	; 0x7f
   1359c:	e1560003 	cmp	r6, r3
   135a0:	90877004 	addls	r7, r7, r4
   135a4:	92480040 	subls	r0, r8, #64	; 0x40
   135a8:	90866000 	addls	r6, r6, r0
   135ac:	93a0001c 	movls	r0, #28
   135b0:	9affffeb 	bls	13564 <SHA1Update+0x44>
   135b4:	e0871004 	add	r1, r7, r4
   135b8:	e1a00005 	mov	r0, r5
   135bc:	ebfffb0b 	bl	121f0 <SHA1Transform>
   135c0:	e284307f 	add	r3, r4, #127	; 0x7f
   135c4:	e2844040 	add	r4, r4, #64	; 0x40
   135c8:	e1560003 	cmp	r6, r3
   135cc:	8afffff8 	bhi	135b4 <SHA1Update+0x94>
   135d0:	e0877004 	add	r7, r7, r4
   135d4:	e3a0001c 	mov	r0, #28
   135d8:	e0466004 	sub	r6, r6, r4
   135dc:	eaffffe0 	b	13564 <SHA1Update+0x44>

000135e0 <SHA1Final>:
   135e0:	e92d41f0 	push	{r4, r5, r6, r7, r8, lr}
   135e4:	e24dd010 	sub	sp, sp, #16
   135e8:	e28d5008 	add	r5, sp, #8
   135ec:	e1a06000 	mov	r6, r0
   135f0:	e1a04001 	mov	r4, r1
   135f4:	e1a00005 	mov	r0, r5
   135f8:	e3a02000 	mov	r2, #0
   135fc:	e1e03002 	mvn	r3, r2
   13600:	e3520003 	cmp	r2, #3
   13604:	83a01000 	movhi	r1, #0
   13608:	93a01001 	movls	r1, #1
   1360c:	e2033003 	and	r3, r3, #3
   13610:	e2822001 	add	r2, r2, #1
   13614:	e0841101 	add	r1, r4, r1, lsl #2
   13618:	e3520008 	cmp	r2, #8
   1361c:	e1a03183 	lsl	r3, r3, #3
   13620:	e5911014 	ldr	r1, [r1, #20]
   13624:	e1a03331 	lsr	r3, r1, r3
   13628:	e4c03001 	strb	r3, [r0], #1
   1362c:	1afffff2 	bne	135fc <SHA1Final+0x1c>
   13630:	e28d7007 	add	r7, sp, #7
   13634:	e3e0307f 	mvn	r3, #127	; 0x7f
   13638:	e5cd3007 	strb	r3, [sp, #7]
   1363c:	e3a02001 	mov	r2, #1
   13640:	e1a01007 	mov	r1, r7
   13644:	e1a00004 	mov	r0, r4
   13648:	ebffffb4 	bl	13520 <SHA1Update>
   1364c:	e5943014 	ldr	r3, [r4, #20]
   13650:	e2033f7e 	and	r3, r3, #504	; 0x1f8
   13654:	e3530d07 	cmp	r3, #448	; 0x1c0
   13658:	0a000009 	beq	13684 <SHA1Final+0xa4>
   1365c:	e3a08000 	mov	r8, #0
   13660:	e5cd8007 	strb	r8, [sp, #7]
   13664:	e3a02001 	mov	r2, #1
   13668:	e1a01007 	mov	r1, r7
   1366c:	e1a00004 	mov	r0, r4
   13670:	ebffffaa 	bl	13520 <SHA1Update>
   13674:	e5943014 	ldr	r3, [r4, #20]
   13678:	e2033f7e 	and	r3, r3, #504	; 0x1f8
   1367c:	e3530d07 	cmp	r3, #448	; 0x1c0
   13680:	1afffff6 	bne	13660 <SHA1Final+0x80>
   13684:	e3a02008 	mov	r2, #8
   13688:	e1a01005 	mov	r1, r5
   1368c:	e1a00004 	mov	r0, r4
   13690:	ebffffa2 	bl	13520 <SHA1Update>
   13694:	e2461001 	sub	r1, r6, #1
   13698:	e3a02000 	mov	r2, #0
   1369c:	e1e03002 	mvn	r3, r2
   136a0:	e1a00122 	lsr	r0, r2, #2
   136a4:	e2033003 	and	r3, r3, #3
   136a8:	e2822001 	add	r2, r2, #1
   136ac:	e794c100 	ldr	ip, [r4, r0, lsl #2]
   136b0:	e3520014 	cmp	r2, #20
   136b4:	e1a03183 	lsl	r3, r3, #3
   136b8:	e1a0333c 	lsr	r3, ip, r3
   136bc:	e5e13001 	strb	r3, [r1, #1]!
   136c0:	1afffff5 	bne	1369c <SHA1Final+0xbc>
   136c4:	e3a0205c 	mov	r2, #92	; 0x5c
   136c8:	e3a01000 	mov	r1, #0
   136cc:	e1a00004 	mov	r0, r4
   136d0:	ebfff1a0 	bl	fd58 <memset>
   136d4:	e3a02008 	mov	r2, #8
   136d8:	e3a01000 	mov	r1, #0
   136dc:	e1a00005 	mov	r0, r5
   136e0:	ebfff19c 	bl	fd58 <memset>
   136e4:	e28dd010 	add	sp, sp, #16
   136e8:	e8bd81f0 	pop	{r4, r5, r6, r7, r8, pc}

000136ec <SHA1>:
   136ec:	e92d40f0 	push	{r4, r5, r6, r7, lr}
   136f0:	e24dd064 	sub	sp, sp, #100	; 0x64
   136f4:	e28d6004 	add	r6, sp, #4
   136f8:	e1a05002 	mov	r5, r2
   136fc:	e1a07000 	mov	r7, r0
   13700:	e1a00006 	mov	r0, r6
   13704:	e1a04001 	mov	r4, r1
   13708:	ebffff71 	bl	134d4 <SHA1Init>
   1370c:	e3550000 	cmp	r5, #0
   13710:	0a000007 	beq	13734 <SHA1+0x48>
   13714:	e0845005 	add	r5, r4, r5
   13718:	e3a02001 	mov	r2, #1
   1371c:	e1a01004 	mov	r1, r4
   13720:	e0844002 	add	r4, r4, r2
   13724:	e1a00006 	mov	r0, r6
   13728:	ebffff7c 	bl	13520 <SHA1Update>
   1372c:	e1540005 	cmp	r4, r5
   13730:	1afffff8 	bne	13718 <SHA1+0x2c>
   13734:	e1a01006 	mov	r1, r6
   13738:	e1a00007 	mov	r0, r7
   1373c:	ebffffa7 	bl	135e0 <SHA1Final>
   13740:	e28dd064 	add	sp, sp, #100	; 0x64
   13744:	e8bd80f0 	pop	{r4, r5, r6, r7, pc}

00013748 <text_filter>:
   13748:	e3510002 	cmp	r1, #2
   1374c:	0a000001 	beq	13758 <text_filter+0x10>
   13750:	e3a00000 	mov	r0, #0
   13754:	e12fff1e 	bx	lr
   13758:	e92d4010 	push	{r4, lr}
   1375c:	e1a04000 	mov	r4, r0
   13760:	e5900000 	ldr	r0, [r0]
   13764:	ebfff178 	bl	fd4c <xfree>
   13768:	e3a03000 	mov	r3, #0
   1376c:	e3a00000 	mov	r0, #0
   13770:	e5843000 	str	r3, [r4]
   13774:	e8bd8010 	pop	{r4, pc}

Disassembly of section .text.startup:

00013778 <main>:
   13778:	e92d4070 	push	{r4, r5, r6, lr}
   1377c:	e3a00000 	mov	r0, #0
   13780:	e59f6134 	ldr	r6, [pc, #308]	; 138bc <main+0x144>
   13784:	e59f3134 	ldr	r3, [pc, #308]	; 138c0 <main+0x148>
   13788:	e08f6006 	add	r6, pc, r6
   1378c:	e7961003 	ldr	r1, [r6, r3]
   13790:	ebfffa6d 	bl	1214c <init_printf>
   13794:	e3a00024 	mov	r0, #36	; 0x24
   13798:	ebfff10a 	bl	fbc8 <malloc>
   1379c:	e2505000 	subs	r5, r0, #0
   137a0:	0a000039 	beq	1388c <main+0x114>
   137a4:	e59f4118 	ldr	r4, [pc, #280]	; 138c4 <main+0x14c>
   137a8:	e3a02024 	mov	r2, #36	; 0x24
   137ac:	e3a01000 	mov	r1, #0
   137b0:	e08f4004 	add	r4, pc, r4
   137b4:	ebfff167 	bl	fd58 <memset>
   137b8:	e1a00004 	mov	r0, r4
   137bc:	ebffeda4 	bl	ee54 <strlen>
   137c0:	e2800001 	add	r0, r0, #1
   137c4:	ebfff0ff 	bl	fbc8 <malloc>
   137c8:	e5850018 	str	r0, [r5, #24]
   137cc:	e3500000 	cmp	r0, #0
   137d0:	11a03004 	movne	r3, r4
   137d4:	10400003 	subne	r0, r0, r3
   137d8:	0a000033 	beq	138ac <main+0x134>
   137dc:	e0831000 	add	r1, r3, r0
   137e0:	e4d32001 	ldrb	r2, [r3], #1
   137e4:	e5c12000 	strb	r2, [r1]
   137e8:	e3520000 	cmp	r2, #0
   137ec:	1afffffa 	bne	137dc <main+0x64>
   137f0:	e59f40d0 	ldr	r4, [pc, #208]	; 138c8 <main+0x150>
   137f4:	e08f4004 	add	r4, pc, r4
   137f8:	e1a00004 	mov	r0, r4
   137fc:	ebffed94 	bl	ee54 <strlen>
   13800:	e2800001 	add	r0, r0, #1
   13804:	ebfff0ef 	bl	fbc8 <malloc>
   13808:	e0400004 	sub	r0, r0, r4
   1380c:	e1a03004 	mov	r3, r4
   13810:	e0832000 	add	r2, r3, r0
   13814:	e4d31001 	ldrb	r1, [r3], #1
   13818:	e5c21000 	strb	r1, [r2]
   1381c:	e3510000 	cmp	r1, #0
   13820:	1afffffa 	bne	13810 <main+0x98>
   13824:	e59f00a0 	ldr	r0, [pc, #160]	; 138cc <main+0x154>
   13828:	e30c2afe 	movw	r2, #51966	; 0xcafe
   1382c:	e585101c 	str	r1, [r5, #28]
   13830:	e30b1eef 	movw	r1, #48879	; 0xbeef
   13834:	e08f0000 	add	r0, pc, r0
   13838:	e34b2abe 	movt	r2, #47806	; 0xbabe
   1383c:	e34d1ead 	movt	r1, #57005	; 0xdead
   13840:	ebfffa47 	bl	12164 <tfp_printf>
   13844:	e59f2084 	ldr	r2, [pc, #132]	; 138d0 <main+0x158>
   13848:	e1a00005 	mov	r0, r5
   1384c:	e59f3080 	ldr	r3, [pc, #128]	; 138d4 <main+0x15c>
   13850:	e7962002 	ldr	r2, [r6, r2]
   13854:	e7961003 	ldr	r1, [r6, r3]
   13858:	e5922000 	ldr	r2, [r2]
   1385c:	ebffe129 	bl	bd08 <decrypt_memory>
   13860:	e2501000 	subs	r1, r0, #0
   13864:	1a00000c 	bne	1389c <main+0x124>
   13868:	e59f0068 	ldr	r0, [pc, #104]	; 138d8 <main+0x160>
   1386c:	e30c2afe 	movw	r2, #51966	; 0xcafe
   13870:	e34b2abe 	movt	r2, #47806	; 0xbabe
   13874:	e30b1eef 	movw	r1, #48879	; 0xbeef
   13878:	e08f0000 	add	r0, pc, r0
   1387c:	e34d1ead 	movt	r1, #57005	; 0xdead
   13880:	ebfffa37 	bl	12164 <tfp_printf>
   13884:	e320f003 	wfi
   13888:	eafffffd 	b	13884 <main+0x10c>
   1388c:	e59f0048 	ldr	r0, [pc, #72]	; 138dc <main+0x164>
   13890:	e08f0000 	add	r0, pc, r0
   13894:	ebfffa32 	bl	12164 <tfp_printf>
   13898:	eafffff9 	b	13884 <main+0x10c>
   1389c:	e59f003c 	ldr	r0, [pc, #60]	; 138e0 <main+0x168>
   138a0:	e08f0000 	add	r0, pc, r0
   138a4:	ebfffa2e 	bl	12164 <tfp_printf>
   138a8:	eaffffee 	b	13868 <main+0xf0>
   138ac:	e59f0030 	ldr	r0, [pc, #48]	; 138e4 <main+0x16c>
   138b0:	e08f0000 	add	r0, pc, r0
   138b4:	ebfffa2a 	bl	12164 <tfp_printf>
   138b8:	eafffff1 	b	13884 <main+0x10c>
   138bc:	0002839c 	.word	0x0002839c
   138c0:	00000054 	.word	0x00000054
   138c4:	00004208 	.word	0x00004208
   138c8:	000041d0 	.word	0x000041d0
   138cc:	000041fc 	.word	0x000041fc
   138d0:	00000040 	.word	0x00000040
   138d4:	00000004 	.word	0x00000004
   138d8:	00004208 	.word	0x00004208
   138dc:	00004158 	.word	0x00004158
   138e0:	000041bc 	.word	0x000041bc
   138e4:	00004160 	.word	0x00004160
