
good.img:     file format elf32-littlearm


Disassembly of section .text:

00008000 <__text_start>:
    8000:	e3a0d302 	mov	sp, #134217728	; 0x8000000
    8004:	eb002ddb 	bl	13778 <__rodata_start>
    8008:	eafffffe 	b	8008 <__text_start+0x8>

0000800c <gnupg_rl_initialize>:
    800c:	e12fff1e 	bx	lr

00008010 <fd_cache_strcmp>:
    8010:	e5d03000 	ldrb	r3, [r0]
    8014:	e3530000 	cmp	r3, #0
    8018:	05d12000 	ldrbeq	r2, [r1]
    801c:	1a00000c 	bne	8054 <fd_cache_strcmp+0x44>
    8020:	ea00000f 	b	8064 <fd_cache_strcmp+0x54>
    8024:	e1520003 	cmp	r2, r3
    8028:	0a000006 	beq	8048 <fd_cache_strcmp+0x38>
    802c:	e353002f 	cmp	r3, #47	; 0x2f
    8030:	0352005c 	cmpeq	r2, #92	; 0x5c
    8034:	0a000003 	beq	8048 <fd_cache_strcmp+0x38>
    8038:	e353005c 	cmp	r3, #92	; 0x5c
    803c:	1a000008 	bne	8064 <fd_cache_strcmp+0x54>
    8040:	e352002f 	cmp	r2, #47	; 0x2f
    8044:	1a000006 	bne	8064 <fd_cache_strcmp+0x54>
    8048:	e5f03001 	ldrb	r3, [r0, #1]!
    804c:	e3530000 	cmp	r3, #0
    8050:	0a000005 	beq	806c <fd_cache_strcmp+0x5c>
    8054:	e1a0c001 	mov	ip, r1
    8058:	e4d12001 	ldrb	r2, [r1], #1
    805c:	e3520000 	cmp	r2, #0
    8060:	1affffef 	bne	8024 <fd_cache_strcmp+0x14>
    8064:	e0430002 	sub	r0, r3, r2
    8068:	e12fff1e 	bx	lr
    806c:	e5dc2001 	ldrb	r2, [ip, #1]
    8070:	e0430002 	sub	r0, r3, r2
    8074:	e12fff1e 	bx	lr

00008078 <fd_cache_invalidate>:
    8078:	e92d4070 	push	{r4, r5, r6, lr}
    807c:	e1a05000 	mov	r5, r0
    8080:	e59f403c 	ldr	r4, [pc, #60]	; 80c4 <fd_cache_invalidate+0x4c>
    8084:	eb002836 	bl	12164 <tfp_printf>
    8088:	e59f2038 	ldr	r2, [pc, #56]	; 80c8 <fd_cache_invalidate+0x50>
    808c:	e08f4004 	add	r4, pc, r4
    8090:	e1a03004 	mov	r3, r4
    8094:	e7943002 	ldr	r3, [r4, r2]
    8098:	e5933000 	ldr	r3, [r3]
    809c:	e3530000 	cmp	r3, #0
    80a0:	1a000001 	bne	80ac <fd_cache_invalidate+0x34>
    80a4:	e3a00000 	mov	r0, #0
    80a8:	e8bd8070 	pop	{r4, r5, r6, pc}
    80ac:	e59f0018 	ldr	r0, [pc, #24]	; 80cc <fd_cache_invalidate+0x54>
    80b0:	e1a01005 	mov	r1, r5
    80b4:	e08f0000 	add	r0, pc, r0
    80b8:	eb002829 	bl	12164 <tfp_printf>
    80bc:	e3a00000 	mov	r0, #0
    80c0:	e8bd8070 	pop	{r4, r5, r6, pc}
    80c4:	00033a98 	.word	0x00033a98
    80c8:	0000001c 	.word	0x0000001c
    80cc:	0000df70 	.word	0x0000df70

000080d0 <file_filter>:
    80d0:	e92d41f0 	push	{r4, r5, r6, r7, r8, lr}
    80d4:	e3510003 	cmp	r1, #3
    80d8:	e59d6018 	ldr	r6, [sp, #24]
    80dc:	e1a04000 	mov	r4, r0
    80e0:	e59fc14c 	ldr	ip, [pc, #332]	; 8234 <file_filter+0x164>
    80e4:	e1a05003 	mov	r5, r3
    80e8:	e5967000 	ldr	r7, [r6]
    80ec:	e08fc00c 	add	ip, pc, ip
    80f0:	0a00000d 	beq	812c <file_filter+0x5c>
    80f4:	e3510004 	cmp	r1, #4
    80f8:	0a000007 	beq	811c <file_filter+0x4c>
    80fc:	e3510001 	cmp	r1, #1
    8100:	0a000018 	beq	8168 <file_filter+0x98>
    8104:	e3510007 	cmp	r1, #7
    8108:	0a00003b 	beq	81fc <file_filter+0x12c>
    810c:	e3510002 	cmp	r1, #2
    8110:	0a000029 	beq	81bc <file_filter+0xec>
    8114:	e3a00000 	mov	r0, #0
    8118:	e8bd81f0 	pop	{r4, r5, r6, r7, r8, pc}
    811c:	e3a03000 	mov	r3, #0
    8120:	e5863000 	str	r3, [r6]
    8124:	e1a00003 	mov	r0, r3
    8128:	e8bd81f0 	pop	{r4, r5, r6, r7, r8, pc}
    812c:	e1a00007 	mov	r0, r7
    8130:	eb00280b 	bl	12164 <tfp_printf>
    8134:	e5d43034 	ldrb	r3, [r4, #52]	; 0x34
    8138:	e5d42035 	ldrb	r2, [r4, #53]	; 0x35
    813c:	e1530002 	cmp	r3, r2
    8140:	8a00000f 	bhi	8184 <file_filter+0xb4>
    8144:	e594000c 	ldr	r0, [r4, #12]
    8148:	e3500000 	cmp	r0, #0
    814c:	e3e00000 	mvn	r0, #0
    8150:	13a03000 	movne	r3, #0
    8154:	03a02001 	moveq	r2, #1
    8158:	0584200c 	streq	r2, [r4, #12]
    815c:	03a03000 	moveq	r3, #0
    8160:	e5863000 	str	r3, [r6]
    8164:	e8bd81f0 	pop	{r4, r5, r6, r7, r8, pc}
    8168:	e3a03000 	mov	r3, #0
    816c:	e580300c 	str	r3, [r0, #12]
    8170:	e1a00003 	mov	r0, r3
    8174:	e5843004 	str	r3, [r4, #4]
    8178:	e5843008 	str	r3, [r4, #8]
    817c:	e1c433b4 	strh	r3, [r4, #52]	; 0x34
    8180:	e8bd81f0 	pop	{r4, r5, r6, r7, r8, pc}
    8184:	e0433002 	sub	r3, r3, r2
    8188:	e2841014 	add	r1, r4, #20
    818c:	e1570003 	cmp	r7, r3
    8190:	e1a00005 	mov	r0, r5
    8194:	e0811002 	add	r1, r1, r2
    8198:	21a07003 	movcs	r7, r3
    819c:	e1a02007 	mov	r2, r7
    81a0:	eb001f23 	bl	fe34 <memcpy>
    81a4:	e5d43035 	ldrb	r3, [r4, #53]	; 0x35
    81a8:	e3a00000 	mov	r0, #0
    81ac:	e0833007 	add	r3, r3, r7
    81b0:	e5c43035 	strb	r3, [r4, #53]	; 0x35
    81b4:	e5867000 	str	r7, [r6]
    81b8:	e8bd81f0 	pop	{r4, r5, r6, r7, r8, pc}
    81bc:	e5902000 	ldr	r2, [r0]
    81c0:	e3520001 	cmp	r2, #1
    81c4:	9a000008 	bls	81ec <file_filter+0x11c>
    81c8:	e59f3068 	ldr	r3, [pc, #104]	; 8238 <file_filter+0x168>
    81cc:	e79c3003 	ldr	r3, [ip, r3]
    81d0:	e5933000 	ldr	r3, [r3]
    81d4:	e3530000 	cmp	r3, #0
    81d8:	0a000003 	beq	81ec <file_filter+0x11c>
    81dc:	e59f0058 	ldr	r0, [pc, #88]	; 823c <file_filter+0x16c>
    81e0:	e2841036 	add	r1, r4, #54	; 0x36
    81e4:	e08f0000 	add	r0, pc, r0
    81e8:	eb0027dd 	bl	12164 <tfp_printf>
    81ec:	e1a00004 	mov	r0, r4
    81f0:	eb001ed5 	bl	fd4c <xfree>
    81f4:	e3a00000 	mov	r0, #0
    81f8:	e8bd81f0 	pop	{r4, r5, r6, r7, r8, pc}
    81fc:	e5d02034 	ldrb	r2, [r0, #52]	; 0x34
    8200:	e3a03000 	mov	r3, #0
    8204:	e1530003 	cmp	r3, r3
    8208:	e2801014 	add	r1, r0, #20
    820c:	03a03001 	moveq	r3, #1
    8210:	0580300c 	streq	r3, [r0, #12]
    8214:	e1a00005 	mov	r0, r5
    8218:	e1520007 	cmp	r2, r7
    821c:	31a07002 	movcc	r7, r2
    8220:	e1a02007 	mov	r2, r7
    8224:	eb001f02 	bl	fe34 <memcpy>
    8228:	e5867000 	str	r7, [r6]
    822c:	e3a00000 	mov	r0, #0
    8230:	e8bd81f0 	pop	{r4, r5, r6, r7, r8, pc}
    8234:	00033a38 	.word	0x00033a38
    8238:	0000001c 	.word	0x0000001c
    823c:	0000de5c 	.word	0x0000de5c

00008240 <filter_flush>:
    8240:	e92d4030 	push	{r4, r5, lr}
    8244:	e1a04000 	mov	r4, r0
    8248:	e5d03000 	ldrb	r3, [r0]
    824c:	e24dd014 	sub	sp, sp, #20
    8250:	e59f20f4 	ldr	r2, [pc, #244]	; 834c <filter_flush+0x10c>
    8254:	e3530003 	cmp	r3, #3
    8258:	e08f2002 	add	r2, pc, r2
    825c:	0a000021 	beq	82e8 <filter_flush+0xa8>
    8260:	e3530002 	cmp	r3, #2
    8264:	1a00001a 	bne	82d4 <filter_flush+0x94>
    8268:	e590502c 	ldr	r5, [r0, #44]	; 0x2c
    826c:	e3550000 	cmp	r5, #0
    8270:	0a000030 	beq	8338 <filter_flush+0xf8>
    8274:	e594101c 	ldr	r1, [r4, #28]
    8278:	e28d200c 	add	r2, sp, #12
    827c:	e5943020 	ldr	r3, [r4, #32]
    8280:	e58d100c 	str	r1, [sp, #12]
    8284:	e3a01004 	mov	r1, #4
    8288:	e58d2000 	str	r2, [sp]
    828c:	e594203c 	ldr	r2, [r4, #60]	; 0x3c
    8290:	e5940030 	ldr	r0, [r4, #48]	; 0x30
    8294:	e12fff35 	blx	r5
    8298:	e3500000 	cmp	r0, #0
    829c:	15840028 	strne	r0, [r4, #40]	; 0x28
    82a0:	1a000007 	bne	82c4 <filter_flush+0x84>
    82a4:	e594201c 	ldr	r2, [r4, #28]
    82a8:	e59d300c 	ldr	r3, [sp, #12]
    82ac:	e1520003 	cmp	r2, r3
    82b0:	0a000003 	beq	82c4 <filter_flush+0x84>
    82b4:	e59f0094 	ldr	r0, [pc, #148]	; 8350 <filter_flush+0x110>
    82b8:	e08f0000 	add	r0, pc, r0
    82bc:	eb0027a8 	bl	12164 <tfp_printf>
    82c0:	e3a0003f 	mov	r0, #63	; 0x3f
    82c4:	e3a03000 	mov	r3, #0
    82c8:	e584301c 	str	r3, [r4, #28]
    82cc:	e28dd014 	add	sp, sp, #20
    82d0:	e8bd8030 	pop	{r4, r5, pc}
    82d4:	e59f0078 	ldr	r0, [pc, #120]	; 8354 <filter_flush+0x114>
    82d8:	e08f0000 	add	r0, pc, r0
    82dc:	eb0027a0 	bl	12164 <tfp_printf>
    82e0:	e594502c 	ldr	r5, [r4, #44]	; 0x2c
    82e4:	eaffffe2 	b	8274 <filter_flush+0x34>
    82e8:	e59f3068 	ldr	r3, [pc, #104]	; 8358 <filter_flush+0x118>
    82ec:	e5901014 	ldr	r1, [r0, #20]
    82f0:	e7923003 	ldr	r3, [r2, r3]
    82f4:	e2815a02 	add	r5, r1, #8192	; 0x2000
    82f8:	e5933000 	ldr	r3, [r3]
    82fc:	e3530000 	cmp	r3, #0
    8300:	1a000007 	bne	8324 <filter_flush+0xe4>
    8304:	e5940020 	ldr	r0, [r4, #32]
    8308:	e1a01005 	mov	r1, r5
    830c:	eb001ed1 	bl	fe58 <xrealloc>
    8310:	e5840020 	str	r0, [r4, #32]
    8314:	e3a00000 	mov	r0, #0
    8318:	e5845014 	str	r5, [r4, #20]
    831c:	e28dd014 	add	sp, sp, #20
    8320:	e8bd8030 	pop	{r4, r5, pc}
    8324:	e59f0030 	ldr	r0, [pc, #48]	; 835c <filter_flush+0x11c>
    8328:	e1a02005 	mov	r2, r5
    832c:	e08f0000 	add	r0, pc, r0
    8330:	eb00278b 	bl	12164 <tfp_printf>
    8334:	eafffff2 	b	8304 <filter_flush+0xc4>
    8338:	e59f0020 	ldr	r0, [pc, #32]	; 8360 <filter_flush+0x120>
    833c:	e08f0000 	add	r0, pc, r0
    8340:	eb002787 	bl	12164 <tfp_printf>
    8344:	e594502c 	ldr	r5, [r4, #44]	; 0x2c
    8348:	eaffffc9 	b	8274 <filter_flush+0x34>
    834c:	000338cc 	.word	0x000338cc
    8350:	0000de00 	.word	0x0000de00
    8354:	0000dda8 	.word	0x0000dda8
    8358:	0000001c 	.word	0x0000001c
    835c:	0000dd2c 	.word	0x0000dd2c
    8360:	0000dd60 	.word	0x0000dd60

00008364 <print_chain.part.0>:
    8364:	e92d4ff0 	push	{r4, r5, r6, r7, r8, r9, sl, fp, lr}
    8368:	e2504000 	subs	r4, r0, #0
    836c:	e24dd03c 	sub	sp, sp, #60	; 0x3c
    8370:	0a000026 	beq	8410 <print_chain.part.0+0xac>
    8374:	e59fb09c 	ldr	fp, [pc, #156]	; 8418 <print_chain.part.0+0xb4>
    8378:	e28d6018 	add	r6, sp, #24
    837c:	e59fa098 	ldr	sl, [pc, #152]	; 841c <print_chain.part.0+0xb8>
    8380:	e3a09020 	mov	r9, #32
    8384:	e08fb00b 	add	fp, pc, fp
    8388:	e08fa00a 	add	sl, pc, sl
    838c:	ea000010 	b	83d4 <print_chain.part.0+0x70>
    8390:	e5940030 	ldr	r0, [r4, #48]	; 0x30
    8394:	e58dc000 	str	ip, [sp]
    8398:	e12fff35 	blx	r5
    839c:	e594201c 	ldr	r2, [r4, #28]
    83a0:	e1a03006 	mov	r3, r6
    83a4:	e1a01007 	mov	r1, r7
    83a8:	e1a0000a 	mov	r0, sl
    83ac:	e58d2008 	str	r2, [sp, #8]
    83b0:	e5942018 	ldr	r2, [r4, #24]
    83b4:	e58d2004 	str	r2, [sp, #4]
    83b8:	e5942024 	ldr	r2, [r4, #36]	; 0x24
    83bc:	e58d2000 	str	r2, [sp]
    83c0:	e1a02008 	mov	r2, r8
    83c4:	eb002766 	bl	12164 <tfp_printf>
    83c8:	e594403c 	ldr	r4, [r4, #60]	; 0x3c
    83cc:	e3540000 	cmp	r4, #0
    83d0:	0a00000e 	beq	8410 <print_chain.part.0+0xac>
    83d4:	e594502c 	ldr	r5, [r4, #44]	; 0x2c
    83d8:	e28dc014 	add	ip, sp, #20
    83dc:	e5947040 	ldr	r7, [r4, #64]	; 0x40
    83e0:	e1a03006 	mov	r3, r6
    83e4:	e5948044 	ldr	r8, [r4, #68]	; 0x44
    83e8:	e3550000 	cmp	r5, #0
    83ec:	e58d9014 	str	r9, [sp, #20]
    83f0:	e3a02000 	mov	r2, #0
    83f4:	e3a01005 	mov	r1, #5
    83f8:	1affffe4 	bne	8390 <print_chain.part.0+0x2c>
    83fc:	e3a02002 	mov	r2, #2
    8400:	e1a0100b 	mov	r1, fp
    8404:	e1a00006 	mov	r0, r6
    8408:	eb001e89 	bl	fe34 <memcpy>
    840c:	eaffffe2 	b	839c <print_chain.part.0+0x38>
    8410:	e28dd03c 	add	sp, sp, #60	; 0x3c
    8414:	e8bd8ff0 	pop	{r4, r5, r6, r7, r8, r9, sl, fp, pc}
    8418:	0000dd58 	.word	0x0000dd58
    841c:	0000dd58 	.word	0x0000dd58

00008420 <fd_cache_open>:
    8420:	e92d4070 	push	{r4, r5, r6, lr}
    8424:	e1a04000 	mov	r4, r0
    8428:	e59f0090 	ldr	r0, [pc, #144]	; 84c0 <fd_cache_open+0xa0>
    842c:	e1a05001 	mov	r5, r1
    8430:	e1a01004 	mov	r1, r4
    8434:	e08f0000 	add	r0, pc, r0
    8438:	eb002749 	bl	12164 <tfp_printf>
    843c:	e3a0102b 	mov	r1, #43	; 0x2b
    8440:	e1a00005 	mov	r0, r5
    8444:	eb001edb 	bl	ffb8 <strchr>
    8448:	e3500000 	cmp	r0, #0
    844c:	0a000010 	beq	8494 <fd_cache_open+0x74>
    8450:	e1a00004 	mov	r0, r4
    8454:	ebffff07 	bl	8078 <fd_cache_invalidate>
    8458:	e3500000 	cmp	r0, #0
    845c:	03a06002 	moveq	r6, #2
    8460:	1a000009 	bne	848c <fd_cache_open+0x6c>
    8464:	e3a01062 	mov	r1, #98	; 0x62
    8468:	e1a00005 	mov	r0, r5
    846c:	eb001ed1 	bl	ffb8 <strchr>
    8470:	e3500000 	cmp	r0, #0
    8474:	e30021b6 	movw	r2, #438	; 0x1b6
    8478:	13866801 	orrne	r6, r6, #65536	; 0x10000
    847c:	e1a00004 	mov	r0, r4
    8480:	e1a01006 	mov	r1, r6
    8484:	e8bd4070 	pop	{r4, r5, r6, lr}
    8488:	ea001ee6 	b	10028 <open>
    848c:	e3e00000 	mvn	r0, #0
    8490:	e8bd8070 	pop	{r4, r5, r6, pc}
    8494:	e3a01077 	mov	r1, #119	; 0x77
    8498:	e1a00005 	mov	r0, r5
    849c:	eb001ec5 	bl	ffb8 <strchr>
    84a0:	e2506000 	subs	r6, r0, #0
    84a4:	0affffee 	beq	8464 <fd_cache_open+0x44>
    84a8:	e1a00004 	mov	r0, r4
    84ac:	ebfffef1 	bl	8078 <fd_cache_invalidate>
    84b0:	e3500000 	cmp	r0, #0
    84b4:	1afffff4 	bne	848c <fd_cache_open+0x6c>
    84b8:	e3006601 	movw	r6, #1537	; 0x601
    84bc:	eaffffe8 	b	8464 <fd_cache_open+0x44>
    84c0:	0000dce4 	.word	0x0000dce4

000084c4 <iobuf_print_chain>:
    84c4:	e59f302c 	ldr	r3, [pc, #44]	; 84f8 <iobuf_print_chain+0x34>
    84c8:	e59f202c 	ldr	r2, [pc, #44]	; 84fc <iobuf_print_chain+0x38>
    84cc:	e08f3003 	add	r3, pc, r3
    84d0:	e7933002 	ldr	r3, [r3, r2]
    84d4:	e5933000 	ldr	r3, [r3]
    84d8:	e3530000 	cmp	r3, #0
    84dc:	0a000003 	beq	84f0 <iobuf_print_chain+0x2c>
    84e0:	e92d4010 	push	{r4, lr}
    84e4:	ebffff9e 	bl	8364 <print_chain.part.0>
    84e8:	e3a00000 	mov	r0, #0
    84ec:	e8bd8010 	pop	{r4, pc}
    84f0:	e3a00000 	mov	r0, #0
    84f4:	e12fff1e 	bx	lr
    84f8:	00033658 	.word	0x00033658
    84fc:	0000001c 	.word	0x0000001c

00008500 <iobuf_alloc>:
    8500:	e1a03000 	mov	r3, r0
    8504:	e92d4030 	push	{r4, r5, lr}
    8508:	e24dd00c 	sub	sp, sp, #12
    850c:	e59f0098 	ldr	r0, [pc, #152]	; 85ac <iobuf_alloc+0xac>
    8510:	e3530003 	cmp	r3, #3
    8514:	e58d1004 	str	r1, [sp, #4]
    8518:	83a02000 	movhi	r2, #0
    851c:	e08f0000 	add	r0, pc, r0
    8520:	e1a01003 	mov	r1, r3
    8524:	93a02001 	movls	r2, #1
    8528:	e1a05003 	mov	r5, r3
    852c:	eb00270c 	bl	12164 <tfp_printf>
    8530:	e59d3004 	ldr	r3, [sp, #4]
    8534:	e3530000 	cmp	r3, #0
    8538:	0a000015 	beq	8594 <iobuf_alloc+0x94>
    853c:	e3a01048 	mov	r1, #72	; 0x48
    8540:	e3a00001 	mov	r0, #1
    8544:	eb001e29 	bl	fdf0 <xcalloc>
    8548:	e1a04000 	mov	r4, r0
    854c:	e59d0004 	ldr	r0, [sp, #4]
    8550:	e5c45000 	strb	r5, [r4]
    8554:	eb001e08 	bl	fd7c <xmalloc>
    8558:	e59f2050 	ldr	r2, [pc, #80]	; 85b0 <iobuf_alloc+0xb0>
    855c:	e3a01000 	mov	r1, #0
    8560:	e59d3004 	ldr	r3, [sp, #4]
    8564:	e08f2002 	add	r2, pc, r2
    8568:	e5843014 	str	r3, [r4, #20]
    856c:	e5923000 	ldr	r3, [r2]
    8570:	e5840020 	str	r0, [r4, #32]
    8574:	e1a00004 	mov	r0, r4
    8578:	e5841044 	str	r1, [r4, #68]	; 0x44
    857c:	e2833001 	add	r3, r3, #1
    8580:	e5841038 	str	r1, [r4, #56]	; 0x38
    8584:	e5823000 	str	r3, [r2]
    8588:	e5843040 	str	r3, [r4, #64]	; 0x40
    858c:	e28dd00c 	add	sp, sp, #12
    8590:	e8bd8030 	pop	{r4, r5, pc}
    8594:	e59f0018 	ldr	r0, [pc, #24]	; 85b4 <iobuf_alloc+0xb4>
    8598:	e3a03a02 	mov	r3, #8192	; 0x2000
    859c:	e58d3004 	str	r3, [sp, #4]
    85a0:	e08f0000 	add	r0, pc, r0
    85a4:	eb0026ee 	bl	12164 <tfp_printf>
    85a8:	eaffffe3 	b	853c <iobuf_alloc+0x3c>
    85ac:	0000dc1c 	.word	0x0000dc1c
    85b0:	00033a94 	.word	0x00033a94
    85b4:	0000dbb0 	.word	0x0000dbb0

000085b8 <do_open.constprop.0>:
    85b8:	e92d47f0 	push	{r4, r5, r6, r7, r8, r9, sl, lr}
    85bc:	e1a04000 	mov	r4, r0
    85c0:	e59f0190 	ldr	r0, [pc, #400]	; 8758 <do_open.constprop.0+0x1a0>
    85c4:	e24dd030 	sub	sp, sp, #48	; 0x30
    85c8:	e59f818c 	ldr	r8, [pc, #396]	; 875c <do_open.constprop.0+0x1a4>
    85cc:	e1a06001 	mov	r6, r1
    85d0:	e08f0000 	add	r0, pc, r0
    85d4:	e1a01004 	mov	r1, r4
    85d8:	e08f8008 	add	r8, pc, r8
    85dc:	e1a05002 	mov	r5, r2
    85e0:	eb0026df 	bl	12164 <tfp_printf>
    85e4:	e3a03000 	mov	r3, #0
    85e8:	e3a00001 	mov	r0, #1
    85ec:	e58d3008 	str	r3, [sp, #8]
    85f0:	eb0026db 	bl	12164 <tfp_printf>
    85f4:	e3560000 	cmp	r6, #0
    85f8:	0a00002c 	beq	86b0 <do_open.constprop.0+0xf8>
    85fc:	e3540000 	cmp	r4, #0
    8600:	0a000024 	beq	8698 <do_open.constprop.0+0xe0>
    8604:	e5d43000 	ldrb	r3, [r4]
    8608:	e353002d 	cmp	r3, #45	; 0x2d
    860c:	0a00001e 	beq	868c <do_open.constprop.0+0xd4>
    8610:	e3a09000 	mov	r9, #0
    8614:	e1a06009 	mov	r6, r9
    8618:	e3a01a02 	mov	r1, #8192	; 0x2000
    861c:	e1a00005 	mov	r0, r5
    8620:	ebffffb6 	bl	8500 <iobuf_alloc>
    8624:	e1a05000 	mov	r5, r0
    8628:	e1a00004 	mov	r0, r4
    862c:	eb001a08 	bl	ee54 <strlen>
    8630:	e2800038 	add	r0, r0, #56	; 0x38
    8634:	eb001dd0 	bl	fd7c <xmalloc>
    8638:	e59f3120 	ldr	r3, [pc, #288]	; 8760 <do_open.constprop.0+0x1a8>
    863c:	e28d2008 	add	r2, sp, #8
    8640:	e5809000 	str	r9, [r0]
    8644:	e3a01001 	mov	r1, #1
    8648:	e5806010 	str	r6, [r0, #16]
    864c:	e1a07000 	mov	r7, r0
    8650:	e7983003 	ldr	r3, [r8, r3]
    8654:	e5850030 	str	r0, [r5, #48]	; 0x30
    8658:	e585302c 	str	r3, [r5, #44]	; 0x2c
    865c:	e3a03000 	mov	r3, #0
    8660:	e58d2000 	str	r2, [sp]
    8664:	e1a02003 	mov	r2, r3
    8668:	ebfffe98 	bl	80d0 <file_filter>
    866c:	e59f30f0 	ldr	r3, [pc, #240]	; 8764 <do_open.constprop.0+0x1ac>
    8670:	e7983003 	ldr	r3, [r8, r3]
    8674:	e5933000 	ldr	r3, [r3]
    8678:	e3530000 	cmp	r3, #0
    867c:	1a00000f 	bne	86c0 <do_open.constprop.0+0x108>
    8680:	e1a00005 	mov	r0, r5
    8684:	e28dd030 	add	sp, sp, #48	; 0x30
    8688:	e8bd87f0 	pop	{r4, r5, r6, r7, r8, r9, sl, pc}
    868c:	e5d43001 	ldrb	r3, [r4, #1]
    8690:	e3530000 	cmp	r3, #0
    8694:	1affffdd 	bne	8610 <do_open.constprop.0+0x58>
    8698:	e3550000 	cmp	r5, #0
    869c:	1a000022 	bne	872c <do_open.constprop.0+0x174>
    86a0:	e59f40c0 	ldr	r4, [pc, #192]	; 8768 <do_open.constprop.0+0x1b0>
    86a4:	e1a09005 	mov	r9, r5
    86a8:	e08f4004 	add	r4, pc, r4
    86ac:	eaffffd9 	b	8618 <do_open.constprop.0+0x60>
    86b0:	e3540000 	cmp	r4, #0
    86b4:	01a05004 	moveq	r5, r4
    86b8:	1affffd4 	bne	8610 <do_open.constprop.0+0x58>
    86bc:	eaffffef 	b	8680 <do_open.constprop.0+0xc8>
    86c0:	e595802c 	ldr	r8, [r5, #44]	; 0x2c
    86c4:	e3a03020 	mov	r3, #32
    86c8:	e5959040 	ldr	r9, [r5, #64]	; 0x40
    86cc:	e595a044 	ldr	sl, [r5, #68]	; 0x44
    86d0:	e3580000 	cmp	r8, #0
    86d4:	e58d300c 	str	r3, [sp, #12]
    86d8:	0a000017 	beq	873c <do_open.constprop.0+0x184>
    86dc:	e5950030 	ldr	r0, [r5, #48]	; 0x30
    86e0:	e28d300c 	add	r3, sp, #12
    86e4:	e58d3000 	str	r3, [sp]
    86e8:	e28d6010 	add	r6, sp, #16
    86ec:	e1a03006 	mov	r3, r6
    86f0:	e3a02000 	mov	r2, #0
    86f4:	e3a01005 	mov	r1, #5
    86f8:	e12fff38 	blx	r8
    86fc:	e5973000 	ldr	r3, [r7]
    8700:	e1a0200a 	mov	r2, sl
    8704:	e59f0060 	ldr	r0, [pc, #96]	; 876c <do_open.constprop.0+0x1b4>
    8708:	e1a01009 	mov	r1, r9
    870c:	e58d3004 	str	r3, [sp, #4]
    8710:	e1a03004 	mov	r3, r4
    8714:	e08f0000 	add	r0, pc, r0
    8718:	e58d6000 	str	r6, [sp]
    871c:	eb002690 	bl	12164 <tfp_printf>
    8720:	e1a00005 	mov	r0, r5
    8724:	e28dd030 	add	sp, sp, #48	; 0x30
    8728:	e8bd87f0 	pop	{r4, r5, r6, r7, r8, r9, sl, pc}
    872c:	e59f403c 	ldr	r4, [pc, #60]	; 8770 <do_open.constprop.0+0x1b8>
    8730:	e1a09006 	mov	r9, r6
    8734:	e08f4004 	add	r4, pc, r4
    8738:	eaffffb6 	b	8618 <do_open.constprop.0+0x60>
    873c:	e59f1030 	ldr	r1, [pc, #48]	; 8774 <do_open.constprop.0+0x1bc>
    8740:	e28d6010 	add	r6, sp, #16
    8744:	e3a02002 	mov	r2, #2
    8748:	e1a00006 	mov	r0, r6
    874c:	e08f1001 	add	r1, pc, r1
    8750:	eb001db7 	bl	fe34 <memcpy>
    8754:	eaffffe8 	b	86fc <do_open.constprop.0+0x144>
    8758:	0000dbbc 	.word	0x0000dbbc
    875c:	0003354c 	.word	0x0003354c
    8760:	00000048 	.word	0x00000048
    8764:	0000001c 	.word	0x0000001c
    8768:	0000dad0 	.word	0x0000dad0
    876c:	0000da8c 	.word	0x0000da8c
    8770:	0000da4c 	.word	0x0000da4c
    8774:	0000d990 	.word	0x0000d990

00008778 <iobuf_close>:
    8778:	e92d4ff0 	push	{r4, r5, r6, r7, r8, r9, sl, fp, lr}
    877c:	e2505000 	subs	r5, r0, #0
    8780:	e59f2138 	ldr	r2, [pc, #312]	; 88c0 <iobuf_close+0x148>
    8784:	e24dd03c 	sub	sp, sp, #60	; 0x3c
    8788:	e3a06000 	mov	r6, #0
    878c:	e08f2002 	add	r2, pc, r2
    8790:	e58d6010 	str	r6, [sp, #16]
    8794:	0a000045 	beq	88b0 <iobuf_close+0x138>
    8798:	e59f1124 	ldr	r1, [pc, #292]	; 88c4 <iobuf_close+0x14c>
    879c:	e59f3124 	ldr	r3, [pc, #292]	; 88c8 <iobuf_close+0x150>
    87a0:	e08f1001 	add	r1, pc, r1
    87a4:	e58d1008 	str	r1, [sp, #8]
    87a8:	e7928003 	ldr	r8, [r2, r3]
    87ac:	e59f3118 	ldr	r3, [pc, #280]	; 88cc <iobuf_close+0x154>
    87b0:	e08f3003 	add	r3, pc, r3
    87b4:	e58d300c 	str	r3, [sp, #12]
    87b8:	ea00001d 	b	8834 <iobuf_close+0xbc>
    87bc:	e594702c 	ldr	r7, [r4, #44]	; 0x2c
    87c0:	e3a03000 	mov	r3, #0
    87c4:	e28dc010 	add	ip, sp, #16
    87c8:	e3a01002 	mov	r1, #2
    87cc:	e1570003 	cmp	r7, r3
    87d0:	0a000009 	beq	87fc <iobuf_close+0x84>
    87d4:	e594203c 	ldr	r2, [r4, #60]	; 0x3c
    87d8:	e5940030 	ldr	r0, [r4, #48]	; 0x30
    87dc:	e58dc000 	str	ip, [sp]
    87e0:	e12fff37 	blx	r7
    87e4:	e16f3f16 	clz	r3, r6
    87e8:	e3500000 	cmp	r0, #0
    87ec:	e1a032a3 	lsr	r3, r3, #5
    87f0:	03a03000 	moveq	r3, #0
    87f4:	e3530000 	cmp	r3, #0
    87f8:	11a06000 	movne	r6, r0
    87fc:	e5940038 	ldr	r0, [r4, #56]	; 0x38
    8800:	eb001d51 	bl	fd4c <xfree>
    8804:	e5940020 	ldr	r0, [r4, #32]
    8808:	e3a01000 	mov	r1, #0
    880c:	e1500001 	cmp	r0, r1
    8810:	0a000003 	beq	8824 <iobuf_close+0xac>
    8814:	e5942014 	ldr	r2, [r4, #20]
    8818:	eb001d4e 	bl	fd58 <memset>
    881c:	e5940020 	ldr	r0, [r4, #32]
    8820:	eb001d49 	bl	fd4c <xfree>
    8824:	e1a00004 	mov	r0, r4
    8828:	eb001d47 	bl	fd4c <xfree>
    882c:	e3550000 	cmp	r5, #0
    8830:	0a00001f 	beq	88b4 <iobuf_close+0x13c>
    8834:	e5983000 	ldr	r3, [r8]
    8838:	e1a04005 	mov	r4, r5
    883c:	e595503c 	ldr	r5, [r5, #60]	; 0x3c
    8840:	e3530000 	cmp	r3, #0
    8844:	0affffdc 	beq	87bc <iobuf_close+0x44>
    8848:	e594902c 	ldr	r9, [r4, #44]	; 0x2c
    884c:	e3a03020 	mov	r3, #32
    8850:	e58d3014 	str	r3, [sp, #20]
    8854:	e28d7018 	add	r7, sp, #24
    8858:	e594a040 	ldr	sl, [r4, #64]	; 0x40
    885c:	e3590000 	cmp	r9, #0
    8860:	e594b044 	ldr	fp, [r4, #68]	; 0x44
    8864:	e28d2014 	add	r2, sp, #20
    8868:	e1a03007 	mov	r3, r7
    886c:	0a00000a 	beq	889c <iobuf_close+0x124>
    8870:	e5940030 	ldr	r0, [r4, #48]	; 0x30
    8874:	e3a01005 	mov	r1, #5
    8878:	e58d2000 	str	r2, [sp]
    887c:	e3a02000 	mov	r2, #0
    8880:	e12fff39 	blx	r9
    8884:	e59d0008 	ldr	r0, [sp, #8]
    8888:	e1a03007 	mov	r3, r7
    888c:	e1a0200b 	mov	r2, fp
    8890:	e1a0100a 	mov	r1, sl
    8894:	eb002632 	bl	12164 <tfp_printf>
    8898:	eaffffc7 	b	87bc <iobuf_close+0x44>
    889c:	e59d100c 	ldr	r1, [sp, #12]
    88a0:	e3a02002 	mov	r2, #2
    88a4:	e1a00007 	mov	r0, r7
    88a8:	eb001d61 	bl	fe34 <memcpy>
    88ac:	eafffff4 	b	8884 <iobuf_close+0x10c>
    88b0:	e1a06005 	mov	r6, r5
    88b4:	e1a00006 	mov	r0, r6
    88b8:	e28dd03c 	add	sp, sp, #60	; 0x3c
    88bc:	e8bd8ff0 	pop	{r4, r5, r6, r7, r8, r9, sl, fp, pc}
    88c0:	00033398 	.word	0x00033398
    88c4:	0000da28 	.word	0x0000da28
    88c8:	0000001c 	.word	0x0000001c
    88cc:	0000d92c 	.word	0x0000d92c

000088d0 <iobuf_temp>:
    88d0:	e3a01a02 	mov	r1, #8192	; 0x2000
    88d4:	e3a00003 	mov	r0, #3
    88d8:	eaffff08 	b	8500 <iobuf_alloc>

000088dc <iobuf_temp_with_content>:
    88dc:	e92d4070 	push	{r4, r5, r6, lr}
    88e0:	e1a04000 	mov	r4, r0
    88e4:	e3a00001 	mov	r0, #1
    88e8:	e1a06001 	mov	r6, r1
    88ec:	ebffff03 	bl	8500 <iobuf_alloc>
    88f0:	e1a05000 	mov	r5, r0
    88f4:	e59f0044 	ldr	r0, [pc, #68]	; 8940 <iobuf_temp_with_content+0x64>
    88f8:	e5951014 	ldr	r1, [r5, #20]
    88fc:	e08f0000 	add	r0, pc, r0
    8900:	eb002617 	bl	12164 <tfp_printf>
    8904:	e3560000 	cmp	r6, #0
    8908:	0a000009 	beq	8934 <iobuf_temp_with_content+0x58>
    890c:	e0841006 	add	r1, r4, r6
    8910:	e2443001 	sub	r3, r4, #1
    8914:	e2411001 	sub	r1, r1, #1
    8918:	e2644001 	rsb	r4, r4, #1
    891c:	e0842003 	add	r2, r4, r3
    8920:	e5f3e001 	ldrb	lr, [r3, #1]!
    8924:	e595c020 	ldr	ip, [r5, #32]
    8928:	e1530001 	cmp	r3, r1
    892c:	e7cce002 	strb	lr, [ip, r2]
    8930:	1afffff9 	bne	891c <iobuf_temp_with_content+0x40>
    8934:	e585601c 	str	r6, [r5, #28]
    8938:	e1a00005 	mov	r0, r5
    893c:	e8bd8070 	pop	{r4, r5, r6, pc}
    8940:	0000d8e8 	.word	0x0000d8e8

00008944 <iobuf_is_pipe_filename>:
    8944:	e3a00001 	mov	r0, #1
    8948:	e12fff1e 	bx	lr

0000894c <iobuf_open>:
    894c:	e59f300c 	ldr	r3, [pc, #12]	; 8960 <iobuf_open+0x14>
    8950:	e3a02000 	mov	r2, #0
    8954:	e3a01001 	mov	r1, #1
    8958:	e08f3003 	add	r3, pc, r3
    895c:	eaffff15 	b	85b8 <do_open.constprop.0>
    8960:	0000d8b0 	.word	0x0000d8b0

00008964 <iobuf_create>:
    8964:	e59f300c 	ldr	r3, [pc, #12]	; 8978 <iobuf_create+0x14>
    8968:	e3a02002 	mov	r2, #2
    896c:	e3a01001 	mov	r1, #1
    8970:	e08f3003 	add	r3, pc, r3
    8974:	eaffff0f 	b	85b8 <do_open.constprop.0>
    8978:	0000d89c 	.word	0x0000d89c

0000897c <iobuf_openrw>:
    897c:	e59f300c 	ldr	r3, [pc, #12]	; 8990 <iobuf_openrw+0x14>
    8980:	e3a02002 	mov	r2, #2
    8984:	e3a01000 	mov	r1, #0
    8988:	e08f3003 	add	r3, pc, r3
    898c:	eaffff09 	b	85b8 <do_open.constprop.0>
    8990:	0000d888 	.word	0x0000d888

00008994 <iobuf_ioctl>:
    8994:	e92d4ff0 	push	{r4, r5, r6, r7, r8, r9, sl, fp, lr}
    8998:	e1a04000 	mov	r4, r0
    899c:	e59f0418 	ldr	r0, [pc, #1048]	; 8dbc <iobuf_ioctl+0x428>
    89a0:	e1a05001 	mov	r5, r1
    89a4:	e59f8414 	ldr	r8, [pc, #1044]	; 8dc0 <iobuf_ioctl+0x42c>
    89a8:	e24dd034 	sub	sp, sp, #52	; 0x34
    89ac:	e08f0000 	add	r0, pc, r0
    89b0:	e1a06002 	mov	r6, r2
    89b4:	e08f8008 	add	r8, pc, r8
    89b8:	e1a07003 	mov	r7, r3
    89bc:	eb0025e8 	bl	12164 <tfp_printf>
    89c0:	e3550001 	cmp	r5, #1
    89c4:	0a000057 	beq	8b28 <iobuf_ioctl+0x194>
    89c8:	e3550002 	cmp	r5, #2
    89cc:	0a000039 	beq	8ab8 <iobuf_ioctl+0x124>
    89d0:	e3550003 	cmp	r5, #3
    89d4:	0a000097 	beq	8c38 <iobuf_ioctl+0x2a4>
    89d8:	e3550004 	cmp	r5, #4
    89dc:	0a00007f 	beq	8be0 <iobuf_ioctl+0x24c>
    89e0:	e3550005 	cmp	r5, #5
    89e4:	1a00004c 	bne	8b1c <iobuf_ioctl+0x188>
    89e8:	e59f33d4 	ldr	r3, [pc, #980]	; 8dc4 <iobuf_ioctl+0x430>
    89ec:	e7983003 	ldr	r3, [r8, r3]
    89f0:	e5933000 	ldr	r3, [r3]
    89f4:	e3530000 	cmp	r3, #0
    89f8:	0a000016 	beq	8a58 <iobuf_ioctl+0xc4>
    89fc:	e3540000 	cmp	r4, #0
    8a00:	0a0000d9 	beq	8d6c <iobuf_ioctl+0x3d8>
    8a04:	e594a02c 	ldr	sl, [r4, #44]	; 0x2c
    8a08:	e3a03020 	mov	r3, #32
    8a0c:	e594b040 	ldr	fp, [r4, #64]	; 0x40
    8a10:	e5949044 	ldr	r9, [r4, #68]	; 0x44
    8a14:	e35a0000 	cmp	sl, #0
    8a18:	e58d300c 	str	r3, [sp, #12]
    8a1c:	0a0000d6 	beq	8d7c <iobuf_ioctl+0x3e8>
    8a20:	e5940030 	ldr	r0, [r4, #48]	; 0x30
    8a24:	e28d300c 	add	r3, sp, #12
    8a28:	e58d3000 	str	r3, [sp]
    8a2c:	e1a01005 	mov	r1, r5
    8a30:	e28d5010 	add	r5, sp, #16
    8a34:	e3a02000 	mov	r2, #0
    8a38:	e1a03005 	mov	r3, r5
    8a3c:	e12fff3a 	blx	sl
    8a40:	e59f0380 	ldr	r0, [pc, #896]	; 8dc8 <iobuf_ioctl+0x434>
    8a44:	e1a03005 	mov	r3, r5
    8a48:	e1a02009 	mov	r2, r9
    8a4c:	e1a0100b 	mov	r1, fp
    8a50:	e08f0000 	add	r0, pc, r0
    8a54:	eb0025c2 	bl	12164 <tfp_printf>
    8a58:	e59f336c 	ldr	r3, [pc, #876]	; 8dcc <iobuf_ioctl+0x438>
    8a5c:	e594202c 	ldr	r2, [r4, #44]	; 0x2c
    8a60:	e7983003 	ldr	r3, [r8, r3]
    8a64:	e1520003 	cmp	r2, r3
    8a68:	1a00002b 	bne	8b1c <iobuf_ioctl+0x188>
    8a6c:	e3570000 	cmp	r7, #0
    8a70:	13560000 	cmpne	r6, #0
    8a74:	0a000028 	beq	8b1c <iobuf_ioctl+0x188>
    8a78:	e59f0350 	ldr	r0, [pc, #848]	; 8dd0 <iobuf_ioctl+0x43c>
    8a7c:	e08f0000 	add	r0, pc, r0
    8a80:	eb0025b7 	bl	12164 <tfp_printf>
    8a84:	e5940030 	ldr	r0, [r4, #48]	; 0x30
    8a88:	e28d300c 	add	r3, sp, #12
    8a8c:	e58d3000 	str	r3, [sp]
    8a90:	e3a02000 	mov	r2, #0
    8a94:	e58d600c 	str	r6, [sp, #12]
    8a98:	e1a03007 	mov	r3, r7
    8a9c:	e3a01007 	mov	r1, #7
    8aa0:	ebfffd8a 	bl	80d0 <file_filter>
    8aa4:	e3500000 	cmp	r0, #0
    8aa8:	1a00001b 	bne	8b1c <iobuf_ioctl+0x188>
    8aac:	e59d000c 	ldr	r0, [sp, #12]
    8ab0:	e28dd034 	add	sp, sp, #52	; 0x34
    8ab4:	e8bd8ff0 	pop	{r4, r5, r6, r7, r8, r9, sl, fp, pc}
    8ab8:	e59f3304 	ldr	r3, [pc, #772]	; 8dc4 <iobuf_ioctl+0x430>
    8abc:	e7983003 	ldr	r3, [r8, r3]
    8ac0:	e5933000 	ldr	r3, [r3]
    8ac4:	e3530000 	cmp	r3, #0
    8ac8:	1a00003d 	bne	8bc4 <iobuf_ioctl+0x230>
    8acc:	e2573000 	subs	r3, r7, #0
    8ad0:	e1844006 	orr	r4, r4, r6
    8ad4:	13a03001 	movne	r3, #1
    8ad8:	e3540000 	cmp	r4, #0
    8adc:	13a03000 	movne	r3, #0
    8ae0:	e3530000 	cmp	r3, #0
    8ae4:	0a00000c 	beq	8b1c <iobuf_ioctl+0x188>
    8ae8:	e1a00007 	mov	r0, r7
    8aec:	ebfffd61 	bl	8078 <fd_cache_invalidate>
    8af0:	e2500000 	subs	r0, r0, #0
    8af4:	13a00001 	movne	r0, #1
    8af8:	e2600000 	rsb	r0, r0, #0
    8afc:	e28dd034 	add	sp, sp, #52	; 0x34
    8b00:	e8bd8ff0 	pop	{r4, r5, r6, r7, r8, r9, sl, fp, pc}
    8b04:	e594003c 	ldr	r0, [r4, #60]	; 0x3c
    8b08:	e3500000 	cmp	r0, #0
    8b0c:	0a000023 	beq	8ba0 <iobuf_ioctl+0x20c>
    8b10:	e1a04000 	mov	r4, r0
    8b14:	e3540000 	cmp	r4, #0
    8b18:	1afffff9 	bne	8b04 <iobuf_ioctl+0x170>
    8b1c:	e3e00000 	mvn	r0, #0
    8b20:	e28dd034 	add	sp, sp, #52	; 0x34
    8b24:	e8bd8ff0 	pop	{r4, r5, r6, r7, r8, r9, sl, fp, pc}
    8b28:	e59f3294 	ldr	r3, [pc, #660]	; 8dc4 <iobuf_ioctl+0x430>
    8b2c:	e7983003 	ldr	r3, [r8, r3]
    8b30:	e5933000 	ldr	r3, [r3]
    8b34:	e3530000 	cmp	r3, #0
    8b38:	0afffff5 	beq	8b14 <iobuf_ioctl+0x180>
    8b3c:	e3540000 	cmp	r4, #0
    8b40:	0a00006b 	beq	8cf4 <iobuf_ioctl+0x360>
    8b44:	e594902c 	ldr	r9, [r4, #44]	; 0x2c
    8b48:	e3a03020 	mov	r3, #32
    8b4c:	e594a040 	ldr	sl, [r4, #64]	; 0x40
    8b50:	e5947044 	ldr	r7, [r4, #68]	; 0x44
    8b54:	e3590000 	cmp	r9, #0
    8b58:	e58d300c 	str	r3, [sp, #12]
    8b5c:	0a000068 	beq	8d04 <iobuf_ioctl+0x370>
    8b60:	e5940030 	ldr	r0, [r4, #48]	; 0x30
    8b64:	e28d300c 	add	r3, sp, #12
    8b68:	e58d3000 	str	r3, [sp]
    8b6c:	e28d5010 	add	r5, sp, #16
    8b70:	e1a03005 	mov	r3, r5
    8b74:	e3a02000 	mov	r2, #0
    8b78:	e3a01005 	mov	r1, #5
    8b7c:	e12fff39 	blx	r9
    8b80:	e59f024c 	ldr	r0, [pc, #588]	; 8dd4 <iobuf_ioctl+0x440>
    8b84:	e1a03005 	mov	r3, r5
    8b88:	e58d6000 	str	r6, [sp]
    8b8c:	e1a02007 	mov	r2, r7
    8b90:	e08f0000 	add	r0, pc, r0
    8b94:	e1a0100a 	mov	r1, sl
    8b98:	eb002571 	bl	12164 <tfp_printf>
    8b9c:	eaffffdc 	b	8b14 <iobuf_ioctl+0x180>
    8ba0:	e59f3224 	ldr	r3, [pc, #548]	; 8dcc <iobuf_ioctl+0x438>
    8ba4:	e594202c 	ldr	r2, [r4, #44]	; 0x2c
    8ba8:	e7983003 	ldr	r3, [r8, r3]
    8bac:	e1520003 	cmp	r2, r3
    8bb0:	05943030 	ldreq	r3, [r4, #48]	; 0x30
    8bb4:	05836004 	streq	r6, [r3, #4]
    8bb8:	0affffcf 	beq	8afc <iobuf_ioctl+0x168>
    8bbc:	e3e00000 	mvn	r0, #0
    8bc0:	eaffffd6 	b	8b20 <iobuf_ioctl+0x18c>
    8bc4:	e3570000 	cmp	r7, #0
    8bc8:	11a01007 	movne	r1, r7
    8bcc:	0a000071 	beq	8d98 <iobuf_ioctl+0x404>
    8bd0:	e59f0200 	ldr	r0, [pc, #512]	; 8dd8 <iobuf_ioctl+0x444>
    8bd4:	e08f0000 	add	r0, pc, r0
    8bd8:	eb002561 	bl	12164 <tfp_printf>
    8bdc:	eaffffba 	b	8acc <iobuf_ioctl+0x138>
    8be0:	e59f31dc 	ldr	r3, [pc, #476]	; 8dc4 <iobuf_ioctl+0x430>
    8be4:	e7985003 	ldr	r5, [r8, r3]
    8be8:	e5950000 	ldr	r0, [r5]
    8bec:	e3500000 	cmp	r0, #0
    8bf0:	0a00004a 	beq	8d20 <iobuf_ioctl+0x38c>
    8bf4:	e3570000 	cmp	r7, #0
    8bf8:	0a000069 	beq	8da4 <iobuf_ioctl+0x410>
    8bfc:	e59f01d8 	ldr	r0, [pc, #472]	; 8ddc <iobuf_ioctl+0x448>
    8c00:	e1a01007 	mov	r1, r7
    8c04:	e08f0000 	add	r0, pc, r0
    8c08:	eb002555 	bl	12164 <tfp_printf>
    8c0c:	e1943006 	orrs	r3, r4, r6
    8c10:	1affffc1 	bne	8b1c <iobuf_ioctl+0x188>
    8c14:	e5950000 	ldr	r0, [r5]
    8c18:	e3500000 	cmp	r0, #0
    8c1c:	0affffb6 	beq	8afc <iobuf_ioctl+0x168>
    8c20:	e59f01b8 	ldr	r0, [pc, #440]	; 8de0 <iobuf_ioctl+0x44c>
    8c24:	e1a01007 	mov	r1, r7
    8c28:	e08f0000 	add	r0, pc, r0
    8c2c:	eb00254c 	bl	12164 <tfp_printf>
    8c30:	e3a00000 	mov	r0, #0
    8c34:	eaffffb0 	b	8afc <iobuf_ioctl+0x168>
    8c38:	e59f3184 	ldr	r3, [pc, #388]	; 8dc4 <iobuf_ioctl+0x430>
    8c3c:	e7983003 	ldr	r3, [r8, r3]
    8c40:	e5933000 	ldr	r3, [r3]
    8c44:	e3530000 	cmp	r3, #0
    8c48:	0a00001c 	beq	8cc0 <iobuf_ioctl+0x32c>
    8c4c:	e3540000 	cmp	r4, #0
    8c50:	0a00003a 	beq	8d40 <iobuf_ioctl+0x3ac>
    8c54:	e594902c 	ldr	r9, [r4, #44]	; 0x2c
    8c58:	e3a03020 	mov	r3, #32
    8c5c:	e594a040 	ldr	sl, [r4, #64]	; 0x40
    8c60:	e5947044 	ldr	r7, [r4, #68]	; 0x44
    8c64:	e3590000 	cmp	r9, #0
    8c68:	e58d300c 	str	r3, [sp, #12]
    8c6c:	0a000037 	beq	8d50 <iobuf_ioctl+0x3bc>
    8c70:	e5940030 	ldr	r0, [r4, #48]	; 0x30
    8c74:	e28d300c 	add	r3, sp, #12
    8c78:	e58d3000 	str	r3, [sp]
    8c7c:	e28d5010 	add	r5, sp, #16
    8c80:	e1a03005 	mov	r3, r5
    8c84:	e3a02000 	mov	r2, #0
    8c88:	e3a01005 	mov	r1, #5
    8c8c:	e12fff39 	blx	r9
    8c90:	e59f014c 	ldr	r0, [pc, #332]	; 8de4 <iobuf_ioctl+0x450>
    8c94:	e1a03005 	mov	r3, r5
    8c98:	e58d6000 	str	r6, [sp]
    8c9c:	e1a02007 	mov	r2, r7
    8ca0:	e08f0000 	add	r0, pc, r0
    8ca4:	e1a0100a 	mov	r1, sl
    8ca8:	eb00252d 	bl	12164 <tfp_printf>
    8cac:	ea000003 	b	8cc0 <iobuf_ioctl+0x32c>
    8cb0:	e594303c 	ldr	r3, [r4, #60]	; 0x3c
    8cb4:	e3530000 	cmp	r3, #0
    8cb8:	0a000003 	beq	8ccc <iobuf_ioctl+0x338>
    8cbc:	e1a04003 	mov	r4, r3
    8cc0:	e3540000 	cmp	r4, #0
    8cc4:	1afffff9 	bne	8cb0 <iobuf_ioctl+0x31c>
    8cc8:	eaffff93 	b	8b1c <iobuf_ioctl+0x188>
    8ccc:	e59f20f8 	ldr	r2, [pc, #248]	; 8dcc <iobuf_ioctl+0x438>
    8cd0:	e594102c 	ldr	r1, [r4, #44]	; 0x2c
    8cd4:	e7982002 	ldr	r2, [r8, r2]
    8cd8:	e1510002 	cmp	r1, r2
    8cdc:	01a00003 	moveq	r0, r3
    8ce0:	05942030 	ldreq	r2, [r4, #48]	; 0x30
    8ce4:	05826008 	streq	r6, [r2, #8]
    8ce8:	0affff83 	beq	8afc <iobuf_ioctl+0x168>
    8cec:	e3e00000 	mvn	r0, #0
    8cf0:	eaffff8a 	b	8b20 <iobuf_ioctl+0x18c>
    8cf4:	e3e07000 	mvn	r7, #0
    8cf8:	e3a03020 	mov	r3, #32
    8cfc:	e58d300c 	str	r3, [sp, #12]
    8d00:	e1a0a007 	mov	sl, r7
    8d04:	e59f10dc 	ldr	r1, [pc, #220]	; 8de8 <iobuf_ioctl+0x454>
    8d08:	e28d5010 	add	r5, sp, #16
    8d0c:	e3a02002 	mov	r2, #2
    8d10:	e1a00005 	mov	r0, r5
    8d14:	e08f1001 	add	r1, pc, r1
    8d18:	eb001c45 	bl	fe34 <memcpy>
    8d1c:	eaffff97 	b	8b80 <iobuf_ioctl+0x1ec>
    8d20:	e2577000 	subs	r7, r7, #0
    8d24:	e1844006 	orr	r4, r4, r6
    8d28:	13a07001 	movne	r7, #1
    8d2c:	e3540000 	cmp	r4, #0
    8d30:	13a07000 	movne	r7, #0
    8d34:	e3570000 	cmp	r7, #0
    8d38:	1affff6f 	bne	8afc <iobuf_ioctl+0x168>
    8d3c:	eaffff76 	b	8b1c <iobuf_ioctl+0x188>
    8d40:	e3e07000 	mvn	r7, #0
    8d44:	e3a03020 	mov	r3, #32
    8d48:	e58d300c 	str	r3, [sp, #12]
    8d4c:	e1a0a007 	mov	sl, r7
    8d50:	e59f1094 	ldr	r1, [pc, #148]	; 8dec <iobuf_ioctl+0x458>
    8d54:	e28d5010 	add	r5, sp, #16
    8d58:	e3a02002 	mov	r2, #2
    8d5c:	e1a00005 	mov	r0, r5
    8d60:	e08f1001 	add	r1, pc, r1
    8d64:	eb001c32 	bl	fe34 <memcpy>
    8d68:	eaffffc8 	b	8c90 <iobuf_ioctl+0x2fc>
    8d6c:	e3e09000 	mvn	r9, #0
    8d70:	e3a03020 	mov	r3, #32
    8d74:	e58d300c 	str	r3, [sp, #12]
    8d78:	e1a0b009 	mov	fp, r9
    8d7c:	e59f106c 	ldr	r1, [pc, #108]	; 8df0 <iobuf_ioctl+0x45c>
    8d80:	e28d5010 	add	r5, sp, #16
    8d84:	e3a02002 	mov	r2, #2
    8d88:	e1a00005 	mov	r0, r5
    8d8c:	e08f1001 	add	r1, pc, r1
    8d90:	eb001c27 	bl	fe34 <memcpy>
    8d94:	eaffff29 	b	8a40 <iobuf_ioctl+0xac>
    8d98:	e59f1054 	ldr	r1, [pc, #84]	; 8df4 <iobuf_ioctl+0x460>
    8d9c:	e08f1001 	add	r1, pc, r1
    8da0:	eaffff8a 	b	8bd0 <iobuf_ioctl+0x23c>
    8da4:	e59f104c 	ldr	r1, [pc, #76]	; 8df8 <iobuf_ioctl+0x464>
    8da8:	e59f004c 	ldr	r0, [pc, #76]	; 8dfc <iobuf_ioctl+0x468>
    8dac:	e08f1001 	add	r1, pc, r1
    8db0:	e08f0000 	add	r0, pc, r0
    8db4:	eb0024ea 	bl	12164 <tfp_printf>
    8db8:	eaffff57 	b	8b1c <iobuf_ioctl+0x188>
    8dbc:	0000d868 	.word	0x0000d868
    8dc0:	00033170 	.word	0x00033170
    8dc4:	0000001c 	.word	0x0000001c
    8dc8:	0000d88c 	.word	0x0000d88c
    8dcc:	00000048 	.word	0x00000048
    8dd0:	0000d880 	.word	0x0000d880
    8dd4:	0000d69c 	.word	0x0000d69c
    8dd8:	0000d680 	.word	0x0000d680
    8ddc:	0000d69c 	.word	0x0000d69c
    8de0:	0000d698 	.word	0x0000d698
    8de4:	0000d5d8 	.word	0x0000d5d8
    8de8:	0000d3c8 	.word	0x0000d3c8
    8dec:	0000d37c 	.word	0x0000d37c
    8df0:	0000d350 	.word	0x0000d350
    8df4:	0000d340 	.word	0x0000d340
    8df8:	0000d56c 	.word	0x0000d56c
    8dfc:	0000d4f0 	.word	0x0000d4f0

00008e00 <iobuf_fdopen>:
    8e00:	e1a03001 	mov	r3, r1
    8e04:	e3a01077 	mov	r1, #119	; 0x77
    8e08:	e92d43f0 	push	{r4, r5, r6, r7, r8, r9, lr}
    8e0c:	e1a07000 	mov	r7, r0
    8e10:	e59f60dc 	ldr	r6, [pc, #220]	; 8ef4 <iobuf_fdopen+0xf4>
    8e14:	e24dd014 	sub	sp, sp, #20
    8e18:	e1a00003 	mov	r0, r3
    8e1c:	e3a08000 	mov	r8, #0
    8e20:	e08f6006 	add	r6, pc, r6
    8e24:	eb001c63 	bl	ffb8 <strchr>
    8e28:	e3500000 	cmp	r0, #0
    8e2c:	e3a01a02 	mov	r1, #8192	; 0x2000
    8e30:	13a00002 	movne	r0, #2
    8e34:	01a00008 	moveq	r0, r8
    8e38:	e3a09001 	mov	r9, #1
    8e3c:	ebfffdaf 	bl	8500 <iobuf_alloc>
    8e40:	e1a05000 	mov	r5, r0
    8e44:	e3a0004c 	mov	r0, #76	; 0x4c
    8e48:	eb001bcb 	bl	fd7c <xmalloc>
    8e4c:	e59f10a4 	ldr	r1, [pc, #164]	; 8ef8 <iobuf_fdopen+0xf8>
    8e50:	e1a02007 	mov	r2, r7
    8e54:	e5807000 	str	r7, [r0]
    8e58:	e2807036 	add	r7, r0, #54	; 0x36
    8e5c:	e08f1001 	add	r1, pc, r1
    8e60:	e1a04000 	mov	r4, r0
    8e64:	e5809010 	str	r9, [r0, #16]
    8e68:	e5808004 	str	r8, [r0, #4]
    8e6c:	e1a00007 	mov	r0, r7
    8e70:	eb0024cb 	bl	121a4 <tfp_sprintf>
    8e74:	e59f3080 	ldr	r3, [pc, #128]	; 8efc <iobuf_fdopen+0xfc>
    8e78:	e1a01009 	mov	r1, r9
    8e7c:	e1a00004 	mov	r0, r4
    8e80:	e1a02008 	mov	r2, r8
    8e84:	e7963003 	ldr	r3, [r6, r3]
    8e88:	e5854030 	str	r4, [r5, #48]	; 0x30
    8e8c:	e585302c 	str	r3, [r5, #44]	; 0x2c
    8e90:	e28d300c 	add	r3, sp, #12
    8e94:	e58d3000 	str	r3, [sp]
    8e98:	e1a03008 	mov	r3, r8
    8e9c:	ebfffc8b 	bl	80d0 <file_filter>
    8ea0:	e59f3058 	ldr	r3, [pc, #88]	; 8f00 <iobuf_fdopen+0x100>
    8ea4:	e7963003 	ldr	r3, [r6, r3]
    8ea8:	e5933000 	ldr	r3, [r3]
    8eac:	e1530008 	cmp	r3, r8
    8eb0:	0a000007 	beq	8ed4 <iobuf_fdopen+0xd4>
    8eb4:	e59f3048 	ldr	r3, [pc, #72]	; 8f04 <iobuf_fdopen+0x104>
    8eb8:	e59f0048 	ldr	r0, [pc, #72]	; 8f08 <iobuf_fdopen+0x108>
    8ebc:	e5952044 	ldr	r2, [r5, #68]	; 0x44
    8ec0:	e5951040 	ldr	r1, [r5, #64]	; 0x40
    8ec4:	e08f3003 	add	r3, pc, r3
    8ec8:	e08f0000 	add	r0, pc, r0
    8ecc:	e58d7000 	str	r7, [sp]
    8ed0:	eb0024a3 	bl	12164 <tfp_printf>
    8ed4:	e3a03000 	mov	r3, #0
    8ed8:	e3a02001 	mov	r2, #1
    8edc:	e3a01003 	mov	r1, #3
    8ee0:	e1a00005 	mov	r0, r5
    8ee4:	ebfffeaa 	bl	8994 <iobuf_ioctl>
    8ee8:	e1a00005 	mov	r0, r5
    8eec:	e28dd014 	add	sp, sp, #20
    8ef0:	e8bd83f0 	pop	{r4, r5, r6, r7, r8, r9, pc}
    8ef4:	00032d04 	.word	0x00032d04
    8ef8:	0000d4c4 	.word	0x0000d4c4
    8efc:	00000048 	.word	0x00000048
    8f00:	0000001c 	.word	0x0000001c
    8f04:	0000e430 	.word	0x0000e430
    8f08:	0000d460 	.word	0x0000d460

00008f0c <iobuf_push_filter2>:
    8f0c:	e92d43f0 	push	{r4, r5, r6, r7, r8, r9, lr}
    8f10:	e24dd034 	sub	sp, sp, #52	; 0x34
    8f14:	e5d0c000 	ldrb	ip, [r0]
    8f18:	e1a09003 	mov	r9, r3
    8f1c:	e59f81bc 	ldr	r8, [pc, #444]	; 90e0 <iobuf_push_filter2+0x1d4>
    8f20:	e3a03000 	mov	r3, #0
    8f24:	e58d3008 	str	r3, [sp, #8]
    8f28:	e35c0002 	cmp	ip, #2
    8f2c:	e08f8008 	add	r8, pc, r8
    8f30:	e1a04000 	mov	r4, r0
    8f34:	e1a05001 	mov	r5, r1
    8f38:	e1a07002 	mov	r7, r2
    8f3c:	0a00005c 	beq	90b4 <iobuf_push_filter2+0x1a8>
    8f40:	e5943044 	ldr	r3, [r4, #68]	; 0x44
    8f44:	e353003f 	cmp	r3, #63	; 0x3f
    8f48:	ca000039 	bgt	9034 <iobuf_push_filter2+0x128>
    8f4c:	e3a00048 	mov	r0, #72	; 0x48
    8f50:	eb001b89 	bl	fd7c <xmalloc>
    8f54:	e3a02048 	mov	r2, #72	; 0x48
    8f58:	e1a01004 	mov	r1, r4
    8f5c:	e1a06000 	mov	r6, r0
    8f60:	eb001bb3 	bl	fe34 <memcpy>
    8f64:	e5d42000 	ldrb	r2, [r4]
    8f68:	e3a03000 	mov	r3, #0
    8f6c:	e584302c 	str	r3, [r4, #44]	; 0x2c
    8f70:	e5843030 	str	r3, [r4, #48]	; 0x30
    8f74:	e3520003 	cmp	r2, #3
    8f78:	e5843034 	str	r3, [r4, #52]	; 0x34
    8f7c:	e5843024 	str	r3, [r4, #36]	; 0x24
    8f80:	0a000026 	beq	9020 <iobuf_push_filter2+0x114>
    8f84:	e3520001 	cmp	r2, #1
    8f88:	05c43000 	strbeq	r3, [r4]
    8f8c:	03a00a02 	moveq	r0, #8192	; 0x2000
    8f90:	15940014 	ldrne	r0, [r4, #20]
    8f94:	05840014 	streq	r0, [r4, #20]
    8f98:	eb001b77 	bl	fd7c <xmalloc>
    8f9c:	e1c620d8 	ldrd	r2, [r6, #8]
    8fa0:	e584603c 	str	r6, [r4, #60]	; 0x3c
    8fa4:	e5966044 	ldr	r6, [r6, #68]	; 0x44
    8fa8:	e0833002 	add	r3, r3, r2
    8fac:	e59f2130 	ldr	r2, [pc, #304]	; 90e4 <iobuf_push_filter2+0x1d8>
    8fb0:	e2866001 	add	r6, r6, #1
    8fb4:	e584300c 	str	r3, [r4, #12]
    8fb8:	e3a03000 	mov	r3, #0
    8fbc:	e5840020 	str	r0, [r4, #32]
    8fc0:	e5849034 	str	r9, [r4, #52]	; 0x34
    8fc4:	e584502c 	str	r5, [r4, #44]	; 0x2c
    8fc8:	e5847030 	str	r7, [r4, #48]	; 0x30
    8fcc:	e5846044 	str	r6, [r4, #68]	; 0x44
    8fd0:	e584301c 	str	r3, [r4, #28]
    8fd4:	e5843018 	str	r3, [r4, #24]
    8fd8:	e5843008 	str	r3, [r4, #8]
    8fdc:	e5843004 	str	r3, [r4, #4]
    8fe0:	e5843010 	str	r3, [r4, #16]
    8fe4:	e7988002 	ldr	r8, [r8, r2]
    8fe8:	e5982000 	ldr	r2, [r8]
    8fec:	e1520003 	cmp	r2, r3
    8ff0:	1a000015 	bne	904c <iobuf_push_filter2+0x140>
    8ff4:	e3550000 	cmp	r5, #0
    8ff8:	0a000006 	beq	9018 <iobuf_push_filter2+0x10c>
    8ffc:	e594203c 	ldr	r2, [r4, #60]	; 0x3c
    9000:	e28d1008 	add	r1, sp, #8
    9004:	e5940030 	ldr	r0, [r4, #48]	; 0x30
    9008:	e3a03000 	mov	r3, #0
    900c:	e58d1000 	str	r1, [sp]
    9010:	e3a01001 	mov	r1, #1
    9014:	e12fff35 	blx	r5
    9018:	e28dd034 	add	sp, sp, #52	; 0x34
    901c:	e8bd83f0 	pop	{r4, r5, r6, r7, r8, r9, pc}
    9020:	e3a00a02 	mov	r0, #8192	; 0x2000
    9024:	e3a03002 	mov	r3, #2
    9028:	e5840014 	str	r0, [r4, #20]
    902c:	e5c43000 	strb	r3, [r4]
    9030:	eaffffd8 	b	8f98 <iobuf_push_filter2+0x8c>
    9034:	e59f00ac 	ldr	r0, [pc, #172]	; 90e8 <iobuf_push_filter2+0x1dc>
    9038:	e08f0000 	add	r0, pc, r0
    903c:	eb002448 	bl	12164 <tfp_printf>
    9040:	e3a00059 	mov	r0, #89	; 0x59
    9044:	e28dd034 	add	sp, sp, #52	; 0x34
    9048:	e8bd83f0 	pop	{r4, r5, r6, r7, r8, r9, pc}
    904c:	e1550003 	cmp	r5, r3
    9050:	e3a02020 	mov	r2, #32
    9054:	e5949040 	ldr	r9, [r4, #64]	; 0x40
    9058:	e58d200c 	str	r2, [sp, #12]
    905c:	0a000018 	beq	90c4 <iobuf_push_filter2+0x1b8>
    9060:	e1a02003 	mov	r2, r3
    9064:	e1a00007 	mov	r0, r7
    9068:	e28d300c 	add	r3, sp, #12
    906c:	e28d7010 	add	r7, sp, #16
    9070:	e58d3000 	str	r3, [sp]
    9074:	e3a01005 	mov	r1, #5
    9078:	e1a03007 	mov	r3, r7
    907c:	e12fff35 	blx	r5
    9080:	e59f0064 	ldr	r0, [pc, #100]	; 90ec <iobuf_push_filter2+0x1e0>
    9084:	e1a03007 	mov	r3, r7
    9088:	e1a02006 	mov	r2, r6
    908c:	e1a01009 	mov	r1, r9
    9090:	e08f0000 	add	r0, pc, r0
    9094:	eb002432 	bl	12164 <tfp_printf>
    9098:	e5983000 	ldr	r3, [r8]
    909c:	e3530000 	cmp	r3, #0
    90a0:	0a000001 	beq	90ac <iobuf_push_filter2+0x1a0>
    90a4:	e1a00004 	mov	r0, r4
    90a8:	ebfffcad 	bl	8364 <print_chain.part.0>
    90ac:	e594502c 	ldr	r5, [r4, #44]	; 0x2c
    90b0:	eaffffcf 	b	8ff4 <iobuf_push_filter2+0xe8>
    90b4:	ebfffc61 	bl	8240 <filter_flush>
    90b8:	e3500000 	cmp	r0, #0
    90bc:	0affff9f 	beq	8f40 <iobuf_push_filter2+0x34>
    90c0:	eaffffd4 	b	9018 <iobuf_push_filter2+0x10c>
    90c4:	e59f1024 	ldr	r1, [pc, #36]	; 90f0 <iobuf_push_filter2+0x1e4>
    90c8:	e28d7010 	add	r7, sp, #16
    90cc:	e3a02002 	mov	r2, #2
    90d0:	e1a00007 	mov	r0, r7
    90d4:	e08f1001 	add	r1, pc, r1
    90d8:	eb001b55 	bl	fe34 <memcpy>
    90dc:	eaffffe7 	b	9080 <iobuf_push_filter2+0x174>
    90e0:	00032bf8 	.word	0x00032bf8
    90e4:	0000001c 	.word	0x0000001c
    90e8:	0000d30c 	.word	0x0000d30c
    90ec:	0000d2e4 	.word	0x0000d2e4
    90f0:	0000d008 	.word	0x0000d008

000090f4 <iobuf_push_filter>:
    90f4:	e3a03000 	mov	r3, #0
    90f8:	eaffff83 	b	8f0c <iobuf_push_filter2>

000090fc <iobuf_pop_filter>:
    90fc:	e92d4ff0 	push	{r4, r5, r6, r7, r8, r9, sl, fp, lr}
    9100:	e1a06000 	mov	r6, r0
    9104:	e59f02b4 	ldr	r0, [pc, #692]	; 93c0 <iobuf_pop_filter+0x2c4>
    9108:	e24dd034 	sub	sp, sp, #52	; 0x34
    910c:	e59f42b0 	ldr	r4, [pc, #688]	; 93c4 <iobuf_pop_filter+0x2c8>
    9110:	e1a08001 	mov	r8, r1
    9114:	e08f0000 	add	r0, pc, r0
    9118:	e1a09002 	mov	r9, r2
    911c:	e5961008 	ldr	r1, [r6, #8]
    9120:	e08f4004 	add	r4, pc, r4
    9124:	eb00240e 	bl	12164 <tfp_printf>
    9128:	e59f1298 	ldr	r1, [pc, #664]	; 93c8 <iobuf_pop_filter+0x2cc>
    912c:	e3a02000 	mov	r2, #0
    9130:	e58d2008 	str	r2, [sp, #8]
    9134:	e1a03004 	mov	r3, r4
    9138:	e7947001 	ldr	r7, [r4, r1]
    913c:	e5973000 	ldr	r3, [r7]
    9140:	e1530002 	cmp	r3, r2
    9144:	1a000039 	bne	9230 <iobuf_pop_filter+0x134>
    9148:	e5d62000 	ldrb	r2, [r6]
    914c:	e20230fd 	and	r3, r2, #253	; 0xfd
    9150:	e3530001 	cmp	r3, #1
    9154:	0a00002e 	beq	9214 <iobuf_pop_filter+0x118>
    9158:	e596502c 	ldr	r5, [r6, #44]	; 0x2c
    915c:	e3550000 	cmp	r5, #0
    9160:	11a04006 	movne	r4, r6
    9164:	1a000004 	bne	917c <iobuf_pop_filter+0x80>
    9168:	ea00007c 	b	9360 <iobuf_pop_filter+0x264>
    916c:	e594403c 	ldr	r4, [r4, #60]	; 0x3c
    9170:	e3540000 	cmp	r4, #0
    9174:	0a00006d 	beq	9330 <iobuf_pop_filter+0x234>
    9178:	e594502c 	ldr	r5, [r4, #44]	; 0x2c
    917c:	e1580005 	cmp	r8, r5
    9180:	1afffff9 	bne	916c <iobuf_pop_filter+0x70>
    9184:	e3590000 	cmp	r9, #0
    9188:	0a000002 	beq	9198 <iobuf_pop_filter+0x9c>
    918c:	e5943030 	ldr	r3, [r4, #48]	; 0x30
    9190:	e1530009 	cmp	r3, r9
    9194:	1afffff4 	bne	916c <iobuf_pop_filter+0x70>
    9198:	e3520002 	cmp	r2, #2
    919c:	0a000038 	beq	9284 <iobuf_pop_filter+0x188>
    91a0:	e594502c 	ldr	r5, [r4, #44]	; 0x2c
    91a4:	e3550000 	cmp	r5, #0
    91a8:	0a000008 	beq	91d0 <iobuf_pop_filter+0xd4>
    91ac:	e594203c 	ldr	r2, [r4, #60]	; 0x3c
    91b0:	e28d3008 	add	r3, sp, #8
    91b4:	e5940030 	ldr	r0, [r4, #48]	; 0x30
    91b8:	e3a01002 	mov	r1, #2
    91bc:	e58d3000 	str	r3, [sp]
    91c0:	e3a03000 	mov	r3, #0
    91c4:	e12fff35 	blx	r5
    91c8:	e3500000 	cmp	r0, #0
    91cc:	1a00000e 	bne	920c <iobuf_pop_filter+0x110>
    91d0:	e5940030 	ldr	r0, [r4, #48]	; 0x30
    91d4:	e3500000 	cmp	r0, #0
    91d8:	0a000002 	beq	91e8 <iobuf_pop_filter+0xec>
    91dc:	e5943034 	ldr	r3, [r4, #52]	; 0x34
    91e0:	e3530000 	cmp	r3, #0
    91e4:	1a00002b 	bne	9298 <iobuf_pop_filter+0x19c>
    91e8:	e1560004 	cmp	r6, r4
    91ec:	0a000034 	beq	92c4 <iobuf_pop_filter+0x1c8>
    91f0:	e594503c 	ldr	r5, [r4, #60]	; 0x3c
    91f4:	e3550000 	cmp	r5, #0
    91f8:	0a000053 	beq	934c <iobuf_pop_filter+0x250>
    91fc:	e59f01c8 	ldr	r0, [pc, #456]	; 93cc <iobuf_pop_filter+0x2d0>
    9200:	e08f0000 	add	r0, pc, r0
    9204:	eb0023d6 	bl	12164 <tfp_printf>
    9208:	e3a00000 	mov	r0, #0
    920c:	e28dd034 	add	sp, sp, #52	; 0x34
    9210:	e8bd8ff0 	pop	{r4, r5, r6, r7, r8, r9, sl, fp, pc}
    9214:	e596003c 	ldr	r0, [r6, #60]	; 0x3c
    9218:	e16f0f10 	clz	r0, r0
    921c:	e1a002a0 	lsr	r0, r0, #5
    9220:	eb0023cf 	bl	12164 <tfp_printf>
    9224:	e3a00000 	mov	r0, #0
    9228:	e28dd034 	add	sp, sp, #52	; 0x34
    922c:	e8bd8ff0 	pop	{r4, r5, r6, r7, r8, r9, sl, fp, pc}
    9230:	e596402c 	ldr	r4, [r6, #44]	; 0x2c
    9234:	e3a03020 	mov	r3, #32
    9238:	e5965040 	ldr	r5, [r6, #64]	; 0x40
    923c:	e1540002 	cmp	r4, r2
    9240:	e596a044 	ldr	sl, [r6, #68]	; 0x44
    9244:	e58d300c 	str	r3, [sp, #12]
    9248:	0a000016 	beq	92a8 <iobuf_pop_filter+0x1ac>
    924c:	e5960030 	ldr	r0, [r6, #48]	; 0x30
    9250:	e28d300c 	add	r3, sp, #12
    9254:	e58d3000 	str	r3, [sp]
    9258:	e28db010 	add	fp, sp, #16
    925c:	e1a0300b 	mov	r3, fp
    9260:	e3a01005 	mov	r1, #5
    9264:	e12fff34 	blx	r4
    9268:	e59f0160 	ldr	r0, [pc, #352]	; 93d0 <iobuf_pop_filter+0x2d4>
    926c:	e1a0300b 	mov	r3, fp
    9270:	e1a0200a 	mov	r2, sl
    9274:	e1a01005 	mov	r1, r5
    9278:	e08f0000 	add	r0, pc, r0
    927c:	eb0023b8 	bl	12164 <tfp_printf>
    9280:	eaffffb0 	b	9148 <iobuf_pop_filter+0x4c>
    9284:	e1a00004 	mov	r0, r4
    9288:	ebfffbec 	bl	8240 <filter_flush>
    928c:	e3500000 	cmp	r0, #0
    9290:	0affffc2 	beq	91a0 <iobuf_pop_filter+0xa4>
    9294:	eaffffdc 	b	920c <iobuf_pop_filter+0x110>
    9298:	eb001aab 	bl	fd4c <xfree>
    929c:	e3a03000 	mov	r3, #0
    92a0:	e5843030 	str	r3, [r4, #48]	; 0x30
    92a4:	eaffffcf 	b	91e8 <iobuf_pop_filter+0xec>
    92a8:	e59f1124 	ldr	r1, [pc, #292]	; 93d4 <iobuf_pop_filter+0x2d8>
    92ac:	e28db010 	add	fp, sp, #16
    92b0:	e3a02002 	mov	r2, #2
    92b4:	e1a0000b 	mov	r0, fp
    92b8:	e08f1001 	add	r1, pc, r1
    92bc:	eb001adc 	bl	fe34 <memcpy>
    92c0:	eaffffe8 	b	9268 <iobuf_pop_filter+0x16c>
    92c4:	e596503c 	ldr	r5, [r6, #60]	; 0x3c
    92c8:	e3550000 	cmp	r5, #0
    92cc:	0a000036 	beq	93ac <iobuf_pop_filter+0x2b0>
    92d0:	e5960020 	ldr	r0, [r6, #32]
    92d4:	eb001a9c 	bl	fd4c <xfree>
    92d8:	e5960038 	ldr	r0, [r6, #56]	; 0x38
    92dc:	eb001a9a 	bl	fd4c <xfree>
    92e0:	e3a02048 	mov	r2, #72	; 0x48
    92e4:	e1a01005 	mov	r1, r5
    92e8:	e1a00006 	mov	r0, r6
    92ec:	eb001ad0 	bl	fe34 <memcpy>
    92f0:	e1a00005 	mov	r0, r5
    92f4:	eb001a94 	bl	fd4c <xfree>
    92f8:	e59f00d8 	ldr	r0, [pc, #216]	; 93d8 <iobuf_pop_filter+0x2dc>
    92fc:	e3a01048 	mov	r1, #72	; 0x48
    9300:	e08f0000 	add	r0, pc, r0
    9304:	eb002396 	bl	12164 <tfp_printf>
    9308:	e5970000 	ldr	r0, [r7]
    930c:	e3500000 	cmp	r0, #0
    9310:	0affffbd 	beq	920c <iobuf_pop_filter+0x110>
    9314:	e59f00c0 	ldr	r0, [pc, #192]	; 93dc <iobuf_pop_filter+0x2e0>
    9318:	e5962044 	ldr	r2, [r6, #68]	; 0x44
    931c:	e08f0000 	add	r0, pc, r0
    9320:	e5961040 	ldr	r1, [r6, #64]	; 0x40
    9324:	eb00238e 	bl	12164 <tfp_printf>
    9328:	e3a00000 	mov	r0, #0
    932c:	eaffffb6 	b	920c <iobuf_pop_filter+0x110>
    9330:	e59f00a8 	ldr	r0, [pc, #168]	; 93e0 <iobuf_pop_filter+0x2e4>
    9334:	e08f0000 	add	r0, pc, r0
    9338:	eb002389 	bl	12164 <tfp_printf>
    933c:	e5d62000 	ldrb	r2, [r6]
    9340:	e3520002 	cmp	r2, #2
    9344:	1affff95 	bne	91a0 <iobuf_pop_filter+0xa4>
    9348:	eaffffcd 	b	9284 <iobuf_pop_filter+0x188>
    934c:	e59f0090 	ldr	r0, [pc, #144]	; 93e4 <iobuf_pop_filter+0x2e8>
    9350:	e08f0000 	add	r0, pc, r0
    9354:	eb002382 	bl	12164 <tfp_printf>
    9358:	e1a00005 	mov	r0, r5
    935c:	eaffffaa 	b	920c <iobuf_pop_filter+0x110>
    9360:	e596403c 	ldr	r4, [r6, #60]	; 0x3c
    9364:	e1a00004 	mov	r0, r4
    9368:	eb00237d 	bl	12164 <tfp_printf>
    936c:	e5960020 	ldr	r0, [r6, #32]
    9370:	eb001a75 	bl	fd4c <xfree>
    9374:	e5960038 	ldr	r0, [r6, #56]	; 0x38
    9378:	eb001a73 	bl	fd4c <xfree>
    937c:	e59f0064 	ldr	r0, [pc, #100]	; 93e8 <iobuf_pop_filter+0x2ec>
    9380:	e3a01048 	mov	r1, #72	; 0x48
    9384:	e08f0000 	add	r0, pc, r0
    9388:	eb002375 	bl	12164 <tfp_printf>
    938c:	e3a02048 	mov	r2, #72	; 0x48
    9390:	e1a01004 	mov	r1, r4
    9394:	e1a00006 	mov	r0, r6
    9398:	eb001aa5 	bl	fe34 <memcpy>
    939c:	e1a00004 	mov	r0, r4
    93a0:	eb001a69 	bl	fd4c <xfree>
    93a4:	e1a00005 	mov	r0, r5
    93a8:	eaffff97 	b	920c <iobuf_pop_filter+0x110>
    93ac:	e59f0038 	ldr	r0, [pc, #56]	; 93ec <iobuf_pop_filter+0x2f0>
    93b0:	e08f0000 	add	r0, pc, r0
    93b4:	eb00236a 	bl	12164 <tfp_printf>
    93b8:	e1a00005 	mov	r0, r5
    93bc:	eaffff92 	b	920c <iobuf_pop_filter+0x110>
    93c0:	0000d278 	.word	0x0000d278
    93c4:	00032a04 	.word	0x00032a04
    93c8:	0000001c 	.word	0x0000001c
    93cc:	0000d280 	.word	0x0000d280
    93d0:	0000d12c 	.word	0x0000d12c
    93d4:	0000ce24 	.word	0x0000ce24
    93d8:	0000d10c 	.word	0x0000d10c
    93dc:	0000d11c 	.word	0x0000d11c
    93e0:	0000d180 	.word	0x0000d180
    93e4:	0000d104 	.word	0x0000d104
    93e8:	0000d038 	.word	0x0000d038
    93ec:	0000d02c 	.word	0x0000d02c

000093f0 <iobuf_readbyte>:
    93f0:	e92d40f0 	push	{r4, r5, r6, r7, lr}
    93f4:	e24dd01c 	sub	sp, sp, #28
    93f8:	e59f62c4 	ldr	r6, [pc, #708]	; 96c4 <iobuf_readbyte+0x2d4>
    93fc:	e1a04000 	mov	r4, r0
    9400:	e58d000c 	str	r0, [sp, #12]
    9404:	e5d00000 	ldrb	r0, [r0]
    9408:	e08f6006 	add	r6, pc, r6
    940c:	e2403002 	sub	r3, r0, #2
    9410:	e3530001 	cmp	r3, #1
    9414:	9a00009e 	bls	9694 <iobuf_readbyte+0x2a4>
    9418:	e5943004 	ldr	r3, [r4, #4]
    941c:	e3530000 	cmp	r3, #0
    9420:	1a00000d 	bne	945c <iobuf_readbyte+0x6c>
    9424:	e5941018 	ldr	r1, [r4, #24]
    9428:	e594201c 	ldr	r2, [r4, #28]
    942c:	e1510002 	cmp	r1, r2
    9430:	2a00000e 	bcs	9470 <iobuf_readbyte+0x80>
    9434:	e5943020 	ldr	r3, [r4, #32]
    9438:	e2812001 	add	r2, r1, #1
    943c:	e5842018 	str	r2, [r4, #24]
    9440:	e7d35001 	ldrb	r5, [r3, r1]
    9444:	e5943008 	ldr	r3, [r4, #8]
    9448:	e2833001 	add	r3, r3, #1
    944c:	e5843008 	str	r3, [r4, #8]
    9450:	e1a00005 	mov	r0, r5
    9454:	e28dd01c 	add	sp, sp, #28
    9458:	e8bd80f0 	pop	{r4, r5, r6, r7, pc}
    945c:	e5942008 	ldr	r2, [r4, #8]
    9460:	e1530002 	cmp	r3, r2
    9464:	caffffee 	bgt	9424 <iobuf_readbyte+0x34>
    9468:	e3e05000 	mvn	r5, #0
    946c:	eafffff7 	b	9450 <iobuf_readbyte+0x60>
    9470:	e3500001 	cmp	r0, #1
    9474:	0afffffb 	beq	9468 <iobuf_readbyte+0x78>
    9478:	e5940020 	ldr	r0, [r4, #32]
    947c:	e0422001 	sub	r2, r2, r1
    9480:	e584201c 	str	r2, [r4, #28]
    9484:	e0801001 	add	r1, r0, r1
    9488:	eb001a8f 	bl	fecc <memmove>
    948c:	e594301c 	ldr	r3, [r4, #28]
    9490:	e3a02000 	mov	r2, #0
    9494:	e5842018 	str	r2, [r4, #24]
    9498:	e1530002 	cmp	r3, r2
    949c:	0a00000a 	beq	94cc <iobuf_readbyte+0xdc>
    94a0:	e594502c 	ldr	r5, [r4, #44]	; 0x2c
    94a4:	e3550000 	cmp	r5, #0
    94a8:	0a000073 	beq	967c <iobuf_readbyte+0x28c>
    94ac:	e5941024 	ldr	r1, [r4, #36]	; 0x24
    94b0:	e3510000 	cmp	r1, #0
    94b4:	0a00007d 	beq	96b0 <iobuf_readbyte+0x2c0>
    94b8:	e5943020 	ldr	r3, [r4, #32]
    94bc:	e2821001 	add	r1, r2, #1
    94c0:	e5841018 	str	r1, [r4, #24]
    94c4:	e7d35002 	ldrb	r5, [r3, r2]
    94c8:	eaffffdd 	b	9444 <iobuf_readbyte+0x54>
    94cc:	e5942024 	ldr	r2, [r4, #36]	; 0x24
    94d0:	e3520000 	cmp	r2, #0
    94d4:	0a000015 	beq	9530 <iobuf_readbyte+0x140>
    94d8:	e594503c 	ldr	r5, [r4, #60]	; 0x3c
    94dc:	e3550000 	cmp	r5, #0
    94e0:	0a000063 	beq	9674 <iobuf_readbyte+0x284>
    94e4:	e5940020 	ldr	r0, [r4, #32]
    94e8:	eb001a17 	bl	fd4c <xfree>
    94ec:	e5940038 	ldr	r0, [r4, #56]	; 0x38
    94f0:	eb001a15 	bl	fd4c <xfree>
    94f4:	e3a02048 	mov	r2, #72	; 0x48
    94f8:	e1a01005 	mov	r1, r5
    94fc:	e1a00004 	mov	r0, r4
    9500:	eb001a4b 	bl	fe34 <memcpy>
    9504:	e1a00005 	mov	r0, r5
    9508:	eb001a0f 	bl	fd4c <xfree>
    950c:	e59f31b4 	ldr	r3, [pc, #436]	; 96c8 <iobuf_readbyte+0x2d8>
    9510:	e7963003 	ldr	r3, [r6, r3]
    9514:	e5933000 	ldr	r3, [r3]
    9518:	e3530000 	cmp	r3, #0
    951c:	0affffd1 	beq	9468 <iobuf_readbyte+0x78>
    9520:	e1a00004 	mov	r0, r4
    9524:	e3e05000 	mvn	r5, #0
    9528:	ebfffb8d 	bl	8364 <print_chain.part.0>
    952c:	eaffffc7 	b	9450 <iobuf_readbyte+0x60>
    9530:	e5942028 	ldr	r2, [r4, #40]	; 0x28
    9534:	e3520000 	cmp	r2, #0
    9538:	1affffca 	bne	9468 <iobuf_readbyte+0x78>
    953c:	e594502c 	ldr	r5, [r4, #44]	; 0x2c
    9540:	e3550000 	cmp	r5, #0
    9544:	0affffc7 	beq	9468 <iobuf_readbyte+0x78>
    9548:	e5942014 	ldr	r2, [r4, #20]
    954c:	e0422003 	sub	r2, r2, r3
    9550:	e58d2010 	str	r2, [sp, #16]
    9554:	e3520000 	cmp	r2, #0
    9558:	0a000042 	beq	9668 <iobuf_readbyte+0x278>
    955c:	e5942020 	ldr	r2, [r4, #32]
    9560:	e28d1010 	add	r1, sp, #16
    9564:	e5940030 	ldr	r0, [r4, #48]	; 0x30
    9568:	e0823003 	add	r3, r2, r3
    956c:	e594203c 	ldr	r2, [r4, #60]	; 0x3c
    9570:	e58d1000 	str	r1, [sp]
    9574:	e3a01003 	mov	r1, #3
    9578:	e12fff35 	blx	r5
    957c:	e594201c 	ldr	r2, [r4, #28]
    9580:	e3700001 	cmn	r0, #1
    9584:	e59d3010 	ldr	r3, [sp, #16]
    9588:	e1a05000 	mov	r5, r0
    958c:	e0823003 	add	r3, r2, r3
    9590:	e584301c 	str	r3, [r4, #28]
    9594:	1a00002d 	bne	9650 <iobuf_readbyte+0x260>
    9598:	e594702c 	ldr	r7, [r4, #44]	; 0x2c
    959c:	e3a03000 	mov	r3, #0
    95a0:	e594203c 	ldr	r2, [r4, #60]	; 0x3c
    95a4:	e28d1014 	add	r1, sp, #20
    95a8:	e58d1000 	str	r1, [sp]
    95ac:	e3a01002 	mov	r1, #2
    95b0:	e5940030 	ldr	r0, [r4, #48]	; 0x30
    95b4:	e58d3014 	str	r3, [sp, #20]
    95b8:	e12fff37 	blx	r7
    95bc:	e3500000 	cmp	r0, #0
    95c0:	1a00002f 	bne	9684 <iobuf_readbyte+0x294>
    95c4:	e5940030 	ldr	r0, [r4, #48]	; 0x30
    95c8:	e3500000 	cmp	r0, #0
    95cc:	0a000002 	beq	95dc <iobuf_readbyte+0x1ec>
    95d0:	e5943034 	ldr	r3, [r4, #52]	; 0x34
    95d4:	e3530000 	cmp	r3, #0
    95d8:	1a000032 	bne	96a8 <iobuf_readbyte+0x2b8>
    95dc:	e594301c 	ldr	r3, [r4, #28]
    95e0:	e3a02000 	mov	r2, #0
    95e4:	e5842030 	str	r2, [r4, #48]	; 0x30
    95e8:	e1530002 	cmp	r3, r2
    95ec:	e584202c 	str	r2, [r4, #44]	; 0x2c
    95f0:	e3a02001 	mov	r2, #1
    95f4:	e5842024 	str	r2, [r4, #36]	; 0x24
    95f8:	1a000019 	bne	9664 <iobuf_readbyte+0x274>
    95fc:	e594703c 	ldr	r7, [r4, #60]	; 0x3c
    9600:	e3570000 	cmp	r7, #0
    9604:	0affff91 	beq	9450 <iobuf_readbyte+0x60>
    9608:	e5940020 	ldr	r0, [r4, #32]
    960c:	eb0019ce 	bl	fd4c <xfree>
    9610:	e5940038 	ldr	r0, [r4, #56]	; 0x38
    9614:	eb0019cc 	bl	fd4c <xfree>
    9618:	e3a02048 	mov	r2, #72	; 0x48
    961c:	e1a01007 	mov	r1, r7
    9620:	e1a00004 	mov	r0, r4
    9624:	eb001a02 	bl	fe34 <memcpy>
    9628:	e1a00007 	mov	r0, r7
    962c:	eb0019c6 	bl	fd4c <xfree>
    9630:	e59f3090 	ldr	r3, [pc, #144]	; 96c8 <iobuf_readbyte+0x2d8>
    9634:	e7963003 	ldr	r3, [r6, r3]
    9638:	e5933000 	ldr	r3, [r3]
    963c:	e3530000 	cmp	r3, #0
    9640:	0affff82 	beq	9450 <iobuf_readbyte+0x60>
    9644:	e1a00004 	mov	r0, r4
    9648:	ebfffb45 	bl	8364 <print_chain.part.0>
    964c:	eaffff7f 	b	9450 <iobuf_readbyte+0x60>
    9650:	e3500000 	cmp	r0, #0
    9654:	0a000002 	beq	9664 <iobuf_readbyte+0x274>
    9658:	e5840028 	str	r0, [r4, #40]	; 0x28
    965c:	e3530000 	cmp	r3, #0
    9660:	0affff80 	beq	9468 <iobuf_readbyte+0x78>
    9664:	e5942018 	ldr	r2, [r4, #24]
    9668:	e1520003 	cmp	r2, r3
    966c:	3affff91 	bcc	94b8 <iobuf_readbyte+0xc8>
    9670:	eaffff7c 	b	9468 <iobuf_readbyte+0x78>
    9674:	e5845024 	str	r5, [r4, #36]	; 0x24
    9678:	eaffff7a 	b	9468 <iobuf_readbyte+0x78>
    967c:	e1a02005 	mov	r2, r5
    9680:	eaffff8c 	b	94b8 <iobuf_readbyte+0xc8>
    9684:	e59f0040 	ldr	r0, [pc, #64]	; 96cc <iobuf_readbyte+0x2dc>
    9688:	e08f0000 	add	r0, pc, r0
    968c:	eb0022b4 	bl	12164 <tfp_printf>
    9690:	eaffffcb 	b	95c4 <iobuf_readbyte+0x1d4>
    9694:	e59f0034 	ldr	r0, [pc, #52]	; 96d0 <iobuf_readbyte+0x2e0>
    9698:	e3e05000 	mvn	r5, #0
    969c:	e08f0000 	add	r0, pc, r0
    96a0:	eb0022af 	bl	12164 <tfp_printf>
    96a4:	eaffff69 	b	9450 <iobuf_readbyte+0x60>
    96a8:	eb0019a7 	bl	fd4c <xfree>
    96ac:	eaffffca 	b	95dc <iobuf_readbyte+0x1ec>
    96b0:	e5942028 	ldr	r2, [r4, #40]	; 0x28
    96b4:	e3520000 	cmp	r2, #0
    96b8:	11a02001 	movne	r2, r1
    96bc:	1affff7d 	bne	94b8 <iobuf_readbyte+0xc8>
    96c0:	eaffffa0 	b	9548 <iobuf_readbyte+0x158>
    96c4:	0003271c 	.word	0x0003271c
    96c8:	0000001c 	.word	0x0000001c
    96cc:	0000ce8c 	.word	0x0000ce8c
    96d0:	0000ce48 	.word	0x0000ce48

000096d4 <iobuf_read>:
    96d4:	e92d41f0 	push	{r4, r5, r6, r7, r8, lr}
    96d8:	e1a06000 	mov	r6, r0
    96dc:	e59f0138 	ldr	r0, [pc, #312]	; 981c <iobuf_read+0x148>
    96e0:	e1a07002 	mov	r7, r2
    96e4:	e5962004 	ldr	r2, [r6, #4]
    96e8:	e1a04001 	mov	r4, r1
    96ec:	e08f0000 	add	r0, pc, r0
    96f0:	e1a01007 	mov	r1, r7
    96f4:	eb00229a 	bl	12164 <tfp_printf>
    96f8:	e5d63000 	ldrb	r3, [r6]
    96fc:	e2433002 	sub	r3, r3, #2
    9700:	e3530001 	cmp	r3, #1
    9704:	9a00003f 	bls	9808 <iobuf_read+0x134>
    9708:	e5965004 	ldr	r5, [r6, #4]
    970c:	e3550000 	cmp	r5, #0
    9710:	0a000011 	beq	975c <iobuf_read+0x88>
    9714:	e2575000 	subs	r5, r7, #0
    9718:	0a000014 	beq	9770 <iobuf_read+0x9c>
    971c:	e3a08000 	mov	r8, #0
    9720:	ea000004 	b	9738 <iobuf_read+0x64>
    9724:	e3540000 	cmp	r4, #0
    9728:	e2888001 	add	r8, r8, #1
    972c:	14c40001 	strbne	r0, [r4], #1
    9730:	e1580007 	cmp	r8, r7
    9734:	0a00000d 	beq	9770 <iobuf_read+0x9c>
    9738:	e1a00006 	mov	r0, r6
    973c:	ebffff2b 	bl	93f0 <iobuf_readbyte>
    9740:	e3700001 	cmn	r0, #1
    9744:	1afffff6 	bne	9724 <iobuf_read+0x50>
    9748:	e3580000 	cmp	r8, #0
    974c:	11a05008 	movne	r5, r8
    9750:	03e05000 	mvneq	r5, #0
    9754:	e1a00005 	mov	r0, r5
    9758:	e8bd81f0 	pop	{r4, r5, r6, r7, r8, pc}
    975c:	e1550007 	cmp	r5, r7
    9760:	3a00001a 	bcc	97d0 <iobuf_read+0xfc>
    9764:	e5963008 	ldr	r3, [r6, #8]
    9768:	e0833005 	add	r3, r3, r5
    976c:	e5863008 	str	r3, [r6, #8]
    9770:	e1a00005 	mov	r0, r5
    9774:	e8bd81f0 	pop	{r4, r5, r6, r7, r8, pc}
    9778:	e1580001 	cmp	r8, r1
    977c:	21a08001 	movcs	r8, r1
    9780:	e3540000 	cmp	r4, #0
    9784:	e0832008 	add	r2, r3, r8
    9788:	0a000019 	beq	97f4 <iobuf_read+0x120>
    978c:	e5961020 	ldr	r1, [r6, #32]
    9790:	e1a00004 	mov	r0, r4
    9794:	e0855008 	add	r5, r5, r8
    9798:	e1a02008 	mov	r2, r8
    979c:	e0811003 	add	r1, r1, r3
    97a0:	e0844008 	add	r4, r4, r8
    97a4:	eb0019a2 	bl	fe34 <memcpy>
    97a8:	e5963018 	ldr	r3, [r6, #24]
    97ac:	e1570005 	cmp	r7, r5
    97b0:	e0833008 	add	r3, r3, r8
    97b4:	e5863018 	str	r3, [r6, #24]
    97b8:	9affffe9 	bls	9764 <iobuf_read+0x90>
    97bc:	e3a03000 	mov	r3, #0
    97c0:	e4c43001 	strb	r3, [r4], #1
    97c4:	e2855001 	add	r5, r5, #1
    97c8:	e1550007 	cmp	r5, r7
    97cc:	2affffe4 	bcs	9764 <iobuf_read+0x90>
    97d0:	e5963018 	ldr	r3, [r6, #24]
    97d4:	e596201c 	ldr	r2, [r6, #28]
    97d8:	e0478005 	sub	r8, r7, r5
    97dc:	e1530002 	cmp	r3, r2
    97e0:	e0421003 	sub	r1, r2, r3
    97e4:	3affffe3 	bcc	9778 <iobuf_read+0xa4>
    97e8:	e3540000 	cmp	r4, #0
    97ec:	1afffff2 	bne	97bc <iobuf_read+0xe8>
    97f0:	eafffff3 	b	97c4 <iobuf_read+0xf0>
    97f4:	e0855008 	add	r5, r5, r8
    97f8:	e1570005 	cmp	r7, r5
    97fc:	e5862018 	str	r2, [r6, #24]
    9800:	8affffef 	bhi	97c4 <iobuf_read+0xf0>
    9804:	eaffffd6 	b	9764 <iobuf_read+0x90>
    9808:	e59f0010 	ldr	r0, [pc, #16]	; 9820 <iobuf_read+0x14c>
    980c:	e3e05000 	mvn	r5, #0
    9810:	e08f0000 	add	r0, pc, r0
    9814:	eb002252 	bl	12164 <tfp_printf>
    9818:	eaffffd4 	b	9770 <iobuf_read+0x9c>
    981c:	0000ce44 	.word	0x0000ce44
    9820:	0000cd3c 	.word	0x0000cd3c

00009824 <iobuf_peek>:
    9824:	e590c014 	ldr	ip, [r0, #20]
    9828:	e1a03000 	mov	r3, r0
    982c:	e92d4010 	push	{r4, lr}
    9830:	e1a00001 	mov	r0, r1
    9834:	e152000c 	cmp	r2, ip
    9838:	e593401c 	ldr	r4, [r3, #28]
    983c:	21a0200c 	movcs	r2, ip
    9840:	e593c018 	ldr	ip, [r3, #24]
    9844:	e044100c 	sub	r1, r4, ip
    9848:	e1520001 	cmp	r2, r1
    984c:	9a00000d 	bls	9888 <iobuf_peek+0x64>
    9850:	e1520004 	cmp	r2, r4
    9854:	8afffffd 	bhi	9850 <iobuf_peek+0x2c>
    9858:	e3a0c000 	mov	ip, #0
    985c:	e583c018 	str	ip, [r3, #24]
    9860:	e1520004 	cmp	r2, r4
    9864:	31a04002 	movcc	r4, r2
    9868:	e3540000 	cmp	r4, #0
    986c:	0a000007 	beq	9890 <iobuf_peek+0x6c>
    9870:	e5931020 	ldr	r1, [r3, #32]
    9874:	e1a02004 	mov	r2, r4
    9878:	e081100c 	add	r1, r1, ip
    987c:	eb00196c 	bl	fe34 <memcpy>
    9880:	e1a00004 	mov	r0, r4
    9884:	e8bd8010 	pop	{r4, pc}
    9888:	e1a04001 	mov	r4, r1
    988c:	eafffff3 	b	9860 <iobuf_peek+0x3c>
    9890:	e3e04000 	mvn	r4, #0
    9894:	eafffff9 	b	9880 <iobuf_peek+0x5c>

00009898 <iobuf_writebyte>:
    9898:	e92d4070 	push	{r4, r5, r6, lr}
    989c:	e1a04000 	mov	r4, r0
    98a0:	e59f0090 	ldr	r0, [pc, #144]	; 9938 <iobuf_writebyte+0xa0>
    98a4:	e1a06001 	mov	r6, r1
    98a8:	e08f0000 	add	r0, pc, r0
    98ac:	eb00222c 	bl	12164 <tfp_printf>
    98b0:	e5d43000 	ldrb	r3, [r4]
    98b4:	e3530001 	cmp	r3, #1
    98b8:	9a000019 	bls	9924 <iobuf_writebyte+0x8c>
    98bc:	e594001c 	ldr	r0, [r4, #28]
    98c0:	e5943014 	ldr	r3, [r4, #20]
    98c4:	e1500003 	cmp	r0, r3
    98c8:	0a00000b 	beq	98fc <iobuf_writebyte+0x64>
    98cc:	e1500003 	cmp	r0, r3
    98d0:	e3a05000 	mov	r5, #0
    98d4:	23a00000 	movcs	r0, #0
    98d8:	33a00001 	movcc	r0, #1
    98dc:	eb002220 	bl	12164 <tfp_printf>
    98e0:	e594301c 	ldr	r3, [r4, #28]
    98e4:	e5942020 	ldr	r2, [r4, #32]
    98e8:	e2831001 	add	r1, r3, #1
    98ec:	e584101c 	str	r1, [r4, #28]
    98f0:	e7c26003 	strb	r6, [r2, r3]
    98f4:	e1a00005 	mov	r0, r5
    98f8:	e8bd8070 	pop	{r4, r5, r6, pc}
    98fc:	e1a00004 	mov	r0, r4
    9900:	ebfffa4e 	bl	8240 <filter_flush>
    9904:	e2505000 	subs	r5, r0, #0
    9908:	0594001c 	ldreq	r0, [r4, #28]
    990c:	05943014 	ldreq	r3, [r4, #20]
    9910:	0affffed 	beq	98cc <iobuf_writebyte+0x34>
    9914:	e59f0020 	ldr	r0, [pc, #32]	; 993c <iobuf_writebyte+0xa4>
    9918:	e08f0000 	add	r0, pc, r0
    991c:	eb002210 	bl	12164 <tfp_printf>
    9920:	eafffff3 	b	98f4 <iobuf_writebyte+0x5c>
    9924:	e59f0014 	ldr	r0, [pc, #20]	; 9940 <iobuf_writebyte+0xa8>
    9928:	e3e05000 	mvn	r5, #0
    992c:	e08f0000 	add	r0, pc, r0
    9930:	eb00220b 	bl	12164 <tfp_printf>
    9934:	eaffffee 	b	98f4 <iobuf_writebyte+0x5c>
    9938:	0000ccd0 	.word	0x0000ccd0
    993c:	0000cca8 	.word	0x0000cca8
    9940:	0000cc64 	.word	0x0000cc64

00009944 <iobuf_write>:
    9944:	e92d41f0 	push	{r4, r5, r6, r7, r8, lr}
    9948:	e1a06000 	mov	r6, r0
    994c:	e59f00bc 	ldr	r0, [pc, #188]	; 9a10 <iobuf_write+0xcc>
    9950:	e1a07001 	mov	r7, r1
    9954:	e1a01002 	mov	r1, r2
    9958:	e1a05002 	mov	r5, r2
    995c:	e08f0000 	add	r0, pc, r0
    9960:	eb0021ff 	bl	12164 <tfp_printf>
    9964:	e5d63000 	ldrb	r3, [r6]
    9968:	e3530001 	cmp	r3, #1
    996c:	9a000022 	bls	99fc <iobuf_write+0xb8>
    9970:	e59f809c 	ldr	r8, [pc, #156]	; 9a14 <iobuf_write+0xd0>
    9974:	e3550000 	cmp	r5, #0
    9978:	e08f8008 	add	r8, pc, r8
    997c:	0a000009 	beq	99a8 <iobuf_write+0x64>
    9980:	e596201c 	ldr	r2, [r6, #28]
    9984:	e5963014 	ldr	r3, [r6, #20]
    9988:	e1520003 	cmp	r2, r3
    998c:	3a000007 	bcc	99b0 <iobuf_write+0x6c>
    9990:	e1a00006 	mov	r0, r6
    9994:	ebfffa29 	bl	8240 <filter_flush>
    9998:	e3500000 	cmp	r0, #0
    999c:	18bd81f0 	popne	{r4, r5, r6, r7, r8, pc}
    99a0:	e3550000 	cmp	r5, #0
    99a4:	1afffff5 	bne	9980 <iobuf_write+0x3c>
    99a8:	e3a00000 	mov	r0, #0
    99ac:	e8bd81f0 	pop	{r4, r5, r6, r7, r8, pc}
    99b0:	e0433002 	sub	r3, r3, r2
    99b4:	e1a01007 	mov	r1, r7
    99b8:	e1550003 	cmp	r5, r3
    99bc:	e5960020 	ldr	r0, [r6, #32]
    99c0:	21a04003 	movcs	r4, r3
    99c4:	31a04005 	movcc	r4, r5
    99c8:	e0800002 	add	r0, r0, r2
    99cc:	e1a02004 	mov	r2, r4
    99d0:	eb001917 	bl	fe34 <memcpy>
    99d4:	e1a01004 	mov	r1, r4
    99d8:	e1a00008 	mov	r0, r8
    99dc:	eb0021e0 	bl	12164 <tfp_printf>
    99e0:	e596301c 	ldr	r3, [r6, #28]
    99e4:	e0555004 	subs	r5, r5, r4
    99e8:	e0833004 	add	r3, r3, r4
    99ec:	e586301c 	str	r3, [r6, #28]
    99f0:	0affffec 	beq	99a8 <iobuf_write+0x64>
    99f4:	e0877004 	add	r7, r7, r4
    99f8:	eaffffe4 	b	9990 <iobuf_write+0x4c>
    99fc:	e59f0014 	ldr	r0, [pc, #20]	; 9a18 <iobuf_write+0xd4>
    9a00:	e08f0000 	add	r0, pc, r0
    9a04:	eb0021d6 	bl	12164 <tfp_printf>
    9a08:	e3e00000 	mvn	r0, #0
    9a0c:	e8bd81f0 	pop	{r4, r5, r6, r7, r8, pc}
    9a10:	0000cc74 	.word	0x0000cc74
    9a14:	0000cc94 	.word	0x0000cc94
    9a18:	0000cbe0 	.word	0x0000cbe0

00009a1c <block_filter>:
    9a1c:	e59fc7ec 	ldr	ip, [pc, #2028]	; a210 <block_filter+0x7f4>
    9a20:	e92d4ff8 	push	{r3, r4, r5, r6, r7, r8, r9, sl, fp, lr}
    9a24:	e1a06001 	mov	r6, r1
    9a28:	e08fc00c 	add	ip, pc, ip
    9a2c:	e1a05000 	mov	r5, r0
    9a30:	e59fe7dc 	ldr	lr, [pc, #2012]	; a214 <block_filter+0x7f8>
    9a34:	e1a0100c 	mov	r1, ip
    9a38:	e59d8028 	ldr	r8, [sp, #40]	; 0x28
    9a3c:	e1a07002 	mov	r7, r2
    9a40:	e79c000e 	ldr	r0, [ip, lr]
    9a44:	e1a0a003 	mov	sl, r3
    9a48:	e7901106 	ldr	r1, [r0, r6, lsl #2]
    9a4c:	e59f07c4 	ldr	r0, [pc, #1988]	; a218 <block_filter+0x7fc>
    9a50:	e08f0000 	add	r0, pc, r0
    9a54:	eb0021c2 	bl	12164 <tfp_printf>
    9a58:	e5984000 	ldr	r4, [r8]
    9a5c:	e3560003 	cmp	r6, #3
    9a60:	0a000019 	beq	9acc <block_filter+0xb0>
    9a64:	e3560004 	cmp	r6, #4
    9a68:	0a0000ac 	beq	9d20 <block_filter+0x304>
    9a6c:	e3560001 	cmp	r6, #1
    9a70:	0a000004 	beq	9a88 <block_filter+0x6c>
    9a74:	e3560002 	cmp	r6, #2
    9a78:	0a0000fe 	beq	9e78 <block_filter+0x45c>
    9a7c:	e3a09000 	mov	r9, #0
    9a80:	e1a00009 	mov	r0, r9
    9a84:	e8bd8ff8 	pop	{r3, r4, r5, r6, r7, r8, r9, sl, fp, pc}
    9a88:	e595300c 	ldr	r3, [r5, #12]
    9a8c:	e3530000 	cmp	r3, #0
    9a90:	13a03000 	movne	r3, #0
    9a94:	15853008 	strne	r3, [r5, #8]
    9a98:	1a000004 	bne	9ab0 <block_filter+0x94>
    9a9c:	e5953000 	ldr	r3, [r5]
    9aa0:	e3530000 	cmp	r3, #0
    9aa4:	05853004 	streq	r3, [r5, #4]
    9aa8:	15953004 	ldrne	r3, [r5, #4]
    9aac:	e5853008 	str	r3, [r5, #8]
    9ab0:	e3a03000 	mov	r3, #0
    9ab4:	e585301c 	str	r3, [r5, #28]
    9ab8:	e1a09003 	mov	r9, r3
    9abc:	e5853010 	str	r3, [r5, #16]
    9ac0:	e1a00009 	mov	r0, r9
    9ac4:	e5853014 	str	r3, [r5, #20]
    9ac8:	e8bd8ff8 	pop	{r3, r4, r5, r6, r7, r8, r9, sl, fp, pc}
    9acc:	e59f0748 	ldr	r0, [pc, #1864]	; a21c <block_filter+0x800>
    9ad0:	e1a01004 	mov	r1, r4
    9ad4:	e08f0000 	add	r0, pc, r0
    9ad8:	eb0021a1 	bl	12164 <tfp_printf>
    9adc:	e1a00004 	mov	r0, r4
    9ae0:	eb00219f 	bl	12164 <tfp_printf>
    9ae4:	e595901c 	ldr	r9, [r5, #28]
    9ae8:	e3590000 	cmp	r9, #0
    9aec:	13a06000 	movne	r6, #0
    9af0:	13e09000 	mvnne	r9, #0
    9af4:	1a00001f 	bne	9b78 <block_filter+0x15c>
    9af8:	e3540000 	cmp	r4, #0
    9afc:	0a0001bc 	beq	a1f4 <block_filter+0x7d8>
    9b00:	e5953004 	ldr	r3, [r5, #4]
    9b04:	e3530000 	cmp	r3, #0
    9b08:	e1a06003 	mov	r6, r3
    9b0c:	11a06009 	movne	r6, r9
    9b10:	0a00001b 	beq	9b84 <block_filter+0x168>
    9b14:	e1a02003 	mov	r2, r3
    9b18:	e3520000 	cmp	r2, #0
    9b1c:	e1a0100a 	mov	r1, sl
    9b20:	e1a00007 	mov	r0, r7
    9b24:	0a000016 	beq	9b84 <block_filter+0x168>
    9b28:	e1520004 	cmp	r2, r4
    9b2c:	31a0b002 	movcc	fp, r2
    9b30:	21a0b004 	movcs	fp, r4
    9b34:	e1a0200b 	mov	r2, fp
    9b38:	ebfffee5 	bl	96d4 <iobuf_read>
    9b3c:	e15b0000 	cmp	fp, r0
    9b40:	e08aa000 	add	sl, sl, r0
    9b44:	da000021 	ble	9bd0 <block_filter+0x1b4>
    9b48:	e595c004 	ldr	ip, [r5, #4]
    9b4c:	e3700001 	cmn	r0, #1
    9b50:	11a03000 	movne	r3, r0
    9b54:	03a03000 	moveq	r3, #0
    9b58:	e59f06c0 	ldr	r0, [pc, #1728]	; a220 <block_filter+0x804>
    9b5c:	e1a01005 	mov	r1, r5
    9b60:	10844003 	addne	r4, r4, r3
    9b64:	e3a09059 	mov	r9, #89	; 0x59
    9b68:	e08f0000 	add	r0, pc, r0
    9b6c:	e1a02004 	mov	r2, r4
    9b70:	e083300c 	add	r3, r3, ip
    9b74:	eb00217a 	bl	12164 <tfp_printf>
    9b78:	e5886000 	str	r6, [r8]
    9b7c:	e1a00009 	mov	r0, r9
    9b80:	e8bd8ff8 	pop	{r3, r4, r5, r6, r7, r8, r9, sl, fp, pc}
    9b84:	e595200c 	ldr	r2, [r5, #12]
    9b88:	e3520002 	cmp	r2, #2
    9b8c:	0a00004c 	beq	9cc4 <block_filter+0x2a8>
    9b90:	e3520000 	cmp	r2, #0
    9b94:	0affffde 	beq	9b14 <block_filter+0xf8>
    9b98:	e59f0684 	ldr	r0, [pc, #1668]	; a224 <block_filter+0x808>
    9b9c:	e08f0000 	add	r0, pc, r0
    9ba0:	eb00216f 	bl	12164 <tfp_printf>
    9ba4:	e5953018 	ldr	r3, [r5, #24]
    9ba8:	e3530000 	cmp	r3, #0
    9bac:	0a00000f 	beq	9bf0 <block_filter+0x1d4>
    9bb0:	e35300bf 	cmp	r3, #191	; 0xbf
    9bb4:	e3a02000 	mov	r2, #0
    9bb8:	e5852018 	str	r2, [r5, #24]
    9bbc:	ca00001b 	bgt	9c30 <block_filter+0x214>
    9bc0:	e5853004 	str	r3, [r5, #4]
    9bc4:	e3a02002 	mov	r2, #2
    9bc8:	e585200c 	str	r2, [r5, #12]
    9bcc:	eaffffd0 	b	9b14 <block_filter+0xf8>
    9bd0:	e5953004 	ldr	r3, [r5, #4]
    9bd4:	e0544000 	subs	r4, r4, r0
    9bd8:	e0432000 	sub	r2, r3, r0
    9bdc:	e0866000 	add	r6, r6, r0
    9be0:	e1a03002 	mov	r3, r2
    9be4:	e5852004 	str	r2, [r5, #4]
    9be8:	1affffca 	bne	9b18 <block_filter+0xfc>
    9bec:	eaffffe1 	b	9b78 <block_filter+0x15c>
    9bf0:	e5973010 	ldr	r3, [r7, #16]
    9bf4:	e3530000 	cmp	r3, #0
    9bf8:	1a000037 	bne	9cdc <block_filter+0x2c0>
    9bfc:	e5973018 	ldr	r3, [r7, #24]
    9c00:	e597201c 	ldr	r2, [r7, #28]
    9c04:	e1530002 	cmp	r3, r2
    9c08:	2a000033 	bcs	9cdc <block_filter+0x2c0>
    9c0c:	e5972008 	ldr	r2, [r7, #8]
    9c10:	e5971020 	ldr	r1, [r7, #32]
    9c14:	e2822001 	add	r2, r2, #1
    9c18:	e5872008 	str	r2, [r7, #8]
    9c1c:	e2832001 	add	r2, r3, #1
    9c20:	e5872018 	str	r2, [r7, #24]
    9c24:	e7d13003 	ldrb	r3, [r1, r3]
    9c28:	e35300bf 	cmp	r3, #191	; 0xbf
    9c2c:	da00001f 	ble	9cb0 <block_filter+0x294>
    9c30:	e35300df 	cmp	r3, #223	; 0xdf
    9c34:	ca000032 	bgt	9d04 <block_filter+0x2e8>
    9c38:	e5972010 	ldr	r2, [r7, #16]
    9c3c:	e24330c0 	sub	r3, r3, #192	; 0xc0
    9c40:	e1a03403 	lsl	r3, r3, #8
    9c44:	e3520000 	cmp	r2, #0
    9c48:	e5853004 	str	r3, [r5, #4]
    9c4c:	1a000010 	bne	9c94 <block_filter+0x278>
    9c50:	e5972018 	ldr	r2, [r7, #24]
    9c54:	e597101c 	ldr	r1, [r7, #28]
    9c58:	e1520001 	cmp	r2, r1
    9c5c:	2a00000c 	bcs	9c94 <block_filter+0x278>
    9c60:	e5971008 	ldr	r1, [r7, #8]
    9c64:	e28330c0 	add	r3, r3, #192	; 0xc0
    9c68:	e5970020 	ldr	r0, [r7, #32]
    9c6c:	e2811001 	add	r1, r1, #1
    9c70:	e5871008 	str	r1, [r7, #8]
    9c74:	e2821001 	add	r1, r2, #1
    9c78:	e5871018 	str	r1, [r7, #24]
    9c7c:	e7d02002 	ldrb	r2, [r0, r2]
    9c80:	e0823003 	add	r3, r2, r3
    9c84:	e3a02002 	mov	r2, #2
    9c88:	e5853004 	str	r3, [r5, #4]
    9c8c:	e585200c 	str	r2, [r5, #12]
    9c90:	eaffff9f 	b	9b14 <block_filter+0xf8>
    9c94:	e1a00007 	mov	r0, r7
    9c98:	ebfffdd4 	bl	93f0 <iobuf_readbyte>
    9c9c:	e3700001 	cmn	r0, #1
    9ca0:	15953004 	ldrne	r3, [r5, #4]
    9ca4:	128330c0 	addne	r3, r3, #192	; 0xc0
    9ca8:	10833000 	addne	r3, r3, r0
    9cac:	0a0000e7 	beq	a050 <block_filter+0x634>
    9cb0:	e5853004 	str	r3, [r5, #4]
    9cb4:	e3530000 	cmp	r3, #0
    9cb8:	e3a02002 	mov	r2, #2
    9cbc:	e585200c 	str	r2, [r5, #12]
    9cc0:	1affff93 	bne	9b14 <block_filter+0xf8>
    9cc4:	e16f9f16 	clz	r9, r6
    9cc8:	e3a03001 	mov	r3, #1
    9ccc:	e585301c 	str	r3, [r5, #28]
    9cd0:	e1a092a9 	lsr	r9, r9, #5
    9cd4:	e2699000 	rsb	r9, r9, #0
    9cd8:	eaffffa6 	b	9b78 <block_filter+0x15c>
    9cdc:	e1a00007 	mov	r0, r7
    9ce0:	ebfffdc2 	bl	93f0 <iobuf_readbyte>
    9ce4:	e3700001 	cmn	r0, #1
    9ce8:	e1a03000 	mov	r3, r0
    9cec:	1affffcd 	bne	9c28 <block_filter+0x20c>
    9cf0:	e59f0530 	ldr	r0, [pc, #1328]	; a228 <block_filter+0x80c>
    9cf4:	e3a09059 	mov	r9, #89	; 0x59
    9cf8:	e08f0000 	add	r0, pc, r0
    9cfc:	eb002118 	bl	12164 <tfp_printf>
    9d00:	eaffff9c 	b	9b78 <block_filter+0x15c>
    9d04:	e35300ff 	cmp	r3, #255	; 0xff
    9d08:	0a000063 	beq	9e9c <block_filter+0x480>
    9d0c:	e203301f 	and	r3, r3, #31
    9d10:	e3a02001 	mov	r2, #1
    9d14:	e1a03312 	lsl	r3, r2, r3
    9d18:	e5853004 	str	r3, [r5, #4]
    9d1c:	eaffff7c 	b	9b14 <block_filter+0xf8>
    9d20:	e59f0504 	ldr	r0, [pc, #1284]	; a22c <block_filter+0x810>
    9d24:	e595100c 	ldr	r1, [r5, #12]
    9d28:	e08f0000 	add	r0, pc, r0
    9d2c:	eb00210c 	bl	12164 <tfp_printf>
    9d30:	e595300c 	ldr	r3, [r5, #12]
    9d34:	e3530000 	cmp	r3, #0
    9d38:	0affff4f 	beq	9a7c <block_filter+0x60>
    9d3c:	e5950014 	ldr	r0, [r5, #20]
    9d40:	e0806004 	add	r6, r0, r4
    9d44:	e3560c02 	cmp	r6, #512	; 0x200
    9d48:	3a000089 	bcc	9f74 <block_filter+0x558>
    9d4c:	e3560b01 	cmp	r6, #1024	; 0x400
    9d50:	3a0000c3 	bcc	a064 <block_filter+0x648>
    9d54:	e3a03b01 	mov	r3, #1024	; 0x400
    9d58:	e3a0200a 	mov	r2, #10
    9d5c:	e1a03083 	lsl	r3, r3, #1
    9d60:	e1a00002 	mov	r0, r2
    9d64:	e1560003 	cmp	r6, r3
    9d68:	e2822001 	add	r2, r2, #1
    9d6c:	2afffffa 	bcs	9d5c <block_filter+0x340>
    9d70:	e350001f 	cmp	r0, #31
    9d74:	e38080e0 	orr	r8, r0, #224	; 0xe0
    9d78:	e1a040a3 	lsr	r4, r3, #1
    9d7c:	c3a00000 	movgt	r0, #0
    9d80:	d3a00001 	movle	r0, #1
    9d84:	eb0020f6 	bl	12164 <tfp_printf>
    9d88:	e1a01008 	mov	r1, r8
    9d8c:	e1a00007 	mov	r0, r7
    9d90:	ebfffec0 	bl	9898 <iobuf_writebyte>
    9d94:	e5959014 	ldr	r9, [r5, #20]
    9d98:	e3590000 	cmp	r9, #0
    9d9c:	1a000009 	bne	9dc8 <block_filter+0x3ac>
    9da0:	e1540006 	cmp	r4, r6
    9da4:	21a04006 	movcs	r4, r6
    9da8:	e1a02004 	mov	r2, r4
    9dac:	e1a0100a 	mov	r1, sl
    9db0:	e1a00007 	mov	r0, r7
    9db4:	ebfffee2 	bl	9944 <iobuf_write>
    9db8:	e3500000 	cmp	r0, #0
    9dbc:	0a000013 	beq	9e10 <block_filter+0x3f4>
    9dc0:	e3e09000 	mvn	r9, #0
    9dc4:	eaffff2d 	b	9a80 <block_filter+0x64>
    9dc8:	e0466009 	sub	r6, r6, r9
    9dcc:	e2490c02 	sub	r0, r9, #512	; 0x200
    9dd0:	e16f0f10 	clz	r0, r0
    9dd4:	e1a002a0 	lsr	r0, r0, #5
    9dd8:	eb0020e1 	bl	12164 <tfp_printf>
    9ddc:	e5951010 	ldr	r1, [r5, #16]
    9de0:	e1a02009 	mov	r2, r9
    9de4:	e1a00007 	mov	r0, r7
    9de8:	ebfffed5 	bl	9944 <iobuf_write>
    9dec:	e2509000 	subs	r9, r0, #0
    9df0:	e3a03000 	mov	r3, #0
    9df4:	e5853014 	str	r3, [r5, #20]
    9df8:	13a09001 	movne	r9, #1
    9dfc:	e1540006 	cmp	r4, r6
    9e00:	e2699000 	rsb	r9, r9, #0
    9e04:	21a04006 	movcs	r4, r6
    9e08:	e3540000 	cmp	r4, #0
    9e0c:	1affffe5 	bne	9da8 <block_filter+0x38c>
    9e10:	e16f3f19 	clz	r3, r9
    9e14:	e0466004 	sub	r6, r6, r4
    9e18:	e1a032a3 	lsr	r3, r3, #5
    9e1c:	e08aa004 	add	sl, sl, r4
    9e20:	e3560c02 	cmp	r6, #512	; 0x200
    9e24:	33a02000 	movcc	r2, #0
    9e28:	22032001 	andcs	r2, r3, #1
    9e2c:	e3520000 	cmp	r2, #0
    9e30:	1affffc5 	bne	9d4c <block_filter+0x330>
    9e34:	e3560000 	cmp	r6, #0
    9e38:	03a03000 	moveq	r3, #0
    9e3c:	12033001 	andne	r3, r3, #1
    9e40:	e3530000 	cmp	r3, #0
    9e44:	0affff0d 	beq	9a80 <block_filter+0x64>
    9e48:	e59f03e0 	ldr	r0, [pc, #992]	; a230 <block_filter+0x814>
    9e4c:	e08f0000 	add	r0, pc, r0
    9e50:	eb0020c3 	bl	12164 <tfp_printf>
    9e54:	e5950010 	ldr	r0, [r5, #16]
    9e58:	e3500000 	cmp	r0, #0
    9e5c:	0a0000e0 	beq	a1e4 <block_filter+0x7c8>
    9e60:	e1a02006 	mov	r2, r6
    9e64:	e1a0100a 	mov	r1, sl
    9e68:	e3a09000 	mov	r9, #0
    9e6c:	eb0017f0 	bl	fe34 <memcpy>
    9e70:	e5856014 	str	r6, [r5, #20]
    9e74:	eaffff01 	b	9a80 <block_filter+0x64>
    9e78:	e5953000 	ldr	r3, [r5]
    9e7c:	e3530002 	cmp	r3, #2
    9e80:	0a00007b 	beq	a074 <block_filter+0x658>
    9e84:	e5959004 	ldr	r9, [r5, #4]
    9e88:	e3590000 	cmp	r9, #0
    9e8c:	1a00006a 	bne	a03c <block_filter+0x620>
    9e90:	e1a00005 	mov	r0, r5
    9e94:	eb0017ac 	bl	fd4c <xfree>
    9e98:	eafffef8 	b	9a80 <block_filter+0x64>
    9e9c:	e5973010 	ldr	r3, [r7, #16]
    9ea0:	e3530000 	cmp	r3, #0
    9ea4:	1a000003 	bne	9eb8 <block_filter+0x49c>
    9ea8:	e5973018 	ldr	r3, [r7, #24]
    9eac:	e597201c 	ldr	r2, [r7, #28]
    9eb0:	e1530002 	cmp	r3, r2
    9eb4:	3a000056 	bcc	a014 <block_filter+0x5f8>
    9eb8:	e1a00007 	mov	r0, r7
    9ebc:	ebfffd4b 	bl	93f0 <iobuf_readbyte>
    9ec0:	e5972010 	ldr	r2, [r7, #16]
    9ec4:	e1a03c00 	lsl	r3, r0, #24
    9ec8:	e5853004 	str	r3, [r5, #4]
    9ecc:	e3520000 	cmp	r2, #0
    9ed0:	0597201c 	ldreq	r2, [r7, #28]
    9ed4:	1a000002 	bne	9ee4 <block_filter+0x4c8>
    9ed8:	e5971018 	ldr	r1, [r7, #24]
    9edc:	e1510002 	cmp	r1, r2
    9ee0:	3a00002f 	bcc	9fa4 <block_filter+0x588>
    9ee4:	e1a00007 	mov	r0, r7
    9ee8:	ebfffd40 	bl	93f0 <iobuf_readbyte>
    9eec:	e5971010 	ldr	r1, [r7, #16]
    9ef0:	e5952004 	ldr	r2, [r5, #4]
    9ef4:	e1a03800 	lsl	r3, r0, #16
    9ef8:	e3510000 	cmp	r1, #0
    9efc:	e20338ff 	and	r3, r3, #16711680	; 0xff0000
    9f00:	e1833002 	orr	r3, r3, r2
    9f04:	e5853004 	str	r3, [r5, #4]
    9f08:	0597201c 	ldreq	r2, [r7, #28]
    9f0c:	1a000002 	bne	9f1c <block_filter+0x500>
    9f10:	e5971018 	ldr	r1, [r7, #24]
    9f14:	e1510002 	cmp	r1, r2
    9f18:	3a00002b 	bcc	9fcc <block_filter+0x5b0>
    9f1c:	e1a00007 	mov	r0, r7
    9f20:	ebfffd32 	bl	93f0 <iobuf_readbyte>
    9f24:	e5971010 	ldr	r1, [r7, #16]
    9f28:	e5952004 	ldr	r2, [r5, #4]
    9f2c:	e1a03400 	lsl	r3, r0, #8
    9f30:	e3510000 	cmp	r1, #0
    9f34:	e6ff3073 	uxth	r3, r3
    9f38:	e1833002 	orr	r3, r3, r2
    9f3c:	e5853004 	str	r3, [r5, #4]
    9f40:	0597201c 	ldreq	r2, [r7, #28]
    9f44:	1a000002 	bne	9f54 <block_filter+0x538>
    9f48:	e5971018 	ldr	r1, [r7, #24]
    9f4c:	e1510002 	cmp	r1, r2
    9f50:	3a000027 	bcc	9ff4 <block_filter+0x5d8>
    9f54:	e1a00007 	mov	r0, r7
    9f58:	ebfffd24 	bl	93f0 <iobuf_readbyte>
    9f5c:	e3700001 	cmn	r0, #1
    9f60:	e1a02000 	mov	r2, r0
    9f64:	15953004 	ldrne	r3, [r5, #4]
    9f68:	0a000098 	beq	a1d0 <block_filter+0x7b4>
    9f6c:	e1823003 	orr	r3, r2, r3
    9f70:	eaffff4e 	b	9cb0 <block_filter+0x294>
    9f74:	e5953010 	ldr	r3, [r5, #16]
    9f78:	e3530000 	cmp	r3, #0
    9f7c:	0a000058 	beq	a0e4 <block_filter+0x6c8>
    9f80:	e0830000 	add	r0, r3, r0
    9f84:	e1a02004 	mov	r2, r4
    9f88:	e1a0100a 	mov	r1, sl
    9f8c:	e3a09000 	mov	r9, #0
    9f90:	eb0017a7 	bl	fe34 <memcpy>
    9f94:	e5953014 	ldr	r3, [r5, #20]
    9f98:	e0834004 	add	r4, r3, r4
    9f9c:	e5854014 	str	r4, [r5, #20]
    9fa0:	eafffeb6 	b	9a80 <block_filter+0x64>
    9fa4:	e5970008 	ldr	r0, [r7, #8]
    9fa8:	e597c020 	ldr	ip, [r7, #32]
    9fac:	e2800001 	add	r0, r0, #1
    9fb0:	e5870008 	str	r0, [r7, #8]
    9fb4:	e2810001 	add	r0, r1, #1
    9fb8:	e5870018 	str	r0, [r7, #24]
    9fbc:	e7dc1001 	ldrb	r1, [ip, r1]
    9fc0:	e1833801 	orr	r3, r3, r1, lsl #16
    9fc4:	e5853004 	str	r3, [r5, #4]
    9fc8:	eaffffd0 	b	9f10 <block_filter+0x4f4>
    9fcc:	e5970008 	ldr	r0, [r7, #8]
    9fd0:	e597c020 	ldr	ip, [r7, #32]
    9fd4:	e2800001 	add	r0, r0, #1
    9fd8:	e5870008 	str	r0, [r7, #8]
    9fdc:	e2810001 	add	r0, r1, #1
    9fe0:	e5870018 	str	r0, [r7, #24]
    9fe4:	e7dc1001 	ldrb	r1, [ip, r1]
    9fe8:	e1833401 	orr	r3, r3, r1, lsl #8
    9fec:	e5853004 	str	r3, [r5, #4]
    9ff0:	eaffffd4 	b	9f48 <block_filter+0x52c>
    9ff4:	e5972008 	ldr	r2, [r7, #8]
    9ff8:	e5970020 	ldr	r0, [r7, #32]
    9ffc:	e2822001 	add	r2, r2, #1
    a000:	e5872008 	str	r2, [r7, #8]
    a004:	e2812001 	add	r2, r1, #1
    a008:	e5872018 	str	r2, [r7, #24]
    a00c:	e7d02001 	ldrb	r2, [r0, r1]
    a010:	eaffffd5 	b	9f6c <block_filter+0x550>
    a014:	e5971008 	ldr	r1, [r7, #8]
    a018:	e5970020 	ldr	r0, [r7, #32]
    a01c:	e2811001 	add	r1, r1, #1
    a020:	e5871008 	str	r1, [r7, #8]
    a024:	e2831001 	add	r1, r3, #1
    a028:	e5871018 	str	r1, [r7, #24]
    a02c:	e7d03003 	ldrb	r3, [r0, r3]
    a030:	e1a03c03 	lsl	r3, r3, #24
    a034:	e5853004 	str	r3, [r5, #4]
    a038:	eaffffa6 	b	9ed8 <block_filter+0x4bc>
    a03c:	e59f01f0 	ldr	r0, [pc, #496]	; a234 <block_filter+0x818>
    a040:	e3a09000 	mov	r9, #0
    a044:	e08f0000 	add	r0, pc, r0
    a048:	eb002045 	bl	12164 <tfp_printf>
    a04c:	eaffff8f 	b	9e90 <block_filter+0x474>
    a050:	e59f01e0 	ldr	r0, [pc, #480]	; a238 <block_filter+0x81c>
    a054:	e3a09059 	mov	r9, #89	; 0x59
    a058:	e08f0000 	add	r0, pc, r0
    a05c:	eb002040 	bl	12164 <tfp_printf>
    a060:	eafffec4 	b	9b78 <block_filter+0x15c>
    a064:	e3a00001 	mov	r0, #1
    a068:	e3a04c02 	mov	r4, #512	; 0x200
    a06c:	e3a080e9 	mov	r8, #233	; 0xe9
    a070:	eaffff43 	b	9d84 <block_filter+0x368>
    a074:	e595900c 	ldr	r9, [r5, #12]
    a078:	e3590000 	cmp	r9, #0
    a07c:	0affff83 	beq	9e90 <block_filter+0x474>
    a080:	e5956014 	ldr	r6, [r5, #20]
    a084:	e35600bf 	cmp	r6, #191	; 0xbf
    a088:	9a000047 	bls	a1ac <block_filter+0x790>
    a08c:	e3560d83 	cmp	r6, #8384	; 0x20c0
    a090:	2a000019 	bcs	a0fc <block_filter+0x6e0>
    a094:	e59f01a0 	ldr	r0, [pc, #416]	; a23c <block_filter+0x820>
    a098:	e24680c0 	sub	r8, r6, #192	; 0xc0
    a09c:	e1a01006 	mov	r1, r6
    a0a0:	e08f0000 	add	r0, pc, r0
    a0a4:	eb00202e 	bl	12164 <tfp_printf>
    a0a8:	e1a01428 	lsr	r1, r8, #8
    a0ac:	e1a00007 	mov	r0, r7
    a0b0:	e28110c0 	add	r1, r1, #192	; 0xc0
    a0b4:	ebfffdf7 	bl	9898 <iobuf_writebyte>
    a0b8:	e2504000 	subs	r4, r0, #0
    a0bc:	0a00004e 	beq	a1fc <block_filter+0x7e0>
    a0c0:	e2544000 	subs	r4, r4, #0
    a0c4:	e5950010 	ldr	r0, [r5, #16]
    a0c8:	13a04001 	movne	r4, #1
    a0cc:	e2649000 	rsb	r9, r4, #0
    a0d0:	eb00171d 	bl	fd4c <xfree>
    a0d4:	e3a03000 	mov	r3, #0
    a0d8:	e5853010 	str	r3, [r5, #16]
    a0dc:	e5853014 	str	r3, [r5, #20]
    a0e0:	eaffff6a 	b	9e90 <block_filter+0x474>
    a0e4:	e3a00c02 	mov	r0, #512	; 0x200
    a0e8:	eb001723 	bl	fd7c <xmalloc>
    a0ec:	e1a03000 	mov	r3, r0
    a0f0:	e5853010 	str	r3, [r5, #16]
    a0f4:	e5950014 	ldr	r0, [r5, #20]
    a0f8:	eaffffa0 	b	9f80 <block_filter+0x564>
    a0fc:	e59f013c 	ldr	r0, [pc, #316]	; a240 <block_filter+0x824>
    a100:	e1a01006 	mov	r1, r6
    a104:	e08f0000 	add	r0, pc, r0
    a108:	eb002015 	bl	12164 <tfp_printf>
    a10c:	e3a010ff 	mov	r1, #255	; 0xff
    a110:	e1a00007 	mov	r0, r7
    a114:	ebfffddf 	bl	9898 <iobuf_writebyte>
    a118:	e2504000 	subs	r4, r0, #0
    a11c:	1affffe7 	bne	a0c0 <block_filter+0x6a4>
    a120:	e1a01c26 	lsr	r1, r6, #24
    a124:	e1a00007 	mov	r0, r7
    a128:	ebfffdda 	bl	9898 <iobuf_writebyte>
    a12c:	e2504000 	subs	r4, r0, #0
    a130:	1affffe2 	bne	a0c0 <block_filter+0x6a4>
    a134:	e7e71856 	ubfx	r1, r6, #16, #8
    a138:	e1a00007 	mov	r0, r7
    a13c:	ebfffdd5 	bl	9898 <iobuf_writebyte>
    a140:	e2504000 	subs	r4, r0, #0
    a144:	1affffdd 	bne	a0c0 <block_filter+0x6a4>
    a148:	e7e71456 	ubfx	r1, r6, #8, #8
    a14c:	e1a00007 	mov	r0, r7
    a150:	ebfffdd0 	bl	9898 <iobuf_writebyte>
    a154:	e2504000 	subs	r4, r0, #0
    a158:	1affffd8 	bne	a0c0 <block_filter+0x6a4>
    a15c:	e6ef1076 	uxtb	r1, r6
    a160:	e1a00007 	mov	r0, r7
    a164:	ebfffdcb 	bl	9898 <iobuf_writebyte>
    a168:	e1a04000 	mov	r4, r0
    a16c:	e16f3f14 	clz	r3, r4
    a170:	e3560000 	cmp	r6, #0
    a174:	e1a032a3 	lsr	r3, r3, #5
    a178:	03a03000 	moveq	r3, #0
    a17c:	e3530000 	cmp	r3, #0
    a180:	0affffce 	beq	a0c0 <block_filter+0x6a4>
    a184:	e59f00b8 	ldr	r0, [pc, #184]	; a244 <block_filter+0x828>
    a188:	e1a01006 	mov	r1, r6
    a18c:	e08f0000 	add	r0, pc, r0
    a190:	eb001ff3 	bl	12164 <tfp_printf>
    a194:	e5951010 	ldr	r1, [r5, #16]
    a198:	e1a02006 	mov	r2, r6
    a19c:	e1a00007 	mov	r0, r7
    a1a0:	ebfffde7 	bl	9944 <iobuf_write>
    a1a4:	e1a04000 	mov	r4, r0
    a1a8:	eaffffc4 	b	a0c0 <block_filter+0x6a4>
    a1ac:	e1a01006 	mov	r1, r6
    a1b0:	e1a00007 	mov	r0, r7
    a1b4:	ebfffdb7 	bl	9898 <iobuf_writebyte>
    a1b8:	e1a04000 	mov	r4, r0
    a1bc:	e1a01006 	mov	r1, r6
    a1c0:	e59f0080 	ldr	r0, [pc, #128]	; a248 <block_filter+0x82c>
    a1c4:	e08f0000 	add	r0, pc, r0
    a1c8:	eb001fe5 	bl	12164 <tfp_printf>
    a1cc:	eaffffe6 	b	a16c <block_filter+0x750>
    a1d0:	e59f0074 	ldr	r0, [pc, #116]	; a24c <block_filter+0x830>
    a1d4:	e3a09059 	mov	r9, #89	; 0x59
    a1d8:	e08f0000 	add	r0, pc, r0
    a1dc:	eb001fe0 	bl	12164 <tfp_printf>
    a1e0:	eafffe64 	b	9b78 <block_filter+0x15c>
    a1e4:	e3a00c02 	mov	r0, #512	; 0x200
    a1e8:	eb0016e3 	bl	fd7c <xmalloc>
    a1ec:	e5850010 	str	r0, [r5, #16]
    a1f0:	eaffff1a 	b	9e60 <block_filter+0x444>
    a1f4:	e1a06009 	mov	r6, r9
    a1f8:	eafffe5e 	b	9b78 <block_filter+0x15c>
    a1fc:	e6ef1078 	uxtb	r1, r8
    a200:	e1a00007 	mov	r0, r7
    a204:	ebfffda3 	bl	9898 <iobuf_writebyte>
    a208:	e1a04000 	mov	r4, r0
    a20c:	eaffffd6 	b	a16c <block_filter+0x750>
    a210:	000320fc 	.word	0x000320fc
    a214:	00000008 	.word	0x00000008
    a218:	0000cbd4 	.word	0x0000cbd4
    a21c:	0000cb64 	.word	0x0000cb64
    a220:	0000cbb4 	.word	0x0000cbb4
    a224:	0000cab4 	.word	0x0000cab4
    a228:	0000c9ac 	.word	0x0000c9ac
    a22c:	0000ca28 	.word	0x0000ca28
    a230:	0000c918 	.word	0x0000c918
    a234:	0000c7f0 	.word	0x0000c7f0
    a238:	0000c674 	.word	0x0000c674
    a23c:	0000c710 	.word	0x0000c710
    a240:	0000c6d8 	.word	0x0000c6d8
    a244:	0000c67c 	.word	0x0000c67c
    a248:	0000c5c0 	.word	0x0000c5c0
    a24c:	0000c51c 	.word	0x0000c51c

0000a250 <iobuf_writestr>:
    a250:	e92d4070 	push	{r4, r5, r6, lr}
    a254:	e5d03000 	ldrb	r3, [r0]
    a258:	e3530001 	cmp	r3, #1
    a25c:	9a000008 	bls	a284 <iobuf_writestr+0x34>
    a260:	e1a04000 	mov	r4, r0
    a264:	e1a00001 	mov	r0, r1
    a268:	e1a05001 	mov	r5, r1
    a26c:	eb0012f8 	bl	ee54 <strlen>
    a270:	e1a02000 	mov	r2, r0
    a274:	e1a01005 	mov	r1, r5
    a278:	e1a00004 	mov	r0, r4
    a27c:	e8bd4070 	pop	{r4, r5, r6, lr}
    a280:	eafffdaf 	b	9944 <iobuf_write>
    a284:	e59f000c 	ldr	r0, [pc, #12]	; a298 <iobuf_writestr+0x48>
    a288:	e08f0000 	add	r0, pc, r0
    a28c:	eb001fb4 	bl	12164 <tfp_printf>
    a290:	e3e00000 	mvn	r0, #0
    a294:	e8bd8070 	pop	{r4, r5, r6, pc}
    a298:	0000c5cc 	.word	0x0000c5cc

0000a29c <iobuf_temp_to_buffer>:
    a29c:	e92d4ff0 	push	{r4, r5, r6, r7, r8, r9, sl, fp, lr}
    a2a0:	e24dd03c 	sub	sp, sp, #60	; 0x3c
    a2a4:	e59fa0d8 	ldr	sl, [pc, #216]	; a384 <iobuf_temp_to_buffer+0xe8>
    a2a8:	e1a04000 	mov	r4, r0
    a2ac:	e59fb0d4 	ldr	fp, [pc, #212]	; a388 <iobuf_temp_to_buffer+0xec>
    a2b0:	e3a09020 	mov	r9, #32
    a2b4:	e08fa00a 	add	sl, pc, sl
    a2b8:	e08fb00b 	add	fp, pc, fp
    a2bc:	e58d1008 	str	r1, [sp, #8]
    a2c0:	e58d200c 	str	r2, [sp, #12]
    a2c4:	ea000003 	b	a2d8 <iobuf_temp_to_buffer+0x3c>
    a2c8:	e594303c 	ldr	r3, [r4, #60]	; 0x3c
    a2cc:	e3530000 	cmp	r3, #0
    a2d0:	0a00001a 	beq	a340 <iobuf_temp_to_buffer+0xa4>
    a2d4:	e1a04003 	mov	r4, r3
    a2d8:	e1a00004 	mov	r0, r4
    a2dc:	ebfff7d7 	bl	8240 <filter_flush>
    a2e0:	e3500000 	cmp	r0, #0
    a2e4:	0afffff7 	beq	a2c8 <iobuf_temp_to_buffer+0x2c>
    a2e8:	e594602c 	ldr	r6, [r4, #44]	; 0x2c
    a2ec:	e28d5018 	add	r5, sp, #24
    a2f0:	e5947040 	ldr	r7, [r4, #64]	; 0x40
    a2f4:	e28dc014 	add	ip, sp, #20
    a2f8:	e5948044 	ldr	r8, [r4, #68]	; 0x44
    a2fc:	e3560000 	cmp	r6, #0
    a300:	e58d9014 	str	r9, [sp, #20]
    a304:	e1a03005 	mov	r3, r5
    a308:	e3a02000 	mov	r2, #0
    a30c:	e3a01005 	mov	r1, #5
    a310:	0a000016 	beq	a370 <iobuf_temp_to_buffer+0xd4>
    a314:	e5940030 	ldr	r0, [r4, #48]	; 0x30
    a318:	e58dc000 	str	ip, [sp]
    a31c:	e12fff36 	blx	r6
    a320:	e1a03005 	mov	r3, r5
    a324:	e1a02008 	mov	r2, r8
    a328:	e1a01007 	mov	r1, r7
    a32c:	e1a0000a 	mov	r0, sl
    a330:	eb001f8b 	bl	12164 <tfp_printf>
    a334:	e594303c 	ldr	r3, [r4, #60]	; 0x3c
    a338:	e3530000 	cmp	r3, #0
    a33c:	1affffe4 	bne	a2d4 <iobuf_temp_to_buffer+0x38>
    a340:	e594201c 	ldr	r2, [r4, #28]
    a344:	e59d300c 	ldr	r3, [sp, #12]
    a348:	e5941020 	ldr	r1, [r4, #32]
    a34c:	e1520003 	cmp	r2, r3
    a350:	e59d0008 	ldr	r0, [sp, #8]
    a354:	31a04002 	movcc	r4, r2
    a358:	21a04003 	movcs	r4, r3
    a35c:	e1a02004 	mov	r2, r4
    a360:	eb0016b3 	bl	fe34 <memcpy>
    a364:	e1a00004 	mov	r0, r4
    a368:	e28dd03c 	add	sp, sp, #60	; 0x3c
    a36c:	e8bd8ff0 	pop	{r4, r5, r6, r7, r8, r9, sl, fp, pc}
    a370:	e3a02002 	mov	r2, #2
    a374:	e1a0100b 	mov	r1, fp
    a378:	e1a00005 	mov	r0, r5
    a37c:	eb0016ac 	bl	fe34 <memcpy>
    a380:	eaffffe6 	b	a320 <iobuf_temp_to_buffer+0x84>
    a384:	0000c5d0 	.word	0x0000c5d0
    a388:	0000be24 	.word	0x0000be24

0000a38c <iobuf_copy>:
    a38c:	e92d47f0 	push	{r4, r5, r6, r7, r8, r9, sl, lr}
    a390:	e1a08000 	mov	r8, r0
    a394:	e59f0094 	ldr	r0, [pc, #148]	; a430 <iobuf_copy+0xa4>
    a398:	e1a09001 	mov	r9, r1
    a39c:	e08f0000 	add	r0, pc, r0
    a3a0:	eb001f6f 	bl	12164 <tfp_printf>
    a3a4:	e5985028 	ldr	r5, [r8, #40]	; 0x28
    a3a8:	e3550000 	cmp	r5, #0
    a3ac:	13e07000 	mvnne	r7, #0
    a3b0:	1a000018 	bne	a418 <iobuf_copy+0x8c>
    a3b4:	e3a00902 	mov	r0, #32768	; 0x8000
    a3b8:	e1a07005 	mov	r7, r5
    a3bc:	eb00166e 	bl	fd7c <xmalloc>
    a3c0:	e1a06000 	mov	r6, r0
    a3c4:	ea000005 	b	a3e0 <iobuf_copy+0x54>
    a3c8:	e1550004 	cmp	r5, r4
    a3cc:	31a05004 	movcc	r5, r4
    a3d0:	ebfffd5b 	bl	9944 <iobuf_write>
    a3d4:	e3500000 	cmp	r0, #0
    a3d8:	1a00000a 	bne	a408 <iobuf_copy+0x7c>
    a3dc:	e0877004 	add	r7, r7, r4
    a3e0:	e1a01006 	mov	r1, r6
    a3e4:	e3a02902 	mov	r2, #32768	; 0x8000
    a3e8:	e1a00009 	mov	r0, r9
    a3ec:	ebfffcb8 	bl	96d4 <iobuf_read>
    a3f0:	e1a04000 	mov	r4, r0
    a3f4:	e1a01006 	mov	r1, r6
    a3f8:	e3740001 	cmn	r4, #1
    a3fc:	e1a00008 	mov	r0, r8
    a400:	e1a02004 	mov	r2, r4
    a404:	1affffef 	bne	a3c8 <iobuf_copy+0x3c>
    a408:	e3550000 	cmp	r5, #0
    a40c:	1a000003 	bne	a420 <iobuf_copy+0x94>
    a410:	e1a00006 	mov	r0, r6
    a414:	eb00164c 	bl	fd4c <xfree>
    a418:	e1a00007 	mov	r0, r7
    a41c:	e8bd87f0 	pop	{r4, r5, r6, r7, r8, r9, sl, pc}
    a420:	e1a01005 	mov	r1, r5
    a424:	e1a00006 	mov	r0, r6
    a428:	eb0016be 	bl	ff28 <wipememory>
    a42c:	eafffff7 	b	a410 <iobuf_copy+0x84>
    a430:	0000c530 	.word	0x0000c530

0000a434 <iobuf_flush_temp>:
    a434:	e92d4010 	push	{r4, lr}
    a438:	e1a04000 	mov	r4, r0
    a43c:	e5d03000 	ldrb	r3, [r0]
    a440:	e3530001 	cmp	r3, #1
    a444:	9a00000a 	bls	a474 <iobuf_flush_temp+0x40>
    a448:	e594303c 	ldr	r3, [r4, #60]	; 0x3c
    a44c:	e3530000 	cmp	r3, #0
    a450:	08bd8010 	popeq	{r4, pc}
    a454:	e594102c 	ldr	r1, [r4, #44]	; 0x2c
    a458:	e3a02000 	mov	r2, #0
    a45c:	e1a00004 	mov	r0, r4
    a460:	ebfffb25 	bl	90fc <iobuf_pop_filter>
    a464:	e594303c 	ldr	r3, [r4, #60]	; 0x3c
    a468:	e3530000 	cmp	r3, #0
    a46c:	1afffff8 	bne	a454 <iobuf_flush_temp+0x20>
    a470:	e8bd8010 	pop	{r4, pc}
    a474:	e59f0008 	ldr	r0, [pc, #8]	; a484 <iobuf_flush_temp+0x50>
    a478:	e08f0000 	add	r0, pc, r0
    a47c:	eb001f38 	bl	12164 <tfp_printf>
    a480:	eafffff0 	b	a448 <iobuf_flush_temp+0x14>
    a484:	0000c460 	.word	0x0000c460

0000a488 <iobuf_write_temp>:
    a488:	e92d4070 	push	{r4, r5, r6, lr}
    a48c:	e1a04001 	mov	r4, r1
    a490:	e1a05000 	mov	r5, r0
    a494:	e1a00001 	mov	r0, r1
    a498:	ebffffe5 	bl	a434 <iobuf_flush_temp>
    a49c:	e594201c 	ldr	r2, [r4, #28]
    a4a0:	e1a00005 	mov	r0, r5
    a4a4:	e5941020 	ldr	r1, [r4, #32]
    a4a8:	e8bd4070 	pop	{r4, r5, r6, lr}
    a4ac:	eafffd24 	b	9944 <iobuf_write>

0000a4b0 <iobuf_set_limit>:
    a4b0:	e590300c 	ldr	r3, [r0, #12]
    a4b4:	e3a0c000 	mov	ip, #0
    a4b8:	e051200c 	subs	r2, r1, ip
    a4bc:	e5801004 	str	r1, [r0, #4]
    a4c0:	13a02001 	movne	r2, #1
    a4c4:	e5802010 	str	r2, [r0, #16]
    a4c8:	e5902008 	ldr	r2, [r0, #8]
    a4cc:	e580c008 	str	ip, [r0, #8]
    a4d0:	e0833002 	add	r3, r3, r2
    a4d4:	e580300c 	str	r3, [r0, #12]
    a4d8:	e12fff1e 	bx	lr

0000a4dc <iobuf_get_filelength>:
    a4dc:	e59f104c 	ldr	r1, [pc, #76]	; a530 <iobuf_get_filelength+0x54>
    a4e0:	e08f1001 	add	r1, pc, r1
    a4e4:	e1a03000 	mov	r3, r0
    a4e8:	e590003c 	ldr	r0, [r0, #60]	; 0x3c
    a4ec:	e3500000 	cmp	r0, #0
    a4f0:	1afffffb 	bne	a4e4 <iobuf_get_filelength+0x8>
    a4f4:	e59f2038 	ldr	r2, [pc, #56]	; a534 <iobuf_get_filelength+0x58>
    a4f8:	e593002c 	ldr	r0, [r3, #44]	; 0x2c
    a4fc:	e7913002 	ldr	r3, [r1, r2]
    a500:	e1500003 	cmp	r0, r3
    a504:	0a000002 	beq	a514 <iobuf_get_filelength+0x38>
    a508:	e3a00000 	mov	r0, #0
    a50c:	e3a01000 	mov	r1, #0
    a510:	e12fff1e 	bx	lr
    a514:	e59f001c 	ldr	r0, [pc, #28]	; a538 <iobuf_get_filelength+0x5c>
    a518:	e92d4010 	push	{r4, lr}
    a51c:	e08f0000 	add	r0, pc, r0
    a520:	eb001f0f 	bl	12164 <tfp_printf>
    a524:	e3a00000 	mov	r0, #0
    a528:	e3a01000 	mov	r1, #0
    a52c:	e8bd8010 	pop	{r4, pc}
    a530:	00031644 	.word	0x00031644
    a534:	00000048 	.word	0x00000048
    a538:	0000c3ec 	.word	0x0000c3ec

0000a53c <iobuf_get_fd>:
    a53c:	e92d4030 	push	{r4, r5, lr}
    a540:	e24dd00c 	sub	sp, sp, #12
    a544:	e59f5048 	ldr	r5, [pc, #72]	; a594 <iobuf_get_fd+0x58>
    a548:	e58d0004 	str	r0, [sp, #4]
    a54c:	e59f0044 	ldr	r0, [pc, #68]	; a598 <iobuf_get_fd+0x5c>
    a550:	e59d4004 	ldr	r4, [sp, #4]
    a554:	e08f0000 	add	r0, pc, r0
    a558:	e08f5005 	add	r5, pc, r5
    a55c:	eb001f00 	bl	12164 <tfp_printf>
    a560:	e1a03004 	mov	r3, r4
    a564:	e594403c 	ldr	r4, [r4, #60]	; 0x3c
    a568:	e3540000 	cmp	r4, #0
    a56c:	1afffffb 	bne	a560 <iobuf_get_fd+0x24>
    a570:	e59f2024 	ldr	r2, [pc, #36]	; a59c <iobuf_get_fd+0x60>
    a574:	e593102c 	ldr	r1, [r3, #44]	; 0x2c
    a578:	e7952002 	ldr	r2, [r5, r2]
    a57c:	e1510002 	cmp	r1, r2
    a580:	13e00000 	mvnne	r0, #0
    a584:	05933030 	ldreq	r3, [r3, #48]	; 0x30
    a588:	05930000 	ldreq	r0, [r3]
    a58c:	e28dd00c 	add	sp, sp, #12
    a590:	e8bd8030 	pop	{r4, r5, pc}
    a594:	000315cc 	.word	0x000315cc
    a598:	0000c3c8 	.word	0x0000c3c8
    a59c:	00000048 	.word	0x00000048

0000a5a0 <iobuf_tell>:
    a5a0:	e590200c 	ldr	r2, [r0, #12]
    a5a4:	e5900008 	ldr	r0, [r0, #8]
    a5a8:	e0820000 	add	r0, r2, r0
    a5ac:	e12fff1e 	bx	lr

0000a5b0 <iobuf_seek>:
    a5b0:	e92d4010 	push	{r4, lr}
    a5b4:	e1a04000 	mov	r4, r0
    a5b8:	e5d03000 	ldrb	r3, [r0]
    a5bc:	e59f20bc 	ldr	r2, [pc, #188]	; a680 <iobuf_seek+0xd0>
    a5c0:	e31300fd 	tst	r3, #253	; 0xfd
    a5c4:	e08f2002 	add	r2, pc, r2
    a5c8:	0a000018 	beq	a630 <iobuf_seek+0x80>
    a5cc:	e590203c 	ldr	r2, [r0, #60]	; 0x3c
    a5d0:	e3a03000 	mov	r3, #0
    a5d4:	e5803018 	str	r3, [r0, #24]
    a5d8:	e1520003 	cmp	r2, r3
    a5dc:	e5803008 	str	r3, [r0, #8]
    a5e0:	e5803004 	str	r3, [r0, #4]
    a5e4:	e5803010 	str	r3, [r0, #16]
    a5e8:	e580100c 	str	r1, [r0, #12]
    a5ec:	e5803028 	str	r3, [r0, #40]	; 0x28
    a5f0:	0a00000c 	beq	a628 <iobuf_seek+0x78>
    a5f4:	e59f0088 	ldr	r0, [pc, #136]	; a684 <iobuf_seek+0xd4>
    a5f8:	e08f0000 	add	r0, pc, r0
    a5fc:	eb001ed8 	bl	12164 <tfp_printf>
    a600:	e594303c 	ldr	r3, [r4, #60]	; 0x3c
    a604:	e3530000 	cmp	r3, #0
    a608:	0a000006 	beq	a628 <iobuf_seek+0x78>
    a60c:	e594102c 	ldr	r1, [r4, #44]	; 0x2c
    a610:	e3a02000 	mov	r2, #0
    a614:	e1a00004 	mov	r0, r4
    a618:	ebfffab7 	bl	90fc <iobuf_pop_filter>
    a61c:	e594303c 	ldr	r3, [r4, #60]	; 0x3c
    a620:	e3530000 	cmp	r3, #0
    a624:	1afffff8 	bne	a60c <iobuf_seek+0x5c>
    a628:	e3a00000 	mov	r0, #0
    a62c:	e8bd8010 	pop	{r4, pc}
    a630:	e1a03004 	mov	r3, r4
    a634:	e594403c 	ldr	r4, [r4, #60]	; 0x3c
    a638:	e3540000 	cmp	r4, #0
    a63c:	1afffffb 	bne	a630 <iobuf_seek+0x80>
    a640:	e59f0040 	ldr	r0, [pc, #64]	; a688 <iobuf_seek+0xd8>
    a644:	e7922000 	ldr	r2, [r2, r0]
    a648:	e593002c 	ldr	r0, [r3, #44]	; 0x2c
    a64c:	e1500002 	cmp	r0, r2
    a650:	1a000008 	bne	a678 <iobuf_seek+0xc8>
    a654:	e583401c 	str	r4, [r3, #28]
    a658:	e3a00000 	mov	r0, #0
    a65c:	e5834018 	str	r4, [r3, #24]
    a660:	e5834008 	str	r4, [r3, #8]
    a664:	e5834004 	str	r4, [r3, #4]
    a668:	e5834010 	str	r4, [r3, #16]
    a66c:	e583100c 	str	r1, [r3, #12]
    a670:	e5834028 	str	r4, [r3, #40]	; 0x28
    a674:	e8bd8010 	pop	{r4, pc}
    a678:	e3e00000 	mvn	r0, #0
    a67c:	e8bd8010 	pop	{r4, pc}
    a680:	00031560 	.word	0x00031560
    a684:	0000c334 	.word	0x0000c334
    a688:	00000048 	.word	0x00000048

0000a68c <iobuf_get_real_fname>:
    a68c:	e59f2058 	ldr	r2, [pc, #88]	; a6ec <iobuf_get_real_fname+0x60>
    a690:	e1a03000 	mov	r3, r0
    a694:	e5900038 	ldr	r0, [r0, #56]	; 0x38
    a698:	e08f2002 	add	r2, pc, r2
    a69c:	e3500000 	cmp	r0, #0
    a6a0:	112fff1e 	bxne	lr
    a6a4:	e2530000 	subs	r0, r3, #0
    a6a8:	012fff1e 	bxeq	lr
    a6ac:	e593303c 	ldr	r3, [r3, #60]	; 0x3c
    a6b0:	e3530000 	cmp	r3, #0
    a6b4:	1afffffa 	bne	a6a4 <iobuf_get_real_fname+0x18>
    a6b8:	e59f1030 	ldr	r1, [pc, #48]	; a6f0 <iobuf_get_real_fname+0x64>
    a6bc:	e590c02c 	ldr	ip, [r0, #44]	; 0x2c
    a6c0:	e7921001 	ldr	r1, [r2, r1]
    a6c4:	e15c0001 	cmp	ip, r1
    a6c8:	1afffff5 	bne	a6a4 <iobuf_get_real_fname+0x18>
    a6cc:	e5900030 	ldr	r0, [r0, #48]	; 0x30
    a6d0:	e5902010 	ldr	r2, [r0, #16]
    a6d4:	e3520000 	cmp	r2, #0
    a6d8:	1a000001 	bne	a6e4 <iobuf_get_real_fname+0x58>
    a6dc:	e2800036 	add	r0, r0, #54	; 0x36
    a6e0:	e12fff1e 	bx	lr
    a6e4:	e1a00003 	mov	r0, r3
    a6e8:	e12fff1e 	bx	lr
    a6ec:	0003148c 	.word	0x0003148c
    a6f0:	00000048 	.word	0x00000048

0000a6f4 <iobuf_cancel>:
    a6f4:	e92d40f0 	push	{r4, r5, r6, r7, lr}
    a6f8:	e2506000 	subs	r6, r0, #0
    a6fc:	e24dd014 	sub	sp, sp, #20
    a700:	0a000010 	beq	a748 <iobuf_cancel+0x54>
    a704:	e5d63000 	ldrb	r3, [r6]
    a708:	e3530002 	cmp	r3, #2
    a70c:	0a000011 	beq	a758 <iobuf_cancel+0x64>
    a710:	e1a04006 	mov	r4, r6
    a714:	e28d700c 	add	r7, sp, #12
    a718:	e594502c 	ldr	r5, [r4, #44]	; 0x2c
    a71c:	e3a03000 	mov	r3, #0
    a720:	e3a01006 	mov	r1, #6
    a724:	e1550003 	cmp	r5, r3
    a728:	0a000003 	beq	a73c <iobuf_cancel+0x48>
    a72c:	e594203c 	ldr	r2, [r4, #60]	; 0x3c
    a730:	e5940030 	ldr	r0, [r4, #48]	; 0x30
    a734:	e58d7000 	str	r7, [sp]
    a738:	e12fff35 	blx	r5
    a73c:	e594403c 	ldr	r4, [r4, #60]	; 0x3c
    a740:	e3540000 	cmp	r4, #0
    a744:	1afffff3 	bne	a718 <iobuf_cancel+0x24>
    a748:	e1a00006 	mov	r0, r6
    a74c:	e28dd014 	add	sp, sp, #20
    a750:	e8bd40f0 	pop	{r4, r5, r6, r7, lr}
    a754:	eafff807 	b	8778 <iobuf_close>
    a758:	ebffffcb 	bl	a68c <iobuf_get_real_fname>
    a75c:	eaffffeb 	b	a710 <iobuf_cancel+0x1c>

0000a760 <iobuf_get_fname>:
    a760:	e59f103c 	ldr	r1, [pc, #60]	; a7a4 <iobuf_get_fname+0x44>
    a764:	e08f1001 	add	r1, pc, r1
    a768:	ea000000 	b	a770 <iobuf_get_fname+0x10>
    a76c:	e1a00003 	mov	r0, r3
    a770:	e3500000 	cmp	r0, #0
    a774:	012fff1e 	bxeq	lr
    a778:	e590303c 	ldr	r3, [r0, #60]	; 0x3c
    a77c:	e3530000 	cmp	r3, #0
    a780:	1afffff9 	bne	a76c <iobuf_get_fname+0xc>
    a784:	e59f201c 	ldr	r2, [pc, #28]	; a7a8 <iobuf_get_fname+0x48>
    a788:	e590c02c 	ldr	ip, [r0, #44]	; 0x2c
    a78c:	e7912002 	ldr	r2, [r1, r2]
    a790:	e15c0002 	cmp	ip, r2
    a794:	05900030 	ldreq	r0, [r0, #48]	; 0x30
    a798:	02800036 	addeq	r0, r0, #54	; 0x36
    a79c:	11a00003 	movne	r0, r3
    a7a0:	e12fff1e 	bx	lr
    a7a4:	000313c0 	.word	0x000313c0
    a7a8:	00000048 	.word	0x00000048

0000a7ac <iobuf_get_fname_nonnull>:
    a7ac:	e92d4010 	push	{r4, lr}
    a7b0:	ebffffea 	bl	a760 <iobuf_get_fname>
    a7b4:	e3500000 	cmp	r0, #0
    a7b8:	18bd8010 	popne	{r4, pc}
    a7bc:	e59f0004 	ldr	r0, [pc, #4]	; a7c8 <iobuf_get_fname_nonnull+0x1c>
    a7c0:	e08f0000 	add	r0, pc, r0
    a7c4:	e8bd8010 	pop	{r4, pc}
    a7c8:	0000c1a4 	.word	0x0000c1a4

0000a7cc <iobuf_set_partial_body_length_mode>:
    a7cc:	e92d4070 	push	{r4, r5, r6, lr}
    a7d0:	e1a04000 	mov	r4, r0
    a7d4:	e59f00b8 	ldr	r0, [pc, #184]	; a894 <iobuf_set_partial_body_length_mode+0xc8>
    a7d8:	e1a05001 	mov	r5, r1
    a7dc:	e08f0000 	add	r0, pc, r0
    a7e0:	eb001e5f 	bl	12164 <tfp_printf>
    a7e4:	e3550000 	cmp	r5, #0
    a7e8:	1a000015 	bne	a844 <iobuf_set_partial_body_length_mode+0x78>
    a7ec:	e5d43000 	ldrb	r3, [r4]
    a7f0:	e3530000 	cmp	r3, #0
    a7f4:	0a00000e 	beq	a834 <iobuf_set_partial_body_length_mode+0x68>
    a7f8:	e59f0098 	ldr	r0, [pc, #152]	; a898 <iobuf_set_partial_body_length_mode+0xcc>
    a7fc:	e59f5098 	ldr	r5, [pc, #152]	; a89c <iobuf_set_partial_body_length_mode+0xd0>
    a800:	e08f0000 	add	r0, pc, r0
    a804:	e08f5005 	add	r5, pc, r5
    a808:	eb001e55 	bl	12164 <tfp_printf>
    a80c:	e594002c 	ldr	r0, [r4, #44]	; 0x2c
    a810:	e0400005 	sub	r0, r0, r5
    a814:	e16f0f10 	clz	r0, r0
    a818:	e1a002a0 	lsr	r0, r0, #5
    a81c:	eb001e50 	bl	12164 <tfp_printf>
    a820:	e1a01005 	mov	r1, r5
    a824:	e1a00004 	mov	r0, r4
    a828:	e3a02000 	mov	r2, #0
    a82c:	e8bd4070 	pop	{r4, r5, r6, lr}
    a830:	eafffa31 	b	90fc <iobuf_pop_filter>
    a834:	e59f0064 	ldr	r0, [pc, #100]	; a8a0 <iobuf_set_partial_body_length_mode+0xd4>
    a838:	e08f0000 	add	r0, pc, r0
    a83c:	eb001e48 	bl	12164 <tfp_printf>
    a840:	eaffffec 	b	a7f8 <iobuf_set_partial_body_length_mode+0x2c>
    a844:	e3a01020 	mov	r1, #32
    a848:	e3a00001 	mov	r0, #1
    a84c:	eb001567 	bl	fdf0 <xcalloc>
    a850:	e5d41000 	ldrb	r1, [r4]
    a854:	e3a03001 	mov	r3, #1
    a858:	e580300c 	str	r3, [r0, #12]
    a85c:	e3a03000 	mov	r3, #0
    a860:	e5801000 	str	r1, [r0]
    a864:	e1a06000 	mov	r6, r0
    a868:	e5803004 	str	r3, [r0, #4]
    a86c:	e59f0030 	ldr	r0, [pc, #48]	; a8a4 <iobuf_set_partial_body_length_mode+0xd8>
    a870:	e5865018 	str	r5, [r6, #24]
    a874:	e08f0000 	add	r0, pc, r0
    a878:	eb001e39 	bl	12164 <tfp_printf>
    a87c:	e59f1024 	ldr	r1, [pc, #36]	; a8a8 <iobuf_set_partial_body_length_mode+0xdc>
    a880:	e1a02006 	mov	r2, r6
    a884:	e1a00004 	mov	r0, r4
    a888:	e08f1001 	add	r1, pc, r1
    a88c:	e8bd4070 	pop	{r4, r5, r6, lr}
    a890:	eafffa17 	b	90f4 <iobuf_push_filter>
    a894:	0000c18c 	.word	0x0000c18c
    a898:	0000c1d4 	.word	0x0000c1d4
    a89c:	fffff210 	.word	0xfffff210
    a8a0:	0000c158 	.word	0x0000c158
    a8a4:	0000c194 	.word	0x0000c194
    a8a8:	fffff18c 	.word	0xfffff18c

0000a8ac <iobuf_read_line>:
    a8ac:	e92d4ff0 	push	{r4, r5, r6, r7, r8, r9, sl, fp, lr}
    a8b0:	e24dd00c 	sub	sp, sp, #12
    a8b4:	e591b000 	ldr	fp, [r1]
    a8b8:	e1a07001 	mov	r7, r1
    a8bc:	e592a000 	ldr	sl, [r2]
    a8c0:	e1a08002 	mov	r8, r2
    a8c4:	e5936000 	ldr	r6, [r3]
    a8c8:	e1a04000 	mov	r4, r0
    a8cc:	e35b0000 	cmp	fp, #0
    a8d0:	135a0001 	cmpne	sl, #1
    a8d4:	e58d3004 	str	r3, [sp, #4]
    a8d8:	9a00004c 	bls	aa10 <iobuf_read_line+0x164>
    a8dc:	e1a0900b 	mov	r9, fp
    a8e0:	e3a05000 	mov	r5, #0
    a8e4:	ea00000f 	b	a928 <iobuf_read_line+0x7c>
    a8e8:	e5941008 	ldr	r1, [r4, #8]
    a8ec:	e5940020 	ldr	r0, [r4, #32]
    a8f0:	e584c018 	str	ip, [r4, #24]
    a8f4:	e2811001 	add	r1, r1, #1
    a8f8:	e5841008 	str	r1, [r4, #8]
    a8fc:	e7d01002 	ldrb	r1, [r0, r2]
    a900:	e1a00001 	mov	r0, r1
    a904:	e1a02009 	mov	r2, r9
    a908:	e350000a 	cmp	r0, #10
    a90c:	e24ac001 	sub	ip, sl, #1
    a910:	e2855001 	add	r5, r5, #1
    a914:	e4c21001 	strb	r1, [r2], #1
    a918:	0a000010 	beq	a960 <iobuf_read_line+0xb4>
    a91c:	e15c0005 	cmp	ip, r5
    a920:	0a000013 	beq	a974 <iobuf_read_line+0xc8>
    a924:	e1a09002 	mov	r9, r2
    a928:	e5942010 	ldr	r2, [r4, #16]
    a92c:	e1a00004 	mov	r0, r4
    a930:	e3520000 	cmp	r2, #0
    a934:	1a000004 	bne	a94c <iobuf_read_line+0xa0>
    a938:	e5942018 	ldr	r2, [r4, #24]
    a93c:	e594101c 	ldr	r1, [r4, #28]
    a940:	e282c001 	add	ip, r2, #1
    a944:	e1520001 	cmp	r2, r1
    a948:	3affffe6 	bcc	a8e8 <iobuf_read_line+0x3c>
    a94c:	ebfffaa7 	bl	93f0 <iobuf_readbyte>
    a950:	e3700001 	cmn	r0, #1
    a954:	e6ef1070 	uxtb	r1, r0
    a958:	1affffe9 	bne	a904 <iobuf_read_line+0x58>
    a95c:	e1a02009 	mov	r2, r9
    a960:	e3a03000 	mov	r3, #0
    a964:	e1a00005 	mov	r0, r5
    a968:	e5c23000 	strb	r3, [r2]
    a96c:	e28dd00c 	add	sp, sp, #12
    a970:	e8bd8ff0 	pop	{r4, r5, r6, r7, r8, r9, sl, fp, pc}
    a974:	e15a0006 	cmp	sl, r6
    a978:	e1a0000b 	mov	r0, fp
    a97c:	0a000013 	beq	a9d0 <iobuf_read_line+0x124>
    a980:	e35a0b01 	cmp	sl, #1024	; 0x400
    a984:	33a01c01 	movcc	r1, #256	; 0x100
    a988:	23a01b01 	movcs	r1, #1024	; 0x400
    a98c:	e08aa001 	add	sl, sl, r1
    a990:	e156000a 	cmp	r6, sl
    a994:	31a0a006 	movcc	sl, r6
    a998:	e1a0100a 	mov	r1, sl
    a99c:	eb00152d 	bl	fe58 <xrealloc>
    a9a0:	e5870000 	str	r0, [r7]
    a9a4:	e1a0b000 	mov	fp, r0
    a9a8:	e0802005 	add	r2, r0, r5
    a9ac:	e588a000 	str	sl, [r8]
    a9b0:	eaffffdb 	b	a924 <iobuf_read_line+0x78>
    a9b4:	e58d2000 	str	r2, [sp]
    a9b8:	ebfffa8c 	bl	93f0 <iobuf_readbyte>
    a9bc:	e59d2000 	ldr	r2, [sp]
    a9c0:	e3700001 	cmn	r0, #1
    a9c4:	0a00001b 	beq	aa38 <iobuf_read_line+0x18c>
    a9c8:	e350000a 	cmp	r0, #10
    a9cc:	0a000019 	beq	aa38 <iobuf_read_line+0x18c>
    a9d0:	e5941010 	ldr	r1, [r4, #16]
    a9d4:	e1a00004 	mov	r0, r4
    a9d8:	e3510000 	cmp	r1, #0
    a9dc:	1afffff4 	bne	a9b4 <iobuf_read_line+0x108>
    a9e0:	e5941018 	ldr	r1, [r4, #24]
    a9e4:	e594c01c 	ldr	ip, [r4, #28]
    a9e8:	e151000c 	cmp	r1, ip
    a9ec:	e281c001 	add	ip, r1, #1
    a9f0:	2affffef 	bcs	a9b4 <iobuf_read_line+0x108>
    a9f4:	e5940008 	ldr	r0, [r4, #8]
    a9f8:	e594e020 	ldr	lr, [r4, #32]
    a9fc:	e584c018 	str	ip, [r4, #24]
    aa00:	e2800001 	add	r0, r0, #1
    aa04:	e5840008 	str	r0, [r4, #8]
    aa08:	e7de0001 	ldrb	r0, [lr, r1]
    aa0c:	eaffffed 	b	a9c8 <iobuf_read_line+0x11c>
    aa10:	e3560c01 	cmp	r6, #256	; 0x100
    aa14:	e1a0000b 	mov	r0, fp
    aa18:	31a0a006 	movcc	sl, r6
    aa1c:	23a0ac01 	movcs	sl, #256	; 0x100
    aa20:	e1a0100a 	mov	r1, sl
    aa24:	eb00150b 	bl	fe58 <xrealloc>
    aa28:	e5870000 	str	r0, [r7]
    aa2c:	e1a0b000 	mov	fp, r0
    aa30:	e588a000 	str	sl, [r8]
    aa34:	eaffffa8 	b	a8dc <iobuf_read_line+0x30>
    aa38:	e3a0100a 	mov	r1, #10
    aa3c:	e3a03000 	mov	r3, #0
    aa40:	e5c91000 	strb	r1, [r9]
    aa44:	e59d1004 	ldr	r1, [sp, #4]
    aa48:	e5813000 	str	r3, [r1]
    aa4c:	eaffffc3 	b	a960 <iobuf_read_line+0xb4>

0000aa50 <translate_file_handle>:
    aa50:	e12fff1e 	bx	lr

0000aa54 <iobuf_skip_rest>:
    aa54:	e3520000 	cmp	r2, #0
    aa58:	e92d4070 	push	{r4, r5, r6, lr}
    aa5c:	e1a04000 	mov	r4, r0
    aa60:	1a000031 	bne	ab2c <iobuf_skip_rest+0xd8>
    aa64:	e3510000 	cmp	r1, #0
    aa68:	e1a05001 	mov	r5, r1
    aa6c:	08bd8070 	popeq	{r4, r5, r6, pc}
    aa70:	e5943010 	ldr	r3, [r4, #16]
    aa74:	e1a00004 	mov	r0, r4
    aa78:	e3530000 	cmp	r3, #0
    aa7c:	0a000014 	beq	aad4 <iobuf_skip_rest+0x80>
    aa80:	e2455001 	sub	r5, r5, #1
    aa84:	ebfffa59 	bl	93f0 <iobuf_readbyte>
    aa88:	e3700001 	cmn	r0, #1
    aa8c:	08bd8070 	popeq	{r4, r5, r6, pc}
    aa90:	e3550000 	cmp	r5, #0
    aa94:	1a00000a 	bne	aac4 <iobuf_skip_rest+0x70>
    aa98:	e8bd8070 	pop	{r4, r5, r6, pc}
    aa9c:	e1530005 	cmp	r3, r5
    aaa0:	e5941008 	ldr	r1, [r4, #8]
    aaa4:	21a03005 	movcs	r3, r5
    aaa8:	e0455003 	sub	r5, r5, r3
    aaac:	e0811003 	add	r1, r1, r3
    aab0:	e3550000 	cmp	r5, #0
    aab4:	e0833002 	add	r3, r3, r2
    aab8:	e5841008 	str	r1, [r4, #8]
    aabc:	e5843018 	str	r3, [r4, #24]
    aac0:	08bd8070 	popeq	{r4, r5, r6, pc}
    aac4:	e5943010 	ldr	r3, [r4, #16]
    aac8:	e1a00004 	mov	r0, r4
    aacc:	e3530000 	cmp	r3, #0
    aad0:	1affffea 	bne	aa80 <iobuf_skip_rest+0x2c>
    aad4:	e5942018 	ldr	r2, [r4, #24]
    aad8:	e594101c 	ldr	r1, [r4, #28]
    aadc:	e1520001 	cmp	r2, r1
    aae0:	e0413002 	sub	r3, r1, r2
    aae4:	3affffec 	bcc	aa9c <iobuf_skip_rest+0x48>
    aae8:	eaffffe4 	b	aa80 <iobuf_skip_rest+0x2c>
    aaec:	e594101c 	ldr	r1, [r4, #28]
    aaf0:	e5942018 	ldr	r2, [r4, #24]
    aaf4:	e1520001 	cmp	r2, r1
    aaf8:	2a000007 	bcs	ab1c <iobuf_skip_rest+0xc8>
    aafc:	e5943008 	ldr	r3, [r4, #8]
    ab00:	e5841018 	str	r1, [r4, #24]
    ab04:	e0433002 	sub	r3, r3, r2
    ab08:	e5942018 	ldr	r2, [r4, #24]
    ab0c:	e0833001 	add	r3, r3, r1
    ab10:	e1520001 	cmp	r2, r1
    ab14:	e5843008 	str	r3, [r4, #8]
    ab18:	3afffff7 	bcc	aafc <iobuf_skip_rest+0xa8>
    ab1c:	e1a00004 	mov	r0, r4
    ab20:	ebfffa32 	bl	93f0 <iobuf_readbyte>
    ab24:	e3700001 	cmn	r0, #1
    ab28:	08bd8070 	popeq	{r4, r5, r6, pc}
    ab2c:	e5943010 	ldr	r3, [r4, #16]
    ab30:	e3530000 	cmp	r3, #0
    ab34:	1afffff8 	bne	ab1c <iobuf_skip_rest+0xc8>
    ab38:	eaffffeb 	b	aaec <iobuf_skip_rest+0x98>

0000ab3c <get_status_string>:
    ab3c:	e3500065 	cmp	r0, #101	; 0x65
    ab40:	8a000005 	bhi	ab5c <get_status_string+0x20>
    ab44:	e59f301c 	ldr	r3, [pc, #28]	; ab68 <get_status_string+0x2c>
    ab48:	e08f3003 	add	r3, pc, r3
    ab4c:	e0830100 	add	r0, r3, r0, lsl #2
    ab50:	e59004ec 	ldr	r0, [r0, #1260]	; 0x4ec
    ab54:	e0830000 	add	r0, r3, r0
    ab58:	e12fff1e 	bx	lr
    ab5c:	e59f0008 	ldr	r0, [pc, #8]	; ab6c <get_status_string+0x30>
    ab60:	e08f0000 	add	r0, pc, r0
    ab64:	e12fff1e 	bx	lr
    ab68:	00008d98 	.word	0x00008d98
    ab6c:	0000b57c 	.word	0x0000b57c

0000ab70 <get_inv_recpsgnr_code>:
    ab70:	e6ff0070 	uxth	r0, r0
    ab74:	e350007d 	cmp	r0, #125	; 0x7d
    ab78:	8a000057 	bhi	acdc <get_inv_recpsgnr_code+0x16c>
    ab7c:	e3500035 	cmp	r0, #53	; 0x35
    ab80:	9a00004e 	bls	acc0 <get_inv_recpsgnr_code+0x150>
    ab84:	e2400036 	sub	r0, r0, #54	; 0x36
    ab88:	e3500047 	cmp	r0, #71	; 0x47
    ab8c:	908ff100 	addls	pc, pc, r0, lsl #2
    ab90:	ea000047 	b	acb4 <get_inv_recpsgnr_code+0x144>
    ab94:	ea000073 	b	ad68 <get_inv_recpsgnr_code+0x1f8>
    ab98:	ea000045 	b	acb4 <get_inv_recpsgnr_code+0x144>
    ab9c:	ea000044 	b	acb4 <get_inv_recpsgnr_code+0x144>
    aba0:	ea00005b 	b	ad14 <get_inv_recpsgnr_code+0x1a4>
    aba4:	ea000042 	b	acb4 <get_inv_recpsgnr_code+0x144>
    aba8:	ea000041 	b	acb4 <get_inv_recpsgnr_code+0x144>
    abac:	ea000040 	b	acb4 <get_inv_recpsgnr_code+0x144>
    abb0:	ea00003f 	b	acb4 <get_inv_recpsgnr_code+0x144>
    abb4:	ea00003e 	b	acb4 <get_inv_recpsgnr_code+0x144>
    abb8:	ea00003d 	b	acb4 <get_inv_recpsgnr_code+0x144>
    abbc:	ea00003c 	b	acb4 <get_inv_recpsgnr_code+0x144>
    abc0:	ea00003b 	b	acb4 <get_inv_recpsgnr_code+0x144>
    abc4:	ea00003a 	b	acb4 <get_inv_recpsgnr_code+0x144>
    abc8:	ea000039 	b	acb4 <get_inv_recpsgnr_code+0x144>
    abcc:	ea000038 	b	acb4 <get_inv_recpsgnr_code+0x144>
    abd0:	ea000037 	b	acb4 <get_inv_recpsgnr_code+0x144>
    abd4:	ea000036 	b	acb4 <get_inv_recpsgnr_code+0x144>
    abd8:	ea000035 	b	acb4 <get_inv_recpsgnr_code+0x144>
    abdc:	ea000034 	b	acb4 <get_inv_recpsgnr_code+0x144>
    abe0:	ea000033 	b	acb4 <get_inv_recpsgnr_code+0x144>
    abe4:	ea000032 	b	acb4 <get_inv_recpsgnr_code+0x144>
    abe8:	ea000031 	b	acb4 <get_inv_recpsgnr_code+0x144>
    abec:	ea000030 	b	acb4 <get_inv_recpsgnr_code+0x144>
    abf0:	ea00002f 	b	acb4 <get_inv_recpsgnr_code+0x144>
    abf4:	ea00002e 	b	acb4 <get_inv_recpsgnr_code+0x144>
    abf8:	ea00002d 	b	acb4 <get_inv_recpsgnr_code+0x144>
    abfc:	ea00002c 	b	acb4 <get_inv_recpsgnr_code+0x144>
    ac00:	ea00002b 	b	acb4 <get_inv_recpsgnr_code+0x144>
    ac04:	ea00002a 	b	acb4 <get_inv_recpsgnr_code+0x144>
    ac08:	ea000029 	b	acb4 <get_inv_recpsgnr_code+0x144>
    ac0c:	ea000028 	b	acb4 <get_inv_recpsgnr_code+0x144>
    ac10:	ea000027 	b	acb4 <get_inv_recpsgnr_code+0x144>
    ac14:	ea000026 	b	acb4 <get_inv_recpsgnr_code+0x144>
    ac18:	ea000025 	b	acb4 <get_inv_recpsgnr_code+0x144>
    ac1c:	ea000024 	b	acb4 <get_inv_recpsgnr_code+0x144>
    ac20:	ea000023 	b	acb4 <get_inv_recpsgnr_code+0x144>
    ac24:	ea000022 	b	acb4 <get_inv_recpsgnr_code+0x144>
    ac28:	ea000021 	b	acb4 <get_inv_recpsgnr_code+0x144>
    ac2c:	ea000020 	b	acb4 <get_inv_recpsgnr_code+0x144>
    ac30:	ea00001f 	b	acb4 <get_inv_recpsgnr_code+0x144>
    ac34:	ea000039 	b	ad20 <get_inv_recpsgnr_code+0x1b0>
    ac38:	ea00003b 	b	ad2c <get_inv_recpsgnr_code+0x1bc>
    ac3c:	ea00003d 	b	ad38 <get_inv_recpsgnr_code+0x1c8>
    ac40:	ea00001b 	b	acb4 <get_inv_recpsgnr_code+0x144>
    ac44:	ea00003e 	b	ad44 <get_inv_recpsgnr_code+0x1d4>
    ac48:	ea000019 	b	acb4 <get_inv_recpsgnr_code+0x144>
    ac4c:	ea000018 	b	acb4 <get_inv_recpsgnr_code+0x144>
    ac50:	ea00003e 	b	ad50 <get_inv_recpsgnr_code+0x1e0>
    ac54:	ea000016 	b	acb4 <get_inv_recpsgnr_code+0x144>
    ac58:	ea000015 	b	acb4 <get_inv_recpsgnr_code+0x144>
    ac5c:	ea000014 	b	acb4 <get_inv_recpsgnr_code+0x144>
    ac60:	ea000013 	b	acb4 <get_inv_recpsgnr_code+0x144>
    ac64:	ea000012 	b	acb4 <get_inv_recpsgnr_code+0x144>
    ac68:	ea000041 	b	ad74 <get_inv_recpsgnr_code+0x204>
    ac6c:	ea000010 	b	acb4 <get_inv_recpsgnr_code+0x144>
    ac70:	ea00000f 	b	acb4 <get_inv_recpsgnr_code+0x144>
    ac74:	ea00000e 	b	acb4 <get_inv_recpsgnr_code+0x144>
    ac78:	ea00000d 	b	acb4 <get_inv_recpsgnr_code+0x144>
    ac7c:	ea00000c 	b	acb4 <get_inv_recpsgnr_code+0x144>
    ac80:	ea00000b 	b	acb4 <get_inv_recpsgnr_code+0x144>
    ac84:	ea00000a 	b	acb4 <get_inv_recpsgnr_code+0x144>
    ac88:	ea000009 	b	acb4 <get_inv_recpsgnr_code+0x144>
    ac8c:	ea00001d 	b	ad08 <get_inv_recpsgnr_code+0x198>
    ac90:	ea000007 	b	acb4 <get_inv_recpsgnr_code+0x144>
    ac94:	ea000006 	b	acb4 <get_inv_recpsgnr_code+0x144>
    ac98:	ea000005 	b	acb4 <get_inv_recpsgnr_code+0x144>
    ac9c:	ea000004 	b	acb4 <get_inv_recpsgnr_code+0x144>
    aca0:	ea000003 	b	acb4 <get_inv_recpsgnr_code+0x144>
    aca4:	ea000002 	b	acb4 <get_inv_recpsgnr_code+0x144>
    aca8:	ea000001 	b	acb4 <get_inv_recpsgnr_code+0x144>
    acac:	ea000000 	b	acb4 <get_inv_recpsgnr_code+0x144>
    acb0:	ea000029 	b	ad5c <get_inv_recpsgnr_code+0x1ec>
    acb4:	e59f00d0 	ldr	r0, [pc, #208]	; ad8c <get_inv_recpsgnr_code+0x21c>
    acb8:	e08f0000 	add	r0, pc, r0
    acbc:	e12fff1e 	bx	lr
    acc0:	e3500009 	cmp	r0, #9
    acc4:	0a000009 	beq	acf0 <get_inv_recpsgnr_code+0x180>
    acc8:	e3500011 	cmp	r0, #17
    accc:	1a00002b 	bne	ad80 <get_inv_recpsgnr_code+0x210>
    acd0:	e59f00b8 	ldr	r0, [pc, #184]	; ad90 <get_inv_recpsgnr_code+0x220>
    acd4:	e08f0000 	add	r0, pc, r0
    acd8:	e12fff1e 	bx	lr
    acdc:	e35000b9 	cmp	r0, #185	; 0xb9
    ace0:	1a000005 	bne	acfc <get_inv_recpsgnr_code+0x18c>
    ace4:	e59f00a8 	ldr	r0, [pc, #168]	; ad94 <get_inv_recpsgnr_code+0x224>
    ace8:	e08f0000 	add	r0, pc, r0
    acec:	e12fff1e 	bx	lr
    acf0:	e59f00a0 	ldr	r0, [pc, #160]	; ad98 <get_inv_recpsgnr_code+0x228>
    acf4:	e08f0000 	add	r0, pc, r0
    acf8:	e12fff1e 	bx	lr
    acfc:	e59f0098 	ldr	r0, [pc, #152]	; ad9c <get_inv_recpsgnr_code+0x22c>
    ad00:	e08f0000 	add	r0, pc, r0
    ad04:	e12fff1e 	bx	lr
    ad08:	e59f0090 	ldr	r0, [pc, #144]	; ada0 <get_inv_recpsgnr_code+0x230>
    ad0c:	e08f0000 	add	r0, pc, r0
    ad10:	e12fff1e 	bx	lr
    ad14:	e59f0088 	ldr	r0, [pc, #136]	; ada4 <get_inv_recpsgnr_code+0x234>
    ad18:	e08f0000 	add	r0, pc, r0
    ad1c:	e12fff1e 	bx	lr
    ad20:	e59f0080 	ldr	r0, [pc, #128]	; ada8 <get_inv_recpsgnr_code+0x238>
    ad24:	e08f0000 	add	r0, pc, r0
    ad28:	e12fff1e 	bx	lr
    ad2c:	e59f0078 	ldr	r0, [pc, #120]	; adac <get_inv_recpsgnr_code+0x23c>
    ad30:	e08f0000 	add	r0, pc, r0
    ad34:	e12fff1e 	bx	lr
    ad38:	e59f0070 	ldr	r0, [pc, #112]	; adb0 <get_inv_recpsgnr_code+0x240>
    ad3c:	e08f0000 	add	r0, pc, r0
    ad40:	e12fff1e 	bx	lr
    ad44:	e59f0068 	ldr	r0, [pc, #104]	; adb4 <get_inv_recpsgnr_code+0x244>
    ad48:	e08f0000 	add	r0, pc, r0
    ad4c:	e12fff1e 	bx	lr
    ad50:	e59f0060 	ldr	r0, [pc, #96]	; adb8 <get_inv_recpsgnr_code+0x248>
    ad54:	e08f0000 	add	r0, pc, r0
    ad58:	e12fff1e 	bx	lr
    ad5c:	e59f0058 	ldr	r0, [pc, #88]	; adbc <get_inv_recpsgnr_code+0x24c>
    ad60:	e08f0000 	add	r0, pc, r0
    ad64:	e12fff1e 	bx	lr
    ad68:	e59f0050 	ldr	r0, [pc, #80]	; adc0 <get_inv_recpsgnr_code+0x250>
    ad6c:	e08f0000 	add	r0, pc, r0
    ad70:	e12fff1e 	bx	lr
    ad74:	e59f0048 	ldr	r0, [pc, #72]	; adc4 <get_inv_recpsgnr_code+0x254>
    ad78:	e08f0000 	add	r0, pc, r0
    ad7c:	e12fff1e 	bx	lr
    ad80:	e59f0040 	ldr	r0, [pc, #64]	; adc8 <get_inv_recpsgnr_code+0x258>
    ad84:	e08f0000 	add	r0, pc, r0
    ad88:	e12fff1e 	bx	lr
    ad8c:	0000be04 	.word	0x0000be04
    ad90:	0000be04 	.word	0x0000be04
    ad94:	0000be00 	.word	0x0000be00
    ad98:	0000bdcc 	.word	0x0000bdcc
    ad9c:	0000bdbc 	.word	0x0000bdbc
    ada0:	0000bdc8 	.word	0x0000bdc8
    ada4:	0000bdc8 	.word	0x0000bdc8
    ada8:	0000bda4 	.word	0x0000bda4
    adac:	0000bd9c 	.word	0x0000bd9c
    adb0:	0000bd94 	.word	0x0000bd94
    adb4:	0000bd94 	.word	0x0000bd94
    adb8:	0000cf9c 	.word	0x0000cf9c
    adbc:	0000bd64 	.word	0x0000bd64
    adc0:	0000bd6c 	.word	0x0000bd6c
    adc4:	0000bd6c 	.word	0x0000bd6c
    adc8:	0000bd38 	.word	0x0000bd38

0000adcc <get_pkttype_name>:
    adcc:	e3500009 	cmp	r0, #9
    add0:	0a00000c 	beq	ae08 <get_pkttype_name+0x3c>
    add4:	e350000b 	cmp	r0, #11
    add8:	0a000004 	beq	adf0 <get_pkttype_name+0x24>
    addc:	e3500003 	cmp	r0, #3
    ade0:	0a000005 	beq	adfc <get_pkttype_name+0x30>
    ade4:	e59f0028 	ldr	r0, [pc, #40]	; ae14 <get_pkttype_name+0x48>
    ade8:	e08f0000 	add	r0, pc, r0
    adec:	e12fff1e 	bx	lr
    adf0:	e59f0020 	ldr	r0, [pc, #32]	; ae18 <get_pkttype_name+0x4c>
    adf4:	e08f0000 	add	r0, pc, r0
    adf8:	e12fff1e 	bx	lr
    adfc:	e59f0018 	ldr	r0, [pc, #24]	; ae1c <get_pkttype_name+0x50>
    ae00:	e08f0000 	add	r0, pc, r0
    ae04:	e12fff1e 	bx	lr
    ae08:	e59f0010 	ldr	r0, [pc, #16]	; ae20 <get_pkttype_name+0x54>
    ae0c:	e08f0000 	add	r0, pc, r0
    ae10:	e12fff1e 	bx	lr
    ae14:	0000bc44 	.word	0x0000bc44
    ae18:	0000bcf8 	.word	0x0000bcf8
    ae1c:	0000bd0c 	.word	0x0000bd0c
    ae20:	0000bcf0 	.word	0x0000bcf0

0000ae24 <calc_packet_length>:
    ae24:	e92d4070 	push	{r4, r5, r6, lr}
    ae28:	e5d03000 	ldrb	r3, [r0]
    ae2c:	e353000b 	cmp	r3, #11
    ae30:	0a000004 	beq	ae48 <calc_packet_length+0x24>
    ae34:	e59f00b0 	ldr	r0, [pc, #176]	; aeec <calc_packet_length+0xc8>
    ae38:	e08f0000 	add	r0, pc, r0
    ae3c:	eb001cc8 	bl	12164 <tfp_printf>
    ae40:	e3a00002 	mov	r0, #2
    ae44:	e8bd8070 	pop	{r4, r5, r6, pc}
    ae48:	e5903004 	ldr	r3, [r0, #4]
    ae4c:	e1a05000 	mov	r5, r0
    ae50:	e5932014 	ldr	r2, [r3, #20]
    ae54:	e5931000 	ldr	r1, [r3]
    ae58:	e35200ff 	cmp	r2, #255	; 0xff
    ae5c:	c3a020ff 	movgt	r2, #255	; 0xff
    ae60:	c5832014 	strgt	r2, [r3, #20]
    ae64:	e3510000 	cmp	r1, #0
    ae68:	0a000010 	beq	aeb0 <calc_packet_length+0x8c>
    ae6c:	e5934014 	ldr	r4, [r3, #20]
    ae70:	e2811006 	add	r1, r1, #6
    ae74:	e59f0074 	ldr	r0, [pc, #116]	; aef0 <calc_packet_length+0xcc>
    ae78:	e0814004 	add	r4, r1, r4
    ae7c:	e08f0000 	add	r0, pc, r0
    ae80:	e1a01004 	mov	r1, r4
    ae84:	eb001cb6 	bl	12164 <tfp_printf>
    ae88:	e5953004 	ldr	r3, [r5, #4]
    ae8c:	e5d33008 	ldrb	r3, [r3, #8]
    ae90:	e3530000 	cmp	r3, #0
    ae94:	0a00000c 	beq	aecc <calc_packet_length+0xa8>
    ae98:	e35400bf 	cmp	r4, #191	; 0xbf
    ae9c:	9a000010 	bls	aee4 <calc_packet_length+0xc0>
    aea0:	e3540d83 	cmp	r4, #8384	; 0x20c0
    aea4:	3a000006 	bcc	aec4 <calc_packet_length+0xa0>
    aea8:	e2840006 	add	r0, r4, #6
    aeac:	e8bd8070 	pop	{r4, r5, r6, pc}
    aeb0:	e59f003c 	ldr	r0, [pc, #60]	; aef4 <calc_packet_length+0xd0>
    aeb4:	e08f0000 	add	r0, pc, r0
    aeb8:	eb001ca9 	bl	12164 <tfp_printf>
    aebc:	e3a00002 	mov	r0, #2
    aec0:	e8bd8070 	pop	{r4, r5, r6, pc}
    aec4:	e2840003 	add	r0, r4, #3
    aec8:	e8bd8070 	pop	{r4, r5, r6, pc}
    aecc:	e35400ff 	cmp	r4, #255	; 0xff
    aed0:	9a000003 	bls	aee4 <calc_packet_length+0xc0>
    aed4:	e3540801 	cmp	r4, #65536	; 0x10000
    aed8:	3afffff9 	bcc	aec4 <calc_packet_length+0xa0>
    aedc:	e2840005 	add	r0, r4, #5
    aee0:	e8bd8070 	pop	{r4, r5, r6, pc}
    aee4:	e2840002 	add	r0, r4, #2
    aee8:	e8bd8070 	pop	{r4, r5, r6, pc}
    aeec:	0000bd04 	.word	0x0000bd04
    aef0:	0000bca0 	.word	0x0000bca0
    aef4:	0000bc68 	.word	0x0000bc68

0000aef8 <log_hexdump>:
    aef8:	e92d4ff0 	push	{r4, r5, r6, r7, r8, r9, sl, fp, lr}
    aefc:	e1a06000 	mov	r6, r0
    af00:	e59f013c 	ldr	r0, [pc, #316]	; b044 <log_hexdump+0x14c>
    af04:	e1a07001 	mov	r7, r1
    af08:	e24dd02c 	sub	sp, sp, #44	; 0x2c
    af0c:	e08f0000 	add	r0, pc, r0
    af10:	eb001c93 	bl	12164 <tfp_printf>
    af14:	e3570000 	cmp	r7, #0
    af18:	da000041 	ble	b024 <log_hexdump+0x12c>
    af1c:	e59f3124 	ldr	r3, [pc, #292]	; b048 <log_hexdump+0x150>
    af20:	e3a0a000 	mov	sl, #0
    af24:	e59f9120 	ldr	r9, [pc, #288]	; b04c <log_hexdump+0x154>
    af28:	e59f8120 	ldr	r8, [pc, #288]	; b050 <log_hexdump+0x158>
    af2c:	e59f5120 	ldr	r5, [pc, #288]	; b054 <log_hexdump+0x15c>
    af30:	e08f3003 	add	r3, pc, r3
    af34:	e58d3004 	str	r3, [sp, #4]
    af38:	e28d3013 	add	r3, sp, #19
    af3c:	e08f9009 	add	r9, pc, r9
    af40:	e08f8008 	add	r8, pc, r8
    af44:	e08f5005 	add	r5, pc, r5
    af48:	e58d3008 	str	r3, [sp, #8]
    af4c:	e28d3014 	add	r3, sp, #20
    af50:	e58d300c 	str	r3, [sp, #12]
    af54:	e59d0004 	ldr	r0, [sp, #4]
    af58:	e3570010 	cmp	r7, #16
    af5c:	e1a0100a 	mov	r1, sl
    af60:	e3a0b000 	mov	fp, #0
    af64:	b1a04007 	movlt	r4, r7
    af68:	a3a04010 	movge	r4, #16
    af6c:	eb001c7c 	bl	12164 <tfp_printf>
    af70:	ea000006 	b	af90 <log_hexdump+0x98>
    af74:	e59f00dc 	ldr	r0, [pc, #220]	; b058 <log_hexdump+0x160>
    af78:	e7d6100b 	ldrb	r1, [r6, fp]
    af7c:	e28bb001 	add	fp, fp, #1
    af80:	e08f0000 	add	r0, pc, r0
    af84:	eb001c76 	bl	12164 <tfp_printf>
    af88:	e35b0010 	cmp	fp, #16
    af8c:	0a00000a 	beq	afbc <log_hexdump+0xc4>
    af90:	e31b0001 	tst	fp, #1
    af94:	0a000027 	beq	b038 <log_hexdump+0x140>
    af98:	e31b0007 	tst	fp, #7
    af9c:	0a000022 	beq	b02c <log_hexdump+0x134>
    afa0:	e154000b 	cmp	r4, fp
    afa4:	e1a00005 	mov	r0, r5
    afa8:	cafffff1 	bgt	af74 <log_hexdump+0x7c>
    afac:	e28bb001 	add	fp, fp, #1
    afb0:	eb001c6b 	bl	12164 <tfp_printf>
    afb4:	e35b0010 	cmp	fp, #16
    afb8:	1afffff4 	bne	af90 <log_hexdump+0x98>
    afbc:	e59f0098 	ldr	r0, [pc, #152]	; b05c <log_hexdump+0x164>
    afc0:	e08f0000 	add	r0, pc, r0
    afc4:	eb001c66 	bl	12164 <tfp_printf>
    afc8:	e59d1008 	ldr	r1, [sp, #8]
    afcc:	e2462001 	sub	r2, r6, #1
    afd0:	e082c004 	add	ip, r2, r4
    afd4:	e5f23001 	ldrb	r3, [r2, #1]!
    afd8:	e2430020 	sub	r0, r3, #32
    afdc:	e350005e 	cmp	r0, #94	; 0x5e
    afe0:	83a0302e 	movhi	r3, #46	; 0x2e
    afe4:	e152000c 	cmp	r2, ip
    afe8:	e5e13001 	strb	r3, [r1, #1]!
    afec:	1afffff8 	bne	afd4 <log_hexdump+0xdc>
    aff0:	e59f0068 	ldr	r0, [pc, #104]	; b060 <log_hexdump+0x168>
    aff4:	e2843028 	add	r3, r4, #40	; 0x28
    aff8:	e08d3003 	add	r3, sp, r3
    affc:	e3a02000 	mov	r2, #0
    b000:	e08f0000 	add	r0, pc, r0
    b004:	e59d100c 	ldr	r1, [sp, #12]
    b008:	e0477004 	sub	r7, r7, r4
    b00c:	e5432014 	strb	r2, [r3, #-20]	; 0xffffffec
    b010:	e0866004 	add	r6, r6, r4
    b014:	eb001c52 	bl	12164 <tfp_printf>
    b018:	e08aa004 	add	sl, sl, r4
    b01c:	e3570000 	cmp	r7, #0
    b020:	caffffcb 	bgt	af54 <log_hexdump+0x5c>
    b024:	e28dd02c 	add	sp, sp, #44	; 0x2c
    b028:	e8bd8ff0 	pop	{r4, r5, r6, r7, r8, r9, sl, fp, pc}
    b02c:	e1a00008 	mov	r0, r8
    b030:	eb001c4b 	bl	12164 <tfp_printf>
    b034:	eaffffd9 	b	afa0 <log_hexdump+0xa8>
    b038:	e1a00009 	mov	r0, r9
    b03c:	eb001c48 	bl	12164 <tfp_printf>
    b040:	eaffffd4 	b	af98 <log_hexdump+0xa0>
    b044:	0000bc5c 	.word	0x0000bc5c
    b048:	0000bc44 	.word	0x0000bc44
    b04c:	0000c494 	.word	0x0000c494
    b050:	0000c490 	.word	0x0000c490
    b054:	0000bc40 	.word	0x0000bc40
    b058:	0000bbfc 	.word	0x0000bbfc
    b05c:	0000bbc4 	.word	0x0000bbc4
    b060:	0000cbd4 	.word	0x0000cbd4

0000b064 <write_header2.constprop.0.isra.0>:
    b064:	e92d40f0 	push	{r4, r5, r6, r7, lr}
    b068:	e1a07000 	mov	r7, r0
    b06c:	e59f0260 	ldr	r0, [pc, #608]	; b2d4 <write_header2.constprop.0.isra.0+0x270>
    b070:	e24dd00c 	sub	sp, sp, #12
    b074:	e5d73000 	ldrb	r3, [r7]
    b078:	e1a05002 	mov	r5, r2
    b07c:	e08f0000 	add	r0, pc, r0
    b080:	e2016040 	and	r6, r1, #64	; 0x40
    b084:	e58d3000 	str	r3, [sp]
    b088:	e3a02000 	mov	r2, #0
    b08c:	e1a03001 	mov	r3, r1
    b090:	e1a04001 	mov	r4, r1
    b094:	e1a01005 	mov	r1, r5
    b098:	eb001c31 	bl	12164 <tfp_printf>
    b09c:	e59f0234 	ldr	r0, [pc, #564]	; b2d8 <write_header2.constprop.0.isra.0+0x274>
    b0a0:	e1a01006 	mov	r1, r6
    b0a4:	e08f0000 	add	r0, pc, r0
    b0a8:	eb001c2d 	bl	12164 <tfp_printf>
    b0ac:	e3560000 	cmp	r6, #0
    b0b0:	1a00002b 	bne	b164 <write_header2.constprop.0.isra.0+0x100>
    b0b4:	e59f0220 	ldr	r0, [pc, #544]	; b2dc <write_header2.constprop.0.isra.0+0x278>
    b0b8:	e1a01005 	mov	r1, r5
    b0bc:	e08f0000 	add	r0, pc, r0
    b0c0:	eb001c27 	bl	12164 <tfp_printf>
    b0c4:	e3550000 	cmp	r5, #0
    b0c8:	1a00000f 	bne	b10c <write_header2.constprop.0.isra.0+0xa8>
    b0cc:	e3844003 	orr	r4, r4, #3
    b0d0:	e1a00007 	mov	r0, r7
    b0d4:	e1a01004 	mov	r1, r4
    b0d8:	ebfff9ee 	bl	9898 <iobuf_writebyte>
    b0dc:	e3500000 	cmp	r0, #0
    b0e0:	1a00006d 	bne	b29c <write_header2.constprop.0.isra.0+0x238>
    b0e4:	e59f01f4 	ldr	r0, [pc, #500]	; b2e0 <write_header2.constprop.0.isra.0+0x27c>
    b0e8:	e1a01004 	mov	r1, r4
    b0ec:	e1a02005 	mov	r2, r5
    b0f0:	e08f0000 	add	r0, pc, r0
    b0f4:	eb001c1a 	bl	12164 <tfp_printf>
    b0f8:	e597101c 	ldr	r1, [r7, #28]
    b0fc:	e5970020 	ldr	r0, [r7, #32]
    b100:	e28dd00c 	add	sp, sp, #12
    b104:	e8bd40f0 	pop	{r4, r5, r6, r7, lr}
    b108:	eaffff7a 	b	aef8 <log_hexdump>
    b10c:	e35500ff 	cmp	r5, #255	; 0xff
    b110:	8a000045 	bhi	b22c <write_header2.constprop.0.isra.0+0x1c8>
    b114:	e1a01004 	mov	r1, r4
    b118:	e1a00007 	mov	r0, r7
    b11c:	ebfff9dd 	bl	9898 <iobuf_writebyte>
    b120:	e3500000 	cmp	r0, #0
    b124:	1a00005c 	bne	b29c <write_header2.constprop.0.isra.0+0x238>
    b128:	e3140002 	tst	r4, #2
    b12c:	1a000047 	bne	b250 <write_header2.constprop.0.isra.0+0x1ec>
    b130:	e3140003 	tst	r4, #3
    b134:	0a000004 	beq	b14c <write_header2.constprop.0.isra.0+0xe8>
    b138:	e1a01425 	lsr	r1, r5, #8
    b13c:	e1a00007 	mov	r0, r7
    b140:	ebfff9d4 	bl	9898 <iobuf_writebyte>
    b144:	e3500000 	cmp	r0, #0
    b148:	1a00005f 	bne	b2cc <write_header2.constprop.0.isra.0+0x268>
    b14c:	e1a01005 	mov	r1, r5
    b150:	e1a00007 	mov	r0, r7
    b154:	ebfff9cf 	bl	9898 <iobuf_writebyte>
    b158:	e3500000 	cmp	r0, #0
    b15c:	0affffe0 	beq	b0e4 <write_header2.constprop.0.isra.0+0x80>
    b160:	ea000059 	b	b2cc <write_header2.constprop.0.isra.0+0x268>
    b164:	e59f0178 	ldr	r0, [pc, #376]	; b2e4 <write_header2.constprop.0.isra.0+0x280>
    b168:	e08f0000 	add	r0, pc, r0
    b16c:	eb001bfc 	bl	12164 <tfp_printf>
    b170:	e59f0170 	ldr	r0, [pc, #368]	; b2e8 <write_header2.constprop.0.isra.0+0x284>
    b174:	e3a03000 	mov	r3, #0
    b178:	e1a02005 	mov	r2, r5
    b17c:	e1a01004 	mov	r1, r4
    b180:	e08f0000 	add	r0, pc, r0
    b184:	eb001bf6 	bl	12164 <tfp_printf>
    b188:	e1a01004 	mov	r1, r4
    b18c:	e1a00007 	mov	r0, r7
    b190:	ebfff9c0 	bl	9898 <iobuf_writebyte>
    b194:	e3500000 	cmp	r0, #0
    b198:	1a00004b 	bne	b2cc <write_header2.constprop.0.isra.0+0x268>
    b19c:	e3550000 	cmp	r5, #0
    b1a0:	0a000035 	beq	b27c <write_header2.constprop.0.isra.0+0x218>
    b1a4:	e59f0140 	ldr	r0, [pc, #320]	; b2ec <write_header2.constprop.0.isra.0+0x288>
    b1a8:	e1a01005 	mov	r1, r5
    b1ac:	e08f0000 	add	r0, pc, r0
    b1b0:	eb001beb 	bl	12164 <tfp_printf>
    b1b4:	e35500bf 	cmp	r5, #191	; 0xbf
    b1b8:	91a01005 	movls	r1, r5
    b1bc:	9a000016 	bls	b21c <write_header2.constprop.0.isra.0+0x1b8>
    b1c0:	e3550d83 	cmp	r5, #8384	; 0x20c0
    b1c4:	3a000039 	bcc	b2b0 <write_header2.constprop.0.isra.0+0x24c>
    b1c8:	e3a010ff 	mov	r1, #255	; 0xff
    b1cc:	e1a00007 	mov	r0, r7
    b1d0:	ebfff9b0 	bl	9898 <iobuf_writebyte>
    b1d4:	e3500000 	cmp	r0, #0
    b1d8:	1a00003b 	bne	b2cc <write_header2.constprop.0.isra.0+0x268>
    b1dc:	e1a01c25 	lsr	r1, r5, #24
    b1e0:	e1a00007 	mov	r0, r7
    b1e4:	ebfff9ab 	bl	9898 <iobuf_writebyte>
    b1e8:	e3500000 	cmp	r0, #0
    b1ec:	1a000036 	bne	b2cc <write_header2.constprop.0.isra.0+0x268>
    b1f0:	e7e71855 	ubfx	r1, r5, #16, #8
    b1f4:	e1a00007 	mov	r0, r7
    b1f8:	ebfff9a6 	bl	9898 <iobuf_writebyte>
    b1fc:	e3500000 	cmp	r0, #0
    b200:	1a000031 	bne	b2cc <write_header2.constprop.0.isra.0+0x268>
    b204:	e7e71455 	ubfx	r1, r5, #8, #8
    b208:	e1a00007 	mov	r0, r7
    b20c:	ebfff9a1 	bl	9898 <iobuf_writebyte>
    b210:	e3500000 	cmp	r0, #0
    b214:	1a00002c 	bne	b2cc <write_header2.constprop.0.isra.0+0x268>
    b218:	e6ef1075 	uxtb	r1, r5
    b21c:	e1a00007 	mov	r0, r7
    b220:	e28dd00c 	add	sp, sp, #12
    b224:	e8bd40f0 	pop	{r4, r5, r6, r7, lr}
    b228:	eafff99a 	b	9898 <iobuf_writebyte>
    b22c:	e3550801 	cmp	r5, #65536	; 0x10000
    b230:	33844001 	orrcc	r4, r4, #1
    b234:	3affffb6 	bcc	b114 <write_header2.constprop.0.isra.0+0xb0>
    b238:	e3844002 	orr	r4, r4, #2
    b23c:	e1a00007 	mov	r0, r7
    b240:	e1a01004 	mov	r1, r4
    b244:	ebfff993 	bl	9898 <iobuf_writebyte>
    b248:	e3500000 	cmp	r0, #0
    b24c:	1a000012 	bne	b29c <write_header2.constprop.0.isra.0+0x238>
    b250:	e1a01c25 	lsr	r1, r5, #24
    b254:	e1a00007 	mov	r0, r7
    b258:	ebfff98e 	bl	9898 <iobuf_writebyte>
    b25c:	e3500000 	cmp	r0, #0
    b260:	1a000019 	bne	b2cc <write_header2.constprop.0.isra.0+0x268>
    b264:	e1a01825 	lsr	r1, r5, #16
    b268:	e1a00007 	mov	r0, r7
    b26c:	ebfff989 	bl	9898 <iobuf_writebyte>
    b270:	e3500000 	cmp	r0, #0
    b274:	0affffad 	beq	b130 <write_header2.constprop.0.isra.0+0xcc>
    b278:	ea000013 	b	b2cc <write_header2.constprop.0.isra.0+0x268>
    b27c:	e59f006c 	ldr	r0, [pc, #108]	; b2f0 <write_header2.constprop.0.isra.0+0x28c>
    b280:	e08f0000 	add	r0, pc, r0
    b284:	eb001bb6 	bl	12164 <tfp_printf>
    b288:	e3a01c02 	mov	r1, #512	; 0x200
    b28c:	e1a00007 	mov	r0, r7
    b290:	e28dd00c 	add	sp, sp, #12
    b294:	e8bd40f0 	pop	{r4, r5, r6, r7, lr}
    b298:	eafffd4b 	b	a7cc <iobuf_set_partial_body_length_mode>
    b29c:	e59f0050 	ldr	r0, [pc, #80]	; b2f4 <write_header2.constprop.0.isra.0+0x290>
    b2a0:	e08f0000 	add	r0, pc, r0
    b2a4:	e28dd00c 	add	sp, sp, #12
    b2a8:	e8bd40f0 	pop	{r4, r5, r6, r7, lr}
    b2ac:	ea001bac 	b	12164 <tfp_printf>
    b2b0:	e24550c0 	sub	r5, r5, #192	; 0xc0
    b2b4:	e1a00007 	mov	r0, r7
    b2b8:	e1a01425 	lsr	r1, r5, #8
    b2bc:	e28110c0 	add	r1, r1, #192	; 0xc0
    b2c0:	ebfff974 	bl	9898 <iobuf_writebyte>
    b2c4:	e3500000 	cmp	r0, #0
    b2c8:	0affffd2 	beq	b218 <write_header2.constprop.0.isra.0+0x1b4>
    b2cc:	e28dd00c 	add	sp, sp, #12
    b2d0:	e8bd80f0 	pop	{r4, r5, r6, r7, pc}
    b2d4:	0000bb0c 	.word	0x0000bb0c
    b2d8:	0000bb04 	.word	0x0000bb04
    b2dc:	0000bb84 	.word	0x0000bb84
    b2e0:	0000bb34 	.word	0x0000bb34
    b2e4:	0000ba54 	.word	0x0000ba54
    b2e8:	0000ba50 	.word	0x0000ba50
    b2ec:	0000ba94 	.word	0x0000ba94
    b2f0:	0000b970 	.word	0x0000b970
    b2f4:	0000b974 	.word	0x0000b974

0000b2f8 <build_packet>:
    b2f8:	e92d41f0 	push	{r4, r5, r6, r7, r8, lr}
    b2fc:	e1a05000 	mov	r5, r0
    b300:	e5d10000 	ldrb	r0, [r1]
    b304:	e1a06001 	mov	r6, r1
    b308:	ebfffeaf 	bl	adcc <get_pkttype_name>
    b30c:	e5d52000 	ldrb	r2, [r5]
    b310:	e1a01000 	mov	r1, r0
    b314:	e59f04b8 	ldr	r0, [pc, #1208]	; b7d4 <build_packet+0x4dc>
    b318:	e08f0000 	add	r0, pc, r0
    b31c:	eb001b90 	bl	12164 <tfp_printf>
    b320:	e5d64000 	ldrb	r4, [r6]
    b324:	e3540009 	cmp	r4, #9
    b328:	0a000002 	beq	b338 <build_packet+0x40>
    b32c:	e354000b 	cmp	r4, #11
    b330:	13a03000 	movne	r3, #0
    b334:	1a000003 	bne	b348 <build_packet+0x50>
    b338:	e5963004 	ldr	r3, [r6, #4]
    b33c:	e5d33008 	ldrb	r3, [r3, #8]
    b340:	e2533000 	subs	r3, r3, #0
    b344:	13a03001 	movne	r3, #1
    b348:	e354000f 	cmp	r4, #15
    b34c:	c3833001 	orrgt	r3, r3, #1
    b350:	e1a02004 	mov	r2, r4
    b354:	e59f047c 	ldr	r0, [pc, #1148]	; b7d8 <build_packet+0x4e0>
    b358:	e3530000 	cmp	r3, #0
    b35c:	01a07104 	lsleq	r7, r4, #2
    b360:	138470c0 	orrne	r7, r4, #192	; 0xc0
    b364:	e08f0000 	add	r0, pc, r0
    b368:	03877080 	orreq	r7, r7, #128	; 0x80
    b36c:	e1a01007 	mov	r1, r7
    b370:	eb001b7b 	bl	12164 <tfp_printf>
    b374:	e3540009 	cmp	r4, #9
    b378:	0a000009 	beq	b3a4 <build_packet+0xac>
    b37c:	e354000b 	cmp	r4, #11
    b380:	0a00006f 	beq	b544 <build_packet+0x24c>
    b384:	e3540003 	cmp	r4, #3
    b388:	0a000010 	beq	b3d0 <build_packet+0xd8>
    b38c:	e59f0448 	ldr	r0, [pc, #1096]	; b7dc <build_packet+0x4e4>
    b390:	e3a06000 	mov	r6, #0
    b394:	e08f0000 	add	r0, pc, r0
    b398:	eb001b71 	bl	12164 <tfp_printf>
    b39c:	e1a00006 	mov	r0, r6
    b3a0:	e8bd81f0 	pop	{r4, r5, r6, r7, r8, pc}
    b3a4:	e5963004 	ldr	r3, [r6, #4]
    b3a8:	e1a00005 	mov	r0, r5
    b3ac:	e1a01007 	mov	r1, r7
    b3b0:	e3a06000 	mov	r6, #0
    b3b4:	e5932000 	ldr	r2, [r3]
    b3b8:	e3520000 	cmp	r2, #0
    b3bc:	15933004 	ldrne	r3, [r3, #4]
    b3c0:	10822003 	addne	r2, r2, r3
    b3c4:	ebffff26 	bl	b064 <write_header2.constprop.0.isra.0>
    b3c8:	e1a00006 	mov	r0, r6
    b3cc:	e8bd81f0 	pop	{r4, r5, r6, r7, r8, pc}
    b3d0:	e59f0408 	ldr	r0, [pc, #1032]	; b7e0 <build_packet+0x4e8>
    b3d4:	e5d51000 	ldrb	r1, [r5]
    b3d8:	e08f0000 	add	r0, pc, r0
    b3dc:	e5964004 	ldr	r4, [r6, #4]
    b3e0:	eb001b5f 	bl	12164 <tfp_printf>
    b3e4:	e59f03f8 	ldr	r0, [pc, #1016]	; b7e4 <build_packet+0x4ec>
    b3e8:	e2846009 	add	r6, r4, #9
    b3ec:	e08f0000 	add	r0, pc, r0
    b3f0:	eb001b5b 	bl	12164 <tfp_printf>
    b3f4:	e59f03ec 	ldr	r0, [pc, #1004]	; b7e8 <build_packet+0x4f0>
    b3f8:	e5d41000 	ldrb	r1, [r4]
    b3fc:	e08f0000 	add	r0, pc, r0
    b400:	eb001b57 	bl	12164 <tfp_printf>
    b404:	e59f03e0 	ldr	r0, [pc, #992]	; b7ec <build_packet+0x4f4>
    b408:	e5d41001 	ldrb	r1, [r4, #1]
    b40c:	e08f0000 	add	r0, pc, r0
    b410:	eb001b53 	bl	12164 <tfp_printf>
    b414:	e59f03d4 	ldr	r0, [pc, #980]	; b7f0 <build_packet+0x4f8>
    b418:	e5d41002 	ldrb	r1, [r4, #2]
    b41c:	e08f0000 	add	r0, pc, r0
    b420:	eb001b4f 	bl	12164 <tfp_printf>
    b424:	e59f03c8 	ldr	r0, [pc, #968]	; b7f4 <build_packet+0x4fc>
    b428:	e08f0000 	add	r0, pc, r0
    b42c:	eb001b4c 	bl	12164 <tfp_printf>
    b430:	e59f03c0 	ldr	r0, [pc, #960]	; b7f8 <build_packet+0x500>
    b434:	e5941004 	ldr	r1, [r4, #4]
    b438:	e08f0000 	add	r0, pc, r0
    b43c:	eb001b48 	bl	12164 <tfp_printf>
    b440:	e59f03b4 	ldr	r0, [pc, #948]	; b7fc <build_packet+0x504>
    b444:	e5d41008 	ldrb	r1, [r4, #8]
    b448:	e08f0000 	add	r0, pc, r0
    b44c:	eb001b44 	bl	12164 <tfp_printf>
    b450:	e59f03a8 	ldr	r0, [pc, #936]	; b800 <build_packet+0x508>
    b454:	e08f0000 	add	r0, pc, r0
    b458:	eb001b41 	bl	12164 <tfp_printf>
    b45c:	e3a01008 	mov	r1, #8
    b460:	e1a00006 	mov	r0, r6
    b464:	ebfffea3 	bl	aef8 <log_hexdump>
    b468:	e59f0394 	ldr	r0, [pc, #916]	; b804 <build_packet+0x50c>
    b46c:	e5941014 	ldr	r1, [r4, #20]
    b470:	e08f0000 	add	r0, pc, r0
    b474:	eb001b3a 	bl	12164 <tfp_printf>
    b478:	e59f0388 	ldr	r0, [pc, #904]	; b808 <build_packet+0x510>
    b47c:	e5d41018 	ldrb	r1, [r4, #24]
    b480:	e08f0000 	add	r0, pc, r0
    b484:	eb001b36 	bl	12164 <tfp_printf>
    b488:	ebfff510 	bl	88d0 <iobuf_temp>
    b48c:	e5941004 	ldr	r1, [r4, #4]
    b490:	e1a08000 	mov	r8, r0
    b494:	e3510001 	cmp	r1, #1
    b498:	ca000026 	bgt	b538 <build_packet+0x240>
    b49c:	e3510000 	cmp	r1, #0
    b4a0:	aa000002 	bge	b4b0 <build_packet+0x1b8>
    b4a4:	e59f0360 	ldr	r0, [pc, #864]	; b80c <build_packet+0x514>
    b4a8:	e08f0000 	add	r0, pc, r0
    b4ac:	eb001b2c 	bl	12164 <tfp_printf>
    b4b0:	e5d41000 	ldrb	r1, [r4]
    b4b4:	e1a00008 	mov	r0, r8
    b4b8:	ebfff8f6 	bl	9898 <iobuf_writebyte>
    b4bc:	e5d41001 	ldrb	r1, [r4, #1]
    b4c0:	e1a00008 	mov	r0, r8
    b4c4:	ebfff8f3 	bl	9898 <iobuf_writebyte>
    b4c8:	e5d43000 	ldrb	r3, [r4]
    b4cc:	e3530005 	cmp	r3, #5
    b4d0:	0a0000bb 	beq	b7c4 <build_packet+0x4cc>
    b4d4:	e5941004 	ldr	r1, [r4, #4]
    b4d8:	e1a00008 	mov	r0, r8
    b4dc:	ebfff8ed 	bl	9898 <iobuf_writebyte>
    b4e0:	e5d41008 	ldrb	r1, [r4, #8]
    b4e4:	e1a00008 	mov	r0, r8
    b4e8:	ebfff8ea 	bl	9898 <iobuf_writebyte>
    b4ec:	e5943004 	ldr	r3, [r4, #4]
    b4f0:	e3c33002 	bic	r3, r3, #2
    b4f4:	e3530001 	cmp	r3, #1
    b4f8:	0a0000a6 	beq	b798 <build_packet+0x4a0>
    b4fc:	e5d42018 	ldrb	r2, [r4, #24]
    b500:	e3520000 	cmp	r2, #0
    b504:	1a00009f 	bne	b788 <build_packet+0x490>
    b508:	e598201c 	ldr	r2, [r8, #28]
    b50c:	e1a01007 	mov	r1, r7
    b510:	e1a00005 	mov	r0, r5
    b514:	ebfffed2 	bl	b064 <write_header2.constprop.0.isra.0>
    b518:	e1a01008 	mov	r1, r8
    b51c:	e1a00005 	mov	r0, r5
    b520:	ebfffbd8 	bl	a488 <iobuf_write_temp>
    b524:	e1a06000 	mov	r6, r0
    b528:	e1a00008 	mov	r0, r8
    b52c:	ebfff491 	bl	8778 <iobuf_close>
    b530:	e1a00006 	mov	r0, r6
    b534:	e8bd81f0 	pop	{r4, r5, r6, r7, r8, pc}
    b538:	e3510003 	cmp	r1, #3
    b53c:	0affffdb 	beq	b4b0 <build_packet+0x1b8>
    b540:	eaffffd7 	b	b4a4 <build_packet+0x1ac>
    b544:	e5964004 	ldr	r4, [r6, #4]
    b548:	e59f02c0 	ldr	r0, [pc, #704]	; b810 <build_packet+0x518>
    b54c:	e5941004 	ldr	r1, [r4, #4]
    b550:	e08f0000 	add	r0, pc, r0
    b554:	eb001b02 	bl	12164 <tfp_printf>
    b558:	e59f02b4 	ldr	r0, [pc, #692]	; b814 <build_packet+0x51c>
    b55c:	e08f0000 	add	r0, pc, r0
    b560:	eb001aff 	bl	12164 <tfp_printf>
    b564:	e59f02ac 	ldr	r0, [pc, #684]	; b818 <build_packet+0x520>
    b568:	e08f0000 	add	r0, pc, r0
    b56c:	eb001afc 	bl	12164 <tfp_printf>
    b570:	e5943014 	ldr	r3, [r4, #20]
    b574:	e5946000 	ldr	r6, [r4]
    b578:	e59f029c 	ldr	r0, [pc, #668]	; b81c <build_packet+0x524>
    b57c:	e35300ff 	cmp	r3, #255	; 0xff
    b580:	c3a030ff 	movgt	r3, #255	; 0xff
    b584:	c5843014 	strgt	r3, [r4, #20]
    b588:	e3560000 	cmp	r6, #0
    b58c:	e08f0000 	add	r0, pc, r0
    b590:	12866006 	addne	r6, r6, #6
    b594:	15943014 	ldrne	r3, [r4, #20]
    b598:	10866003 	addne	r6, r6, r3
    b59c:	e1a01006 	mov	r1, r6
    b5a0:	eb001aef 	bl	12164 <tfp_printf>
    b5a4:	e1a02006 	mov	r2, r6
    b5a8:	e1a01007 	mov	r1, r7
    b5ac:	e1a00005 	mov	r0, r5
    b5b0:	e2846018 	add	r6, r4, #24
    b5b4:	ebfffeaa 	bl	b064 <write_header2.constprop.0.isra.0>
    b5b8:	e59f0260 	ldr	r0, [pc, #608]	; b820 <build_packet+0x528>
    b5bc:	e1a01007 	mov	r1, r7
    b5c0:	e08f0000 	add	r0, pc, r0
    b5c4:	eb001ae6 	bl	12164 <tfp_printf>
    b5c8:	e59f0254 	ldr	r0, [pc, #596]	; b824 <build_packet+0x52c>
    b5cc:	e594100c 	ldr	r1, [r4, #12]
    b5d0:	e08f0000 	add	r0, pc, r0
    b5d4:	eb001ae2 	bl	12164 <tfp_printf>
    b5d8:	e59f0248 	ldr	r0, [pc, #584]	; b828 <build_packet+0x530>
    b5dc:	e594100c 	ldr	r1, [r4, #12]
    b5e0:	e08f0000 	add	r0, pc, r0
    b5e4:	eb001ade 	bl	12164 <tfp_printf>
    b5e8:	e594100c 	ldr	r1, [r4, #12]
    b5ec:	e1a00005 	mov	r0, r5
    b5f0:	ebfff8a8 	bl	9898 <iobuf_writebyte>
    b5f4:	e59f0230 	ldr	r0, [pc, #560]	; b82c <build_packet+0x534>
    b5f8:	e5941014 	ldr	r1, [r4, #20]
    b5fc:	e08f0000 	add	r0, pc, r0
    b600:	eb001ad7 	bl	12164 <tfp_printf>
    b604:	e5941014 	ldr	r1, [r4, #20]
    b608:	e1a00005 	mov	r0, r5
    b60c:	ebfff8a1 	bl	9898 <iobuf_writebyte>
    b610:	e59f0218 	ldr	r0, [pc, #536]	; b830 <build_packet+0x538>
    b614:	e1a02006 	mov	r2, r6
    b618:	e5941014 	ldr	r1, [r4, #20]
    b61c:	e08f0000 	add	r0, pc, r0
    b620:	eb001acf 	bl	12164 <tfp_printf>
    b624:	e5942014 	ldr	r2, [r4, #20]
    b628:	e1a01006 	mov	r1, r6
    b62c:	e1a00005 	mov	r0, r5
    b630:	ebfff8c3 	bl	9944 <iobuf_write>
    b634:	e59f01f8 	ldr	r0, [pc, #504]	; b834 <build_packet+0x53c>
    b638:	e3a01a03 	mov	r1, #12288	; 0x3000
    b63c:	e34610d8 	movt	r1, #24792	; 0x60d8
    b640:	e08f0000 	add	r0, pc, r0
    b644:	e5841010 	str	r1, [r4, #16]
    b648:	eb001ac5 	bl	12164 <tfp_printf>
    b64c:	e5946010 	ldr	r6, [r4, #16]
    b650:	e59f01e0 	ldr	r0, [pc, #480]	; b838 <build_packet+0x540>
    b654:	e1a01006 	mov	r1, r6
    b658:	e08f0000 	add	r0, pc, r0
    b65c:	eb001ac0 	bl	12164 <tfp_printf>
    b660:	e1a01c26 	lsr	r1, r6, #24
    b664:	e1a00005 	mov	r0, r5
    b668:	ebfff88a 	bl	9898 <iobuf_writebyte>
    b66c:	e1a01826 	lsr	r1, r6, #16
    b670:	e1a00005 	mov	r0, r5
    b674:	ebfff887 	bl	9898 <iobuf_writebyte>
    b678:	e1a01426 	lsr	r1, r6, #8
    b67c:	e1a00005 	mov	r0, r5
    b680:	ebfff884 	bl	9898 <iobuf_writebyte>
    b684:	e1a01006 	mov	r1, r6
    b688:	e1a00005 	mov	r0, r5
    b68c:	ebfff881 	bl	9898 <iobuf_writebyte>
    b690:	e1a06000 	mov	r6, r0
    b694:	e59f01a0 	ldr	r0, [pc, #416]	; b83c <build_packet+0x544>
    b698:	e1a01006 	mov	r1, r6
    b69c:	e08f0000 	add	r0, pc, r0
    b6a0:	eb001aaf 	bl	12164 <tfp_printf>
    b6a4:	e5943004 	ldr	r3, [r4, #4]
    b6a8:	e59f0190 	ldr	r0, [pc, #400]	; b840 <build_packet+0x548>
    b6ac:	e5931008 	ldr	r1, [r3, #8]
    b6b0:	e08f0000 	add	r0, pc, r0
    b6b4:	eb001aaa 	bl	12164 <tfp_printf>
    b6b8:	e3560000 	cmp	r6, #0
    b6bc:	1affff36 	bne	b39c <build_packet+0xa4>
    b6c0:	e5941004 	ldr	r1, [r4, #4]
    b6c4:	e3510000 	cmp	r1, #0
    b6c8:	0a000028 	beq	b770 <build_packet+0x478>
    b6cc:	e1a00005 	mov	r0, r5
    b6d0:	ebfffb2d 	bl	a38c <iobuf_copy>
    b6d4:	e1a08000 	mov	r8, r0
    b6d8:	e59f0164 	ldr	r0, [pc, #356]	; b844 <build_packet+0x54c>
    b6dc:	e1a01008 	mov	r1, r8
    b6e0:	e08f0000 	add	r0, pc, r0
    b6e4:	eb001a9e 	bl	12164 <tfp_printf>
    b6e8:	e5956028 	ldr	r6, [r5, #40]	; 0x28
    b6ec:	e3780001 	cmn	r8, #1
    b6f0:	1a000005 	bne	b70c <build_packet+0x414>
    b6f4:	e3560000 	cmp	r6, #0
    b6f8:	1affff27 	bne	b39c <build_packet+0xa4>
    b6fc:	e5943004 	ldr	r3, [r4, #4]
    b700:	e5936028 	ldr	r6, [r3, #40]	; 0x28
    b704:	e3560000 	cmp	r6, #0
    b708:	1affff23 	bne	b39c <build_packet+0xa4>
    b70c:	e59f0134 	ldr	r0, [pc, #308]	; b848 <build_packet+0x550>
    b710:	e2077040 	and	r7, r7, #64	; 0x40
    b714:	e1a01007 	mov	r1, r7
    b718:	e08f0000 	add	r0, pc, r0
    b71c:	eb001a90 	bl	12164 <tfp_printf>
    b720:	e5941000 	ldr	r1, [r4]
    b724:	e3570000 	cmp	r7, #0
    b728:	0a000007 	beq	b74c <build_packet+0x454>
    b72c:	e3510000 	cmp	r1, #0
    b730:	1a000005 	bne	b74c <build_packet+0x454>
    b734:	e1a00005 	mov	r0, r5
    b738:	ebfffc23 	bl	a7cc <iobuf_set_partial_body_length_mode>
    b73c:	e59f0108 	ldr	r0, [pc, #264]	; b84c <build_packet+0x554>
    b740:	e08f0000 	add	r0, pc, r0
    b744:	eb001a86 	bl	12164 <tfp_printf>
    b748:	e5941000 	ldr	r1, [r4]
    b74c:	e3510000 	cmp	r1, #0
    b750:	11580001 	cmpne	r8, r1
    b754:	13a01001 	movne	r1, #1
    b758:	03a01000 	moveq	r1, #0
    b75c:	e3560000 	cmp	r6, #0
    b760:	13a01000 	movne	r1, #0
    b764:	02011001 	andeq	r1, r1, #1
    b768:	e3510000 	cmp	r1, #0
    b76c:	13e06000 	mvnne	r6, #0
    b770:	e59f00d8 	ldr	r0, [pc, #216]	; b850 <build_packet+0x558>
    b774:	e1a01006 	mov	r1, r6
    b778:	e08f0000 	add	r0, pc, r0
    b77c:	eb001a78 	bl	12164 <tfp_printf>
    b780:	e1a00006 	mov	r0, r6
    b784:	e8bd81f0 	pop	{r4, r5, r6, r7, r8, pc}
    b788:	e2841019 	add	r1, r4, #25
    b78c:	e1a00008 	mov	r0, r8
    b790:	ebfff86b 	bl	9944 <iobuf_write>
    b794:	eaffff5b 	b	b508 <build_packet+0x210>
    b798:	e1a01006 	mov	r1, r6
    b79c:	e3a02008 	mov	r2, #8
    b7a0:	e1a00008 	mov	r0, r8
    b7a4:	ebfff866 	bl	9944 <iobuf_write>
    b7a8:	e5943004 	ldr	r3, [r4, #4]
    b7ac:	e3530003 	cmp	r3, #3
    b7b0:	1affff51 	bne	b4fc <build_packet+0x204>
    b7b4:	e5941014 	ldr	r1, [r4, #20]
    b7b8:	e1a00008 	mov	r0, r8
    b7bc:	ebfff835 	bl	9898 <iobuf_writebyte>
    b7c0:	eaffff4d 	b	b4fc <build_packet+0x204>
    b7c4:	e5d41002 	ldrb	r1, [r4, #2]
    b7c8:	e1a00008 	mov	r0, r8
    b7cc:	ebfff831 	bl	9898 <iobuf_writebyte>
    b7d0:	eaffff3f 	b	b4d4 <build_packet+0x1dc>
    b7d4:	0000b930 	.word	0x0000b930
    b7d8:	0000b90c 	.word	0x0000b90c
    b7dc:	0000bb24 	.word	0x0000bb24
    b7e0:	0000b8b0 	.word	0x0000b8b0
    b7e4:	0000b8b8 	.word	0x0000b8b8
    b7e8:	0000b8bc 	.word	0x0000b8bc
    b7ec:	0000b8bc 	.word	0x0000b8bc
    b7f0:	0000b8c0 	.word	0x0000b8c0
    b7f4:	0000b8c8 	.word	0x0000b8c8
    b7f8:	0000b8c0 	.word	0x0000b8c0
    b7fc:	0000b8c0 	.word	0x0000b8c0
    b800:	0000b8c8 	.word	0x0000b8c8
    b804:	0000b8b8 	.word	0x0000b8b8
    b808:	0000b8bc 	.word	0x0000b8bc
    b80c:	0000b8a8 	.word	0x0000b8a8
    b810:	0000b818 	.word	0x0000b818
    b814:	0000b828 	.word	0x0000b828
    b818:	0000b834 	.word	0x0000b834
    b81c:	0000b590 	.word	0x0000b590
    b820:	0000b7ec 	.word	0x0000b7ec
    b824:	0000b7e8 	.word	0x0000b7e8
    b828:	0000b7fc 	.word	0x0000b7fc
    b82c:	0000b7f4 	.word	0x0000b7f4
    b830:	0000b7ec 	.word	0x0000b7ec
    b834:	0000b7dc 	.word	0x0000b7dc
    b838:	0000b7dc 	.word	0x0000b7dc
    b83c:	0000b7a8 	.word	0x0000b7a8
    b840:	0000b79c 	.word	0x0000b79c
    b844:	0000b77c 	.word	0x0000b77c
    b848:	0000b490 	.word	0x0000b490
    b84c:	0000b738 	.word	0x0000b738
    b850:	0000b728 	.word	0x0000b728

0000b854 <print_iobuf_info2>:
    b854:	e92d41f0 	push	{r4, r5, r6, r7, r8, lr}
    b858:	e1a04000 	mov	r4, r0
    b85c:	e59f6118 	ldr	r6, [pc, #280]	; b97c <print_iobuf_info2+0x128>
    b860:	e59f5118 	ldr	r5, [pc, #280]	; b980 <print_iobuf_info2+0x12c>
    b864:	e59f7118 	ldr	r7, [pc, #280]	; b984 <print_iobuf_info2+0x130>
    b868:	e08f6006 	add	r6, pc, r6
    b86c:	e08f5005 	add	r5, pc, r5
    b870:	e08f7007 	add	r7, pc, r7
    b874:	ea000037 	b	b958 <print_iobuf_info2+0x104>
    b878:	e5d41000 	ldrb	r1, [r4]
    b87c:	eb001a38 	bl	12164 <tfp_printf>
    b880:	e5941004 	ldr	r1, [r4, #4]
    b884:	e1a00007 	mov	r0, r7
    b888:	eb001a35 	bl	12164 <tfp_printf>
    b88c:	e59f00f4 	ldr	r0, [pc, #244]	; b988 <print_iobuf_info2+0x134>
    b890:	e5941008 	ldr	r1, [r4, #8]
    b894:	e08f0000 	add	r0, pc, r0
    b898:	eb001a31 	bl	12164 <tfp_printf>
    b89c:	e59f00e8 	ldr	r0, [pc, #232]	; b98c <print_iobuf_info2+0x138>
    b8a0:	e594100c 	ldr	r1, [r4, #12]
    b8a4:	e08f0000 	add	r0, pc, r0
    b8a8:	eb001a2d 	bl	12164 <tfp_printf>
    b8ac:	e59f00dc 	ldr	r0, [pc, #220]	; b990 <print_iobuf_info2+0x13c>
    b8b0:	e5941010 	ldr	r1, [r4, #16]
    b8b4:	e08f0000 	add	r0, pc, r0
    b8b8:	eb001a29 	bl	12164 <tfp_printf>
    b8bc:	e59f00d0 	ldr	r0, [pc, #208]	; b994 <print_iobuf_info2+0x140>
    b8c0:	e5941014 	ldr	r1, [r4, #20]
    b8c4:	e08f0000 	add	r0, pc, r0
    b8c8:	eb001a25 	bl	12164 <tfp_printf>
    b8cc:	e59f00c4 	ldr	r0, [pc, #196]	; b998 <print_iobuf_info2+0x144>
    b8d0:	e5941018 	ldr	r1, [r4, #24]
    b8d4:	e08f0000 	add	r0, pc, r0
    b8d8:	eb001a21 	bl	12164 <tfp_printf>
    b8dc:	e59f00b8 	ldr	r0, [pc, #184]	; b99c <print_iobuf_info2+0x148>
    b8e0:	e594101c 	ldr	r1, [r4, #28]
    b8e4:	e08f0000 	add	r0, pc, r0
    b8e8:	eb001a1d 	bl	12164 <tfp_printf>
    b8ec:	e59f00ac 	ldr	r0, [pc, #172]	; b9a0 <print_iobuf_info2+0x14c>
    b8f0:	e5941024 	ldr	r1, [r4, #36]	; 0x24
    b8f4:	e08f0000 	add	r0, pc, r0
    b8f8:	eb001a19 	bl	12164 <tfp_printf>
    b8fc:	e59f00a0 	ldr	r0, [pc, #160]	; b9a4 <print_iobuf_info2+0x150>
    b900:	e5941028 	ldr	r1, [r4, #40]	; 0x28
    b904:	e08f0000 	add	r0, pc, r0
    b908:	eb001a15 	bl	12164 <tfp_printf>
    b90c:	e59f0094 	ldr	r0, [pc, #148]	; b9a8 <print_iobuf_info2+0x154>
    b910:	e5941034 	ldr	r1, [r4, #52]	; 0x34
    b914:	e08f0000 	add	r0, pc, r0
    b918:	eb001a11 	bl	12164 <tfp_printf>
    b91c:	e59f0088 	ldr	r0, [pc, #136]	; b9ac <print_iobuf_info2+0x158>
    b920:	e5941040 	ldr	r1, [r4, #64]	; 0x40
    b924:	e08f0000 	add	r0, pc, r0
    b928:	eb001a0d 	bl	12164 <tfp_printf>
    b92c:	e59f007c 	ldr	r0, [pc, #124]	; b9b0 <print_iobuf_info2+0x15c>
    b930:	e5941044 	ldr	r1, [r4, #68]	; 0x44
    b934:	e08f0000 	add	r0, pc, r0
    b938:	eb001a09 	bl	12164 <tfp_printf>
    b93c:	e594303c 	ldr	r3, [r4, #60]	; 0x3c
    b940:	e59f006c 	ldr	r0, [pc, #108]	; b9b4 <print_iobuf_info2+0x160>
    b944:	e3530000 	cmp	r3, #0
    b948:	e08f0000 	add	r0, pc, r0
    b94c:	08bd81f0 	popeq	{r4, r5, r6, r7, r8, pc}
    b950:	eb001a03 	bl	12164 <tfp_printf>
    b954:	e594403c 	ldr	r4, [r4, #60]	; 0x3c
    b958:	e1a00006 	mov	r0, r6
    b95c:	eb001a00 	bl	12164 <tfp_printf>
    b960:	e3540000 	cmp	r4, #0
    b964:	e1a00005 	mov	r0, r5
    b968:	1affffc2 	bne	b878 <print_iobuf_info2+0x24>
    b96c:	e59f0044 	ldr	r0, [pc, #68]	; b9b8 <print_iobuf_info2+0x164>
    b970:	e8bd41f0 	pop	{r4, r5, r6, r7, r8, lr}
    b974:	e08f0000 	add	r0, pc, r0
    b978:	ea0019f9 	b	12164 <tfp_printf>
    b97c:	0000b678 	.word	0x0000b678
    b980:	0000b698 	.word	0x0000b698
    b984:	0000b6a0 	.word	0x0000b6a0
    b988:	0000b68c 	.word	0x0000b68c
    b98c:	0000b68c 	.word	0x0000b68c
    b990:	0000b68c 	.word	0x0000b68c
    b994:	0000b68c 	.word	0x0000b68c
    b998:	0000b690 	.word	0x0000b690
    b99c:	0000b698 	.word	0x0000b698
    b9a0:	0000b6a0 	.word	0x0000b6a0
    b9a4:	0000b6a4 	.word	0x0000b6a4
    b9a8:	0000b6a4 	.word	0x0000b6a4
    b9ac:	0000b6a8 	.word	0x0000b6a8
    b9b0:	0000b6b0 	.word	0x0000b6b0
    b9b4:	0000b6b8 	.word	0x0000b6b8
    b9b8:	0000b580 	.word	0x0000b580

0000b9bc <_gcry_cipher_encrypt>:
    b9bc:	e92d41f0 	push	{r4, r5, r6, r7, r8, lr}
    b9c0:	e24dd008 	sub	sp, sp, #8
    b9c4:	e1a08000 	mov	r8, r0
    b9c8:	e1a04001 	mov	r4, r1
    b9cc:	e59d6020 	ldr	r6, [sp, #32]
    b9d0:	e1a07003 	mov	r7, r3
    b9d4:	e59f006c 	ldr	r0, [pc, #108]	; ba48 <_gcry_cipher_encrypt+0x8c>
    b9d8:	e1a05002 	mov	r5, r2
    b9dc:	e5983020 	ldr	r3, [r8, #32]
    b9e0:	e1a01006 	mov	r1, r6
    b9e4:	e08f0000 	add	r0, pc, r0
    b9e8:	eb0019dd 	bl	12164 <tfp_printf>
    b9ec:	e3570000 	cmp	r7, #0
    b9f0:	e1a00008 	mov	r0, r8
    b9f4:	01a06005 	moveq	r6, r5
    b9f8:	11a03007 	movne	r3, r7
    b9fc:	e58d6000 	str	r6, [sp]
    ba00:	01a03004 	moveq	r3, r4
    ba04:	e1a02005 	mov	r2, r5
    ba08:	e1a01004 	mov	r1, r4
    ba0c:	eb000bf7 	bl	e9f0 <_gcry_cipher_cfb_encrypt>
    ba10:	e3500000 	cmp	r0, #0
    ba14:	13540000 	cmpne	r4, #0
    ba18:	e1a06000 	mov	r6, r0
    ba1c:	1a000002 	bne	ba2c <_gcry_cipher_encrypt+0x70>
    ba20:	e1a00006 	mov	r0, r6
    ba24:	e28dd008 	add	sp, sp, #8
    ba28:	e8bd81f0 	pop	{r4, r5, r6, r7, r8, pc}
    ba2c:	e1a02005 	mov	r2, r5
    ba30:	e3a01042 	mov	r1, #66	; 0x42
    ba34:	e1a00004 	mov	r0, r4
    ba38:	eb0010c6 	bl	fd58 <memset>
    ba3c:	e1a00006 	mov	r0, r6
    ba40:	e28dd008 	add	sp, sp, #8
    ba44:	e8bd81f0 	pop	{r4, r5, r6, r7, r8, pc}
    ba48:	0000b628 	.word	0x0000b628

0000ba4c <cipher_filter_cfb>:
    ba4c:	e92d43f0 	push	{r4, r5, r6, r7, r8, r9, lr}
    ba50:	e1a05000 	mov	r5, r0
    ba54:	e59f0278 	ldr	r0, [pc, #632]	; bcd4 <cipher_filter_cfb+0x288>
    ba58:	e24dd044 	sub	sp, sp, #68	; 0x44
    ba5c:	e1a04001 	mov	r4, r1
    ba60:	e1a07002 	mov	r7, r2
    ba64:	e08f0000 	add	r0, pc, r0
    ba68:	e1a06003 	mov	r6, r3
    ba6c:	eb0019bc 	bl	12164 <tfp_printf>
    ba70:	e5d5200c 	ldrb	r2, [r5, #12]
    ba74:	e1a01004 	mov	r1, r4
    ba78:	e59f0258 	ldr	r0, [pc, #600]	; bcd8 <cipher_filter_cfb+0x28c>
    ba7c:	e59d3060 	ldr	r3, [sp, #96]	; 0x60
    ba80:	e2022001 	and	r2, r2, #1
    ba84:	e08f0000 	add	r0, pc, r0
    ba88:	e5938000 	ldr	r8, [r3]
    ba8c:	eb0019b4 	bl	12164 <tfp_printf>
    ba90:	e3540003 	cmp	r4, #3
    ba94:	0a00008c 	beq	bccc <cipher_filter_cfb+0x280>
    ba98:	e3540004 	cmp	r4, #4
    ba9c:	0a000009 	beq	bac8 <cipher_filter_cfb+0x7c>
    baa0:	e3540002 	cmp	r4, #2
    baa4:	13a04000 	movne	r4, #0
    baa8:	0a00007c 	beq	bca0 <cipher_filter_cfb+0x254>
    baac:	e59f0228 	ldr	r0, [pc, #552]	; bcdc <cipher_filter_cfb+0x290>
    bab0:	e1a01004 	mov	r1, r4
    bab4:	e08f0000 	add	r0, pc, r0
    bab8:	eb0019a9 	bl	12164 <tfp_printf>
    babc:	e1a00004 	mov	r0, r4
    bac0:	e28dd044 	add	sp, sp, #68	; 0x44
    bac4:	e8bd83f0 	pop	{r4, r5, r6, r7, r8, r9, pc}
    bac8:	e59f0210 	ldr	r0, [pc, #528]	; bce0 <cipher_filter_cfb+0x294>
    bacc:	e08f0000 	add	r0, pc, r0
    bad0:	eb0019a3 	bl	12164 <tfp_printf>
    bad4:	e5d5100c 	ldrb	r1, [r5, #12]
    bad8:	e2114001 	ands	r4, r1, #1
    badc:	0a000017 	beq	bb40 <cipher_filter_cfb+0xf4>
    bae0:	e59f01fc 	ldr	r0, [pc, #508]	; bce4 <cipher_filter_cfb+0x298>
    bae4:	e1a01008 	mov	r1, r8
    bae8:	e08f0000 	add	r0, pc, r0
    baec:	eb00199c 	bl	12164 <tfp_printf>
    baf0:	e3a03000 	mov	r3, #0
    baf4:	e1a02008 	mov	r2, r8
    baf8:	e58d3000 	str	r3, [sp]
    bafc:	e1a01006 	mov	r1, r6
    bb00:	e5950008 	ldr	r0, [r5, #8]
    bb04:	ebffffac 	bl	b9bc <_gcry_cipher_encrypt>
    bb08:	e5d5300c 	ldrb	r3, [r5, #12]
    bb0c:	e5951010 	ldr	r1, [r5, #16]
    bb10:	e59f01d0 	ldr	r0, [pc, #464]	; bce8 <cipher_filter_cfb+0x29c>
    bb14:	e3130002 	tst	r3, #2
    bb18:	10881001 	addne	r1, r8, r1
    bb1c:	15851010 	strne	r1, [r5, #16]
    bb20:	e08f0000 	add	r0, pc, r0
    bb24:	eb00198e 	bl	12164 <tfp_printf>
    bb28:	e1a02008 	mov	r2, r8
    bb2c:	e1a01006 	mov	r1, r6
    bb30:	e1a00007 	mov	r0, r7
    bb34:	ebfff782 	bl	9944 <iobuf_write>
    bb38:	e1a04000 	mov	r4, r0
    bb3c:	eaffffda 	b	baac <cipher_filter_cfb+0x60>
    bb40:	e59f01a4 	ldr	r0, [pc, #420]	; bcec <cipher_filter_cfb+0x2a0>
    bb44:	e28d902c 	add	r9, sp, #44	; 0x2c
    bb48:	e08f0000 	add	r0, pc, r0
    bb4c:	eb001984 	bl	12164 <tfp_printf>
    bb50:	e3a02014 	mov	r2, #20
    bb54:	e1a01004 	mov	r1, r4
    bb58:	e1a00009 	mov	r0, r9
    bb5c:	eb00107d 	bl	fd58 <memset>
    bb60:	e5953004 	ldr	r3, [r5, #4]
    bb64:	e59f0184 	ldr	r0, [pc, #388]	; bcf0 <cipher_filter_cfb+0x2a4>
    bb68:	e58d302c 	str	r3, [sp, #44]	; 0x2c
    bb6c:	e16f3f13 	clz	r3, r3
    bb70:	e08f0000 	add	r0, pc, r0
    bb74:	e1a032a3 	lsr	r3, r3, #5
    bb78:	e5cd3034 	strb	r3, [sp, #52]	; 0x34
    bb7c:	e5953000 	ldr	r3, [r5]
    bb80:	e5cd4008 	strb	r4, [sp, #8]
    bb84:	e5d31008 	ldrb	r1, [r3, #8]
    bb88:	e3a0300a 	mov	r3, #10
    bb8c:	e58d3030 	str	r3, [sp, #48]	; 0x30
    bb90:	e7e012d1 	ubfx	r1, r1, #5, #1
    bb94:	e58d400c 	str	r4, [sp, #12]
    bb98:	eb001971 	bl	12164 <tfp_printf>
    bb9c:	e58d900c 	str	r9, [sp, #12]
    bba0:	e3a03009 	mov	r3, #9
    bba4:	e5cd3008 	strb	r3, [sp, #8]
    bba8:	e28d1008 	add	r1, sp, #8
    bbac:	e1a00007 	mov	r0, r7
    bbb0:	ebfffdd0 	bl	b2f8 <build_packet>
    bbb4:	e3500000 	cmp	r0, #0
    bbb8:	1a00003f 	bne	bcbc <cipher_filter_cfb+0x270>
    bbbc:	e59f0130 	ldr	r0, [pc, #304]	; bcf4 <cipher_filter_cfb+0x2a8>
    bbc0:	e3a01008 	mov	r1, #8
    bbc4:	e28d4018 	add	r4, sp, #24
    bbc8:	e08f0000 	add	r0, pc, r0
    bbcc:	eb001964 	bl	12164 <tfp_printf>
    bbd0:	e59f3120 	ldr	r3, [pc, #288]	; bcf8 <cipher_filter_cfb+0x2ac>
    bbd4:	e3a02008 	mov	r2, #8
    bbd8:	e08f3003 	add	r3, pc, r3
    bbdc:	e8930003 	ldm	r3, {r0, r1}
    bbe0:	e28d3010 	add	r3, sp, #16
    bbe4:	e8830003 	stm	r3, {r0, r1}
    bbe8:	e1a01003 	mov	r1, r3
    bbec:	e1a00004 	mov	r0, r4
    bbf0:	eb00108f 	bl	fe34 <memcpy>
    bbf4:	e5dd201e 	ldrb	r2, [sp, #30]
    bbf8:	e5953000 	ldr	r3, [r5]
    bbfc:	e5cd2020 	strb	r2, [sp, #32]
    bc00:	e5dd201f 	ldrb	r2, [sp, #31]
    bc04:	e2831009 	add	r1, r3, #9
    bc08:	e5950008 	ldr	r0, [r5, #8]
    bc0c:	e5cd2021 	strb	r2, [sp, #33]	; 0x21
    bc10:	e5932004 	ldr	r2, [r3, #4]
    bc14:	eb000933 	bl	e0e8 <_gcry_cipher_setkey>
    bc18:	e5950008 	ldr	r0, [r5, #8]
    bc1c:	e3a01010 	mov	r1, #16
    bc20:	e2800030 	add	r0, r0, #48	; 0x30
    bc24:	ebfffcb3 	bl	aef8 <log_hexdump>
    bc28:	e5950008 	ldr	r0, [r5, #8]
    bc2c:	e3a02008 	mov	r2, #8
    bc30:	e3a01000 	mov	r1, #0
    bc34:	eb00093f 	bl	e138 <_gcry_cipher_setiv>
    bc38:	e5950008 	ldr	r0, [r5, #8]
    bc3c:	e3a01008 	mov	r1, #8
    bc40:	ebfffcac 	bl	aef8 <log_hexdump>
    bc44:	e59f00b0 	ldr	r0, [pc, #176]	; bcfc <cipher_filter_cfb+0x2b0>
    bc48:	e3a0100a 	mov	r1, #10
    bc4c:	e08f0000 	add	r0, pc, r0
    bc50:	eb001943 	bl	12164 <tfp_printf>
    bc54:	e3a03000 	mov	r3, #0
    bc58:	e3a0200a 	mov	r2, #10
    bc5c:	e58d3000 	str	r3, [sp]
    bc60:	e1a01004 	mov	r1, r4
    bc64:	e5950008 	ldr	r0, [r5, #8]
    bc68:	ebffff53 	bl	b9bc <_gcry_cipher_encrypt>
    bc6c:	e5950008 	ldr	r0, [r5, #8]
    bc70:	eb00093b 	bl	e164 <cipher_sync>
    bc74:	e1a01004 	mov	r1, r4
    bc78:	e3a0200a 	mov	r2, #10
    bc7c:	e1a00007 	mov	r0, r7
    bc80:	ebfff72f 	bl	9944 <iobuf_write>
    bc84:	e3a0300a 	mov	r3, #10
    bc88:	e5853010 	str	r3, [r5, #16]
    bc8c:	e5d5300c 	ldrb	r3, [r5, #12]
    bc90:	e3c33003 	bic	r3, r3, #3
    bc94:	e3833003 	orr	r3, r3, #3
    bc98:	e5c5300c 	strb	r3, [r5, #12]
    bc9c:	eaffff8f 	b	bae0 <cipher_filter_cfb+0x94>
    bca0:	e59f0058 	ldr	r0, [pc, #88]	; bd00 <cipher_filter_cfb+0x2b4>
    bca4:	e3a04000 	mov	r4, #0
    bca8:	e08f0000 	add	r0, pc, r0
    bcac:	eb00192c 	bl	12164 <tfp_printf>
    bcb0:	e5950008 	ldr	r0, [r5, #8]
    bcb4:	eb00091c 	bl	e12c <_gcry_cipher_close>
    bcb8:	eaffff7b 	b	baac <cipher_filter_cfb+0x60>
    bcbc:	e59f0040 	ldr	r0, [pc, #64]	; bd04 <cipher_filter_cfb+0x2b8>
    bcc0:	e08f0000 	add	r0, pc, r0
    bcc4:	eb001926 	bl	12164 <tfp_printf>
    bcc8:	eaffffbb 	b	bbbc <cipher_filter_cfb+0x170>
    bccc:	e3e04000 	mvn	r4, #0
    bcd0:	eaffff75 	b	baac <cipher_filter_cfb+0x60>
    bcd4:	0000b5e4 	.word	0x0000b5e4
    bcd8:	0000b5d8 	.word	0x0000b5d8
    bcdc:	0000b688 	.word	0x0000b688
    bce0:	0000b5ac 	.word	0x0000b5ac
    bce4:	0000b614 	.word	0x0000b614
    bce8:	0000b5f4 	.word	0x0000b5f4
    bcec:	0000b544 	.word	0x0000b544
    bcf0:	0000b530 	.word	0x0000b530
    bcf4:	0000b504 	.word	0x0000b504
    bcf8:	0000b584 	.word	0x0000b584
    bcfc:	0000b498 	.word	0x0000b498
    bd00:	0000b484 	.word	0x0000b484
    bd04:	0000b3ec 	.word	0x0000b3ec

0000bd08 <decrypt_memory>:
    bd08:	e92d43f0 	push	{r4, r5, r6, r7, r8, r9, lr}
    bd0c:	e1a07000 	mov	r7, r0
    bd10:	e59f00fc 	ldr	r0, [pc, #252]	; be14 <decrypt_memory+0x10c>
    bd14:	e24dd014 	sub	sp, sp, #20
    bd18:	e59f80f8 	ldr	r8, [pc, #248]	; be18 <decrypt_memory+0x110>
    bd1c:	e1a05002 	mov	r5, r2
    bd20:	e08f0000 	add	r0, pc, r0
    bd24:	e1a06001 	mov	r6, r1
    bd28:	e08f8008 	add	r8, pc, r8
    bd2c:	eb00190c 	bl	12164 <tfp_printf>
    bd30:	e5875020 	str	r5, [r7, #32]
    bd34:	e1a00006 	mov	r0, r6
    bd38:	e3a04000 	mov	r4, #0
    bd3c:	e1a01005 	mov	r1, r5
    bd40:	e58d400c 	str	r4, [sp, #12]
    bd44:	ebfff2e4 	bl	88dc <iobuf_temp_with_content>
    bd48:	e2506000 	subs	r6, r0, #0
    bd4c:	0a00002e 	beq	be0c <decrypt_memory+0x104>
    bd50:	e59f50c4 	ldr	r5, [pc, #196]	; be1c <decrypt_memory+0x114>
    bd54:	e1a01004 	mov	r1, r4
    bd58:	e1a00004 	mov	r0, r4
    bd5c:	e08f5005 	add	r5, pc, r5
    bd60:	ebfffb3a 	bl	aa50 <translate_file_handle>
    bd64:	e1a01005 	mov	r1, r5
    bd68:	ebfff424 	bl	8e00 <iobuf_fdopen>
    bd6c:	e1a01005 	mov	r1, r5
    bd70:	e1a00004 	mov	r0, r4
    bd74:	ebfff1a9 	bl	8420 <fd_cache_open>
    bd78:	e1a09000 	mov	r9, r0
    bd7c:	e1a00004 	mov	r0, r4
    bd80:	eb000c33 	bl	ee54 <strlen>
    bd84:	e2800038 	add	r0, r0, #56	; 0x38
    bd88:	eb000ffb 	bl	fd7c <xmalloc>
    bd8c:	e5804010 	str	r4, [r0, #16]
    bd90:	e1a05000 	mov	r5, r0
    bd94:	e5809000 	str	r9, [r0]
    bd98:	e1a01004 	mov	r1, r4
    bd9c:	e2800036 	add	r0, r0, #54	; 0x36
    bda0:	eb00106a 	bl	ff50 <strcpy>
    bda4:	e1a00004 	mov	r0, r4
    bda8:	eb0010c0 	bl	100b0 <xstrdup>
    bdac:	e59f306c 	ldr	r3, [pc, #108]	; be20 <decrypt_memory+0x118>
    bdb0:	e3a01001 	mov	r1, #1
    bdb4:	e5860038 	str	r0, [r6, #56]	; 0x38
    bdb8:	e1a02004 	mov	r2, r4
    bdbc:	e7983003 	ldr	r3, [r8, r3]
    bdc0:	e1a00005 	mov	r0, r5
    bdc4:	e586302c 	str	r3, [r6, #44]	; 0x2c
    bdc8:	e28d300c 	add	r3, sp, #12
    bdcc:	e5851008 	str	r1, [r5, #8]
    bdd0:	e5865030 	str	r5, [r6, #48]	; 0x30
    bdd4:	e58d3000 	str	r3, [sp]
    bdd8:	e1a03004 	mov	r3, r4
    bddc:	ebfff0bb 	bl	80d0 <file_filter>
    bde0:	e1a01004 	mov	r1, r4
    bde4:	e1a02006 	mov	r2, r6
    bde8:	e1a00007 	mov	r0, r7
    bdec:	eb000f5b 	bl	fb60 <proc_encryption_packets>
    bdf0:	e1a04000 	mov	r4, r0
    bdf4:	e59f0028 	ldr	r0, [pc, #40]	; be24 <decrypt_memory+0x11c>
    bdf8:	e08f0000 	add	r0, pc, r0
    bdfc:	eb0018d8 	bl	12164 <tfp_printf>
    be00:	e1a00004 	mov	r0, r4
    be04:	e28dd014 	add	sp, sp, #20
    be08:	e8bd83f0 	pop	{r4, r5, r6, r7, r8, r9, pc}
    be0c:	e3e04000 	mvn	r4, #0
    be10:	eafffffa 	b	be00 <decrypt_memory+0xf8>
    be14:	0000b448 	.word	0x0000b448
    be18:	0002fdfc 	.word	0x0002fdfc
    be1c:	0000a4ac 	.word	0x0000a4ac
    be20:	00000048 	.word	0x00000048
    be24:	0000b380 	.word	0x0000b380

0000be28 <decrypt_message>:
    be28:	e92d4070 	push	{r4, r5, r6, lr}
    be2c:	e1a05000 	mov	r5, r0
    be30:	e59f0070 	ldr	r0, [pc, #112]	; bea8 <decrypt_message+0x80>
    be34:	e1a04001 	mov	r4, r1
    be38:	e59f606c 	ldr	r6, [pc, #108]	; beac <decrypt_message+0x84>
    be3c:	e08f0000 	add	r0, pc, r0
    be40:	e08f6006 	add	r6, pc, r6
    be44:	eb0018c6 	bl	12164 <tfp_printf>
    be48:	e1a00004 	mov	r0, r4
    be4c:	ebfff2be 	bl	894c <iobuf_open>
    be50:	e1a04000 	mov	r4, r0
    be54:	ebfff9b8 	bl	a53c <iobuf_get_fd>
    be58:	e3540000 	cmp	r4, #0
    be5c:	0a00000f 	beq	bea0 <decrypt_message+0x78>
    be60:	e59f3048 	ldr	r3, [pc, #72]	; beb0 <decrypt_message+0x88>
    be64:	e59f0048 	ldr	r0, [pc, #72]	; beb4 <decrypt_message+0x8c>
    be68:	e7963003 	ldr	r3, [r6, r3]
    be6c:	e08f0000 	add	r0, pc, r0
    be70:	e5931010 	ldr	r1, [r3, #16]
    be74:	eb0018ba 	bl	12164 <tfp_printf>
    be78:	e1a02004 	mov	r2, r4
    be7c:	e3a01000 	mov	r1, #0
    be80:	e1a00005 	mov	r0, r5
    be84:	eb000f35 	bl	fb60 <proc_encryption_packets>
    be88:	e1a03000 	mov	r3, r0
    be8c:	e1a00004 	mov	r0, r4
    be90:	e1a04003 	mov	r4, r3
    be94:	ebfff237 	bl	8778 <iobuf_close>
    be98:	e1a00004 	mov	r0, r4
    be9c:	e8bd8070 	pop	{r4, r5, r6, pc}
    bea0:	e3e04000 	mvn	r4, #0
    bea4:	eafffffb 	b	be98 <decrypt_message+0x70>
    bea8:	0000b354 	.word	0x0000b354
    beac:	0002fce4 	.word	0x0002fce4
    beb0:	0000002c 	.word	0x0000002c
    beb4:	0000b344 	.word	0x0000b344

0000beb8 <release_dfx_context>:
    beb8:	e92d4070 	push	{r4, r5, r6, lr}
    bebc:	e2504000 	subs	r4, r0, #0
    bec0:	08bd8070 	popeq	{r4, r5, r6, pc}
    bec4:	e5940000 	ldr	r0, [r4]
    bec8:	eb0018a5 	bl	12164 <tfp_printf>
    becc:	e5945000 	ldr	r5, [r4]
    bed0:	e2455001 	sub	r5, r5, #1
    bed4:	e5845000 	str	r5, [r4]
    bed8:	e3550000 	cmp	r5, #0
    bedc:	18bd8070 	popne	{r4, r5, r6, pc}
    bee0:	e5940004 	ldr	r0, [r4, #4]
    bee4:	eb000f98 	bl	fd4c <xfree>
    bee8:	e5940008 	ldr	r0, [r4, #8]
    beec:	e5845004 	str	r5, [r4, #4]
    bef0:	eb000f95 	bl	fd4c <xfree>
    bef4:	e5845008 	str	r5, [r4, #8]
    bef8:	e1a00004 	mov	r0, r4
    befc:	e8bd4070 	pop	{r4, r5, r6, lr}
    bf00:	ea000f91 	b	fd4c <xfree>

0000bf04 <decode_filter>:
    bf04:	e92d47f0 	push	{r4, r5, r6, r7, r8, r9, sl, lr}
    bf08:	e24dd008 	sub	sp, sp, #8
    bf0c:	e1a05000 	mov	r5, r0
    bf10:	e1a04001 	mov	r4, r1
    bf14:	e59d9028 	ldr	r9, [sp, #40]	; 0x28
    bf18:	e1a07002 	mov	r7, r2
    bf1c:	e59f01e4 	ldr	r0, [pc, #484]	; c108 <decode_filter+0x204>
    bf20:	e1a06003 	mov	r6, r3
    bf24:	e5992000 	ldr	r2, [r9]
    bf28:	e08f0000 	add	r0, pc, r0
    bf2c:	e5953078 	ldr	r3, [r5, #120]	; 0x78
    bf30:	eb00188b 	bl	12164 <tfp_printf>
    bf34:	e3540003 	cmp	r4, #3
    bf38:	0a000004 	beq	bf50 <decode_filter+0x4c>
    bf3c:	e3540002 	cmp	r4, #2
    bf40:	13a00000 	movne	r0, #0
    bf44:	0a000046 	beq	c064 <decode_filter+0x160>
    bf48:	e28dd008 	add	sp, sp, #8
    bf4c:	e8bd87f0 	pop	{r4, r5, r6, r7, r8, r9, sl, pc}
    bf50:	e5d54050 	ldrb	r4, [r5, #80]	; 0x50
    bf54:	e214a006 	ands	sl, r4, #6
    bf58:	1a000063 	bne	c0ec <decode_filter+0x1e8>
    bf5c:	e59f01a8 	ldr	r0, [pc, #424]	; c10c <decode_filter+0x208>
    bf60:	e5998000 	ldr	r8, [r9]
    bf64:	e08f0000 	add	r0, pc, r0
    bf68:	eb00187d 	bl	12164 <tfp_printf>
    bf6c:	e59f019c 	ldr	r0, [pc, #412]	; c110 <decode_filter+0x20c>
    bf70:	e08f0000 	add	r0, pc, r0
    bf74:	eb00187a 	bl	12164 <tfp_printf>
    bf78:	e5d53050 	ldrb	r3, [r5, #80]	; 0x50
    bf7c:	e2134001 	ands	r4, r3, #1
    bf80:	1a000024 	bne	c018 <decode_filter+0x114>
    bf84:	e3580000 	cmp	r8, #0
    bf88:	0a000050 	beq	c0d0 <decode_filter+0x1cc>
    bf8c:	e595c078 	ldr	ip, [r5, #120]	; 0x78
    bf90:	ea00000b 	b	bfc4 <decode_filter+0xc0>
    bf94:	e152000c 	cmp	r2, ip
    bf98:	e1a00007 	mov	r0, r7
    bf9c:	21a0200c 	movcs	r2, ip
    bfa0:	ebfff5cb 	bl	96d4 <iobuf_read>
    bfa4:	e3700001 	cmn	r0, #1
    bfa8:	0a000041 	beq	c0b4 <decode_filter+0x1b0>
    bfac:	e595c078 	ldr	ip, [r5, #120]	; 0x78
    bfb0:	e0844000 	add	r4, r4, r0
    bfb4:	e1580004 	cmp	r8, r4
    bfb8:	e04cc000 	sub	ip, ip, r0
    bfbc:	e585c078 	str	ip, [r5, #120]	; 0x78
    bfc0:	9a00003f 	bls	c0c4 <decode_filter+0x1c0>
    bfc4:	e0482004 	sub	r2, r8, r4
    bfc8:	e35c0000 	cmp	ip, #0
    bfcc:	e0861004 	add	r1, r6, r4
    bfd0:	1affffef 	bne	bf94 <decode_filter+0x90>
    bfd4:	e5d53050 	ldrb	r3, [r5, #80]	; 0x50
    bfd8:	e3a02001 	mov	r2, #1
    bfdc:	e7c23092 	bfi	r3, r2, #1, #2
    bfe0:	e5c53050 	strb	r3, [r5, #80]	; 0x50
    bfe4:	e3540000 	cmp	r4, #0
    bfe8:	1a000022 	bne	c078 <decode_filter+0x174>
    bfec:	e5d53050 	ldrb	r3, [r5, #80]	; 0x50
    bff0:	e2134006 	ands	r4, r3, #6
    bff4:	e3e00000 	mvn	r0, #0
    bff8:	03a02001 	moveq	r2, #1
    bffc:	13a04000 	movne	r4, #0
    c000:	05d53050 	ldrbeq	r3, [r5, #80]	; 0x50
    c004:	07c23092 	bfieq	r3, r2, #1, #2
    c008:	05c53050 	strbeq	r3, [r5, #80]	; 0x50
    c00c:	e5894000 	str	r4, [r9]
    c010:	e28dd008 	add	sp, sp, #8
    c014:	e8bd87f0 	pop	{r4, r5, r6, r7, r8, r9, sl, pc}
    c018:	e59f00f4 	ldr	r0, [pc, #244]	; c114 <decode_filter+0x210>
    c01c:	e1a02008 	mov	r2, r8
    c020:	e1a0100a 	mov	r1, sl
    c024:	e08f0000 	add	r0, pc, r0
    c028:	eb00184d 	bl	12164 <tfp_printf>
    c02c:	e3580000 	cmp	r8, #0
    c030:	11a0400a 	movne	r4, sl
    c034:	1a000003 	bne	c048 <decode_filter+0x144>
    c038:	eaffffeb 	b	bfec <decode_filter+0xe8>
    c03c:	e0844000 	add	r4, r4, r0
    c040:	e1580004 	cmp	r8, r4
    c044:	9a00000b 	bls	c078 <decode_filter+0x174>
    c048:	e0482004 	sub	r2, r8, r4
    c04c:	e1a00007 	mov	r0, r7
    c050:	e0861004 	add	r1, r6, r4
    c054:	ebfff59e 	bl	96d4 <iobuf_read>
    c058:	e3700001 	cmn	r0, #1
    c05c:	1afffff6 	bne	c03c <decode_filter+0x138>
    c060:	eaffffdb 	b	bfd4 <decode_filter+0xd0>
    c064:	e1a00005 	mov	r0, r5
    c068:	ebffff92 	bl	beb8 <release_dfx_context>
    c06c:	e3a00000 	mov	r0, #0
    c070:	e28dd008 	add	sp, sp, #8
    c074:	e8bd87f0 	pop	{r4, r5, r6, r7, r8, r9, sl, pc}
    c078:	e5950004 	ldr	r0, [r5, #4]
    c07c:	e3500000 	cmp	r0, #0
    c080:	0a000003 	beq	c094 <decode_filter+0x190>
    c084:	e59f008c 	ldr	r0, [pc, #140]	; c118 <decode_filter+0x214>
    c088:	e08f0000 	add	r0, pc, r0
    c08c:	eb001834 	bl	12164 <tfp_printf>
    c090:	e5950004 	ldr	r0, [r5, #4]
    c094:	e3a05000 	mov	r5, #0
    c098:	e1a01006 	mov	r1, r6
    c09c:	e58d5000 	str	r5, [sp]
    c0a0:	e1a03005 	mov	r3, r5
    c0a4:	e1a02004 	mov	r2, r4
    c0a8:	eb000a25 	bl	e944 <_gcry_cipher_decrypt>
    c0ac:	e1a00005 	mov	r0, r5
    c0b0:	eaffffd5 	b	c00c <decode_filter+0x108>
    c0b4:	e5d53050 	ldrb	r3, [r5, #80]	; 0x50
    c0b8:	e595c078 	ldr	ip, [r5, #120]	; 0x78
    c0bc:	e3833006 	orr	r3, r3, #6
    c0c0:	e5c53050 	strb	r3, [r5, #80]	; 0x50
    c0c4:	e35c0000 	cmp	ip, #0
    c0c8:	1affffc5 	bne	bfe4 <decode_filter+0xe0>
    c0cc:	eaffffc0 	b	bfd4 <decode_filter+0xd0>
    c0d0:	e5952078 	ldr	r2, [r5, #120]	; 0x78
    c0d4:	e3520000 	cmp	r2, #0
    c0d8:	03a02001 	moveq	r2, #1
    c0dc:	07c23092 	bfieq	r3, r2, #1, #2
    c0e0:	05c53050 	strbeq	r3, [r5, #80]	; 0x50
    c0e4:	06ef3073 	uxtbeq	r3, r3
    c0e8:	eaffffc0 	b	bff0 <decode_filter+0xec>
    c0ec:	e59f0028 	ldr	r0, [pc, #40]	; c11c <decode_filter+0x218>
    c0f0:	e08f0000 	add	r0, pc, r0
    c0f4:	eb00181a 	bl	12164 <tfp_printf>
    c0f8:	e3a03000 	mov	r3, #0
    c0fc:	e3e00000 	mvn	r0, #0
    c100:	e5893000 	str	r3, [r9]
    c104:	eaffff8f 	b	bf48 <decode_filter+0x44>
    c108:	0000b298 	.word	0x0000b298
    c10c:	0000b2b4 	.word	0x0000b2b4
    c110:	0000b2c8 	.word	0x0000b2c8
    c114:	0000b224 	.word	0x0000b224
    c118:	0000b1e4 	.word	0x0000b1e4
    c11c:	0000b100 	.word	0x0000b100

0000c120 <decrypt_data>:
    c120:	e92d47f0 	push	{r4, r5, r6, r7, r8, r9, sl, lr}
    c124:	e24dd030 	sub	sp, sp, #48	; 0x30
    c128:	e1a07000 	mov	r7, r0
    c12c:	e3a06000 	mov	r6, #0
    c130:	e59f033c 	ldr	r0, [pc, #828]	; c474 <decrypt_data+0x354>
    c134:	e1a08001 	mov	r8, r1
    c138:	e59d9050 	ldr	r9, [sp, #80]	; 0x50
    c13c:	e1a04002 	mov	r4, r2
    c140:	e08f0000 	add	r0, pc, r0
    c144:	e1a05003 	mov	r5, r3
    c148:	eb001805 	bl	12164 <tfp_printf>
    c14c:	e5896000 	str	r6, [r9]
    c150:	e3a01080 	mov	r1, #128	; 0x80
    c154:	e3a00001 	mov	r0, #1
    c158:	eb000f82 	bl	ff68 <xtrycalloc>
    c15c:	e1500006 	cmp	r0, r6
    c160:	e58d000c 	str	r0, [sp, #12]
    c164:	0a0000c0 	beq	c46c <decrypt_data+0x34c>
    c168:	e5901078 	ldr	r1, [r0, #120]	; 0x78
    c16c:	e3a03001 	mov	r3, #1
    c170:	e5803000 	str	r3, [r0]
    c174:	e59f02fc 	ldr	r0, [pc, #764]	; c478 <decrypt_data+0x358>
    c178:	e08f0000 	add	r0, pc, r0
    c17c:	eb0017f8 	bl	12164 <tfp_printf>
    c180:	e59f12f4 	ldr	r1, [pc, #756]	; c47c <decrypt_data+0x35c>
    c184:	e3a00017 	mov	r0, #23
    c188:	e58d6000 	str	r6, [sp]
    c18c:	e08f1001 	add	r1, pc, r1
    c190:	e5953000 	ldr	r3, [r5]
    c194:	e5d4200a 	ldrb	r2, [r4, #10]
    c198:	eb0017f1 	bl	12164 <tfp_printf>
    c19c:	e5d4900b 	ldrb	r9, [r4, #11]
    c1a0:	e3590000 	cmp	r9, #0
    c1a4:	1a000059 	bne	c310 <decrypt_data+0x1f0>
    c1a8:	e5943000 	ldr	r3, [r4]
    c1ac:	e2433001 	sub	r3, r3, #1
    c1b0:	e3530008 	cmp	r3, #8
    c1b4:	9a000084 	bls	c3cc <decrypt_data+0x2ac>
    c1b8:	e3a02004 	mov	r2, #4
    c1bc:	e1a01009 	mov	r1, r9
    c1c0:	e28d000c 	add	r0, sp, #12
    c1c4:	eb000ee3 	bl	fd58 <memset>
    c1c8:	e59d600c 	ldr	r6, [sp, #12]
    c1cc:	e3a00040 	mov	r0, #64	; 0x40
    c1d0:	eb000e7c 	bl	fbc8 <malloc>
    c1d4:	e59d300c 	ldr	r3, [sp, #12]
    c1d8:	e5860004 	str	r0, [r6, #4]
    c1dc:	e5930004 	ldr	r0, [r3, #4]
    c1e0:	e3500000 	cmp	r0, #0
    c1e4:	0a0000a0 	beq	c46c <decrypt_data+0x34c>
    c1e8:	e3a02040 	mov	r2, #64	; 0x40
    c1ec:	e1a01009 	mov	r1, r9
    c1f0:	eb000ed8 	bl	fd58 <memset>
    c1f4:	e59d300c 	ldr	r3, [sp, #12]
    c1f8:	e2851009 	add	r1, r5, #9
    c1fc:	e5952004 	ldr	r2, [r5, #4]
    c200:	e5930004 	ldr	r0, [r3, #4]
    c204:	eb0007b7 	bl	e0e8 <_gcry_cipher_setkey>
    c208:	e5943010 	ldr	r3, [r4, #16]
    c20c:	e1a06000 	mov	r6, r0
    c210:	e3530000 	cmp	r3, #0
    c214:	0a000065 	beq	c3b0 <decrypt_data+0x290>
    c218:	e59d300c 	ldr	r3, [sp, #12]
    c21c:	e1a01009 	mov	r1, r9
    c220:	e3a02008 	mov	r2, #8
    c224:	e5930004 	ldr	r0, [r3, #4]
    c228:	eb0007c2 	bl	e138 <_gcry_cipher_setiv>
    c22c:	e5941000 	ldr	r1, [r4]
    c230:	e3510000 	cmp	r1, #0
    c234:	028da00f 	addeq	sl, sp, #15
    c238:	028d9019 	addeq	r9, sp, #25
    c23c:	0a000009 	beq	c268 <decrypt_data+0x148>
    c240:	ea000065 	b	c3dc <decrypt_data+0x2bc>
    c244:	e5821018 	str	r1, [r2, #24]
    c248:	e5921008 	ldr	r1, [r2, #8]
    c24c:	e5920020 	ldr	r0, [r2, #32]
    c250:	e2811001 	add	r1, r1, #1
    c254:	e5821008 	str	r1, [r2, #8]
    c258:	e7d00003 	ldrb	r0, [r0, r3]
    c25c:	e5ea0001 	strb	r0, [sl, #1]!
    c260:	e15a0009 	cmp	sl, r9
    c264:	0a00000d 	beq	c2a0 <decrypt_data+0x180>
    c268:	e5942010 	ldr	r2, [r4, #16]
    c26c:	e5923010 	ldr	r3, [r2, #16]
    c270:	e1a00002 	mov	r0, r2
    c274:	e3530000 	cmp	r3, #0
    c278:	1a000004 	bne	c290 <decrypt_data+0x170>
    c27c:	e5923018 	ldr	r3, [r2, #24]
    c280:	e592101c 	ldr	r1, [r2, #28]
    c284:	e1530001 	cmp	r3, r1
    c288:	e2831001 	add	r1, r3, #1
    c28c:	3affffec 	bcc	c244 <decrypt_data+0x124>
    c290:	ebfff456 	bl	93f0 <iobuf_readbyte>
    c294:	e3700001 	cmn	r0, #1
    c298:	e6ef0070 	uxtb	r0, r0
    c29c:	1affffee 	bne	c25c <decrypt_data+0x13c>
    c2a0:	e59d300c 	ldr	r3, [sp, #12]
    c2a4:	e3a0200a 	mov	r2, #10
    c2a8:	e28d1010 	add	r1, sp, #16
    c2ac:	e5930004 	ldr	r0, [r3, #4]
    c2b0:	e3a03000 	mov	r3, #0
    c2b4:	e58d3000 	str	r3, [sp]
    c2b8:	eb0009a1 	bl	e944 <_gcry_cipher_decrypt>
    c2bc:	e59d300c 	ldr	r3, [sp, #12]
    c2c0:	e5930004 	ldr	r0, [r3, #4]
    c2c4:	eb0007a6 	bl	e164 <cipher_sync>
    c2c8:	e5d53008 	ldrb	r3, [r5, #8]
    c2cc:	e3130040 	tst	r3, #64	; 0x40
    c2d0:	0a000015 	beq	c32c <decrypt_data+0x20c>
    c2d4:	e5dd2016 	ldrb	r2, [sp, #22]
    c2d8:	e5dd3018 	ldrb	r3, [sp, #24]
    c2dc:	e1520003 	cmp	r2, r3
    c2e0:	1a000003 	bne	c2f4 <decrypt_data+0x1d4>
    c2e4:	e5dd2017 	ldrb	r2, [sp, #23]
    c2e8:	e5dd3019 	ldrb	r3, [sp, #25]
    c2ec:	e1520003 	cmp	r2, r3
    c2f0:	0a00000d 	beq	c32c <decrypt_data+0x20c>
    c2f4:	e59f0184 	ldr	r0, [pc, #388]	; c480 <decrypt_data+0x360>
    c2f8:	e3a06013 	mov	r6, #19
    c2fc:	e3406200 	movt	r6, #512	; 0x200
    c300:	e08f0000 	add	r0, pc, r0
    c304:	eb001796 	bl	12164 <tfp_printf>
    c308:	e59d000c 	ldr	r0, [sp, #12]
    c30c:	ea000002 	b	c31c <decrypt_data+0x1fc>
    c310:	e59d000c 	ldr	r0, [sp, #12]
    c314:	e3a0600c 	mov	r6, #12
    c318:	e3406200 	movt	r6, #512	; 0x200
    c31c:	ebfffee5 	bl	beb8 <release_dfx_context>
    c320:	e1a00006 	mov	r0, r6
    c324:	e28dd030 	add	sp, sp, #48	; 0x30
    c328:	e8bd87f0 	pop	{r4, r5, r6, r7, r8, r9, sl, pc}
    c32c:	e59f0150 	ldr	r0, [pc, #336]	; c484 <decrypt_data+0x364>
    c330:	e08f0000 	add	r0, pc, r0
    c334:	eb00178a 	bl	12164 <tfp_printf>
    c338:	e59d200c 	ldr	r2, [sp, #12]
    c33c:	e5940010 	ldr	r0, [r4, #16]
    c340:	e5923000 	ldr	r3, [r2]
    c344:	e5d2c050 	ldrb	ip, [r2, #80]	; 0x50
    c348:	e59f1138 	ldr	r1, [pc, #312]	; c488 <decrypt_data+0x368>
    c34c:	e2833001 	add	r3, r3, #1
    c350:	e5823000 	str	r3, [r2]
    c354:	e5d43009 	ldrb	r3, [r4, #9]
    c358:	e08f1001 	add	r1, pc, r1
    c35c:	e2533000 	subs	r3, r3, #0
    c360:	13a03001 	movne	r3, #1
    c364:	e7c0c013 	bfi	ip, r3, #0, #1
    c368:	e5c2c050 	strb	ip, [r2, #80]	; 0x50
    c36c:	e5943000 	ldr	r3, [r4]
    c370:	e5823078 	str	r3, [r2, #120]	; 0x78
    c374:	ebfff35e 	bl	90f4 <iobuf_push_filter>
    c378:	e5942010 	ldr	r2, [r4, #16]
    c37c:	e1a01008 	mov	r1, r8
    c380:	e1a00007 	mov	r0, r7
    c384:	eb000ddf 	bl	fb08 <proc_packets>
    c388:	e59d000c 	ldr	r0, [sp, #12]
    c38c:	e3a0200e 	mov	r2, #14
    c390:	e3402200 	movt	r2, #512	; 0x200
    c394:	e3a01000 	mov	r1, #0
    c398:	e5d03050 	ldrb	r3, [r0, #80]	; 0x50
    c39c:	e5841010 	str	r1, [r4, #16]
    c3a0:	e7e130d3 	ubfx	r3, r3, #1, #2
    c3a4:	e3530001 	cmp	r3, #1
    c3a8:	81a06002 	movhi	r6, r2
    c3ac:	eaffffda 	b	c31c <decrypt_data+0x1fc>
    c3b0:	e59f00d4 	ldr	r0, [pc, #212]	; c48c <decrypt_data+0x36c>
    c3b4:	e3a0600e 	mov	r6, #14
    c3b8:	e3406200 	movt	r6, #512	; 0x200
    c3bc:	e08f0000 	add	r0, pc, r0
    c3c0:	eb001767 	bl	12164 <tfp_printf>
    c3c4:	e59d000c 	ldr	r0, [sp, #12]
    c3c8:	eaffffd3 	b	c31c <decrypt_data+0x1fc>
    c3cc:	e59d000c 	ldr	r0, [sp, #12]
    c3d0:	e3a0600e 	mov	r6, #14
    c3d4:	e3406200 	movt	r6, #512	; 0x200
    c3d8:	eaffffcf 	b	c31c <decrypt_data+0x1fc>
    c3dc:	e59f00ac 	ldr	r0, [pc, #172]	; c490 <decrypt_data+0x370>
    c3e0:	e28da00f 	add	sl, sp, #15
    c3e4:	e28d9019 	add	r9, sp, #25
    c3e8:	e08f0000 	add	r0, pc, r0
    c3ec:	eb00175c 	bl	12164 <tfp_printf>
    c3f0:	e5942000 	ldr	r2, [r4]
    c3f4:	ea00000a 	b	c424 <decrypt_data+0x304>
    c3f8:	e5930008 	ldr	r0, [r3, #8]
    c3fc:	e583c018 	str	ip, [r3, #24]
    c400:	e593c020 	ldr	ip, [r3, #32]
    c404:	e2800001 	add	r0, r0, #1
    c408:	e5830008 	str	r0, [r3, #8]
    c40c:	e7dc0001 	ldrb	r0, [ip, r1]
    c410:	e5ea0001 	strb	r0, [sl, #1]!
    c414:	e2422001 	sub	r2, r2, #1
    c418:	e159000a 	cmp	r9, sl
    c41c:	e5842000 	str	r2, [r4]
    c420:	0affff9e 	beq	c2a0 <decrypt_data+0x180>
    c424:	e3520000 	cmp	r2, #0
    c428:	0affff9c 	beq	c2a0 <decrypt_data+0x180>
    c42c:	e5943010 	ldr	r3, [r4, #16]
    c430:	e5931010 	ldr	r1, [r3, #16]
    c434:	e1a00003 	mov	r0, r3
    c438:	e3510000 	cmp	r1, #0
    c43c:	1a000004 	bne	c454 <decrypt_data+0x334>
    c440:	e5931018 	ldr	r1, [r3, #24]
    c444:	e593c01c 	ldr	ip, [r3, #28]
    c448:	e151000c 	cmp	r1, ip
    c44c:	e281c001 	add	ip, r1, #1
    c450:	3affffe8 	bcc	c3f8 <decrypt_data+0x2d8>
    c454:	ebfff3e5 	bl	93f0 <iobuf_readbyte>
    c458:	e3700001 	cmn	r0, #1
    c45c:	e6ef0070 	uxtb	r0, r0
    c460:	0affff8e 	beq	c2a0 <decrypt_data+0x180>
    c464:	e5942000 	ldr	r2, [r4]
    c468:	eaffffe8 	b	c410 <decrypt_data+0x2f0>
    c46c:	e3e06000 	mvn	r6, #0
    c470:	eaffffaa 	b	c320 <decrypt_data+0x200>
    c474:	0000b144 	.word	0x0000b144
    c478:	0000b11c 	.word	0x0000b11c
    c47c:	0000b11c 	.word	0x0000b11c
    c480:	0000afe8 	.word	0x0000afe8
    c484:	0000afc8 	.word	0x0000afc8
    c488:	fffffba4 	.word	0xfffffba4
    c48c:	0000aef8 	.word	0x0000aef8
    c490:	0000aef0 	.word	0x0000aef0

0000c494 <free_symkey_enc>:
    c494:	ea000e2c 	b	fd4c <xfree>

0000c498 <free_encrypted>:
    c498:	e92d4010 	push	{r4, lr}
    c49c:	e2504000 	subs	r4, r0, #0
    c4a0:	08bd8010 	popeq	{r4, pc}
    c4a4:	e5940010 	ldr	r0, [r4, #16]
    c4a8:	e3500000 	cmp	r0, #0
    c4ac:	0a000012 	beq	c4fc <free_encrypted+0x64>
    c4b0:	e5d43009 	ldrb	r3, [r4, #9]
    c4b4:	e3530000 	cmp	r3, #0
    c4b8:	1a000013 	bne	c50c <free_encrypted+0x74>
    c4bc:	e5942000 	ldr	r2, [r4]
    c4c0:	e3520000 	cmp	r2, #0
    c4c4:	1a000006 	bne	c4e4 <free_encrypted+0x4c>
    c4c8:	ea00000b 	b	c4fc <free_encrypted+0x64>
    c4cc:	e5942000 	ldr	r2, [r4]
    c4d0:	e0422000 	sub	r2, r2, r0
    c4d4:	e5842000 	str	r2, [r4]
    c4d8:	e3520000 	cmp	r2, #0
    c4dc:	0a000006 	beq	c4fc <free_encrypted+0x64>
    c4e0:	e5940010 	ldr	r0, [r4, #16]
    c4e4:	e3a01000 	mov	r1, #0
    c4e8:	ebfff479 	bl	96d4 <iobuf_read>
    c4ec:	e3700001 	cmn	r0, #1
    c4f0:	1afffff5 	bne	c4cc <free_encrypted+0x34>
    c4f4:	e3a03000 	mov	r3, #0
    c4f8:	e5843000 	str	r3, [r4]
    c4fc:	e1a00004 	mov	r0, r4
    c500:	e8bd4010 	pop	{r4, lr}
    c504:	ea000e10 	b	fd4c <xfree>
    c508:	e5940010 	ldr	r0, [r4, #16]
    c50c:	e3a02101 	mov	r2, #1073741824	; 0x40000000
    c510:	e3a01000 	mov	r1, #0
    c514:	ebfff46e 	bl	96d4 <iobuf_read>
    c518:	e3700001 	cmn	r0, #1
    c51c:	1afffff9 	bne	c508 <free_encrypted+0x70>
    c520:	e1a00004 	mov	r0, r4
    c524:	e8bd4010 	pop	{r4, lr}
    c528:	ea000e07 	b	fd4c <xfree>

0000c52c <free_plaintext>:
    c52c:	e92d4010 	push	{r4, lr}
    c530:	e2504000 	subs	r4, r0, #0
    c534:	08bd8010 	popeq	{r4, pc}
    c538:	e5940004 	ldr	r0, [r4, #4]
    c53c:	e3500000 	cmp	r0, #0
    c540:	0a000012 	beq	c590 <free_plaintext+0x64>
    c544:	e5d43009 	ldrb	r3, [r4, #9]
    c548:	e3530000 	cmp	r3, #0
    c54c:	1a000013 	bne	c5a0 <free_plaintext+0x74>
    c550:	e5942000 	ldr	r2, [r4]
    c554:	e3520000 	cmp	r2, #0
    c558:	1a000006 	bne	c578 <free_plaintext+0x4c>
    c55c:	ea00000b 	b	c590 <free_plaintext+0x64>
    c560:	e5942000 	ldr	r2, [r4]
    c564:	e0422000 	sub	r2, r2, r0
    c568:	e5842000 	str	r2, [r4]
    c56c:	e3520000 	cmp	r2, #0
    c570:	0a000006 	beq	c590 <free_plaintext+0x64>
    c574:	e5940004 	ldr	r0, [r4, #4]
    c578:	e3a01000 	mov	r1, #0
    c57c:	ebfff454 	bl	96d4 <iobuf_read>
    c580:	e3700001 	cmn	r0, #1
    c584:	1afffff5 	bne	c560 <free_plaintext+0x34>
    c588:	e3a03000 	mov	r3, #0
    c58c:	e5843000 	str	r3, [r4]
    c590:	e1a00004 	mov	r0, r4
    c594:	e8bd4010 	pop	{r4, lr}
    c598:	ea000deb 	b	fd4c <xfree>
    c59c:	e5940004 	ldr	r0, [r4, #4]
    c5a0:	e3a02101 	mov	r2, #1073741824	; 0x40000000
    c5a4:	e3a01000 	mov	r1, #0
    c5a8:	ebfff449 	bl	96d4 <iobuf_read>
    c5ac:	e3700001 	cmn	r0, #1
    c5b0:	1afffff9 	bne	c59c <free_plaintext+0x70>
    c5b4:	e1a00004 	mov	r0, r4
    c5b8:	e8bd4010 	pop	{r4, lr}
    c5bc:	ea000de2 	b	fd4c <xfree>

0000c5c0 <free_packet>:
    c5c0:	e3500000 	cmp	r0, #0
    c5c4:	e92d4010 	push	{r4, lr}
    c5c8:	e1a04001 	mov	r4, r1
    c5cc:	0a000007 	beq	c5f0 <free_packet+0x30>
    c5d0:	e5903004 	ldr	r3, [r0, #4]
    c5d4:	e3530000 	cmp	r3, #0
    c5d8:	0a000004 	beq	c5f0 <free_packet+0x30>
    c5dc:	e5d01000 	ldrb	r1, [r0]
    c5e0:	e59f0050 	ldr	r0, [pc, #80]	; c638 <free_packet+0x78>
    c5e4:	e8bd4010 	pop	{r4, lr}
    c5e8:	e08f0000 	add	r0, pc, r0
    c5ec:	ea0016dc 	b	12164 <tfp_printf>
    c5f0:	e3540000 	cmp	r4, #0
    c5f4:	08bd8010 	popeq	{r4, pc}
    c5f8:	e5943008 	ldr	r3, [r4, #8]
    c5fc:	e3530000 	cmp	r3, #0
    c600:	08bd8010 	popeq	{r4, pc}
    c604:	e594300c 	ldr	r3, [r4, #12]
    c608:	e3530000 	cmp	r3, #0
    c60c:	1a000003 	bne	c620 <free_packet+0x60>
    c610:	e3a03000 	mov	r3, #0
    c614:	e5c43004 	strb	r3, [r4, #4]
    c618:	e5843008 	str	r3, [r4, #8]
    c61c:	e8bd8010 	pop	{r4, pc}
    c620:	e3a01000 	mov	r1, #0
    c624:	e2840004 	add	r0, r4, #4
    c628:	ebffffe4 	bl	c5c0 <free_packet>
    c62c:	e3a03000 	mov	r3, #0
    c630:	e584300c 	str	r3, [r4, #12]
    c634:	eafffff5 	b	c610 <free_packet+0x50>
    c638:	0000ad20 	.word	0x0000ad20

0000c63c <run>:
    c63c:	e92d4ff0 	push	{r4, r5, r6, r7, r8, r9, sl, fp, lr}
    c640:	e24ddf75 	sub	sp, sp, #468	; 0x1d4
    c644:	e59fcff0 	ldr	ip, [pc, #4080]	; d63c <run+0x1000>
    c648:	e3a05000 	mov	r5, #0
    c64c:	e58d0060 	str	r0, [sp, #96]	; 0x60
    c650:	e28d00a0 	add	r0, sp, #160	; 0xa0
    c654:	e08fc00c 	add	ip, pc, ip
    c658:	e1a04001 	mov	r4, r1
    c65c:	e880000c 	stm	r0, {r2, r3}
    c660:	e59d30a4 	ldr	r3, [sp, #164]	; 0xa4
    c664:	e28d00a8 	add	r0, sp, #168	; 0xa8
    c668:	e58d206c 	str	r2, [sp, #108]	; 0x6c
    c66c:	e3a02010 	mov	r2, #16
    c670:	e58d3070 	str	r3, [sp, #112]	; 0x70
    c674:	e58dc064 	str	ip, [sp, #100]	; 0x64
    c678:	e58d0074 	str	r0, [sp, #116]	; 0x74
    c67c:	e58d50a8 	str	r5, [sp, #168]	; 0xa8
    c680:	e5805004 	str	r5, [r0, #4]
    c684:	e5805008 	str	r5, [r0, #8]
    c688:	e580500c 	str	r5, [r0, #12]
    c68c:	eb000de8 	bl	fe34 <memcpy>
    c690:	e59d31fc 	ldr	r3, [sp, #508]	; 0x1fc
    c694:	e58d50b8 	str	r5, [sp, #184]	; 0xb8
    c698:	e1530005 	cmp	r3, r5
    c69c:	e28d30b8 	add	r3, sp, #184	; 0xb8
    c6a0:	e58d50bc 	str	r5, [sp, #188]	; 0xbc
    c6a4:	e58d50c0 	str	r5, [sp, #192]	; 0xc0
    c6a8:	e58d50c4 	str	r5, [sp, #196]	; 0xc4
    c6ac:	e58d3078 	str	r3, [sp, #120]	; 0x78
    c6b0:	1a00042c 	bne	d768 <run+0x112c>
    c6b4:	e59f4f84 	ldr	r4, [pc, #3972]	; d640 <run+0x1004>
    c6b8:	e3a02080 	mov	r2, #128	; 0x80
    c6bc:	e59f3f80 	ldr	r3, [pc, #3968]	; d644 <run+0x1008>
    c6c0:	e3a01000 	mov	r1, #0
    c6c4:	e08f4004 	add	r4, pc, r4
    c6c8:	e28d0e15 	add	r0, sp, #336	; 0x150
    c6cc:	e08f3003 	add	r3, pc, r3
    c6d0:	e58d307c 	str	r3, [sp, #124]	; 0x7c
    c6d4:	e58d4080 	str	r4, [sp, #128]	; 0x80
    c6d8:	eb000d9e 	bl	fd58 <memset>
    c6dc:	e59d2064 	ldr	r2, [sp, #100]	; 0x64
    c6e0:	e59f3f60 	ldr	r3, [pc, #3936]	; d648 <run+0x100c>
    c6e4:	e7929003 	ldr	r9, [r2, r3]
    c6e8:	e59f3f5c 	ldr	r3, [pc, #3932]	; d64c <run+0x1010>
    c6ec:	e792a003 	ldr	sl, [r2, r3]
    c6f0:	e59f3f58 	ldr	r3, [pc, #3928]	; d650 <run+0x1014>
    c6f4:	e7928003 	ldr	r8, [r2, r3]
    c6f8:	e59f3f54 	ldr	r3, [pc, #3924]	; d654 <run+0x1018>
    c6fc:	e792b003 	ldr	fp, [r2, r3]
    c700:	e3a03000 	mov	r3, #0
    c704:	e58d301c 	str	r3, [sp, #28]
    c708:	e28d2e16 	add	r2, sp, #352	; 0x160
    c70c:	e58d3038 	str	r3, [sp, #56]	; 0x38
    c710:	e28d30c8 	add	r3, sp, #200	; 0xc8
    c714:	e58d3068 	str	r3, [sp, #104]	; 0x68
    c718:	e284300f 	add	r3, r4, #15
    c71c:	e58d3084 	str	r3, [sp, #132]	; 0x84
    c720:	e1a0300a 	mov	r3, sl
    c724:	e58d2018 	str	r2, [sp, #24]
    c728:	e1a0a009 	mov	sl, r9
    c72c:	e1a09003 	mov	r9, r3
    c730:	e59d31fc 	ldr	r3, [sp, #508]	; 0x1fc
    c734:	e3530000 	cmp	r3, #0
    c738:	1a000383 	bne	d54c <run+0xf10>
    c73c:	e59d21fc 	ldr	r2, [sp, #508]	; 0x1fc
    c740:	e5dd30b6 	ldrb	r3, [sp, #182]	; 0xb6
    c744:	e59d10a8 	ldr	r1, [sp, #168]	; 0xa8
    c748:	e3520000 	cmp	r2, #0
    c74c:	e5dd20b4 	ldrb	r2, [sp, #180]	; 0xb4
    c750:	e79a3103 	ldr	r3, [sl, r3, lsl #2]
    c754:	e7992102 	ldr	r2, [r9, r2, lsl #2]
    c758:	e0233002 	eor	r3, r3, r2
    c75c:	e5dd20b7 	ldrb	r2, [sp, #183]	; 0xb7
    c760:	e0233001 	eor	r3, r3, r1
    c764:	e7982102 	ldr	r2, [r8, r2, lsl #2]
    c768:	e0233002 	eor	r3, r3, r2
    c76c:	e5dd20b5 	ldrb	r2, [sp, #181]	; 0xb5
    c770:	e79b2102 	ldr	r2, [fp, r2, lsl #2]
    c774:	e0233002 	eor	r3, r3, r2
    c778:	e5dd20b3 	ldrb	r2, [sp, #179]	; 0xb3
    c77c:	e7982102 	ldr	r2, [r8, r2, lsl #2]
    c780:	e0236002 	eor	r6, r3, r2
    c784:	e5dd30b1 	ldrb	r3, [sp, #177]	; 0xb1
    c788:	e1a01c26 	lsr	r1, r6, #24
    c78c:	e59d20b0 	ldr	r2, [sp, #176]	; 0xb0
    c790:	e79b3103 	ldr	r3, [fp, r3, lsl #2]
    c794:	e7e75456 	ubfx	r5, r6, #8, #8
    c798:	e0233002 	eor	r3, r3, r2
    c79c:	e79a2101 	ldr	r2, [sl, r1, lsl #2]
    c7a0:	e58d1020 	str	r1, [sp, #32]
    c7a4:	e0233002 	eor	r3, r3, r2
    c7a8:	e7992105 	ldr	r2, [r9, r5, lsl #2]
    c7ac:	e7e71856 	ubfx	r1, r6, #16, #8
    c7b0:	e0233002 	eor	r3, r3, r2
    c7b4:	e6ef2076 	uxtb	r2, r6
    c7b8:	e58d1030 	str	r1, [sp, #48]	; 0x30
    c7bc:	e7981101 	ldr	r1, [r8, r1, lsl #2]
    c7c0:	e58d2024 	str	r2, [sp, #36]	; 0x24
    c7c4:	e79b2102 	ldr	r2, [fp, r2, lsl #2]
    c7c8:	e0233001 	eor	r3, r3, r1
    c7cc:	e0232002 	eor	r2, r3, r2
    c7d0:	e5dd30b2 	ldrb	r3, [sp, #178]	; 0xb2
    c7d4:	e6ef0072 	uxtb	r0, r2
    c7d8:	e58d1034 	str	r1, [sp, #52]	; 0x34
    c7dc:	e79a1103 	ldr	r1, [sl, r3, lsl #2]
    c7e0:	e59d30b4 	ldr	r3, [sp, #180]	; 0xb4
    c7e4:	e7e7c452 	ubfx	ip, r2, #8, #8
    c7e8:	e0211003 	eor	r1, r1, r3
    c7ec:	e79a3100 	ldr	r3, [sl, r0, lsl #2]
    c7f0:	e58d203c 	str	r2, [sp, #60]	; 0x3c
    c7f4:	e0211003 	eor	r1, r1, r3
    c7f8:	e1a03002 	mov	r3, r2
    c7fc:	e58d20bc 	str	r2, [sp, #188]	; 0xbc
    c800:	e7e72852 	ubfx	r2, r2, #16, #8
    c804:	e58d0028 	str	r0, [sp, #40]	; 0x28
    c808:	e58dc02c 	str	ip, [sp, #44]	; 0x2c
    c80c:	e58d60b8 	str	r6, [sp, #184]	; 0xb8
    c810:	e58d2044 	str	r2, [sp, #68]	; 0x44
    c814:	e799010c 	ldr	r0, [r9, ip, lsl #2]
    c818:	e0211000 	eor	r1, r1, r0
    c81c:	e58d0040 	str	r0, [sp, #64]	; 0x40
    c820:	e1a00c23 	lsr	r0, r3, #24
    c824:	e7983102 	ldr	r3, [r8, r2, lsl #2]
    c828:	e79b2100 	ldr	r2, [fp, r0, lsl #2]
    c82c:	e0211003 	eor	r1, r1, r3
    c830:	e58d204c 	str	r2, [sp, #76]	; 0x4c
    c834:	e0212002 	eor	r2, r1, r2
    c838:	e58d0048 	str	r0, [sp, #72]	; 0x48
    c83c:	e7e70452 	ubfx	r0, r2, #8, #8
    c840:	e5dd10b0 	ldrb	r1, [sp, #176]	; 0xb0
    c844:	e79a7100 	ldr	r7, [sl, r0, lsl #2]
    c848:	e7e70852 	ubfx	r0, r2, #16, #8
    c84c:	e7991101 	ldr	r1, [r9, r1, lsl #2]
    c850:	e799c100 	ldr	ip, [r9, r0, lsl #2]
    c854:	e58d0054 	str	r0, [sp, #84]	; 0x54
    c858:	e59d00ac 	ldr	r0, [sp, #172]	; 0xac
    c85c:	e58d2050 	str	r2, [sp, #80]	; 0x50
    c860:	e0211000 	eor	r1, r1, r0
    c864:	e1a00002 	mov	r0, r2
    c868:	e58d20c0 	str	r2, [sp, #192]	; 0xc0
    c86c:	e6ef2072 	uxtb	r2, r2
    c870:	e0211007 	eor	r1, r1, r7
    c874:	e021100c 	eor	r1, r1, ip
    c878:	e58dc058 	str	ip, [sp, #88]	; 0x58
    c87c:	e1a0cc20 	lsr	ip, r0, #24
    c880:	e7980102 	ldr	r0, [r8, r2, lsl #2]
    c884:	e58dc05c 	str	ip, [sp, #92]	; 0x5c
    c888:	e0211000 	eor	r1, r1, r0
    c88c:	e79b010c 	ldr	r0, [fp, ip, lsl #2]
    c890:	e0214000 	eor	r4, r1, r0
    c894:	e58d40c4 	str	r4, [sp, #196]	; 0xc4
    c898:	1a0003dc 	bne	d810 <run+0x11d4>
    c89c:	e59d1040 	ldr	r1, [sp, #64]	; 0x40
    c8a0:	e59de018 	ldr	lr, [sp, #24]
    c8a4:	e0211003 	eor	r1, r1, r3
    c8a8:	e59d005c 	ldr	r0, [sp, #92]	; 0x5c
    c8ac:	e1a03001 	mov	r3, r1
    c8b0:	e59d104c 	ldr	r1, [sp, #76]	; 0x4c
    c8b4:	e79a0100 	ldr	r0, [sl, r0, lsl #2]
    c8b8:	e0233001 	eor	r3, r3, r1
    c8bc:	e0277003 	eor	r7, r7, r3
    c8c0:	e59d302c 	ldr	r3, [sp, #44]	; 0x2c
    c8c4:	e59d1054 	ldr	r1, [sp, #84]	; 0x54
    c8c8:	e79b3103 	ldr	r3, [fp, r3, lsl #2]
    c8cc:	e7981101 	ldr	r1, [r8, r1, lsl #2]
    c8d0:	e58d302c 	str	r3, [sp, #44]	; 0x2c
    c8d4:	e7993102 	ldr	r3, [r9, r2, lsl #2]
    c8d8:	e59d21fc 	ldr	r2, [sp, #508]	; 0x1fc
    c8dc:	e0277003 	eor	r7, r7, r3
    c8e0:	e7e73454 	ubfx	r3, r4, #8, #8
    c8e4:	e3520000 	cmp	r2, #0
    c8e8:	e50e700c 	str	r7, [lr, #-12]
    c8ec:	e79ac103 	ldr	ip, [sl, r3, lsl #2]
    c8f0:	e59d3028 	ldr	r3, [sp, #40]	; 0x28
    c8f4:	e59d702c 	ldr	r7, [sp, #44]	; 0x2c
    c8f8:	e7983103 	ldr	r3, [r8, r3, lsl #2]
    c8fc:	e79ae105 	ldr	lr, [sl, r5, lsl #2]
    c900:	e0233007 	eor	r3, r3, r7
    c904:	e79b7105 	ldr	r7, [fp, r5, lsl #2]
    c908:	e59d5058 	ldr	r5, [sp, #88]	; 0x58
    c90c:	e023300e 	eor	r3, r3, lr
    c910:	e0233005 	eor	r3, r3, r5
    c914:	e59de018 	ldr	lr, [sp, #24]
    c918:	e0233000 	eor	r3, r3, r0
    c91c:	e50e3010 	str	r3, [lr, #-16]
    c920:	e59d3024 	ldr	r3, [sp, #36]	; 0x24
    c924:	e59d0034 	ldr	r0, [sp, #52]	; 0x34
    c928:	e7983103 	ldr	r3, [r8, r3, lsl #2]
    c92c:	e1a02c24 	lsr	r2, r4, #24
    c930:	e0233007 	eor	r3, r3, r7
    c934:	e0211003 	eor	r1, r1, r3
    c938:	e59d3020 	ldr	r3, [sp, #32]
    c93c:	e58d7040 	str	r7, [sp, #64]	; 0x40
    c940:	e79b3103 	ldr	r3, [fp, r3, lsl #2]
    c944:	e0200003 	eor	r0, r0, r3
    c948:	e6ef3074 	uxtb	r3, r4
    c94c:	e02cc000 	eor	ip, ip, r0
    c950:	e7993103 	ldr	r3, [r9, r3, lsl #2]
    c954:	e79a0102 	ldr	r0, [sl, r2, lsl #2]
    c958:	e02cc003 	eor	ip, ip, r3
    c95c:	e7e73854 	ubfx	r3, r4, #16, #8
    c960:	e0211000 	eor	r1, r1, r0
    c964:	e7993103 	ldr	r3, [r9, r3, lsl #2]
    c968:	e0211003 	eor	r1, r1, r3
    c96c:	e50e1008 	str	r1, [lr, #-8]
    c970:	e79b3102 	ldr	r3, [fp, r2, lsl #2]
    c974:	e02cc003 	eor	ip, ip, r3
    c978:	e59d301c 	ldr	r3, [sp, #28]
    c97c:	e50ec004 	str	ip, [lr, #-4]
    c980:	e2832003 	add	r2, r3, #3
    c984:	1a0003e3 	bne	d918 <run+0x12dc>
    c988:	e59d3040 	ldr	r3, [sp, #64]	; 0x40
    c98c:	e59d202c 	ldr	r2, [sp, #44]	; 0x2c
    c990:	e0266003 	eor	r6, r6, r3
    c994:	e59d3044 	ldr	r3, [sp, #68]	; 0x44
    c998:	e79a3103 	ldr	r3, [sl, r3, lsl #2]
    c99c:	e0222003 	eor	r2, r2, r3
    c9a0:	e1a03002 	mov	r3, r2
    c9a4:	e59d2020 	ldr	r2, [sp, #32]
    c9a8:	e7982102 	ldr	r2, [r8, r2, lsl #2]
    c9ac:	e0233002 	eor	r3, r3, r2
    c9b0:	e59d2028 	ldr	r2, [sp, #40]	; 0x28
    c9b4:	e7992102 	ldr	r2, [r9, r2, lsl #2]
    c9b8:	e0233002 	eor	r3, r3, r2
    c9bc:	e59d2048 	ldr	r2, [sp, #72]	; 0x48
    c9c0:	e7982102 	ldr	r2, [r8, r2, lsl #2]
    c9c4:	e0233002 	eor	r3, r3, r2
    c9c8:	e59d2050 	ldr	r2, [sp, #80]	; 0x50
    c9cc:	e0233002 	eor	r3, r3, r2
    c9d0:	e59d2030 	ldr	r2, [sp, #48]	; 0x30
    c9d4:	e1a00c23 	lsr	r0, r3, #24
    c9d8:	e79ae102 	ldr	lr, [sl, r2, lsl #2]
    c9dc:	e59d203c 	ldr	r2, [sp, #60]	; 0x3c
    c9e0:	e7e7c853 	ubfx	ip, r3, #16, #8
    c9e4:	e022200e 	eor	r2, r2, lr
    c9e8:	e58d30a8 	str	r3, [sp, #168]	; 0xa8
    c9ec:	e1a0e002 	mov	lr, r2
    c9f0:	e59d2024 	ldr	r2, [sp, #36]	; 0x24
    c9f4:	e7991102 	ldr	r1, [r9, r2, lsl #2]
    c9f8:	e59d21fc 	ldr	r2, [sp, #508]	; 0x1fc
    c9fc:	e0247001 	eor	r7, r4, r1
    ca00:	e3520000 	cmp	r2, #0
    ca04:	e7e72453 	ubfx	r2, r3, #8, #8
    ca08:	e6ef3073 	uxtb	r3, r3
    ca0c:	e7991102 	ldr	r1, [r9, r2, lsl #2]
    ca10:	e79a2100 	ldr	r2, [sl, r0, lsl #2]
    ca14:	e79b3103 	ldr	r3, [fp, r3, lsl #2]
    ca18:	e0266002 	eor	r6, r6, r2
    ca1c:	e798210c 	ldr	r2, [r8, ip, lsl #2]
    ca20:	e0266001 	eor	r6, r6, r1
    ca24:	e0222006 	eor	r2, r2, r6
    ca28:	e0222003 	eor	r2, r2, r3
    ca2c:	e7e75852 	ubfx	r5, r2, #16, #8
    ca30:	e6ef3072 	uxtb	r3, r2
    ca34:	e58d20ac 	str	r2, [sp, #172]	; 0xac
    ca38:	e79a3103 	ldr	r3, [sl, r3, lsl #2]
    ca3c:	e58d1024 	str	r1, [sp, #36]	; 0x24
    ca40:	e02ee003 	eor	lr, lr, r3
    ca44:	e7e73452 	ubfx	r3, r2, #8, #8
    ca48:	e1a02c22 	lsr	r2, r2, #24
    ca4c:	e7993103 	ldr	r3, [r9, r3, lsl #2]
    ca50:	e79b1102 	ldr	r1, [fp, r2, lsl #2]
    ca54:	e02ee003 	eor	lr, lr, r3
    ca58:	e58d3028 	str	r3, [sp, #40]	; 0x28
    ca5c:	e7983105 	ldr	r3, [r8, r5, lsl #2]
    ca60:	e023300e 	eor	r3, r3, lr
    ca64:	e0233001 	eor	r3, r3, r1
    ca68:	e7e74453 	ubfx	r4, r3, #8, #8
    ca6c:	e6ef1073 	uxtb	r1, r3
    ca70:	e7e7e853 	ubfx	lr, r3, #16, #8
    ca74:	e7986101 	ldr	r6, [r8, r1, lsl #2]
    ca78:	e79a1104 	ldr	r1, [sl, r4, lsl #2]
    ca7c:	e58d30b0 	str	r3, [sp, #176]	; 0xb0
    ca80:	e0211007 	eor	r1, r1, r7
    ca84:	e799710e 	ldr	r7, [r9, lr, lsl #2]
    ca88:	e1a03c23 	lsr	r3, r3, #24
    ca8c:	e0211007 	eor	r1, r1, r7
    ca90:	e0266001 	eor	r6, r6, r1
    ca94:	e79b1103 	ldr	r1, [fp, r3, lsl #2]
    ca98:	e0266001 	eor	r6, r6, r1
    ca9c:	e58d60b4 	str	r6, [sp, #180]	; 0xb4
    caa0:	1a00037f 	bne	d8a4 <run+0x1268>
    caa4:	e7990100 	ldr	r0, [r9, r0, lsl #2]
    caa8:	e79ac10c 	ldr	ip, [sl, ip, lsl #2]
    caac:	e58d003c 	str	r0, [sp, #60]	; 0x3c
    cab0:	e5dd00b7 	ldrb	r0, [sp, #183]	; 0xb7
    cab4:	e79a1105 	ldr	r1, [sl, r5, lsl #2]
    cab8:	e58dc034 	str	ip, [sp, #52]	; 0x34
    cabc:	e798c100 	ldr	ip, [r8, r0, lsl #2]
    cac0:	e5dd00b4 	ldrb	r0, [sp, #180]	; 0xb4
    cac4:	e58d1040 	str	r1, [sp, #64]	; 0x40
    cac8:	e58d0030 	str	r0, [sp, #48]	; 0x30
    cacc:	e1a06000 	mov	r6, r0
    cad0:	e5dd10a8 	ldrb	r1, [sp, #168]	; 0xa8
    cad4:	e5dd00b0 	ldrb	r0, [sp, #176]	; 0xb0
    cad8:	e7992102 	ldr	r2, [r9, r2, lsl #2]
    cadc:	e58d0020 	str	r0, [sp, #32]
    cae0:	e5dd70b5 	ldrb	r7, [sp, #181]	; 0xb5
    cae4:	e79a0101 	ldr	r0, [sl, r1, lsl #2]
    cae8:	e79b6106 	ldr	r6, [fp, r6, lsl #2]
    caec:	e58d2044 	str	r2, [sp, #68]	; 0x44
    caf0:	e020000c 	eor	r0, r0, ip
    caf4:	e5dd20ac 	ldrb	r2, [sp, #172]	; 0xac
    caf8:	e58dc02c 	str	ip, [sp, #44]	; 0x2c
    cafc:	e798c107 	ldr	ip, [r8, r7, lsl #2]
    cb00:	e7981101 	ldr	r1, [r8, r1, lsl #2]
    cb04:	e02cc006 	eor	ip, ip, r6
    cb08:	e79a6102 	ldr	r6, [sl, r2, lsl #2]
    cb0c:	e79b2102 	ldr	r2, [fp, r2, lsl #2]
    cb10:	e0211006 	eor	r1, r1, r6
    cb14:	e59d6028 	ldr	r6, [sp, #40]	; 0x28
    cb18:	e59d51fc 	ldr	r5, [sp, #508]	; 0x1fc
    cb1c:	e0211006 	eor	r1, r1, r6
    cb20:	e59d6020 	ldr	r6, [sp, #32]
    cb24:	e3550000 	cmp	r5, #0
    cb28:	e5dd50b6 	ldrb	r5, [sp, #182]	; 0xb6
    cb2c:	e79b6106 	ldr	r6, [fp, r6, lsl #2]
    cb30:	e0222006 	eor	r2, r2, r6
    cb34:	e59d6040 	ldr	r6, [sp, #64]	; 0x40
    cb38:	e0222006 	eor	r2, r2, r6
    cb3c:	e59d6044 	ldr	r6, [sp, #68]	; 0x44
    cb40:	e0226006 	eor	r6, r2, r6
    cb44:	e79b2105 	ldr	r2, [fp, r5, lsl #2]
    cb48:	e0200002 	eor	r0, r0, r2
    cb4c:	e59d2024 	ldr	r2, [sp, #36]	; 0x24
    cb50:	e0200002 	eor	r0, r0, r2
    cb54:	e7992105 	ldr	r2, [r9, r5, lsl #2]
    cb58:	e022200c 	eor	r2, r2, ip
    cb5c:	e59dc034 	ldr	ip, [sp, #52]	; 0x34
    cb60:	e022200c 	eor	r2, r2, ip
    cb64:	e59dc03c 	ldr	ip, [sp, #60]	; 0x3c
    cb68:	e022200c 	eor	r2, r2, ip
    cb6c:	e59dc018 	ldr	ip, [sp, #24]
    cb70:	e58c2004 	str	r2, [ip, #4]
    cb74:	e798c103 	ldr	ip, [r8, r3, lsl #2]
    cb78:	e79a3103 	ldr	r3, [sl, r3, lsl #2]
    cb7c:	e021100c 	eor	r1, r1, ip
    cb80:	e0200003 	eor	r0, r0, r3
    cb84:	e79b310e 	ldr	r3, [fp, lr, lsl #2]
    cb88:	e59d2018 	ldr	r2, [sp, #24]
    cb8c:	e0211003 	eor	r1, r1, r3
    cb90:	e7983104 	ldr	r3, [r8, r4, lsl #2]
    cb94:	e5821008 	str	r1, [r2, #8]
    cb98:	e0233006 	eor	r3, r3, r6
    cb9c:	e582300c 	str	r3, [r2, #12]
    cba0:	e59d301c 	ldr	r3, [sp, #28]
    cba4:	e5820000 	str	r0, [r2]
    cba8:	e2831004 	add	r1, r3, #4
    cbac:	e2832007 	add	r2, r3, #7
    cbb0:	1a0003e2 	bne	db40 <run+0x1504>
    cbb4:	e59d302c 	ldr	r3, [sp, #44]	; 0x2c
    cbb8:	e79a210e 	ldr	r2, [sl, lr, lsl #2]
    cbbc:	e59de1fc 	ldr	lr, [sp, #508]	; 0x1fc
    cbc0:	e023300c 	eor	r3, r3, ip
    cbc4:	e79a0105 	ldr	r0, [sl, r5, lsl #2]
    cbc8:	e1a0c003 	mov	ip, r3
    cbcc:	e59d3030 	ldr	r3, [sp, #48]	; 0x30
    cbd0:	e35e0000 	cmp	lr, #0
    cbd4:	e59de0a8 	ldr	lr, [sp, #168]	; 0xa8
    cbd8:	e7995103 	ldr	r5, [r9, r3, lsl #2]
    cbdc:	e02cc00e 	eor	ip, ip, lr
    cbe0:	e79b7107 	ldr	r7, [fp, r7, lsl #2]
    cbe4:	e02cc000 	eor	ip, ip, r0
    cbe8:	e02cc005 	eor	ip, ip, r5
    cbec:	e027700c 	eor	r7, r7, ip
    cbf0:	e79b1104 	ldr	r1, [fp, r4, lsl #2]
    cbf4:	e1a0ec27 	lsr	lr, r7, #24
    cbf8:	e59d00b0 	ldr	r0, [sp, #176]	; 0xb0
    cbfc:	e7e7c457 	ubfx	ip, r7, #8, #8
    cc00:	e0211000 	eor	r1, r1, r0
    cc04:	e79a010e 	ldr	r0, [sl, lr, lsl #2]
    cc08:	e7e74857 	ubfx	r4, r7, #16, #8
    cc0c:	e0211000 	eor	r1, r1, r0
    cc10:	e799010c 	ldr	r0, [r9, ip, lsl #2]
    cc14:	e58dc024 	str	ip, [sp, #36]	; 0x24
    cc18:	e6efc077 	uxtb	ip, r7
    cc1c:	e0211000 	eor	r1, r1, r0
    cc20:	e58d003c 	str	r0, [sp, #60]	; 0x3c
    cc24:	e7980104 	ldr	r0, [r8, r4, lsl #2]
    cc28:	e58dc028 	str	ip, [sp, #40]	; 0x28
    cc2c:	e0211000 	eor	r1, r1, r0
    cc30:	e79b010c 	ldr	r0, [fp, ip, lsl #2]
    cc34:	e59d3020 	ldr	r3, [sp, #32]
    cc38:	e0210000 	eor	r0, r1, r0
    cc3c:	e59d10b4 	ldr	r1, [sp, #180]	; 0xb4
    cc40:	e6efc070 	uxtb	ip, r0
    cc44:	e58de020 	str	lr, [sp, #32]
    cc48:	e7e7e450 	ubfx	lr, r0, #8, #8
    cc4c:	e0211002 	eor	r1, r1, r2
    cc50:	e79a210c 	ldr	r2, [sl, ip, lsl #2]
    cc54:	e58dc044 	str	ip, [sp, #68]	; 0x44
    cc58:	e799c10e 	ldr	ip, [r9, lr, lsl #2]
    cc5c:	e0211002 	eor	r1, r1, r2
    cc60:	e58d2034 	str	r2, [sp, #52]	; 0x34
    cc64:	e7e72850 	ubfx	r2, r0, #16, #8
    cc68:	e021100c 	eor	r1, r1, ip
    cc6c:	e58dc04c 	str	ip, [sp, #76]	; 0x4c
    cc70:	e1a0cc20 	lsr	ip, r0, #24
    cc74:	e7993103 	ldr	r3, [r9, r3, lsl #2]
    cc78:	e58d4030 	str	r4, [sp, #48]	; 0x30
    cc7c:	e58d0040 	str	r0, [sp, #64]	; 0x40
    cc80:	e58d00bc 	str	r0, [sp, #188]	; 0xbc
    cc84:	e58d2050 	str	r2, [sp, #80]	; 0x50
    cc88:	e58d70b8 	str	r7, [sp, #184]	; 0xb8
    cc8c:	e58de048 	str	lr, [sp, #72]	; 0x48
    cc90:	e58dc02c 	str	ip, [sp, #44]	; 0x2c
    cc94:	e7980102 	ldr	r0, [r8, r2, lsl #2]
    cc98:	e59d40ac 	ldr	r4, [sp, #172]	; 0xac
    cc9c:	e0211000 	eor	r1, r1, r0
    cca0:	e79b010c 	ldr	r0, [fp, ip, lsl #2]
    cca4:	e0244003 	eor	r4, r4, r3
    cca8:	e0211000 	eor	r1, r1, r0
    ccac:	e7e72451 	ubfx	r2, r1, #8, #8
    ccb0:	e6ef6071 	uxtb	r6, r1
    ccb4:	e7e75851 	ubfx	r5, r1, #16, #8
    ccb8:	e79a3102 	ldr	r3, [sl, r2, lsl #2]
    ccbc:	e58d1054 	str	r1, [sp, #84]	; 0x54
    ccc0:	e0244003 	eor	r4, r4, r3
    ccc4:	e58d10c0 	str	r1, [sp, #192]	; 0xc0
    ccc8:	e1a03c21 	lsr	r3, r1, #24
    cccc:	e7991105 	ldr	r1, [r9, r5, lsl #2]
    ccd0:	e0244001 	eor	r4, r4, r1
    ccd4:	e7981106 	ldr	r1, [r8, r6, lsl #2]
    ccd8:	e0244001 	eor	r4, r4, r1
    ccdc:	e79b1103 	ldr	r1, [fp, r3, lsl #2]
    cce0:	e0244001 	eor	r4, r4, r1
    cce4:	e58d40c4 	str	r4, [sp, #196]	; 0xc4
    cce8:	1a00036e 	bne	daa8 <run+0x146c>
    ccec:	e59dc050 	ldr	ip, [sp, #80]	; 0x50
    ccf0:	e59de048 	ldr	lr, [sp, #72]	; 0x48
    ccf4:	e59d004c 	ldr	r0, [sp, #76]	; 0x4c
    ccf8:	e59d1034 	ldr	r1, [sp, #52]	; 0x34
    ccfc:	e79ac10c 	ldr	ip, [sl, ip, lsl #2]
    cd00:	e79be10e 	ldr	lr, [fp, lr, lsl #2]
    cd04:	e0211000 	eor	r1, r1, r0
    cd08:	e58de034 	str	lr, [sp, #52]	; 0x34
    cd0c:	e59d0030 	ldr	r0, [sp, #48]	; 0x30
    cd10:	e798e102 	ldr	lr, [r8, r2, lsl #2]
    cd14:	e58dc030 	str	ip, [sp, #48]	; 0x30
    cd18:	e59d21fc 	ldr	r2, [sp, #508]	; 0x1fc
    cd1c:	e798c103 	ldr	ip, [r8, r3, lsl #2]
    cd20:	e7e73454 	ubfx	r3, r4, #8, #8
    cd24:	e3520000 	cmp	r2, #0
    cd28:	e58d1058 	str	r1, [sp, #88]	; 0x58
    cd2c:	e7982103 	ldr	r2, [r8, r3, lsl #2]
    cd30:	e59d3028 	ldr	r3, [sp, #40]	; 0x28
    cd34:	e79a0100 	ldr	r0, [sl, r0, lsl #2]
    cd38:	e79a1103 	ldr	r1, [sl, r3, lsl #2]
    cd3c:	e59d303c 	ldr	r3, [sp, #60]	; 0x3c
    cd40:	e58d004c 	str	r0, [sp, #76]	; 0x4c
    cd44:	e0233001 	eor	r3, r3, r1
    cd48:	e79b6106 	ldr	r6, [fp, r6, lsl #2]
    cd4c:	e1a01003 	mov	r1, r3
    cd50:	e59d3020 	ldr	r3, [sp, #32]
    cd54:	e7993103 	ldr	r3, [r9, r3, lsl #2]
    cd58:	e0233000 	eor	r3, r3, r0
    cd5c:	e0233002 	eor	r3, r3, r2
    cd60:	e6ef2074 	uxtb	r2, r4
    cd64:	e59d0030 	ldr	r0, [sp, #48]	; 0x30
    cd68:	e79b2102 	ldr	r2, [fp, r2, lsl #2]
    cd6c:	e0233002 	eor	r3, r3, r2
    cd70:	e59d202c 	ldr	r2, [sp, #44]	; 0x2c
    cd74:	e58d303c 	str	r3, [sp, #60]	; 0x3c
    cd78:	e7992102 	ldr	r2, [r9, r2, lsl #2]
    cd7c:	e0222000 	eor	r2, r2, r0
    cd80:	e59d0034 	ldr	r0, [sp, #52]	; 0x34
    cd84:	e0222000 	eor	r2, r2, r0
    cd88:	e022200e 	eor	r2, r2, lr
    cd8c:	e0222006 	eor	r2, r2, r6
    cd90:	e59d6018 	ldr	r6, [sp, #24]
    cd94:	e1a00c24 	lsr	r0, r4, #24
    cd98:	e586201c 	str	r2, [r6, #28]
    cd9c:	e79a2105 	ldr	r2, [sl, r5, lsl #2]
    cda0:	e79b5105 	ldr	r5, [fp, r5, lsl #2]
    cda4:	e0211002 	eor	r1, r1, r2
    cda8:	e7e72854 	ubfx	r2, r4, #16, #8
    cdac:	e79be102 	ldr	lr, [fp, r2, lsl #2]
    cdb0:	e59d2024 	ldr	r2, [sp, #36]	; 0x24
    cdb4:	e59d3058 	ldr	r3, [sp, #88]	; 0x58
    cdb8:	e7982102 	ldr	r2, [r8, r2, lsl #2]
    cdbc:	e0222003 	eor	r2, r2, r3
    cdc0:	e022200c 	eor	r2, r2, ip
    cdc4:	e0222005 	eor	r2, r2, r5
    cdc8:	e5862018 	str	r2, [r6, #24]
    cdcc:	e7982100 	ldr	r2, [r8, r0, lsl #2]
    cdd0:	e59d303c 	ldr	r3, [sp, #60]	; 0x3c
    cdd4:	e0211002 	eor	r1, r1, r2
    cdd8:	e7992100 	ldr	r2, [r9, r0, lsl #2]
    cddc:	e02ee001 	eor	lr, lr, r1
    cde0:	e0233002 	eor	r3, r3, r2
    cde4:	e5863014 	str	r3, [r6, #20]
    cde8:	e59d301c 	ldr	r3, [sp, #28]
    cdec:	e586e010 	str	lr, [r6, #16]
    cdf0:	e2831008 	add	r1, r3, #8
    cdf4:	e283200b 	add	r2, r3, #11
    cdf8:	1a000315 	bne	da54 <run+0x1418>
    cdfc:	e59d3034 	ldr	r3, [sp, #52]	; 0x34
    ce00:	e59d1030 	ldr	r1, [sp, #48]	; 0x30
    ce04:	e59d204c 	ldr	r2, [sp, #76]	; 0x4c
    ce08:	e0211003 	eor	r1, r1, r3
    ce0c:	e59d3040 	ldr	r3, [sp, #64]	; 0x40
    ce10:	e0233002 	eor	r3, r3, r2
    ce14:	e59d2020 	ldr	r2, [sp, #32]
    ce18:	e7982102 	ldr	r2, [r8, r2, lsl #2]
    ce1c:	e0211002 	eor	r1, r1, r2
    ce20:	e59d2044 	ldr	r2, [sp, #68]	; 0x44
    ce24:	e7992102 	ldr	r2, [r9, r2, lsl #2]
    ce28:	e0211002 	eor	r1, r1, r2
    ce2c:	e59d202c 	ldr	r2, [sp, #44]	; 0x2c
    ce30:	e7982102 	ldr	r2, [r8, r2, lsl #2]
    ce34:	e0211002 	eor	r1, r1, r2
    ce38:	e59d2054 	ldr	r2, [sp, #84]	; 0x54
    ce3c:	e0211002 	eor	r1, r1, r2
    ce40:	e59d2024 	ldr	r2, [sp, #36]	; 0x24
    ce44:	e7e7c851 	ubfx	ip, r1, #16, #8
    ce48:	e79be102 	ldr	lr, [fp, r2, lsl #2]
    ce4c:	e59d2028 	ldr	r2, [sp, #40]	; 0x28
    ce50:	e798510c 	ldr	r5, [r8, ip, lsl #2]
    ce54:	e7992102 	ldr	r2, [r9, r2, lsl #2]
    ce58:	e7e70451 	ubfx	r0, r1, #8, #8
    ce5c:	e0244002 	eor	r4, r4, r2
    ce60:	e59d21fc 	ldr	r2, [sp, #508]	; 0x1fc
    ce64:	e02ee007 	eor	lr, lr, r7
    ce68:	e58d10a8 	str	r1, [sp, #168]	; 0xa8
    ce6c:	e3520000 	cmp	r2, #0
    ce70:	e1a02c21 	lsr	r2, r1, #24
    ce74:	e6ef1071 	uxtb	r1, r1
    ce78:	e58d5020 	str	r5, [sp, #32]
    ce7c:	e79ac102 	ldr	ip, [sl, r2, lsl #2]
    ce80:	e79b1101 	ldr	r1, [fp, r1, lsl #2]
    ce84:	e02ee00c 	eor	lr, lr, ip
    ce88:	e799c100 	ldr	ip, [r9, r0, lsl #2]
    ce8c:	e02cc00e 	eor	ip, ip, lr
    ce90:	e02cc005 	eor	ip, ip, r5
    ce94:	e02cc001 	eor	ip, ip, r1
    ce98:	e7e7e85c 	ubfx	lr, ip, #16, #8
    ce9c:	e6ef107c 	uxtb	r1, ip
    cea0:	e58dc0ac 	str	ip, [sp, #172]	; 0xac
    cea4:	e79a1101 	ldr	r1, [sl, r1, lsl #2]
    cea8:	e798510e 	ldr	r5, [r8, lr, lsl #2]
    ceac:	e0233001 	eor	r3, r3, r1
    ceb0:	e7e7145c 	ubfx	r1, ip, #8, #8
    ceb4:	e1a0cc2c 	lsr	ip, ip, #24
    ceb8:	e58d5024 	str	r5, [sp, #36]	; 0x24
    cebc:	e79be10c 	ldr	lr, [fp, ip, lsl #2]
    cec0:	e799c101 	ldr	ip, [r9, r1, lsl #2]
    cec4:	e023300c 	eor	r3, r3, ip
    cec8:	e0233005 	eor	r3, r3, r5
    cecc:	e023300e 	eor	r3, r3, lr
    ced0:	e7e7c453 	ubfx	ip, r3, #8, #8
    ced4:	e58d30b0 	str	r3, [sp, #176]	; 0xb0
    ced8:	e79a510c 	ldr	r5, [sl, ip, lsl #2]
    cedc:	e7e7c853 	ubfx	ip, r3, #16, #8
    cee0:	e0244005 	eor	r4, r4, r5
    cee4:	e799c10c 	ldr	ip, [r9, ip, lsl #2]
    cee8:	e024400c 	eor	r4, r4, ip
    ceec:	e58dc028 	str	ip, [sp, #40]	; 0x28
    cef0:	e6efc073 	uxtb	ip, r3
    cef4:	e1a03c23 	lsr	r3, r3, #24
    cef8:	e798c10c 	ldr	ip, [r8, ip, lsl #2]
    cefc:	e024400c 	eor	r4, r4, ip
    cf00:	e79bc103 	ldr	ip, [fp, r3, lsl #2]
    cf04:	e024400c 	eor	r4, r4, ip
    cf08:	e58d40b4 	str	r4, [sp, #180]	; 0xb4
    cf0c:	1a0002af 	bne	d9d0 <run+0x1394>
    cf10:	e79bc101 	ldr	ip, [fp, r1, lsl #2]
    cf14:	e79b0100 	ldr	r0, [fp, r0, lsl #2]
    cf18:	e5dd10b5 	ldrb	r1, [sp, #181]	; 0xb5
    cf1c:	e79b2102 	ldr	r2, [fp, r2, lsl #2]
    cf20:	e58d0030 	str	r0, [sp, #48]	; 0x30
    cf24:	e79a0101 	ldr	r0, [sl, r1, lsl #2]
    cf28:	e5dd10b4 	ldrb	r1, [sp, #180]	; 0xb4
    cf2c:	e5dd70ac 	ldrb	r7, [sp, #172]	; 0xac
    cf30:	e7991101 	ldr	r1, [r9, r1, lsl #2]
    cf34:	e58d2034 	str	r2, [sp, #52]	; 0x34
    cf38:	e5dd20b0 	ldrb	r2, [sp, #176]	; 0xb0
    cf3c:	e0200001 	eor	r0, r0, r1
    cf40:	e58dc02c 	str	ip, [sp, #44]	; 0x2c
    cf44:	e7981107 	ldr	r1, [r8, r7, lsl #2]
    cf48:	e799c102 	ldr	ip, [r9, r2, lsl #2]
    cf4c:	e7997107 	ldr	r7, [r9, r7, lsl #2]
    cf50:	e5dd60a8 	ldrb	r6, [sp, #168]	; 0xa8
    cf54:	e02cc007 	eor	ip, ip, r7
    cf58:	e02cc005 	eor	ip, ip, r5
    cf5c:	e59d5024 	ldr	r5, [sp, #36]	; 0x24
    cf60:	e59d41fc 	ldr	r4, [sp, #508]	; 0x1fc
    cf64:	e02cc005 	eor	ip, ip, r5
    cf68:	e59d5018 	ldr	r5, [sp, #24]
    cf6c:	e3540000 	cmp	r4, #0
    cf70:	e02cc00e 	eor	ip, ip, lr
    cf74:	e585c024 	str	ip, [r5, #36]	; 0x24
    cf78:	e79ac106 	ldr	ip, [sl, r6, lsl #2]
    cf7c:	e5dd40b6 	ldrb	r4, [sp, #182]	; 0xb6
    cf80:	e5dd20b7 	ldrb	r2, [sp, #183]	; 0xb7
    cf84:	e021100c 	eor	r1, r1, ip
    cf88:	e59dc028 	ldr	ip, [sp, #40]	; 0x28
    cf8c:	e799e104 	ldr	lr, [r9, r4, lsl #2]
    cf90:	e79a2102 	ldr	r2, [sl, r2, lsl #2]
    cf94:	e02cc001 	eor	ip, ip, r1
    cf98:	e7981106 	ldr	r1, [r8, r6, lsl #2]
    cf9c:	e022200e 	eor	r2, r2, lr
    cfa0:	e0222001 	eor	r2, r2, r1
    cfa4:	e59d1030 	ldr	r1, [sp, #48]	; 0x30
    cfa8:	e59de020 	ldr	lr, [sp, #32]
    cfac:	e0222001 	eor	r2, r2, r1
    cfb0:	e79b1104 	ldr	r1, [fp, r4, lsl #2]
    cfb4:	e0211000 	eor	r1, r1, r0
    cfb8:	e59d0034 	ldr	r0, [sp, #52]	; 0x34
    cfbc:	e021100e 	eor	r1, r1, lr
    cfc0:	e0211000 	eor	r1, r1, r0
    cfc4:	e585102c 	str	r1, [r5, #44]	; 0x2c
    cfc8:	e79a1103 	ldr	r1, [sl, r3, lsl #2]
    cfcc:	e7983103 	ldr	r3, [r8, r3, lsl #2]
    cfd0:	e021100c 	eor	r1, r1, ip
    cfd4:	e59dc02c 	ldr	ip, [sp, #44]	; 0x2c
    cfd8:	e0222003 	eor	r2, r2, r3
    cfdc:	e59d301c 	ldr	r3, [sp, #28]
    cfe0:	e021100c 	eor	r1, r1, ip
    cfe4:	e5851020 	str	r1, [r5, #32]
    cfe8:	e283100c 	add	r1, r3, #12
    cfec:	e5852028 	str	r2, [r5, #40]	; 0x28
    cff0:	e283200f 	add	r2, r3, #15
    cff4:	1a0001f4 	bne	d7cc <run+0x1190>
    cff8:	e59d3038 	ldr	r3, [sp, #56]	; 0x38
    cffc:	e3530001 	cmp	r3, #1
    d000:	e59d301c 	ldr	r3, [sp, #28]
    d004:	e2833010 	add	r3, r3, #16
    d008:	e58d301c 	str	r3, [sp, #28]
    d00c:	e59d3018 	ldr	r3, [sp, #24]
    d010:	e2833040 	add	r3, r3, #64	; 0x40
    d014:	e58d3018 	str	r3, [sp, #24]
    d018:	1a000146 	bne	d538 <run+0xefc>
    d01c:	e3a02040 	mov	r2, #64	; 0x40
    d020:	e3a01000 	mov	r1, #0
    d024:	e28d00cc 	add	r0, sp, #204	; 0xcc
    d028:	eb000b4a 	bl	fd58 <memset>
    d02c:	e59d306c 	ldr	r3, [sp, #108]	; 0x6c
    d030:	e3a02040 	mov	r2, #64	; 0x40
    d034:	e3a01000 	mov	r1, #0
    d038:	e28d0e11 	add	r0, sp, #272	; 0x110
    d03c:	e58d30c8 	str	r3, [sp, #200]	; 0xc8
    d040:	eb000b44 	bl	fd58 <memset>
    d044:	e59d31fc 	ldr	r3, [sp, #508]	; 0x1fc
    d048:	e3530000 	cmp	r3, #0
    d04c:	1a0001c1 	bne	d758 <run+0x111c>
    d050:	e59d2064 	ldr	r2, [sp, #100]	; 0x64
    d054:	e28d7f43 	add	r7, sp, #268	; 0x10c
    d058:	e59f35f8 	ldr	r3, [pc, #1528]	; d658 <run+0x101c>
    d05c:	e3a04001 	mov	r4, #1
    d060:	e59d5068 	ldr	r5, [sp, #104]	; 0x68
    d064:	e7923003 	ldr	r3, [r2, r3]
    d068:	e59d6070 	ldr	r6, [sp, #112]	; 0x70
    d06c:	e58d3020 	str	r3, [sp, #32]
    d070:	e59f35e4 	ldr	r3, [pc, #1508]	; d65c <run+0x1020>
    d074:	e7923003 	ldr	r3, [r2, r3]
    d078:	e58d3024 	str	r3, [sp, #36]	; 0x24
    d07c:	e59f35dc 	ldr	r3, [pc, #1500]	; d660 <run+0x1024>
    d080:	e7923003 	ldr	r3, [r2, r3]
    d084:	e58d3028 	str	r3, [sp, #40]	; 0x28
    d088:	e59f35d4 	ldr	r3, [pc, #1492]	; d664 <run+0x1028>
    d08c:	e7923003 	ldr	r3, [r2, r3]
    d090:	e58d7018 	str	r7, [sp, #24]
    d094:	e58d302c 	str	r3, [sp, #44]	; 0x2c
    d098:	e30a3aab 	movw	r3, #43691	; 0xaaab
    d09c:	e34a3aaa 	movt	r3, #43690	; 0xaaaa
    d0a0:	e58d301c 	str	r3, [sp, #28]
    d0a4:	e59f35bc 	ldr	r3, [pc, #1468]	; d668 <run+0x102c>
    d0a8:	e08f3003 	add	r3, pc, r3
    d0ac:	e58d3034 	str	r3, [sp, #52]	; 0x34
    d0b0:	e59f35b4 	ldr	r3, [pc, #1460]	; d66c <run+0x1030>
    d0b4:	e08f3003 	add	r3, pc, r3
    d0b8:	e58d3038 	str	r3, [sp, #56]	; 0x38
    d0bc:	ea000021 	b	d148 <run+0xb0c>
    d0c0:	e0899006 	add	r9, r9, r6
    d0c4:	e26aa020 	rsb	sl, sl, #32
    d0c8:	e59d2024 	ldr	r2, [sp, #36]	; 0x24
    d0cc:	e1a09a79 	ror	r9, r9, sl
    d0d0:	e7e73859 	ubfx	r3, r9, #16, #8
    d0d4:	e59d1020 	ldr	r1, [sp, #32]
    d0d8:	e7923103 	ldr	r3, [r2, r3, lsl #2]
    d0dc:	e1a02c29 	lsr	r2, r9, #24
    d0e0:	e7912102 	ldr	r2, [r1, r2, lsl #2]
    d0e4:	e59d1028 	ldr	r1, [sp, #40]	; 0x28
    d0e8:	e0233002 	eor	r3, r3, r2
    d0ec:	e7e72459 	ubfx	r2, r9, #8, #8
    d0f0:	e6ef9079 	uxtb	r9, r9
    d0f4:	e7912102 	ldr	r2, [r1, r2, lsl #2]
    d0f8:	e0433002 	sub	r3, r3, r2
    d0fc:	e59d202c 	ldr	r2, [sp, #44]	; 0x2c
    d100:	e7922109 	ldr	r2, [r2, r9, lsl #2]
    d104:	e0833002 	add	r3, r3, r2
    d108:	e5952000 	ldr	r2, [r5]
    d10c:	e5856004 	str	r6, [r5, #4]
    d110:	e1a06004 	mov	r6, r4
    d114:	e0233002 	eor	r3, r3, r2
    d118:	e59d2018 	ldr	r2, [sp, #24]
    d11c:	e5823004 	str	r3, [r2, #4]
    d120:	e59d3018 	ldr	r3, [sp, #24]
    d124:	e2844001 	add	r4, r4, #1
    d128:	e3540011 	cmp	r4, #17
    d12c:	e2855004 	add	r5, r5, #4
    d130:	e2833004 	add	r3, r3, #4
    d134:	e58d3018 	str	r3, [sp, #24]
    d138:	0a00012b 	beq	d5ec <run+0xfb0>
    d13c:	e28d3e1d 	add	r3, sp, #464	; 0x1d0
    d140:	e0836106 	add	r6, r3, r6, lsl #2
    d144:	e51660c4 	ldr	r6, [r6, #-196]	; 0xffffff3c
    d148:	e59d31f8 	ldr	r3, [sp, #504]	; 0x1f8
    d14c:	e2448001 	sub	r8, r4, #1
    d150:	e3530000 	cmp	r3, #0
    d154:	e59d31fc 	ldr	r3, [sp, #508]	; 0x1fc
    d158:	12647010 	rsbne	r7, r4, #16
    d15c:	01a07008 	moveq	r7, r8
    d160:	e3530000 	cmp	r3, #0
    d164:	e28d3e1d 	add	r3, sp, #464	; 0x1d0
    d168:	e0833107 	add	r3, r3, r7, lsl #2
    d16c:	e287b010 	add	fp, r7, #16
    d170:	e5139080 	ldr	r9, [r3, #-128]	; 0xffffff80
    d174:	e28d3e1d 	add	r3, sp, #464	; 0x1d0
    d178:	e083310b 	add	r3, r3, fp, lsl #2
    d17c:	e5133080 	ldr	r3, [r3, #-128]	; 0xffffff80
    d180:	e203a01f 	and	sl, r3, #31
    d184:	1a00001e 	bne	d204 <run+0xbc8>
    d188:	e59d301c 	ldr	r3, [sp, #28]
    d18c:	e0832793 	umull	r2, r3, r3, r7
    d190:	e3a02003 	mov	r2, #3
    d194:	e1a030a3 	lsr	r3, r3, #1
    d198:	e0637392 	mls	r3, r2, r3, r7
    d19c:	e3530001 	cmp	r3, #1
    d1a0:	0a000076 	beq	d380 <run+0xd44>
    d1a4:	e3530002 	cmp	r3, #2
    d1a8:	1affffc4 	bne	d0c0 <run+0xa84>
    d1ac:	e59d31fc 	ldr	r3, [sp, #508]	; 0x1fc
    d1b0:	e0497006 	sub	r7, r9, r6
    d1b4:	e3530000 	cmp	r3, #0
    d1b8:	e26a3020 	rsb	r3, sl, #32
    d1bc:	e1a07377 	ror	r7, r7, r3
    d1c0:	1a0000b0 	bne	d488 <run+0xe4c>
    d1c4:	e7e73857 	ubfx	r3, r7, #16, #8
    d1c8:	e59d2024 	ldr	r2, [sp, #36]	; 0x24
    d1cc:	e59d1020 	ldr	r1, [sp, #32]
    d1d0:	e7923103 	ldr	r3, [r2, r3, lsl #2]
    d1d4:	e1a02c27 	lsr	r2, r7, #24
    d1d8:	e7912102 	ldr	r2, [r1, r2, lsl #2]
    d1dc:	e59d1028 	ldr	r1, [sp, #40]	; 0x28
    d1e0:	e0833002 	add	r3, r3, r2
    d1e4:	e7e72457 	ubfx	r2, r7, #8, #8
    d1e8:	e6ef7077 	uxtb	r7, r7
    d1ec:	e7912102 	ldr	r2, [r1, r2, lsl #2]
    d1f0:	e0233002 	eor	r3, r3, r2
    d1f4:	e59d202c 	ldr	r2, [sp, #44]	; 0x2c
    d1f8:	e7922107 	ldr	r2, [r2, r7, lsl #2]
    d1fc:	e0433002 	sub	r3, r3, r2
    d200:	eaffffc0 	b	d108 <run+0xacc>
    d204:	e59f0464 	ldr	r0, [pc, #1124]	; d670 <run+0x1034>
    d208:	e1a01008 	mov	r1, r8
    d20c:	e58d3030 	str	r3, [sp, #48]	; 0x30
    d210:	e08f0000 	add	r0, pc, r0
    d214:	eb0013d2 	bl	12164 <tfp_printf>
    d218:	e59d3030 	ldr	r3, [sp, #48]	; 0x30
    d21c:	e1a01007 	mov	r1, r7
    d220:	e59f044c 	ldr	r0, [pc, #1100]	; d674 <run+0x1038>
    d224:	e1a02009 	mov	r2, r9
    d228:	e88d0408 	stm	sp, {r3, sl}
    d22c:	e08f0000 	add	r0, pc, r0
    d230:	e1a0300b 	mov	r3, fp
    d234:	eb0013ca 	bl	12164 <tfp_printf>
    d238:	e59f0438 	ldr	r0, [pc, #1080]	; d678 <run+0x103c>
    d23c:	e1a02006 	mov	r2, r6
    d240:	e5951000 	ldr	r1, [r5]
    d244:	e08f0000 	add	r0, pc, r0
    d248:	eb0013c5 	bl	12164 <tfp_printf>
    d24c:	e59d301c 	ldr	r3, [sp, #28]
    d250:	e0832793 	umull	r2, r3, r3, r7
    d254:	e3a02003 	mov	r2, #3
    d258:	e1a030a3 	lsr	r3, r3, #1
    d25c:	e0637392 	mls	r3, r2, r3, r7
    d260:	e3530001 	cmp	r3, #1
    d264:	0a000058 	beq	d3cc <run+0xd90>
    d268:	e3530002 	cmp	r3, #2
    d26c:	0affffce 	beq	d1ac <run+0xb70>
    d270:	e0897006 	add	r7, r9, r6
    d274:	e26a3020 	rsb	r3, sl, #32
    d278:	e59f03fc 	ldr	r0, [pc, #1020]	; d67c <run+0x1040>
    d27c:	e1a01009 	mov	r1, r9
    d280:	e1a07377 	ror	r7, r7, r3
    d284:	e1a02006 	mov	r2, r6
    d288:	e08f0000 	add	r0, pc, r0
    d28c:	e1a0300a 	mov	r3, sl
    d290:	e58d7000 	str	r7, [sp]
    d294:	e7e7a857 	ubfx	sl, r7, #16, #8
    d298:	eb0013b1 	bl	12164 <tfp_printf>
    d29c:	e59f03dc 	ldr	r0, [pc, #988]	; d680 <run+0x1044>
    d2a0:	e1a0200a 	mov	r2, sl
    d2a4:	e1a09c27 	lsr	r9, r7, #24
    d2a8:	e7e7b457 	ubfx	fp, r7, #8, #8
    d2ac:	e6ef7077 	uxtb	r7, r7
    d2b0:	e08f0000 	add	r0, pc, r0
    d2b4:	e1a0300b 	mov	r3, fp
    d2b8:	e58d7000 	str	r7, [sp]
    d2bc:	e1a01009 	mov	r1, r9
    d2c0:	eb0013a7 	bl	12164 <tfp_printf>
    d2c4:	e59d302c 	ldr	r3, [sp, #44]	; 0x2c
    d2c8:	e58d700c 	str	r7, [sp, #12]
    d2cc:	e7930107 	ldr	r0, [r3, r7, lsl #2]
    d2d0:	e59d3028 	ldr	r3, [sp, #40]	; 0x28
    d2d4:	e58d0010 	str	r0, [sp, #16]
    d2d8:	e793c10b 	ldr	ip, [r3, fp, lsl #2]
    d2dc:	e59d3020 	ldr	r3, [sp, #32]
    d2e0:	e58db004 	str	fp, [sp, #4]
    d2e4:	e7932109 	ldr	r2, [r3, r9, lsl #2]
    d2e8:	e59d3024 	ldr	r3, [sp, #36]	; 0x24
    d2ec:	e58dc008 	str	ip, [sp, #8]
    d2f0:	e793110a 	ldr	r1, [r3, sl, lsl #2]
    d2f4:	e1a0300a 	mov	r3, sl
    d2f8:	e0227001 	eor	r7, r2, r1
    d2fc:	e047700c 	sub	r7, r7, ip
    d300:	e0877000 	add	r7, r7, r0
    d304:	e59f0378 	ldr	r0, [pc, #888]	; d684 <run+0x1048>
    d308:	e58d1000 	str	r1, [sp]
    d30c:	e1a01009 	mov	r1, r9
    d310:	e08f0000 	add	r0, pc, r0
    d314:	eb001392 	bl	12164 <tfp_printf>
    d318:	e59f0368 	ldr	r0, [pc, #872]	; d688 <run+0x104c>
    d31c:	e1a01007 	mov	r1, r7
    d320:	e08f0000 	add	r0, pc, r0
    d324:	eb00138e 	bl	12164 <tfp_printf>
    d328:	e5959000 	ldr	r9, [r5]
    d32c:	e1a01008 	mov	r1, r8
    d330:	e59d3018 	ldr	r3, [sp, #24]
    d334:	e027a009 	eor	sl, r7, r9
    d338:	e59d0034 	ldr	r0, [sp, #52]	; 0x34
    d33c:	e5856004 	str	r6, [r5, #4]
    d340:	e583a004 	str	sl, [r3, #4]
    d344:	eb001386 	bl	12164 <tfp_printf>
    d348:	e59d0038 	ldr	r0, [sp, #56]	; 0x38
    d34c:	e1a03006 	mov	r3, r6
    d350:	e1a02008 	mov	r2, r8
    d354:	e1a01004 	mov	r1, r4
    d358:	e1a06004 	mov	r6, r4
    d35c:	eb001380 	bl	12164 <tfp_printf>
    d360:	e59f0324 	ldr	r0, [pc, #804]	; d68c <run+0x1050>
    d364:	e1a03009 	mov	r3, r9
    d368:	e1a02008 	mov	r2, r8
    d36c:	e1a01004 	mov	r1, r4
    d370:	e08f0000 	add	r0, pc, r0
    d374:	e88d0480 	stm	sp, {r7, sl}
    d378:	eb001379 	bl	12164 <tfp_printf>
    d37c:	eaffff67 	b	d120 <run+0xae4>
    d380:	e0299006 	eor	r9, r9, r6
    d384:	e26aa020 	rsb	sl, sl, #32
    d388:	e59d2028 	ldr	r2, [sp, #40]	; 0x28
    d38c:	e1a09a79 	ror	r9, r9, sl
    d390:	e7e73459 	ubfx	r3, r9, #8, #8
    d394:	e59d1020 	ldr	r1, [sp, #32]
    d398:	e7923103 	ldr	r3, [r2, r3, lsl #2]
    d39c:	e1a02c29 	lsr	r2, r9, #24
    d3a0:	e7912102 	ldr	r2, [r1, r2, lsl #2]
    d3a4:	e59d1024 	ldr	r1, [sp, #36]	; 0x24
    d3a8:	e0833002 	add	r3, r3, r2
    d3ac:	e7e72859 	ubfx	r2, r9, #16, #8
    d3b0:	e6ef9079 	uxtb	r9, r9
    d3b4:	e7912102 	ldr	r2, [r1, r2, lsl #2]
    d3b8:	e0433002 	sub	r3, r3, r2
    d3bc:	e59d202c 	ldr	r2, [sp, #44]	; 0x2c
    d3c0:	e7922109 	ldr	r2, [r2, r9, lsl #2]
    d3c4:	e0233002 	eor	r3, r3, r2
    d3c8:	eaffff4e 	b	d108 <run+0xacc>
    d3cc:	e0297006 	eor	r7, r9, r6
    d3d0:	e26a3020 	rsb	r3, sl, #32
    d3d4:	e59f02b4 	ldr	r0, [pc, #692]	; d690 <run+0x1054>
    d3d8:	e1a01009 	mov	r1, r9
    d3dc:	e1a07377 	ror	r7, r7, r3
    d3e0:	e1a02006 	mov	r2, r6
    d3e4:	e58d7000 	str	r7, [sp]
    d3e8:	e1a0300a 	mov	r3, sl
    d3ec:	e08f0000 	add	r0, pc, r0
    d3f0:	e7e7a857 	ubfx	sl, r7, #16, #8
    d3f4:	eb00135a 	bl	12164 <tfp_printf>
    d3f8:	e59f0294 	ldr	r0, [pc, #660]	; d694 <run+0x1058>
    d3fc:	e1a0200a 	mov	r2, sl
    d400:	e1a09c27 	lsr	r9, r7, #24
    d404:	e7e7b457 	ubfx	fp, r7, #8, #8
    d408:	e6ef7077 	uxtb	r7, r7
    d40c:	e58d7000 	str	r7, [sp]
    d410:	e1a0300b 	mov	r3, fp
    d414:	e08f0000 	add	r0, pc, r0
    d418:	e1a01009 	mov	r1, r9
    d41c:	eb001350 	bl	12164 <tfp_printf>
    d420:	e59d302c 	ldr	r3, [sp, #44]	; 0x2c
    d424:	e59d2020 	ldr	r2, [sp, #32]
    d428:	e7931107 	ldr	r1, [r3, r7, lsl #2]
    d42c:	e59d3028 	ldr	r3, [sp, #40]	; 0x28
    d430:	e7922109 	ldr	r2, [r2, r9, lsl #2]
    d434:	e793310b 	ldr	r3, [r3, fp, lsl #2]
    d438:	e58d700c 	str	r7, [sp, #12]
    d43c:	e58d3008 	str	r3, [sp, #8]
    d440:	e0827003 	add	r7, r2, r3
    d444:	e59d3024 	ldr	r3, [sp, #36]	; 0x24
    d448:	e58d1010 	str	r1, [sp, #16]
    d44c:	e793010a 	ldr	r0, [r3, sl, lsl #2]
    d450:	e1a0300a 	mov	r3, sl
    d454:	e58db004 	str	fp, [sp, #4]
    d458:	e58d0000 	str	r0, [sp]
    d45c:	e0477000 	sub	r7, r7, r0
    d460:	e59f0230 	ldr	r0, [pc, #560]	; d698 <run+0x105c>
    d464:	e0277001 	eor	r7, r7, r1
    d468:	e1a01009 	mov	r1, r9
    d46c:	e08f0000 	add	r0, pc, r0
    d470:	eb00133b 	bl	12164 <tfp_printf>
    d474:	e59f0220 	ldr	r0, [pc, #544]	; d69c <run+0x1060>
    d478:	e1a01007 	mov	r1, r7
    d47c:	e08f0000 	add	r0, pc, r0
    d480:	eb001337 	bl	12164 <tfp_printf>
    d484:	eaffffa7 	b	d328 <run+0xcec>
    d488:	e59f0210 	ldr	r0, [pc, #528]	; d6a0 <run+0x1064>
    d48c:	e1a0300a 	mov	r3, sl
    d490:	e58d7000 	str	r7, [sp]
    d494:	e1a01009 	mov	r1, r9
    d498:	e08f0000 	add	r0, pc, r0
    d49c:	e1a02006 	mov	r2, r6
    d4a0:	e7e7a857 	ubfx	sl, r7, #16, #8
    d4a4:	eb00132e 	bl	12164 <tfp_printf>
    d4a8:	e59f01f4 	ldr	r0, [pc, #500]	; d6a4 <run+0x1068>
    d4ac:	e1a0200a 	mov	r2, sl
    d4b0:	e1a09c27 	lsr	r9, r7, #24
    d4b4:	e7e7b457 	ubfx	fp, r7, #8, #8
    d4b8:	e6ef7077 	uxtb	r7, r7
    d4bc:	e58d7000 	str	r7, [sp]
    d4c0:	e1a0300b 	mov	r3, fp
    d4c4:	e08f0000 	add	r0, pc, r0
    d4c8:	e1a01009 	mov	r1, r9
    d4cc:	eb001324 	bl	12164 <tfp_printf>
    d4d0:	e59d302c 	ldr	r3, [sp, #44]	; 0x2c
    d4d4:	e58d700c 	str	r7, [sp, #12]
    d4d8:	e7930107 	ldr	r0, [r3, r7, lsl #2]
    d4dc:	e59d3028 	ldr	r3, [sp, #40]	; 0x28
    d4e0:	e58d0010 	str	r0, [sp, #16]
    d4e4:	e793c10b 	ldr	ip, [r3, fp, lsl #2]
    d4e8:	e59d3020 	ldr	r3, [sp, #32]
    d4ec:	e58db004 	str	fp, [sp, #4]
    d4f0:	e7932109 	ldr	r2, [r3, r9, lsl #2]
    d4f4:	e59d3024 	ldr	r3, [sp, #36]	; 0x24
    d4f8:	e58dc008 	str	ip, [sp, #8]
    d4fc:	e793110a 	ldr	r1, [r3, sl, lsl #2]
    d500:	e1a0300a 	mov	r3, sl
    d504:	e0817002 	add	r7, r1, r2
    d508:	e027700c 	eor	r7, r7, ip
    d50c:	e0477000 	sub	r7, r7, r0
    d510:	e59f0190 	ldr	r0, [pc, #400]	; d6a8 <run+0x106c>
    d514:	e58d1000 	str	r1, [sp]
    d518:	e1a01009 	mov	r1, r9
    d51c:	e08f0000 	add	r0, pc, r0
    d520:	eb00130f 	bl	12164 <tfp_printf>
    d524:	e59f0180 	ldr	r0, [pc, #384]	; d6ac <run+0x1070>
    d528:	e1a01007 	mov	r1, r7
    d52c:	e08f0000 	add	r0, pc, r0
    d530:	eb00130b 	bl	12164 <tfp_printf>
    d534:	eaffff7b 	b	d328 <run+0xcec>
    d538:	e3a03001 	mov	r3, #1
    d53c:	e58d3038 	str	r3, [sp, #56]	; 0x38
    d540:	e59d31fc 	ldr	r3, [sp, #508]	; 0x1fc
    d544:	e3530000 	cmp	r3, #0
    d548:	0afffc7b 	beq	c73c <run+0x100>
    d54c:	e59d1038 	ldr	r1, [sp, #56]	; 0x38
    d550:	e59d007c 	ldr	r0, [sp, #124]	; 0x7c
    d554:	e59f4154 	ldr	r4, [pc, #340]	; d6b0 <run+0x1074>
    d558:	eb001301 	bl	12164 <tfp_printf>
    d55c:	e59f0150 	ldr	r0, [pc, #336]	; d6b4 <run+0x1078>
    d560:	e59d5074 	ldr	r5, [sp, #116]	; 0x74
    d564:	e08f0000 	add	r0, pc, r0
    d568:	e08f4004 	add	r4, pc, r4
    d56c:	eb0012fc 	bl	12164 <tfp_printf>
    d570:	e59d6078 	ldr	r6, [sp, #120]	; 0x78
    d574:	e4951004 	ldr	r1, [r5], #4
    d578:	e1a00004 	mov	r0, r4
    d57c:	eb0012f8 	bl	12164 <tfp_printf>
    d580:	e1560005 	cmp	r6, r5
    d584:	1afffffa 	bne	d574 <run+0xf38>
    d588:	e59f0128 	ldr	r0, [pc, #296]	; d6b8 <run+0x107c>
    d58c:	e59f4128 	ldr	r4, [pc, #296]	; d6bc <run+0x1080>
    d590:	e08f0000 	add	r0, pc, r0
    d594:	e08f4004 	add	r4, pc, r4
    d598:	eb0012f1 	bl	12164 <tfp_printf>
    d59c:	e59f011c 	ldr	r0, [pc, #284]	; d6c0 <run+0x1084>
    d5a0:	e08f0000 	add	r0, pc, r0
    d5a4:	eb0012ee 	bl	12164 <tfp_printf>
    d5a8:	e59d3080 	ldr	r3, [sp, #128]	; 0x80
    d5ac:	e59d6084 	ldr	r6, [sp, #132]	; 0x84
    d5b0:	e2835008 	add	r5, r3, #8
    d5b4:	e3a0300b 	mov	r3, #11
    d5b8:	ea000000 	b	d5c0 <run+0xf84>
    d5bc:	e5f53001 	ldrb	r3, [r5, #1]!
    d5c0:	e2833e1d 	add	r3, r3, #464	; 0x1d0
    d5c4:	e1a00004 	mov	r0, r4
    d5c8:	e08d3003 	add	r3, sp, r3
    d5cc:	e5531128 	ldrb	r1, [r3, #-296]	; 0xfffffed8
    d5d0:	eb0012e3 	bl	12164 <tfp_printf>
    d5d4:	e1560005 	cmp	r6, r5
    d5d8:	1afffff7 	bne	d5bc <run+0xf80>
    d5dc:	e59f00e0 	ldr	r0, [pc, #224]	; d6c4 <run+0x1088>
    d5e0:	e08f0000 	add	r0, pc, r0
    d5e4:	eb0012de 	bl	12164 <tfp_printf>
    d5e8:	eafffc53 	b	c73c <run+0x100>
    d5ec:	e59d31fc 	ldr	r3, [sp, #508]	; 0x1fc
    d5f0:	e59d514c 	ldr	r5, [sp, #332]	; 0x14c
    d5f4:	e59d4108 	ldr	r4, [sp, #264]	; 0x108
    d5f8:	e3530000 	cmp	r3, #0
    d5fc:	1a000005 	bne	d618 <run+0xfdc>
    d600:	e59d3060 	ldr	r3, [sp, #96]	; 0x60
    d604:	e5835000 	str	r5, [r3]
    d608:	e1a00003 	mov	r0, r3
    d60c:	e5834004 	str	r4, [r3, #4]
    d610:	e28ddf75 	add	sp, sp, #468	; 0x1d4
    d614:	e8bd8ff0 	pop	{r4, r5, r6, r7, r8, r9, sl, fp, pc}
    d618:	e59f00a8 	ldr	r0, [pc, #168]	; d6c8 <run+0x108c>
    d61c:	e08f0000 	add	r0, pc, r0
    d620:	eb0012cf 	bl	12164 <tfp_printf>
    d624:	e59f00a0 	ldr	r0, [pc, #160]	; d6cc <run+0x1090>
    d628:	e1a02004 	mov	r2, r4
    d62c:	e1a01005 	mov	r1, r5
    d630:	e08f0000 	add	r0, pc, r0
    d634:	eb0012ca 	bl	12164 <tfp_printf>
    d638:	eafffff0 	b	d600 <run+0xfc4>
    d63c:	0002f4d0 	.word	0x0002f4d0
    d640:	000078a0 	.word	0x000078a0
    d644:	0000acbc 	.word	0x0000acbc
    d648:	00000050 	.word	0x00000050
    d64c:	00000014 	.word	0x00000014
    d650:	00000028 	.word	0x00000028
    d654:	00000010 	.word	0x00000010
    d658:	00000024 	.word	0x00000024
    d65c:	0000004c 	.word	0x0000004c
    d660:	00000000 	.word	0x00000000
    d664:	00000044 	.word	0x00000044
    d668:	0000a51c 	.word	0x0000a51c
    d66c:	0000a524 	.word	0x0000a524
    d670:	0000a268 	.word	0x0000a268
    d674:	0000a25c 	.word	0x0000a25c
    d678:	0000a274 	.word	0x0000a274
    d67c:	0000a394 	.word	0x0000a394
    d680:	0000a264 	.word	0x0000a264
    d684:	0000a224 	.word	0x0000a224
    d688:	0000a25c 	.word	0x0000a25c
    d68c:	0000a280 	.word	0x0000a280
    d690:	0000a270 	.word	0x0000a270
    d694:	0000a100 	.word	0x0000a100
    d698:	0000a0c8 	.word	0x0000a0c8
    d69c:	0000a100 	.word	0x0000a100
    d6a0:	0000a038 	.word	0x0000a038
    d6a4:	0000a050 	.word	0x0000a050
    d6a8:	0000a018 	.word	0x0000a018
    d6ac:	0000a050 	.word	0x0000a050
    d6b0:	00009e54 	.word	0x00009e54
    d6b4:	00009e44 	.word	0x00009e44
    d6b8:	00009d74 	.word	0x00009d74
    d6bc:	00009e40 	.word	0x00009e40
    d6c0:	00009e24 	.word	0x00009e24
    d6c4:	00009d24 	.word	0x00009d24
    d6c8:	00009f78 	.word	0x00009f78
    d6cc:	00009f7c 	.word	0x00009f7c
    d6d0:	00009d00 	.word	0x00009d00
    d6d4:	00009ba8 	.word	0x00009ba8
    d6d8:	00009bcc 	.word	0x00009bcc
    d6dc:	00009bb4 	.word	0x00009bb4
    d6e0:	00009ba4 	.word	0x00009ba4
    d6e4:	00009bb4 	.word	0x00009bb4
    d6e8:	00009c1c 	.word	0x00009c1c
    d6ec:	00009be4 	.word	0x00009be4
    d6f0:	00009b00 	.word	0x00009b00
    d6f4:	00009bc0 	.word	0x00009bc0
    d6f8:	00009b9c 	.word	0x00009b9c
    d6fc:	00009a84 	.word	0x00009a84
    d700:	00009b6c 	.word	0x00009b6c
    d704:	00009b0c 	.word	0x00009b0c
    d708:	00009a2c 	.word	0x00009a2c
    d70c:	00009acc 	.word	0x00009acc
    d710:	00009a94 	.word	0x00009a94
    d714:	000099a4 	.word	0x000099a4
    d718:	000065f0 	.word	0x000065f0
    d71c:	00009a84 	.word	0x00009a84
    d720:	00009a58 	.word	0x00009a58
    d724:	00009940 	.word	0x00009940
    d728:	00009a6c 	.word	0x00009a6c
    d72c:	000099e0 	.word	0x000099e0
    d730:	00009900 	.word	0x00009900
    d734:	00009994 	.word	0x00009994
    d738:	0000995c 	.word	0x0000995c
    d73c:	00009868 	.word	0x00009868
    d740:	0000997c 	.word	0x0000997c
    d744:	00009904 	.word	0x00009904
    d748:	000097ec 	.word	0x000097ec
    d74c:	000098a8 	.word	0x000098a8
    d750:	00009870 	.word	0x00009870
    d754:	0000978c 	.word	0x0000978c
    d758:	e51f0090 	ldr	r0, [pc, #-144]	; d6d0 <run+0x1094>
    d75c:	e08f0000 	add	r0, pc, r0
    d760:	eb00127f 	bl	12164 <tfp_printf>
    d764:	eafffe39 	b	d050 <run+0xa14>
    d768:	e51f009c 	ldr	r0, [pc, #-156]	; d6d4 <run+0x1098>
    d76c:	e2446004 	sub	r6, r4, #4
    d770:	e51f50a0 	ldr	r5, [pc, #-160]	; d6d8 <run+0x109c>
    d774:	e284400c 	add	r4, r4, #12
    d778:	e08f0000 	add	r0, pc, r0
    d77c:	e08f5005 	add	r5, pc, r5
    d780:	eb001277 	bl	12164 <tfp_printf>
    d784:	e51f00b0 	ldr	r0, [pc, #-176]	; d6dc <run+0x10a0>
    d788:	e08f0000 	add	r0, pc, r0
    d78c:	eb001274 	bl	12164 <tfp_printf>
    d790:	e5b61004 	ldr	r1, [r6, #4]!
    d794:	e1a00005 	mov	r0, r5
    d798:	eb001271 	bl	12164 <tfp_printf>
    d79c:	e1540006 	cmp	r4, r6
    d7a0:	1afffffa 	bne	d790 <run+0x1154>
    d7a4:	e51f00cc 	ldr	r0, [pc, #-204]	; d6e0 <run+0x10a4>
    d7a8:	e59d106c 	ldr	r1, [sp, #108]	; 0x6c
    d7ac:	e08f0000 	add	r0, pc, r0
    d7b0:	e59d2070 	ldr	r2, [sp, #112]	; 0x70
    d7b4:	eb00126a 	bl	12164 <tfp_printf>
    d7b8:	e51f00dc 	ldr	r0, [pc, #-220]	; d6e4 <run+0x10a8>
    d7bc:	e59d11f8 	ldr	r1, [sp, #504]	; 0x1f8
    d7c0:	e08f0000 	add	r0, pc, r0
    d7c4:	eb001266 	bl	12164 <tfp_printf>
    d7c8:	eafffbb9 	b	c6b4 <run+0x78>
    d7cc:	e51f00ec 	ldr	r0, [pc, #-236]	; d6e8 <run+0x10ac>
    d7d0:	e51f50ec 	ldr	r5, [pc, #-236]	; d6ec <run+0x10b0>
    d7d4:	e08f0000 	add	r0, pc, r0
    d7d8:	e08f5005 	add	r5, pc, r5
    d7dc:	eb001260 	bl	12164 <tfp_printf>
    d7e0:	e59d3018 	ldr	r3, [sp, #24]
    d7e4:	e2836020 	add	r6, r3, #32
    d7e8:	e2834030 	add	r4, r3, #48	; 0x30
    d7ec:	e4961004 	ldr	r1, [r6], #4
    d7f0:	e1a00005 	mov	r0, r5
    d7f4:	eb00125a 	bl	12164 <tfp_printf>
    d7f8:	e1540006 	cmp	r4, r6
    d7fc:	1afffffa 	bne	d7ec <run+0x11b0>
    d800:	e51f0118 	ldr	r0, [pc, #-280]	; d6f0 <run+0x10b4>
    d804:	e08f0000 	add	r0, pc, r0
    d808:	eb001255 	bl	12164 <tfp_printf>
    d80c:	eafffdf9 	b	cff8 <run+0x9bc>
    d810:	e58d3094 	str	r3, [sp, #148]	; 0x94
    d814:	e51f0128 	ldr	r0, [pc, #-296]	; d6f4 <run+0x10b8>
    d818:	e51f3128 	ldr	r3, [pc, #-296]	; d6f8 <run+0x10bc>
    d81c:	e08f0000 	add	r0, pc, r0
    d820:	e08f3003 	add	r3, pc, r3
    d824:	e58d2098 	str	r2, [sp, #152]	; 0x98
    d828:	e58d3088 	str	r3, [sp, #136]	; 0x88
    d82c:	eb00124c 	bl	12164 <tfp_printf>
    d830:	e58d5090 	str	r5, [sp, #144]	; 0x90
    d834:	e28d00bc 	add	r0, sp, #188	; 0xbc
    d838:	e59d5088 	ldr	r5, [sp, #136]	; 0x88
    d83c:	e1a01006 	mov	r1, r6
    d840:	e58d608c 	str	r6, [sp, #140]	; 0x8c
    d844:	e59d6068 	ldr	r6, [sp, #104]	; 0x68
    d848:	e58d409c 	str	r4, [sp, #156]	; 0x9c
    d84c:	e1a04000 	mov	r4, r0
    d850:	e1a00005 	mov	r0, r5
    d854:	eb001242 	bl	12164 <tfp_printf>
    d858:	e1560004 	cmp	r6, r4
    d85c:	0a000004 	beq	d874 <run+0x1238>
    d860:	e4941004 	ldr	r1, [r4], #4
    d864:	e1a00005 	mov	r0, r5
    d868:	eb00123d 	bl	12164 <tfp_printf>
    d86c:	e1560004 	cmp	r6, r4
    d870:	1afffffa 	bne	d860 <run+0x1224>
    d874:	e51f0180 	ldr	r0, [pc, #-384]	; d6fc <run+0x10c0>
    d878:	e59d3094 	ldr	r3, [sp, #148]	; 0x94
    d87c:	e59d2098 	ldr	r2, [sp, #152]	; 0x98
    d880:	e08f0000 	add	r0, pc, r0
    d884:	e59d608c 	ldr	r6, [sp, #140]	; 0x8c
    d888:	e58d2088 	str	r2, [sp, #136]	; 0x88
    d88c:	e58d308c 	str	r3, [sp, #140]	; 0x8c
    d890:	e59d5090 	ldr	r5, [sp, #144]	; 0x90
    d894:	e59d409c 	ldr	r4, [sp, #156]	; 0x9c
    d898:	eb001231 	bl	12164 <tfp_printf>
    d89c:	e1cd28d8 	ldrd	r2, [sp, #136]	; 0x88
    d8a0:	eafffbfd 	b	c89c <run+0x260>
    d8a4:	e51f01ac 	ldr	r0, [pc, #-428]	; d700 <run+0x10c4>
    d8a8:	e51f41ac 	ldr	r4, [pc, #-428]	; d704 <run+0x10c8>
    d8ac:	e08f0000 	add	r0, pc, r0
    d8b0:	e08f4004 	add	r4, pc, r4
    d8b4:	eb00122a 	bl	12164 <tfp_printf>
    d8b8:	e59d5074 	ldr	r5, [sp, #116]	; 0x74
    d8bc:	e59d6078 	ldr	r6, [sp, #120]	; 0x78
    d8c0:	e4951004 	ldr	r1, [r5], #4
    d8c4:	e1a00004 	mov	r0, r4
    d8c8:	eb001225 	bl	12164 <tfp_printf>
    d8cc:	e1560005 	cmp	r6, r5
    d8d0:	1afffffa 	bne	d8c0 <run+0x1284>
    d8d4:	e51f01d4 	ldr	r0, [pc, #-468]	; d708 <run+0x10cc>
    d8d8:	e08f0000 	add	r0, pc, r0
    d8dc:	eb001220 	bl	12164 <tfp_printf>
    d8e0:	e5dd30a9 	ldrb	r3, [sp, #169]	; 0xa9
    d8e4:	e5ddc0aa 	ldrb	ip, [sp, #170]	; 0xaa
    d8e8:	e7993103 	ldr	r3, [r9, r3, lsl #2]
    d8ec:	e5dd00ab 	ldrb	r0, [sp, #171]	; 0xab
    d8f0:	e58d3024 	str	r3, [sp, #36]	; 0x24
    d8f4:	e5dd30ad 	ldrb	r3, [sp, #173]	; 0xad
    d8f8:	e5dde0b2 	ldrb	lr, [sp, #178]	; 0xb2
    d8fc:	e7993103 	ldr	r3, [r9, r3, lsl #2]
    d900:	e5dd50ae 	ldrb	r5, [sp, #174]	; 0xae
    d904:	e58d3028 	str	r3, [sp, #40]	; 0x28
    d908:	e5dd20af 	ldrb	r2, [sp, #175]	; 0xaf
    d90c:	e5dd30b3 	ldrb	r3, [sp, #179]	; 0xb3
    d910:	e5dd40b1 	ldrb	r4, [sp, #177]	; 0xb1
    d914:	eafffc62 	b	caa4 <run+0x468>
    d918:	e51f0214 	ldr	r0, [pc, #-532]	; d70c <run+0x10d0>
    d91c:	e1a01003 	mov	r1, r3
    d920:	e51f7218 	ldr	r7, [pc, #-536]	; d710 <run+0x10d4>
    d924:	e08f0000 	add	r0, pc, r0
    d928:	e08f7007 	add	r7, pc, r7
    d92c:	eb00120c 	bl	12164 <tfp_printf>
    d930:	e59d3018 	ldr	r3, [sp, #24]
    d934:	e58d4034 	str	r4, [sp, #52]	; 0x34
    d938:	e1a04007 	mov	r4, r7
    d93c:	e2435010 	sub	r5, r3, #16
    d940:	e1a07003 	mov	r7, r3
    d944:	e4951004 	ldr	r1, [r5], #4
    d948:	e1a00004 	mov	r0, r4
    d94c:	eb001204 	bl	12164 <tfp_printf>
    d950:	e1570005 	cmp	r7, r5
    d954:	1afffffa 	bne	d944 <run+0x1308>
    d958:	e51f024c 	ldr	r0, [pc, #-588]	; d714 <run+0x10d8>
    d95c:	e59d4034 	ldr	r4, [sp, #52]	; 0x34
    d960:	e08f0000 	add	r0, pc, r0
    d964:	e51f7254 	ldr	r7, [pc, #-596]	; d718 <run+0x10dc>
    d968:	eb0011fd 	bl	12164 <tfp_printf>
    d96c:	e51f0258 	ldr	r0, [pc, #-600]	; d71c <run+0x10e0>
    d970:	e51f5258 	ldr	r5, [pc, #-600]	; d720 <run+0x10e4>
    d974:	e08f7007 	add	r7, pc, r7
    d978:	e08f0000 	add	r0, pc, r0
    d97c:	e08f5005 	add	r5, pc, r5
    d980:	eb0011f7 	bl	12164 <tfp_printf>
    d984:	e58d4034 	str	r4, [sp, #52]	; 0x34
    d988:	e2872007 	add	r2, r7, #7
    d98c:	e1a04005 	mov	r4, r5
    d990:	e3a03003 	mov	r3, #3
    d994:	e1a05002 	mov	r5, r2
    d998:	ea000000 	b	d9a0 <run+0x1364>
    d99c:	e5f73001 	ldrb	r3, [r7, #1]!
    d9a0:	e2833e1d 	add	r3, r3, #464	; 0x1d0
    d9a4:	e1a00004 	mov	r0, r4
    d9a8:	e08d3003 	add	r3, sp, r3
    d9ac:	e5531118 	ldrb	r1, [r3, #-280]	; 0xfffffee8
    d9b0:	eb0011eb 	bl	12164 <tfp_printf>
    d9b4:	e1550007 	cmp	r5, r7
    d9b8:	1afffff7 	bne	d99c <run+0x1360>
    d9bc:	e51f02a0 	ldr	r0, [pc, #-672]	; d724 <run+0x10e8>
    d9c0:	e59d4034 	ldr	r4, [sp, #52]	; 0x34
    d9c4:	e08f0000 	add	r0, pc, r0
    d9c8:	eb0011e5 	bl	12164 <tfp_printf>
    d9cc:	eafffbed 	b	c988 <run+0x34c>
    d9d0:	e51f02b0 	ldr	r0, [pc, #-688]	; d728 <run+0x10ec>
    d9d4:	e51f42b0 	ldr	r4, [pc, #-688]	; d72c <run+0x10f0>
    d9d8:	e08f0000 	add	r0, pc, r0
    d9dc:	e08f4004 	add	r4, pc, r4
    d9e0:	eb0011df 	bl	12164 <tfp_printf>
    d9e4:	e59d5074 	ldr	r5, [sp, #116]	; 0x74
    d9e8:	e59d6078 	ldr	r6, [sp, #120]	; 0x78
    d9ec:	e4951004 	ldr	r1, [r5], #4
    d9f0:	e1a00004 	mov	r0, r4
    d9f4:	eb0011da 	bl	12164 <tfp_printf>
    d9f8:	e1560005 	cmp	r6, r5
    d9fc:	1afffffa 	bne	d9ec <run+0x13b0>
    da00:	e51f02d8 	ldr	r0, [pc, #-728]	; d730 <run+0x10f4>
    da04:	e08f0000 	add	r0, pc, r0
    da08:	eb0011d5 	bl	12164 <tfp_printf>
    da0c:	e5dd30b2 	ldrb	r3, [sp, #178]	; 0xb2
    da10:	e5dd10ad 	ldrb	r1, [sp, #173]	; 0xad
    da14:	e7993103 	ldr	r3, [r9, r3, lsl #2]
    da18:	e5dd00a9 	ldrb	r0, [sp, #169]	; 0xa9
    da1c:	e58d3028 	str	r3, [sp, #40]	; 0x28
    da20:	e5dd30b1 	ldrb	r3, [sp, #177]	; 0xb1
    da24:	e5dd20ab 	ldrb	r2, [sp, #171]	; 0xab
    da28:	e79a5103 	ldr	r5, [sl, r3, lsl #2]
    da2c:	e5dd30ae 	ldrb	r3, [sp, #174]	; 0xae
    da30:	e7983103 	ldr	r3, [r8, r3, lsl #2]
    da34:	e58d3024 	str	r3, [sp, #36]	; 0x24
    da38:	e5dd30af 	ldrb	r3, [sp, #175]	; 0xaf
    da3c:	e79be103 	ldr	lr, [fp, r3, lsl #2]
    da40:	e5dd30aa 	ldrb	r3, [sp, #170]	; 0xaa
    da44:	e7983103 	ldr	r3, [r8, r3, lsl #2]
    da48:	e58d3020 	str	r3, [sp, #32]
    da4c:	e5dd30b3 	ldrb	r3, [sp, #179]	; 0xb3
    da50:	eafffd2e 	b	cf10 <run+0x8d4>
    da54:	e51f0328 	ldr	r0, [pc, #-808]	; d734 <run+0x10f8>
    da58:	e51f6328 	ldr	r6, [pc, #-808]	; d738 <run+0x10fc>
    da5c:	e08f0000 	add	r0, pc, r0
    da60:	e08f6006 	add	r6, pc, r6
    da64:	eb0011be 	bl	12164 <tfp_printf>
    da68:	e59d3018 	ldr	r3, [sp, #24]
    da6c:	e58d403c 	str	r4, [sp, #60]	; 0x3c
    da70:	e1a04006 	mov	r4, r6
    da74:	e2835010 	add	r5, r3, #16
    da78:	e2833020 	add	r3, r3, #32
    da7c:	e1a06003 	mov	r6, r3
    da80:	e4951004 	ldr	r1, [r5], #4
    da84:	e1a00004 	mov	r0, r4
    da88:	eb0011b5 	bl	12164 <tfp_printf>
    da8c:	e1560005 	cmp	r6, r5
    da90:	1afffffa 	bne	da80 <run+0x1444>
    da94:	e51f0360 	ldr	r0, [pc, #-864]	; d73c <run+0x1100>
    da98:	e59d403c 	ldr	r4, [sp, #60]	; 0x3c
    da9c:	e08f0000 	add	r0, pc, r0
    daa0:	eb0011af 	bl	12164 <tfp_printf>
    daa4:	eafffcd4 	b	cdfc <run+0x7c0>
    daa8:	e58d3090 	str	r3, [sp, #144]	; 0x90
    daac:	e51f0374 	ldr	r0, [pc, #-884]	; d740 <run+0x1104>
    dab0:	e51f3374 	ldr	r3, [pc, #-884]	; d744 <run+0x1108>
    dab4:	e08f0000 	add	r0, pc, r0
    dab8:	e08f3003 	add	r3, pc, r3
    dabc:	e58d2088 	str	r2, [sp, #136]	; 0x88
    dac0:	e58d3058 	str	r3, [sp, #88]	; 0x58
    dac4:	eb0011a6 	bl	12164 <tfp_printf>
    dac8:	e58d508c 	str	r5, [sp, #140]	; 0x8c
    dacc:	e28d00bc 	add	r0, sp, #188	; 0xbc
    dad0:	e59d5058 	ldr	r5, [sp, #88]	; 0x58
    dad4:	e1a01007 	mov	r1, r7
    dad8:	e58d705c 	str	r7, [sp, #92]	; 0x5c
    dadc:	e59d7068 	ldr	r7, [sp, #104]	; 0x68
    dae0:	e58d4094 	str	r4, [sp, #148]	; 0x94
    dae4:	e1a04000 	mov	r4, r0
    dae8:	e1a00005 	mov	r0, r5
    daec:	eb00119c 	bl	12164 <tfp_printf>
    daf0:	e1570004 	cmp	r7, r4
    daf4:	0a000004 	beq	db0c <run+0x14d0>
    daf8:	e4941004 	ldr	r1, [r4], #4
    dafc:	e1a00005 	mov	r0, r5
    db00:	eb001197 	bl	12164 <tfp_printf>
    db04:	e1570004 	cmp	r7, r4
    db08:	1afffffa 	bne	daf8 <run+0x14bc>
    db0c:	e51f03cc 	ldr	r0, [pc, #-972]	; d748 <run+0x110c>
    db10:	e59d2088 	ldr	r2, [sp, #136]	; 0x88
    db14:	e59d3090 	ldr	r3, [sp, #144]	; 0x90
    db18:	e08f0000 	add	r0, pc, r0
    db1c:	e59d705c 	ldr	r7, [sp, #92]	; 0x5c
    db20:	e58d3058 	str	r3, [sp, #88]	; 0x58
    db24:	e58d205c 	str	r2, [sp, #92]	; 0x5c
    db28:	e59d508c 	ldr	r5, [sp, #140]	; 0x8c
    db2c:	e59d4094 	ldr	r4, [sp, #148]	; 0x94
    db30:	eb00118b 	bl	12164 <tfp_printf>
    db34:	e59d205c 	ldr	r2, [sp, #92]	; 0x5c
    db38:	e59d3058 	ldr	r3, [sp, #88]	; 0x58
    db3c:	eafffc6a 	b	ccec <run+0x6b0>
    db40:	e51f03fc 	ldr	r0, [pc, #-1020]	; d74c <run+0x1110>
    db44:	e51f43fc 	ldr	r4, [pc, #-1020]	; d750 <run+0x1114>
    db48:	e08f0000 	add	r0, pc, r0
    db4c:	e08f4004 	add	r4, pc, r4
    db50:	eb001183 	bl	12164 <tfp_printf>
    db54:	e59d3018 	ldr	r3, [sp, #24]
    db58:	e1a06003 	mov	r6, r3
    db5c:	e2835010 	add	r5, r3, #16
    db60:	e4961004 	ldr	r1, [r6], #4
    db64:	e1a00004 	mov	r0, r4
    db68:	eb00117d 	bl	12164 <tfp_printf>
    db6c:	e1550006 	cmp	r5, r6
    db70:	1afffffa 	bne	db60 <run+0x1524>
    db74:	e51f0428 	ldr	r0, [pc, #-1064]	; d754 <run+0x1118>
    db78:	e08f0000 	add	r0, pc, r0
    db7c:	eb001178 	bl	12164 <tfp_printf>
    db80:	e5dd30b7 	ldrb	r3, [sp, #183]	; 0xb7
    db84:	e5dd50b6 	ldrb	r5, [sp, #182]	; 0xb6
    db88:	e7983103 	ldr	r3, [r8, r3, lsl #2]
    db8c:	e5dd70b5 	ldrb	r7, [sp, #181]	; 0xb5
    db90:	e58d302c 	str	r3, [sp, #44]	; 0x2c
    db94:	e5dd30b3 	ldrb	r3, [sp, #179]	; 0xb3
    db98:	e5dd40b1 	ldrb	r4, [sp, #177]	; 0xb1
    db9c:	e798c103 	ldr	ip, [r8, r3, lsl #2]
    dba0:	e5dd30b4 	ldrb	r3, [sp, #180]	; 0xb4
    dba4:	e5dde0b2 	ldrb	lr, [sp, #178]	; 0xb2
    dba8:	e58d3030 	str	r3, [sp, #48]	; 0x30
    dbac:	e5dd30b0 	ldrb	r3, [sp, #176]	; 0xb0
    dbb0:	e58d3020 	str	r3, [sp, #32]
    dbb4:	eafffbfe 	b	cbb4 <run+0x578>

0000dbb8 <buf_get_le32>:
    dbb8:	e3500000 	cmp	r0, #0
    dbbc:	012fff1e 	bxeq	lr
    dbc0:	e5d01000 	ldrb	r1, [r0]
    dbc4:	e5d02001 	ldrb	r2, [r0, #1]
    dbc8:	e5d03002 	ldrb	r3, [r0, #2]
    dbcc:	e5d0c003 	ldrb	ip, [r0, #3]
    dbd0:	e1a00803 	lsl	r0, r3, #16
    dbd4:	e1800c0c 	orr	r0, r0, ip, lsl #24
    dbd8:	e1800001 	orr	r0, r0, r1
    dbdc:	e1800402 	orr	r0, r0, r2, lsl #8
    dbe0:	e12fff1e 	bx	lr

0000dbe4 <buf_put_le32>:
    dbe4:	e1a0cc21 	lsr	ip, r1, #24
    dbe8:	e1a02821 	lsr	r2, r1, #16
    dbec:	e1a03421 	lsr	r3, r1, #8
    dbf0:	e5c0c003 	strb	ip, [r0, #3]
    dbf4:	e5c02002 	strb	r2, [r0, #2]
    dbf8:	e5c03001 	strb	r3, [r0, #1]
    dbfc:	e5c01000 	strb	r1, [r0]
    dc00:	e12fff1e 	bx	lr

0000dc04 <cipher_block_xor_2dst>:
    dc04:	e3530008 	cmp	r3, #8
    dc08:	e241c001 	sub	ip, r1, #1
    dc0c:	e52de004 	push	{lr}		; (str lr, [sp, #-4]!)
    dc10:	e242e001 	sub	lr, r2, #1
    dc14:	e2402001 	sub	r2, r0, #1
    dc18:	1281000f 	addne	r0, r1, #15
    dc1c:	0a000007 	beq	dc40 <cipher_block_xor_2dst+0x3c>
    dc20:	e5fc3001 	ldrb	r3, [ip, #1]!
    dc24:	e5fe1001 	ldrb	r1, [lr, #1]!
    dc28:	e15c0000 	cmp	ip, r0
    dc2c:	e0233001 	eor	r3, r3, r1
    dc30:	e5cc3000 	strb	r3, [ip]
    dc34:	e5e23001 	strb	r3, [r2, #1]!
    dc38:	1afffff8 	bne	dc20 <cipher_block_xor_2dst+0x1c>
    dc3c:	e49df004 	pop	{pc}		; (ldr pc, [sp], #4)
    dc40:	e2810007 	add	r0, r1, #7
    dc44:	e5fc3001 	ldrb	r3, [ip, #1]!
    dc48:	e5fe1001 	ldrb	r1, [lr, #1]!
    dc4c:	e15c0000 	cmp	ip, r0
    dc50:	e0233001 	eor	r3, r3, r1
    dc54:	e5cc3000 	strb	r3, [ip]
    dc58:	e5e23001 	strb	r3, [r2, #1]!
    dc5c:	1afffff8 	bne	dc44 <cipher_block_xor_2dst+0x40>
    dc60:	e49df004 	pop	{pc}		; (ldr pc, [sp], #4)

0000dc64 <buf_xor_2dst>:
    dc64:	e3530000 	cmp	r3, #0
    dc68:	012fff1e 	bxeq	lr
    dc6c:	e2433001 	sub	r3, r3, #1
    dc70:	e241c001 	sub	ip, r1, #1
    dc74:	e52de004 	push	{lr}		; (str lr, [sp, #-4]!)
    dc78:	e2422001 	sub	r2, r2, #1
    dc7c:	e081e003 	add	lr, r1, r3
    dc80:	e2400001 	sub	r0, r0, #1
    dc84:	e5fc3001 	ldrb	r3, [ip, #1]!
    dc88:	e5f21001 	ldrb	r1, [r2, #1]!
    dc8c:	e15c000e 	cmp	ip, lr
    dc90:	e0233001 	eor	r3, r3, r1
    dc94:	e5cc3000 	strb	r3, [ip]
    dc98:	e5e03001 	strb	r3, [r0, #1]!
    dc9c:	1afffff8 	bne	dc84 <buf_xor_2dst+0x20>
    dca0:	e49df004 	pop	{pc}		; (ldr pc, [sp], #4)

0000dca4 <cipher_block_cpy>:
    dca4:	e3520008 	cmp	r2, #8
    dca8:	e92d41f0 	push	{r4, r5, r6, r7, r8, lr}
    dcac:	e1a04000 	mov	r4, r0
    dcb0:	e1a05001 	mov	r5, r1
    dcb4:	e1a00001 	mov	r0, r1
    dcb8:	0a000017 	beq	dd1c <cipher_block_cpy+0x78>
    dcbc:	ebffffbd 	bl	dbb8 <buf_get_le32>
    dcc0:	e1a08000 	mov	r8, r0
    dcc4:	e2850004 	add	r0, r5, #4
    dcc8:	ebffffba 	bl	dbb8 <buf_get_le32>
    dccc:	e1a07000 	mov	r7, r0
    dcd0:	e2850008 	add	r0, r5, #8
    dcd4:	ebffffb7 	bl	dbb8 <buf_get_le32>
    dcd8:	e1a06000 	mov	r6, r0
    dcdc:	e285000c 	add	r0, r5, #12
    dce0:	ebffffb4 	bl	dbb8 <buf_get_le32>
    dce4:	e1a05000 	mov	r5, r0
    dce8:	e1a01008 	mov	r1, r8
    dcec:	e1a00004 	mov	r0, r4
    dcf0:	ebffffbb 	bl	dbe4 <buf_put_le32>
    dcf4:	e1a01007 	mov	r1, r7
    dcf8:	e2840004 	add	r0, r4, #4
    dcfc:	ebffffb8 	bl	dbe4 <buf_put_le32>
    dd00:	e1a01006 	mov	r1, r6
    dd04:	e2840008 	add	r0, r4, #8
    dd08:	ebffffb5 	bl	dbe4 <buf_put_le32>
    dd0c:	e1a01005 	mov	r1, r5
    dd10:	e284000c 	add	r0, r4, #12
    dd14:	e8bd41f0 	pop	{r4, r5, r6, r7, r8, lr}
    dd18:	eaffffb1 	b	dbe4 <buf_put_le32>
    dd1c:	ebffffa5 	bl	dbb8 <buf_get_le32>
    dd20:	e1a06000 	mov	r6, r0
    dd24:	e2850004 	add	r0, r5, #4
    dd28:	ebffffa2 	bl	dbb8 <buf_get_le32>
    dd2c:	e1a05000 	mov	r5, r0
    dd30:	e1a01006 	mov	r1, r6
    dd34:	e1a00004 	mov	r0, r4
    dd38:	ebffffa9 	bl	dbe4 <buf_put_le32>
    dd3c:	e1a01005 	mov	r1, r5
    dd40:	e2840004 	add	r0, r4, #4
    dd44:	e8bd41f0 	pop	{r4, r5, r6, r7, r8, lr}
    dd48:	eaffffa5 	b	dbe4 <buf_put_le32>

0000dd4c <cipher_block_xor_n_copy_2>:
    dd4c:	e92d4ff8 	push	{r3, r4, r5, r6, r7, r8, r9, sl, fp, lr}
    dd50:	e1a08000 	mov	r8, r0
    dd54:	e59dc028 	ldr	ip, [sp, #40]	; 0x28
    dd58:	e1a09001 	mov	r9, r1
    dd5c:	e1a07002 	mov	r7, r2
    dd60:	e1a0a003 	mov	sl, r3
    dd64:	e35c0008 	cmp	ip, #8
    dd68:	13a04000 	movne	r4, #0
    dd6c:	0a000012 	beq	ddbc <cipher_block_xor_n_copy_2+0x70>
    dd70:	e08a0004 	add	r0, sl, r4
    dd74:	e087b004 	add	fp, r7, r4
    dd78:	ebffff8e 	bl	dbb8 <buf_get_le32>
    dd7c:	e1a05000 	mov	r5, r0
    dd80:	e1a0000b 	mov	r0, fp
    dd84:	ebffff8b 	bl	dbb8 <buf_get_le32>
    dd88:	e1a06000 	mov	r6, r0
    dd8c:	e0890004 	add	r0, r9, r4
    dd90:	ebffff88 	bl	dbb8 <buf_get_le32>
    dd94:	e0261000 	eor	r1, r6, r0
    dd98:	e0880004 	add	r0, r8, r4
    dd9c:	e2844004 	add	r4, r4, #4
    dda0:	ebffff8f 	bl	dbe4 <buf_put_le32>
    dda4:	e1a01005 	mov	r1, r5
    dda8:	e1a0000b 	mov	r0, fp
    ddac:	ebffff8c 	bl	dbe4 <buf_put_le32>
    ddb0:	e3540010 	cmp	r4, #16
    ddb4:	1affffed 	bne	dd70 <cipher_block_xor_n_copy_2+0x24>
    ddb8:	e8bd8ff8 	pop	{r3, r4, r5, r6, r7, r8, r9, sl, fp, pc}
    ddbc:	e1a00003 	mov	r0, r3
    ddc0:	e287b004 	add	fp, r7, #4
    ddc4:	ebffff7b 	bl	dbb8 <buf_get_le32>
    ddc8:	e1a03000 	mov	r3, r0
    ddcc:	e28a0004 	add	r0, sl, #4
    ddd0:	e1a0a003 	mov	sl, r3
    ddd4:	ebffff77 	bl	dbb8 <buf_get_le32>
    ddd8:	e1a06000 	mov	r6, r0
    dddc:	e1a00007 	mov	r0, r7
    dde0:	ebffff74 	bl	dbb8 <buf_get_le32>
    dde4:	e1a05000 	mov	r5, r0
    dde8:	e1a0000b 	mov	r0, fp
    ddec:	ebffff71 	bl	dbb8 <buf_get_le32>
    ddf0:	e1a04000 	mov	r4, r0
    ddf4:	e1a00009 	mov	r0, r9
    ddf8:	ebffff6e 	bl	dbb8 <buf_get_le32>
    ddfc:	e0255000 	eor	r5, r5, r0
    de00:	e2890004 	add	r0, r9, #4
    de04:	ebffff6b 	bl	dbb8 <buf_get_le32>
    de08:	e0244000 	eor	r4, r4, r0
    de0c:	e1a01005 	mov	r1, r5
    de10:	e1a00008 	mov	r0, r8
    de14:	ebffff72 	bl	dbe4 <buf_put_le32>
    de18:	e1a01004 	mov	r1, r4
    de1c:	e2880004 	add	r0, r8, #4
    de20:	ebffff6f 	bl	dbe4 <buf_put_le32>
    de24:	e1a0100a 	mov	r1, sl
    de28:	e1a00007 	mov	r0, r7
    de2c:	ebffff6c 	bl	dbe4 <buf_put_le32>
    de30:	e1a01006 	mov	r1, r6
    de34:	e1a0000b 	mov	r0, fp
    de38:	e8bd4ff8 	pop	{r3, r4, r5, r6, r7, r8, r9, sl, fp, lr}
    de3c:	eaffff68 	b	dbe4 <buf_put_le32>

0000de40 <buf_xor_n_copy_2>:
    de40:	e92d4ff0 	push	{r4, r5, r6, r7, r8, r9, sl, fp, lr}
    de44:	e24dd014 	sub	sp, sp, #20
    de48:	e1a05000 	mov	r5, r0
    de4c:	e1a06001 	mov	r6, r1
    de50:	e59dc038 	ldr	ip, [sp, #56]	; 0x38
    de54:	e1a07003 	mov	r7, r3
    de58:	e58d2000 	str	r2, [sp]
    de5c:	e35c0003 	cmp	ip, #3
    de60:	9a000032 	bls	df30 <buf_xor_n_copy_2+0xf0>
    de64:	e082b00c 	add	fp, r2, ip
    de68:	e1a0400c 	mov	r4, ip
    de6c:	e087a00c 	add	sl, r7, ip
    de70:	e081900c 	add	r9, r1, ip
    de74:	e080800c 	add	r8, r0, ip
    de78:	e98d00e0 	stmib	sp, {r5, r6, r7}
    de7c:	e04a0004 	sub	r0, sl, r4
    de80:	e04b5004 	sub	r5, fp, r4
    de84:	ebffff4b 	bl	dbb8 <buf_get_le32>
    de88:	e1a06000 	mov	r6, r0
    de8c:	e1a00005 	mov	r0, r5
    de90:	ebffff48 	bl	dbb8 <buf_get_le32>
    de94:	e1a07000 	mov	r7, r0
    de98:	e0490004 	sub	r0, r9, r4
    de9c:	ebffff45 	bl	dbb8 <buf_get_le32>
    dea0:	e0271000 	eor	r1, r7, r0
    dea4:	e0480004 	sub	r0, r8, r4
    dea8:	e2444004 	sub	r4, r4, #4
    deac:	ebffff4c 	bl	dbe4 <buf_put_le32>
    deb0:	e1a01006 	mov	r1, r6
    deb4:	e1a00005 	mov	r0, r5
    deb8:	ebffff49 	bl	dbe4 <buf_put_le32>
    debc:	e3540003 	cmp	r4, #3
    dec0:	8affffed 	bhi	de7c <buf_xor_n_copy_2+0x3c>
    dec4:	e59d3038 	ldr	r3, [sp, #56]	; 0x38
    dec8:	e99d00e0 	ldmib	sp, {r5, r6, r7}
    decc:	e2432004 	sub	r2, r3, #4
    ded0:	e3c22003 	bic	r2, r2, #3
    ded4:	e2033003 	and	r3, r3, #3
    ded8:	e59d1000 	ldr	r1, [sp]
    dedc:	e2822004 	add	r2, r2, #4
    dee0:	e0855002 	add	r5, r5, r2
    dee4:	e0866002 	add	r6, r6, r2
    dee8:	e0877002 	add	r7, r7, r2
    deec:	e0811002 	add	r1, r1, r2
    def0:	e58d1000 	str	r1, [sp]
    def4:	e3530000 	cmp	r3, #0
    def8:	0a00000a 	beq	df28 <buf_xor_n_copy_2+0xe8>
    defc:	e59d2000 	ldr	r2, [sp]
    df00:	e0853003 	add	r3, r5, r3
    df04:	e2422001 	sub	r2, r2, #1
    df08:	e5f21001 	ldrb	r1, [r2, #1]!
    df0c:	e4d6c001 	ldrb	ip, [r6], #1
    df10:	e4d70001 	ldrb	r0, [r7], #1
    df14:	e021100c 	eor	r1, r1, ip
    df18:	e4c51001 	strb	r1, [r5], #1
    df1c:	e1550003 	cmp	r5, r3
    df20:	e5c20000 	strb	r0, [r2]
    df24:	1afffff7 	bne	df08 <buf_xor_n_copy_2+0xc8>
    df28:	e28dd014 	add	sp, sp, #20
    df2c:	e8bd8ff0 	pop	{r4, r5, r6, r7, r8, r9, sl, fp, pc}
    df30:	e59d3038 	ldr	r3, [sp, #56]	; 0x38
    df34:	eaffffee 	b	def4 <buf_xor_n_copy_2+0xb4>

0000df38 <buf_xor_n_copy>:
    df38:	e52de004 	push	{lr}		; (str lr, [sp, #-4]!)
    df3c:	e24dd00c 	sub	sp, sp, #12
    df40:	e58d3000 	str	r3, [sp]
    df44:	e1a03002 	mov	r3, r2
    df48:	e1a02001 	mov	r2, r1
    df4c:	e1a01003 	mov	r1, r3
    df50:	ebffffba 	bl	de40 <buf_xor_n_copy_2>
    df54:	e28dd00c 	add	sp, sp, #12
    df58:	e49df004 	pop	{pc}		; (ldr pc, [sp], #4)

0000df5c <cipher_block_xor_n_copy>:
    df5c:	e52de004 	push	{lr}		; (str lr, [sp, #-4]!)
    df60:	e24dd00c 	sub	sp, sp, #12
    df64:	e58d3000 	str	r3, [sp]
    df68:	e1a03002 	mov	r3, r2
    df6c:	e1a02001 	mov	r2, r1
    df70:	e1a01003 	mov	r1, r3
    df74:	ebffff74 	bl	dd4c <cipher_block_xor_n_copy_2>
    df78:	e28dd00c 	add	sp, sp, #12
    df7c:	e49df004 	pop	{pc}		; (ldr pc, [sp], #4)

0000df80 <buf_xor>:
    df80:	e92d4ff0 	push	{r4, r5, r6, r7, r8, r9, sl, fp, lr}
    df84:	e3530003 	cmp	r3, #3
    df88:	e24dd014 	sub	sp, sp, #20
    df8c:	e1a04000 	mov	r4, r0
    df90:	e1a08001 	mov	r8, r1
    df94:	e1a09002 	mov	r9, r2
    df98:	e59db038 	ldr	fp, [sp, #56]	; 0x38
    df9c:	e58d3000 	str	r3, [sp]
    dfa0:	9a000047 	bls	e0c4 <buf_xor+0x144>
    dfa4:	e59fa120 	ldr	sl, [pc, #288]	; e0cc <buf_xor+0x14c>
    dfa8:	e2433004 	sub	r3, r3, #4
    dfac:	e3c33003 	bic	r3, r3, #3
    dfb0:	e1a06002 	mov	r6, r2
    dfb4:	e08fa00a 	add	sl, pc, sl
    dfb8:	e2833004 	add	r3, r3, #4
    dfbc:	e0807003 	add	r7, r0, r3
    dfc0:	e1a05001 	mov	r5, r1
    dfc4:	e58d3004 	str	r3, [sp, #4]
    dfc8:	e1cd80f8 	strd	r8, [sp, #8]
    dfcc:	ea00000c 	b	e004 <buf_xor+0x84>
    dfd0:	e1a00005 	mov	r0, r5
    dfd4:	e2855004 	add	r5, r5, #4
    dfd8:	ebfffef6 	bl	dbb8 <buf_get_le32>
    dfdc:	e1a08000 	mov	r8, r0
    dfe0:	e1a00006 	mov	r0, r6
    dfe4:	e2866004 	add	r6, r6, #4
    dfe8:	ebfffef2 	bl	dbb8 <buf_get_le32>
    dfec:	e0281000 	eor	r1, r8, r0
    dff0:	e1a00004 	mov	r0, r4
    dff4:	e2844004 	add	r4, r4, #4
    dff8:	ebfffef9 	bl	dbe4 <buf_put_le32>
    dffc:	e1540007 	cmp	r4, r7
    e000:	0a000012 	beq	e050 <buf_xor+0xd0>
    e004:	e35b0000 	cmp	fp, #0
