	.cpu cortex-a7
	.eabi_attribute 20, 1	@ Tag_ABI_FP_denormal
	.eabi_attribute 21, 1	@ Tag_ABI_FP_exceptions
	.eabi_attribute 23, 3	@ Tag_ABI_FP_number_model
	.eabi_attribute 24, 1	@ Tag_ABI_align8_needed
	.eabi_attribute 25, 1	@ Tag_ABI_align8_preserved
	.eabi_attribute 26, 1	@ Tag_ABI_enum_size
	.eabi_attribute 30, 2	@ Tag_ABI_optimization_goals
	.eabi_attribute 34, 1	@ Tag_CPU_unaligned_access
	.eabi_attribute 18, 4	@ Tag_ABI_PCS_wchar_t
	.file	"build-packet.c"
@ GNU C17 (15:10.3-2021.07-4) version 10.3.1 20210621 (release) (arm-none-eabi)
@	compiled by GNU C version 11.2.0, GMP version 6.2.1, MPFR version 4.1.0, MPC version 1.2.1, isl version isl-0.24-GMP

@ GGC heuristics: --param ggc-min-expand=100 --param ggc-min-heapsize=131072
@ options passed:  -I src -I src/common -imultilib thumb/v7-a/nofp
@ -D__USES_INITFINI__ src/build-packet.c -mcpu=cortex-a7 -mfloat-abi=soft
@ -marm -mlibarch=armv7ve -march=armv7ve
@ -auxbase-strip build/asm_output/build-packet.s -g -O2 -Wall -Wextra -fpic
@ -ffreestanding -ffunction-sections -fdata-sections -fno-common
@ -fverbose-asm
@ options enabled:  -faggressive-loop-optimizations -falign-functions
@ -falign-jumps -falign-labels -falign-loops -fallocation-dce
@ -fauto-inc-dec -fbranch-count-reg -fcaller-saves
@ -fcombine-stack-adjustments -fcompare-elim -fcprop-registers
@ -fcrossjumping -fcse-follow-jumps -fdata-sections -fdefer-pop
@ -fdelete-null-pointer-checks -fdevirtualize -fdevirtualize-speculatively
@ -fdwarf2-cfi-asm -fearly-inlining -feliminate-unused-debug-symbols
@ -feliminate-unused-debug-types -fexpensive-optimizations
@ -fforward-propagate -ffp-int-builtin-inexact -ffunction-cse
@ -ffunction-sections -fgcse -fgcse-lm -fgnu-unique
@ -fguess-branch-probability -fhoist-adjacent-loads -fident -fif-conversion
@ -fif-conversion2 -findirect-inlining -finline -finline-atomics
@ -finline-functions -finline-functions-called-once
@ -finline-small-functions -fipa-bit-cp -fipa-cp -fipa-icf
@ -fipa-icf-functions -fipa-icf-variables -fipa-profile -fipa-pure-const
@ -fipa-ra -fipa-reference -fipa-reference-addressable -fipa-sra
@ -fipa-stack-alignment -fipa-vrp -fira-hoist-pressure
@ -fira-share-save-slots -fira-share-spill-slots
@ -fisolate-erroneous-paths-dereference -fivopts -fkeep-static-consts
@ -fleading-underscore -flifetime-dse -flra-remat -fmath-errno
@ -fmerge-constants -fmerge-debug-strings -fmove-loop-invariants
@ -fomit-frame-pointer -foptimize-sibling-calls -foptimize-strlen
@ -fpartial-inlining -fpeephole -fpeephole2 -fpic -fplt
@ -fprefetch-loop-arrays -freg-struct-return -freorder-blocks
@ -freorder-functions -frerun-cse-after-loop
@ -fsched-critical-path-heuristic -fsched-dep-count-heuristic
@ -fsched-group-heuristic -fsched-interblock -fsched-last-insn-heuristic
@ -fsched-pressure -fsched-rank-heuristic -fsched-spec
@ -fsched-spec-insn-heuristic -fsched-stalled-insns-dep -fschedule-insns
@ -fschedule-insns2 -fsection-anchors -fsemantic-interposition
@ -fshow-column -fshrink-wrap -fshrink-wrap-separate -fsigned-zeros
@ -fsplit-ivs-in-unroller -fsplit-wide-types -fssa-backprop -fssa-phiopt
@ -fstdarg-opt -fstore-merging -fstrict-aliasing
@ -fstrict-volatile-bitfields -fsync-libcalls -fthread-jumps
@ -ftoplevel-reorder -ftrapping-math -ftree-bit-ccp -ftree-builtin-call-dce
@ -ftree-ccp -ftree-ch -ftree-coalesce-vars -ftree-copy-prop -ftree-cselim
@ -ftree-dce -ftree-dominator-opts -ftree-dse -ftree-forwprop -ftree-fre
@ -ftree-loop-if-convert -ftree-loop-im -ftree-loop-ivcanon
@ -ftree-loop-optimize -ftree-parallelize-loops= -ftree-phiprop -ftree-pre
@ -ftree-pta -ftree-reassoc -ftree-scev-cprop -ftree-sink -ftree-slsr
@ -ftree-sra -ftree-switch-conversion -ftree-tail-merge -ftree-ter
@ -ftree-vrp -funit-at-a-time -fvar-tracking -fvar-tracking-assignments
@ -fverbose-asm -fzero-initialized-in-bss -marm -mbe32 -mlittle-endian
@ -mpic-data-is-text-relative -msched-prolog -munaligned-access
@ -mvectorize-with-neon-quad -mword-relocations

	.text
.Ltext0:
	.cfi_sections	.debug_frame
	.section	.rodata.get_pkttype_name.str1.4,"aMS",%progbits,1
	.align	2
.LC0:
	.ascii	"UNKNOWN\000"
	.align	2
.LC1:
	.ascii	"PKT_PLAINTEXT\000"
	.align	2
.LC2:
	.ascii	"PKT_ENCRYPTED\000"
	.align	2
.LC3:
	.ascii	"PKT_SYMKEY_ENC\000"
	.section	.text.get_pkttype_name,"ax",%progbits
	.align	2
	.global	get_pkttype_name
	.arch armv7ve
	.syntax unified
	.arm
	.fpu softvfp
	.type	get_pkttype_name, %function
get_pkttype_name:
.LVL0:
.LFB21:
	.file 1 "src/build-packet.c"
	.loc 1 66 49 view -0
	.cfi_startproc
	@ args = 0, pretend = 0, frame = 0
	@ frame_needed = 0, uses_anonymous_args = 0
	@ link register save eliminated.
	.loc 1 67 5 view .LVU1
	cmp	r0, #9	@ pkttype,
	beq	.L3		@,
	cmp	r0, #11	@ pkttype,
	beq	.L4		@,
	cmp	r0, #3	@ pkttype,
	beq	.L7		@,
@ src/build-packet.c:90:         default: return "UNKNOWN";
	.loc 1 90 25 is_stmt 0 view .LVU2
	ldr	r0, .L8	@ <retval>,
.LVL1:
	.loc 1 90 25 view .LVU3
.LPIC0:
	add	r0, pc, r0	@ <retval>, <retval>
@ src/build-packet.c:92: }
	.loc 1 92 1 view .LVU4
	bx	lr	@
.LVL2:
.L4:
@ src/build-packet.c:79:         case PKT_PLAINTEXT: return "PKT_PLAINTEXT";
	.loc 1 79 36 view .LVU5
	ldr	r0, .L8+4	@ <retval>,
.LVL3:
	.loc 1 79 36 view .LVU6
.LPIC1:
	add	r0, pc, r0	@ <retval>, <retval>
	bx	lr	@
.LVL4:
.L7:
@ src/build-packet.c:71:         case PKT_SYMKEY_ENC: return "PKT_SYMKEY_ENC";
	.loc 1 71 37 view .LVU7
	ldr	r0, .L8+8	@ <retval>,
.LVL5:
	.loc 1 71 37 view .LVU8
.LPIC3:
	add	r0, pc, r0	@ <retval>, <retval>
	bx	lr	@
.LVL6:
.L3:
@ src/build-packet.c:67:     switch (pkttype) {
	.loc 1 67 5 view .LVU9
	ldr	r0, .L8+12	@ <retval>,
.LVL7:
	.loc 1 67 5 view .LVU10
.LPIC2:
	add	r0, pc, r0	@ <retval>, <retval>
	bx	lr	@
.L9:
	.align	2
.L8:
	.word	.LC0-(.LPIC0+8)
	.word	.LC1-(.LPIC1+8)
	.word	.LC3-(.LPIC3+8)
	.word	.LC2-(.LPIC2+8)
	.cfi_endproc
.LFE21:
	.size	get_pkttype_name, .-get_pkttype_name
	.section	.rodata.calc_packet_length.str1.4,"aMS",%progbits,1
	.align	2
.LC4:
	.ascii	"calc_plaintext write_32 %08x\000"
	.align	2
.LC5:
	.ascii	"invalid packet type in calc_packet_length()\000"
	.section	.text.calc_packet_length,"ax",%progbits
	.align	2
	.global	calc_packet_length
	.syntax unified
	.arm
	.fpu softvfp
	.type	calc_packet_length, %function
calc_packet_length:
.LVL8:
.LFB23:
	.loc 1 208 1 is_stmt 1 view -0
	.cfi_startproc
	@ args = 0, pretend = 0, frame = 0
	@ frame_needed = 0, uses_anonymous_args = 0
	.loc 1 209 3 view .LVU12
	.loc 1 210 3 view .LVU13
	.loc 1 213 3 view .LVU14
@ src/build-packet.c:208: {
	.loc 1 208 1 is_stmt 0 view .LVU15
	push	{r4, r5, r6, lr}	@
	.cfi_def_cfa_offset 16
	.cfi_offset 4, -16
	.cfi_offset 5, -12
	.cfi_offset 6, -8
	.cfi_offset 14, -4
@ src/build-packet.c:213:   switch (pkt->pkttype)
	.loc 1 213 3 view .LVU16
	ldrb	r3, [r0]	@ zero_extendqisi2	@ pkt_8(D)->pkttype, pkt_8(D)->pkttype
	cmp	r3, #11	@ pkt_8(D)->pkttype,
	beq	.L24		@,
	.loc 1 232 7 is_stmt 1 view .LVU17
	ldr	r0, .L27	@,
.LVL9:
	.loc 1 232 7 is_stmt 0 view .LVU18
.LPIC6:
	add	r0, pc, r0	@,
	bl	tfp_printf(PLT)	@
.LVL10:
	.loc 1 233 7 is_stmt 1 view .LVU19
	.loc 1 236 3 view .LVU20
.LBB22:
.LBI22:
	.loc 1 534 1 view .LVU21
.LBB23:
	.loc 1 536 5 view .LVU22
	.loc 1 544 5 view .LVU23
.LBE23:
.LBE22:
@ src/build-packet.c:232:       printf ("invalid packet type in calc_packet_length()");
	.loc 1 232 7 is_stmt 0 view .LVU24
	mov	r0, #2	@ <retval>,
	pop	{r4, r5, r6, pc}	@
.LVL11:
.L24:
@ src/build-packet.c:216:       n = calc_plaintext (pkt->pkt.plaintext);
	.loc 1 216 11 view .LVU25
	ldr	r3, [r0, #4]	@ _2, pkt_8(D)->pkt.plaintext
	mov	r5, r0	@ pkt, tmp140
	.loc 1 216 7 is_stmt 1 view .LVU26
.LVL12:
.LBB29:
.LBI29:
	.loc 1 379 1 view .LVU27
.LBB30:
	.loc 1 385 3 view .LVU28
@ src/build-packet.c:385:   if(pt->namelen>255)
	.loc 1 385 5 is_stmt 0 view .LVU29
	ldr	r2, [r3, #20]	@ _2->namelen, _2->namelen
@ src/build-packet.c:387:   u32 res = pt->len? (1 + 1 + pt->namelen + 4 + pt->len) : 0;
	.loc 1 387 15 view .LVU30
	ldr	r1, [r3]	@ _18, _2->len
@ src/build-packet.c:385:   if(pt->namelen>255)
	.loc 1 385 5 view .LVU31
	cmp	r2, #255	@ _2->namelen,
	.loc 1 386 5 is_stmt 1 view .LVU32
@ src/build-packet.c:386:     pt->namelen=255;
	.loc 1 386 16 is_stmt 0 view .LVU33
	movgt	r2, #255	@ tmp127,
	strgt	r2, [r3, #20]	@ tmp127, _2->namelen
	.loc 1 387 3 is_stmt 1 view .LVU34
@ src/build-packet.c:387:   u32 res = pt->len? (1 + 1 + pt->namelen + 4 + pt->len) : 0;
	.loc 1 387 58 is_stmt 0 view .LVU35
	cmp	r1, #0	@ _18,
	beq	.L25		@,
	.loc 1 387 58 view .LVU36
	ldr	r4, [r3, #20]	@ _2->namelen, _2->namelen
	add	r1, r1, #6	@ tmp130, _18,
@ src/build-packet.c:388:   printf("calc_plaintext write_32 %08x",res);
	.loc 1 388 3 view .LVU37
	ldr	r0, .L27+4	@,
.LVL13:
@ src/build-packet.c:387:   u32 res = pt->len? (1 + 1 + pt->namelen + 4 + pt->len) : 0;
	.loc 1 387 58 view .LVU38
	add	r4, r1, r4	@ iftmp.3_22, tmp130, _2->namelen
.LVL14:
	.loc 1 388 3 is_stmt 1 view .LVU39
.LPIC5:
	add	r0, pc, r0	@,
	mov	r1, r4	@, iftmp.3_22
	bl	tfp_printf(PLT)	@
.LVL15:
	.loc 1 389 3 view .LVU40
	.loc 1 389 3 is_stmt 0 view .LVU41
.LBE30:
.LBE29:
	.loc 1 217 7 is_stmt 1 view .LVU42
	.loc 1 218 7 view .LVU43
	.loc 1 236 3 view .LVU44
.LBB33:
	.loc 1 534 1 view .LVU45
.LBB24:
	.loc 1 536 5 view .LVU46
.LBE24:
.LBE33:
@ src/build-packet.c:217:       new_ctb = pkt->pkt.plaintext->new_ctb;
	.loc 1 217 35 is_stmt 0 view .LVU47
	ldr	r3, [r5, #4]	@ pkt_8(D)->pkt.plaintext, pkt_8(D)->pkt.plaintext
.LBB34:
.LBB25:
@ src/build-packet.c:536:     if( new_ctb ) {
	.loc 1 536 7 view .LVU48
	ldrb	r3, [r3, #8]	@ zero_extendqisi2	@ _3->new_ctb, _3->new_ctb
	cmp	r3, #0	@ _3->new_ctb,
	beq	.L26		@,
	.loc 1 537 2 is_stmt 1 view .LVU49
@ src/build-packet.c:537: 	if( len < 192 )
	.loc 1 537 4 is_stmt 0 view .LVU50
	cmp	r4, #191	@ iftmp.3_22,
	bls	.L23		@,
	.loc 1 539 2 is_stmt 1 view .LVU51
@ src/build-packet.c:539: 	if( len < 8384 )
	.loc 1 539 4 is_stmt 0 view .LVU52
	cmp	r4, #8384	@ iftmp.3_22,
	bcc	.L20		@,
.LBE25:
.LBE34:
@ src/build-packet.c:236:   n += calc_header_length (n, new_ctb);
	.loc 1 236 5 view .LVU53
	add	r0, r4, #6	@ <retval>, iftmp.3_22,
	pop	{r4, r5, r6, pc}	@
.LVL16:
.L25:
.LBB35:
.LBB31:
	.loc 1 388 3 is_stmt 1 view .LVU54
	ldr	r0, .L27+8	@,
.LVL17:
	.loc 1 388 3 is_stmt 0 view .LVU55
.LPIC4:
	add	r0, pc, r0	@,
	bl	tfp_printf(PLT)	@
.LVL18:
	.loc 1 389 3 is_stmt 1 view .LVU56
	.loc 1 389 3 is_stmt 0 view .LVU57
.LBE31:
.LBE35:
	.loc 1 217 7 is_stmt 1 view .LVU58
	.loc 1 218 7 view .LVU59
	.loc 1 236 3 view .LVU60
.LBB36:
	.loc 1 534 1 view .LVU61
.LBB26:
	.loc 1 536 5 view .LVU62
.LBE26:
.LBE36:
.LBB37:
.LBB32:
@ src/build-packet.c:388:   printf("calc_plaintext write_32 %08x",res);
	.loc 1 388 3 is_stmt 0 view .LVU63
	mov	r0, #2	@ <retval>,
	pop	{r4, r5, r6, pc}	@
.LVL19:
.L20:
	.loc 1 388 3 view .LVU64
.LBE32:
.LBE37:
.LBB38:
.LBB27:
	.loc 1 547 2 is_stmt 1 view .LVU65
.LBE27:
.LBE38:
@ src/build-packet.c:236:   n += calc_header_length (n, new_ctb);
	.loc 1 236 5 is_stmt 0 view .LVU66
	add	r0, r4, #3	@ <retval>, iftmp.3_22,
.LVL20:
	.loc 1 237 3 is_stmt 1 view .LVU67
@ src/build-packet.c:238: }
	.loc 1 238 1 is_stmt 0 view .LVU68
	pop	{r4, r5, r6, pc}	@
.LVL21:
.L26:
.LBB39:
.LBB28:
	.loc 1 544 5 is_stmt 1 view .LVU69
@ src/build-packet.c:544:     if( len < 256 )
	.loc 1 544 7 is_stmt 0 view .LVU70
	cmp	r4, #255	@ iftmp.3_22,
	bls	.L23		@,
	.loc 1 546 5 is_stmt 1 view .LVU71
@ src/build-packet.c:546:     if( len < 65536 )
	.loc 1 546 7 is_stmt 0 view .LVU72
	cmp	r4, #65536	@ iftmp.3_22,
	bcc	.L20		@,
.LBE28:
.LBE39:
@ src/build-packet.c:236:   n += calc_header_length (n, new_ctb);
	.loc 1 236 5 view .LVU73
	add	r0, r4, #5	@ <retval>, iftmp.3_22,
	pop	{r4, r5, r6, pc}	@
.L23:
	.loc 1 236 5 view .LVU74
	add	r0, r4, #2	@ <retval>, iftmp.3_22,
	pop	{r4, r5, r6, pc}	@
.L28:
	.align	2
.L27:
	.word	.LC5-(.LPIC6+8)
	.word	.LC4-(.LPIC5+8)
	.word	.LC4-(.LPIC4+8)
	.cfi_endproc
.LFE23:
	.size	calc_packet_length, .-calc_packet_length
	.section	.rodata.log_hexdump.str1.4,"aMS",%progbits,1
	.align	2
.LC6:
	.ascii	"%d bytes:\012\000"
	.align	2
.LC7:
	.ascii	"%-8d \000"
	.align	2
.LC8:
	.ascii	" \000"
	.align	2
.LC9:
	.ascii	"%02x\000"
	.align	2
.LC10:
	.ascii	"  \000"
	.align	2
.LC11:
	.ascii	"%s\012\000"
	.section	.text.log_hexdump,"ax",%progbits
	.align	2
	.global	log_hexdump
	.syntax unified
	.arm
	.fpu softvfp
	.type	log_hexdump, %function
log_hexdump:
.LVL22:
.LFB24:
	.loc 1 241 53 is_stmt 1 view -0
	.cfi_startproc
	@ args = 0, pretend = 0, frame = 40
	@ frame_needed = 0, uses_anonymous_args = 0
	.loc 1 242 5 view .LVU76
	.loc 1 243 5 view .LVU77
	.loc 1 245 5 view .LVU78
@ src/build-packet.c:241: void log_hexdump(const uint8_t *buffer, int length) {
	.loc 1 241 53 is_stmt 0 view .LVU79
	push	{r4, r5, r6, r7, r8, r9, r10, fp, lr}	@
	.cfi_def_cfa_offset 36
	.cfi_offset 4, -36
	.cfi_offset 5, -32
	.cfi_offset 6, -28
	.cfi_offset 7, -24
	.cfi_offset 8, -20
	.cfi_offset 9, -16
	.cfi_offset 10, -12
	.cfi_offset 11, -8
	.cfi_offset 14, -4
	mov	r6, r0	@ tmp172, buffer
@ src/build-packet.c:245:     printf("%d bytes:\n", length);
	.loc 1 245 5 view .LVU80
	ldr	r0, .L48	@,
.LVL23:
@ src/build-packet.c:241: void log_hexdump(const uint8_t *buffer, int length) {
	.loc 1 241 53 view .LVU81
	mov	r7, r1	@ length, tmp173
	sub	sp, sp, #44	@,,
	.cfi_def_cfa_offset 80
@ src/build-packet.c:245:     printf("%d bytes:\n", length);
	.loc 1 245 5 view .LVU82
.LPIC7:
	add	r0, pc, r0	@,
	bl	tfp_printf(PLT)	@
.LVL24:
	.loc 1 246 5 is_stmt 1 view .LVU83
	.loc 1 246 11 view .LVU84
	cmp	r7, #0	@ length,
	ble	.L29		@,
.LBB40:
@ src/build-packet.c:249:         printf("%-8d ", written);
	.loc 1 249 9 is_stmt 0 view .LVU85
	ldr	r3, .L48+4	@ tmp137,
.LBE40:
@ src/build-packet.c:243:     int written = 0;
	.loc 1 243 9 view .LVU86
	mov	r10, #0	@ written,
.LBB47:
.LBB41:
@ src/build-packet.c:252:             if (i % 2 == 0) printf(" ");
	.loc 1 252 29 view .LVU87
	ldr	r9, .L48+8	@ tmp166,
@ src/build-packet.c:253:             if (i % 8 == 0) printf(" ");
	.loc 1 253 29 view .LVU88
	ldr	r8, .L48+12	@ tmp167,
@ src/build-packet.c:258:                 printf("  ");
	.loc 1 258 17 view .LVU89
	ldr	r5, .L48+16	@ tmp168,
.LBE41:
@ src/build-packet.c:249:         printf("%-8d ", written);
	.loc 1 249 9 view .LVU90
.LPIC8:
	add	r3, pc, r3	@ tmp137, tmp137
	str	r3, [sp, #4]	@ tmp137, %sfp
	add	r3, sp, #19	@ ivtmp.42,,
.LBB42:
@ src/build-packet.c:252:             if (i % 2 == 0) printf(" ");
	.loc 1 252 29 view .LVU91
.LPIC9:
	add	r9, pc, r9	@ tmp166, tmp166
@ src/build-packet.c:253:             if (i % 8 == 0) printf(" ");
	.loc 1 253 29 view .LVU92
.LPIC10:
	add	r8, pc, r8	@ tmp167, tmp167
@ src/build-packet.c:258:                 printf("  ");
	.loc 1 258 17 view .LVU93
.LPIC12:
	add	r5, pc, r5	@ tmp168, tmp168
	str	r3, [sp, #8]	@ ivtmp.42, %sfp
	add	r3, sp, #20	@ tmp165,,
	str	r3, [sp, #12]	@ tmp165, %sfp
.LVL25:
.L38:
	.loc 1 258 17 view .LVU94
.LBE42:
	.loc 1 247 9 is_stmt 1 view .LVU95
@ src/build-packet.c:249:         printf("%-8d ", written);
	.loc 1 249 9 is_stmt 0 view .LVU96
	ldr	r0, [sp, #4]	@, %sfp
@ src/build-packet.c:247:         int have = (length > 16) ? 16 : length;
	.loc 1 247 13 view .LVU97
	cmp	r7, #16	@ length,
@ src/build-packet.c:249:         printf("%-8d ", written);
	.loc 1 249 9 view .LVU98
	mov	r1, r10	@, written
.LBB43:
@ src/build-packet.c:251:         for (int i = 0; i < 16; i++) {
	.loc 1 251 18 view .LVU99
	mov	fp, #0	@ i,
.LBE43:
@ src/build-packet.c:247:         int have = (length > 16) ? 16 : length;
	.loc 1 247 13 view .LVU100
	movlt	r4, r7	@ have, length
	movge	r4, #16	@ have,
.LVL26:
	.loc 1 249 9 is_stmt 1 view .LVU101
	bl	tfp_printf(PLT)	@
.LVL27:
	.loc 1 251 9 view .LVU102
.LBB44:
	.loc 1 251 14 view .LVU103
	.loc 1 251 25 view .LVU104
	b	.L35		@
.LVL28:
.L47:
@ src/build-packet.c:256:                 printf("%02x", buffer[i]);
	.loc 1 256 17 is_stmt 0 view .LVU105
	ldr	r0, .L48+20	@,
	ldrb	r1, [r6, fp]	@ zero_extendqisi2	@, MEM[base: buffer_21, index: _47, offset: 0B]
@ src/build-packet.c:251:         for (int i = 0; i < 16; i++) {
	.loc 1 251 34 view .LVU106
	add	fp, fp, #1	@ i, i,
.LVL29:
@ src/build-packet.c:256:                 printf("%02x", buffer[i]);
	.loc 1 256 17 view .LVU107
.LPIC11:
	add	r0, pc, r0	@,
	bl	tfp_printf(PLT)	@
.LVL30:
	.loc 1 251 33 is_stmt 1 view .LVU108
	.loc 1 251 25 view .LVU109
@ src/build-packet.c:251:         for (int i = 0; i < 16; i++) {
	.loc 1 251 9 is_stmt 0 view .LVU110
	cmp	fp, #16	@ i,
	beq	.L44		@,
.LVL31:
.L35:
	.loc 1 252 13 is_stmt 1 view .LVU111
@ src/build-packet.c:252:             if (i % 2 == 0) printf(" ");
	.loc 1 252 16 is_stmt 0 view .LVU112
	tst	fp, #1	@ i,
	beq	.L45		@,
.L31:
	.loc 1 253 13 is_stmt 1 view .LVU113
@ src/build-packet.c:253:             if (i % 8 == 0) printf(" ");
	.loc 1 253 16 is_stmt 0 view .LVU114
	tst	fp, #7	@ i,
	beq	.L46		@,
.L32:
	.loc 1 255 13 is_stmt 1 view .LVU115
	.loc 1 256 17 view .LVU116
	.loc 1 258 17 view .LVU117
@ src/build-packet.c:255:             if (i < have) {
	.loc 1 255 16 is_stmt 0 view .LVU118
	cmp	r4, fp	@ have, i
@ src/build-packet.c:258:                 printf("  ");
	.loc 1 258 17 view .LVU119
	mov	r0, r5	@, tmp168
@ src/build-packet.c:255:             if (i < have) {
	.loc 1 255 16 view .LVU120
	bgt	.L47		@,
@ src/build-packet.c:251:         for (int i = 0; i < 16; i++) {
	.loc 1 251 34 view .LVU121
	add	fp, fp, #1	@ i, i,
.LVL32:
@ src/build-packet.c:258:                 printf("  ");
	.loc 1 258 17 view .LVU122
	bl	tfp_printf(PLT)	@
.LVL33:
	.loc 1 251 33 is_stmt 1 view .LVU123
	.loc 1 251 25 view .LVU124
@ src/build-packet.c:251:         for (int i = 0; i < 16; i++) {
	.loc 1 251 9 is_stmt 0 view .LVU125
	cmp	fp, #16	@ i,
	bne	.L35		@,
.L44:
	.loc 1 251 9 view .LVU126
.LBE44:
	.loc 1 262 9 is_stmt 1 view .LVU127
	ldr	r0, .L48+24	@,
.LPIC13:
	add	r0, pc, r0	@,
	bl	tfp_printf(PLT)	@
.LVL34:
	.loc 1 263 9 view .LVU128
.LBB45:
	.loc 1 263 14 view .LVU129
	.loc 1 263 25 view .LVU130
	ldr	r1, [sp, #8]	@ ivtmp.42, %sfp
	sub	r2, r6, #1	@ ivtmp.39, buffer,
	add	ip, r2, r4	@ _57, ivtmp.39, have
.LVL35:
.L37:
	.loc 1 264 13 view .LVU131
@ src/build-packet.c:264:             text[i] = (buffer[i] >= 32 && buffer[i] <= 126) ? buffer[i] : '.';
	.loc 1 264 30 is_stmt 0 view .LVU132
	ldrb	r3, [r2, #1]!	@ zero_extendqisi2	@ _9, MEM[base: _51, offset: 0B]
@ src/build-packet.c:264:             text[i] = (buffer[i] >= 32 && buffer[i] <= 126) ? buffer[i] : '.';
	.loc 1 264 21 view .LVU133
	sub	r0, r3, #32	@ tmp156, _9,
	cmp	r0, #94	@ tmp156,
	movhi	r3, #46	@ _9,
@ src/build-packet.c:263:         for (int i = 0; i < have; i++) {
	.loc 1 263 9 view .LVU134
	cmp	r2, ip	@ ivtmp.39, _57
@ src/build-packet.c:264:             text[i] = (buffer[i] >= 32 && buffer[i] <= 126) ? buffer[i] : '.';
	.loc 1 264 21 view .LVU135
	strb	r3, [r1, #1]!	@ _9, MEM[base: _62, offset: 0B]
	.loc 1 263 35 is_stmt 1 view .LVU136
	.loc 1 263 25 view .LVU137
@ src/build-packet.c:263:         for (int i = 0; i < have; i++) {
	.loc 1 263 9 is_stmt 0 view .LVU138
	bne	.L37		@,
.LBE45:
	.loc 1 266 9 is_stmt 1 view .LVU139
@ src/build-packet.c:267:         printf("%s\n", text);
	.loc 1 267 9 is_stmt 0 view .LVU140
	ldr	r0, .L48+28	@,
@ src/build-packet.c:266:         text[have] = '\0';
	.loc 1 266 20 view .LVU141
	add	r3, r4, #40	@ tmp203, have,
	add	r3, sp, r3	@ tmp158,, tmp203
	mov	r2, #0	@ tmp159,
@ src/build-packet.c:267:         printf("%s\n", text);
	.loc 1 267 9 view .LVU142
.LPIC14:
	add	r0, pc, r0	@,
	ldr	r1, [sp, #12]	@, %sfp
@ src/build-packet.c:270:         length -= have;
	.loc 1 270 16 view .LVU143
	sub	r7, r7, r4	@ length, length, have
.LVL36:
@ src/build-packet.c:266:         text[have] = '\0';
	.loc 1 266 20 view .LVU144
	strb	r2, [r3, #-20]	@ tmp159, text[have_29]
	.loc 1 267 9 is_stmt 1 view .LVU145
@ src/build-packet.c:269:         buffer += have;
	.loc 1 269 16 is_stmt 0 view .LVU146
	add	r6, r6, r4	@ buffer, buffer, have
.LVL37:
@ src/build-packet.c:267:         printf("%s\n", text);
	.loc 1 267 9 view .LVU147
	bl	tfp_printf(PLT)	@
.LVL38:
	.loc 1 269 9 is_stmt 1 view .LVU148
	.loc 1 270 9 view .LVU149
	.loc 1 271 9 view .LVU150
@ src/build-packet.c:271:         written += have;
	.loc 1 271 17 is_stmt 0 view .LVU151
	add	r10, r10, r4	@ written, written, have
.LVL39:
	.loc 1 271 17 view .LVU152
.LBE47:
	.loc 1 246 11 is_stmt 1 view .LVU153
	cmp	r7, #0	@ length,
	bgt	.L38		@,
.LVL40:
.L29:
@ src/build-packet.c:273: }
	.loc 1 273 1 is_stmt 0 view .LVU154
	add	sp, sp, #44	@,,
	.cfi_remember_state
	.cfi_def_cfa_offset 36
	@ sp needed	@
	pop	{r4, r5, r6, r7, r8, r9, r10, fp, pc}	@
.LVL41:
.L46:
	.cfi_restore_state
.LBB48:
.LBB46:
	.loc 1 253 29 is_stmt 1 discriminator 1 view .LVU155
	mov	r0, r8	@, tmp167
	bl	tfp_printf(PLT)	@
.LVL42:
	b	.L32		@
.L45:
	.loc 1 252 29 discriminator 1 view .LVU156
	mov	r0, r9	@, tmp166
	bl	tfp_printf(PLT)	@
.LVL43:
	b	.L31		@
.L49:
	.align	2
.L48:
	.word	.LC6-(.LPIC7+8)
	.word	.LC7-(.LPIC8+8)
	.word	.LC8-(.LPIC9+8)
	.word	.LC8-(.LPIC10+8)
	.word	.LC10-(.LPIC12+8)
	.word	.LC9-(.LPIC11+8)
	.word	.LC10-(.LPIC13+8)
	.word	.LC11-(.LPIC14+8)
.LBE46:
.LBE48:
	.cfi_endproc
.LFE24:
	.size	log_hexdump, .-log_hexdump
	.section	.rodata.write_header2.constprop.0.isra.0.str1.4,"aMS",%progbits,1
	.align	2
.LC12:
	.ascii	"write_header2  %08X %d %02X %d\000"
	.align	2
.LC13:
	.ascii	"ctb new format: %d\012\000"
	.align	2
.LC14:
	.ascii	"writing_new_header\012\000"
	.align	2
.LC15:
	.ascii	"write_new_header %02X %08X %d\012\000"
	.align	2
.LC16:
	.ascii	"enable partial body length mode\012\000"
	.align	2
.LC17:
	.ascii	"len=%d\012\000"
	.align	2
.LC18:
	.ascii	"Failing here\012\000"
	.align	2
.LC19:
	.ascii	"WRITE HEADER:     ctb=%02x, len=%d\012\000"
	.section	.text.write_header2.constprop.0.isra.0,"ax",%progbits
	.align	2
	.syntax unified
	.arm
	.fpu softvfp
	.type	write_header2.constprop.0.isra.0, %function
write_header2.constprop.0.isra.0:
.LVL44:
.LFB38:
	.loc 1 562 1 view -0
	.cfi_startproc
	@ args = 0, pretend = 0, frame = 0
	@ frame_needed = 0, uses_anonymous_args = 0
	.loc 1 565 3 view .LVU158
@ src/build-packet.c:562: write_header2( IOBUF out, int ctb, u32 len, int hdrlen )
	.loc 1 562 1 is_stmt 0 view .LVU159
	push	{r4, r5, r6, r7, lr}	@
	.cfi_def_cfa_offset 20
	.cfi_offset 4, -20
	.cfi_offset 5, -16
	.cfi_offset 6, -12
	.cfi_offset 7, -8
	.cfi_offset 14, -4
	mov	r7, r0	@ tmp190, out
@ src/build-packet.c:565:   printf("write_header2  %08X %d %02X %d",len,hdrlen,ctb, out->use);
	.loc 1 565 3 view .LVU160
	ldr	r0, .L79	@,
.LVL45:
@ src/build-packet.c:562: write_header2( IOBUF out, int ctb, u32 len, int hdrlen )
	.loc 1 562 1 view .LVU161
	sub	sp, sp, #12	@,,
	.cfi_def_cfa_offset 32
@ src/build-packet.c:565:   printf("write_header2  %08X %d %02X %d",len,hdrlen,ctb, out->use);
	.loc 1 565 3 view .LVU162
	ldrb	r3, [r7]	@ zero_extendqisi2	@ out_1(D)->use, out_1(D)->use
@ src/build-packet.c:562: write_header2( IOBUF out, int ctb, u32 len, int hdrlen )
	.loc 1 562 1 view .LVU163
	mov	r5, r2	@ len, tmp192
@ src/build-packet.c:565:   printf("write_header2  %08X %d %02X %d",len,hdrlen,ctb, out->use);
	.loc 1 565 3 view .LVU164
.LPIC15:
	add	r0, pc, r0	@,
.LBB53:
.LBB54:
@ src/build-packet.c:49:   int res = (ctb & (1 << 6));
	.loc 1 49 7 view .LVU165
	and	r6, r1, #64	@ res, ctb,
.LBE54:
.LBE53:
@ src/build-packet.c:565:   printf("write_header2  %08X %d %02X %d",len,hdrlen,ctb, out->use);
	.loc 1 565 3 view .LVU166
	str	r3, [sp]	@ out_1(D)->use,
	mov	r2, #0	@,
.LVL46:
	.loc 1 565 3 view .LVU167
	mov	r3, r1	@, ctb
@ src/build-packet.c:562: write_header2( IOBUF out, int ctb, u32 len, int hdrlen )
	.loc 1 562 1 view .LVU168
	mov	r4, r1	@ ctb, tmp191
@ src/build-packet.c:565:   printf("write_header2  %08X %d %02X %d",len,hdrlen,ctb, out->use);
	.loc 1 565 3 view .LVU169
	mov	r1, r5	@, len
.LVL47:
	.loc 1 565 3 view .LVU170
	bl	tfp_printf(PLT)	@
.LVL48:
	.loc 1 566 3 is_stmt 1 view .LVU171
.LBB56:
.LBI53:
	.loc 1 44 1 view .LVU172
.LBB55:
	.loc 1 49 3 view .LVU173
	.loc 1 50 3 view .LVU174
	ldr	r0, .L79+4	@,
	mov	r1, r6	@, res
.LPIC16:
	add	r0, pc, r0	@,
	bl	tfp_printf(PLT)	@
.LVL49:
	.loc 1 51 3 view .LVU175
	.loc 1 51 3 is_stmt 0 view .LVU176
.LBE55:
.LBE56:
@ src/build-packet.c:566:   if (ctb_new_format_p (ctb)){
	.loc 1 566 6 view .LVU177
	cmp	r6, #0	@ res,
	bne	.L75		@,
	.loc 1 580 3 is_stmt 1 view .LVU178
	.loc 1 601 7 view .LVU179
	ldr	r0, .L79+8	@,
	mov	r1, r5	@, len
.LPIC21:
	add	r0, pc, r0	@,
	bl	tfp_printf(PLT)	@
.LVL50:
	.loc 1 602 7 view .LVU180
@ src/build-packet.c:602:       if( !len )
	.loc 1 602 9 is_stmt 0 view .LVU181
	cmp	r5, #0	@ len,
	bne	.L58		@,
	.loc 1 604 2 is_stmt 1 view .LVU182
@ src/build-packet.c:604: 	ctb |= 3;
	.loc 1 604 6 is_stmt 0 view .LVU183
	orr	r4, r4, #3	@ ctb, ctb,
.LVL51:
	.loc 1 616 3 is_stmt 1 view .LVU184
@ src/build-packet.c:616:   if( iobuf_put(out, ctb ) ){
	.loc 1 616 7 is_stmt 0 view .LVU185
	mov	r0, r7	@, out
	mov	r1, r4	@, ctb
	bl	iobuf_writebyte(PLT)	@
.LVL52:
@ src/build-packet.c:616:   if( iobuf_put(out, ctb ) ){
	.loc 1 616 5 view .LVU186
	cmp	r0, #0	@ tmp199,
	bne	.L59		@,
.L60:
	.loc 1 640 5 is_stmt 1 view .LVU187
	ldr	r0, .L79+12	@,
	mov	r1, r4	@, ctb
	mov	r2, r5	@, len
.LPIC23:
	add	r0, pc, r0	@,
	bl	tfp_printf(PLT)	@
.LVL53:
	.loc 1 641 5 view .LVU188
	ldr	r1, [r7, #28]	@, out_1(D)->d.len
	ldr	r0, [r7, #32]	@, out_1(D)->d.buf
@ src/build-packet.c:643: }
	.loc 1 643 1 is_stmt 0 view .LVU189
	add	sp, sp, #12	@,,
	.cfi_remember_state
	.cfi_def_cfa_offset 20
	@ sp needed	@
	pop	{r4, r5, r6, r7, lr}	@
	.cfi_restore 14
	.cfi_restore 7
	.cfi_restore 6
	.cfi_restore 5
	.cfi_restore 4
	.cfi_def_cfa_offset 0
.LVL54:
@ src/build-packet.c:641:     log_hexdump(out->d.buf, out->d.len);
	.loc 1 641 5 view .LVU190
	b	log_hexdump(PLT)	@
.LVL55:
.L58:
	.cfi_restore_state
	.loc 1 605 12 is_stmt 1 view .LVU191
@ src/build-packet.c:605:       else if( len < 256 )
	.loc 1 605 14 is_stmt 0 view .LVU192
	cmp	r5, #255	@ len,
	bhi	.L76		@,
.LVL56:
.L61:
	.loc 1 616 3 is_stmt 1 view .LVU193
@ src/build-packet.c:616:   if( iobuf_put(out, ctb ) ){
	.loc 1 616 7 is_stmt 0 view .LVU194
	mov	r1, r4	@, ctb
	mov	r0, r7	@, out
	bl	iobuf_writebyte(PLT)	@
.LVL57:
@ src/build-packet.c:616:   if( iobuf_put(out, ctb ) ){
	.loc 1 616 5 view .LVU195
	cmp	r0, #0	@ tmp205,
	bne	.L59		@,
	.loc 1 623 7 is_stmt 1 view .LVU196
@ src/build-packet.c:623:       if( ctb & 2 )
	.loc 1 623 9 is_stmt 0 view .LVU197
	tst	r4, #2	@ ctb,
	bne	.L63		@,
.L66:
	.loc 1 631 7 is_stmt 1 view .LVU198
@ src/build-packet.c:631:       if( ctb & 3 ){
	.loc 1 631 9 is_stmt 0 view .LVU199
	tst	r4, #3	@ ctb,
	beq	.L65		@,
	.loc 1 633 2 is_stmt 1 view .LVU200
@ src/build-packet.c:633: 	if(iobuf_put(out, len >> 8 ))
	.loc 1 633 5 is_stmt 0 view .LVU201
	lsr	r1, r5, #8	@, len,
	mov	r0, r7	@, out
	bl	iobuf_writebyte(PLT)	@
.LVL58:
@ src/build-packet.c:633: 	if(iobuf_put(out, len >> 8 ))
	.loc 1 633 4 view .LVU202
	cmp	r0, #0	@ tmp204,
	bne	.L50		@,
.L65:
	.loc 1 637 7 is_stmt 1 view .LVU203
@ src/build-packet.c:637:       if( iobuf_put(out, len ) )
	.loc 1 637 11 is_stmt 0 view .LVU204
	mov	r1, r5	@, len
	mov	r0, r7	@, out
	bl	iobuf_writebyte(PLT)	@
.LVL59:
@ src/build-packet.c:637:       if( iobuf_put(out, len ) )
	.loc 1 637 9 view .LVU205
	cmp	r0, #0	@ tmp203,
	beq	.L60		@,
	b	.L50		@
.L75:
	.loc 1 567 5 is_stmt 1 view .LVU206
	ldr	r0, .L79+16	@,
.LPIC17:
	add	r0, pc, r0	@,
	bl	tfp_printf(PLT)	@
.LVL60:
	.loc 1 568 5 view .LVU207
.LBB57:
.LBI57:
	.loc 1 661 1 view .LVU208
.LBB58:
	.loc 1 663 3 view .LVU209
	ldr	r0, .L79+20	@,
	mov	r3, #0	@,
	mov	r2, r5	@, len
	mov	r1, r4	@, ctb
.LPIC18:
	add	r0, pc, r0	@,
	bl	tfp_printf(PLT)	@
.LVL61:
	.loc 1 664 5 view .LVU210
	.loc 1 667 5 view .LVU211
@ src/build-packet.c:667:     if( iobuf_put(out, ctb ) )
	.loc 1 667 9 is_stmt 0 view .LVU212
	mov	r1, r4	@, ctb
	mov	r0, r7	@, out
	bl	iobuf_writebyte(PLT)	@
.LVL62:
@ src/build-packet.c:667:     if( iobuf_put(out, ctb ) )
	.loc 1 667 7 view .LVU213
	cmp	r0, #0	@ tmp193,
	bne	.L50		@,
	.loc 1 669 5 is_stmt 1 view .LVU214
@ src/build-packet.c:669:     if( !len ) {
	.loc 1 669 7 is_stmt 0 view .LVU215
	cmp	r5, #0	@ len,
	beq	.L77		@,
	.loc 1 674 7 is_stmt 1 view .LVU216
	ldr	r0, .L79+24	@,
	mov	r1, r5	@, len
.LPIC20:
	add	r0, pc, r0	@,
	bl	tfp_printf(PLT)	@
.LVL63:
	.loc 1 675 2 view .LVU217
@ src/build-packet.c:675: 	if( len < 192 ) {
	.loc 1 675 4 is_stmt 0 view .LVU218
	cmp	r5, #191	@ len,
@ src/build-packet.c:676: 	    if( iobuf_put(out, len ) )
	.loc 1 676 10 view .LVU219
	movls	r1, r5	@, len
@ src/build-packet.c:675: 	if( len < 192 ) {
	.loc 1 675 4 view .LVU220
	bls	.L73		@,
	.loc 1 679 7 is_stmt 1 view .LVU221
@ src/build-packet.c:679: 	else if( len < 8384 ) {
	.loc 1 679 9 is_stmt 0 view .LVU222
	cmp	r5, #8384	@ len,
	bcc	.L78		@,
	.loc 1 687 6 is_stmt 1 view .LVU223
@ src/build-packet.c:687: 	    if( iobuf_put( out, 0xff ) )
	.loc 1 687 10 is_stmt 0 view .LVU224
	mov	r1, #255	@,
	mov	r0, r7	@, out
	bl	iobuf_writebyte(PLT)	@
.LVL64:
@ src/build-packet.c:687: 	    if( iobuf_put( out, 0xff ) )
	.loc 1 687 8 view .LVU225
	cmp	r0, #0	@ tmp195,
	bne	.L50		@,
	.loc 1 689 6 is_stmt 1 view .LVU226
@ src/build-packet.c:689: 	    if( iobuf_put( out, (len >> 24)&0xff ) )
	.loc 1 689 10 is_stmt 0 view .LVU227
	lsr	r1, r5, #24	@, len,
	mov	r0, r7	@, out
	bl	iobuf_writebyte(PLT)	@
.LVL65:
@ src/build-packet.c:689: 	    if( iobuf_put( out, (len >> 24)&0xff ) )
	.loc 1 689 8 view .LVU228
	cmp	r0, #0	@ tmp196,
	bne	.L50		@,
	.loc 1 691 6 is_stmt 1 view .LVU229
@ src/build-packet.c:691: 	    if( iobuf_put( out, (len >> 16)&0xff ) )
	.loc 1 691 10 is_stmt 0 view .LVU230
	ubfx	r1, r5, #16, #8	@, len,,
	mov	r0, r7	@, out
	bl	iobuf_writebyte(PLT)	@
.LVL66:
@ src/build-packet.c:691: 	    if( iobuf_put( out, (len >> 16)&0xff ) )
	.loc 1 691 8 view .LVU231
	cmp	r0, #0	@ tmp197,
	bne	.L50		@,
	.loc 1 693 6 is_stmt 1 view .LVU232
@ src/build-packet.c:693: 	    if( iobuf_put( out, (len >> 8)&0xff )  )
	.loc 1 693 10 is_stmt 0 view .LVU233
	ubfx	r1, r5, #8, #8	@, len,,
	mov	r0, r7	@, out
	bl	iobuf_writebyte(PLT)	@
.LVL67:
@ src/build-packet.c:693: 	    if( iobuf_put( out, (len >> 8)&0xff )  )
	.loc 1 693 8 view .LVU234
	cmp	r0, #0	@ tmp198,
	bne	.L50		@,
.LVL68:
.L74:
	.loc 1 683 6 is_stmt 1 view .LVU235
@ src/build-packet.c:683: 	    if( iobuf_put( out, (len % 256) )  )
	.loc 1 683 10 is_stmt 0 view .LVU236
	uxtb	r1, r5	@, len
.L73:
	.loc 1 683 10 view .LVU237
	mov	r0, r7	@, out
.LBE58:
.LBE57:
@ src/build-packet.c:643: }
	.loc 1 643 1 view .LVU238
	add	sp, sp, #12	@,,
	.cfi_remember_state
	.cfi_def_cfa_offset 20
	@ sp needed	@
	pop	{r4, r5, r6, r7, lr}	@
	.cfi_restore 14
	.cfi_restore 7
	.cfi_restore 6
	.cfi_restore 5
	.cfi_restore 4
	.cfi_def_cfa_offset 0
.LVL69:
.LBB63:
.LBB59:
@ src/build-packet.c:683: 	    if( iobuf_put( out, (len % 256) )  )
	.loc 1 683 10 view .LVU239
	b	iobuf_writebyte(PLT)	@
.LVL70:
.L76:
	.cfi_restore_state
	.loc 1 683 10 view .LVU240
.LBE59:
.LBE63:
	.loc 1 608 12 is_stmt 1 view .LVU241
@ src/build-packet.c:608:       else if( len < 65536 )
	.loc 1 608 14 is_stmt 0 view .LVU242
	cmp	r5, #65536	@ len,
@ src/build-packet.c:610: 	ctb |= 1;
	.loc 1 610 6 view .LVU243
	orrcc	r4, r4, #1	@ ctb, ctb,
.LVL71:
@ src/build-packet.c:608:       else if( len < 65536 )
	.loc 1 608 14 view .LVU244
	bcc	.L61		@,
	.loc 1 613 2 is_stmt 1 view .LVU245
@ src/build-packet.c:613: 	ctb |= 2;
	.loc 1 613 6 is_stmt 0 view .LVU246
	orr	r4, r4, #2	@ ctb, ctb,
.LVL72:
	.loc 1 616 3 is_stmt 1 view .LVU247
@ src/build-packet.c:616:   if( iobuf_put(out, ctb ) ){
	.loc 1 616 7 is_stmt 0 view .LVU248
	mov	r0, r7	@, out
	mov	r1, r4	@, ctb
	bl	iobuf_writebyte(PLT)	@
.LVL73:
@ src/build-packet.c:616:   if( iobuf_put(out, ctb ) ){
	.loc 1 616 5 view .LVU249
	cmp	r0, #0	@ tmp200,
	bne	.L59		@,
.L63:
	.loc 1 625 4 is_stmt 1 view .LVU250
@ src/build-packet.c:625: 	  if(iobuf_put(out, len >> 24 ))
	.loc 1 625 7 is_stmt 0 view .LVU251
	lsr	r1, r5, #24	@, len,
	mov	r0, r7	@, out
	bl	iobuf_writebyte(PLT)	@
.LVL74:
@ src/build-packet.c:625: 	  if(iobuf_put(out, len >> 24 ))
	.loc 1 625 6 view .LVU252
	cmp	r0, #0	@ tmp201,
	bne	.L50		@,
	.loc 1 627 4 is_stmt 1 view .LVU253
@ src/build-packet.c:627: 	  if(iobuf_put(out, len >> 16 ))
	.loc 1 627 7 is_stmt 0 view .LVU254
	lsr	r1, r5, #16	@, len,
	mov	r0, r7	@, out
	bl	iobuf_writebyte(PLT)	@
.LVL75:
@ src/build-packet.c:627: 	  if(iobuf_put(out, len >> 16 ))
	.loc 1 627 6 view .LVU255
	cmp	r0, #0	@ tmp202,
	beq	.L66		@,
	b	.L50		@
.LVL76:
.L77:
.LBB64:
.LBB60:
	.loc 1 670 3 is_stmt 1 view .LVU256
	ldr	r0, .L79+28	@,
.LPIC19:
	add	r0, pc, r0	@,
	bl	tfp_printf(PLT)	@
.LVL77:
	.loc 1 671 2 view .LVU257
	mov	r1, #512	@,
	mov	r0, r7	@, out
.LBE60:
.LBE64:
@ src/build-packet.c:643: }
	.loc 1 643 1 is_stmt 0 view .LVU258
	add	sp, sp, #12	@,,
	.cfi_remember_state
	.cfi_def_cfa_offset 20
	@ sp needed	@
	pop	{r4, r5, r6, r7, lr}	@
	.cfi_restore 14
	.cfi_restore 7
	.cfi_restore 6
	.cfi_restore 5
	.cfi_restore 4
	.cfi_def_cfa_offset 0
.LVL78:
.LBB65:
.LBB61:
@ src/build-packet.c:671: 	iobuf_set_partial_body_length_mode(out, 512 );
	.loc 1 671 2 view .LVU259
	b	iobuf_set_partial_body_length_mode(PLT)	@
.LVL79:
.L59:
	.cfi_restore_state
	.loc 1 671 2 view .LVU260
.LBE61:
.LBE65:
	.loc 1 617 5 is_stmt 1 view .LVU261
	ldr	r0, .L79+32	@,
.LPIC22:
	add	r0, pc, r0	@,
@ src/build-packet.c:643: }
	.loc 1 643 1 is_stmt 0 view .LVU262
	add	sp, sp, #12	@,,
	.cfi_remember_state
	.cfi_def_cfa_offset 20
	@ sp needed	@
	pop	{r4, r5, r6, r7, lr}	@
	.cfi_restore 14
	.cfi_restore 7
	.cfi_restore 6
	.cfi_restore 5
	.cfi_restore 4
	.cfi_def_cfa_offset 0
.LVL80:
@ src/build-packet.c:617:     printf("Failing here\n");
	.loc 1 617 5 view .LVU263
	b	tfp_printf(PLT)	@
.LVL81:
.L78:
	.cfi_restore_state
.LBB66:
.LBB62:
	.loc 1 680 6 is_stmt 1 view .LVU264
@ src/build-packet.c:680: 	    len -= 192;
	.loc 1 680 10 is_stmt 0 view .LVU265
	sub	r5, r5, #192	@ len, len,
.LVL82:
	.loc 1 681 6 is_stmt 1 view .LVU266
@ src/build-packet.c:681: 	    if( iobuf_put( out, (len / 256) + 192) )
	.loc 1 681 10 is_stmt 0 view .LVU267
	mov	r0, r7	@, out
	lsr	r1, r5, #8	@ tmp168, len,
	add	r1, r1, #192	@, tmp168,
	bl	iobuf_writebyte(PLT)	@
.LVL83:
@ src/build-packet.c:681: 	    if( iobuf_put( out, (len / 256) + 192) )
	.loc 1 681 8 view .LVU268
	cmp	r0, #0	@ tmp194,
	beq	.L74		@,
.LVL84:
.L50:
	.loc 1 681 8 view .LVU269
.LBE62:
.LBE66:
@ src/build-packet.c:643: }
	.loc 1 643 1 view .LVU270
	add	sp, sp, #12	@,,
	.cfi_def_cfa_offset 20
	@ sp needed	@
	pop	{r4, r5, r6, r7, pc}	@
.LVL85:
.L80:
	.loc 1 643 1 view .LVU271
	.align	2
.L79:
	.word	.LC12-(.LPIC15+8)
	.word	.LC13-(.LPIC16+8)
	.word	.LC17-(.LPIC21+8)
	.word	.LC19-(.LPIC23+8)
	.word	.LC14-(.LPIC17+8)
	.word	.LC15-(.LPIC18+8)
	.word	.LC17-(.LPIC20+8)
	.word	.LC16-(.LPIC19+8)
	.word	.LC18-(.LPIC22+8)
	.cfi_endproc
.LFE38:
	.size	write_header2.constprop.0.isra.0, .-write_header2.constprop.0.isra.0
	.section	.rodata.build_packet.str1.4,"aMS",%progbits,1
	.align	2
.LC20:
	.ascii	"        BUILD PACKET: %s out->use %d\012\000"
	.align	2
.LC21:
	.ascii	"CTB: pkttype %02x %d\012\000"
	.align	2
.LC22:
	.ascii	"do_symkey_enc out->use %d\012\000"
	.align	2
.LC23:
	.ascii	"PKT_symkey_enc:\012\000"
	.align	2
.LC24:
	.ascii	"  version: %u\012\000"
	.align	2
.LC25:
	.ascii	"  cipher_algo: %u\012\000"
	.align	2
.LC26:
	.ascii	"  aead_algo: %u\012\000"
	.align	2
.LC27:
	.ascii	"  s2k:\012\000"
	.align	2
.LC28:
	.ascii	"    mode: %d\012\000"
	.align	2
.LC29:
	.ascii	"    hash_algo: %u\012\000"
	.align	2
.LC30:
	.ascii	"    salt: \000"
	.align	2
.LC31:
	.ascii	"    count: %08x\012\000"
	.align	2
.LC32:
	.ascii	"  seskeylen: %u\012\000"
	.align	2
.LC33:
	.ascii	"do_symkey_enc: s2k=%d\012\000"
	.align	2
.LC34:
	.ascii	"do_plaintext pt->buf: %d\012\000"
	.align	2
.LC35:
	.ascii	"Checking packet type\012\000"
	.align	2
.LC36:
	.ascii	"Writing header\012\000"
	.align	2
.LC37:
	.ascii	"CTB: %d\012\000"
	.align	2
.LC38:
	.ascii	"Checking mode validity: mode = %c\012\000"
	.align	2
.LC39:
	.ascii	"Writing mode: %c\012\000"
	.align	2
.LC40:
	.ascii	"Writing namelen: %zu\012\000"
	.align	2
.LC41:
	.ascii	"Writing name: %.*s\012\000"
	.align	2
.LC42:
	.ascii	"Writing timestamp: %u\012\000"
	.align	2
.LC43:
	.ascii	"write_32 %08x\012\000"
	.align	2
.LC44:
	.ascii	"rc: %d\012\000"
	.align	2
.LC45:
	.ascii	"pt->buf: %d\012\000"
	.align	2
.LC46:
	.ascii	"!!!!! Wrote buf %d bytes\000"
	.align	2
.LC47:
	.ascii	"Turned off partial body length mode\012\000"
	.align	2
.LC48:
	.ascii	"do_plaintext done %d\012\000"
	.align	2
.LC49:
	.ascii	"invalid packet type in build_packet()\012\000"
	.section	.text.build_packet,"ax",%progbits
	.align	2
	.global	build_packet
	.syntax unified
	.arm
	.fpu softvfp
	.type	build_packet, %function
build_packet:
.LVL86:
.LFB22:
	.loc 1 98 1 is_stmt 1 view -0
	.cfi_startproc
	@ args = 0, pretend = 0, frame = 0
	@ frame_needed = 0, uses_anonymous_args = 0
	.loc 1 99 5 view .LVU273
@ src/build-packet.c:98: {
	.loc 1 98 1 is_stmt 0 view .LVU274
	push	{r4, r5, r6, r7, r8, lr}	@
	.cfi_def_cfa_offset 24
	.cfi_offset 4, -24
	.cfi_offset 5, -20
	.cfi_offset 6, -16
	.cfi_offset 7, -12
	.cfi_offset 8, -8
	.cfi_offset 14, -4
@ src/build-packet.c:98: {
	.loc 1 98 1 view .LVU275
	mov	r5, r0	@ out, tmp345
@ src/build-packet.c:99:     printf("        BUILD PACKET: %s out->use %d\n",get_pkttype_name(pkt->pkttype), out->use);
	.loc 1 99 5 view .LVU276
	ldrb	r0, [r1]	@ zero_extendqisi2	@, pkt_23(D)->pkttype
.LVL87:
@ src/build-packet.c:98: {
	.loc 1 98 1 view .LVU277
	mov	r6, r1	@ pkt, tmp346
@ src/build-packet.c:99:     printf("        BUILD PACKET: %s out->use %d\n",get_pkttype_name(pkt->pkttype), out->use);
	.loc 1 99 5 view .LVU278
	bl	get_pkttype_name(PLT)	@
.LVL88:
	.loc 1 99 5 view .LVU279
	ldrb	r2, [r5]	@ zero_extendqisi2	@, out_25(D)->use
	mov	r1, r0	@ tmp347,
	ldr	r0, .L128	@,
.LPIC24:
	add	r0, pc, r0	@,
	bl	tfp_printf(PLT)	@
.LVL89:
	.loc 1 101 3 is_stmt 1 view .LVU280
	.loc 1 102 3 view .LVU281
	.loc 1 103 3 view .LVU282
	.loc 1 109 3 view .LVU283
@ src/build-packet.c:109:   switch ((pkttype = pkt->pkttype))
	.loc 1 109 25 is_stmt 0 view .LVU284
	ldrb	r4, [r6]	@ zero_extendqisi2	@ _5, pkt_23(D)->pkttype
.LVL90:
@ src/build-packet.c:109:   switch ((pkttype = pkt->pkttype))
	.loc 1 109 3 view .LVU285
	cmp	r4, #9	@ _5,
	beq	.L82		@,
	cmp	r4, #11	@ _5,
	movne	r3, #0	@ _215,
	bne	.L83		@,
.L82:
	.loc 1 125 7 is_stmt 1 view .LVU286
.LVL91:
	.loc 1 126 7 view .LVU287
@ src/build-packet.c:125:       new_ctb = pkt->pkt.encrypted->new_ctb;
	.loc 1 125 35 is_stmt 0 view .LVU288
	ldr	r3, [r6, #4]	@ pkt_23(D)->pkt.encrypted,
@ src/build-packet.c:138:   if (new_ctb || pkttype > 15) /* new format */
	.loc 1 138 7 view .LVU289
	ldrb	r3, [r3, #8]	@ zero_extendqisi2	@ _8->new_ctb,
	subs	r3, r3, #0	@ _215, _8->new_ctb,
	movne	r3, #1	@ _215,
.LVL92:
.L83:
	.loc 1 138 3 is_stmt 1 view .LVU290
	.loc 1 139 5 view .LVU291
@ src/build-packet.c:138:   if (new_ctb || pkttype > 15) /* new format */
	.loc 1 138 6 is_stmt 0 view .LVU292
	cmp	r4, #15	@ _5,
	orrgt	r3, r3, #1	@,, tmp223, _215
@ src/build-packet.c:142:   printf("CTB: pkttype %02x %d\n", ctb, pkttype);
	.loc 1 142 3 view .LVU293
	mov	r2, r4	@, _5
	ldr	r0, .L128+4	@,
@ src/build-packet.c:138:   if (new_ctb || pkttype > 15) /* new format */
	.loc 1 138 6 view .LVU294
	cmp	r3, #0	@ tmp223,
@ src/build-packet.c:141:     ctb = (0x80 | ((pkttype & 15)<<2));
	.loc 1 141 34 view .LVU295
	lsleq	r7, r4, #2	@ tmp227, _5,
@ src/build-packet.c:139:     ctb = (0xc0 | (pkttype & 0x3f));
	.loc 1 139 9 view .LVU296
	orrne	r7, r4, #192	@ ctb, _5,
	.loc 1 141 5 is_stmt 1 view .LVU297
@ src/build-packet.c:142:   printf("CTB: pkttype %02x %d\n", ctb, pkttype);
	.loc 1 142 3 is_stmt 0 view .LVU298
.LPIC25:
	add	r0, pc, r0	@,
@ src/build-packet.c:141:     ctb = (0x80 | ((pkttype & 15)<<2));
	.loc 1 141 9 view .LVU299
	orreq	r7, r7, #128	@ ctb, tmp227,
.LVL93:
	.loc 1 142 3 is_stmt 1 view .LVU300
	mov	r1, r7	@, ctb
	bl	tfp_printf(PLT)	@
.LVL94:
	.loc 1 143 3 view .LVU301
	cmp	r4, #9	@ _5,
	beq	.L86		@,
	cmp	r4, #11	@ _5,
	beq	.L87		@,
	cmp	r4, #3	@ _5,
	beq	.L124		@,
	.loc 1 196 7 view .LVU302
	ldr	r0, .L128+8	@,
@ src/build-packet.c:101:   int rc = 0;
	.loc 1 101 7 is_stmt 0 view .LVU303
	mov	r6, #0	@ <retval>,
.LVL95:
@ src/build-packet.c:196:       printf ("invalid packet type in build_packet()\n");
	.loc 1 196 7 view .LVU304
.LPIC55:
	add	r0, pc, r0	@,
	bl	tfp_printf(PLT)	@
.LVL96:
	.loc 1 197 7 is_stmt 1 view .LVU305
	.loc 1 200 3 view .LVU306
.L81:
@ src/build-packet.c:201: }
	.loc 1 201 1 is_stmt 0 view .LVU307
	mov	r0, r6	@, <retval>
	pop	{r4, r5, r6, r7, r8, pc}	@
.LVL97:
.L86:
	.loc 1 173 7 is_stmt 1 view .LVU308
@ src/build-packet.c:173:       rc = do_encrypted (out, ctb, pkt->pkt.encrypted);
	.loc 1 173 12 is_stmt 0 view .LVU309
	ldr	r3, [r6, #4]	@ _17, pkt_23(D)->pkt.encrypted
.LVL98:
.LBB85:
.LBI85:
	.loc 1 484 1 is_stmt 1 view .LVU310
.LBB86:
	.loc 1 486 5 view .LVU311
	.loc 1 487 5 view .LVU312
	.loc 1 492 5 view .LVU313
.LBB87:
.LBB88:
@ src/build-packet.c:558:     return write_header2( out, ctb, len, 0 );
	.loc 1 558 12 is_stmt 0 view .LVU314
	mov	r0, r5	@, out
	mov	r1, r7	@, ctb
.LBE88:
.LBE87:
.LBE86:
.LBE85:
@ src/build-packet.c:173:       rc = do_encrypted (out, ctb, pkt->pkt.encrypted);
	.loc 1 173 12 view .LVU315
	mov	r6, #0	@ <retval>,
.LVL99:
.LBB92:
.LBB91:
@ src/build-packet.c:492:     n = ed->len ? (ed->len + ed->extralen) : 0;
	.loc 1 492 11 view .LVU316
	ldr	r2, [r3]	@ _122, _17->len
@ src/build-packet.c:492:     n = ed->len ? (ed->len + ed->extralen) : 0;
	.loc 1 492 44 view .LVU317
	cmp	r2, #0	@ _122,
	ldrne	r3, [r3, #4]	@ _17->extralen, _17->extralen
.LVL100:
	.loc 1 492 44 view .LVU318
	addne	r2, r2, r3	@ _122, _122, _17->extralen
.LVL101:
	.loc 1 493 5 is_stmt 1 view .LVU319
.LBB90:
.LBI87:
	.loc 1 556 1 view .LVU320
.LBB89:
	.loc 1 558 5 view .LVU321
@ src/build-packet.c:558:     return write_header2( out, ctb, len, 0 );
	.loc 1 558 12 is_stmt 0 view .LVU322
	bl	write_header2.constprop.0.isra.0(PLT)	@
.LVL102:
	.loc 1 558 12 view .LVU323
.LBE89:
.LBE90:
	.loc 1 497 5 is_stmt 1 view .LVU324
	.loc 1 497 5 is_stmt 0 view .LVU325
.LBE91:
.LBE92:
	.loc 1 174 7 is_stmt 1 view .LVU326
@ src/build-packet.c:201: }
	.loc 1 201 1 is_stmt 0 view .LVU327
	mov	r0, r6	@, <retval>
	pop	{r4, r5, r6, r7, r8, pc}	@
.LVL103:
.L124:
	.loc 1 164 7 is_stmt 1 view .LVU328
.LBB93:
.LBB94:
@ src/build-packet.c:317:  printf("do_symkey_enc out->use %d\n", out->use);
	.loc 1 317 2 is_stmt 0 view .LVU329
	ldr	r0, .L128+12	@,
	ldrb	r1, [r5]	@ zero_extendqisi2	@, out_25(D)->use
.LPIC26:
	add	r0, pc, r0	@,
.LBE94:
.LBE93:
@ src/build-packet.c:164:       rc = do_symkey_enc (out, ctb, pkt->pkt.symkey_enc);
	.loc 1 164 12 view .LVU330
	ldr	r4, [r6, #4]	@ _15, pkt_23(D)->pkt.symkey_enc
.LVL104:
.LBB100:
.LBI93:
	.loc 1 315 1 is_stmt 1 view .LVU331
.LBB97:
	.loc 1 317 2 view .LVU332
	bl	tfp_printf(PLT)	@
.LVL105:
	.loc 1 318 4 view .LVU333
	ldr	r0, .L128+16	@,
@ src/build-packet.c:326:     log_hexdump(enc->s2k.salt, 8);
	.loc 1 326 25 is_stmt 0 view .LVU334
	add	r6, r4, #9	@ _52, _15,
.LVL106:
@ src/build-packet.c:318:    printf("PKT_symkey_enc:\n");
	.loc 1 318 4 view .LVU335
.LPIC27:
	add	r0, pc, r0	@,
	bl	tfp_printf(PLT)	@
.LVL107:
	.loc 1 319 5 is_stmt 1 view .LVU336
	ldr	r0, .L128+20	@,
	ldrb	r1, [r4]	@ zero_extendqisi2	@, _15->version
.LPIC28:
	add	r0, pc, r0	@,
	bl	tfp_printf(PLT)	@
.LVL108:
	.loc 1 320 5 view .LVU337
	ldr	r0, .L128+24	@,
	ldrb	r1, [r4, #1]	@ zero_extendqisi2	@, _15->cipher_algo
.LPIC29:
	add	r0, pc, r0	@,
	bl	tfp_printf(PLT)	@
.LVL109:
	.loc 1 321 5 view .LVU338
	ldr	r0, .L128+28	@,
	ldrb	r1, [r4, #2]	@ zero_extendqisi2	@, _15->aead_algo
.LPIC30:
	add	r0, pc, r0	@,
	bl	tfp_printf(PLT)	@
.LVL110:
	.loc 1 322 6 view .LVU339
	ldr	r0, .L128+32	@,
.LPIC31:
	add	r0, pc, r0	@,
	bl	tfp_printf(PLT)	@
.LVL111:
	.loc 1 323 5 view .LVU340
	ldr	r0, .L128+36	@,
	ldr	r1, [r4, #4]	@, _15->s2k.mode
.LPIC32:
	add	r0, pc, r0	@,
	bl	tfp_printf(PLT)	@
.LVL112:
	.loc 1 324 5 view .LVU341
	ldr	r0, .L128+40	@,
	ldrb	r1, [r4, #8]	@ zero_extendqisi2	@, _15->s2k.hash_algo
.LPIC33:
	add	r0, pc, r0	@,
	bl	tfp_printf(PLT)	@
.LVL113:
	.loc 1 325 5 view .LVU342
	ldr	r0, .L128+44	@,
.LPIC34:
	add	r0, pc, r0	@,
	bl	tfp_printf(PLT)	@
.LVL114:
	.loc 1 326 5 view .LVU343
	mov	r1, #8	@,
	mov	r0, r6	@, _52
	bl	log_hexdump(PLT)	@
.LVL115:
	.loc 1 327 5 view .LVU344
	ldr	r0, .L128+48	@,
	ldr	r1, [r4, #20]	@, _15->s2k.count
.LPIC35:
	add	r0, pc, r0	@,
	bl	tfp_printf(PLT)	@
.LVL116:
	.loc 1 328 5 view .LVU345
	ldr	r0, .L128+52	@,
	ldrb	r1, [r4, #24]	@ zero_extendqisi2	@, _15->seskeylen
.LPIC36:
	add	r0, pc, r0	@,
	bl	tfp_printf(PLT)	@
.LVL117:
	.loc 1 335 3 view .LVU346
	.loc 1 336 3 view .LVU347
@ src/build-packet.c:336:   IOBUF a = iobuf_temp();
	.loc 1 336 13 is_stmt 0 view .LVU348
	bl	iobuf_temp(PLT)	@
.LVL118:
@ src/build-packet.c:342:   switch (enc->s2k.mode)
	.loc 1 342 19 view .LVU349
	ldr	r1, [r4, #4]	@ _57, _15->s2k.mode
@ src/build-packet.c:336:   IOBUF a = iobuf_temp();
	.loc 1 336 13 view .LVU350
	mov	r8, r0	@ a, tmp348
.LVL119:
	.loc 1 342 3 is_stmt 1 view .LVU351
	cmp	r1, #1	@ _57,
	bgt	.L89		@,
	cmp	r1, #0	@ _57,
	bge	.L90		@,
.L91:
	.loc 1 350 7 view .LVU352
	ldr	r0, .L128+56	@,
.LVL120:
	.loc 1 350 7 is_stmt 0 view .LVU353
.LPIC37:
	add	r0, pc, r0	@,
	bl	tfp_printf(PLT)	@
.LVL121:
.L90:
	.loc 1 352 5 is_stmt 1 view .LVU354
	ldrb	r1, [r4]	@ zero_extendqisi2	@, _15->version
	mov	r0, r8	@, a
	bl	iobuf_writebyte(PLT)	@
.LVL122:
	.loc 1 353 5 view .LVU355
	ldrb	r1, [r4, #1]	@ zero_extendqisi2	@, _15->cipher_algo
	mov	r0, r8	@, a
	bl	iobuf_writebyte(PLT)	@
.LVL123:
	.loc 1 354 5 view .LVU356
@ src/build-packet.c:354:     if (enc->version == 5)
	.loc 1 354 8 is_stmt 0 view .LVU357
	ldrb	r3, [r4]	@ zero_extendqisi2	@ _15->version, _15->version
	cmp	r3, #5	@ _15->version,
	beq	.L125		@,
.L92:
	.loc 1 356 5 is_stmt 1 view .LVU358
	ldr	r1, [r4, #4]	@, _15->s2k.mode
	mov	r0, r8	@, a
	bl	iobuf_writebyte(PLT)	@
.LVL124:
	.loc 1 357 5 view .LVU359
	ldrb	r1, [r4, #8]	@ zero_extendqisi2	@, _15->s2k.hash_algo
	mov	r0, r8	@, a
	bl	iobuf_writebyte(PLT)	@
.LVL125:
	.loc 1 358 5 view .LVU360
@ src/build-packet.c:358:     if( enc->s2k.mode == 1 || enc->s2k.mode == 3 ) {
	.loc 1 358 28 is_stmt 0 view .LVU361
	ldr	r3, [r4, #4]	@ _15->s2k.mode, _15->s2k.mode
	bic	r3, r3, #2	@ tmp268, _15->s2k.mode,
@ src/build-packet.c:358:     if( enc->s2k.mode == 1 || enc->s2k.mode == 3 ) {
	.loc 1 358 7 view .LVU362
	cmp	r3, #1	@ tmp268,
	beq	.L126		@,
.L94:
	.loc 1 366 5 is_stmt 1 view .LVU363
@ src/build-packet.c:366:     if( enc->seskeylen )
	.loc 1 366 12 is_stmt 0 view .LVU364
	ldrb	r2, [r4, #24]	@ zero_extendqisi2	@ _75, _15->seskeylen
@ src/build-packet.c:366:     if( enc->seskeylen )
	.loc 1 366 7 view .LVU365
	cmp	r2, #0	@ _75,
	bne	.L127		@,
.L96:
	.loc 1 369 5 is_stmt 1 view .LVU366
.LVL126:
.LBB95:
.LBI95:
	.loc 1 556 1 view .LVU367
.LBB96:
	.loc 1 558 5 view .LVU368
@ src/build-packet.c:558:     return write_header2( out, ctb, len, 0 );
	.loc 1 558 12 is_stmt 0 view .LVU369
	ldr	r2, [r8, #28]	@, a_56->d.len
	mov	r1, r7	@, ctb
	mov	r0, r5	@, out
	bl	write_header2.constprop.0.isra.0(PLT)	@
.LVL127:
	.loc 1 558 12 view .LVU370
.LBE96:
.LBE95:
	.loc 1 370 5 is_stmt 1 view .LVU371
@ src/build-packet.c:370:     rc = iobuf_write_temp( out, a );
	.loc 1 370 10 is_stmt 0 view .LVU372
	mov	r1, r8	@, a
	mov	r0, r5	@, out
	bl	iobuf_write_temp(PLT)	@
.LVL128:
	mov	r6, r0	@ tmp349,
@ src/build-packet.c:371:     iobuf_close(a);
	.loc 1 371 5 view .LVU373
	mov	r0, r8	@, a
.LVL129:
	.loc 1 371 5 is_stmt 1 view .LVU374
	bl	iobuf_close(PLT)	@
.LVL130:
	.loc 1 372 5 view .LVU375
	.loc 1 372 5 is_stmt 0 view .LVU376
.LBE97:
.LBE100:
	.loc 1 165 7 is_stmt 1 view .LVU377
@ src/build-packet.c:201: }
	.loc 1 201 1 is_stmt 0 view .LVU378
	mov	r0, r6	@, <retval>
	pop	{r4, r5, r6, r7, r8, pc}	@
.LVL131:
.L89:
.LBB101:
.LBB98:
@ src/build-packet.c:342:   switch (enc->s2k.mode)
	.loc 1 342 3 view .LVU379
	cmp	r1, #3	@ _57,
	beq	.L90		@,
	b	.L91		@
.LVL132:
.L87:
	.loc 1 342 3 view .LVU380
.LBE98:
.LBE101:
	.loc 1 170 7 is_stmt 1 view .LVU381
@ src/build-packet.c:170:       rc = do_plaintext (out, ctb, pkt->pkt.plaintext);
	.loc 1 170 12 is_stmt 0 view .LVU382
	ldr	r4, [r6, #4]	@ _16, pkt_23(D)->pkt.plaintext
.LVL133:
.LBB102:
.LBI102:
	.loc 1 407 1 is_stmt 1 view .LVU383
.LBB103:
	.loc 1 409 3 view .LVU384
	ldr	r0, .L128+60	@,
	ldr	r1, [r4, #4]	@, _16->buf
.LPIC38:
	add	r0, pc, r0	@,
	bl	tfp_printf(PLT)	@
.LVL134:
	.loc 1 410 5 view .LVU385
	.loc 1 411 5 view .LVU386
	.loc 1 415 1 view .LVU387
	ldr	r0, .L128+64	@,
.LPIC39:
	add	r0, pc, r0	@,
	bl	tfp_printf(PLT)	@
.LVL135:
	.loc 1 418 5 view .LVU388
	ldr	r0, .L128+68	@,
.LPIC40:
	add	r0, pc, r0	@,
	bl	tfp_printf(PLT)	@
.LVL136:
	.loc 1 421 5 view .LVU389
.LBB104:
.LBI104:
	.loc 1 379 1 view .LVU390
.LBB105:
	.loc 1 385 3 view .LVU391
@ src/build-packet.c:385:   if(pt->namelen>255)
	.loc 1 385 5 is_stmt 0 view .LVU392
	ldr	r3, [r4, #20]	@ _16->namelen, _16->namelen
@ src/build-packet.c:387:   u32 res = pt->len? (1 + 1 + pt->namelen + 4 + pt->len) : 0;
	.loc 1 387 15 view .LVU393
	ldr	r6, [r4]	@ _116, _16->len
.LVL137:
@ src/build-packet.c:388:   printf("calc_plaintext write_32 %08x",res);
	.loc 1 388 3 view .LVU394
	ldr	r0, .L128+72	@,
@ src/build-packet.c:385:   if(pt->namelen>255)
	.loc 1 385 5 view .LVU395
	cmp	r3, #255	@ _16->namelen,
	.loc 1 386 5 is_stmt 1 view .LVU396
@ src/build-packet.c:386:     pt->namelen=255;
	.loc 1 386 16 is_stmt 0 view .LVU397
	movgt	r3, #255	@ tmp282,
	strgt	r3, [r4, #20]	@ tmp282, _16->namelen
	.loc 1 387 3 is_stmt 1 view .LVU398
@ src/build-packet.c:387:   u32 res = pt->len? (1 + 1 + pt->namelen + 4 + pt->len) : 0;
	.loc 1 387 58 is_stmt 0 view .LVU399
	cmp	r6, #0	@ _116,
@ src/build-packet.c:388:   printf("calc_plaintext write_32 %08x",res);
	.loc 1 388 3 view .LVU400
.LPIC41:
	add	r0, pc, r0	@,
@ src/build-packet.c:387:   u32 res = pt->len? (1 + 1 + pt->namelen + 4 + pt->len) : 0;
	.loc 1 387 58 view .LVU401
	addne	r6, r6, #6	@ tmp283, _116,
	ldrne	r3, [r4, #20]	@ _16->namelen, _16->namelen
	addne	r6, r6, r3	@ _116, tmp283, _16->namelen
.LVL138:
	.loc 1 388 3 is_stmt 1 view .LVU402
	mov	r1, r6	@, _116
	bl	tfp_printf(PLT)	@
.LVL139:
	.loc 1 389 3 view .LVU403
	.loc 1 389 3 is_stmt 0 view .LVU404
.LBE105:
.LBE104:
.LBB106:
.LBI106:
	.loc 1 556 1 is_stmt 1 view .LVU405
.LBB107:
	.loc 1 558 5 view .LVU406
@ src/build-packet.c:558:     return write_header2( out, ctb, len, 0 );
	.loc 1 558 12 is_stmt 0 view .LVU407
	mov	r2, r6	@, _116
	mov	r1, r7	@, ctb
	mov	r0, r5	@, out
.LBE107:
.LBE106:
@ src/build-packet.c:433:     printf("Writing name: %.*s\n", (int)pt->namelen, pt->name);
	.loc 1 433 56 view .LVU408
	add	r6, r4, #24	@ _90, _16,
.LVL140:
.LBB109:
.LBB108:
@ src/build-packet.c:558:     return write_header2( out, ctb, len, 0 );
	.loc 1 558 12 view .LVU409
	bl	write_header2.constprop.0.isra.0(PLT)	@
.LVL141:
	.loc 1 558 12 view .LVU410
.LBE108:
.LBE109:
	.loc 1 422 5 is_stmt 1 view .LVU411
	ldr	r0, .L128+76	@,
	mov	r1, r7	@, ctb
.LPIC42:
	add	r0, pc, r0	@,
	bl	tfp_printf(PLT)	@
.LVL142:
	.loc 1 423 5 view .LVU412
	ldr	r0, .L128+80	@,
	ldr	r1, [r4, #12]	@, _16->mode
.LPIC43:
	add	r0, pc, r0	@,
	bl	tfp_printf(PLT)	@
.LVL143:
	.loc 1 427 5 view .LVU413
	ldr	r0, .L128+84	@,
	ldr	r1, [r4, #12]	@, _16->mode
.LPIC44:
	add	r0, pc, r0	@,
	bl	tfp_printf(PLT)	@
.LVL144:
	.loc 1 428 5 view .LVU414
	ldr	r1, [r4, #12]	@, _16->mode
	mov	r0, r5	@, out
	bl	iobuf_writebyte(PLT)	@
.LVL145:
	.loc 1 430 5 view .LVU415
	ldr	r0, .L128+88	@,
	ldr	r1, [r4, #20]	@, _16->namelen
.LPIC45:
	add	r0, pc, r0	@,
	bl	tfp_printf(PLT)	@
.LVL146:
	.loc 1 431 5 view .LVU416
	ldr	r1, [r4, #20]	@, _16->namelen
	mov	r0, r5	@, out
	bl	iobuf_writebyte(PLT)	@
.LVL147:
	.loc 1 433 5 view .LVU417
	ldr	r0, .L128+92	@,
	mov	r2, r6	@, _90
	ldr	r1, [r4, #20]	@, _16->namelen
.LPIC46:
	add	r0, pc, r0	@,
	bl	tfp_printf(PLT)	@
.LVL148:
	.loc 1 434 5 view .LVU418
	ldr	r2, [r4, #20]	@, _16->namelen
	mov	r1, r6	@, _90
	mov	r0, r5	@, out
	bl	iobuf_write(PLT)	@
.LVL149:
	.loc 1 435 5 view .LVU419
@ src/build-packet.c:436:     printf("Writing timestamp: %u\n", pt->timestamp);
	.loc 1 436 5 is_stmt 0 view .LVU420
	ldr	r0, .L128+96	@,
@ src/build-packet.c:435:     pt->timestamp = 1624780800;
	.loc 1 435 19 view .LVU421
	mov	r1, #12288	@ tmp304,
	movt	r1, 24792	@ tmp304,
@ src/build-packet.c:436:     printf("Writing timestamp: %u\n", pt->timestamp);
	.loc 1 436 5 view .LVU422
.LPIC47:
	add	r0, pc, r0	@,
@ src/build-packet.c:435:     pt->timestamp = 1624780800;
	.loc 1 435 19 view .LVU423
	str	r1, [r4, #16]	@ tmp304, _16->timestamp
	.loc 1 436 5 is_stmt 1 view .LVU424
	bl	tfp_printf(PLT)	@
.LVL150:
	.loc 1 437 5 view .LVU425
@ src/build-packet.c:437:     rc = write_32(out, pt->timestamp);
	.loc 1 437 10 is_stmt 0 view .LVU426
	ldr	r6, [r4, #16]	@ _93, _16->timestamp
.LVL151:
.LBB110:
.LBI110:
	.loc 1 512 1 is_stmt 1 view .LVU427
.LBB111:
	.loc 1 515 3 view .LVU428
	ldr	r0, .L128+100	@,
	mov	r1, r6	@, _93
.LPIC48:
	add	r0, pc, r0	@,
	bl	tfp_printf(PLT)	@
.LVL152:
	.loc 1 516 5 view .LVU429
	lsr	r1, r6, #24	@, _93,
	mov	r0, r5	@, out
	bl	iobuf_writebyte(PLT)	@
.LVL153:
	.loc 1 517 5 view .LVU430
	lsr	r1, r6, #16	@, _93,
	mov	r0, r5	@, out
	bl	iobuf_writebyte(PLT)	@
.LVL154:
	.loc 1 518 5 view .LVU431
	lsr	r1, r6, #8	@, _93,
	mov	r0, r5	@, out
	bl	iobuf_writebyte(PLT)	@
.LVL155:
	.loc 1 519 5 view .LVU432
@ src/build-packet.c:519:     return iobuf_put(out, a);
	.loc 1 519 12 is_stmt 0 view .LVU433
	mov	r1, r6	@, _93
	mov	r0, r5	@, out
	bl	iobuf_writebyte(PLT)	@
.LVL156:
	mov	r6, r0	@ tmp350,
.LVL157:
	.loc 1 519 12 view .LVU434
.LBE111:
.LBE110:
@ src/build-packet.c:438:     printf("rc: %d\n", rc);
	.loc 1 438 5 view .LVU435
	ldr	r0, .L128+104	@,
	mov	r1, r6	@, <retval>
.LPIC49:
	add	r0, pc, r0	@,
.LVL158:
	.loc 1 438 5 is_stmt 1 view .LVU436
	bl	tfp_printf(PLT)	@
.LVL159:
	.loc 1 439 5 view .LVU437
	ldr	r3, [r4, #4]	@ _16->buf, _16->buf
	ldr	r0, .L128+108	@,
	ldr	r1, [r3, #8]	@, _95->nbytes
.LPIC50:
	add	r0, pc, r0	@,
	bl	tfp_printf(PLT)	@
.LVL160:
	.loc 1 441 5 view .LVU438
@ src/build-packet.c:441:     if (rc)
	.loc 1 441 8 is_stmt 0 view .LVU439
	cmp	r6, #0	@ <retval>,
	bne	.L81		@,
	.loc 1 444 5 is_stmt 1 view .LVU440
@ src/build-packet.c:444:     if (pt->buf)
	.loc 1 444 11 is_stmt 0 view .LVU441
	ldr	r1, [r4, #4]	@ _97, _16->buf
@ src/build-packet.c:444:     if (pt->buf)
	.loc 1 444 8 view .LVU442
	cmp	r1, #0	@ _97,
	beq	.L100		@,
	.loc 1 446 9 is_stmt 1 view .LVU443
@ src/build-packet.c:446:         nbytes = iobuf_copy (out, pt->buf);
	.loc 1 446 18 is_stmt 0 view .LVU444
	mov	r0, r5	@, out
	bl	iobuf_copy(PLT)	@
.LVL161:
	mov	r8, r0	@ tmp351,
@ src/build-packet.c:447:         printf("!!!!! Wrote buf %d bytes", nbytes);
	.loc 1 447 9 view .LVU445
	ldr	r0, .L128+112	@,
	mov	r1, r8	@, nbytes
.LPIC51:
	add	r0, pc, r0	@,
.LVL162:
	.loc 1 447 9 is_stmt 1 view .LVU446
	bl	tfp_printf(PLT)	@
.LVL163:
	.loc 1 450 9 view .LVU447
@ src/build-packet.c:451:             && (iobuf_error (out) || iobuf_error (pt->buf)))
	.loc 1 451 17 is_stmt 0 view .LVU448
	ldr	r6, [r5, #40]	@ <retval>, out_25(D)->error
.LVL164:
@ src/build-packet.c:450:         if (nbytes == (size_t)(-1)
	.loc 1 450 12 view .LVU449
	cmn	r8, #1	@ nbytes,
	bne	.L102		@,
@ src/build-packet.c:451:             && (iobuf_error (out) || iobuf_error (pt->buf)))
	.loc 1 451 13 view .LVU450
	cmp	r6, #0	@ <retval>,
	bne	.L81		@,
@ src/build-packet.c:451:             && (iobuf_error (out) || iobuf_error (pt->buf)))
	.loc 1 451 38 view .LVU451
	ldr	r3, [r4, #4]	@ _16->buf, _16->buf
	ldr	r6, [r3, #40]	@ <retval>, _100->error
@ src/build-packet.c:451:             && (iobuf_error (out) || iobuf_error (pt->buf)))
	.loc 1 451 35 view .LVU452
	cmp	r6, #0	@ <retval>,
	bne	.L81		@,
.L102:
	.loc 1 455 9 is_stmt 1 view .LVU453
.LVL165:
	.loc 1 456 9 view .LVU454
.LBB112:
.LBI112:
	.loc 1 44 1 view .LVU455
.LBB113:
	.loc 1 49 3 view .LVU456
@ src/build-packet.c:50:   printf("ctb new format: %d\n", res);
	.loc 1 50 3 is_stmt 0 view .LVU457
	ldr	r0, .L128+116	@,
@ src/build-packet.c:49:   int res = (ctb & (1 << 6));
	.loc 1 49 7 view .LVU458
	and	r7, r7, #64	@ res, ctb,
.LVL166:
	.loc 1 50 3 is_stmt 1 view .LVU459
	mov	r1, r7	@, res
.LPIC52:
	add	r0, pc, r0	@,
	bl	tfp_printf(PLT)	@
.LVL167:
	.loc 1 51 3 view .LVU460
	.loc 1 51 3 is_stmt 0 view .LVU461
.LBE113:
.LBE112:
@ src/build-packet.c:456:         if(ctb_new_format_p (ctb) && !pt->len){
	.loc 1 456 41 view .LVU462
	ldr	r1, [r4]	@ _106, _16->len
@ src/build-packet.c:456:         if(ctb_new_format_p (ctb) && !pt->len){
	.loc 1 456 11 view .LVU463
	cmp	r7, #0	@ res,
	beq	.L104		@,
@ src/build-packet.c:456:         if(ctb_new_format_p (ctb) && !pt->len){
	.loc 1 456 35 view .LVU464
	cmp	r1, #0	@ _106,
	bne	.L104		@,
	.loc 1 458 11 is_stmt 1 view .LVU465
	mov	r0, r5	@, out
	bl	iobuf_set_partial_body_length_mode(PLT)	@
.LVL168:
	.loc 1 459 11 view .LVU466
	ldr	r0, .L128+120	@,
.LPIC53:
	add	r0, pc, r0	@,
	bl	tfp_printf(PLT)	@
.LVL169:
@ src/build-packet.c:461:         if (pt->len && nbytes != pt->len)
	.loc 1 461 15 is_stmt 0 view .LVU467
	ldr	r1, [r4]	@ _106, _16->len
.L104:
	.loc 1 461 9 is_stmt 1 view .LVU468
	.loc 1 466 13 view .LVU469
@ src/build-packet.c:466:             if (!rc) /* Just in case no error was set  */
	.loc 1 466 16 is_stmt 0 view .LVU470
	cmp	r1, #0	@ _106,
	cmpne	r8, r1	@, nbytes, _106
	movne	r1, #1	@ tmp330,
	moveq	r1, #0	@ tmp330,
	cmp	r6, #0	@ <retval>,
	movne	r1, #0	@, tmp336
	andeq	r1, r1, #1	@,, tmp336, tmp330
@ src/build-packet.c:467:               rc = -1;//gpg_error (GPG_ERR_EIO);
	.loc 1 467 18 view .LVU471
	cmp	r1, #0	@ tmp336,
	mvnne	r6, #0	@ <retval>,
.LVL170:
.L100:
	.loc 1 470 5 is_stmt 1 view .LVU472
	ldr	r0, .L128+124	@,
	mov	r1, r6	@, <retval>
.LPIC54:
	add	r0, pc, r0	@,
	bl	tfp_printf(PLT)	@
.LVL171:
	.loc 1 471 5 view .LVU473
.LBE103:
.LBE102:
@ src/build-packet.c:201: }
	.loc 1 201 1 is_stmt 0 view .LVU474
	mov	r0, r6	@, <retval>
	pop	{r4, r5, r6, r7, r8, pc}	@
.LVL172:
.L127:
.LBB114:
.LBB99:
	.loc 1 367 2 is_stmt 1 view .LVU475
	add	r1, r4, #25	@, _15,
	mov	r0, r8	@, a
	bl	iobuf_write(PLT)	@
.LVL173:
	b	.L96		@
.L126:
	.loc 1 360 2 view .LVU476
	mov	r1, r6	@, _52
	mov	r2, #8	@,
	mov	r0, r8	@, a
	bl	iobuf_write(PLT)	@
.LVL174:
	.loc 1 361 2 view .LVU477
@ src/build-packet.c:361: 	if( enc->s2k.mode == 3 )
	.loc 1 361 4 is_stmt 0 view .LVU478
	ldr	r3, [r4, #4]	@ _15->s2k.mode, _15->s2k.mode
	cmp	r3, #3	@ _15->s2k.mode,
	bne	.L94		@,
	.loc 1 363 6 is_stmt 1 view .LVU479
	ldr	r1, [r4, #20]	@, _15->s2k.count
	mov	r0, r8	@, a
	bl	iobuf_writebyte(PLT)	@
.LVL175:
	b	.L94		@
.L125:
	.loc 1 355 7 view .LVU480
	ldrb	r1, [r4, #2]	@ zero_extendqisi2	@, _15->aead_algo
	mov	r0, r8	@, a
	bl	iobuf_writebyte(PLT)	@
.LVL176:
	b	.L92		@
.L129:
	.align	2
.L128:
	.word	.LC20-(.LPIC24+8)
	.word	.LC21-(.LPIC25+8)
	.word	.LC49-(.LPIC55+8)
	.word	.LC22-(.LPIC26+8)
	.word	.LC23-(.LPIC27+8)
	.word	.LC24-(.LPIC28+8)
	.word	.LC25-(.LPIC29+8)
	.word	.LC26-(.LPIC30+8)
	.word	.LC27-(.LPIC31+8)
	.word	.LC28-(.LPIC32+8)
	.word	.LC29-(.LPIC33+8)
	.word	.LC30-(.LPIC34+8)
	.word	.LC31-(.LPIC35+8)
	.word	.LC32-(.LPIC36+8)
	.word	.LC33-(.LPIC37+8)
	.word	.LC34-(.LPIC38+8)
	.word	.LC35-(.LPIC39+8)
	.word	.LC36-(.LPIC40+8)
	.word	.LC4-(.LPIC41+8)
	.word	.LC37-(.LPIC42+8)
	.word	.LC38-(.LPIC43+8)
	.word	.LC39-(.LPIC44+8)
	.word	.LC40-(.LPIC45+8)
	.word	.LC41-(.LPIC46+8)
	.word	.LC42-(.LPIC47+8)
	.word	.LC43-(.LPIC48+8)
	.word	.LC44-(.LPIC49+8)
	.word	.LC45-(.LPIC50+8)
	.word	.LC46-(.LPIC51+8)
	.word	.LC13-(.LPIC52+8)
	.word	.LC47-(.LPIC53+8)
	.word	.LC48-(.LPIC54+8)
.LBE99:
.LBE114:
	.cfi_endproc
.LFE22:
	.size	build_packet, .-build_packet
	.section	.rodata.print_iobuf_info2.str1.4,"aMS",%progbits,1
	.align	2
.LC50:
	.ascii	"print_iobuf_info2\012\000"
	.align	2
.LC51:
	.ascii	"iobuf is NULL\012\000"
	.align	2
.LC52:
	.ascii	"  Use: %d\012\000"
	.align	2
.LC53:
	.ascii	"  nlimit: %ld\012\000"
	.align	2
.LC54:
	.ascii	"  nbytes: %ld\012\000"
	.align	2
.LC55:
	.ascii	"  ntotal: %ld\012\000"
	.align	2
.LC56:
	.ascii	"  nofast: %d\012\000"
	.align	2
.LC57:
	.ascii	"  Buffer size: %zu\012\000"
	.align	2
.LC58:
	.ascii	"  Buffer start: %zu\012\000"
	.align	2
.LC59:
	.ascii	"  Buffer length: %zu\012\000"
	.align	2
.LC60:
	.ascii	"  Filter EOF: %d\012\000"
	.align	2
.LC61:
	.ascii	"  Error: %d\012\000"
	.align	2
.LC62:
	.ascii	"  Filter owner: %d\012\000"
	.align	2
.LC63:
	.ascii	"  Filter number: %d\012\000"
	.align	2
.LC64:
	.ascii	"  Sub filters count: %d\012\000"
	.align	2
.LC65:
	.ascii	"  Chain:\012\000"
	.section	.text.print_iobuf_info2,"ax",%progbits
	.align	2
	.global	print_iobuf_info2
	.syntax unified
	.arm
	.fpu softvfp
	.type	print_iobuf_info2, %function
print_iobuf_info2:
.LVL177:
.LFB25:
	.loc 1 275 58 view -0
	.cfi_startproc
	@ args = 0, pretend = 0, frame = 0
	@ frame_needed = 0, uses_anonymous_args = 0
	.loc 1 275 58 is_stmt 0 view .LVU482
	push	{r4, r5, r6, r7, r8, lr}	@
	.cfi_def_cfa_offset 24
	.cfi_offset 4, -24
	.cfi_offset 5, -20
	.cfi_offset 6, -16
	.cfi_offset 7, -12
	.cfi_offset 8, -8
	.cfi_offset 14, -4
@ src/build-packet.c:275: void print_iobuf_info2(const struct iobuf_struct *iobuf) {
	.loc 1 275 58 view .LVU483
	mov	r4, r0	@ iobuf, tmp177
@ src/build-packet.c:276:     printf("print_iobuf_info2\n");
	.loc 1 276 5 view .LVU484
	ldr	r6, .L135	@ tmp130,
@ src/build-packet.c:282:     printf("  Use: %d\n", iobuf->use);
	.loc 1 282 5 view .LVU485
	ldr	r5, .L135+4	@ tmp175,
@ src/build-packet.c:283:     printf("  nlimit: %ld\n", (long)iobuf->nlimit);
	.loc 1 283 5 view .LVU486
	ldr	r7, .L135+8	@ tmp176,
@ src/build-packet.c:276:     printf("print_iobuf_info2\n");
	.loc 1 276 5 view .LVU487
.LPIC56:
	add	r6, pc, r6	@ tmp130, tmp130
@ src/build-packet.c:282:     printf("  Use: %d\n", iobuf->use);
	.loc 1 282 5 view .LVU488
.LPIC58:
	add	r5, pc, r5	@ tmp175, tmp175
@ src/build-packet.c:283:     printf("  nlimit: %ld\n", (long)iobuf->nlimit);
	.loc 1 283 5 view .LVU489
.LPIC59:
	add	r7, pc, r7	@ tmp176, tmp176
	b	.L133		@
.LVL178:
.L131:
@ src/build-packet.c:282:     printf("  Use: %d\n", iobuf->use);
	.loc 1 282 5 view .LVU490
	ldrb	r1, [r4]	@ zero_extendqisi2	@, iobuf_20->use
	bl	tfp_printf(PLT)	@
.LVL179:
	.loc 1 283 5 is_stmt 1 view .LVU491
	ldr	r1, [r4, #4]	@, iobuf_20->nlimit
	mov	r0, r7	@, tmp176
	bl	tfp_printf(PLT)	@
.LVL180:
	.loc 1 284 5 view .LVU492
	ldr	r0, .L135+12	@,
	ldr	r1, [r4, #8]	@, iobuf_20->nbytes
.LPIC60:
	add	r0, pc, r0	@,
	bl	tfp_printf(PLT)	@
.LVL181:
	.loc 1 285 5 view .LVU493
	ldr	r0, .L135+16	@,
	ldr	r1, [r4, #12]	@, iobuf_20->ntotal
.LPIC61:
	add	r0, pc, r0	@,
	bl	tfp_printf(PLT)	@
.LVL182:
	.loc 1 286 5 view .LVU494
	ldr	r0, .L135+20	@,
	ldr	r1, [r4, #16]	@, iobuf_20->nofast
.LPIC62:
	add	r0, pc, r0	@,
	bl	tfp_printf(PLT)	@
.LVL183:
	.loc 1 287 5 view .LVU495
	ldr	r0, .L135+24	@,
	ldr	r1, [r4, #20]	@, iobuf_20->d.size
.LPIC63:
	add	r0, pc, r0	@,
	bl	tfp_printf(PLT)	@
.LVL184:
	.loc 1 288 5 view .LVU496
	ldr	r0, .L135+28	@,
	ldr	r1, [r4, #24]	@, iobuf_20->d.start
.LPIC64:
	add	r0, pc, r0	@,
	bl	tfp_printf(PLT)	@
.LVL185:
	.loc 1 289 5 view .LVU497
	ldr	r0, .L135+32	@,
	ldr	r1, [r4, #28]	@, iobuf_20->d.len
.LPIC65:
	add	r0, pc, r0	@,
	bl	tfp_printf(PLT)	@
.LVL186:
	.loc 1 290 5 view .LVU498
	ldr	r0, .L135+36	@,
	ldr	r1, [r4, #36]	@, iobuf_20->filter_eof
.LPIC66:
	add	r0, pc, r0	@,
	bl	tfp_printf(PLT)	@
.LVL187:
	.loc 1 291 5 view .LVU499
	ldr	r0, .L135+40	@,
	ldr	r1, [r4, #40]	@, iobuf_20->error
.LPIC67:
	add	r0, pc, r0	@,
	bl	tfp_printf(PLT)	@
.LVL188:
	.loc 1 292 5 view .LVU500
	ldr	r0, .L135+44	@,
	ldr	r1, [r4, #52]	@, iobuf_20->filter_ov_owner
.LPIC68:
	add	r0, pc, r0	@,
	bl	tfp_printf(PLT)	@
.LVL189:
	.loc 1 298 5 view .LVU501
	ldr	r0, .L135+48	@,
	ldr	r1, [r4, #64]	@, iobuf_20->no
.LPIC69:
	add	r0, pc, r0	@,
	bl	tfp_printf(PLT)	@
.LVL190:
	.loc 1 299 5 view .LVU502
	ldr	r0, .L135+52	@,
	ldr	r1, [r4, #68]	@, iobuf_20->subno
.LPIC70:
	add	r0, pc, r0	@,
	bl	tfp_printf(PLT)	@
.LVL191:
	.loc 1 302 5 view .LVU503
	.loc 1 303 9 view .LVU504
@ src/build-packet.c:302:     if (iobuf->chain) {
	.loc 1 302 8 is_stmt 0 view .LVU505
	ldr	r3, [r4, #60]	@ iobuf_20->chain, iobuf_20->chain
@ src/build-packet.c:303:         printf("  Chain:\n");
	.loc 1 303 9 view .LVU506
	ldr	r0, .L135+56	@,
@ src/build-packet.c:302:     if (iobuf->chain) {
	.loc 1 302 8 view .LVU507
	cmp	r3, #0	@ iobuf_20->chain,
@ src/build-packet.c:303:         printf("  Chain:\n");
	.loc 1 303 9 view .LVU508
.LPIC71:
	add	r0, pc, r0	@,
@ src/build-packet.c:302:     if (iobuf->chain) {
	.loc 1 302 8 view .LVU509
	popeq	{r4, r5, r6, r7, r8, pc}	@
@ src/build-packet.c:303:         printf("  Chain:\n");
	.loc 1 303 9 view .LVU510
	bl	tfp_printf(PLT)	@
.LVL192:
	.loc 1 304 9 is_stmt 1 view .LVU511
@ src/build-packet.c:304:         print_iobuf_info2(iobuf->chain);
	.loc 1 304 32 is_stmt 0 view .LVU512
	ldr	r4, [r4, #60]	@ iobuf, iobuf_20->chain
.L133:
	.loc 1 276 5 is_stmt 1 view .LVU513
	mov	r0, r6	@, tmp130
	bl	tfp_printf(PLT)	@
.LVL193:
	.loc 1 277 5 view .LVU514
	.loc 1 281 1 view .LVU515
	.loc 1 282 5 view .LVU516
@ src/build-packet.c:277:     if (!iobuf) {
	.loc 1 277 8 is_stmt 0 view .LVU517
	cmp	r4, #0	@ iobuf,
@ src/build-packet.c:282:     printf("  Use: %d\n", iobuf->use);
	.loc 1 282 5 view .LVU518
	mov	r0, r5	@, tmp175
@ src/build-packet.c:277:     if (!iobuf) {
	.loc 1 277 8 view .LVU519
	bne	.L131		@,
	.loc 1 278 9 is_stmt 1 view .LVU520
	ldr	r0, .L135+60	@,
@ src/build-packet.c:306: }
	.loc 1 306 1 is_stmt 0 view .LVU521
	pop	{r4, r5, r6, r7, r8, lr}	@
	.cfi_restore 14
	.cfi_restore 8
	.cfi_restore 7
	.cfi_restore 6
	.cfi_restore 5
	.cfi_restore 4
	.cfi_def_cfa_offset 0
@ src/build-packet.c:278:         printf("iobuf is NULL\n");
	.loc 1 278 9 view .LVU522
.LPIC57:
	add	r0, pc, r0	@,
	b	tfp_printf(PLT)	@
.LVL194:
.L136:
	.align	2
.L135:
	.word	.LC50-(.LPIC56+8)
	.word	.LC52-(.LPIC58+8)
	.word	.LC53-(.LPIC59+8)
	.word	.LC54-(.LPIC60+8)
	.word	.LC55-(.LPIC61+8)
	.word	.LC56-(.LPIC62+8)
	.word	.LC57-(.LPIC63+8)
	.word	.LC58-(.LPIC64+8)
	.word	.LC59-(.LPIC65+8)
	.word	.LC60-(.LPIC66+8)
	.word	.LC61-(.LPIC67+8)
	.word	.LC62-(.LPIC68+8)
	.word	.LC63-(.LPIC69+8)
	.word	.LC64-(.LPIC70+8)
	.word	.LC65-(.LPIC71+8)
	.word	.LC51-(.LPIC57+8)
	.cfi_endproc
.LFE25:
	.size	print_iobuf_info2, .-print_iobuf_info2
	.text
.Letext0:
	.file 2 "/usr/include/newlib/machine/_default_types.h"
	.file 3 "/usr/lib/gcc/arm-none-eabi/10.3.1/include/stddef.h"
	.file 4 "/usr/include/newlib/sys/_types.h"
	.file 5 "/usr/include/newlib/sys/_stdint.h"
	.file 6 "/usr/include/newlib/sys/types.h"
	.file 7 "src/common/types.h"
	.file 8 "src/common/iobuf.h"
	.file 9 "src/common/openpgpdefs.h"
	.file 10 "src/gcrypt.h"
	.file 11 "src/packet.h"
	.file 12 "src/printf.h"
	.file 13 "src/filter.h"