	.cpu cortex-a7
	.eabi_attribute 20, 1	@ Tag_ABI_FP_denormal
	.eabi_attribute 21, 1	@ Tag_ABI_FP_exceptions
	.eabi_attribute 23, 3	@ Tag_ABI_FP_number_model
	.eabi_attribute 24, 1	@ Tag_ABI_align8_needed
	.eabi_attribute 25, 1	@ Tag_ABI_align8_preserved
	.eabi_attribute 26, 1	@ Tag_ABI_enum_size
	.eabi_attribute 30, 2	@ Tag_ABI_optimization_goals
	.eabi_attribute 34, 1	@ Tag_CPU_unaligned_access
	.eabi_attribute 18, 4	@ Tag_ABI_PCS_wchar_t
	.file	"build-packet.c"
@ GNU C17 (15:10.3-2021.07-4) version 10.3.1 20210621 (release) (arm-none-eabi)
@	compiled by GNU C version 11.2.0, GMP version 6.2.1, MPFR version 4.1.0, MPC version 1.2.1, isl version isl-0.24-GMP

@ GGC heuristics: --param ggc-min-expand=100 --param ggc-min-heapsize=131072
@ options passed:  -I src -I src/common -imultilib thumb/v7-a/nofp
@ -D__USES_INITFINI__ src/build-packet.c -mcpu=cortex-a7 -mfloat-abi=soft
@ -marm -mlibarch=armv7ve -march=armv7ve
@ -auxbase-strip build/asm_output/build-packet.s -g -O2 -Wall -Wextra -fpic
@ -ffreestanding -ffunction-sections -fdata-sections -fno-common
@ -fverbose-asm
@ options enabled:  -faggressive-loop-optimizations -falign-functions
@ -falign-jumps -falign-labels -falign-loops -fallocation-dce
@ -fauto-inc-dec -fbranch-count-reg -fcaller-saves
@ -fcombine-stack-adjustments -fcompare-elim -fcprop-registers
@ -fcrossjumping -fcse-follow-jumps -fdata-sections -fdefer-pop
@ -fdelete-null-pointer-checks -fdevirtualize -fdevirtualize-speculatively
@ -fdwarf2-cfi-asm -fearly-inlining -feliminate-unused-debug-symbols
@ -feliminate-unused-debug-types -fexpensive-optimizations
@ -fforward-propagate -ffp-int-builtin-inexact -ffunction-cse
@ -ffunction-sections -fgcse -fgcse-lm -fgnu-unique
@ -fguess-branch-probability -fhoist-adjacent-loads -fident -fif-conversion
@ -fif-conversion2 -findirect-inlining -finline -finline-atomics
@ -finline-functions -finline-functions-called-once
@ -finline-small-functions -fipa-bit-cp -fipa-cp -fipa-icf
@ -fipa-icf-functions -fipa-icf-variables -fipa-profile -fipa-pure-const
@ -fipa-ra -fipa-reference -fipa-reference-addressable -fipa-sra
@ -fipa-stack-alignment -fipa-vrp -fira-hoist-pressure
@ -fira-share-save-slots -fira-share-spill-slots
@ -fisolate-erroneous-paths-dereference -fivopts -fkeep-static-consts
@ -fleading-underscore -flifetime-dse -flra-remat -fmath-errno
@ -fmerge-constants -fmerge-debug-strings -fmove-loop-invariants
@ -fomit-frame-pointer -foptimize-sibling-calls -foptimize-strlen
@ -fpartial-inlining -fpeephole -fpeephole2 -fpic -fplt
@ -fprefetch-loop-arrays -freg-struct-return -freorder-blocks
@ -freorder-functions -frerun-cse-after-loop
@ -fsched-critical-path-heuristic -fsched-dep-count-heuristic
@ -fsched-group-heuristic -fsched-interblock -fsched-last-insn-heuristic
@ -fsched-pressure -fsched-rank-heuristic -fsched-spec
@ -fsched-spec-insn-heuristic -fsched-stalled-insns-dep -fschedule-insns
@ -fschedule-insns2 -fsection-anchors -fsemantic-interposition
@ -fshow-column -fshrink-wrap -fshrink-wrap-separate -fsigned-zeros
@ -fsplit-ivs-in-unroller -fsplit-wide-types -fssa-backprop -fssa-phiopt
@ -fstdarg-opt -fstore-merging -fstrict-aliasing
@ -fstrict-volatile-bitfields -fsync-libcalls -fthread-jumps
@ -ftoplevel-reorder -ftrapping-math -ftree-bit-ccp -ftree-builtin-call-dce
@ -ftree-ccp -ftree-ch -ftree-coalesce-vars -ftree-copy-prop -ftree-cselim
@ -ftree-dce -ftree-dominator-opts -ftree-dse -ftree-forwprop -ftree-fre
@ -ftree-loop-if-convert -ftree-loop-im -ftree-loop-ivcanon
@ -ftree-loop-optimize -ftree-parallelize-loops= -ftree-phiprop -ftree-pre
@ -ftree-pta -ftree-reassoc -ftree-scev-cprop -ftree-sink -ftree-slsr
@ -ftree-sra -ftree-switch-conversion -ftree-tail-merge -ftree-ter
@ -ftree-vrp -funit-at-a-time -fvar-tracking -fvar-tracking-assignments
@ -fverbose-asm -fzero-initialized-in-bss -marm -mbe32 -mlittle-endian
@ -mpic-data-is-text-relative -msched-prolog -munaligned-access
@ -mvectorize-with-neon-quad -mword-relocations

	.text
.Ltext0:
	.cfi_sections	.debug_frame
	.section	.rodata.get_pkttype_name.str1.4,"aMS",%progbits,1
	.align	2
.LC0:
	.ascii	"UNKNOWN\000"
	.align	2
.LC1:
	.ascii	"PKT_PLAINTEXT\000"
	.align	2
.LC2:
	.ascii	"PKT_ENCRYPTED\000"
	.align	2
.LC3:
	.ascii	"PKT_SYMKEY_ENC\000"
	.section	.text.get_pkttype_name,"ax",%progbits
	.align	2
	.global	get_pkttype_name
	.arch armv7ve
	.syntax unified
	.arm
	.fpu softvfp
	.type	get_pkttype_name, %function
get_pkttype_name:
.LVL0:
.LFB21:
	.file 1 "src/build-packet.c"
	.loc 1 66 49 view -0
	.cfi_startproc
	@ args = 0, pretend = 0, frame = 0
	@ frame_needed = 0, uses_anonymous_args = 0
	@ link register save eliminated.
	.loc 1 67 5 view .LVU1
	cmp	r0, #9	@ pkttype,
	beq	.L3		@,
	cmp	r0, #11	@ pkttype,
	beq	.L4		@,
	cmp	r0, #3	@ pkttype,
	beq	.L7		@,
@ src/build-packet.c:90:         default: return "UNKNOWN";
	.loc 1 90 25 is_stmt 0 view .LVU2
	ldr	r0, .L8	@ <retval>,
.LVL1:
	.loc 1 90 25 view .LVU3
.LPIC0:
	add	r0, pc, r0	@ <retval>, <retval>
@ src/build-packet.c:92: }
	.loc 1 92 1 view .LVU4
	bx	lr	@
.LVL2:
.L4:
@ src/build-packet.c:79:         case PKT_PLAINTEXT: return "PKT_PLAINTEXT";
	.loc 1 79 36 view .LVU5
	ldr	r0, .L8+4	@ <retval>,
.LVL3:
	.loc 1 79 36 view .LVU6
.LPIC1:
	add	r0, pc, r0	@ <retval>, <retval>
	bx	lr	@
.LVL4:
.L7:
@ src/build-packet.c:71:         case PKT_SYMKEY_ENC: return "PKT_SYMKEY_ENC";
	.loc 1 71 37 view .LVU7
	ldr	r0, .L8+8	@ <retval>,
.LVL5:
	.loc 1 71 37 view .LVU8
.LPIC3:
	add	r0, pc, r0	@ <retval>, <retval>
	bx	lr	@
.LVL6:
.L3:
@ src/build-packet.c:67:     switch (pkttype) {
	.loc 1 67 5 view .LVU9
	ldr	r0, .L8+12	@ <retval>,
.LVL7:
	.loc 1 67 5 view .LVU10
.LPIC2:
	add	r0, pc, r0	@ <retval>, <retval>
	bx	lr	@
.L9:
	.align	2
.L8:
	.word	.LC0-(.LPIC0+8)
	.word	.LC1-(.LPIC1+8)
	.word	.LC3-(.LPIC3+8)
	.word	.LC2-(.LPIC2+8)
	.cfi_endproc
.LFE21:
	.size	get_pkttype_name, .-get_pkttype_name
	.section	.rodata.calc_packet_length.str1.4,"aMS",%progbits,1
	.align	2
.LC4:
	.ascii	"calc_plaintext write_32 %08x\000"
	.align	2
.LC5:
	.ascii	"invalid packet type in calc_packet_length()\000"
	.section	.text.calc_packet_length,"ax",%progbits
	.align	2
	.global	calc_packet_length
	.syntax unified
	.arm
	.fpu softvfp
	.type	calc_packet_length, %function
calc_packet_length:
.LVL8:
.LFB23:
	.loc 1 208 1 is_stmt 1 view -0
	.cfi_startproc
	@ args = 0, pretend = 0, frame = 0
	@ frame_needed = 0, uses_anonymous_args = 0
	.loc 1 209 3 view .LVU12
	.loc 1 210 3 view .LVU13
	.loc 1 213 3 view .LVU14
@ src/build-packet.c:208: {
	.loc 1 208 1 is_stmt 0 view .LVU15
	push	{r4, r5, r6, lr}	@
	.cfi_def_cfa_offset 16
	.cfi_offset 4, -16
	.cfi_offset 5, -12
	.cfi_offset 6, -8
	.cfi_offset 14, -4
@ src/build-packet.c:213:   switch (pkt->pkttype)
	.loc 1 213 3 view .LVU16
	ldrb	r3, [r0]	@ zero_extendqisi2	@ pkt_8(D)->pkttype, pkt_8(D)->pkttype
	cmp	r3, #11	@ pkt_8(D)->pkttype,
	beq	.L24		@,
	.loc 1 232 7 is_stmt 1 view .LVU17
	ldr	r0, .L27	@,
.LVL9:
	.loc 1 232 7 is_stmt 0 view .LVU18
.LPIC6:
	add	r0, pc, r0	@,
	bl	tfp_printf(PLT)	@
.LVL10:
	.loc 1 233 7 is_stmt 1 view .LVU19
	.loc 1 236 3 view .LVU20
.LBB22:
.LBI22:
	.loc 1 534 1 view .LVU21
.LBB23:
	.loc 1 536 5 view .LVU22
	.loc 1 544 5 view .LVU23
.LBE23:
.LBE22:
@ src/build-packet.c:232:       printf ("invalid packet type in calc_packet_length()");
	.loc 1 232 7 is_stmt 0 view .LVU24
	mov	r0, #2	@ <retval>,
	pop	{r4, r5, r6, pc}	@
.LVL11:
.L24:
@ src/build-packet.c:216:       n = calc_plaintext (pkt->pkt.plaintext);
	.loc 1 216 11 view .LVU25
	ldr	r3, [r0, #4]	@ _2, pkt_8(D)->pkt.plaintext
	mov	r5, r0	@ pkt, tmp140
	.loc 1 216 7 is_stmt 1 view .LVU26
.LVL12:
.LBB29:
.LBI29:
	.loc 1 379 1 view .LVU27
.LBB30:
	.loc 1 385 3 view .LVU28
@ src/build-packet.c:385:   if(pt->namelen>255)
	.loc 1 385 5 is_stmt 0 view .LVU29
	ldr	r2, [r3, #20]	@ _2->namelen, _2->namelen
@ src/build-packet.c:387:   u32 res = pt->len? (1 + 1 + pt->namelen + 4 + pt->len) : 0;
	.loc 1 387 15 view .LVU30
	ldr	r1, [r3]	@ _18, _2->len
@ src/build-packet.c:385:   if(pt->namelen>255)
	.loc 1 385 5 view .LVU31
	cmp	r2, #255	@ _2->namelen,
	.loc 1 386 5 is_stmt 1 view .LVU32
@ src/build-packet.c:386:     pt->namelen=255;
	.loc 1 386 16 is_stmt 0 view .LVU33
	movgt	r2, #255	@ tmp127,
	strgt	r2, [r3, #20]	@ tmp127, _2->namelen
	.loc 1 387 3 is_stmt 1 view .LVU34
@ src/build-packet.c:387:   u32 res = pt->len? (1 + 1 + pt->namelen + 4 + pt->len) : 0;
	.loc 1 387 58 is_stmt 0 view .LVU35
	cmp	r1, #0	@ _18,
	beq	.L25		@,
	.loc 1 387 58 view .LVU36
	ldr	r4, [r3, #20]	@ _2->namelen, _2->namelen
	add	r1, r1, #6	@ tmp130, _18,
@ src/build-packet.c:388:   printf("calc_plaintext write_32 %08x",res);
	.loc 1 388 3 view .LVU37
	ldr	r0, .L27+4	@,
.LVL13:
@ src/build-packet.c:387:   u32 res = pt->len? (1 + 1 + pt->namelen + 4 + pt->len) : 0;
	.loc 1 387 58 view .LVU38
	add	r4, r1, r4	@ iftmp.3_22, tmp130, _2->namelen
.LVL14:
	.loc 1 388 3 is_stmt 1 view .LVU39
.LPIC5:
	add	r0, pc, r0	@,
	mov	r1, r4	@, iftmp.3_22
	bl	tfp_printf(PLT)	@
.LVL15:
	.loc 1 389 3 view .LVU40
	.loc 1 389 3 is_stmt 0 view .LVU41
.LBE30:
.LBE29:
	.loc 1 217 7 is_stmt 1 view .LVU42
	.loc 1 218 7 view .LVU43
	.loc 1 236 3 view .LVU44
.LBB33:
	.loc 1 534 1 view .LVU45
.LBB24:
	.loc 1 536 5 view .LVU46
.LBE24:
.LBE33:
@ src/build-packet.c:217:       new_ctb = pkt->pkt.plaintext->new_ctb;
	.loc 1 217 35 is_stmt 0 view .LVU47
	ldr	r3, [r5, #4]	@ pkt_8(D)->pkt.plaintext, pkt_8(D)->pkt.plaintext
.LBB34:
.LBB25:
@ src/build-packet.c:536:     if( new_ctb ) {
	.loc 1 536 7 view .LVU48
	ldrb	r3, [r3, #8]	@ zero_extendqisi2	@ _3->new_ctb, _3->new_ctb
	cmp	r3, #0	@ _3->new_ctb,
	beq	.L26		@,
	.loc 1 537 2 is_stmt 1 view .LVU49
@ src/build-packet.c:537: 	if( len < 192 )
	.loc 1 537 4 is_stmt 0 view .LVU50
	cmp	r4, #191	@ iftmp.3_22,
	bls	.L23		@,
	.loc 1 539 2 is_stmt 1 view .LVU51
@ src/build-packet.c:539: 	if( len < 8384 )
	.loc 1 539 4 is_stmt 0 view .LVU52
	cmp	r4, #8384	@ iftmp.3_22,
	bcc	.L20		@,
.LBE25:
.LBE34:
@ src/build-packet.c:236:   n += calc_header_length (n, new_ctb);
	.loc 1 236 5 view .LVU53
	add	r0, r4, #6	@ <retval>, iftmp.3_22,
	pop	{r4, r5, r6, pc}	@
.LVL16:
.L25:
.LBB35:
.LBB31:
	.loc 1 388 3 is_stmt 1 view .LVU54
	ldr	r0, .L27+8	@,
.LVL17:
	.loc 1 388 3 is_stmt 0 view .LVU55
.LPIC4:
	add	r0, pc, r0	@,
	bl	tfp_printf(PLT)	@
.LVL18:
	.loc 1 389 3 is_stmt 1 view .LVU56
	.loc 1 389 3 is_stmt 0 view .LVU57
.LBE31:
.LBE35:
	.loc 1 217 7 is_stmt 1 view .LVU58
	.loc 1 218 7 view .LVU59
	.loc 1 236 3 view .LVU60
.LBB36:
	.loc 1 534 1 view .LVU61
.LBB26:
	.loc 1 536 5 view .LVU62
.LBE26:
.LBE36:
.LBB37:
.LBB32:
@ src/build-packet.c:388:   printf("calc_plaintext write_32 %08x",res);
	.loc 1 388 3 is_stmt 0 view .LVU63
	mov	r0, #2	@ <retval>,
	pop	{r4, r5, r6, pc}	@
.LVL19:
.L20:
	.loc 1 388 3 view .LVU64
.LBE32:
.LBE37:
.LBB38:
.LBB27:
	.loc 1 547 2 is_stmt 1 view .LVU65
.LBE27:
.LBE38:
@ src/build-packet.c:236:   n += calc_header_length (n, new_ctb);
	.loc 1 236 5 is_stmt 0 view .LVU66
	add	r0, r4, #3	@ <retval>, iftmp.3_22,
.LVL20:
	.loc 1 237 3 is_stmt 1 view .LVU67
@ src/build-packet.c:238: }
	.loc 1 238 1 is_stmt 0 view .LVU68
	pop	{r4, r5, r6, pc}	@
.LVL21:
.L26:
.LBB39:
.LBB28:
	.loc 1 544 5 is_stmt 1 view .LVU69
@ src/build-packet.c:544:     if( len < 256 )
	.loc 1 544 7 is_stmt 0 view .LVU70
	cmp	r4, #255	@ iftmp.3_22,
	bls	.L23		@,
	.loc 1 546 5 is_stmt 1 view .LVU71
@ src/build-packet.c:546:     if( len < 65536 )
	.loc 1 546 7 is_stmt 0 view .LVU72
	cmp	r4, #65536	@ iftmp.3_22,
	bcc	.L20		@,
.LBE28:
.LBE39:
@ src/build-packet.c:236:   n += calc_header_length (n, new_ctb);
	.loc 1 236 5 view .LVU73
	add	r0, r4, #5	@ <retval>, iftmp.3_22,
	pop	{r4, r5, r6, pc}	@
.L23:
	.loc 1 236 5 view .LVU74
	add	r0, r4, #2	@ <retval>, iftmp.3_22,
	pop	{r4, r5, r6, pc}	@
.L28:
	.align	2
.L27:
	.word	.LC5-(.LPIC6+8)
	.word	.LC4-(.LPIC5+8)
	.word	.LC4-(.LPIC4+8)
	.cfi_endproc
.LFE23:
	.size	calc_packet_length, .-calc_packet_length
	.section	.rodata.log_hexdump.str1.4,"aMS",%progbits,1
	.align	2
.LC6:
	.ascii	"%d bytes:\012\000"
	.align	2
.LC7:
	.ascii	"%-8d \000"
	.align	2
.LC8:
	.ascii	" \000"
	.align	2
.LC9:
	.ascii	"%02x\000"
	.align	2
.LC10:
	.ascii	"  \000"
	.align	2
.LC11:
	.ascii	"%s\012\000"
	.section	.text.log_hexdump,"ax",%progbits
	.align	2
	.global	log_hexdump
	.syntax unified
	.arm
	.fpu softvfp
	.type	log_hexdump, %function
log_hexdump:
.LVL22:
.LFB24:
	.loc 1 241 53 is_stmt 1 view -0
	.cfi_startproc
	@ args = 0, pretend = 0, frame = 40
	@ frame_needed = 0, uses_anonymous_args = 0
	.loc 1 242 5 view .LVU76
	.loc 1 243 5 view .LVU77
	.loc 1 245 5 view .LVU78
@ src/build-packet.c:241: void log_hexdump(const uint8_t *buffer, int length) {
	.loc 1 241 53 is_stmt 0 view .LVU79
	push	{r4, r5, r6, r7, r8, r9, r10, fp, lr}	@
	.cfi_def_cfa_offset 36
	.cfi_offset 4, -36
	.cfi_offset 5, -32
	.cfi_offset 6, -28
	.cfi_offset 7, -24
	.cfi_offset 8, -20
	.cfi_offset 9, -16
	.cfi_offset 10, -12
	.cfi_offset 11, -8
	.cfi_offset 14, -4
	mov	r6, r0	@ tmp172, buffer
@ src/build-packet.c:245:     printf("%d bytes:\n", length);
	.loc 1 245 5 view .LVU80
	ldr	r0, .L48	@,
.LVL23:
@ src/build-packet.c:241: void log_hexdump(const uint8_t *buffer, int length) {
	.loc 1 241 53 view .LVU81
	mov	r7, r1	@ length, tmp173
	sub	sp, sp, #44	@,,
	.cfi_def_cfa_offset 80
@ src/build-packet.c:245:     printf("%d bytes:\n", length);
	.loc 1 245 5 view .LVU82
.LPIC7:
	add	r0, pc, r0	@,
	bl	tfp_printf(PLT)	@
.LVL24:
	.loc 1 246 5 is_stmt 1 view .LVU83
	.loc 1 246 11 view .LVU84
	cmp	r7, #0	@ length,
	ble	.L29		@,
.LBB40:
@ src/build-packet.c:249:         printf("%-8d ", written);
	.loc 1 249 9 is_stmt 0 view .LVU85
	ldr	r3, .L48+4	@ tmp137,
.LBE40:
@ src/build-packet.c:243:     int written = 0;
	.loc 1 243 9 view .LVU86
	mov	r10, #0	@ written,
.LBB47:
.LBB41:
@ src/build-packet.c:252:             if (i % 2 == 0) printf(" ");
	.loc 1 252 29 view .LVU87
	ldr	r9, .L48+8	@ tmp166,
@ src/build-packet.c:253:             if (i % 8 == 0) printf(" ");
	.loc 1 253 29 view .LVU88
	ldr	r8, .L48+12	@ tmp167,
@ src/build-packet.c:258:                 printf("  ");
	.loc 1 258 17 view .LVU89
	ldr	r5, .L48+16	@ tmp168,
.LBE41:
@ src/build-packet.c:249:         printf("%-8d ", written);
	.loc 1 249 9 view .LVU90
.LPIC8:
	add	r3, pc, r3	@ tmp137, tmp137
	str	r3, [sp, #4]	@ tmp137, %sfp
	add	r3, sp, #19	@ ivtmp.42,,
.LBB42:
@ src/build-packet.c:252:             if (i % 2 == 0) printf(" ");
	.loc 1 252 29 view .LVU91
.LPIC9:
	add	r9, pc, r9	@ tmp166, tmp166
@ src/build-packet.c:253:             if (i % 8 == 0) printf(" ");
	.loc 1 253 29 view .LVU92
.LPIC10:
	add	r8, pc, r8	@ tmp167, tmp167
@ src/build-packet.c:258:                 printf("  ");
	.loc 1 258 17 view .LVU93
.LPIC12:
	add	r5, pc, r5	@ tmp168, tmp168
	str	r3, [sp, #8]	@ ivtmp.42, %sfp
	add	r3, sp, #20	@ tmp165,,
	str	r3, [sp, #12]	@ tmp165, %sfp
.LVL25:
.L38:
	.loc 1 258 17 view .LVU94
.LBE42:
	.loc 1 247 9 is_stmt 1 view .LVU95
@ src/build-packet.c:249:         printf("%-8d ", written);
	.loc 1 249 9 is_stmt 0 view .LVU96
	ldr	r0, [sp, #4]	@, %sfp
@ src/build-packet.c:247:         int have = (length > 16) ? 16 : length;
	.loc 1 247 13 view .LVU97
	cmp	r7, #16	@ length,
@ src/build-packet.c:249:         printf("%-8d ", written);
	.loc 1 249 9 view .LVU98
	mov	r1, r10	@, written
.LBB43:
@ src/build-packet.c:251:         for (int i = 0; i < 16; i++) {
	.loc 1 251 18 view .LVU99
	mov	fp, #0	@ i,
.LBE43:
@ src/build-packet.c:247:         int have = (length > 16) ? 16 : length;
	.loc 1 247 13 view .LVU100
	movlt	r4, r7	@ have, length
	movge	r4, #16	@ have,
.LVL26:
	.loc 1 249 9 is_stmt 1 view .LVU101
	bl	tfp_printf(PLT)	@
.LVL27:
	.loc 1 251 9 view .LVU102
.LBB44:
	.loc 1 251 14 view .LVU103
	.loc 1 251 25 view .LVU104
	b	.L35		@
.LVL28:
.L47:
@ src/build-packet.c:256:                 printf("%02x", buffer[i]);
	.loc 1 256 17 is_stmt 0 view .LVU105
	ldr	r0, .L48+20	@,
	ldrb	r1, [r6, fp]	@ zero_extendqisi2	@, MEM[base: buffer_21, index: _47, offset: 0B]
@ src/build-packet.c:251:         for (int i = 0; i < 16; i++) {
	.loc 1 251 34 view .LVU106
	add	fp, fp, #1	@ i, i,
.LVL29:
@ src/build-packet.c:256:                 printf("%02x", buffer[i]);
	.loc 1 256 17 view .LVU107
.LPIC11:
	add	r0, pc, r0	@,
	bl	tfp_printf(PLT)	@
.LVL30:
	.loc 1 251 33 is_stmt 1 view .LVU108
	.loc 1 251 25 view .LVU109
@ src/build-packet.c:251:         for (int i = 0; i < 16; i++) {
	.loc 1 251 9 is_stmt 0 view .LVU110
	cmp	fp, #16	@ i,
	beq	.L44		@,
.LVL31:
.L35:
	.loc 1 252 13 is_stmt 1 view .LVU111
@ src/build-packet.c:252:             if (i % 2 == 0) printf(" ");
	.loc 1 252 16 is_stmt 0 view .LVU112
	tst	fp, #1	@ i,
	beq	.L45		@,
.L31:
	.loc 1 253 13 is_stmt 1 view .LVU113
@ src/build-packet.c:253:             if (i % 8 == 0) printf(" ");
	.loc 1 253 16 is_stmt 0 view .LVU114
	tst	fp, #7	@ i,
	beq	.L46		@,
.L32:
	.loc 1 255 13 is_stmt 1 view .LVU115
	.loc 1 256 17 view .LVU116
	.loc 1 258 17 view .LVU117
@ src/build-packet.c:255:             if (i < have) {
	.loc 1 255 16 is_stmt 0 view .LVU118
	cmp	r4, fp	@ have, i
@ src/build-packet.c:258:                 printf("  ");
	.loc 1 258 17 view .LVU119
	mov	r0, r5	@, tmp168
@ src/build-packet.c:255:             if (i < have) {
	.loc 1 255 16 view .LVU120
	bgt	.L47		@,
@ src/build-packet.c:251:         for (int i = 0; i < 16; i++) {
	.loc 1 251 34 view .LVU121
	add	fp, fp, #1	@ i, i,
.LVL32:
@ src/build-packet.c:258:                 printf("  ");
	.loc 1 258 17 view .LVU122
	bl	tfp_printf(PLT)	@
.LVL33:
	.loc 1 251 33 is_stmt 1 view .LVU123
	.loc 1 251 25 view .LVU124
@ src/build-packet.c:251:         for (int i = 0; i < 16; i++) {
	.loc 1 251 9 is_stmt 0 view .LVU125
	cmp	fp, #16	@ i,
	bne	.L35		@,
.L44:
	.loc 1 251 9 view .LVU126
.LBE44:
	.loc 1 262 9 is_stmt 1 view .LVU127
	ldr	r0, .L48+24	@,
.LPIC13:
	add	r0, pc, r0	@,
	bl	tfp_printf(PLT)	@
.LVL34:
	.loc 1 263 9 view .LVU128
.LBB45:
	.loc 1 263 14 view .LVU129
	.loc 1 263 25 view .LVU130
	ldr	r1, [sp, #8]	@ ivtmp.42, %sfp
	sub	r2, r6, #1	@ ivtmp.39, buffer,
	add	ip, r2, r4	@ _57, ivtmp.39, have
.LVL35:
.L37:
	.loc 1 264 13 view .LVU131
@ src/build-packet.c:264:             text[i] = (buffer[i] >= 32 && buffer[i] <= 126) ? buffer[i] : '.';
	.loc 1 264 30 is_stmt 0 view .LVU132
	ldrb	r3, [r2, #1]!	@ zero_extendqisi2	@ _9, MEM[base: _51, offset: 0B]
@ src/build-packet.c:264:             text[i] = (buffer[i] >= 32 && buffer[i] <= 126) ? buffer[i] : '.';
	.loc 1 264 21 view .LVU133
	sub	r0, r3, #32	@ tmp156, _9,
	cmp	r0, #94	@ tmp156,
	movhi	r3, #46	@ _9,
@ src/build-packet.c:263:         for (int i = 0; i < have; i++) {
	.loc 1 263 9 view .LVU134
	cmp	r2, ip	@ ivtmp.39, _57
@ src/build-packet.c:264:             text[i] = (buffer[i] >= 32 && buffer[i] <= 126) ? buffer[i] : '.';
	.loc 1 264 21 view .LVU135
	strb	r3, [r1, #1]!	@ _9, MEM[base: _62, offset: 0B]
	.loc 1 263 35 is_stmt 1 view .LVU136
	.loc 1 263 25 view .LVU137
@ src/build-packet.c:263:         for (int i = 0; i < have; i++) {
	.loc 1 263 9 is_stmt 0 view .LVU138
	bne	.L37		@,
.LBE45:
	.loc 1 266 9 is_stmt 1 view .LVU139
@ src/build-packet.c:267:         printf("%s\n", text);
	.loc 1 267 9 is_stmt 0 view .LVU140
	ldr	r0, .L48+28	@,
@ src/build-packet.c:266:         text[have] = '\0';
	.loc 1 266 20 view .LVU141
	add	r3, r4, #40	@ tmp203, have,
	add	r3, sp, r3	@ tmp158,, tmp203
	mov	r2, #0	@ tmp159,
@ src/build-packet.c:267:         printf("%s\n", text);
	.loc 1 267 9 view .LVU142
.LPIC14:
	add	r0, pc, r0	@,
	ldr	r1, [sp, #12]	@, %sfp
@ src/build-packet.c:270:         length -= have;
	.loc 1 270 16 view .LVU143
	sub	r7, r7, r4	@ length, length, have
.LVL36:
@ src/build-packet.c:266:         text[have] = '\0';
	.loc 1 266 20 view .LVU144
	strb	r2, [r3, #-20]	@ tmp159, text[have_29]
	.loc 1 267 9 is_stmt 1 view .LVU145
@ src/build-packet.c:269:         buffer += have;
	.loc 1 269 16 is_stmt 0 view .LVU146
	add	r6, r6, r4	@ buffer, buffer, have
.LVL37:
@ src/build-packet.c:267:         printf("%s\n", text);
	.loc 1 267 9 view .LVU147
	bl	tfp_printf(PLT)	@
.LVL38:
	.loc 1 269 9 is_stmt 1 view .LVU148
	.loc 1 270 9 view .LVU149
	.loc 1 271 9 view .LVU150
@ src/build-packet.c:271:         written += have;
	.loc 1 271 17 is_stmt 0 view .LVU151
	add	r10, r10, r4	@ written, written, have
.LVL39:
	.loc 1 271 17 view .LVU152
.LBE47:
	.loc 1 246 11 is_stmt 1 view .LVU153
	cmp	r7, #0	@ length,
	bgt	.L38		@,
.LVL40:
.L29:
@ src/build-packet.c:273: }
	.loc 1 273 1 is_stmt 0 view .LVU154
	add	sp, sp, #44	@,,
	.cfi_remember_state
	.cfi_def_cfa_offset 36
	@ sp needed	@
	pop	{r4, r5, r6, r7, r8, r9, r10, fp, pc}	@
.LVL41:
.L46:
	.cfi_restore_state
.LBB48:
.LBB46:
	.loc 1 253 29 is_stmt 1 discriminator 1 view .LVU155
	mov	r0, r8	@, tmp167
	bl	tfp_printf(PLT)	@
.LVL42:
	b	.L32		@
.L45:
	.loc 1 252 29 discriminator 1 view .LVU156
	mov	r0, r9	@, tmp166
	bl	tfp_printf(PLT)	@
.LVL43:
	b	.L31		@
.L49:
	.align	2
.L48:
	.word	.LC6-(.LPIC7+8)
	.word	.LC7-(.LPIC8+8)
	.word	.LC8-(.LPIC9+8)
	.word	.LC8-(.LPIC10+8)
	.word	.LC10-(.LPIC12+8)
	.word	.LC9-(.LPIC11+8)
	.word	.LC10-(.LPIC13+8)
	.word	.LC11-(.LPIC14+8)
.LBE46:
.LBE48:
	.cfi_endproc
.LFE24:
	.size	log_hexdump, .-log_hexdump
	.section	.rodata.write_header2.constprop.0.isra.0.str1.4,"aMS",%progbits,1
	.align	2
.LC12:
	.ascii	"write_header2  %08X %d %02X %d\000"
	.align	2
.LC13:
	.ascii	"ctb new format: %d\012\000"
	.align	2
.LC14:
	.ascii	"writing_new_header\012\000"
	.align	2
.LC15:
	.ascii	"write_new_header %02X %08X %d\012\000"
	.align	2
.LC16:
	.ascii	"enable partial body length mode\012\000"
	.align	2
.LC17:
	.ascii	"len=%d\012\000"
	.align	2
.LC18:
	.ascii	"Failing here\012\000"
	.align	2
.LC19:
	.ascii	"WRITE HEADER:     ctb=%02x, len=%d\012\000"
	.section	.text.write_header2.constprop.0.isra.0,"ax",%progbits
	.align	2
	.syntax unified
	.arm
	.fpu softvfp
	.type	write_header2.constprop.0.isra.0, %function
write_header2.constprop.0.isra.0:
.LVL44:
.LFB38:
	.loc 1 562 1 view -0
	.cfi_startproc
	@ args = 0, pretend = 0, frame = 0
	@ frame_needed = 0, uses_anonymous_args = 0
	.loc 1 565 3 view .LVU158
@ src/build-packet.c:562: write_header2( IOBUF out, int ctb, u32 len, int hdrlen )
	.loc 1 562 1 is_stmt 0 view .LVU159
	push	{r4, r5, r6, r7, lr}	@
	.cfi_def_cfa_offset 20
	.cfi_offset 4, -20
	.cfi_offset 5, -16
	.cfi_offset 6, -12
	.cfi_offset 7, -8
	.cfi_offset 14, -4
	mov	r7, r0	@ tmp190, out
@ src/build-packet.c:565:   printf("write_header2  %08X %d %02X %d",len,hdrlen,ctb, out->use);
	.loc 1 565 3 view .LVU160
	ldr	r0, .L79	@,
.LVL45:
@ src/build-packet.c:562: write_header2( IOBUF out, int ctb, u32 len, int hdrlen )
	.loc 1 562 1 view .LVU161
	sub	sp, sp, #12	@,,
	.cfi_def_cfa_offset 32
@ src/build-packet.c:565:   printf("write_header2  %08X %d %02X %d",len,hdrlen,ctb, out->use);
	.loc 1 565 3 view .LVU162
	ldrb	r3, [r7]	@ zero_extendqisi2	@ out_1(D)->use, out_1(D)->use
@ src/build-packet.c:562: write_header2( IOBUF out, int ctb, u32 len, int hdrlen )
	.loc 1 562 1 view .LVU163
	mov	r5, r2	@ len, tmp192
@ src/build-packet.c:565:   printf("write_header2  %08X %d %02X %d",len,hdrlen,ctb, out->use);
	.loc 1 565 3 view .LVU164
.LPIC15:
	add	r0, pc, r0	@,
.LBB53:
.LBB54:
@ src/build-packet.c:49:   int res = (ctb & (1 << 6));
	.loc 1 49 7 view .LVU165
	and	r6, r1, #64	@ res, ctb,
.LBE54:
.LBE53:
@ src/build-packet.c:565:   printf("write_header2  %08X %d %02X %d",len,hdrlen,ctb, out->use);
	.loc 1 565 3 view .LVU166
	str	r3, [sp]	@ out_1(D)->use,
	mov	r2, #0	@,
.LVL46:
	.loc 1 565 3 view .LVU167
	mov	r3, r1	@, ctb
@ src/build-packet.c:562: write_header2( IOBUF out, int ctb, u32 len, int hdrlen )
	.loc 1 562 1 view .LVU168
	mov	r4, r1	@ ctb, tmp191
@ src/build-packet.c:565:   printf("write_header2  %08X %d %02X %d",len,hdrlen,ctb, out->use);
	.loc 1 565 3 view .LVU169
	mov	r1, r5	@, len
.LVL47:
	.loc 1 565 3 view .LVU170
	bl	tfp_printf(PLT)	@
.LVL48:
	.loc 1 566 3 is_stmt 1 view .LVU171
.LBB56:
.LBI53:
	.loc 1 44 1 view .LVU172
.LBB55:
	.loc 1 49 3 view .LVU173
	.loc 1 50 3 view .LVU174
	ldr	r0, .L79+4	@,
	mov	r1, r6	@, res
.LPIC16:
	add	r0, pc, r0	@,
	bl	tfp_printf(PLT)	@
.LVL49:
	.loc 1 51 3 view .LVU175
	.loc 1 51 3 is_stmt 0 view .LVU176
.LBE55:
.LBE56:
@ src/build-packet.c:566:   if (ctb_new_format_p (ctb)){
	.loc 1 566 6 view .LVU177
	cmp	r6, #0	@ res,
	bne	.L75		@,
	.loc 1 580 3 is_stmt 1 view .LVU178
	.loc 1 601 7 view .LVU179
	ldr	r0, .L79+8	@,
	mov	r1, r5	@, len
.LPIC21:
	add	r0, pc, r0	@,
	bl	tfp_printf(PLT)	@
.LVL50:
	.loc 1 602 7 view .LVU180
@ src/build-packet.c:602:       if( !len )
	.loc 1 602 9 is_stmt 0 view .LVU181
	cmp	r5, #0	@ len,
	bne	.L58		@,
	.loc 1 604 2 is_stmt 1 view .LVU182
@ src/build-packet.c:604: 	ctb |= 3;
	.loc 1 604 6 is_stmt 0 view .LVU183
	orr	r4, r4, #3	@ ctb, ctb,
.LVL51:
	.loc 1 616 3 is_stmt 1 view .LVU184
@ src/build-packet.c:616:   if( iobuf_put(out, ctb ) ){
	.loc 1 616 7 is_stmt 0 view .LVU185
	mov	r0, r7	@, out
	mov	r1, r4	@, ctb
	bl	iobuf_writebyte(PLT)	@
.LVL52:
@ src/build-packet.c:616:   if( iobuf_put(out, ctb ) ){
	.loc 1 616 5 view .LVU186
	cmp	r0, #0	@ tmp199,
	bne	.L59		@,
.L60:
	.loc 1 640 5 is_stmt 1 view .LVU187
	ldr	r0, .L79+12	@,
	mov	r1, r4	@, ctb
	mov	r2, r5	@, len
.LPIC23:
	add	r0, pc, r0	@,
	bl	tfp_printf(PLT)	@
.LVL53:
	.loc 1 641 5 view .LVU188
	ldr	r1, [r7, #28]	@, out_1(D)->d.len
	ldr	r0, [r7, #32]	@, out_1(D)->d.buf
@ src/build-packet.c:643: }
	.loc 1 643 1 is_stmt 0 view .LVU189
	add	sp, sp, #12	@,,
	.cfi_remember_state
	.cfi_def_cfa_offset 20
	@ sp needed	@
	pop	{r4, r5, r6, r7, lr}	@
	.cfi_restore 14
	.cfi_restore 7
	.cfi_restore 6
	.cfi_restore 5
	.cfi_restore 4
	.cfi_def_cfa_offset 0
.LVL54:
@ src/build-packet.c:641:     log_hexdump(out->d.buf, out->d.len);
	.loc 1 641 5 view .LVU190
	b	log_hexdump(PLT)	@
.LVL55:
.L58:
	.cfi_restore_state
	.loc 1 605 12 is_stmt 1 view .LVU191
@ src/build-packet.c:605:       else if( len < 256 )
	.loc 1 605 14 is_stmt 0 view .LVU192
	cmp	r5, #255	@ len,
	bhi	.L76		@,
.LVL56:
.L61:
	.loc 1 616 3 is_stmt 1 view .LVU193
@ src/build-packet.c:616:   if( iobuf_put(out, ctb ) ){
	.loc 1 616 7 is_stmt 0 view .LVU194
	mov	r1, r4	@, ctb
	mov	r0, r7	@, out
	bl	iobuf_writebyte(PLT)	@
.LVL57:
@ src/build-packet.c:616:   if( iobuf_put(out, ctb ) ){
	.loc 1 616 5 view .LVU195
	cmp	r0, #0	@ tmp205,
	bne	.L59		@,
	.loc 1 623 7 is_stmt 1 view .LVU196
@ src/build-packet.c:623:       if( ctb & 2 )
	.loc 1 623 9 is_stmt 0 view .LVU197
	tst	r4, #2	@ ctb,
	bne	.L63		@,
.L66:
	.loc 1 631 7 is_stmt 1 view .LVU198
@ src/build-packet.c:631:       if( ctb & 3 ){
	.loc 1 631 9 is_stmt 0 view .LVU199
	tst	r4, #3	@ ctb,
	beq	.L65		@,
	.loc 1 633 2 is_stmt 1 view .LVU200
@ src/build-packet.c:633: 	if(iobuf_put(out, len >> 8 ))
	.loc 1 633 5 is_stmt 0 view .LVU201
	lsr	r1, r5, #8	@, len,
	mov	r0, r7	@, out
	bl	iobuf_writebyte(PLT)	@
.LVL58:
@ src/build-packet.c:633: 	if(iobuf_put(out, len >> 8 ))
	.loc 1 633 4 view .LVU202
	cmp	r0, #0	@ tmp204,
	bne	.L50		@,
.L65:
	.loc 1 637 7 is_stmt 1 view .LVU203
@ src/build-packet.c:637:       if( iobuf_put(out, len ) )
	.loc 1 637 11 is_stmt 0 view .LVU204
	mov	r1, r5	@, len
	mov	r0, r7	@, out
	bl	iobuf_writebyte(PLT)	@
.LVL59:
@ src/build-packet.c:637:       if( iobuf_put(out, len ) )
	.loc 1 637 9 view .LVU205
	cmp	r0, #0	@ tmp203,
	beq	.L60		@,
	b	.L50		@
.L75:
	.loc 1 567 5 is_stmt 1 view .LVU206
	ldr	r0, .L79+16	@,
.LPIC17:
	add	r0, pc, r0	@,
	bl	tfp_printf(PLT)	@
.LVL60:
	.loc 1 568 5 view .LVU207
.LBB57:
.LBI57:
	.loc 1 661 1 view .LVU208
.LBB58:
	.loc 1 663 3 view .LVU209
	ldr	r0, .L79+20	@,
	mov	r3, #0	@,
	mov	r2, r5	@, len
	mov	r1, r4	@, ctb
.LPIC18:
	add	r0, pc, r0	@,
	bl	tfp_printf(PLT)	@
.LVL61:
	.loc 1 664 5 view .LVU210
	.loc 1 667 5 view .LVU211
@ src/build-packet.c:667:     if( iobuf_put(out, ctb ) )
	.loc 1 667 9 is_stmt 0 view .LVU212
	mov	r1, r4	@, ctb
	mov	r0, r7	@, out
	bl	iobuf_writebyte(PLT)	@
.LVL62:
@ src/build-packet.c:667:     if( iobuf_put(out, ctb ) )
	.loc 1 667 7 view .LVU213
	cmp	r0, #0	@ tmp193,
	bne	.L50		@,
	.loc 1 669 5 is_stmt 1 view .LVU214
@ src/build-packet.c:669:     if( !len ) {
	.loc 1 669 7 is_stmt 0 view .LVU215
	cmp	r5, #0	@ len,
	beq	.L77		@,
	.loc 1 674 7 is_stmt 1 view .LVU216
	ldr	r0, .L79+24	@,
	mov	r1, r5	@, len
.LPIC20:
	add	r0, pc, r0	@,
	bl	tfp_printf(PLT)	@
.LVL63:
	.loc 1 675 2 view .LVU217
@ src/build-packet.c:675: 	if( len < 192 ) {
	.loc 1 675 4 is_stmt 0 view .LVU218
	cmp	r5, #191	@ len,
@ src/build-packet.c:676: 	    if( iobuf_put(out, len ) )
	.loc 1 676 10 view .LVU219
	movls	r1, r5	@, len
@ src/build-packet.c:675: 	if( len < 192 ) {
	.loc 1 675 4 view .LVU220
	bls	.L73		@,
	.loc 1 679 7 is_stmt 1 view .LVU221
@ src/build-packet.c:679: 	else if( len < 8384 ) {
	.loc 1 679 9 is_stmt 0 view .LVU222
	cmp	r5, #8384	@ len,
	bcc	.L78		@,
	.loc 1 687 6 is_stmt 1 view .LVU223
@ src/build-packet.c:687: 	    if( iobuf_put( out, 0xff ) )
	.loc 1 687 10 is_stmt 0 view .LVU224
	mov	r1, #255	@,
	mov	r0, r7	@, out
	bl	iobuf_writebyte(PLT)	@
.LVL64:
@ src/build-packet.c:687: 	    if( iobuf_put( out, 0xff ) )
	.loc 1 687 8 view .LVU225
	cmp	r0, #0	@ tmp195,
	bne	.L50		@,
	.loc 1 689 6 is_stmt 1 view .LVU226
@ src/build-packet.c:689: 	    if( iobuf_put( out, (len >> 24)&0xff ) )
	.loc 1 689 10 is_stmt 0 view .LVU227
	lsr	r1, r5, #24	@, len,
	mov	r0, r7	@, out
	bl	iobuf_writebyte(PLT)	@
.LVL65:
@ src/build-packet.c:689: 	    if( iobuf_put( out, (len >> 24)&0xff ) )
	.loc 1 689 8 view .LVU228
	cmp	r0, #0	@ tmp196,
	bne	.L50		@,
	.loc 1 691 6 is_stmt 1 view .LVU229
@ src/build-packet.c:691: 	    if( iobuf_put( out, (len >> 16)&0xff ) )
	.loc 1 691 10 is_stmt 0 view .LVU230
	ubfx	r1, r5, #16, #8	@, len,,
	mov	r0, r7	@, out
	bl	iobuf_writebyte(PLT)	@
.LVL66:
@ src/build-packet.c:691: 	    if( iobuf_put( out, (len >> 16)&0xff ) )
	.loc 1 691 8 view .LVU231
	cmp	r0, #0	@ tmp197,
	bne	.L50		@,
	.loc 1 693 6 is_stmt 1 view .LVU232
@ src/build-packet.c:693: 	    if( iobuf_put( out, (len >> 8)&0xff )  )
	.loc 1 693 10 is_stmt 0 view .LVU233
	ubfx	r1, r5, #8, #8	@, len,,
	mov	r0, r7	@, out
	bl	iobuf_writebyte(PLT)	@
.LVL67:
@ src/build-packet.c:693: 	    if( iobuf_put( out, (len >> 8)&0xff )  )
	.loc 1 693 8 view .LVU234
	cmp	r0, #0	@ tmp198,
	bne	.L50		@,
.LVL68:
.L74:
	.loc 1 683 6 is_stmt 1 view .LVU235
@ src/build-packet.c:683: 	    if( iobuf_put( out, (len % 256) )  )
	.loc 1 683 10 is_stmt 0 view .LVU236
	uxtb	r1, r5	@, len
.L73:
	.loc 1 683 10 view .LVU237
	mov	r0, r7	@, out
.LBE58:
.LBE57:
@ src/build-packet.c:643: }
	.loc 1 643 1 view .LVU238
	add	sp, sp, #12	@,,
	.cfi_remember_state
	.cfi_def_cfa_offset 20
	@ sp needed	@
	pop	{r4, r5, r6, r7, lr}	@
	.cfi_restore 14
	.cfi_restore 7
	.cfi_restore 6
	.cfi_restore 5
	.cfi_restore 4
	.cfi_def_cfa_offset 0
.LVL69:
.LBB63:
.LBB59:
@ src/build-packet.c:683: 	    if( iobuf_put( out, (len % 256) )  )
	.loc 1 683 10 view .LVU239
	b	iobuf_writebyte(PLT)	@
.LVL70:
.L76:
	.cfi_restore_state
	.loc 1 683 10 view .LVU240
.LBE59:
.LBE63:
	.loc 1 608 12 is_stmt 1 view .LVU241
@ src/build-packet.c:608:       else if( len < 65536 )
	.loc 1 608 14 is_stmt 0 view .LVU242
	cmp	r5, #65536	@ len,
@ src/build-packet.c:610: 	ctb |= 1;
	.loc 1 610 6 view .LVU243
	orrcc	r4, r4, #1	@ ctb, ctb,
.LVL71:
@ src/build-packet.c:608:       else if( len < 65536 )
	.loc 1 608 14 view .LVU244
	bcc	.L61		@,
	.loc 1 613 2 is_stmt 1 view .LVU245
@ src/build-packet.c:613: 	ctb |= 2;
	.loc 1 613 6 is_stmt 0 view .LVU246
	orr	r4, r4, #2	@ ctb, ctb,
.LVL72:
	.loc 1 616 3 is_stmt 1 view .LVU247
@ src/build-packet.c:616:   if( iobuf_put(out, ctb ) ){
	.loc 1 616 7 is_stmt 0 view .LVU248
	mov	r0, r7	@, out
	mov	r1, r4	@, ctb
	bl	iobuf_writebyte(PLT)	@
.LVL73:
@ src/build-packet.c:616:   if( iobuf_put(out, ctb ) ){
	.loc 1 616 5 view .LVU249
	cmp	r0, #0	@ tmp200,
	bne	.L59		@,
.L63:
	.loc 1 625 4 is_stmt 1 view .LVU250
@ src/build-packet.c:625: 	  if(iobuf_put(out, len >> 24 ))
	.loc 1 625 7 is_stmt 0 view .LVU251
	lsr	r1, r5, #24	@, len,
	mov	r0, r7	@, out
	bl	iobuf_writebyte(PLT)	@
.LVL74:
@ src/build-packet.c:625: 	  if(iobuf_put(out, len >> 24 ))
	.loc 1 625 6 view .LVU252
	cmp	r0, #0	@ tmp201,
	bne	.L50		@,
	.loc 1 627 4 is_stmt 1 view .LVU253
@ src/build-packet.c:627: 	  if(iobuf_put(out, len >> 16 ))
	.loc 1 627 7 is_stmt 0 view .LVU254
	lsr	r1, r5, #16	@, len,
	mov	r0, r7	@, out
	bl	iobuf_writebyte(PLT)	@
.LVL75:
@ src/build-packet.c:627: 	  if(iobuf_put(out, len >> 16 ))
	.loc 1 627 6 view .LVU255
	cmp	r0, #0	@ tmp202,
	beq	.L66		@,
	b	.L50		@
.LVL76:
.L77:
.LBB64:
.LBB60:
	.loc 1 670 3 is_stmt 1 view .LVU256
	ldr	r0, .L79+28	@,
.LPIC19:
	add	r0, pc, r0	@,
	bl	tfp_printf(PLT)	@
.LVL77:
	.loc 1 671 2 view .LVU257
	mov	r1, #512	@,
	mov	r0, r7	@, out
.LBE60:
.LBE64:
@ src/build-packet.c:643: }
	.loc 1 643 1 is_stmt 0 view .LVU258
	add	sp, sp, #12	@,,
	.cfi_remember_state
	.cfi_def_cfa_offset 20
	@ sp needed	@
	pop	{r4, r5, r6, r7, lr}	@
	.cfi_restore 14
	.cfi_restore 7
	.cfi_restore 6
	.cfi_restore 5
	.cfi_restore 4
	.cfi_def_cfa_offset 0
.LVL78:
.LBB65:
.LBB61:
@ src/build-packet.c:671: 	iobuf_set_partial_body_length_mode(out, 512 );
	.loc 1 671 2 view .LVU259
	b	iobuf_set_partial_body_length_mode(PLT)	@
.LVL79:
.L59:
	.cfi_restore_state
	.loc 1 671 2 view .LVU260
.LBE61:
.LBE65:
	.loc 1 617 5 is_stmt 1 view .LVU261
	ldr	r0, .L79+32	@,
.LPIC22:
	add	r0, pc, r0	@,
@ src/build-packet.c:643: }
	.loc 1 643 1 is_stmt 0 view .LVU262
	add	sp, sp, #12	@,,
	.cfi_remember_state
	.cfi_def_cfa_offset 20
	@ sp needed	@
	pop	{r4, r5, r6, r7, lr}	@
	.cfi_restore 14
	.cfi_restore 7
	.cfi_restore 6
	.cfi_restore 5
	.cfi_restore 4
	.cfi_def_cfa_offset 0
.LVL80:
@ src/build-packet.c:617:     printf("Failing here\n");
	.loc 1 617 5 view .LVU263
	b	tfp_printf(PLT)	@
.LVL81:
.L78:
	.cfi_restore_state
.LBB66:
.LBB62:
	.loc 1 680 6 is_stmt 1 view .LVU264
@ src/build-packet.c:680: 	    len -= 192;
	.loc 1 680 10 is_stmt 0 view .LVU265
	sub	r5, r5, #192	@ len, len,
.LVL82:
	.loc 1 681 6 is_stmt 1 view .LVU266
@ src/build-packet.c:681: 	    if( iobuf_put( out, (len / 256) + 192) )
	.loc 1 681 10 is_stmt 0 view .LVU267
	mov	r0, r7	@, out
	lsr	r1, r5, #8	@ tmp168, len,
	add	r1, r1, #192	@, tmp168,
	bl	iobuf_writebyte(PLT)	@
.LVL83:
@ src/build-packet.c:681: 	    if( iobuf_put( out, (len / 256) + 192) )
	.loc 1 681 8 view .LVU268
	cmp	r0, #0	@ tmp194,
	beq	.L74		@,
.LVL84:
.L50:
	.loc 1 681 8 view .LVU269
.LBE62:
.LBE66:
@ src/build-packet.c:643: }
	.loc 1 643 1 view .LVU270
	add	sp, sp, #12	@,,
	.cfi_def_cfa_offset 20
	@ sp needed	@
	pop	{r4, r5, r6, r7, pc}	@
.LVL85:
.L80:
	.loc 1 643 1 view .LVU271
	.align	2
.L79:
	.word	.LC12-(.LPIC15+8)
	.word	.LC13-(.LPIC16+8)
	.word	.LC17-(.LPIC21+8)
	.word	.LC19-(.LPIC23+8)
	.word	.LC14-(.LPIC17+8)
	.word	.LC15-(.LPIC18+8)
	.word	.LC17-(.LPIC20+8)
	.word	.LC16-(.LPIC19+8)
	.word	.LC18-(.LPIC22+8)
	.cfi_endproc
.LFE38:
	.size	write_header2.constprop.0.isra.0, .-write_header2.constprop.0.isra.0
	.section	.rodata.build_packet.str1.4,"aMS",%progbits,1
	.align	2
.LC20:
	.ascii	"        BUILD PACKET: %s out->use %d\012\000"
	.align	2
.LC21:
	.ascii	"CTB: pkttype %02x %d\012\000"
	.align	2
.LC22:
	.ascii	"do_symkey_enc out->use %d\012\000"
	.align	2
.LC23:
	.ascii	"PKT_symkey_enc:\012\000"
	.align	2
.LC24:
	.ascii	"  version: %u\012\000"
	.align	2
.LC25:
	.ascii	"  cipher_algo: %u\012\000"
	.align	2
.LC26:
	.ascii	"  aead_algo: %u\012\000"
	.align	2
.LC27:
	.ascii	"  s2k:\012\000"
	.align	2
.LC28:
	.ascii	"    mode: %d\012\000"
	.align	2
.LC29:
	.ascii	"    hash_algo: %u\012\000"
	.align	2
.LC30:
	.ascii	"    salt: \000"
	.align	2
.LC31:
	.ascii	"    count: %08x\012\000"
	.align	2
.LC32:
	.ascii	"  seskeylen: %u\012\000"
	.align	2
.LC33:
	.ascii	"do_symkey_enc: s2k=%d\012\000"
	.align	2
.LC34:
	.ascii	"do_plaintext pt->buf: %d\012\000"
	.align	2
.LC35:
	.ascii	"Checking packet type\012\000"
	.align	2
.LC36:
	.ascii	"Writing header\012\000"
	.align	2
.LC37:
	.ascii	"CTB: %d\012\000"
	.align	2
.LC38:
	.ascii	"Checking mode validity: mode = %c\012\000"
	.align	2
.LC39:
	.ascii	"Writing mode: %c\012\000"
	.align	2
.LC40:
	.ascii	"Writing namelen: %zu\012\000"
	.align	2
.LC41:
	.ascii	"Writing name: %.*s\012\000"
	.align	2
.LC42:
	.ascii	"Writing timestamp: %u\012\000"
	.align	2
.LC43:
	.ascii	"write_32 %08x\012\000"
	.align	2
.LC44:
	.ascii	"rc: %d\012\000"
	.align	2
.LC45:
	.ascii	"pt->buf: %d\012\000"
	.align	2
.LC46:
	.ascii	"!!!!! Wrote buf %d bytes\000"
	.align	2
.LC47:
	.ascii	"Turned off partial body length mode\012\000"
	.align	2
.LC48:
	.ascii	"do_plaintext done %d\012\000"
	.align	2
.LC49:
	.ascii	"invalid packet type in build_packet()\012\000"
	.section	.text.build_packet,"ax",%progbits
	.align	2
	.global	build_packet
	.syntax unified
	.arm
	.fpu softvfp
	.type	build_packet, %function
build_packet:
.LVL86:
.LFB22:
	.loc 1 98 1 is_stmt 1 view -0
	.cfi_startproc
	@ args = 0, pretend = 0, frame = 0
	@ frame_needed = 0, uses_anonymous_args = 0
	.loc 1 99 5 view .LVU273
@ src/build-packet.c:98: {
	.loc 1 98 1 is_stmt 0 view .LVU274
	push	{r4, r5, r6, r7, r8, lr}	@
	.cfi_def_cfa_offset 24
	.cfi_offset 4, -24
	.cfi_offset 5, -20
	.cfi_offset 6, -16
	.cfi_offset 7, -12
	.cfi_offset 8, -8
	.cfi_offset 14, -4
@ src/build-packet.c:98: {
	.loc 1 98 1 view .LVU275
	mov	r5, r0	@ out, tmp345
@ src/build-packet.c:99:     printf("        BUILD PACKET: %s out->use %d\n",get_pkttype_name(pkt->pkttype), out->use);
	.loc 1 99 5 view .LVU276
	ldrb	r0, [r1]	@ zero_extendqisi2	@, pkt_23(D)->pkttype
.LVL87:
@ src/build-packet.c:98: {
	.loc 1 98 1 view .LVU277
	mov	r6, r1	@ pkt, tmp346
@ src/build-packet.c:99:     printf("        BUILD PACKET: %s out->use %d\n",get_pkttype_name(pkt->pkttype), out->use);
	.loc 1 99 5 view .LVU278
	bl	get_pkttype_name(PLT)	@
.LVL88:
	.loc 1 99 5 view .LVU279
	ldrb	r2, [r5]	@ zero_extendqisi2	@, out_25(D)->use
	mov	r1, r0	@ tmp347,
	ldr	r0, .L128	@,
.LPIC24:
	add	r0, pc, r0	@,
	bl	tfp_printf(PLT)	@
.LVL89:
	.loc 1 101 3 is_stmt 1 view .LVU280
	.loc 1 102 3 view .LVU281
	.loc 1 103 3 view .LVU282
	.loc 1 109 3 view .LVU283
@ src/build-packet.c:109:   switch ((pkttype = pkt->pkttype))
	.loc 1 109 25 is_stmt 0 view .LVU284
	ldrb	r4, [r6]	@ zero_extendqisi2	@ _5, pkt_23(D)->pkttype
.LVL90:
@ src/build-packet.c:109:   switch ((pkttype = pkt->pkttype))
	.loc 1 109 3 view .LVU285
	cmp	r4, #9	@ _5,
	beq	.L82		@,
	cmp	r4, #11	@ _5,
	movne	r3, #0	@ _215,
	bne	.L83		@,
.L82:
	.loc 1 125 7 is_stmt 1 view .LVU286
.LVL91:
	.loc 1 126 7 view .LVU287
@ src/build-packet.c:125:       new_ctb = pkt->pkt.encrypted->new_ctb;
	.loc 1 125 35 is_stmt 0 view .LVU288
	ldr	r3, [r6, #4]	@ pkt_23(D)->pkt.encrypted,
@ src/build-packet.c:138:   if (new_ctb || pkttype > 15) /* new format */
	.loc 1 138 7 view .LVU289
	ldrb	r3, [r3, #8]	@ zero_extendqisi2	@ _8->new_ctb,
	subs	r3, r3, #0	@ _215, _8->new_ctb,
	movne	r3, #1	@ _215,
.LVL92:
.L83:
	.loc 1 138 3 is_stmt 1 view .LVU290
	.loc 1 139 5 view .LVU291
@ src/build-packet.c:138:   if (new_ctb || pkttype > 15) /* new format */
	.loc 1 138 6 is_stmt 0 view .LVU292
	cmp	r4, #15	@ _5,
	orrgt	r3, r3, #1	@,, tmp223, _215
@ src/build-packet.c:142:   printf("CTB: pkttype %02x %d\n", ctb, pkttype);
	.loc 1 142 3 view .LVU293
	mov	r2, r4	@, _5
	ldr	r0, .L128+4	@,
@ src/build-packet.c:138:   if (new_ctb || pkttype > 15) /* new format */
	.loc 1 138 6 view .LVU294
	cmp	r3, #0	@ tmp223,
@ src/build-packet.c:141:     ctb = (0x80 | ((pkttype & 15)<<2));
	.loc 1 141 34 view .LVU295
	lsleq	r7, r4, #2	@ tmp227, _5,
@ src/build-packet.c:139:     ctb = (0xc0 | (pkttype & 0x3f));
	.loc 1 139 9 view .LVU296
	orrne	r7, r4, #192	@ ctb, _5,
	.loc 1 141 5 is_stmt 1 view .LVU297
@ src/build-packet.c:142:   printf("CTB: pkttype %02x %d\n", ctb, pkttype);
	.loc 1 142 3 is_stmt 0 view .LVU298
.LPIC25:
	add	r0, pc, r0	@,
@ src/build-packet.c:141:     ctb = (0x80 | ((pkttype & 15)<<2));
	.loc 1 141 9 view .LVU299
	orreq	r7, r7, #128	@ ctb, tmp227,
.LVL93:
	.loc 1 142 3 is_stmt 1 view .LVU300
	mov	r1, r7	@, ctb
	bl	tfp_printf(PLT)	@
.LVL94:
	.loc 1 143 3 view .LVU301
	cmp	r4, #9	@ _5,
	beq	.L86		@,
	cmp	r4, #11	@ _5,
	beq	.L87		@,
	cmp	r4, #3	@ _5,
	beq	.L124		@,
	.loc 1 196 7 view .LVU302
	ldr	r0, .L128+8	@,
@ src/build-packet.c:101:   int rc = 0;
	.loc 1 101 7 is_stmt 0 view .LVU303
	mov	r6, #0	@ <retval>,
.LVL95:
@ src/build-packet.c:196:       printf ("invalid packet type in build_packet()\n");
	.loc 1 196 7 view .LVU304
.LPIC55:
	add	r0, pc, r0	@,
	bl	tfp_printf(PLT)	@
.LVL96:
	.loc 1 197 7 is_stmt 1 view .LVU305
	.loc 1 200 3 view .LVU306
.L81:
@ src/build-packet.c:201: }
	.loc 1 201 1 is_stmt 0 view .LVU307
	mov	r0, r6	@, <retval>
	pop	{r4, r5, r6, r7, r8, pc}	@
.LVL97:
.L86:
	.loc 1 173 7 is_stmt 1 view .LVU308
@ src/build-packet.c:173:       rc = do_encrypted (out, ctb, pkt->pkt.encrypted);
	.loc 1 173 12 is_stmt 0 view .LVU309
	ldr	r3, [r6, #4]	@ _17, pkt_23(D)->pkt.encrypted
.LVL98:
.LBB85:
.LBI85:
	.loc 1 484 1 is_stmt 1 view .LVU310
.LBB86:
	.loc 1 486 5 view .LVU311
	.loc 1 487 5 view .LVU312
	.loc 1 492 5 view .LVU313
.LBB87:
.LBB88:
@ src/build-packet.c:558:     return write_header2( out, ctb, len, 0 );
	.loc 1 558 12 is_stmt 0 view .LVU314
	mov	r0, r5	@, out
	mov	r1, r7	@, ctb
.LBE88:
.LBE87:
.LBE86:
.LBE85:
@ src/build-packet.c:173:       rc = do_encrypted (out, ctb, pkt->pkt.encrypted);
	.loc 1 173 12 view .LVU315
	mov	r6, #0	@ <retval>,
.LVL99:
.LBB92:
.LBB91:
@ src/build-packet.c:492:     n = ed->len ? (ed->len + ed->extralen) : 0;
	.loc 1 492 11 view .LVU316
	ldr	r2, [r3]	@ _122, _17->len
@ src/build-packet.c:492:     n = ed->len ? (ed->len + ed->extralen) : 0;
	.loc 1 492 44 view .LVU317
	cmp	r2, #0	@ _122,
	ldrne	r3, [r3, #4]	@ _17->extralen, _17->extralen
.LVL100:
	.loc 1 492 44 view .LVU318
	addne	r2, r2, r3	@ _122, _122, _17->extralen
.LVL101:
	.loc 1 493 5 is_stmt 1 view .LVU319
.LBB90:
.LBI87:
	.loc 1 556 1 view .LVU320
.LBB89:
	.loc 1 558 5 view .LVU321
@ src/build-packet.c:558:     return write_header2( out, ctb, len, 0 );
	.loc 1 558 12 is_stmt 0 view .LVU322
	bl	write_header2.constprop.0.isra.0(PLT)	@
.LVL102:
	.loc 1 558 12 view .LVU323
.LBE89:
.LBE90:
	.loc 1 497 5 is_stmt 1 view .LVU324
	.loc 1 497 5 is_stmt 0 view .LVU325
.LBE91:
.LBE92:
	.loc 1 174 7 is_stmt 1 view .LVU326
@ src/build-packet.c:201: }
	.loc 1 201 1 is_stmt 0 view .LVU327
	mov	r0, r6	@, <retval>
	pop	{r4, r5, r6, r7, r8, pc}	@
.LVL103:
.L124:
	.loc 1 164 7 is_stmt 1 view .LVU328
.LBB93:
.LBB94:
@ src/build-packet.c:317:  printf("do_symkey_enc out->use %d\n", out->use);
	.loc 1 317 2 is_stmt 0 view .LVU329
	ldr	r0, .L128+12	@,
	ldrb	r1, [r5]	@ zero_extendqisi2	@, out_25(D)->use
.LPIC26:
	add	r0, pc, r0	@,
.LBE94:
.LBE93:
@ src/build-packet.c:164:       rc = do_symkey_enc (out, ctb, pkt->pkt.symkey_enc);
	.loc 1 164 12 view .LVU330
	ldr	r4, [r6, #4]	@ _15, pkt_23(D)->pkt.symkey_enc
.LVL104:
.LBB100:
.LBI93:
	.loc 1 315 1 is_stmt 1 view .LVU331
.LBB97:
	.loc 1 317 2 view .LVU332
	bl	tfp_printf(PLT)	@
.LVL105:
	.loc 1 318 4 view .LVU333
	ldr	r0, .L128+16	@,
@ src/build-packet.c:326:     log_hexdump(enc->s2k.salt, 8);
	.loc 1 326 25 is_stmt 0 view .LVU334
	add	r6, r4, #9	@ _52, _15,
.LVL106:
@ src/build-packet.c:318:    printf("PKT_symkey_enc:\n");
	.loc 1 318 4 view .LVU335
.LPIC27:
	add	r0, pc, r0	@,
	bl	tfp_printf(PLT)	@
.LVL107:
	.loc 1 319 5 is_stmt 1 view .LVU336
	ldr	r0, .L128+20	@,
	ldrb	r1, [r4]	@ zero_extendqisi2	@, _15->version
.LPIC28:
	add	r0, pc, r0	@,
	bl	tfp_printf(PLT)	@
.LVL108:
	.loc 1 320 5 view .LVU337
	ldr	r0, .L128+24	@,
	ldrb	r1, [r4, #1]	@ zero_extendqisi2	@, _15->cipher_algo
.LPIC29:
	add	r0, pc, r0	@,
	bl	tfp_printf(PLT)	@
.LVL109:
	.loc 1 321 5 view .LVU338
	ldr	r0, .L128+28	@,
	ldrb	r1, [r4, #2]	@ zero_extendqisi2	@, _15->aead_algo
.LPIC30:
	add	r0, pc, r0	@,
	bl	tfp_printf(PLT)	@
.LVL110:
	.loc 1 322 6 view .LVU339
	ldr	r0, .L128+32	@,
.LPIC31:
	add	r0, pc, r0	@,
	bl	tfp_printf(PLT)	@
.LVL111:
	.loc 1 323 5 view .LVU340
	ldr	r0, .L128+36	@,
	ldr	r1, [r4, #4]	@, _15->s2k.mode
.LPIC32:
	add	r0, pc, r0	@,
	bl	tfp_printf(PLT)	@
.LVL112:
	.loc 1 324 5 view .LVU341
	ldr	r0, .L128+40	@,
	ldrb	r1, [r4, #8]	@ zero_extendqisi2	@, _15->s2k.hash_algo
.LPIC33:
	add	r0, pc, r0	@,
	bl	tfp_printf(PLT)	@
.LVL113:
	.loc 1 325 5 view .LVU342
	ldr	r0, .L128+44	@,
.LPIC34:
	add	r0, pc, r0	@,
	bl	tfp_printf(PLT)	@
.LVL114:
	.loc 1 326 5 view .LVU343
	mov	r1, #8	@,
	mov	r0, r6	@, _52
	bl	log_hexdump(PLT)	@
.LVL115:
	.loc 1 327 5 view .LVU344
	ldr	r0, .L128+48	@,
	ldr	r1, [r4, #20]	@, _15->s2k.count
.LPIC35:
	add	r0, pc, r0	@,
	bl	tfp_printf(PLT)	@
.LVL116:
	.loc 1 328 5 view .LVU345
	ldr	r0, .L128+52	@,
	ldrb	r1, [r4, #24]	@ zero_extendqisi2	@, _15->seskeylen
.LPIC36:
	add	r0, pc, r0	@,
	bl	tfp_printf(PLT)	@
.LVL117:
	.loc 1 335 3 view .LVU346
	.loc 1 336 3 view .LVU347
@ src/build-packet.c:336:   IOBUF a = iobuf_temp();
	.loc 1 336 13 is_stmt 0 view .LVU348
	bl	iobuf_temp(PLT)	@
.LVL118:
@ src/build-packet.c:342:   switch (enc->s2k.mode)
	.loc 1 342 19 view .LVU349
	ldr	r1, [r4, #4]	@ _57, _15->s2k.mode
@ src/build-packet.c:336:   IOBUF a = iobuf_temp();
	.loc 1 336 13 view .LVU350
	mov	r8, r0	@ a, tmp348
.LVL119:
	.loc 1 342 3 is_stmt 1 view .LVU351
	cmp	r1, #1	@ _57,
	bgt	.L89		@,
	cmp	r1, #0	@ _57,
	bge	.L90		@,
.L91:
	.loc 1 350 7 view .LVU352
	ldr	r0, .L128+56	@,
.LVL120:
	.loc 1 350 7 is_stmt 0 view .LVU353
.LPIC37:
	add	r0, pc, r0	@,
	bl	tfp_printf(PLT)	@
.LVL121:
.L90:
	.loc 1 352 5 is_stmt 1 view .LVU354
	ldrb	r1, [r4]	@ zero_extendqisi2	@, _15->version
	mov	r0, r8	@, a
	bl	iobuf_writebyte(PLT)	@
.LVL122:
	.loc 1 353 5 view .LVU355
	ldrb	r1, [r4, #1]	@ zero_extendqisi2	@, _15->cipher_algo
	mov	r0, r8	@, a
	bl	iobuf_writebyte(PLT)	@
.LVL123:
	.loc 1 354 5 view .LVU356
@ src/build-packet.c:354:     if (enc->version == 5)
	.loc 1 354 8 is_stmt 0 view .LVU357
	ldrb	r3, [r4]	@ zero_extendqisi2	@ _15->version, _15->version
	cmp	r3, #5	@ _15->version,
	beq	.L125		@,
.L92:
	.loc 1 356 5 is_stmt 1 view .LVU358
	ldr	r1, [r4, #4]	@, _15->s2k.mode
	mov	r0, r8	@, a
	bl	iobuf_writebyte(PLT)	@
.LVL124:
	.loc 1 357 5 view .LVU359
	ldrb	r1, [r4, #8]	@ zero_extendqisi2	@, _15->s2k.hash_algo
	mov	r0, r8	@, a
	bl	iobuf_writebyte(PLT)	@
.LVL125:
	.loc 1 358 5 view .LVU360
@ src/build-packet.c:358:     if( enc->s2k.mode == 1 || enc->s2k.mode == 3 ) {
	.loc 1 358 28 is_stmt 0 view .LVU361
	ldr	r3, [r4, #4]	@ _15->s2k.mode, _15->s2k.mode
	bic	r3, r3, #2	@ tmp268, _15->s2k.mode,
@ src/build-packet.c:358:     if( enc->s2k.mode == 1 || enc->s2k.mode == 3 ) {
	.loc 1 358 7 view .LVU362
	cmp	r3, #1	@ tmp268,
	beq	.L126		@,
.L94:
	.loc 1 366 5 is_stmt 1 view .LVU363
@ src/build-packet.c:366:     if( enc->seskeylen )
	.loc 1 366 12 is_stmt 0 view .LVU364
	ldrb	r2, [r4, #24]	@ zero_extendqisi2	@ _75, _15->seskeylen
@ src/build-packet.c:366:     if( enc->seskeylen )
	.loc 1 366 7 view .LVU365
	cmp	r2, #0	@ _75,
	bne	.L127		@,
.L96:
	.loc 1 369 5 is_stmt 1 view .LVU366
.LVL126:
.LBB95:
.LBI95:
	.loc 1 556 1 view .LVU367
.LBB96:
	.loc 1 558 5 view .LVU368
@ src/build-packet.c:558:     return write_header2( out, ctb, len, 0 );
	.loc 1 558 12 is_stmt 0 view .LVU369
	ldr	r2, [r8, #28]	@, a_56->d.len
	mov	r1, r7	@, ctb
	mov	r0, r5	@, out
	bl	write_header2.constprop.0.isra.0(PLT)	@
.LVL127:
	.loc 1 558 12 view .LVU370
.LBE96:
.LBE95:
	.loc 1 370 5 is_stmt 1 view .LVU371
@ src/build-packet.c:370:     rc = iobuf_write_temp( out, a );
	.loc 1 370 10 is_stmt 0 view .LVU372
	mov	r1, r8	@, a
	mov	r0, r5	@, out
	bl	iobuf_write_temp(PLT)	@
.LVL128:
	mov	r6, r0	@ tmp349,
@ src/build-packet.c:371:     iobuf_close(a);
	.loc 1 371 5 view .LVU373
	mov	r0, r8	@, a
.LVL129:
	.loc 1 371 5 is_stmt 1 view .LVU374
	bl	iobuf_close(PLT)	@
.LVL130:
	.loc 1 372 5 view .LVU375
	.loc 1 372 5 is_stmt 0 view .LVU376
.LBE97:
.LBE100:
	.loc 1 165 7 is_stmt 1 view .LVU377
@ src/build-packet.c:201: }
	.loc 1 201 1 is_stmt 0 view .LVU378
	mov	r0, r6	@, <retval>
	pop	{r4, r5, r6, r7, r8, pc}	@
.LVL131:
.L89:
.LBB101:
.LBB98:
@ src/build-packet.c:342:   switch (enc->s2k.mode)
	.loc 1 342 3 view .LVU379
	cmp	r1, #3	@ _57,
	beq	.L90		@,
	b	.L91		@
.LVL132:
.L87:
	.loc 1 342 3 view .LVU380
.LBE98:
.LBE101:
	.loc 1 170 7 is_stmt 1 view .LVU381
@ src/build-packet.c:170:       rc = do_plaintext (out, ctb, pkt->pkt.plaintext);
	.loc 1 170 12 is_stmt 0 view .LVU382
	ldr	r4, [r6, #4]	@ _16, pkt_23(D)->pkt.plaintext
.LVL133:
.LBB102:
.LBI102:
	.loc 1 407 1 is_stmt 1 view .LVU383
.LBB103:
	.loc 1 409 3 view .LVU384
	ldr	r0, .L128+60	@,
	ldr	r1, [r4, #4]	@, _16->buf
.LPIC38:
	add	r0, pc, r0	@,
	bl	tfp_printf(PLT)	@
.LVL134:
	.loc 1 410 5 view .LVU385
	.loc 1 411 5 view .LVU386
	.loc 1 415 1 view .LVU387
	ldr	r0, .L128+64	@,
.LPIC39:
	add	r0, pc, r0	@,
	bl	tfp_printf(PLT)	@
.LVL135:
	.loc 1 418 5 view .LVU388
	ldr	r0, .L128+68	@,
.LPIC40:
	add	r0, pc, r0	@,
	bl	tfp_printf(PLT)	@
.LVL136:
	.loc 1 421 5 view .LVU389
.LBB104:
.LBI104:
	.loc 1 379 1 view .LVU390
.LBB105:
	.loc 1 385 3 view .LVU391
@ src/build-packet.c:385:   if(pt->namelen>255)
	.loc 1 385 5 is_stmt 0 view .LVU392
	ldr	r3, [r4, #20]	@ _16->namelen, _16->namelen
@ src/build-packet.c:387:   u32 res = pt->len? (1 + 1 + pt->namelen + 4 + pt->len) : 0;
	.loc 1 387 15 view .LVU393
	ldr	r6, [r4]	@ _116, _16->len
.LVL137:
@ src/build-packet.c:388:   printf("calc_plaintext write_32 %08x",res);
	.loc 1 388 3 view .LVU394
	ldr	r0, .L128+72	@,
@ src/build-packet.c:385:   if(pt->namelen>255)
	.loc 1 385 5 view .LVU395
	cmp	r3, #255	@ _16->namelen,
	.loc 1 386 5 is_stmt 1 view .LVU396
@ src/build-packet.c:386:     pt->namelen=255;
	.loc 1 386 16 is_stmt 0 view .LVU397
	movgt	r3, #255	@ tmp282,
	strgt	r3, [r4, #20]	@ tmp282, _16->namelen
	.loc 1 387 3 is_stmt 1 view .LVU398
@ src/build-packet.c:387:   u32 res = pt->len? (1 + 1 + pt->namelen + 4 + pt->len) : 0;
	.loc 1 387 58 is_stmt 0 view .LVU399
	cmp	r6, #0	@ _116,
@ src/build-packet.c:388:   printf("calc_plaintext write_32 %08x",res);
	.loc 1 388 3 view .LVU400
.LPIC41:
	add	r0, pc, r0	@,
@ src/build-packet.c:387:   u32 res = pt->len? (1 + 1 + pt->namelen + 4 + pt->len) : 0;
	.loc 1 387 58 view .LVU401
	addne	r6, r6, #6	@ tmp283, _116,
	ldrne	r3, [r4, #20]	@ _16->namelen, _16->namelen
	addne	r6, r6, r3	@ _116, tmp283, _16->namelen
.LVL138:
	.loc 1 388 3 is_stmt 1 view .LVU402
	mov	r1, r6	@, _116
	bl	tfp_printf(PLT)	@
.LVL139:
	.loc 1 389 3 view .LVU403
	.loc 1 389 3 is_stmt 0 view .LVU404
.LBE105:
.LBE104:
.LBB106:
.LBI106:
	.loc 1 556 1 is_stmt 1 view .LVU405
.LBB107:
	.loc 1 558 5 view .LVU406
@ src/build-packet.c:558:     return write_header2( out, ctb, len, 0 );
	.loc 1 558 12 is_stmt 0 view .LVU407
	mov	r2, r6	@, _116
	mov	r1, r7	@, ctb
	mov	r0, r5	@, out
.LBE107:
.LBE106:
@ src/build-packet.c:433:     printf("Writing name: %.*s\n", (int)pt->namelen, pt->name);
	.loc 1 433 56 view .LVU408
	add	r6, r4, #24	@ _90, _16,
.LVL140:
.LBB109:
.LBB108:
@ src/build-packet.c:558:     return write_header2( out, ctb, len, 0 );
	.loc 1 558 12 view .LVU409
	bl	write_header2.constprop.0.isra.0(PLT)	@
.LVL141:
	.loc 1 558 12 view .LVU410
.LBE108:
.LBE109:
	.loc 1 422 5 is_stmt 1 view .LVU411
	ldr	r0, .L128+76	@,
	mov	r1, r7	@, ctb
.LPIC42:
	add	r0, pc, r0	@,
	bl	tfp_printf(PLT)	@
.LVL142:
	.loc 1 423 5 view .LVU412
	ldr	r0, .L128+80	@,
	ldr	r1, [r4, #12]	@, _16->mode
.LPIC43:
	add	r0, pc, r0	@,
	bl	tfp_printf(PLT)	@
.LVL143:
	.loc 1 427 5 view .LVU413
	ldr	r0, .L128+84	@,
	ldr	r1, [r4, #12]	@, _16->mode
.LPIC44:
	add	r0, pc, r0	@,
	bl	tfp_printf(PLT)	@
.LVL144:
	.loc 1 428 5 view .LVU414
	ldr	r1, [r4, #12]	@, _16->mode
	mov	r0, r5	@, out
	bl	iobuf_writebyte(PLT)	@
.LVL145:
	.loc 1 430 5 view .LVU415
	ldr	r0, .L128+88	@,
	ldr	r1, [r4, #20]	@, _16->namelen
.LPIC45:
	add	r0, pc, r0	@,
	bl	tfp_printf(PLT)	@
.LVL146:
	.loc 1 431 5 view .LVU416
	ldr	r1, [r4, #20]	@, _16->namelen
	mov	r0, r5	@, out
	bl	iobuf_writebyte(PLT)	@
.LVL147:
	.loc 1 433 5 view .LVU417
	ldr	r0, .L128+92	@,
	mov	r2, r6	@, _90
	ldr	r1, [r4, #20]	@, _16->namelen
.LPIC46:
	add	r0, pc, r0	@,
	bl	tfp_printf(PLT)	@
.LVL148:
	.loc 1 434 5 view .LVU418
	ldr	r2, [r4, #20]	@, _16->namelen
	mov	r1, r6	@, _90
	mov	r0, r5	@, out
	bl	iobuf_write(PLT)	@
.LVL149:
	.loc 1 435 5 view .LVU419
@ src/build-packet.c:436:     printf("Writing timestamp: %u\n", pt->timestamp);
	.loc 1 436 5 is_stmt 0 view .LVU420
	ldr	r0, .L128+96	@,
@ src/build-packet.c:435:     pt->timestamp = 1624780800;
	.loc 1 435 19 view .LVU421
	mov	r1, #12288	@ tmp304,
	movt	r1, 24792	@ tmp304,
@ src/build-packet.c:436:     printf("Writing timestamp: %u\n", pt->timestamp);
	.loc 1 436 5 view .LVU422
.LPIC47:
	add	r0, pc, r0	@,
@ src/build-packet.c:435:     pt->timestamp = 1624780800;
	.loc 1 435 19 view .LVU423
	str	r1, [r4, #16]	@ tmp304, _16->timestamp
	.loc 1 436 5 is_stmt 1 view .LVU424
	bl	tfp_printf(PLT)	@
.LVL150:
	.loc 1 437 5 view .LVU425
@ src/build-packet.c:437:     rc = write_32(out, pt->timestamp);
	.loc 1 437 10 is_stmt 0 view .LVU426
	ldr	r6, [r4, #16]	@ _93, _16->timestamp
.LVL151:
.LBB110:
.LBI110:
	.loc 1 512 1 is_stmt 1 view .LVU427
.LBB111:
	.loc 1 515 3 view .LVU428
	ldr	r0, .L128+100	@,
	mov	r1, r6	@, _93
.LPIC48:
	add	r0, pc, r0	@,
	bl	tfp_printf(PLT)	@
.LVL152:
	.loc 1 516 5 view .LVU429
	lsr	r1, r6, #24	@, _93,
	mov	r0, r5	@, out
	bl	iobuf_writebyte(PLT)	@
.LVL153:
	.loc 1 517 5 view .LVU430
	lsr	r1, r6, #16	@, _93,
	mov	r0, r5	@, out
	bl	iobuf_writebyte(PLT)	@
.LVL154:
	.loc 1 518 5 view .LVU431
	lsr	r1, r6, #8	@, _93,
	mov	r0, r5	@, out
	bl	iobuf_writebyte(PLT)	@
.LVL155:
	.loc 1 519 5 view .LVU432
@ src/build-packet.c:519:     return iobuf_put(out, a);
	.loc 1 519 12 is_stmt 0 view .LVU433
	mov	r1, r6	@, _93
	mov	r0, r5	@, out
	bl	iobuf_writebyte(PLT)	@
.LVL156:
	mov	r6, r0	@ tmp350,
.LVL157:
	.loc 1 519 12 view .LVU434
.LBE111:
.LBE110:
@ src/build-packet.c:438:     printf("rc: %d\n", rc);
	.loc 1 438 5 view .LVU435
	ldr	r0, .L128+104	@,
	mov	r1, r6	@, <retval>
.LPIC49:
	add	r0, pc, r0	@,
.LVL158:
	.loc 1 438 5 is_stmt 1 view .LVU436
	bl	tfp_printf(PLT)	@
.LVL159:
	.loc 1 439 5 view .LVU437
	ldr	r3, [r4, #4]	@ _16->buf, _16->buf
	ldr	r0, .L128+108	@,
	ldr	r1, [r3, #8]	@, _95->nbytes
.LPIC50:
	add	r0, pc, r0	@,
	bl	tfp_printf(PLT)	@
.LVL160:
	.loc 1 441 5 view .LVU438
@ src/build-packet.c:441:     if (rc)
	.loc 1 441 8 is_stmt 0 view .LVU439
	cmp	r6, #0	@ <retval>,
	bne	.L81		@,
	.loc 1 444 5 is_stmt 1 view .LVU440
@ src/build-packet.c:444:     if (pt->buf)
	.loc 1 444 11 is_stmt 0 view .LVU441
	ldr	r1, [r4, #4]	@ _97, _16->buf
@ src/build-packet.c:444:     if (pt->buf)
	.loc 1 444 8 view .LVU442
	cmp	r1, #0	@ _97,
	beq	.L100		@,
	.loc 1 446 9 is_stmt 1 view .LVU443
@ src/build-packet.c:446:         nbytes = iobuf_copy (out, pt->buf);
	.loc 1 446 18 is_stmt 0 view .LVU444
	mov	r0, r5	@, out
	bl	iobuf_copy(PLT)	@
.LVL161:
	mov	r8, r0	@ tmp351,
@ src/build-packet.c:447:         printf("!!!!! Wrote buf %d bytes", nbytes);
	.loc 1 447 9 view .LVU445
	ldr	r0, .L128+112	@,
	mov	r1, r8	@, nbytes
.LPIC51:
	add	r0, pc, r0	@,
.LVL162:
	.loc 1 447 9 is_stmt 1 view .LVU446
	bl	tfp_printf(PLT)	@
.LVL163:
	.loc 1 450 9 view .LVU447
@ src/build-packet.c:451:             && (iobuf_error (out) || iobuf_error (pt->buf)))
	.loc 1 451 17 is_stmt 0 view .LVU448
	ldr	r6, [r5, #40]	@ <retval>, out_25(D)->error
.LVL164:
@ src/build-packet.c:450:         if (nbytes == (size_t)(-1)
	.loc 1 450 12 view .LVU449
	cmn	r8, #1	@ nbytes,
	bne	.L102		@,
@ src/build-packet.c:451:             && (iobuf_error (out) || iobuf_error (pt->buf)))
	.loc 1 451 13 view .LVU450
	cmp	r6, #0	@ <retval>,
	bne	.L81		@,
@ src/build-packet.c:451:             && (iobuf_error (out) || iobuf_error (pt->buf)))
	.loc 1 451 38 view .LVU451
	ldr	r3, [r4, #4]	@ _16->buf, _16->buf
	ldr	r6, [r3, #40]	@ <retval>, _100->error
@ src/build-packet.c:451:             && (iobuf_error (out) || iobuf_error (pt->buf)))
	.loc 1 451 35 view .LVU452
	cmp	r6, #0	@ <retval>,
	bne	.L81		@,
.L102:
	.loc 1 455 9 is_stmt 1 view .LVU453
.LVL165:
	.loc 1 456 9 view .LVU454
.LBB112:
.LBI112:
	.loc 1 44 1 view .LVU455
.LBB113:
	.loc 1 49 3 view .LVU456
@ src/build-packet.c:50:   printf("ctb new format: %d\n", res);
	.loc 1 50 3 is_stmt 0 view .LVU457
	ldr	r0, .L128+116	@,
@ src/build-packet.c:49:   int res = (ctb & (1 << 6));
	.loc 1 49 7 view .LVU458
	and	r7, r7, #64	@ res, ctb,
.LVL166:
	.loc 1 50 3 is_stmt 1 view .LVU459
	mov	r1, r7	@, res
.LPIC52:
	add	r0, pc, r0	@,
	bl	tfp_printf(PLT)	@
.LVL167:
	.loc 1 51 3 view .LVU460
	.loc 1 51 3 is_stmt 0 view .LVU461
.LBE113:
.LBE112:
@ src/build-packet.c:456:         if(ctb_new_format_p (ctb) && !pt->len){
	.loc 1 456 41 view .LVU462
	ldr	r1, [r4]	@ _106, _16->len
@ src/build-packet.c:456:         if(ctb_new_format_p (ctb) && !pt->len){
	.loc 1 456 11 view .LVU463
	cmp	r7, #0	@ res,
	beq	.L104		@,
@ src/build-packet.c:456:         if(ctb_new_format_p (ctb) && !pt->len){
	.loc 1 456 35 view .LVU464
	cmp	r1, #0	@ _106,
	bne	.L104		@,
	.loc 1 458 11 is_stmt 1 view .LVU465
	mov	r0, r5	@, out
	bl	iobuf_set_partial_body_length_mode(PLT)	@
.LVL168:
	.loc 1 459 11 view .LVU466
	ldr	r0, .L128+120	@,
.LPIC53:
	add	r0, pc, r0	@,
	bl	tfp_printf(PLT)	@
.LVL169:
@ src/build-packet.c:461:         if (pt->len && nbytes != pt->len)
	.loc 1 461 15 is_stmt 0 view .LVU467
	ldr	r1, [r4]	@ _106, _16->len
.L104:
	.loc 1 461 9 is_stmt 1 view .LVU468
	.loc 1 466 13 view .LVU469
@ src/build-packet.c:466:             if (!rc) /* Just in case no error was set  */
	.loc 1 466 16 is_stmt 0 view .LVU470
	cmp	r1, #0	@ _106,
	cmpne	r8, r1	@, nbytes, _106
	movne	r1, #1	@ tmp330,
	moveq	r1, #0	@ tmp330,
	cmp	r6, #0	@ <retval>,
	movne	r1, #0	@, tmp336
	andeq	r1, r1, #1	@,, tmp336, tmp330
@ src/build-packet.c:467:               rc = -1;//gpg_error (GPG_ERR_EIO);
	.loc 1 467 18 view .LVU471
	cmp	r1, #0	@ tmp336,
	mvnne	r6, #0	@ <retval>,
.LVL170:
.L100:
	.loc 1 470 5 is_stmt 1 view .LVU472
	ldr	r0, .L128+124	@,
	mov	r1, r6	@, <retval>
.LPIC54:
	add	r0, pc, r0	@,
	bl	tfp_printf(PLT)	@
.LVL171:
	.loc 1 471 5 view .LVU473
.LBE103:
.LBE102:
@ src/build-packet.c:201: }
	.loc 1 201 1 is_stmt 0 view .LVU474
	mov	r0, r6	@, <retval>
	pop	{r4, r5, r6, r7, r8, pc}	@
.LVL172:
.L127:
.LBB114:
.LBB99:
	.loc 1 367 2 is_stmt 1 view .LVU475
	add	r1, r4, #25	@, _15,
	mov	r0, r8	@, a
	bl	iobuf_write(PLT)	@
.LVL173:
	b	.L96		@
.L126:
	.loc 1 360 2 view .LVU476
	mov	r1, r6	@, _52
	mov	r2, #8	@,
	mov	r0, r8	@, a
	bl	iobuf_write(PLT)	@
.LVL174:
	.loc 1 361 2 view .LVU477
@ src/build-packet.c:361: 	if( enc->s2k.mode == 3 )
	.loc 1 361 4 is_stmt 0 view .LVU478
	ldr	r3, [r4, #4]	@ _15->s2k.mode, _15->s2k.mode
	cmp	r3, #3	@ _15->s2k.mode,
	bne	.L94		@,
	.loc 1 363 6 is_stmt 1 view .LVU479
	ldr	r1, [r4, #20]	@, _15->s2k.count
	mov	r0, r8	@, a
	bl	iobuf_writebyte(PLT)	@
.LVL175:
	b	.L94		@
.L125:
	.loc 1 355 7 view .LVU480
	ldrb	r1, [r4, #2]	@ zero_extendqisi2	@, _15->aead_algo
	mov	r0, r8	@, a
	bl	iobuf_writebyte(PLT)	@
.LVL176:
	b	.L92		@
.L129:
	.align	2
.L128:
	.word	.LC20-(.LPIC24+8)
	.word	.LC21-(.LPIC25+8)
	.word	.LC49-(.LPIC55+8)
	.word	.LC22-(.LPIC26+8)
	.word	.LC23-(.LPIC27+8)
	.word	.LC24-(.LPIC28+8)
	.word	.LC25-(.LPIC29+8)
	.word	.LC26-(.LPIC30+8)
	.word	.LC27-(.LPIC31+8)
	.word	.LC28-(.LPIC32+8)
	.word	.LC29-(.LPIC33+8)
	.word	.LC30-(.LPIC34+8)
	.word	.LC31-(.LPIC35+8)
	.word	.LC32-(.LPIC36+8)
	.word	.LC33-(.LPIC37+8)
	.word	.LC34-(.LPIC38+8)
	.word	.LC35-(.LPIC39+8)
	.word	.LC36-(.LPIC40+8)
	.word	.LC4-(.LPIC41+8)
	.word	.LC37-(.LPIC42+8)
	.word	.LC38-(.LPIC43+8)
	.word	.LC39-(.LPIC44+8)
	.word	.LC40-(.LPIC45+8)
	.word	.LC41-(.LPIC46+8)
	.word	.LC42-(.LPIC47+8)
	.word	.LC43-(.LPIC48+8)
	.word	.LC44-(.LPIC49+8)
	.word	.LC45-(.LPIC50+8)
	.word	.LC46-(.LPIC51+8)
	.word	.LC13-(.LPIC52+8)
	.word	.LC47-(.LPIC53+8)
	.word	.LC48-(.LPIC54+8)
.LBE99:
.LBE114:
	.cfi_endproc
.LFE22:
	.size	build_packet, .-build_packet
	.section	.rodata.print_iobuf_info2.str1.4,"aMS",%progbits,1
	.align	2
.LC50:
	.ascii	"print_iobuf_info2\012\000"
	.align	2
.LC51:
	.ascii	"iobuf is NULL\012\000"
	.align	2
.LC52:
	.ascii	"  Use: %d\012\000"
	.align	2
.LC53:
	.ascii	"  nlimit: %ld\012\000"
	.align	2
.LC54:
	.ascii	"  nbytes: %ld\012\000"
	.align	2
.LC55:
	.ascii	"  ntotal: %ld\012\000"
	.align	2
.LC56:
	.ascii	"  nofast: %d\012\000"
	.align	2
.LC57:
	.ascii	"  Buffer size: %zu\012\000"
	.align	2
.LC58:
	.ascii	"  Buffer start: %zu\012\000"
	.align	2
.LC59:
	.ascii	"  Buffer length: %zu\012\000"
	.align	2
.LC60:
	.ascii	"  Filter EOF: %d\012\000"
	.align	2
.LC61:
	.ascii	"  Error: %d\012\000"
	.align	2
.LC62:
	.ascii	"  Filter owner: %d\012\000"
	.align	2
.LC63:
	.ascii	"  Filter number: %d\012\000"
	.align	2
.LC64:
	.ascii	"  Sub filters count: %d\012\000"
	.align	2
.LC65:
	.ascii	"  Chain:\012\000"
	.section	.text.print_iobuf_info2,"ax",%progbits
	.align	2
	.global	print_iobuf_info2
	.syntax unified
	.arm
	.fpu softvfp
	.type	print_iobuf_info2, %function
print_iobuf_info2:
.LVL177:
.LFB25:
	.loc 1 275 58 view -0
	.cfi_startproc
	@ args = 0, pretend = 0, frame = 0
	@ frame_needed = 0, uses_anonymous_args = 0
	.loc 1 275 58 is_stmt 0 view .LVU482
	push	{r4, r5, r6, r7, r8, lr}	@
	.cfi_def_cfa_offset 24
	.cfi_offset 4, -24
	.cfi_offset 5, -20
	.cfi_offset 6, -16
	.cfi_offset 7, -12
	.cfi_offset 8, -8
	.cfi_offset 14, -4
@ src/build-packet.c:275: void print_iobuf_info2(const struct iobuf_struct *iobuf) {
	.loc 1 275 58 view .LVU483
	mov	r4, r0	@ iobuf, tmp177
@ src/build-packet.c:276:     printf("print_iobuf_info2\n");
	.loc 1 276 5 view .LVU484
	ldr	r6, .L135	@ tmp130,
@ src/build-packet.c:282:     printf("  Use: %d\n", iobuf->use);
	.loc 1 282 5 view .LVU485
	ldr	r5, .L135+4	@ tmp175,
@ src/build-packet.c:283:     printf("  nlimit: %ld\n", (long)iobuf->nlimit);
	.loc 1 283 5 view .LVU486
	ldr	r7, .L135+8	@ tmp176,
@ src/build-packet.c:276:     printf("print_iobuf_info2\n");
	.loc 1 276 5 view .LVU487
.LPIC56:
	add	r6, pc, r6	@ tmp130, tmp130
@ src/build-packet.c:282:     printf("  Use: %d\n", iobuf->use);
	.loc 1 282 5 view .LVU488
.LPIC58:
	add	r5, pc, r5	@ tmp175, tmp175
@ src/build-packet.c:283:     printf("  nlimit: %ld\n", (long)iobuf->nlimit);
	.loc 1 283 5 view .LVU489
.LPIC59:
	add	r7, pc, r7	@ tmp176, tmp176
	b	.L133		@
.LVL178:
.L131:
@ src/build-packet.c:282:     printf("  Use: %d\n", iobuf->use);
	.loc 1 282 5 view .LVU490
	ldrb	r1, [r4]	@ zero_extendqisi2	@, iobuf_20->use
	bl	tfp_printf(PLT)	@
.LVL179:
	.loc 1 283 5 is_stmt 1 view .LVU491
	ldr	r1, [r4, #4]	@, iobuf_20->nlimit
	mov	r0, r7	@, tmp176
	bl	tfp_printf(PLT)	@
.LVL180:
	.loc 1 284 5 view .LVU492
	ldr	r0, .L135+12	@,
	ldr	r1, [r4, #8]	@, iobuf_20->nbytes
.LPIC60:
	add	r0, pc, r0	@,
	bl	tfp_printf(PLT)	@
.LVL181:
	.loc 1 285 5 view .LVU493
	ldr	r0, .L135+16	@,
	ldr	r1, [r4, #12]	@, iobuf_20->ntotal
.LPIC61:
	add	r0, pc, r0	@,
	bl	tfp_printf(PLT)	@
.LVL182:
	.loc 1 286 5 view .LVU494
	ldr	r0, .L135+20	@,
	ldr	r1, [r4, #16]	@, iobuf_20->nofast
.LPIC62:
	add	r0, pc, r0	@,
	bl	tfp_printf(PLT)	@
.LVL183:
	.loc 1 287 5 view .LVU495
	ldr	r0, .L135+24	@,
	ldr	r1, [r4, #20]	@, iobuf_20->d.size
.LPIC63:
	add	r0, pc, r0	@,
	bl	tfp_printf(PLT)	@
.LVL184:
	.loc 1 288 5 view .LVU496
	ldr	r0, .L135+28	@,
	ldr	r1, [r4, #24]	@, iobuf_20->d.start
.LPIC64:
	add	r0, pc, r0	@,
	bl	tfp_printf(PLT)	@
.LVL185:
	.loc 1 289 5 view .LVU497
	ldr	r0, .L135+32	@,
	ldr	r1, [r4, #28]	@, iobuf_20->d.len
.LPIC65:
	add	r0, pc, r0	@,
	bl	tfp_printf(PLT)	@
.LVL186:
	.loc 1 290 5 view .LVU498
	ldr	r0, .L135+36	@,
	ldr	r1, [r4, #36]	@, iobuf_20->filter_eof
.LPIC66:
	add	r0, pc, r0	@,
	bl	tfp_printf(PLT)	@
.LVL187:
	.loc 1 291 5 view .LVU499
	ldr	r0, .L135+40	@,
	ldr	r1, [r4, #40]	@, iobuf_20->error
.LPIC67:
	add	r0, pc, r0	@,
	bl	tfp_printf(PLT)	@
.LVL188:
	.loc 1 292 5 view .LVU500
	ldr	r0, .L135+44	@,
	ldr	r1, [r4, #52]	@, iobuf_20->filter_ov_owner
.LPIC68:
	add	r0, pc, r0	@,
	bl	tfp_printf(PLT)	@
.LVL189:
	.loc 1 298 5 view .LVU501
	ldr	r0, .L135+48	@,
	ldr	r1, [r4, #64]	@, iobuf_20->no
.LPIC69:
	add	r0, pc, r0	@,
	bl	tfp_printf(PLT)	@
.LVL190:
	.loc 1 299 5 view .LVU502
	ldr	r0, .L135+52	@,
	ldr	r1, [r4, #68]	@, iobuf_20->subno
.LPIC70:
	add	r0, pc, r0	@,
	bl	tfp_printf(PLT)	@
.LVL191:
	.loc 1 302 5 view .LVU503
	.loc 1 303 9 view .LVU504
@ src/build-packet.c:302:     if (iobuf->chain) {
	.loc 1 302 8 is_stmt 0 view .LVU505
	ldr	r3, [r4, #60]	@ iobuf_20->chain, iobuf_20->chain
@ src/build-packet.c:303:         printf("  Chain:\n");
	.loc 1 303 9 view .LVU506
	ldr	r0, .L135+56	@,
@ src/build-packet.c:302:     if (iobuf->chain) {
	.loc 1 302 8 view .LVU507
	cmp	r3, #0	@ iobuf_20->chain,
@ src/build-packet.c:303:         printf("  Chain:\n");
	.loc 1 303 9 view .LVU508
.LPIC71:
	add	r0, pc, r0	@,
@ src/build-packet.c:302:     if (iobuf->chain) {
	.loc 1 302 8 view .LVU509
	popeq	{r4, r5, r6, r7, r8, pc}	@
@ src/build-packet.c:303:         printf("  Chain:\n");
	.loc 1 303 9 view .LVU510
	bl	tfp_printf(PLT)	@
.LVL192:
	.loc 1 304 9 is_stmt 1 view .LVU511
@ src/build-packet.c:304:         print_iobuf_info2(iobuf->chain);
	.loc 1 304 32 is_stmt 0 view .LVU512
	ldr	r4, [r4, #60]	@ iobuf, iobuf_20->chain
.L133:
	.loc 1 276 5 is_stmt 1 view .LVU513
	mov	r0, r6	@, tmp130
	bl	tfp_printf(PLT)	@
.LVL193:
	.loc 1 277 5 view .LVU514
	.loc 1 281 1 view .LVU515
	.loc 1 282 5 view .LVU516
@ src/build-packet.c:277:     if (!iobuf) {
	.loc 1 277 8 is_stmt 0 view .LVU517
	cmp	r4, #0	@ iobuf,
@ src/build-packet.c:282:     printf("  Use: %d\n", iobuf->use);
	.loc 1 282 5 view .LVU518
	mov	r0, r5	@, tmp175
@ src/build-packet.c:277:     if (!iobuf) {
	.loc 1 277 8 view .LVU519
	bne	.L131		@,
	.loc 1 278 9 is_stmt 1 view .LVU520
	ldr	r0, .L135+60	@,
@ src/build-packet.c:306: }
	.loc 1 306 1 is_stmt 0 view .LVU521
	pop	{r4, r5, r6, r7, r8, lr}	@
	.cfi_restore 14
	.cfi_restore 8
	.cfi_restore 7
	.cfi_restore 6
	.cfi_restore 5
	.cfi_restore 4
	.cfi_def_cfa_offset 0
@ src/build-packet.c:278:         printf("iobuf is NULL\n");
	.loc 1 278 9 view .LVU522
.LPIC57:
	add	r0, pc, r0	@,
	b	tfp_printf(PLT)	@
.LVL194:
.L136:
	.align	2
.L135:
	.word	.LC50-(.LPIC56+8)
	.word	.LC52-(.LPIC58+8)
	.word	.LC53-(.LPIC59+8)
	.word	.LC54-(.LPIC60+8)
	.word	.LC55-(.LPIC61+8)
	.word	.LC56-(.LPIC62+8)
	.word	.LC57-(.LPIC63+8)
	.word	.LC58-(.LPIC64+8)
	.word	.LC59-(.LPIC65+8)
	.word	.LC60-(.LPIC66+8)
	.word	.LC61-(.LPIC67+8)
	.word	.LC62-(.LPIC68+8)
	.word	.LC63-(.LPIC69+8)
	.word	.LC64-(.LPIC70+8)
	.word	.LC65-(.LPIC71+8)
	.word	.LC51-(.LPIC57+8)
	.cfi_endproc
.LFE25:
	.size	print_iobuf_info2, .-print_iobuf_info2
	.text
.Letext0:
	.file 2 "/usr/include/newlib/machine/_default_types.h"
	.file 3 "/usr/lib/gcc/arm-none-eabi/10.3.1/include/stddef.h"
	.file 4 "/usr/include/newlib/sys/_types.h"
	.file 5 "/usr/include/newlib/sys/_stdint.h"
	.file 6 "/usr/include/newlib/sys/types.h"
	.file 7 "src/common/types.h"
	.file 8 "src/common/iobuf.h"
	.file 9 "src/common/openpgpdefs.h"
	.file 10 "src/gcrypt.h"
	.file 11 "src/packet.h"
	.file 12 "src/printf.h"
	.file 13 "src/filter.h"
	.section	.debug_info,"",%progbits
.Ldebug_info0:
	.4byte	0x2087
	.2byte	0x4
	.4byte	.Ldebug_abbrev0
	.byte	0x4
	.uleb128 0x1
	.4byte	.LASF230
	.byte	0xc
	.4byte	.LASF231
	.4byte	.LASF232
	.4byte	.Ldebug_ranges0+0x160
	.4byte	0
	.4byte	.Ldebug_line0
	.uleb128 0x2
	.byte	0x1
	.byte	0x6
	.4byte	.LASF0
	.uleb128 0x3
	.4byte	.LASF9
	.byte	0x2
	.byte	0x2b
	.byte	0x18
	.4byte	0x38
	.uleb128 0x2
	.byte	0x1
	.byte	0x8
	.4byte	.LASF1
	.uleb128 0x2
	.byte	0x2
	.byte	0x5
	.4byte	.LASF2
	.uleb128 0x2
	.byte	0x2
	.byte	0x7
	.4byte	.LASF3
	.uleb128 0x2
	.byte	0x4
	.byte	0x5
	.4byte	.LASF4
	.uleb128 0x2
	.byte	0x4
	.byte	0x7
	.4byte	.LASF5
	.uleb128 0x2
	.byte	0x8
	.byte	0x5
	.4byte	.LASF6
	.uleb128 0x2
	.byte	0x8
	.byte	0x7
	.4byte	.LASF7
	.uleb128 0x4
	.byte	0x4
	.byte	0x5
	.ascii	"int\000"
	.uleb128 0x2
	.byte	0x4
	.byte	0x7
	.4byte	.LASF8
	.uleb128 0x3
	.4byte	.LASF10
	.byte	0x3
	.byte	0xd1
	.byte	0x17
	.4byte	0x70
	.uleb128 0x2
	.byte	0x8
	.byte	0x4
	.4byte	.LASF11
	.uleb128 0x5
	.byte	0x4
	.uleb128 0x3
	.4byte	.LASF12
	.byte	0x4
	.byte	0x2e
	.byte	0xe
	.4byte	0x4d
	.uleb128 0x3
	.4byte	.LASF13
	.byte	0x4
	.byte	0x66
	.byte	0x10
	.4byte	0x8c
	.uleb128 0x6
	.byte	0x4
	.4byte	0xaa
	.uleb128 0x2
	.byte	0x1
	.byte	0x8
	.4byte	.LASF14
	.uleb128 0x7
	.4byte	0xaa
	.uleb128 0x6
	.byte	0x4
	.4byte	0xb1
	.uleb128 0x3
	.4byte	.LASF15
	.byte	0x5
	.byte	0x18
	.byte	0x13
	.4byte	0x2c
	.uleb128 0x7
	.4byte	0xbc
	.uleb128 0x3
	.4byte	.LASF16
	.byte	0x6
	.byte	0x9d
	.byte	0x12
	.4byte	0x98
	.uleb128 0x3
	.4byte	.LASF17
	.byte	0x7
	.byte	0x4a
	.byte	0x1c
	.4byte	0x38
	.uleb128 0x7
	.4byte	0xd9
	.uleb128 0x8
	.ascii	"u16\000"
	.byte	0x7
	.byte	0x60
	.byte	0x1d
	.4byte	0x46
	.uleb128 0x8
	.ascii	"u32\000"
	.byte	0x7
	.byte	0x6a
	.byte	0x1b
	.4byte	0x70
	.uleb128 0x9
	.4byte	0xaa
	.4byte	0x112
	.uleb128 0xa
	.4byte	0x70
	.byte	0
	.byte	0
	.uleb128 0xb
	.4byte	.LASF233
	.byte	0x7
	.byte	0x1
	.4byte	0x38
	.byte	0x8
	.byte	0x8c
	.byte	0x6
	.4byte	0x13d
	.uleb128 0xc
	.4byte	.LASF18
	.byte	0
	.uleb128 0xc
	.4byte	.LASF19
	.byte	0x1
	.uleb128 0xc
	.4byte	.LASF20
	.byte	0x2
	.uleb128 0xc
	.4byte	.LASF21
	.byte	0x3
	.byte	0
	.uleb128 0x3
	.4byte	.LASF22
	.byte	0x8
	.byte	0xa0
	.byte	0x1e
	.4byte	0x149
	.uleb128 0x6
	.byte	0x4
	.4byte	0x14f
	.uleb128 0xd
	.4byte	.LASF63
	.byte	0x48
	.byte	0x8
	.byte	0xa4
	.byte	0x8
	.4byte	0x21f
	.uleb128 0xe
	.ascii	"use\000"
	.byte	0x8
	.byte	0xa8
	.byte	0x12
	.4byte	0x112
	.byte	0
	.uleb128 0xf
	.4byte	.LASF23
	.byte	0x8
	.byte	0xad
	.byte	0x9
	.4byte	0xcd
	.byte	0x4
	.uleb128 0xf
	.4byte	.LASF24
	.byte	0x8
	.byte	0xb1
	.byte	0x9
	.4byte	0xcd
	.byte	0x8
	.uleb128 0xf
	.4byte	.LASF25
	.byte	0x8
	.byte	0xb6
	.byte	0x9
	.4byte	0xcd
	.byte	0xc
	.uleb128 0xf
	.4byte	.LASF26
	.byte	0x8
	.byte	0xbb
	.byte	0x7
	.4byte	0x69
	.byte	0x10
	.uleb128 0xe
	.ascii	"d\000"
	.byte	0x8
	.byte	0xdd
	.byte	0x5
	.4byte	0x230
	.byte	0x14
	.uleb128 0xf
	.4byte	.LASF27
	.byte	0x8
	.byte	0xe3
	.byte	0x7
	.4byte	0x69
	.byte	0x24
	.uleb128 0xf
	.4byte	.LASF28
	.byte	0x8
	.byte	0xe9
	.byte	0x7
	.4byte	0x69
	.byte	0x28
	.uleb128 0xf
	.4byte	.LASF29
	.byte	0x8
	.byte	0xed
	.byte	0x9
	.4byte	0x29d
	.byte	0x2c
	.uleb128 0xf
	.4byte	.LASF30
	.byte	0x8
	.byte	0xf1
	.byte	0x9
	.4byte	0x8a
	.byte	0x30
	.uleb128 0xf
	.4byte	.LASF31
	.byte	0x8
	.byte	0xf4
	.byte	0x7
	.4byte	0x69
	.byte	0x34
	.uleb128 0xf
	.4byte	.LASF32
	.byte	0x8
	.byte	0xfa
	.byte	0x9
	.4byte	0xa4
	.byte	0x38
	.uleb128 0xf
	.4byte	.LASF33
	.byte	0x8
	.byte	0xfd
	.byte	0xb
	.4byte	0x13d
	.byte	0x3c
	.uleb128 0x10
	.ascii	"no\000"
	.byte	0x8
	.2byte	0x103
	.byte	0x7
	.4byte	0x69
	.byte	0x40
	.uleb128 0x11
	.4byte	.LASF34
	.byte	0x8
	.2byte	0x10b
	.byte	0x7
	.4byte	0x69
	.byte	0x44
	.byte	0
	.uleb128 0x7
	.4byte	0x14f
	.uleb128 0x3
	.4byte	.LASF35
	.byte	0x8
	.byte	0xa1
	.byte	0x1e
	.4byte	0x149
	.uleb128 0x12
	.byte	0x10
	.byte	0x8
	.byte	0xcf
	.byte	0x3
	.4byte	0x26e
	.uleb128 0xf
	.4byte	.LASF36
	.byte	0x8
	.byte	0xd2
	.byte	0xc
	.4byte	0x77
	.byte	0
	.uleb128 0xf
	.4byte	.LASF37
	.byte	0x8
	.byte	0xd7
	.byte	0xc
	.4byte	0x77
	.byte	0x4
	.uleb128 0xe
	.ascii	"len\000"
	.byte	0x8
	.byte	0xda
	.byte	0xc
	.4byte	0x77
	.byte	0x8
	.uleb128 0xe
	.ascii	"buf\000"
	.byte	0x8
	.byte	0xdc
	.byte	0xb
	.4byte	0x26e
	.byte	0xc
	.byte	0
	.uleb128 0x6
	.byte	0x4
	.4byte	0xd9
	.uleb128 0x13
	.4byte	0x69
	.4byte	0x297
	.uleb128 0x14
	.4byte	0x8a
	.uleb128 0x14
	.4byte	0x69
	.uleb128 0x14
	.4byte	0x13d
	.uleb128 0x14
	.4byte	0x26e
	.uleb128 0x14
	.4byte	0x297
	.byte	0
	.uleb128 0x6
	.byte	0x4
	.4byte	0x77
	.uleb128 0x6
	.byte	0x4
	.4byte	0x274
	.uleb128 0x9
	.4byte	0xd9
	.4byte	0x2b3
	.uleb128 0xa
	.4byte	0x70
	.byte	0xf
	.byte	0
	.uleb128 0x15
	.byte	0x7
	.byte	0x1
	.4byte	0x38
	.byte	0x9
	.byte	0x22
	.byte	0x3
	.4byte	0x346
	.uleb128 0xc
	.4byte	.LASF38
	.byte	0
	.uleb128 0xc
	.4byte	.LASF39
	.byte	0x1
	.uleb128 0xc
	.4byte	.LASF40
	.byte	0x2
	.uleb128 0xc
	.4byte	.LASF41
	.byte	0x3
	.uleb128 0xc
	.4byte	.LASF42
	.byte	0x4
	.uleb128 0xc
	.4byte	.LASF43
	.byte	0x5
	.uleb128 0xc
	.4byte	.LASF44
	.byte	0x6
	.uleb128 0xc
	.4byte	.LASF45
	.byte	0x7
	.uleb128 0xc
	.4byte	.LASF46
	.byte	0x8
	.uleb128 0xc
	.4byte	.LASF47
	.byte	0x9
	.uleb128 0xc
	.4byte	.LASF48
	.byte	0xa
	.uleb128 0xc
	.4byte	.LASF49
	.byte	0xb
	.uleb128 0xc
	.4byte	.LASF50
	.byte	0xc
	.uleb128 0xc
	.4byte	.LASF51
	.byte	0xd
	.uleb128 0xc
	.4byte	.LASF52
	.byte	0xe
	.uleb128 0xc
	.4byte	.LASF53
	.byte	0x10
	.uleb128 0xc
	.4byte	.LASF54
	.byte	0x11
	.uleb128 0xc
	.4byte	.LASF55
	.byte	0x12
	.uleb128 0xc
	.4byte	.LASF56
	.byte	0x13
	.uleb128 0xc
	.4byte	.LASF57
	.byte	0x14
	.uleb128 0xc
	.4byte	.LASF58
	.byte	0x3d
	.uleb128 0xc
	.4byte	.LASF59
	.byte	0x3f
	.byte	0
	.uleb128 0x3
	.4byte	.LASF60
	.byte	0x9
	.byte	0x3a
	.byte	0x1
	.4byte	0x2b3
	.uleb128 0x3
	.4byte	.LASF61
	.byte	0xa
	.byte	0xe4
	.byte	0x1a
	.4byte	0x35e
	.uleb128 0x6
	.byte	0x4
	.4byte	0x364
	.uleb128 0x16
	.4byte	.LASF120
	.uleb128 0x3
	.4byte	.LASF62
	.byte	0xb
	.byte	0x46
	.byte	0x1e
	.4byte	0x375
	.uleb128 0x17
	.4byte	.LASF64
	.byte	0x8
	.byte	0xb
	.2byte	0x22e
	.byte	0x8
	.4byte	0x3a0
	.uleb128 0x11
	.4byte	.LASF65
	.byte	0xb
	.2byte	0x22f
	.byte	0xf
	.4byte	0x346
	.byte	0
	.uleb128 0x10
	.ascii	"pkt\000"
	.byte	0xb
	.2byte	0x23f
	.byte	0x7
	.4byte	0xfb1
	.byte	0x4
	.byte	0
	.uleb128 0x12
	.byte	0x2
	.byte	0xb
	.byte	0x57
	.byte	0x9
	.4byte	0x3c4
	.uleb128 0xf
	.4byte	.LASF66
	.byte	0xb
	.byte	0x58
	.byte	0xa
	.4byte	0xd9
	.byte	0
	.uleb128 0xf
	.4byte	.LASF67
	.byte	0xb
	.byte	0x59
	.byte	0xa
	.4byte	0xd9
	.byte	0x1
	.byte	0
	.uleb128 0x3
	.4byte	.LASF68
	.byte	0xb
	.byte	0x5a
	.byte	0x3
	.4byte	0x3a0
	.uleb128 0x12
	.byte	0x14
	.byte	0xb
	.byte	0x5d
	.byte	0x9
	.4byte	0x40e
	.uleb128 0xf
	.4byte	.LASF69
	.byte	0xb
	.byte	0x5f
	.byte	0x8
	.4byte	0x69
	.byte	0
	.uleb128 0xf
	.4byte	.LASF70
	.byte	0xb
	.byte	0x60
	.byte	0x8
	.4byte	0xd9
	.byte	0x4
	.uleb128 0xf
	.4byte	.LASF71
	.byte	0xb
	.byte	0x61
	.byte	0x8
	.4byte	0x40e
	.byte	0x5
	.uleb128 0xf
	.4byte	.LASF72
	.byte	0xb
	.byte	0x63
	.byte	0x8
	.4byte	0xf6
	.byte	0x10
	.byte	0
	.uleb128 0x9
	.4byte	0xd9
	.4byte	0x41e
	.uleb128 0xa
	.4byte	0x70
	.byte	0x7
	.byte	0
	.uleb128 0x3
	.4byte	.LASF73
	.byte	0xb
	.byte	0x64
	.byte	0x3
	.4byte	0x3d0
	.uleb128 0x12
	.byte	0x1c
	.byte	0xb
	.byte	0x68
	.byte	0x9
	.4byte	0x482
	.uleb128 0xf
	.4byte	.LASF74
	.byte	0xb
	.byte	0x6a
	.byte	0x8
	.4byte	0xd9
	.byte	0
	.uleb128 0xf
	.4byte	.LASF75
	.byte	0xb
	.byte	0x6e
	.byte	0x8
	.4byte	0xd9
	.byte	0x1
	.uleb128 0xf
	.4byte	.LASF76
	.byte	0xb
	.byte	0x70
	.byte	0x8
	.4byte	0xd9
	.byte	0x2
	.uleb128 0xe
	.ascii	"s2k\000"
	.byte	0xb
	.byte	0x72
	.byte	0xe
	.4byte	0x41e
	.byte	0x4
	.uleb128 0xf
	.4byte	.LASF77
	.byte	0xb
	.byte	0x77
	.byte	0x8
	.4byte	0xd9
	.byte	0x18
	.uleb128 0xf
	.4byte	.LASF78
	.byte	0xb
	.byte	0x7a
	.byte	0x8
	.4byte	0x482
	.byte	0x19
	.byte	0
	.uleb128 0x9
	.4byte	0xd9
	.4byte	0x492
	.uleb128 0xa
	.4byte	0x70
	.byte	0
	.byte	0
	.uleb128 0x3
	.4byte	.LASF79
	.byte	0xb
	.byte	0x7b
	.byte	0x3
	.4byte	0x42a
	.uleb128 0x12
	.byte	0x14
	.byte	0xb
	.byte	0x7f
	.byte	0x9
	.4byte	0x4e9
	.uleb128 0xf
	.4byte	.LASF80
	.byte	0xb
	.byte	0x81
	.byte	0xb
	.4byte	0x4e9
	.byte	0
	.uleb128 0xf
	.4byte	.LASF74
	.byte	0xb
	.byte	0x83
	.byte	0xb
	.4byte	0xd9
	.byte	0x8
	.uleb128 0xf
	.4byte	.LASF81
	.byte	0xb
	.byte	0x85
	.byte	0xb
	.4byte	0xd9
	.byte	0x9
	.uleb128 0xf
	.4byte	.LASF82
	.byte	0xb
	.byte	0x88
	.byte	0xb
	.4byte	0xd9
	.byte	0xa
	.uleb128 0xf
	.4byte	.LASF83
	.byte	0xb
	.byte	0x8a
	.byte	0x12
	.4byte	0x4f9
	.byte	0xc
	.byte	0
	.uleb128 0x9
	.4byte	0xf6
	.4byte	0x4f9
	.uleb128 0xa
	.4byte	0x70
	.byte	0x1
	.byte	0
	.uleb128 0x9
	.4byte	0x352
	.4byte	0x509
	.uleb128 0xa
	.4byte	0x70
	.byte	0x1
	.byte	0
	.uleb128 0x3
	.4byte	.LASF84
	.byte	0xb
	.byte	0x8b
	.byte	0x3
	.4byte	0x49e
	.uleb128 0x12
	.byte	0xc
	.byte	0xb
	.byte	0x90
	.byte	0x9
	.4byte	0x560
	.uleb128 0xf
	.4byte	.LASF80
	.byte	0xb
	.byte	0x91
	.byte	0xd
	.4byte	0x4e9
	.byte	0
	.uleb128 0xf
	.4byte	.LASF85
	.byte	0xb
	.byte	0x93
	.byte	0xd
	.4byte	0xd9
	.byte	0x8
	.uleb128 0xf
	.4byte	.LASF86
	.byte	0xb
	.byte	0x94
	.byte	0xd
	.4byte	0xd9
	.byte	0x9
	.uleb128 0xf
	.4byte	.LASF81
	.byte	0xb
	.byte	0x95
	.byte	0xd
	.4byte	0xd9
	.byte	0xa
	.uleb128 0xf
	.4byte	.LASF87
	.byte	0xb
	.byte	0x9e
	.byte	0xd
	.4byte	0xd9
	.byte	0xb
	.byte	0
	.uleb128 0x3
	.4byte	.LASF88
	.byte	0xb
	.byte	0x9f
	.byte	0x3
	.4byte	0x515
	.uleb128 0x12
	.byte	0xc
	.byte	0xb
	.byte	0xa6
	.byte	0x9
	.4byte	0x59d
	.uleb128 0xf
	.4byte	.LASF36
	.byte	0xb
	.byte	0xa7
	.byte	0xc
	.4byte	0x77
	.byte	0
	.uleb128 0xe
	.ascii	"len\000"
	.byte	0xb
	.byte	0xa8
	.byte	0xc
	.4byte	0x77
	.byte	0x4
	.uleb128 0xf
	.4byte	.LASF83
	.byte	0xb
	.byte	0xa9
	.byte	0xa
	.4byte	0x482
	.byte	0x8
	.byte	0
	.uleb128 0x3
	.4byte	.LASF89
	.byte	0xb
	.byte	0xaa
	.byte	0x3
	.4byte	0x56c
	.uleb128 0x12
	.byte	0x24
	.byte	0xb
	.byte	0xbb
	.byte	0x9
	.4byte	0x5f4
	.uleb128 0xf
	.4byte	.LASF90
	.byte	0xb
	.byte	0xbd
	.byte	0x7
	.4byte	0x69
	.byte	0
	.uleb128 0xf
	.4byte	.LASF91
	.byte	0xb
	.byte	0xbe
	.byte	0x7
	.4byte	0x69
	.byte	0x4
	.uleb128 0xe
	.ascii	"uri\000"
	.byte	0xb
	.byte	0xc0
	.byte	0x9
	.4byte	0xa4
	.byte	0x8
	.uleb128 0xe
	.ascii	"fpr\000"
	.byte	0xb
	.byte	0xc2
	.byte	0x11
	.4byte	0x5f4
	.byte	0xc
	.uleb128 0xf
	.4byte	.LASF92
	.byte	0xb
	.byte	0xc3
	.byte	0x8
	.4byte	0x102
	.byte	0x20
	.byte	0
	.uleb128 0x9
	.4byte	0x38
	.4byte	0x604
	.uleb128 0xa
	.4byte	0x70
	.byte	0x13
	.byte	0
	.uleb128 0x3
	.4byte	.LASF93
	.byte	0xb
	.byte	0xc4
	.byte	0x3
	.4byte	0x5a9
	.uleb128 0x12
	.byte	0x4
	.byte	0xb
	.byte	0xce
	.byte	0x3
	.4byte	0x6da
	.uleb128 0x18
	.4byte	.LASF91
	.byte	0xb
	.byte	0xd0
	.byte	0xe
	.4byte	0x70
	.byte	0x4
	.byte	0x1
	.byte	0x1f
	.byte	0
	.uleb128 0x18
	.4byte	.LASF90
	.byte	0xb
	.byte	0xd1
	.byte	0xe
	.4byte	0x70
	.byte	0x4
	.byte	0x1
	.byte	0x1e
	.byte	0
	.uleb128 0x18
	.4byte	.LASF94
	.byte	0xb
	.byte	0xd2
	.byte	0xe
	.4byte	0x70
	.byte	0x4
	.byte	0x1
	.byte	0x1d
	.byte	0
	.uleb128 0x18
	.4byte	.LASF95
	.byte	0xb
	.byte	0xd3
	.byte	0xe
	.4byte	0x70
	.byte	0x4
	.byte	0x1
	.byte	0x1c
	.byte	0
	.uleb128 0x18
	.4byte	.LASF96
	.byte	0xb
	.byte	0xd4
	.byte	0xe
	.4byte	0x70
	.byte	0x4
	.byte	0x1
	.byte	0x1b
	.byte	0
	.uleb128 0x18
	.4byte	.LASF97
	.byte	0xb
	.byte	0xd5
	.byte	0xe
	.4byte	0x70
	.byte	0x4
	.byte	0x1
	.byte	0x1a
	.byte	0
	.uleb128 0x18
	.4byte	.LASF98
	.byte	0xb
	.byte	0xd6
	.byte	0xe
	.4byte	0x70
	.byte	0x4
	.byte	0x1
	.byte	0x19
	.byte	0
	.uleb128 0x18
	.4byte	.LASF99
	.byte	0xb
	.byte	0xd7
	.byte	0xe
	.4byte	0x70
	.byte	0x4
	.byte	0x1
	.byte	0x18
	.byte	0
	.uleb128 0x18
	.4byte	.LASF100
	.byte	0xb
	.byte	0xd8
	.byte	0xe
	.4byte	0x70
	.byte	0x4
	.byte	0x1
	.byte	0x17
	.byte	0
	.uleb128 0x18
	.4byte	.LASF101
	.byte	0xb
	.byte	0xd9
	.byte	0xe
	.4byte	0x70
	.byte	0x4
	.byte	0x1
	.byte	0x16
	.byte	0
	.uleb128 0x18
	.4byte	.LASF102
	.byte	0xb
	.byte	0xda
	.byte	0xe
	.4byte	0x70
	.byte	0x4
	.byte	0x1
	.byte	0x15
	.byte	0
	.uleb128 0x18
	.4byte	.LASF103
	.byte	0xb
	.byte	0xdb
	.byte	0xe
	.4byte	0x70
	.byte	0x4
	.byte	0x1
	.byte	0x14
	.byte	0
	.byte	0
	.uleb128 0x12
	.byte	0x8c
	.byte	0xb
	.byte	0xcc
	.byte	0x9
	.4byte	0x806
	.uleb128 0xf
	.4byte	.LASF104
	.byte	0xb
	.byte	0xdc
	.byte	0x5
	.4byte	0x610
	.byte	0
	.uleb128 0xf
	.4byte	.LASF80
	.byte	0xb
	.byte	0xe0
	.byte	0xb
	.4byte	0x4e9
	.byte	0x4
	.uleb128 0xf
	.4byte	.LASF105
	.byte	0xb
	.byte	0xe4
	.byte	0xb
	.4byte	0xf6
	.byte	0xc
	.uleb128 0xf
	.4byte	.LASF106
	.byte	0xb
	.byte	0xe5
	.byte	0xb
	.4byte	0xf6
	.byte	0x10
	.uleb128 0xf
	.4byte	.LASF74
	.byte	0xb
	.byte	0xe8
	.byte	0xb
	.4byte	0xd9
	.byte	0x14
	.uleb128 0xf
	.4byte	.LASF85
	.byte	0xb
	.byte	0xea
	.byte	0xb
	.4byte	0xd9
	.byte	0x15
	.uleb128 0xf
	.4byte	.LASF81
	.byte	0xb
	.byte	0xed
	.byte	0xb
	.4byte	0xd9
	.byte	0x16
	.uleb128 0xf
	.4byte	.LASF86
	.byte	0xb
	.byte	0xf0
	.byte	0xb
	.4byte	0xd9
	.byte	0x17
	.uleb128 0xf
	.4byte	.LASF107
	.byte	0xb
	.byte	0xf1
	.byte	0xb
	.4byte	0xd9
	.byte	0x18
	.uleb128 0xf
	.4byte	.LASF108
	.byte	0xb
	.byte	0xf2
	.byte	0xb
	.4byte	0xd9
	.byte	0x19
	.uleb128 0xf
	.4byte	.LASF109
	.byte	0xb
	.byte	0xf3
	.byte	0xf
	.4byte	0x806
	.byte	0x1c
	.uleb128 0xf
	.4byte	.LASF110
	.byte	0xb
	.byte	0xf4
	.byte	0x1a
	.4byte	0x811
	.byte	0x20
	.uleb128 0xf
	.4byte	.LASF111
	.byte	0xb
	.byte	0xf5
	.byte	0x7
	.4byte	0x69
	.byte	0x24
	.uleb128 0xf
	.4byte	.LASF112
	.byte	0xb
	.byte	0xf6
	.byte	0x7
	.4byte	0x69
	.byte	0x28
	.uleb128 0xf
	.4byte	.LASF113
	.byte	0xb
	.byte	0xf7
	.byte	0xf
	.4byte	0x817
	.byte	0x2c
	.uleb128 0xf
	.4byte	.LASF114
	.byte	0xb
	.byte	0xf9
	.byte	0x9
	.4byte	0xa4
	.byte	0x30
	.uleb128 0xf
	.4byte	.LASF115
	.byte	0xb
	.byte	0xfc
	.byte	0x11
	.4byte	0x81d
	.byte	0x34
	.uleb128 0xf
	.4byte	.LASF116
	.byte	0xb
	.byte	0xfd
	.byte	0x11
	.4byte	0x81d
	.byte	0x38
	.uleb128 0x11
	.4byte	.LASF117
	.byte	0xb
	.2byte	0x100
	.byte	0x8
	.4byte	0x823
	.byte	0x3c
	.uleb128 0x11
	.4byte	.LASF83
	.byte	0xb
	.2byte	0x102
	.byte	0xf
	.4byte	0x4f9
	.byte	0x40
	.uleb128 0x11
	.4byte	.LASF118
	.byte	0xb
	.2byte	0x106
	.byte	0x8
	.4byte	0x833
	.byte	0x48
	.uleb128 0x11
	.4byte	.LASF119
	.byte	0xb
	.2byte	0x107
	.byte	0x7
	.4byte	0x69
	.byte	0x88
	.byte	0
	.uleb128 0x6
	.byte	0x4
	.4byte	0xe5
	.uleb128 0x16
	.4byte	.LASF121
	.uleb128 0x6
	.byte	0x4
	.4byte	0x80c
	.uleb128 0x6
	.byte	0x4
	.4byte	0x604
	.uleb128 0x6
	.byte	0x4
	.4byte	0x59d
	.uleb128 0x9
	.4byte	0xd9
	.4byte	0x833
	.uleb128 0xa
	.4byte	0x70
	.byte	0x1
	.byte	0
	.uleb128 0x9
	.4byte	0xd9
	.4byte	0x843
	.uleb128 0xa
	.4byte	0x70
	.byte	0x3f
	.byte	0
	.uleb128 0x19
	.4byte	.LASF122
	.byte	0xb
	.2byte	0x108
	.byte	0x3
	.4byte	0x6da
	.uleb128 0x17
	.4byte	.LASF123
	.byte	0xc
	.byte	0xb
	.2byte	0x10d
	.byte	0x8
	.4byte	0x889
	.uleb128 0x11
	.4byte	.LASF66
	.byte	0xb
	.2byte	0x10e
	.byte	0x8
	.4byte	0xd9
	.byte	0
	.uleb128 0x11
	.4byte	.LASF83
	.byte	0xb
	.2byte	0x10f
	.byte	0xf
	.4byte	0x806
	.byte	0x4
	.uleb128 0x10
	.ascii	"len\000"
	.byte	0xb
	.2byte	0x110
	.byte	0x7
	.4byte	0xf6
	.byte	0x8
	.byte	0
	.uleb128 0x1a
	.byte	0x4
	.byte	0xb
	.2byte	0x130
	.byte	0x3
	.4byte	0x90b
	.uleb128 0x1b
	.ascii	"mdc\000"
	.byte	0xb
	.2byte	0x132
	.byte	0x12
	.4byte	0x70
	.byte	0x4
	.byte	0x1
	.byte	0x1f
	.byte	0
	.uleb128 0x1c
	.4byte	.LASF124
	.byte	0xb
	.2byte	0x133
	.byte	0x12
	.4byte	0x70
	.byte	0x4
	.byte	0x1
	.byte	0x1e
	.byte	0
	.uleb128 0x1c
	.4byte	.LASF125
	.byte	0xb
	.2byte	0x134
	.byte	0x12
	.4byte	0x70
	.byte	0x4
	.byte	0x1
	.byte	0x1d
	.byte	0
	.uleb128 0x1c
	.4byte	.LASF126
	.byte	0xb
	.2byte	0x135
	.byte	0x12
	.4byte	0x70
	.byte	0x4
	.byte	0x1
	.byte	0x1c
	.byte	0
	.uleb128 0x1c
	.4byte	.LASF127
	.byte	0xb
	.2byte	0x136
	.byte	0x12
	.4byte	0x70
	.byte	0x4
	.byte	0x2
	.byte	0x1a
	.byte	0
	.uleb128 0x1c
	.4byte	.LASF128
	.byte	0xb
	.2byte	0x137
	.byte	0x12
	.4byte	0x70
	.byte	0x4
	.byte	0x1
	.byte	0x19
	.byte	0
	.uleb128 0x1c
	.4byte	.LASF102
	.byte	0xb
	.2byte	0x138
	.byte	0x12
	.4byte	0x70
	.byte	0x4
	.byte	0x1
	.byte	0x18
	.byte	0
	.byte	0
	.uleb128 0x1a
	.byte	0x50
	.byte	0xb
	.2byte	0x118
	.byte	0x9
	.4byte	0xa3c
	.uleb128 0x10
	.ascii	"ref\000"
	.byte	0xb
	.2byte	0x11a
	.byte	0x7
	.4byte	0x69
	.byte	0
	.uleb128 0x10
	.ascii	"len\000"
	.byte	0xb
	.2byte	0x11c
	.byte	0x7
	.4byte	0x69
	.byte	0x4
	.uleb128 0x11
	.4byte	.LASF129
	.byte	0xb
	.2byte	0x11d
	.byte	0x1a
	.4byte	0xa3c
	.byte	0x8
	.uleb128 0x11
	.4byte	.LASF130
	.byte	0xb
	.2byte	0x11e
	.byte	0x7
	.4byte	0x69
	.byte	0xc
	.uleb128 0x11
	.4byte	.LASF131
	.byte	0xb
	.2byte	0x121
	.byte	0x9
	.4byte	0x26e
	.byte	0x10
	.uleb128 0x11
	.4byte	.LASF132
	.byte	0xb
	.2byte	0x123
	.byte	0x11
	.4byte	0x54
	.byte	0x14
	.uleb128 0x11
	.4byte	.LASF133
	.byte	0xb
	.2byte	0x124
	.byte	0x9
	.4byte	0x26e
	.byte	0x18
	.uleb128 0x11
	.4byte	.LASF134
	.byte	0xb
	.2byte	0x125
	.byte	0x7
	.4byte	0xea
	.byte	0x1c
	.uleb128 0x11
	.4byte	.LASF135
	.byte	0xb
	.2byte	0x126
	.byte	0x7
	.4byte	0xf6
	.byte	0x20
	.uleb128 0x11
	.4byte	.LASF136
	.byte	0xb
	.2byte	0x127
	.byte	0x7
	.4byte	0x69
	.byte	0x24
	.uleb128 0x11
	.4byte	.LASF137
	.byte	0xb
	.2byte	0x128
	.byte	0x7
	.4byte	0x69
	.byte	0x28
	.uleb128 0x11
	.4byte	.LASF106
	.byte	0xb
	.2byte	0x129
	.byte	0x7
	.4byte	0xf6
	.byte	0x2c
	.uleb128 0x11
	.4byte	.LASF138
	.byte	0xb
	.2byte	0x12a
	.byte	0xf
	.4byte	0xa42
	.byte	0x30
	.uleb128 0x11
	.4byte	.LASF139
	.byte	0xb
	.2byte	0x12b
	.byte	0x7
	.4byte	0xf6
	.byte	0x34
	.uleb128 0x11
	.4byte	.LASF140
	.byte	0xb
	.2byte	0x12c
	.byte	0x7
	.4byte	0xf6
	.byte	0x38
	.uleb128 0x11
	.4byte	.LASF141
	.byte	0xb
	.2byte	0x12d
	.byte	0x9
	.4byte	0xa4
	.byte	0x3c
	.uleb128 0x11
	.4byte	.LASF142
	.byte	0xb
	.2byte	0x12e
	.byte	0x8
	.4byte	0xd9
	.byte	0x40
	.uleb128 0x11
	.4byte	.LASF143
	.byte	0xb
	.2byte	0x12f
	.byte	0x8
	.4byte	0xd9
	.byte	0x41
	.uleb128 0x11
	.4byte	.LASF104
	.byte	0xb
	.2byte	0x139
	.byte	0x5
	.4byte	0x889
	.byte	0x44
	.uleb128 0x11
	.4byte	.LASF144
	.byte	0xb
	.2byte	0x13b
	.byte	0x9
	.4byte	0xa4
	.byte	0x48
	.uleb128 0x11
	.4byte	.LASF145
	.byte	0xb
	.2byte	0x140
	.byte	0x8
	.4byte	0x102
	.byte	0x4c
	.byte	0
	.uleb128 0x6
	.byte	0x4
	.4byte	0x850
	.uleb128 0x6
	.byte	0x4
	.4byte	0x3c4
	.uleb128 0x19
	.4byte	.LASF146
	.byte	0xb
	.2byte	0x141
	.byte	0x3
	.4byte	0x90b
	.uleb128 0x17
	.4byte	.LASF147
	.byte	0x10
	.byte	0xb
	.2byte	0x145
	.byte	0x8
	.4byte	0xa8e
	.uleb128 0x11
	.4byte	.LASF148
	.byte	0xb
	.2byte	0x148
	.byte	0x7
	.4byte	0xf6
	.byte	0
	.uleb128 0x11
	.4byte	.LASF80
	.byte	0xb
	.2byte	0x14a
	.byte	0x7
	.4byte	0x4e9
	.byte	0x4
	.uleb128 0x11
	.4byte	.LASF149
	.byte	0xb
	.2byte	0x14c
	.byte	0x8
	.4byte	0xd9
	.byte	0xc
	.byte	0
	.uleb128 0x17
	.4byte	.LASF150
	.byte	0x30
	.byte	0xb
	.2byte	0x151
	.byte	0x8
	.4byte	0xb04
	.uleb128 0x1c
	.4byte	.LASF151
	.byte	0xb
	.2byte	0x153
	.byte	0x7
	.4byte	0x69
	.byte	0x4
	.byte	0x1
	.byte	0x1f
	.byte	0
	.uleb128 0x1c
	.4byte	.LASF152
	.byte	0xb
	.2byte	0x157
	.byte	0x7
	.4byte	0x69
	.byte	0x4
	.byte	0x1
	.byte	0x1e
	.byte	0
	.uleb128 0x11
	.4byte	.LASF153
	.byte	0xb
	.2byte	0x158
	.byte	0x7
	.4byte	0xea
	.byte	0x2
	.uleb128 0x11
	.4byte	.LASF149
	.byte	0xb
	.2byte	0x159
	.byte	0x8
	.4byte	0xd9
	.byte	0x4
	.uleb128 0x10
	.ascii	"s2k\000"
	.byte	0xb
	.2byte	0x15a
	.byte	0xe
	.4byte	0x41e
	.byte	0x8
	.uleb128 0x11
	.4byte	.LASF154
	.byte	0xb
	.2byte	0x15b
	.byte	0x8
	.4byte	0xd9
	.byte	0x1c
	.uleb128 0x10
	.ascii	"iv\000"
	.byte	0xb
	.2byte	0x15c
	.byte	0x8
	.4byte	0x2a3
	.byte	0x1d
	.byte	0
	.uleb128 0x1a
	.byte	0x4
	.byte	0xb
	.2byte	0x191
	.byte	0x3
	.4byte	0xbdb
	.uleb128 0x1b
	.ascii	"mdc\000"
	.byte	0xb
	.2byte	0x193
	.byte	0x12
	.4byte	0x70
	.byte	0x4
	.byte	0x1
	.byte	0x1f
	.byte	0
	.uleb128 0x1c
	.4byte	.LASF124
	.byte	0xb
	.2byte	0x194
	.byte	0x12
	.4byte	0x70
	.byte	0x4
	.byte	0x1
	.byte	0x1e
	.byte	0
	.uleb128 0x1c
	.4byte	.LASF155
	.byte	0xb
	.2byte	0x195
	.byte	0x12
	.4byte	0x70
	.byte	0x4
	.byte	0x1
	.byte	0x1d
	.byte	0
	.uleb128 0x1c
	.4byte	.LASF156
	.byte	0xb
	.2byte	0x196
	.byte	0x12
	.4byte	0x70
	.byte	0x4
	.byte	0x1
	.byte	0x1c
	.byte	0
	.uleb128 0x1c
	.4byte	.LASF127
	.byte	0xb
	.2byte	0x197
	.byte	0x12
	.4byte	0x70
	.byte	0x4
	.byte	0x1
	.byte	0x1b
	.byte	0
	.uleb128 0x1c
	.4byte	.LASF128
	.byte	0xb
	.2byte	0x198
	.byte	0x12
	.4byte	0x70
	.byte	0x4
	.byte	0x2
	.byte	0x19
	.byte	0
	.uleb128 0x1c
	.4byte	.LASF157
	.byte	0xb
	.2byte	0x19b
	.byte	0x12
	.4byte	0x70
	.byte	0x4
	.byte	0x1
	.byte	0x18
	.byte	0
	.uleb128 0x1c
	.4byte	.LASF90
	.byte	0xb
	.2byte	0x19e
	.byte	0x12
	.4byte	0x70
	.byte	0x4
	.byte	0x1
	.byte	0x17
	.byte	0
	.uleb128 0x1c
	.4byte	.LASF158
	.byte	0xb
	.2byte	0x19f
	.byte	0x12
	.4byte	0x70
	.byte	0x4
	.byte	0x1
	.byte	0x16
	.byte	0
	.uleb128 0x1c
	.4byte	.LASF159
	.byte	0xb
	.2byte	0x1a0
	.byte	0x12
	.4byte	0x70
	.byte	0x4
	.byte	0x2
	.byte	0x14
	.byte	0
	.uleb128 0x1c
	.4byte	.LASF160
	.byte	0xb
	.2byte	0x1a1
	.byte	0x12
	.4byte	0x70
	.byte	0x4
	.byte	0x1
	.byte	0x13
	.byte	0
	.uleb128 0x1c
	.4byte	.LASF161
	.byte	0xb
	.2byte	0x1a2
	.byte	0x12
	.4byte	0x70
	.byte	0x4
	.byte	0x1
	.byte	0x12
	.byte	0
	.byte	0
	.uleb128 0x1a
	.byte	0x84
	.byte	0xb
	.2byte	0x175
	.byte	0x9
	.4byte	0xd6e
	.uleb128 0x11
	.4byte	.LASF105
	.byte	0xb
	.2byte	0x178
	.byte	0xb
	.4byte	0xf6
	.byte	0
	.uleb128 0x11
	.4byte	.LASF106
	.byte	0xb
	.2byte	0x179
	.byte	0xb
	.4byte	0xf6
	.byte	0x4
	.uleb128 0x11
	.4byte	.LASF162
	.byte	0xb
	.2byte	0x17a
	.byte	0xb
	.4byte	0xf6
	.byte	0x8
	.uleb128 0x11
	.4byte	.LASF128
	.byte	0xb
	.2byte	0x17b
	.byte	0x16
	.4byte	0xa55
	.byte	0xc
	.uleb128 0x11
	.4byte	.LASF163
	.byte	0xb
	.2byte	0x180
	.byte	0xb
	.4byte	0xd9
	.byte	0x1c
	.uleb128 0x11
	.4byte	.LASF74
	.byte	0xb
	.2byte	0x183
	.byte	0xb
	.4byte	0xd9
	.byte	0x1d
	.uleb128 0x11
	.4byte	.LASF143
	.byte	0xb
	.2byte	0x184
	.byte	0xb
	.4byte	0xd9
	.byte	0x1e
	.uleb128 0x11
	.4byte	.LASF81
	.byte	0xb
	.2byte	0x186
	.byte	0xb
	.4byte	0xd9
	.byte	0x1f
	.uleb128 0x11
	.4byte	.LASF164
	.byte	0xb
	.2byte	0x187
	.byte	0xb
	.4byte	0xea
	.byte	0x20
	.uleb128 0x11
	.4byte	.LASF165
	.byte	0xb
	.2byte	0x188
	.byte	0xb
	.4byte	0xd9
	.byte	0x22
	.uleb128 0x11
	.4byte	.LASF166
	.byte	0xb
	.2byte	0x189
	.byte	0xb
	.4byte	0xf6
	.byte	0x24
	.uleb128 0x11
	.4byte	.LASF167
	.byte	0xb
	.2byte	0x18c
	.byte	0xb
	.4byte	0x4e9
	.byte	0x28
	.uleb128 0x11
	.4byte	.LASF80
	.byte	0xb
	.2byte	0x18f
	.byte	0xb
	.4byte	0x4e9
	.byte	0x30
	.uleb128 0x11
	.4byte	.LASF138
	.byte	0xb
	.2byte	0x190
	.byte	0xf
	.4byte	0xa42
	.byte	0x38
	.uleb128 0x11
	.4byte	.LASF104
	.byte	0xb
	.2byte	0x1a3
	.byte	0x5
	.4byte	0xb04
	.byte	0x3c
	.uleb128 0x11
	.4byte	.LASF168
	.byte	0xb
	.2byte	0x1a4
	.byte	0x10
	.4byte	0xd6e
	.byte	0x40
	.uleb128 0x11
	.4byte	.LASF110
	.byte	0xb
	.2byte	0x1a5
	.byte	0x1a
	.4byte	0x811
	.byte	0x44
	.uleb128 0x11
	.4byte	.LASF111
	.byte	0xb
	.2byte	0x1a6
	.byte	0xb
	.4byte	0x69
	.byte	0x48
	.uleb128 0x11
	.4byte	.LASF169
	.byte	0xb
	.2byte	0x1a7
	.byte	0xb
	.4byte	0xf6
	.byte	0x4c
	.uleb128 0x11
	.4byte	.LASF107
	.byte	0xb
	.2byte	0x1a8
	.byte	0xb
	.4byte	0xd9
	.byte	0x50
	.uleb128 0x11
	.4byte	.LASF108
	.byte	0xb
	.2byte	0x1a9
	.byte	0xb
	.4byte	0xd9
	.byte	0x51
	.uleb128 0x11
	.4byte	.LASF142
	.byte	0xb
	.2byte	0x1aa
	.byte	0xb
	.4byte	0xd9
	.byte	0x52
	.uleb128 0x11
	.4byte	.LASF140
	.byte	0xb
	.2byte	0x1ab
	.byte	0xb
	.4byte	0xf6
	.byte	0x54
	.uleb128 0x11
	.4byte	.LASF141
	.byte	0xb
	.2byte	0x1ac
	.byte	0xc
	.4byte	0xa4
	.byte	0x58
	.uleb128 0x11
	.4byte	.LASF109
	.byte	0xb
	.2byte	0x1ad
	.byte	0xf
	.4byte	0x806
	.byte	0x5c
	.uleb128 0x11
	.4byte	.LASF170
	.byte	0xb
	.2byte	0x1ae
	.byte	0xc
	.4byte	0xa4
	.byte	0x60
	.uleb128 0x11
	.4byte	.LASF150
	.byte	0xb
	.2byte	0x1b3
	.byte	0x17
	.4byte	0xd74
	.byte	0x64
	.uleb128 0x11
	.4byte	.LASF171
	.byte	0xb
	.2byte	0x1b8
	.byte	0xf
	.4byte	0xd7a
	.byte	0x68
	.byte	0
	.uleb128 0x6
	.byte	0x4
	.4byte	0xa48
	.uleb128 0x6
	.byte	0x4
	.4byte	0xa8e
	.uleb128 0x9
	.4byte	0x352
	.4byte	0xd8a
	.uleb128 0xa
	.4byte	0x70
	.byte	0x6
	.byte	0
	.uleb128 0x19
	.4byte	.LASF172
	.byte	0xb
	.2byte	0x1b9
	.byte	0x3
	.4byte	0xbdb
	.uleb128 0x1a
	.byte	0x8
	.byte	0xb
	.2byte	0x1c2
	.byte	0x9
	.4byte	0xdbe
	.uleb128 0x10
	.ascii	"len\000"
	.byte	0xb
	.2byte	0x1c3
	.byte	0xa
	.4byte	0x69
	.byte	0
	.uleb128 0x11
	.4byte	.LASF83
	.byte	0xb
	.2byte	0x1c4
	.byte	0xa
	.4byte	0x102
	.byte	0x4
	.byte	0
	.uleb128 0x19
	.4byte	.LASF173
	.byte	0xb
	.2byte	0x1c5
	.byte	0x3
	.4byte	0xd97
	.uleb128 0x1a
	.byte	0xc
	.byte	0xb
	.2byte	0x1c8
	.byte	0x9
	.4byte	0xe0e
	.uleb128 0x10
	.ascii	"len\000"
	.byte	0xb
	.2byte	0x1ca
	.byte	0x7
	.4byte	0xf6
	.byte	0
	.uleb128 0x11
	.4byte	.LASF174
	.byte	0xb
	.2byte	0x1cd
	.byte	0x9
	.4byte	0xd9
	.byte	0x4
	.uleb128 0x11
	.4byte	.LASF175
	.byte	0xb
	.2byte	0x1cf
	.byte	0x9
	.4byte	0xd9
	.byte	0x5
	.uleb128 0x10
	.ascii	"buf\000"
	.byte	0xb
	.2byte	0x1d2
	.byte	0xb
	.4byte	0x13d
	.byte	0x8
	.byte	0
	.uleb128 0x19
	.4byte	.LASF176
	.byte	0xb
	.2byte	0x1d3
	.byte	0x3
	.4byte	0xdcb
	.uleb128 0x1a
	.byte	0x14
	.byte	0xb
	.2byte	0x1d8
	.byte	0x9
	.4byte	0xea4
	.uleb128 0x10
	.ascii	"len\000"
	.byte	0xb
	.2byte	0x1da
	.byte	0x8
	.4byte	0xf6
	.byte	0
	.uleb128 0x11
	.4byte	.LASF177
	.byte	0xb
	.2byte	0x1e2
	.byte	0x8
	.4byte	0x69
	.byte	0x4
	.uleb128 0x11
	.4byte	.LASF174
	.byte	0xb
	.2byte	0x1e5
	.byte	0x8
	.4byte	0xd9
	.byte	0x8
	.uleb128 0x11
	.4byte	.LASF178
	.byte	0xb
	.2byte	0x1e9
	.byte	0x8
	.4byte	0xd9
	.byte	0x9
	.uleb128 0x11
	.4byte	.LASF179
	.byte	0xb
	.2byte	0x1ec
	.byte	0x8
	.4byte	0xd9
	.byte	0xa
	.uleb128 0x11
	.4byte	.LASF76
	.byte	0xb
	.2byte	0x1ef
	.byte	0x8
	.4byte	0xd9
	.byte	0xb
	.uleb128 0x11
	.4byte	.LASF75
	.byte	0xb
	.2byte	0x1f2
	.byte	0x8
	.4byte	0xd9
	.byte	0xc
	.uleb128 0x11
	.4byte	.LASF180
	.byte	0xb
	.2byte	0x1f4
	.byte	0x8
	.4byte	0xd9
	.byte	0xd
	.uleb128 0x10
	.ascii	"buf\000"
	.byte	0xb
	.2byte	0x1f8
	.byte	0xb
	.4byte	0x13d
	.byte	0x10
	.byte	0
	.uleb128 0x19
	.4byte	.LASF181
	.byte	0xb
	.2byte	0x1f9
	.byte	0x3
	.4byte	0xe1b
	.uleb128 0x1a
	.byte	0x14
	.byte	0xb
	.2byte	0x1fb
	.byte	0x9
	.4byte	0xeca
	.uleb128 0x11
	.4byte	.LASF182
	.byte	0xb
	.2byte	0x1fc
	.byte	0xa
	.4byte	0xeca
	.byte	0
	.byte	0
	.uleb128 0x9
	.4byte	0xd9
	.4byte	0xeda
	.uleb128 0xa
	.4byte	0x70
	.byte	0x13
	.byte	0
	.uleb128 0x19
	.4byte	.LASF183
	.byte	0xb
	.2byte	0x1fd
	.byte	0x3
	.4byte	0xeb1
	.uleb128 0x1a
	.byte	0x1c
	.byte	0xb
	.2byte	0x216
	.byte	0x9
	.4byte	0xf62
	.uleb128 0x10
	.ascii	"len\000"
	.byte	0xb
	.2byte	0x218
	.byte	0x8
	.4byte	0xf6
	.byte	0
	.uleb128 0x10
	.ascii	"buf\000"
	.byte	0xb
	.2byte	0x21a
	.byte	0xb
	.4byte	0x13d
	.byte	0x4
	.uleb128 0x11
	.4byte	.LASF174
	.byte	0xb
	.2byte	0x21b
	.byte	0x8
	.4byte	0xd9
	.byte	0x8
	.uleb128 0x11
	.4byte	.LASF178
	.byte	0xb
	.2byte	0x21c
	.byte	0x8
	.4byte	0xd9
	.byte	0x9
	.uleb128 0x11
	.4byte	.LASF69
	.byte	0xb
	.2byte	0x21f
	.byte	0x7
	.4byte	0x69
	.byte	0xc
	.uleb128 0x11
	.4byte	.LASF105
	.byte	0xb
	.2byte	0x220
	.byte	0x7
	.4byte	0xf6
	.byte	0x10
	.uleb128 0x11
	.4byte	.LASF184
	.byte	0xb
	.2byte	0x223
	.byte	0x8
	.4byte	0x69
	.byte	0x14
	.uleb128 0x11
	.4byte	.LASF145
	.byte	0xb
	.2byte	0x224
	.byte	0x8
	.4byte	0x102
	.byte	0x18
	.byte	0
	.uleb128 0x19
	.4byte	.LASF185
	.byte	0xb
	.2byte	0x225
	.byte	0x3
	.4byte	0xee7
	.uleb128 0x1a
	.byte	0xc
	.byte	0xb
	.2byte	0x227
	.byte	0x9
	.4byte	0xfa4
	.uleb128 0x11
	.4byte	.LASF186
	.byte	0xb
	.2byte	0x228
	.byte	0xa
	.4byte	0x69
	.byte	0
	.uleb128 0x11
	.4byte	.LASF187
	.byte	0xb
	.2byte	0x229
	.byte	0xc
	.4byte	0x77
	.byte	0x4
	.uleb128 0x11
	.4byte	.LASF83
	.byte	0xb
	.2byte	0x22a
	.byte	0xa
	.4byte	0x102
	.byte	0x8
	.byte	0
	.uleb128 0x19
	.4byte	.LASF188
	.byte	0xb
	.2byte	0x22b
	.byte	0x3
	.4byte	0xf6f
	.uleb128 0x1d
	.byte	0x4
	.byte	0xb
	.2byte	0x230
	.byte	0x5
	.4byte	0x1072
	.uleb128 0x1e
	.4byte	.LASF189
	.byte	0xb
	.2byte	0x231
	.byte	0x8
	.4byte	0x8a
	.uleb128 0x1e
	.4byte	.LASF190
	.byte	0xb
	.2byte	0x232
	.byte	0x12
	.4byte	0x1072
	.uleb128 0x1e
	.4byte	.LASF191
	.byte	0xb
	.2byte	0x233
	.byte	0x12
	.4byte	0x1078
	.uleb128 0x1e
	.4byte	.LASF192
	.byte	0xb
	.2byte	0x234
	.byte	0x13
	.4byte	0x107e
	.uleb128 0x1e
	.4byte	.LASF193
	.byte	0xb
	.2byte	0x235
	.byte	0x11
	.4byte	0x1084
	.uleb128 0x1e
	.4byte	.LASF194
	.byte	0xb
	.2byte	0x236
	.byte	0x12
	.4byte	0x108a
	.uleb128 0x1e
	.4byte	.LASF195
	.byte	0xb
	.2byte	0x237
	.byte	0x12
	.4byte	0x108a
	.uleb128 0x1e
	.4byte	.LASF196
	.byte	0xb
	.2byte	0x238
	.byte	0xf
	.4byte	0x1090
	.uleb128 0x1e
	.4byte	.LASF168
	.byte	0xb
	.2byte	0x239
	.byte	0xf
	.4byte	0xd6e
	.uleb128 0x1e
	.4byte	.LASF197
	.byte	0xb
	.2byte	0x23a
	.byte	0x12
	.4byte	0x1096
	.uleb128 0x1e
	.4byte	.LASF198
	.byte	0xb
	.2byte	0x23b
	.byte	0x11
	.4byte	0x109c
	.uleb128 0x1f
	.ascii	"mdc\000"
	.byte	0xb
	.2byte	0x23c
	.byte	0xc
	.4byte	0x10a2
	.uleb128 0x1e
	.4byte	.LASF199
	.byte	0xb
	.2byte	0x23d
	.byte	0x11
	.4byte	0x10a8
	.uleb128 0x1e
	.4byte	.LASF200
	.byte	0xb
	.2byte	0x23e
	.byte	0x1a
	.4byte	0x10ae
	.byte	0
	.uleb128 0x6
	.byte	0x4
	.4byte	0x492
	.uleb128 0x6
	.byte	0x4
	.4byte	0x509
	.uleb128 0x6
	.byte	0x4
	.4byte	0x560
	.uleb128 0x6
	.byte	0x4
	.4byte	0x843
	.uleb128 0x6
	.byte	0x4
	.4byte	0xd8a
	.uleb128 0x6
	.byte	0x4
	.4byte	0xdbe
	.uleb128 0x6
	.byte	0x4
	.4byte	0xe0e
	.uleb128 0x6
	.byte	0x4
	.4byte	0xea4
	.uleb128 0x6
	.byte	0x4
	.4byte	0xeda
	.uleb128 0x6
	.byte	0x4
	.4byte	0xf62
	.uleb128 0x6
	.byte	0x4
	.4byte	0xfa4
	.uleb128 0x20
	.4byte	.LASF202
	.byte	0x1
	.2byte	0x295
	.byte	0x1
	.4byte	0x69
	.byte	0x1
	.4byte	0x10fb
	.uleb128 0x21
	.ascii	"out\000"
	.byte	0x1
	.2byte	0x295
	.byte	0x19
	.4byte	0x224
	.uleb128 0x21
	.ascii	"ctb\000"
	.byte	0x1
	.2byte	0x295
	.byte	0x22
	.4byte	0x69
	.uleb128 0x21
	.ascii	"len\000"
	.byte	0x1
	.2byte	0x295
	.byte	0x2b
	.4byte	0xf6
	.uleb128 0x22
	.4byte	.LASF201
	.byte	0x1
	.2byte	0x295
	.byte	0x34
	.4byte	0x69
	.byte	0
	.uleb128 0x20
	.4byte	.LASF203
	.byte	0x1
	.2byte	0x232
	.byte	0x1
	.4byte	0x69
	.byte	0x1
	.4byte	0x1142
	.uleb128 0x21
	.ascii	"out\000"
	.byte	0x1
	.2byte	0x232
	.byte	0x16
	.4byte	0x224
	.uleb128 0x21
	.ascii	"ctb\000"
	.byte	0x1
	.2byte	0x232
	.byte	0x1f
	.4byte	0x69
	.uleb128 0x21
	.ascii	"len\000"
	.byte	0x1
	.2byte	0x232
	.byte	0x28
	.4byte	0xf6
	.uleb128 0x22
	.4byte	.LASF201
	.byte	0x1
	.2byte	0x232
	.byte	0x31
	.4byte	0x69
	.byte	0
	.uleb128 0x20
	.4byte	.LASF204
	.byte	0x1
	.2byte	0x22c
	.byte	0x1
	.4byte	0x69
	.byte	0x1
	.4byte	0x117c
	.uleb128 0x21
	.ascii	"out\000"
	.byte	0x1
	.2byte	0x22c
	.byte	0x15
	.4byte	0x224
	.uleb128 0x21
	.ascii	"ctb\000"
	.byte	0x1
	.2byte	0x22c
	.byte	0x1e
	.4byte	0x69
	.uleb128 0x21
	.ascii	"len\000"
	.byte	0x1
	.2byte	0x22c
	.byte	0x27
	.4byte	0xf6
	.byte	0
	.uleb128 0x20
	.4byte	.LASF205
	.byte	0x1
	.2byte	0x216
	.byte	0x1
	.4byte	0x69
	.byte	0x1
	.4byte	0x11a9
	.uleb128 0x21
	.ascii	"len\000"
	.byte	0x1
	.2byte	0x216
	.byte	0x19
	.4byte	0xf6
	.uleb128 0x22
	.4byte	.LASF174
	.byte	0x1
	.2byte	0x216
	.byte	0x22
	.4byte	0x69
	.byte	0
	.uleb128 0x20
	.4byte	.LASF206
	.byte	0x1
	.2byte	0x200
	.byte	0x1
	.4byte	0x69
	.byte	0x1
	.4byte	0x11d4
	.uleb128 0x21
	.ascii	"out\000"
	.byte	0x1
	.2byte	0x200
	.byte	0x10
	.4byte	0x224
	.uleb128 0x21
	.ascii	"a\000"
	.byte	0x1
	.2byte	0x200
	.byte	0x19
	.4byte	0xf6
	.byte	0
	.uleb128 0x20
	.4byte	.LASF207
	.byte	0x1
	.2byte	0x1e4
	.byte	0x1
	.4byte	0x69
	.byte	0x1
	.4byte	0x1224
	.uleb128 0x21
	.ascii	"out\000"
	.byte	0x1
	.2byte	0x1e4
	.byte	0x15
	.4byte	0x224
	.uleb128 0x21
	.ascii	"ctb\000"
	.byte	0x1
	.2byte	0x1e4
	.byte	0x1e
	.4byte	0x69
	.uleb128 0x21
	.ascii	"ed\000"
	.byte	0x1
	.2byte	0x1e4
	.byte	0x32
	.4byte	0x109c
	.uleb128 0x23
	.ascii	"rc\000"
	.byte	0x1
	.2byte	0x1e6
	.byte	0x9
	.4byte	0x69
	.uleb128 0x23
	.ascii	"n\000"
	.byte	0x1
	.2byte	0x1e7
	.byte	0x9
	.4byte	0xf6
	.byte	0
	.uleb128 0x20
	.4byte	.LASF208
	.byte	0x1
	.2byte	0x197
	.byte	0x1
	.4byte	0x69
	.byte	0x1
	.4byte	0x1276
	.uleb128 0x21
	.ascii	"out\000"
	.byte	0x1
	.2byte	0x197
	.byte	0x15
	.4byte	0x224
	.uleb128 0x21
	.ascii	"ctb\000"
	.byte	0x1
	.2byte	0x197
	.byte	0x1e
	.4byte	0x69
	.uleb128 0x21
	.ascii	"pt\000"
	.byte	0x1
	.2byte	0x197
	.byte	0x32
	.4byte	0x10a8
	.uleb128 0x23
	.ascii	"rc\000"
	.byte	0x1
	.2byte	0x19a
	.byte	0x9
	.4byte	0x69
	.uleb128 0x24
	.4byte	.LASF24
	.byte	0x1
	.2byte	0x19b
	.byte	0xc
	.4byte	0x77
	.byte	0
	.uleb128 0x20
	.4byte	.LASF209
	.byte	0x1
	.2byte	0x17b
	.byte	0x1
	.4byte	0xf6
	.byte	0x1
	.4byte	0x12a2
	.uleb128 0x21
	.ascii	"pt\000"
	.byte	0x1
	.2byte	0x17b
	.byte	0x20
	.4byte	0x10a8
	.uleb128 0x23
	.ascii	"res\000"
	.byte	0x1
	.2byte	0x183
	.byte	0x7
	.4byte	0xf6
	.byte	0
	.uleb128 0x20
	.4byte	.LASF210
	.byte	0x1
	.2byte	0x13b
	.byte	0x1
	.4byte	0x69
	.byte	0x1
	.4byte	0x12f3
	.uleb128 0x21
	.ascii	"out\000"
	.byte	0x1
	.2byte	0x13b
	.byte	0x16
	.4byte	0x224
	.uleb128 0x21
	.ascii	"ctb\000"
	.byte	0x1
	.2byte	0x13b
	.byte	0x1f
	.4byte	0x69
	.uleb128 0x21
	.ascii	"enc\000"
	.byte	0x1
	.2byte	0x13b
	.byte	0x34
	.4byte	0x1072
	.uleb128 0x23
	.ascii	"rc\000"
	.byte	0x1
	.2byte	0x14f
	.byte	0x7
	.4byte	0x69
	.uleb128 0x23
	.ascii	"a\000"
	.byte	0x1
	.2byte	0x150
	.byte	0x9
	.4byte	0x224
	.byte	0
	.uleb128 0x25
	.4byte	.LASF211
	.byte	0x1
	.2byte	0x113
	.byte	0x6
	.4byte	.LFB25
	.4byte	.LFE25-.LFB25
	.uleb128 0x1
	.byte	0x9c
	.4byte	0x13c6
	.uleb128 0x26
	.4byte	.LASF213
	.byte	0x1
	.2byte	0x113
	.byte	0x33
	.4byte	0x13c6
	.4byte	.LLST59
	.4byte	.LVUS59
	.uleb128 0x27
	.4byte	.LVL179
	.4byte	0x2024
	.uleb128 0x28
	.4byte	.LVL180
	.4byte	0x2024
	.4byte	0x133c
	.uleb128 0x29
	.uleb128 0x1
	.byte	0x50
	.uleb128 0x2
	.byte	0x77
	.sleb128 0
	.byte	0
	.uleb128 0x27
	.4byte	.LVL181
	.4byte	0x2024
	.uleb128 0x27
	.4byte	.LVL182
	.4byte	0x2024
	.uleb128 0x27
	.4byte	.LVL183
	.4byte	0x2024
	.uleb128 0x27
	.4byte	.LVL184
	.4byte	0x2024
	.uleb128 0x27
	.4byte	.LVL185
	.4byte	0x2024
	.uleb128 0x27
	.4byte	.LVL186
	.4byte	0x2024
	.uleb128 0x27
	.4byte	.LVL187
	.4byte	0x2024
	.uleb128 0x27
	.4byte	.LVL188
	.4byte	0x2024
	.uleb128 0x27
	.4byte	.LVL189
	.4byte	0x2024
	.uleb128 0x27
	.4byte	.LVL190
	.4byte	0x2024
	.uleb128 0x27
	.4byte	.LVL191
	.4byte	0x2024
	.uleb128 0x27
	.4byte	.LVL192
	.4byte	0x2024
	.uleb128 0x28
	.4byte	.LVL193
	.4byte	0x2024
	.4byte	0x13bc
	.uleb128 0x29
	.uleb128 0x1
	.byte	0x50
	.uleb128 0x2
	.byte	0x76
	.sleb128 0
	.byte	0
	.uleb128 0x2a
	.4byte	.LVL194
	.4byte	0x2024
	.byte	0
	.uleb128 0x6
	.byte	0x4
	.4byte	0x21f
	.uleb128 0x2b
	.4byte	.LASF212
	.byte	0x1
	.byte	0xf1
	.byte	0x6
	.4byte	.LFB24
	.4byte	.LFE24-.LFB24
	.uleb128 0x1
	.byte	0x9c
	.4byte	0x1511
	.uleb128 0x2c
	.4byte	.LASF214
	.byte	0x1
	.byte	0xf1
	.byte	0x21
	.4byte	0x1511
	.4byte	.LLST8
	.4byte	.LVUS8
	.uleb128 0x2c
	.4byte	.LASF215
	.byte	0x1
	.byte	0xf1
	.byte	0x2d
	.4byte	0x69
	.4byte	.LLST9
	.4byte	.LVUS9
	.uleb128 0x2d
	.4byte	.LASF234
	.byte	0x1
	.byte	0xf2
	.byte	0xa
	.4byte	0x1517
	.uleb128 0x2
	.byte	0x91
	.sleb128 -60
	.uleb128 0x2e
	.4byte	.LASF216
	.byte	0x1
	.byte	0xf3
	.byte	0x9
	.4byte	0x69
	.4byte	.LLST10
	.4byte	.LVUS10
	.uleb128 0x2f
	.4byte	.Ldebug_ranges0+0x58
	.4byte	0x1500
	.uleb128 0x2e
	.4byte	.LASF217
	.byte	0x1
	.byte	0xf7
	.byte	0xd
	.4byte	0x69
	.4byte	.LLST11
	.4byte	.LVUS11
	.uleb128 0x2f
	.4byte	.Ldebug_ranges0+0x78
	.4byte	0x14a7
	.uleb128 0x30
	.ascii	"i\000"
	.byte	0x1
	.byte	0xfb
	.byte	0x12
	.4byte	0x69
	.4byte	.LLST12
	.4byte	.LVUS12
	.uleb128 0x27
	.4byte	.LVL30
	.4byte	0x2024
	.uleb128 0x28
	.4byte	.LVL33
	.4byte	0x2024
	.4byte	0x1482
	.uleb128 0x29
	.uleb128 0x1
	.byte	0x50
	.uleb128 0x2
	.byte	0x75
	.sleb128 0
	.byte	0
	.uleb128 0x28
	.4byte	.LVL42
	.4byte	0x2024
	.4byte	0x1496
	.uleb128 0x29
	.uleb128 0x1
	.byte	0x50
	.uleb128 0x2
	.byte	0x78
	.sleb128 0
	.byte	0
	.uleb128 0x31
	.4byte	.LVL43
	.4byte	0x2024
	.uleb128 0x29
	.uleb128 0x1
	.byte	0x50
	.uleb128 0x2
	.byte	0x79
	.sleb128 0
	.byte	0
	.byte	0
	.uleb128 0x32
	.4byte	.LBB45
	.4byte	.LBE45-.LBB45
	.4byte	0x14c8
	.uleb128 0x33
	.ascii	"i\000"
	.byte	0x1
	.2byte	0x107
	.byte	0x12
	.4byte	0x69
	.4byte	.LLST13
	.4byte	.LVUS13
	.byte	0
	.uleb128 0x28
	.4byte	.LVL27
	.4byte	0x2024
	.4byte	0x14e4
	.uleb128 0x29
	.uleb128 0x1
	.byte	0x50
	.uleb128 0x4
	.byte	0x91
	.sleb128 -84
	.byte	0x6
	.uleb128 0x29
	.uleb128 0x1
	.byte	0x51
	.uleb128 0x2
	.byte	0x7a
	.sleb128 0
	.byte	0
	.uleb128 0x27
	.4byte	.LVL34
	.4byte	0x2024
	.uleb128 0x31
	.4byte	.LVL38
	.4byte	0x2024
	.uleb128 0x29
	.uleb128 0x1
	.byte	0x51
	.uleb128 0x4
	.byte	0x91
	.sleb128 -76
	.byte	0x6
	.byte	0
	.byte	0
	.uleb128 0x31
	.4byte	.LVL24
	.4byte	0x2024
	.uleb128 0x29
	.uleb128 0x1
	.byte	0x51
	.uleb128 0x2
	.byte	0x77
	.sleb128 0
	.byte	0
	.byte	0
	.uleb128 0x6
	.byte	0x4
	.4byte	0xc8
	.uleb128 0x9
	.4byte	0xaa
	.4byte	0x1527
	.uleb128 0xa
	.4byte	0x70
	.byte	0x10
	.byte	0
	.uleb128 0x34
	.4byte	.LASF218
	.byte	0x1
	.byte	0xcf
	.byte	0x1
	.4byte	0xf6
	.4byte	.LFB23
	.4byte	.LFE23-.LFB23
	.uleb128 0x1
	.byte	0x9c
	.4byte	0x1608
	.uleb128 0x35
	.ascii	"pkt\000"
	.byte	0x1
	.byte	0xcf
	.byte	0x1d
	.4byte	0x1608
	.4byte	.LLST1
	.4byte	.LVUS1
	.uleb128 0x30
	.ascii	"n\000"
	.byte	0x1
	.byte	0xd1
	.byte	0x7
	.4byte	0xf6
	.4byte	.LLST2
	.4byte	.LVUS2
	.uleb128 0x2e
	.4byte	.LASF174
	.byte	0x1
	.byte	0xd2
	.byte	0x7
	.4byte	0x69
	.4byte	.LLST3
	.4byte	.LVUS3
	.uleb128 0x36
	.4byte	0x117c
	.4byte	.LBI22
	.byte	.LVU21
	.4byte	.Ldebug_ranges0+0
	.byte	0x1
	.byte	0xec
	.byte	0x8
	.4byte	0x15ab
	.uleb128 0x37
	.4byte	0x119b
	.4byte	.LLST4
	.4byte	.LVUS4
	.uleb128 0x37
	.4byte	0x118e
	.4byte	.LLST5
	.4byte	.LVUS5
	.byte	0
	.uleb128 0x36
	.4byte	0x1276
	.4byte	.LBI29
	.byte	.LVU27
	.4byte	.Ldebug_ranges0+0x38
	.byte	0x1
	.byte	0xd8
	.byte	0xb
	.4byte	0x15fe
	.uleb128 0x37
	.4byte	0x1288
	.4byte	.LLST6
	.4byte	.LVUS6
	.uleb128 0x38
	.4byte	.Ldebug_ranges0+0x38
	.uleb128 0x39
	.4byte	0x1294
	.4byte	.LLST7
	.4byte	.LVUS7
	.uleb128 0x28
	.4byte	.LVL15
	.4byte	0x2024
	.4byte	0x15f3
	.uleb128 0x29
	.uleb128 0x1
	.byte	0x51
	.uleb128 0x2
	.byte	0x74
	.sleb128 0
	.byte	0
	.uleb128 0x27
	.4byte	.LVL18
	.4byte	0x2024
	.byte	0
	.byte	0
	.uleb128 0x27
	.4byte	.LVL10
	.4byte	0x2024
	.byte	0
	.uleb128 0x6
	.byte	0x4
	.4byte	0x369
	.uleb128 0x34
	.4byte	.LASF219
	.byte	0x1
	.byte	0x61
	.byte	0x1
	.4byte	0x69
	.4byte	.LFB22
	.4byte	.LFE22-.LFB22
	.uleb128 0x1
	.byte	0x9c
	.4byte	0x1cbc
	.uleb128 0x35
	.ascii	"out\000"
	.byte	0x1
	.byte	0x61
	.byte	0x15
	.4byte	0x224
	.4byte	.LLST23
	.4byte	.LVUS23
	.uleb128 0x35
	.ascii	"pkt\000"
	.byte	0x1
	.byte	0x61
	.byte	0x22
	.4byte	0x1608
	.4byte	.LLST24
	.4byte	.LVUS24
	.uleb128 0x30
	.ascii	"rc\000"
	.byte	0x1
	.byte	0x65
	.byte	0x7
	.4byte	0x69
	.4byte	.LLST25
	.4byte	.LVUS25
	.uleb128 0x2e
	.4byte	.LASF174
	.byte	0x1
	.byte	0x66
	.byte	0x7
	.4byte	0x69
	.4byte	.LLST26
	.4byte	.LVUS26
	.uleb128 0x30
	.ascii	"ctb\000"
	.byte	0x1
	.byte	0x67
	.byte	0x7
	.4byte	0x69
	.4byte	.LLST27
	.4byte	.LVUS27
	.uleb128 0x2e
	.4byte	.LASF65
	.byte	0x1
	.byte	0x67
	.byte	0xc
	.4byte	0x69
	.4byte	.LLST28
	.4byte	.LVUS28
	.uleb128 0x36
	.4byte	0x11d4
	.4byte	.LBI85
	.byte	.LVU310
	.4byte	.Ldebug_ranges0+0xf0
	.byte	0x1
	.byte	0xad
	.byte	0xc
	.4byte	0x1753
	.uleb128 0x37
	.4byte	0x1200
	.4byte	.LLST29
	.4byte	.LVUS29
	.uleb128 0x37
	.4byte	0x11f3
	.4byte	.LLST30
	.4byte	.LVUS30
	.uleb128 0x37
	.4byte	0x11e6
	.4byte	.LLST31
	.4byte	.LVUS31
	.uleb128 0x38
	.4byte	.Ldebug_ranges0+0xf0
	.uleb128 0x39
	.4byte	0x120c
	.4byte	.LLST32
	.4byte	.LVUS32
	.uleb128 0x39
	.4byte	0x1218
	.4byte	.LLST33
	.4byte	.LVUS33
	.uleb128 0x3a
	.4byte	0x1142
	.4byte	.LBI87
	.byte	.LVU320
	.4byte	.Ldebug_ranges0+0x108
	.byte	0x1
	.2byte	0x1ed
	.byte	0x5
	.uleb128 0x37
	.4byte	0x116e
	.4byte	.LLST34
	.4byte	.LVUS34
	.uleb128 0x37
	.4byte	0x1161
	.4byte	.LLST35
	.4byte	.LVUS35
	.uleb128 0x37
	.4byte	0x1154
	.4byte	.LLST36
	.4byte	.LVUS36
	.uleb128 0x31
	.4byte	.LVL102
	.4byte	0x1d15
	.uleb128 0x29
	.uleb128 0x1
	.byte	0x50
	.uleb128 0x2
	.byte	0x75
	.sleb128 0
	.uleb128 0x29
	.uleb128 0x1
	.byte	0x51
	.uleb128 0x2
	.byte	0x77
	.sleb128 0
	.uleb128 0x3b
	.4byte	0x1134
	.uleb128 0x1
	.byte	0x30
	.byte	0
	.byte	0
	.byte	0
	.byte	0
	.uleb128 0x36
	.4byte	0x12a2
	.4byte	.LBI93
	.byte	.LVU331
	.4byte	.Ldebug_ranges0+0x120
	.byte	0x1
	.byte	0xa4
	.byte	0xc
	.4byte	0x1978
	.uleb128 0x37
	.4byte	0x12ce
	.4byte	.LLST37
	.4byte	.LVUS37
	.uleb128 0x37
	.4byte	0x12c1
	.4byte	.LLST38
	.4byte	.LVUS38
	.uleb128 0x37
	.4byte	0x12b4
	.4byte	.LLST39
	.4byte	.LVUS39
	.uleb128 0x38
	.4byte	.Ldebug_ranges0+0x120
	.uleb128 0x39
	.4byte	0x12db
	.4byte	.LLST40
	.4byte	.LVUS40
	.uleb128 0x39
	.4byte	0x12e7
	.4byte	.LLST41
	.4byte	.LVUS41
	.uleb128 0x3c
	.4byte	0x1142
	.4byte	.LBI95
	.byte	.LVU367
	.4byte	.LBB95
	.4byte	.LBE95-.LBB95
	.byte	0x1
	.2byte	0x171
	.byte	0x5
	.4byte	0x180d
	.uleb128 0x37
	.4byte	0x116e
	.4byte	.LLST42
	.4byte	.LVUS42
	.uleb128 0x37
	.4byte	0x1161
	.4byte	.LLST43
	.4byte	.LVUS43
	.uleb128 0x37
	.4byte	0x1154
	.4byte	.LLST44
	.4byte	.LVUS44
	.uleb128 0x31
	.4byte	.LVL127
	.4byte	0x1d15
	.uleb128 0x29
	.uleb128 0x1
	.byte	0x50
	.uleb128 0x2
	.byte	0x75
	.sleb128 0
	.uleb128 0x29
	.uleb128 0x1
	.byte	0x51
	.uleb128 0x2
	.byte	0x77
	.sleb128 0
	.uleb128 0x3b
	.4byte	0x1134
	.uleb128 0x1
	.byte	0x30
	.byte	0
	.byte	0
	.uleb128 0x27
	.4byte	.LVL105
	.4byte	0x2024
	.uleb128 0x27
	.4byte	.LVL107
	.4byte	0x2024
	.uleb128 0x27
	.4byte	.LVL108
	.4byte	0x2024
	.uleb128 0x27
	.4byte	.LVL109
	.4byte	0x2024
	.uleb128 0x27
	.4byte	.LVL110
	.4byte	0x2024
	.uleb128 0x27
	.4byte	.LVL111
	.4byte	0x2024
	.uleb128 0x27
	.4byte	.LVL112
	.4byte	0x2024
	.uleb128 0x27
	.4byte	.LVL113
	.4byte	0x2024
	.uleb128 0x27
	.4byte	.LVL114
	.4byte	0x2024
	.uleb128 0x28
	.4byte	.LVL115
	.4byte	0x13cc
	.4byte	0x1877
	.uleb128 0x29
	.uleb128 0x1
	.byte	0x50
	.uleb128 0x2
	.byte	0x76
	.sleb128 0
	.uleb128 0x29
	.uleb128 0x1
	.byte	0x51
	.uleb128 0x1
	.byte	0x38
	.byte	0
	.uleb128 0x27
	.4byte	.LVL116
	.4byte	0x2024
	.uleb128 0x27
	.4byte	.LVL117
	.4byte	0x2024
	.uleb128 0x27
	.4byte	.LVL118
	.4byte	0x2030
	.uleb128 0x27
	.4byte	.LVL121
	.4byte	0x2024
	.uleb128 0x28
	.4byte	.LVL122
	.4byte	0x203d
	.4byte	0x18af
	.uleb128 0x29
	.uleb128 0x1
	.byte	0x50
	.uleb128 0x2
	.byte	0x78
	.sleb128 0
	.byte	0
	.uleb128 0x28
	.4byte	.LVL123
	.4byte	0x203d
	.4byte	0x18c3
	.uleb128 0x29
	.uleb128 0x1
	.byte	0x50
	.uleb128 0x2
	.byte	0x78
	.sleb128 0
	.byte	0
	.uleb128 0x28
	.4byte	.LVL124
	.4byte	0x203d
	.4byte	0x18d7
	.uleb128 0x29
	.uleb128 0x1
	.byte	0x50
	.uleb128 0x2
	.byte	0x78
	.sleb128 0
	.byte	0
	.uleb128 0x28
	.4byte	.LVL125
	.4byte	0x203d
	.4byte	0x18eb
	.uleb128 0x29
	.uleb128 0x1
	.byte	0x50
	.uleb128 0x2
	.byte	0x78
	.sleb128 0
	.byte	0
	.uleb128 0x28
	.4byte	.LVL128
	.4byte	0x204a
	.4byte	0x1905
	.uleb128 0x29
	.uleb128 0x1
	.byte	0x50
	.uleb128 0x2
	.byte	0x75
	.sleb128 0
	.uleb128 0x29
	.uleb128 0x1
	.byte	0x51
	.uleb128 0x2
	.byte	0x78
	.sleb128 0
	.byte	0
	.uleb128 0x28
	.4byte	.LVL130
	.4byte	0x2057
	.4byte	0x1919
	.uleb128 0x29
	.uleb128 0x1
	.byte	0x50
	.uleb128 0x2
	.byte	0x78
	.sleb128 0
	.byte	0
	.uleb128 0x28
	.4byte	.LVL173
	.4byte	0x2064
	.4byte	0x1933
	.uleb128 0x29
	.uleb128 0x1
	.byte	0x50
	.uleb128 0x2
	.byte	0x78
	.sleb128 0
	.uleb128 0x29
	.uleb128 0x1
	.byte	0x51
	.uleb128 0x2
	.byte	0x74
	.sleb128 25
	.byte	0
	.uleb128 0x28
	.4byte	.LVL174
	.4byte	0x2064
	.4byte	0x1952
	.uleb128 0x29
	.uleb128 0x1
	.byte	0x50
	.uleb128 0x2
	.byte	0x78
	.sleb128 0
	.uleb128 0x29
	.uleb128 0x1
	.byte	0x51
	.uleb128 0x2
	.byte	0x76
	.sleb128 0
	.uleb128 0x29
	.uleb128 0x1
	.byte	0x52
	.uleb128 0x1
	.byte	0x38
	.byte	0
	.uleb128 0x28
	.4byte	.LVL175
	.4byte	0x203d
	.4byte	0x1966
	.uleb128 0x29
	.uleb128 0x1
	.byte	0x50
	.uleb128 0x2
	.byte	0x78
	.sleb128 0
	.byte	0
	.uleb128 0x31
	.4byte	.LVL176
	.4byte	0x203d
	.uleb128 0x29
	.uleb128 0x1
	.byte	0x50
	.uleb128 0x2
	.byte	0x78
	.sleb128 0
	.byte	0
	.byte	0
	.byte	0
	.uleb128 0x3d
	.4byte	0x1224
	.4byte	.LBI102
	.byte	.LVU383
	.4byte	.LBB102
	.4byte	.LBE102-.LBB102
	.byte	0x1
	.byte	0xaa
	.byte	0xc
	.4byte	0x1c86
	.uleb128 0x37
	.4byte	0x1250
	.4byte	.LLST45
	.4byte	.LVUS45
	.uleb128 0x37
	.4byte	0x1243
	.4byte	.LLST46
	.4byte	.LVUS46
	.uleb128 0x37
	.4byte	0x1236
	.4byte	.LLST47
	.4byte	.LVUS47
	.uleb128 0x39
	.4byte	0x125c
	.4byte	.LLST48
	.4byte	.LVUS48
	.uleb128 0x39
	.4byte	0x1268
	.4byte	.LLST49
	.4byte	.LVUS49
	.uleb128 0x3c
	.4byte	0x1276
	.4byte	.LBI104
	.byte	.LVU390
	.4byte	.LBB104
	.4byte	.LBE104-.LBB104
	.byte	0x1
	.2byte	0x1a5
	.byte	0x5
	.4byte	0x1a17
	.uleb128 0x37
	.4byte	0x1288
	.4byte	.LLST50
	.4byte	.LVUS50
	.uleb128 0x39
	.4byte	0x1294
	.4byte	.LLST51
	.4byte	.LVUS51
	.uleb128 0x31
	.4byte	.LVL139
	.4byte	0x2024
	.uleb128 0x29
	.uleb128 0x1
	.byte	0x51
	.uleb128 0x2
	.byte	0x76
	.sleb128 0
	.byte	0
	.byte	0
	.uleb128 0x3e
	.4byte	0x1142
	.4byte	.LBI106
	.byte	.LVU405
	.4byte	.Ldebug_ranges0+0x148
	.byte	0x1
	.2byte	0x1a5
	.byte	0x5
	.4byte	0x1a72
	.uleb128 0x37
	.4byte	0x116e
	.4byte	.LLST52
	.4byte	.LVUS52
	.uleb128 0x37
	.4byte	0x1161
	.4byte	.LLST53
	.4byte	.LVUS53
	.uleb128 0x37
	.4byte	0x1154
	.4byte	.LLST54
	.4byte	.LVUS54
	.uleb128 0x31
	.4byte	.LVL141
	.4byte	0x1d15
	.uleb128 0x29
	.uleb128 0x1
	.byte	0x50
	.uleb128 0x2
	.byte	0x75
	.sleb128 0
	.uleb128 0x29
	.uleb128 0x1
	.byte	0x51
	.uleb128 0x2
	.byte	0x77
	.sleb128 0
	.uleb128 0x3b
	.4byte	0x1134
	.uleb128 0x1
	.byte	0x30
	.byte	0
	.byte	0
	.uleb128 0x3c
	.4byte	0x11a9
	.4byte	.LBI110
	.byte	.LVU427
	.4byte	.LBB110
	.4byte	.LBE110-.LBB110
	.byte	0x1
	.2byte	0x1b5
	.byte	0xa
	.4byte	0x1b25
	.uleb128 0x37
	.4byte	0x11c8
	.4byte	.LLST55
	.4byte	.LVUS55
	.uleb128 0x37
	.4byte	0x11bb
	.4byte	.LLST56
	.4byte	.LVUS56
	.uleb128 0x28
	.4byte	.LVL152
	.4byte	0x2024
	.4byte	0x1aba
	.uleb128 0x29
	.uleb128 0x1
	.byte	0x51
	.uleb128 0x2
	.byte	0x76
	.sleb128 0
	.byte	0
	.uleb128 0x28
	.4byte	.LVL153
	.4byte	0x203d
	.4byte	0x1ad6
	.uleb128 0x29
	.uleb128 0x1
	.byte	0x50
	.uleb128 0x2
	.byte	0x75
	.sleb128 0
	.uleb128 0x29
	.uleb128 0x1
	.byte	0x51
	.uleb128 0x4
	.byte	0x76
	.sleb128 0
	.byte	0x48
	.byte	0x25
	.byte	0
	.uleb128 0x28
	.4byte	.LVL154
	.4byte	0x203d
	.4byte	0x1af2
	.uleb128 0x29
	.uleb128 0x1
	.byte	0x50
	.uleb128 0x2
	.byte	0x75
	.sleb128 0
	.uleb128 0x29
	.uleb128 0x1
	.byte	0x51
	.uleb128 0x4
	.byte	0x76
	.sleb128 0
	.byte	0x40
	.byte	0x25
	.byte	0
	.uleb128 0x28
	.4byte	.LVL155
	.4byte	0x203d
	.4byte	0x1b0e
	.uleb128 0x29
	.uleb128 0x1
	.byte	0x50
	.uleb128 0x2
	.byte	0x75
	.sleb128 0
	.uleb128 0x29
	.uleb128 0x1
	.byte	0x51
	.uleb128 0x4
	.byte	0x76
	.sleb128 0
	.byte	0x38
	.byte	0x25
	.byte	0
	.uleb128 0x31
	.4byte	.LVL156
	.4byte	0x203d
	.uleb128 0x29
	.uleb128 0x1
	.byte	0x50
	.uleb128 0x2
	.byte	0x75
	.sleb128 0
	.uleb128 0x29
	.uleb128 0x1
	.byte	0x51
	.uleb128 0x2
	.byte	0x76
	.sleb128 0
	.byte	0
	.byte	0
	.uleb128 0x3c
	.4byte	0x1ceb
	.4byte	.LBI112
	.byte	.LVU455
	.4byte	.LBB112
	.4byte	.LBE112-.LBB112
	.byte	0x1
	.2byte	0x1c8
	.byte	0xc
	.4byte	0x1b6a
	.uleb128 0x37
	.4byte	0x1cfc
	.4byte	.LLST57
	.4byte	.LVUS57
	.uleb128 0x39
	.4byte	0x1d08
	.4byte	.LLST58
	.4byte	.LVUS58
	.uleb128 0x31
	.4byte	.LVL167
	.4byte	0x2024
	.uleb128 0x29
	.uleb128 0x1
	.byte	0x51
	.uleb128 0x2
	.byte	0x77
	.sleb128 0
	.byte	0
	.byte	0
	.uleb128 0x27
	.4byte	.LVL134
	.4byte	0x2024
	.uleb128 0x27
	.4byte	.LVL135
	.4byte	0x2024
	.uleb128 0x27
	.4byte	.LVL136
	.4byte	0x2024
	.uleb128 0x28
	.4byte	.LVL142
	.4byte	0x2024
	.4byte	0x1b99
	.uleb128 0x29
	.uleb128 0x1
	.byte	0x51
	.uleb128 0x2
	.byte	0x77
	.sleb128 0
	.byte	0
	.uleb128 0x27
	.4byte	.LVL143
	.4byte	0x2024
	.uleb128 0x27
	.4byte	.LVL144
	.4byte	0x2024
	.uleb128 0x28
	.4byte	.LVL145
	.4byte	0x203d
	.4byte	0x1bbf
	.uleb128 0x29
	.uleb128 0x1
	.byte	0x50
	.uleb128 0x2
	.byte	0x75
	.sleb128 0
	.byte	0
	.uleb128 0x27
	.4byte	.LVL146
	.4byte	0x2024
	.uleb128 0x28
	.4byte	.LVL147
	.4byte	0x203d
	.4byte	0x1bdc
	.uleb128 0x29
	.uleb128 0x1
	.byte	0x50
	.uleb128 0x2
	.byte	0x75
	.sleb128 0
	.byte	0
	.uleb128 0x28
	.4byte	.LVL148
	.4byte	0x2024
	.4byte	0x1bf0
	.uleb128 0x29
	.uleb128 0x1
	.byte	0x52
	.uleb128 0x2
	.byte	0x76
	.sleb128 0
	.byte	0
	.uleb128 0x28
	.4byte	.LVL149
	.4byte	0x2064
	.4byte	0x1c0a
	.uleb128 0x29
	.uleb128 0x1
	.byte	0x50
	.uleb128 0x2
	.byte	0x75
	.sleb128 0
	.uleb128 0x29
	.uleb128 0x1
	.byte	0x51
	.uleb128 0x2
	.byte	0x76
	.sleb128 0
	.byte	0
	.uleb128 0x27
	.4byte	.LVL150
	.4byte	0x2024
	.uleb128 0x28
	.4byte	.LVL159
	.4byte	0x2024
	.4byte	0x1c27
	.uleb128 0x29
	.uleb128 0x1
	.byte	0x51
	.uleb128 0x2
	.byte	0x76
	.sleb128 0
	.byte	0
	.uleb128 0x27
	.4byte	.LVL160
	.4byte	0x2024
	.uleb128 0x28
	.4byte	.LVL161
	.4byte	0x2070
	.4byte	0x1c44
	.uleb128 0x29
	.uleb128 0x1
	.byte	0x50
	.uleb128 0x2
	.byte	0x75
	.sleb128 0
	.byte	0
	.uleb128 0x28
	.4byte	.LVL163
	.4byte	0x2024
	.4byte	0x1c58
	.uleb128 0x29
	.uleb128 0x1
	.byte	0x51
	.uleb128 0x2
	.byte	0x78
	.sleb128 0
	.byte	0
	.uleb128 0x28
	.4byte	.LVL168
	.4byte	0x207d
	.4byte	0x1c6c
	.uleb128 0x29
	.uleb128 0x1
	.byte	0x50
	.uleb128 0x2
	.byte	0x75
	.sleb128 0
	.byte	0
	.uleb128 0x27
	.4byte	.LVL169
	.4byte	0x2024
	.uleb128 0x31
	.4byte	.LVL171
	.4byte	0x2024
	.uleb128 0x29
	.uleb128 0x1
	.byte	0x51
	.uleb128 0x2
	.byte	0x76
	.sleb128 0
	.byte	0
	.byte	0
	.uleb128 0x27
	.4byte	.LVL88
	.4byte	0x1cbc
	.uleb128 0x27
	.4byte	.LVL89
	.4byte	0x2024
	.uleb128 0x28
	.4byte	.LVL94
	.4byte	0x2024
	.4byte	0x1cb2
	.uleb128 0x29
	.uleb128 0x1
	.byte	0x51
	.uleb128 0x2
	.byte	0x77
	.sleb128 0
	.uleb128 0x29
	.uleb128 0x1
	.byte	0x52
	.uleb128 0x2
	.byte	0x74
	.sleb128 0
	.byte	0
	.uleb128 0x27
	.4byte	.LVL96
	.4byte	0x2024
	.byte	0
	.uleb128 0x34
	.4byte	.LASF220
	.byte	0x1
	.byte	0x42
	.byte	0xd
	.4byte	0xb6
	.4byte	.LFB21
	.4byte	.LFE21-.LFB21
	.uleb128 0x1
	.byte	0x9c
	.4byte	0x1ceb
	.uleb128 0x2c
	.4byte	.LASF65
	.byte	0x1
	.byte	0x42
	.byte	0x28
	.4byte	0x346
	.4byte	.LLST0
	.4byte	.LVUS0
	.byte	0
	.uleb128 0x3f
	.4byte	.LASF221
	.byte	0x1
	.byte	0x2c
	.byte	0x1
	.4byte	0x69
	.byte	0x1
	.4byte	0x1d15
	.uleb128 0x40
	.ascii	"ctb\000"
	.byte	0x1
	.byte	0x2c
	.byte	0x17
	.4byte	0x69
	.uleb128 0x41
	.ascii	"res\000"
	.byte	0x1
	.byte	0x31
	.byte	0x7
	.4byte	0x69
	.byte	0
	.uleb128 0x42
	.4byte	0x10fb
	.4byte	.LFB38
	.4byte	.LFE38-.LFB38
	.uleb128 0x1
	.byte	0x9c
	.4byte	0x2024
	.uleb128 0x37
	.4byte	0x110d
	.4byte	.LLST14
	.4byte	.LVUS14
	.uleb128 0x37
	.4byte	0x111a
	.4byte	.LLST15
	.4byte	.LVUS15
	.uleb128 0x37
	.4byte	0x1127
	.4byte	.LLST16
	.4byte	.LVUS16
	.uleb128 0x43
	.4byte	0x1134
	.byte	0
	.uleb128 0x3e
	.4byte	0x1ceb
	.4byte	.LBI53
	.byte	.LVU172
	.4byte	.Ldebug_ranges0+0xa8
	.byte	0x1
	.2byte	0x236
	.byte	0x7
	.4byte	0x1d9c
	.uleb128 0x37
	.4byte	0x1cfc
	.4byte	.LLST17
	.4byte	.LVUS17
	.uleb128 0x38
	.4byte	.Ldebug_ranges0+0xa8
	.uleb128 0x39
	.4byte	0x1d08
	.4byte	.LLST18
	.4byte	.LVUS18
	.uleb128 0x31
	.4byte	.LVL49
	.4byte	0x2024
	.uleb128 0x29
	.uleb128 0x1
	.byte	0x51
	.uleb128 0x2
	.byte	0x76
	.sleb128 0
	.byte	0
	.byte	0
	.byte	0
	.uleb128 0x3e
	.4byte	0x10b4
	.4byte	.LBI57
	.byte	.LVU208
	.4byte	.Ldebug_ranges0+0xc0
	.byte	0x1
	.2byte	0x238
	.byte	0xc
	.4byte	0x1eff
	.uleb128 0x37
	.4byte	0x10ed
	.4byte	.LLST19
	.4byte	.LVUS19
	.uleb128 0x37
	.4byte	0x10e0
	.4byte	.LLST20
	.4byte	.LVUS20
	.uleb128 0x37
	.4byte	0x10d3
	.4byte	.LLST21
	.4byte	.LVUS21
	.uleb128 0x37
	.4byte	0x10c6
	.4byte	.LLST22
	.4byte	.LVUS22
	.uleb128 0x28
	.4byte	.LVL61
	.4byte	0x2024
	.4byte	0x1e05
	.uleb128 0x29
	.uleb128 0x1
	.byte	0x51
	.uleb128 0x2
	.byte	0x74
	.sleb128 0
	.uleb128 0x29
	.uleb128 0x1
	.byte	0x52
	.uleb128 0x2
	.byte	0x75
	.sleb128 0
	.uleb128 0x29
	.uleb128 0x1
	.byte	0x53
	.uleb128 0x1
	.byte	0x30
	.byte	0
	.uleb128 0x28
	.4byte	.LVL62
	.4byte	0x203d
	.4byte	0x1e1f
	.uleb128 0x29
	.uleb128 0x1
	.byte	0x50
	.uleb128 0x2
	.byte	0x77
	.sleb128 0
	.uleb128 0x29
	.uleb128 0x1
	.byte	0x51
	.uleb128 0x2
	.byte	0x74
	.sleb128 0
	.byte	0
	.uleb128 0x28
	.4byte	.LVL63
	.4byte	0x2024
	.4byte	0x1e33
	.uleb128 0x29
	.uleb128 0x1
	.byte	0x51
	.uleb128 0x2
	.byte	0x75
	.sleb128 0
	.byte	0
	.uleb128 0x28
	.4byte	.LVL64
	.4byte	0x203d
	.4byte	0x1e4d
	.uleb128 0x29
	.uleb128 0x1
	.byte	0x50
	.uleb128 0x2
	.byte	0x77
	.sleb128 0
	.uleb128 0x29
	.uleb128 0x1
	.byte	0x51
	.uleb128 0x2
	.byte	0x8
	.byte	0xff
	.byte	0
	.uleb128 0x28
	.4byte	.LVL65
	.4byte	0x203d
	.4byte	0x1e69
	.uleb128 0x29
	.uleb128 0x1
	.byte	0x50
	.uleb128 0x2
	.byte	0x77
	.sleb128 0
	.uleb128 0x29
	.uleb128 0x1
	.byte	0x51
	.uleb128 0x4
	.byte	0x75
	.sleb128 0
	.byte	0x48
	.byte	0x25
	.byte	0
	.uleb128 0x28
	.4byte	.LVL66
	.4byte	0x203d
	.4byte	0x1e89
	.uleb128 0x29
	.uleb128 0x1
	.byte	0x50
	.uleb128 0x2
	.byte	0x77
	.sleb128 0
	.uleb128 0x29
	.uleb128 0x1
	.byte	0x51
	.uleb128 0x8
	.byte	0x75
	.sleb128 0
	.byte	0x9
	.byte	0xec
	.byte	0x24
	.byte	0x9
	.byte	0xfc
	.byte	0x25
	.byte	0
	.uleb128 0x28
	.4byte	.LVL67
	.4byte	0x203d
	.4byte	0x1ea9
	.uleb128 0x29
	.uleb128 0x1
	.byte	0x50
	.uleb128 0x2
	.byte	0x77
	.sleb128 0
	.uleb128 0x29
	.uleb128 0x1
	.byte	0x51
	.uleb128 0x8
	.byte	0x75
	.sleb128 0
	.byte	0x9
	.byte	0xf4
	.byte	0x24
	.byte	0x9
	.byte	0xfc
	.byte	0x25
	.byte	0
	.uleb128 0x44
	.4byte	.LVL70
	.4byte	0x203d
	.4byte	0x1ebe
	.uleb128 0x29
	.uleb128 0x1
	.byte	0x50
	.uleb128 0x3
	.byte	0xf3
	.uleb128 0x1
	.byte	0x50
	.byte	0
	.uleb128 0x27
	.4byte	.LVL77
	.4byte	0x2024
	.uleb128 0x44
	.4byte	.LVL79
	.4byte	0x207d
	.4byte	0x1ee3
	.uleb128 0x29
	.uleb128 0x1
	.byte	0x50
	.uleb128 0x3
	.byte	0xf3
	.uleb128 0x1
	.byte	0x50
	.uleb128 0x29
	.uleb128 0x1
	.byte	0x51
	.uleb128 0x3
	.byte	0xa
	.2byte	0x200
	.byte	0
	.uleb128 0x31
	.4byte	.LVL83
	.4byte	0x203d
	.uleb128 0x29
	.uleb128 0x1
	.byte	0x50
	.uleb128 0x2
	.byte	0x77
	.sleb128 0
	.uleb128 0x29
	.uleb128 0x1
	.byte	0x51
	.uleb128 0x7
	.byte	0x75
	.sleb128 0
	.byte	0x38
	.byte	0x25
	.byte	0x23
	.uleb128 0xc0
	.byte	0
	.byte	0
	.uleb128 0x28
	.4byte	.LVL48
	.4byte	0x2024
	.4byte	0x1f1e
	.uleb128 0x29
	.uleb128 0x1
	.byte	0x51
	.uleb128 0x2
	.byte	0x75
	.sleb128 0
	.uleb128 0x29
	.uleb128 0x1
	.byte	0x52
	.uleb128 0x1
	.byte	0x30
	.uleb128 0x29
	.uleb128 0x1
	.byte	0x53
	.uleb128 0x2
	.byte	0x74
	.sleb128 0
	.byte	0
	.uleb128 0x28
	.4byte	.LVL50
	.4byte	0x2024
	.4byte	0x1f32
	.uleb128 0x29
	.uleb128 0x1
	.byte	0x51
	.uleb128 0x2
	.byte	0x75
	.sleb128 0
	.byte	0
	.uleb128 0x28
	.4byte	.LVL52
	.4byte	0x203d
	.4byte	0x1f4c
	.uleb128 0x29
	.uleb128 0x1
	.byte	0x50
	.uleb128 0x2
	.byte	0x77
	.sleb128 0
	.uleb128 0x29
	.uleb128 0x1
	.byte	0x51
	.uleb128 0x2
	.byte	0x74
	.sleb128 0
	.byte	0
	.uleb128 0x28
	.4byte	.LVL53
	.4byte	0x2024
	.4byte	0x1f66
	.uleb128 0x29
	.uleb128 0x1
	.byte	0x51
	.uleb128 0x2
	.byte	0x74
	.sleb128 0
	.uleb128 0x29
	.uleb128 0x1
	.byte	0x52
	.uleb128 0x2
	.byte	0x75
	.sleb128 0
	.byte	0
	.uleb128 0x2a
	.4byte	.LVL55
	.4byte	0x13cc
	.uleb128 0x28
	.4byte	.LVL57
	.4byte	0x203d
	.4byte	0x1f89
	.uleb128 0x29
	.uleb128 0x1
	.byte	0x50
	.uleb128 0x2
	.byte	0x77
	.sleb128 0
	.uleb128 0x29
	.uleb128 0x1
	.byte	0x51
	.uleb128 0x2
	.byte	0x74
	.sleb128 0
	.byte	0
	.uleb128 0x28
	.4byte	.LVL58
	.4byte	0x203d
	.4byte	0x1fa5
	.uleb128 0x29
	.uleb128 0x1
	.byte	0x50
	.uleb128 0x2
	.byte	0x77
	.sleb128 0
	.uleb128 0x29
	.uleb128 0x1
	.byte	0x51
	.uleb128 0x4
	.byte	0x75
	.sleb128 0
	.byte	0x38
	.byte	0x25
	.byte	0
	.uleb128 0x28
	.4byte	.LVL59
	.4byte	0x203d
	.4byte	0x1fbf
	.uleb128 0x29
	.uleb128 0x1
	.byte	0x50
	.uleb128 0x2
	.byte	0x77
	.sleb128 0
	.uleb128 0x29
	.uleb128 0x1
	.byte	0x51
	.uleb128 0x2
	.byte	0x75
	.sleb128 0
	.byte	0
	.uleb128 0x27
	.4byte	.LVL60
	.4byte	0x2024
	.uleb128 0x28
	.4byte	.LVL73
	.4byte	0x203d
	.4byte	0x1fe2
	.uleb128 0x29
	.uleb128 0x1
	.byte	0x50
	.uleb128 0x2
	.byte	0x77
	.sleb128 0
	.uleb128 0x29
	.uleb128 0x1
	.byte	0x51
	.uleb128 0x2
	.byte	0x74
	.sleb128 0
	.byte	0
	.uleb128 0x28
	.4byte	.LVL74
	.4byte	0x203d
	.4byte	0x1ffe
	.uleb128 0x29
	.uleb128 0x1
	.byte	0x50
	.uleb128 0x2
	.byte	0x77
	.sleb128 0
	.uleb128 0x29
	.uleb128 0x1
	.byte	0x51
	.uleb128 0x4
	.byte	0x75
	.sleb128 0
	.byte	0x48
	.byte	0x25
	.byte	0
	.uleb128 0x28
	.4byte	.LVL75
	.4byte	0x203d
	.4byte	0x201a
	.uleb128 0x29
	.uleb128 0x1
	.byte	0x50
	.uleb128 0x2
	.byte	0x77
	.sleb128 0
	.uleb128 0x29
	.uleb128 0x1
	.byte	0x51
	.uleb128 0x4
	.byte	0x75
	.sleb128 0
	.byte	0x40
	.byte	0x25
	.byte	0
	.uleb128 0x2a
	.4byte	.LVL81
	.4byte	0x2024
	.byte	0
	.uleb128 0x45
	.4byte	.LASF222
	.4byte	.LASF222
	.byte	0xc
	.byte	0x4c
	.byte	0x6
	.uleb128 0x46
	.4byte	.LASF223
	.4byte	.LASF223
	.byte	0x8
	.2byte	0x129
	.byte	0x9
	.uleb128 0x46
	.4byte	.LASF224
	.4byte	.LASF224
	.byte	0x8
	.2byte	0x217
	.byte	0x5
	.uleb128 0x46
	.4byte	.LASF225
	.4byte	.LASF225
	.byte	0x8
	.2byte	0x22d
	.byte	0x5
	.uleb128 0x46
	.4byte	.LASF226
	.4byte	.LASF226
	.byte	0x8
	.2byte	0x164
	.byte	0x5
	.uleb128 0x45
	.4byte	.LASF227
	.4byte	.LASF227
	.byte	0xd
	.byte	0x44
	.byte	0x5
	.uleb128 0x46
	.4byte	.LASF228
	.4byte	.LASF228
	.byte	0x8
	.2byte	0x23c
	.byte	0x8
	.uleb128 0x46
	.4byte	.LASF229
	.4byte	.LASF229
	.byte	0x8
	.2byte	0x25b
	.byte	0x6
	.byte	0
	.section	.debug_abbrev,"",%progbits
.Ldebug_abbrev0:
	.uleb128 0x1
	.uleb128 0x11
	.byte	0x1
	.uleb128 0x25
	.uleb128 0xe
	.uleb128 0x13
	.uleb128 0xb
	.uleb128 0x3
	.uleb128 0xe
	.uleb128 0x1b
	.uleb128 0xe
	.uleb128 0x55
	.uleb128 0x17
	.uleb128 0x11
	.uleb128 0x1
	.uleb128 0x10
	.uleb128 0x17
	.byte	0
	.byte	0
	.uleb128 0x2
	.uleb128 0x24
	.byte	0
	.uleb128 0xb
	.uleb128 0xb
	.uleb128 0x3e
	.uleb128 0xb
	.uleb128 0x3
	.uleb128 0xe
	.byte	0
	.byte	0
	.uleb128 0x3
	.uleb128 0x16
	.byte	0
	.uleb128 0x3
	.uleb128 0xe
	.uleb128 0x3a
	.uleb128 0xb
	.uleb128 0x3b
	.uleb128 0xb
	.uleb128 0x39
	.uleb128 0xb
	.uleb128 0x49
	.uleb128 0x13
	.byte	0
	.byte	0
	.uleb128 0x4
	.uleb128 0x24
	.byte	0
	.uleb128 0xb
	.uleb128 0xb
	.uleb128 0x3e
	.uleb128 0xb
	.uleb128 0x3
	.uleb128 0x8
	.byte	0
	.byte	0
	.uleb128 0x5
	.uleb128 0xf
	.byte	0
	.uleb128 0xb
	.uleb128 0xb
	.byte	0
	.byte	0
	.uleb128 0x6
	.uleb128 0xf
	.byte	0
	.uleb128 0xb
	.uleb128 0xb
	.uleb128 0x49
	.uleb128 0x13
	.byte	0
	.byte	0
	.uleb128 0x7
	.uleb128 0x26
	.byte	0
	.uleb128 0x49
	.uleb128 0x13
	.byte	0
	.byte	0
	.uleb128 0x8
	.uleb128 0x16
	.byte	0
	.uleb128 0x3
	.uleb128 0x8
	.uleb128 0x3a
	.uleb128 0xb
	.uleb128 0x3b
	.uleb128 0xb
	.uleb128 0x39
	.uleb128 0xb
	.uleb128 0x49
	.uleb128 0x13
	.byte	0
	.byte	0
	.uleb128 0x9
	.uleb128 0x1
	.byte	0x1
	.uleb128 0x49
	.uleb128 0x13
	.uleb128 0x1
	.uleb128 0x13
	.byte	0
	.byte	0
	.uleb128 0xa
	.uleb128 0x21
	.byte	0
	.uleb128 0x49
	.uleb128 0x13
	.uleb128 0x2f
	.uleb128 0xb
	.byte	0
	.byte	0
	.uleb128 0xb
	.uleb128 0x4
	.byte	0x1
	.uleb128 0x3
	.uleb128 0xe
	.uleb128 0x3e
	.uleb128 0xb
	.uleb128 0xb
	.uleb128 0xb
	.uleb128 0x49
	.uleb128 0x13
	.uleb128 0x3a
	.uleb128 0xb
	.uleb128 0x3b
	.uleb128 0xb
	.uleb128 0x39
	.uleb128 0xb
	.uleb128 0x1
	.uleb128 0x13
	.byte	0
	.byte	0
	.uleb128 0xc
	.uleb128 0x28
	.byte	0
	.uleb128 0x3
	.uleb128 0xe
	.uleb128 0x1c
	.uleb128 0xb
	.byte	0
	.byte	0
	.uleb128 0xd
	.uleb128 0x13
	.byte	0x1
	.uleb128 0x3
	.uleb128 0xe
	.uleb128 0xb
	.uleb128 0xb
	.uleb128 0x3a
	.uleb128 0xb
	.uleb128 0x3b
	.uleb128 0xb
	.uleb128 0x39
	.uleb128 0xb
	.uleb128 0x1
	.uleb128 0x13
	.byte	0
	.byte	0
	.uleb128 0xe
	.uleb128 0xd
	.byte	0
	.uleb128 0x3
	.uleb128 0x8
	.uleb128 0x3a
	.uleb128 0xb
	.uleb128 0x3b
	.uleb128 0xb
	.uleb128 0x39
	.uleb128 0xb
	.uleb128 0x49
	.uleb128 0x13
	.uleb128 0x38
	.uleb128 0xb
	.byte	0
	.byte	0
	.uleb128 0xf
	.uleb128 0xd
	.byte	0
	.uleb128 0x3
	.uleb128 0xe
	.uleb128 0x3a
	.uleb128 0xb
	.uleb128 0x3b
	.uleb128 0xb
	.uleb128 0x39
	.uleb128 0xb
	.uleb128 0x49
	.uleb128 0x13
	.uleb128 0x38
	.uleb128 0xb
	.byte	0
	.byte	0
	.uleb128 0x10
	.uleb128 0xd
	.byte	0
	.uleb128 0x3
	.uleb128 0x8
	.uleb128 0x3a
	.uleb128 0xb
	.uleb128 0x3b
	.uleb128 0x5
	.uleb128 0x39
	.uleb128 0xb
	.uleb128 0x49
	.uleb128 0x13
	.uleb128 0x38
	.uleb128 0xb
	.byte	0
	.byte	0
	.uleb128 0x11
	.uleb128 0xd
	.byte	0
	.uleb128 0x3
	.uleb128 0xe
	.uleb128 0x3a
	.uleb128 0xb
	.uleb128 0x3b
	.uleb128 0x5
	.uleb128 0x39
	.uleb128 0xb
	.uleb128 0x49
	.uleb128 0x13
	.uleb128 0x38
	.uleb128 0xb
	.byte	0
	.byte	0
	.uleb128 0x12
	.uleb128 0x13
	.byte	0x1
	.uleb128 0xb
	.uleb128 0xb
	.uleb128 0x3a
	.uleb128 0xb
	.uleb128 0x3b
	.uleb128 0xb
	.uleb128 0x39
	.uleb128 0xb
	.uleb128 0x1
	.uleb128 0x13
	.byte	0
	.byte	0
	.uleb128 0x13
	.uleb128 0x15
	.byte	0x1
	.uleb128 0x27
	.uleb128 0x19
	.uleb128 0x49
	.uleb128 0x13
	.uleb128 0x1
	.uleb128 0x13
	.byte	0
	.byte	0
	.uleb128 0x14
	.uleb128 0x5
	.byte	0
	.uleb128 0x49
	.uleb128 0x13
	.byte	0
	.byte	0
	.uleb128 0x15
	.uleb128 0x4
	.byte	0x1
	.uleb128 0x3e
	.uleb128 0xb
	.uleb128 0xb
	.uleb128 0xb
	.uleb128 0x49
	.uleb128 0x13
	.uleb128 0x3a
	.uleb128 0xb
	.uleb128 0x3b
	.uleb128 0xb
	.uleb128 0x39
	.uleb128 0xb
	.uleb128 0x1
	.uleb128 0x13
	.byte	0
	.byte	0
	.uleb128 0x16
	.uleb128 0x13
	.byte	0
	.uleb128 0x3
	.uleb128 0xe
	.uleb128 0x3c
	.uleb128 0x19
	.byte	0
	.byte	0
	.uleb128 0x17
	.uleb128 0x13
	.byte	0x1
	.uleb128 0x3
	.uleb128 0xe
	.uleb128 0xb
	.uleb128 0xb
	.uleb128 0x3a
	.uleb128 0xb
	.uleb128 0x3b
	.uleb128 0x5
	.uleb128 0x39
	.uleb128 0xb
	.uleb128 0x1
	.uleb128 0x13
	.byte	0
	.byte	0
	.uleb128 0x18
	.uleb128 0xd
	.byte	0
	.uleb128 0x3
	.uleb128 0xe
	.uleb128 0x3a
	.uleb128 0xb
	.uleb128 0x3b
	.uleb128 0xb
	.uleb128 0x39
	.uleb128 0xb
	.uleb128 0x49
	.uleb128 0x13
	.uleb128 0xb
	.uleb128 0xb
	.uleb128 0xd
	.uleb128 0xb
	.uleb128 0xc
	.uleb128 0xb
	.uleb128 0x38
	.uleb128 0xb
	.byte	0
	.byte	0
	.uleb128 0x19
	.uleb128 0x16
	.byte	0
	.uleb128 0x3
	.uleb128 0xe
	.uleb128 0x3a
	.uleb128 0xb
	.uleb128 0x3b
	.uleb128 0x5
	.uleb128 0x39
	.uleb128 0xb
	.uleb128 0x49
	.uleb128 0x13
	.byte	0
	.byte	0
	.uleb128 0x1a
	.uleb128 0x13
	.byte	0x1
	.uleb128 0xb
	.uleb128 0xb
	.uleb128 0x3a
	.uleb128 0xb
	.uleb128 0x3b
	.uleb128 0x5
	.uleb128 0x39
	.uleb128 0xb
	.uleb128 0x1
	.uleb128 0x13
	.byte	0
	.byte	0
	.uleb128 0x1b
	.uleb128 0xd
	.byte	0
	.uleb128 0x3
	.uleb128 0x8
	.uleb128 0x3a
	.uleb128 0xb
	.uleb128 0x3b
	.uleb128 0x5
	.uleb128 0x39
	.uleb128 0xb
	.uleb128 0x49
	.uleb128 0x13
	.uleb128 0xb
	.uleb128 0xb
	.uleb128 0xd
	.uleb128 0xb
	.uleb128 0xc
	.uleb128 0xb
	.uleb128 0x38
	.uleb128 0xb
	.byte	0
	.byte	0
	.uleb128 0x1c
	.uleb128 0xd
	.byte	0
	.uleb128 0x3
	.uleb128 0xe
	.uleb128 0x3a
	.uleb128 0xb
	.uleb128 0x3b
	.uleb128 0x5
	.uleb128 0x39
	.uleb128 0xb
	.uleb128 0x49
	.uleb128 0x13
	.uleb128 0xb
	.uleb128 0xb
	.uleb128 0xd
	.uleb128 0xb
	.uleb128 0xc
	.uleb128 0xb
	.uleb128 0x38
	.uleb128 0xb
	.byte	0
	.byte	0
	.uleb128 0x1d
	.uleb128 0x17
	.byte	0x1
	.uleb128 0xb
	.uleb128 0xb
	.uleb128 0x3a
	.uleb128 0xb
	.uleb128 0x3b
	.uleb128 0x5
	.uleb128 0x39
	.uleb128 0xb
	.uleb128 0x1
	.uleb128 0x13
	.byte	0
	.byte	0
	.uleb128 0x1e
	.uleb128 0xd
	.byte	0
	.uleb128 0x3
	.uleb128 0xe
	.uleb128 0x3a
	.uleb128 0xb
	.uleb128 0x3b
	.uleb128 0x5
	.uleb128 0x39
	.uleb128 0xb
	.uleb128 0x49
	.uleb128 0x13
	.byte	0
	.byte	0
	.uleb128 0x1f
	.uleb128 0xd
	.byte	0
	.uleb128 0x3
	.uleb128 0x8
	.uleb128 0x3a
	.uleb128 0xb
	.uleb128 0x3b
	.uleb128 0x5
	.uleb128 0x39
	.uleb128 0xb
	.uleb128 0x49
	.uleb128 0x13
	.byte	0
	.byte	0
	.uleb128 0x20
	.uleb128 0x2e
	.byte	0x1
	.uleb128 0x3
	.uleb128 0xe
	.uleb128 0x3a
	.uleb128 0xb
	.uleb128 0x3b
	.uleb128 0x5
	.uleb128 0x39
	.uleb128 0xb
	.uleb128 0x27
	.uleb128 0x19
	.uleb128 0x49
	.uleb128 0x13
	.uleb128 0x20
	.uleb128 0xb
	.uleb128 0x1
	.uleb128 0x13
	.byte	0
	.byte	0
	.uleb128 0x21
	.uleb128 0x5
	.byte	0
	.uleb128 0x3
	.uleb128 0x8
	.uleb128 0x3a
	.uleb128 0xb
	.uleb128 0x3b
	.uleb128 0x5
	.uleb128 0x39
	.uleb128 0xb
	.uleb128 0x49
	.uleb128 0x13
	.byte	0
	.byte	0
	.uleb128 0x22
	.uleb128 0x5
	.byte	0
	.uleb128 0x3
	.uleb128 0xe
	.uleb128 0x3a
	.uleb128 0xb
	.uleb128 0x3b
	.uleb128 0x5
	.uleb128 0x39
	.uleb128 0xb
	.uleb128 0x49
	.uleb128 0x13
	.byte	0
	.byte	0
	.uleb128 0x23
	.uleb128 0x34
	.byte	0
	.uleb128 0x3
	.uleb128 0x8
	.uleb128 0x3a
	.uleb128 0xb
	.uleb128 0x3b
	.uleb128 0x5
	.uleb128 0x39
	.uleb128 0xb
	.uleb128 0x49
	.uleb128 0x13
	.byte	0
	.byte	0
	.uleb128 0x24
	.uleb128 0x34
	.byte	0
	.uleb128 0x3
	.uleb128 0xe
	.uleb128 0x3a
	.uleb128 0xb
	.uleb128 0x3b
	.uleb128 0x5
	.uleb128 0x39
	.uleb128 0xb
	.uleb128 0x49
	.uleb128 0x13
	.byte	0
	.byte	0
	.uleb128 0x25
	.uleb128 0x2e
	.byte	0x1
	.uleb128 0x3f
	.uleb128 0x19
	.uleb128 0x3
	.uleb128 0xe
	.uleb128 0x3a
	.uleb128 0xb
	.uleb128 0x3b
	.uleb128 0x5
	.uleb128 0x39
	.uleb128 0xb
	.uleb128 0x27
	.uleb128 0x19
	.uleb128 0x11
	.uleb128 0x1
	.uleb128 0x12
	.uleb128 0x6
	.uleb128 0x40
	.uleb128 0x18
	.uleb128 0x2117
	.uleb128 0x19
	.uleb128 0x1
	.uleb128 0x13
	.byte	0
	.byte	0
	.uleb128 0x26
	.uleb128 0x5
	.byte	0
	.uleb128 0x3
	.uleb128 0xe
	.uleb128 0x3a
	.uleb128 0xb
	.uleb128 0x3b
	.uleb128 0x5
	.uleb128 0x39
	.uleb128 0xb
	.uleb128 0x49
	.uleb128 0x13
	.uleb128 0x2
	.uleb128 0x17
	.uleb128 0x2137
	.uleb128 0x17
	.byte	0
	.byte	0
	.uleb128 0x27
	.uleb128 0x4109
	.byte	0
	.uleb128 0x11
	.uleb128 0x1
	.uleb128 0x31
	.uleb128 0x13
	.byte	0
	.byte	0
	.uleb128 0x28
	.uleb128 0x4109
	.byte	0x1
	.uleb128 0x11
	.uleb128 0x1
	.uleb128 0x31
	.uleb128 0x13
	.uleb128 0x1
	.uleb128 0x13
	.byte	0
	.byte	0
	.uleb128 0x29
	.uleb128 0x410a
	.byte	0
	.uleb128 0x2
	.uleb128 0x18
	.uleb128 0x2111
	.uleb128 0x18
	.byte	0
	.byte	0
	.uleb128 0x2a
	.uleb128 0x4109
	.byte	0
	.uleb128 0x11
	.uleb128 0x1
	.uleb128 0x2115
	.uleb128 0x19
	.uleb128 0x31
	.uleb128 0x13
	.byte	0
	.byte	0
	.uleb128 0x2b
	.uleb128 0x2e
	.byte	0x1
	.uleb128 0x3f
	.uleb128 0x19
	.uleb128 0x3
	.uleb128 0xe
	.uleb128 0x3a
	.uleb128 0xb
	.uleb128 0x3b
	.uleb128 0xb
	.uleb128 0x39
	.uleb128 0xb
	.uleb128 0x27
	.uleb128 0x19
	.uleb128 0x11
	.uleb128 0x1
	.uleb128 0x12
	.uleb128 0x6
	.uleb128 0x40
	.uleb128 0x18
	.uleb128 0x2117
	.uleb128 0x19
	.uleb128 0x1
	.uleb128 0x13
	.byte	0
	.byte	0
	.uleb128 0x2c
	.uleb128 0x5
	.byte	0
	.uleb128 0x3
	.uleb128 0xe
	.uleb128 0x3a
	.uleb128 0xb
	.uleb128 0x3b
	.uleb128 0xb
	.uleb128 0x39
	.uleb128 0xb
	.uleb128 0x49
	.uleb128 0x13
	.uleb128 0x2
	.uleb128 0x17
	.uleb128 0x2137
	.uleb128 0x17
	.byte	0
	.byte	0
	.uleb128 0x2d
	.uleb128 0x34
	.byte	0
	.uleb128 0x3
	.uleb128 0xe
	.uleb128 0x3a
	.uleb128 0xb
	.uleb128 0x3b
	.uleb128 0xb
	.uleb128 0x39
	.uleb128 0xb
	.uleb128 0x49
	.uleb128 0x13
	.uleb128 0x2
	.uleb128 0x18
	.byte	0
	.byte	0
	.uleb128 0x2e
	.uleb128 0x34
	.byte	0
	.uleb128 0x3
	.uleb128 0xe
	.uleb128 0x3a
	.uleb128 0xb
	.uleb128 0x3b
	.uleb128 0xb
	.uleb128 0x39
	.uleb128 0xb
	.uleb128 0x49
	.uleb128 0x13
	.uleb128 0x2
	.uleb128 0x17
	.uleb128 0x2137
	.uleb128 0x17
	.byte	0
	.byte	0
	.uleb128 0x2f
	.uleb128 0xb
	.byte	0x1
	.uleb128 0x55
	.uleb128 0x17
	.uleb128 0x1
	.uleb128 0x13
	.byte	0
	.byte	0
	.uleb128 0x30
	.uleb128 0x34
	.byte	0
	.uleb128 0x3
	.uleb128 0x8
	.uleb128 0x3a
	.uleb128 0xb
	.uleb128 0x3b
	.uleb128 0xb
	.uleb128 0x39
	.uleb128 0xb
	.uleb128 0x49
	.uleb128 0x13
	.uleb128 0x2
	.uleb128 0x17
	.uleb128 0x2137
	.uleb128 0x17
	.byte	0
	.byte	0
	.uleb128 0x31
	.uleb128 0x4109
	.byte	0x1
	.uleb128 0x11
	.uleb128 0x1
	.uleb128 0x31
	.uleb128 0x13
	.byte	0
	.byte	0
	.uleb128 0x32
	.uleb128 0xb
	.byte	0x1
	.uleb128 0x11
	.uleb128 0x1
	.uleb128 0x12
	.uleb128 0x6
	.uleb128 0x1
	.uleb128 0x13
	.byte	0
	.byte	0
	.uleb128 0x33
	.uleb128 0x34
	.byte	0
	.uleb128 0x3
	.uleb128 0x8
	.uleb128 0x3a
	.uleb128 0xb
	.uleb128 0x3b
	.uleb128 0x5
	.uleb128 0x39
	.uleb128 0xb
	.uleb128 0x49
	.uleb128 0x13
	.uleb128 0x2
	.uleb128 0x17
	.uleb128 0x2137
	.uleb128 0x17
	.byte	0
	.byte	0
	.uleb128 0x34
	.uleb128 0x2e
	.byte	0x1
	.uleb128 0x3f
	.uleb128 0x19
	.uleb128 0x3
	.uleb128 0xe
	.uleb128 0x3a
	.uleb128 0xb
	.uleb128 0x3b
	.uleb128 0xb
	.uleb128 0x39
	.uleb128 0xb
	.uleb128 0x27
	.uleb128 0x19
	.uleb128 0x49
	.uleb128 0x13
	.uleb128 0x11
	.uleb128 0x1
	.uleb128 0x12
	.uleb128 0x6
	.uleb128 0x40
	.uleb128 0x18
	.uleb128 0x2117
	.uleb128 0x19
	.uleb128 0x1
	.uleb128 0x13
	.byte	0
	.byte	0
	.uleb128 0x35
	.uleb128 0x5
	.byte	0
	.uleb128 0x3
	.uleb128 0x8
	.uleb128 0x3a
	.uleb128 0xb
	.uleb128 0x3b
	.uleb128 0xb
	.uleb128 0x39
	.uleb128 0xb
	.uleb128 0x49
	.uleb128 0x13
	.uleb128 0x2
	.uleb128 0x17
	.uleb128 0x2137
	.uleb128 0x17
	.byte	0
	.byte	0
	.uleb128 0x36
	.uleb128 0x1d
	.byte	0x1
	.uleb128 0x31
	.uleb128 0x13
	.uleb128 0x52
	.uleb128 0x1
	.uleb128 0x2138
	.uleb128 0xb
	.uleb128 0x55
	.uleb128 0x17
	.uleb128 0x58
	.uleb128 0xb
	.uleb128 0x59
	.uleb128 0xb
	.uleb128 0x57
	.uleb128 0xb
	.uleb128 0x1
	.uleb128 0x13
	.byte	0
	.byte	0
	.uleb128 0x37
	.uleb128 0x5
	.byte	0
	.uleb128 0x31
	.uleb128 0x13
	.uleb128 0x2
	.uleb128 0x17
	.uleb128 0x2137
	.uleb128 0x17
	.byte	0
	.byte	0
	.uleb128 0x38
	.uleb128 0xb
	.byte	0x1
	.uleb128 0x55
	.uleb128 0x17
	.byte	0
	.byte	0
	.uleb128 0x39
	.uleb128 0x34
	.byte	0
	.uleb128 0x31
	.uleb128 0x13
	.uleb128 0x2
	.uleb128 0x17
	.uleb128 0x2137
	.uleb128 0x17
	.byte	0
	.byte	0
	.uleb128 0x3a
	.uleb128 0x1d
	.byte	0x1
	.uleb128 0x31
	.uleb128 0x13
	.uleb128 0x52
	.uleb128 0x1
	.uleb128 0x2138
	.uleb128 0xb
	.uleb128 0x55
	.uleb128 0x17
	.uleb128 0x58
	.uleb128 0xb
	.uleb128 0x59
	.uleb128 0x5
	.uleb128 0x57
	.uleb128 0xb
	.byte	0
	.byte	0
	.uleb128 0x3b
	.uleb128 0x410a
	.byte	0
	.uleb128 0x31
	.uleb128 0x13
	.uleb128 0x2111
	.uleb128 0x18
	.byte	0
	.byte	0
	.uleb128 0x3c
	.uleb128 0x1d
	.byte	0x1
	.uleb128 0x31
	.uleb128 0x13
	.uleb128 0x52
	.uleb128 0x1
	.uleb128 0x2138
	.uleb128 0xb
	.uleb128 0x11
	.uleb128 0x1
	.uleb128 0x12
	.uleb128 0x6
	.uleb128 0x58
	.uleb128 0xb
	.uleb128 0x59
	.uleb128 0x5
	.uleb128 0x57
	.uleb128 0xb
	.uleb128 0x1
	.uleb128 0x13
	.byte	0
	.byte	0
	.uleb128 0x3d
	.uleb128 0x1d
	.byte	0x1
	.uleb128 0x31
	.uleb128 0x13
	.uleb128 0x52
	.uleb128 0x1
	.uleb128 0x2138
	.uleb128 0xb
	.uleb128 0x11
	.uleb128 0x1
	.uleb128 0x12
	.uleb128 0x6
	.uleb128 0x58
	.uleb128 0xb
	.uleb128 0x59
	.uleb128 0xb
	.uleb128 0x57
	.uleb128 0xb
	.uleb128 0x1
	.uleb128 0x13
	.byte	0
	.byte	0
	.uleb128 0x3e
	.uleb128 0x1d
	.byte	0x1
	.uleb128 0x31
	.uleb128 0x13
	.uleb128 0x52
	.uleb128 0x1
	.uleb128 0x2138
	.uleb128 0xb
	.uleb128 0x55
	.uleb128 0x17
	.uleb128 0x58
	.uleb128 0xb
	.uleb128 0x59
	.uleb128 0x5
	.uleb128 0x57
	.uleb128 0xb
	.uleb128 0x1
	.uleb128 0x13
	.byte	0
	.byte	0
	.uleb128 0x3f
	.uleb128 0x2e
	.byte	0x1
	.uleb128 0x3
	.uleb128 0xe
	.uleb128 0x3a
	.uleb128 0xb
	.uleb128 0x3b
	.uleb128 0xb
	.uleb128 0x39
	.uleb128 0xb
	.uleb128 0x27
	.uleb128 0x19
	.uleb128 0x49
	.uleb128 0x13
	.uleb128 0x20
	.uleb128 0xb
	.uleb128 0x1
	.uleb128 0x13
	.byte	0
	.byte	0
	.uleb128 0x40
	.uleb128 0x5
	.byte	0
	.uleb128 0x3
	.uleb128 0x8
	.uleb128 0x3a
	.uleb128 0xb
	.uleb128 0x3b
	.uleb128 0xb
	.uleb128 0x39
	.uleb128 0xb
	.uleb128 0x49
	.uleb128 0x13
	.byte	0
	.byte	0
	.uleb128 0x41
	.uleb128 0x34
	.byte	0
	.uleb128 0x3
	.uleb128 0x8
	.uleb128 0x3a
	.uleb128 0xb
	.uleb128 0x3b
	.uleb128 0xb
	.uleb128 0x39
	.uleb128 0xb
	.uleb128 0x49
	.uleb128 0x13
	.byte	0
	.byte	0
	.uleb128 0x42
	.uleb128 0x2e
	.byte	0x1
	.uleb128 0x31
	.uleb128 0x13
	.uleb128 0x11
	.uleb128 0x1
	.uleb128 0x12
	.uleb128 0x6
	.uleb128 0x40
	.uleb128 0x18
	.uleb128 0x2117
	.uleb128 0x19
	.uleb128 0x1
	.uleb128 0x13
	.byte	0
	.byte	0
	.uleb128 0x43
	.uleb128 0x5
	.byte	0
	.uleb128 0x31
	.uleb128 0x13
	.uleb128 0x1c
	.uleb128 0xb
	.byte	0
	.byte	0
	.uleb128 0x44
	.uleb128 0x4109
	.byte	0x1
	.uleb128 0x11
	.uleb128 0x1
	.uleb128 0x2115
	.uleb128 0x19
	.uleb128 0x31
	.uleb128 0x13
	.uleb128 0x1
	.uleb128 0x13
	.byte	0
	.byte	0
	.uleb128 0x45
	.uleb128 0x2e
	.byte	0
	.uleb128 0x3f
	.uleb128 0x19
	.uleb128 0x3c
	.uleb128 0x19
	.uleb128 0x6e
	.uleb128 0xe
	.uleb128 0x3
	.uleb128 0xe
	.uleb128 0x3a
	.uleb128 0xb
	.uleb128 0x3b
	.uleb128 0xb
	.uleb128 0x39
	.uleb128 0xb
	.byte	0
	.byte	0
	.uleb128 0x46
	.uleb128 0x2e
	.byte	0
	.uleb128 0x3f
	.uleb128 0x19
	.uleb128 0x3c
	.uleb128 0x19
	.uleb128 0x6e
	.uleb128 0xe
	.uleb128 0x3
	.uleb128 0xe
	.uleb128 0x3a
	.uleb128 0xb
	.uleb128 0x3b
	.uleb128 0x5
	.uleb128 0x39
	.uleb128 0xb
	.byte	0
	.byte	0
	.byte	0
	.section	.debug_loc,"",%progbits
.Ldebug_loc0:
.LVUS59:
	.uleb128 0
	.uleb128 .LVU490
	.uleb128 .LVU490
	.uleb128 0
.LLST59:
	.4byte	.LVL177
	.4byte	.LVL178
	.2byte	0x1
	.byte	0x50
	.4byte	.LVL178
	.4byte	.LFE25
	.2byte	0x4
	.byte	0xf3
	.uleb128 0x1
	.byte	0x50
	.byte	0x9f
	.4byte	0
	.4byte	0
.LVUS8:
	.uleb128 0
	.uleb128 .LVU81
	.uleb128 .LVU81
	.uleb128 .LVU147
	.uleb128 .LVU149
	.uleb128 0
.LLST8:
	.4byte	.LVL22
	.4byte	.LVL23
	.2byte	0x1
	.byte	0x50
	.4byte	.LVL23
	.4byte	.LVL37
	.2byte	0x1
	.byte	0x56
	.4byte	.LVL38
	.4byte	.LFE24
	.2byte	0x1
	.byte	0x56
	.4byte	0
	.4byte	0
.LVUS9:
	.uleb128 0
	.uleb128 .LVU83
	.uleb128 .LVU83
	.uleb128 .LVU144
	.uleb128 .LVU150
	.uleb128 0
.LLST9:
	.4byte	.LVL22
	.4byte	.LVL24-1
	.2byte	0x1
	.byte	0x51
	.4byte	.LVL24-1
	.4byte	.LVL36
	.2byte	0x1
	.byte	0x57
	.4byte	.LVL38
	.4byte	.LFE24
	.2byte	0x1
	.byte	0x57
	.4byte	0
	.4byte	0
.LVUS10:
	.uleb128 .LVU78
	.uleb128 .LVU94
	.uleb128 .LVU94
	.uleb128 .LVU154
	.uleb128 .LVU155
	.uleb128 0
.LLST10:
	.4byte	.LVL22
	.4byte	.LVL25
	.2byte	0x2
	.byte	0x30
	.byte	0x9f
	.4byte	.LVL25
	.4byte	.LVL40
	.2byte	0x1
	.byte	0x5a
	.4byte	.LVL41
	.4byte	.LFE24
	.2byte	0x1
	.byte	0x5a
	.4byte	0
	.4byte	0
.LVUS11:
	.uleb128 .LVU101
	.uleb128 .LVU154
	.uleb128 .LVU155
	.uleb128 0
.LLST11:
	.4byte	.LVL26
	.4byte	.LVL40
	.2byte	0x1
	.byte	0x54
	.4byte	.LVL41
	.4byte	.LFE24
	.2byte	0x1
	.byte	0x54
	.4byte	0
	.4byte	0
.LVUS12:
	.uleb128 .LVU104
	.uleb128 .LVU105
	.uleb128 .LVU105
	.uleb128 .LVU107
	.uleb128 .LVU107
	.uleb128 .LVU109
	.uleb128 .LVU109
	.uleb128 .LVU122
	.uleb128 .LVU122
	.uleb128 .LVU124
	.uleb128 .LVU124
	.uleb128 .LVU154
	.uleb128 .LVU155
	.uleb128 0
.LLST12:
	.4byte	.LVL27
	.4byte	.LVL28
	.2byte	0x2
	.byte	0x30
	.byte	0x9f
	.4byte	.LVL28
	.4byte	.LVL29
	.2byte	0x1
	.byte	0x5b
	.4byte	.LVL29
	.4byte	.LVL30
	.2byte	0x3
	.byte	0x7b
	.sleb128 -1
	.byte	0x9f
	.4byte	.LVL30
	.4byte	.LVL32
	.2byte	0x1
	.byte	0x5b
	.4byte	.LVL32
	.4byte	.LVL33
	.2byte	0x3
	.byte	0x7b
	.sleb128 -1
	.byte	0x9f
	.4byte	.LVL33
	.4byte	.LVL40
	.2byte	0x1
	.byte	0x5b
	.4byte	.LVL41
	.4byte	.LFE24
	.2byte	0x1
	.byte	0x5b
	.4byte	0
	.4byte	0
.LVUS13:
	.uleb128 .LVU130
	.uleb128 .LVU131
.LLST13:
	.4byte	.LVL34
	.4byte	.LVL35
	.2byte	0x2
	.byte	0x30
	.byte	0x9f
	.4byte	0
	.4byte	0
.LVUS1:
	.uleb128 0
	.uleb128 .LVU18
	.uleb128 .LVU18
	.uleb128 .LVU25
	.uleb128 .LVU25
	.uleb128 .LVU38
	.uleb128 .LVU38
	.uleb128 .LVU54
	.uleb128 .LVU54
	.uleb128 .LVU55
	.uleb128 .LVU55
	.uleb128 0
.LLST1:
	.4byte	.LVL8
	.4byte	.LVL9
	.2byte	0x1
	.byte	0x50
	.4byte	.LVL9
	.4byte	.LVL11
	.2byte	0x4
	.byte	0xf3
	.uleb128 0x1
	.byte	0x50
	.byte	0x9f
	.4byte	.LVL11
	.4byte	.LVL13
	.2byte	0x1
	.byte	0x50
	.4byte	.LVL13
	.4byte	.LVL16
	.2byte	0x1
	.byte	0x55
	.4byte	.LVL16
	.4byte	.LVL17
	.2byte	0x1
	.byte	0x50
	.4byte	.LVL17
	.4byte	.LFE23
	.2byte	0x1
	.byte	0x55
	.4byte	0
	.4byte	0
.LVUS2:
	.uleb128 .LVU13
	.uleb128 .LVU41
	.uleb128 .LVU41
	.uleb128 .LVU54
	.uleb128 .LVU54
	.uleb128 .LVU64
	.uleb128 .LVU64
	.uleb128 .LVU67
	.uleb128 .LVU69
	.uleb128 0
.LLST2:
	.4byte	.LVL8
	.4byte	.LVL15
	.2byte	0x2
	.byte	0x30
	.byte	0x9f
	.4byte	.LVL15
	.4byte	.LVL16
	.2byte	0x1
	.byte	0x54
	.4byte	.LVL16
	.4byte	.LVL19
	.2byte	0x2
	.byte	0x30
	.byte	0x9f
	.4byte	.LVL19
	.4byte	.LVL20
	.2byte	0x1
	.byte	0x54
	.4byte	.LVL21
	.4byte	.LFE23
	.2byte	0x1
	.byte	0x54
	.4byte	0
	.4byte	0
.LVUS3:
	.uleb128 .LVU14
	.uleb128 .LVU43
	.uleb128 .LVU43
	.uleb128 .LVU54
	.uleb128 .LVU54
	.uleb128 .LVU59
	.uleb128 .LVU59
	.uleb128 0
.LLST3:
	.4byte	.LVL8
	.4byte	.LVL15
	.2byte	0x2
	.byte	0x30
	.byte	0x9f
	.4byte	.LVL15
	.4byte	.LVL16
	.2byte	0xb
	.byte	0x75
	.sleb128 4
	.byte	0x6
	.byte	0x23
	.uleb128 0x8
	.byte	0x94
	.byte	0x1
	.byte	0x8
	.byte	0xff
	.byte	0x1a
	.byte	0x9f
	.4byte	.LVL16
	.4byte	.LVL18
	.2byte	0x2
	.byte	0x30
	.byte	0x9f
	.4byte	.LVL18
	.4byte	.LFE23
	.2byte	0xb
	.byte	0x75
	.sleb128 4
	.byte	0x6
	.byte	0x23
	.uleb128 0x8
	.byte	0x94
	.byte	0x1
	.byte	0x8
	.byte	0xff
	.byte	0x1a
	.byte	0x9f
	.4byte	0
	.4byte	0
.LVUS4:
	.uleb128 .LVU21
	.uleb128 .LVU25
	.uleb128 .LVU45
	.uleb128 .LVU54
	.uleb128 .LVU61
	.uleb128 .LVU67
	.uleb128 .LVU69
	.uleb128 0
.LLST4:
	.4byte	.LVL10
	.4byte	.LVL11
	.2byte	0x2
	.byte	0x30
	.byte	0x9f
	.4byte	.LVL15
	.4byte	.LVL16
	.2byte	0xb
	.byte	0x75
	.sleb128 4
	.byte	0x6
	.byte	0x23
	.uleb128 0x8
	.byte	0x94
	.byte	0x1
	.byte	0x8
	.byte	0xff
	.byte	0x1a
	.byte	0x9f
	.4byte	.LVL18
	.4byte	.LVL20
	.2byte	0xb
	.byte	0x75
	.sleb128 4
	.byte	0x6
	.byte	0x23
	.uleb128 0x8
	.byte	0x94
	.byte	0x1
	.byte	0x8
	.byte	0xff
	.byte	0x1a
	.byte	0x9f
	.4byte	.LVL21
	.4byte	.LFE23
	.2byte	0xb
	.byte	0x75
	.sleb128 4
	.byte	0x6
	.byte	0x23
	.uleb128 0x8
	.byte	0x94
	.byte	0x1
	.byte	0x8
	.byte	0xff
	.byte	0x1a
	.byte	0x9f
	.4byte	0
	.4byte	0
.LVUS5:
	.uleb128 .LVU21
	.uleb128 .LVU25
	.uleb128 .LVU45
	.uleb128 .LVU54
	.uleb128 .LVU61
	.uleb128 .LVU64
	.uleb128 .LVU64
	.uleb128 .LVU67
	.uleb128 .LVU69
	.uleb128 0
.LLST5:
	.4byte	.LVL10
	.4byte	.LVL11
	.2byte	0x2
	.byte	0x30
	.byte	0x9f
	.4byte	.LVL15
	.4byte	.LVL16
	.2byte	0x1
	.byte	0x54
	.4byte	.LVL18
	.4byte	.LVL19
	.2byte	0x2
	.byte	0x30
	.byte	0x9f
	.4byte	.LVL19
	.4byte	.LVL20
	.2byte	0x1
	.byte	0x54
	.4byte	.LVL21
	.4byte	.LFE23
	.2byte	0x1
	.byte	0x54
	.4byte	0
	.4byte	0
.LVUS6:
	.uleb128 .LVU27
	.uleb128 .LVU40
	.uleb128 .LVU54
	.uleb128 .LVU56
.LLST6:
	.4byte	.LVL12
	.4byte	.LVL15-1
	.2byte	0x1
	.byte	0x53
	.4byte	.LVL16
	.4byte	.LVL18-1
	.2byte	0x1
	.byte	0x53
	.4byte	0
	.4byte	0
.LVUS7:
	.uleb128 .LVU39
	.uleb128 .LVU54
	.uleb128 .LVU54
	.uleb128 .LVU64
	.uleb128 .LVU64
	.uleb128 0
.LLST7:
	.4byte	.LVL14
	.4byte	.LVL16
	.2byte	0x1
	.byte	0x54
	.4byte	.LVL16
	.4byte	.LVL19
	.2byte	0x2
	.byte	0x30
	.byte	0x9f
	.4byte	.LVL19
	.4byte	.LFE23
	.2byte	0x1
	.byte	0x54
	.4byte	0
	.4byte	0
.LVUS23:
	.uleb128 0
	.uleb128 .LVU277
	.uleb128 .LVU277
	.uleb128 0
.LLST23:
	.4byte	.LVL86
	.4byte	.LVL87
	.2byte	0x1
	.byte	0x50
	.4byte	.LVL87
	.4byte	.LFE22
	.2byte	0x1
	.byte	0x55
	.4byte	0
	.4byte	0
.LVUS24:
	.uleb128 0
	.uleb128 .LVU279
	.uleb128 .LVU279
	.uleb128 .LVU304
	.uleb128 .LVU304
	.uleb128 .LVU308
	.uleb128 .LVU308
	.uleb128 .LVU316
	.uleb128 .LVU316
	.uleb128 .LVU328
	.uleb128 .LVU328
	.uleb128 .LVU335
	.uleb128 .LVU335
	.uleb128 .LVU380
	.uleb128 .LVU380
	.uleb128 .LVU394
	.uleb128 .LVU394
	.uleb128 0
.LLST24:
	.4byte	.LVL86
	.4byte	.LVL88-1
	.2byte	0x1
	.byte	0x51
	.4byte	.LVL88-1
	.4byte	.LVL95
	.2byte	0x1
	.byte	0x56
	.4byte	.LVL95
	.4byte	.LVL97
	.2byte	0x4
	.byte	0xf3
	.uleb128 0x1
	.byte	0x51
	.byte	0x9f
	.4byte	.LVL97
	.4byte	.LVL99
	.2byte	0x1
	.byte	0x56
	.4byte	.LVL99
	.4byte	.LVL103
	.2byte	0x4
	.byte	0xf3
	.uleb128 0x1
	.byte	0x51
	.byte	0x9f
	.4byte	.LVL103
	.4byte	.LVL106
	.2byte	0x1
	.byte	0x56
	.4byte	.LVL106
	.4byte	.LVL132
	.2byte	0x4
	.byte	0xf3
	.uleb128 0x1
	.byte	0x51
	.byte	0x9f
	.4byte	.LVL132
	.4byte	.LVL137
	.2byte	0x1
	.byte	0x56
	.4byte	.LVL137
	.4byte	.LFE22
	.2byte	0x4
	.byte	0xf3
	.uleb128 0x1
	.byte	0x51
	.byte	0x9f
	.4byte	0
	.4byte	0
.LVUS25:
	.uleb128 .LVU281
	.uleb128 .LVU376
	.uleb128 .LVU376
	.uleb128 .LVU379
	.uleb128 .LVU379
	.uleb128 0
.LLST25:
	.4byte	.LVL89
	.4byte	.LVL130
	.2byte	0x2
	.byte	0x30
	.byte	0x9f
	.4byte	.LVL130
	.4byte	.LVL131
	.2byte	0x1
	.byte	0x56
	.4byte	.LVL131
	.4byte	.LFE22
	.2byte	0x2
	.byte	0x30
	.byte	0x9f
	.4byte	0
	.4byte	0
.LVUS26:
	.uleb128 .LVU282
	.uleb128 .LVU287
	.uleb128 .LVU287
	.uleb128 .LVU290
.LLST26:
	.4byte	.LVL89
	.4byte	.LVL91
	.2byte	0x2
	.byte	0x30
	.byte	0x9f
	.4byte	.LVL91
	.4byte	.LVL92
	.2byte	0xb
	.byte	0x76
	.sleb128 4
	.byte	0x6
	.byte	0x23
	.uleb128 0x8
	.byte	0x94
	.byte	0x1
	.byte	0x8
	.byte	0xff
	.byte	0x1a
	.byte	0x9f
	.4byte	0
	.4byte	0
.LVUS27:
	.uleb128 .LVU300
	.uleb128 .LVU459
	.uleb128 .LVU475
	.uleb128 0
.LLST27:
	.4byte	.LVL93
	.4byte	.LVL166
	.2byte	0x1
	.byte	0x57
	.4byte	.LVL172
	.4byte	.LFE22
	.2byte	0x1
	.byte	0x57
	.4byte	0
	.4byte	0
.LVUS28:
	.uleb128 .LVU285
	.uleb128 .LVU307
	.uleb128 .LVU308
	.uleb128 .LVU331
	.uleb128 .LVU380
	.uleb128 .LVU383
.LLST28:
	.4byte	.LVL90
	.4byte	.LVL96
	.2byte	0x1
	.byte	0x54
	.4byte	.LVL97
	.4byte	.LVL104
	.2byte	0x1
	.byte	0x54
	.4byte	.LVL132
	.4byte	.LVL133
	.2byte	0x1
	.byte	0x54
	.4byte	0
	.4byte	0
.LVUS29:
	.uleb128 .LVU310
	.uleb128 .LVU318
	.uleb128 .LVU318
	.uleb128 .LVU323
.LLST29:
	.4byte	.LVL98
	.4byte	.LVL100
	.2byte	0x1
	.byte	0x53
	.4byte	.LVL100
	.4byte	.LVL102-1
	.2byte	0x5
	.byte	0xf3
	.uleb128 0x1
	.byte	0x51
	.byte	0x23
	.uleb128 0x4
	.4byte	0
	.4byte	0
.LVUS30:
	.uleb128 .LVU310
	.uleb128 .LVU325
.LLST30:
	.4byte	.LVL98
	.4byte	.LVL102
	.2byte	0x1
	.byte	0x57
	.4byte	0
	.4byte	0
.LVUS31:
	.uleb128 .LVU310
	.uleb128 .LVU325
.LLST31:
	.4byte	.LVL98
	.4byte	.LVL102
	.2byte	0x1
	.byte	0x55
	.4byte	0
	.4byte	0
.LVUS32:
	.uleb128 .LVU312
	.uleb128 .LVU328
.LLST32:
	.4byte	.LVL98
	.4byte	.LVL103
	.2byte	0x2
	.byte	0x30
	.byte	0x9f
	.4byte	0
	.4byte	0
.LVUS33:
	.uleb128 .LVU319
	.uleb128 .LVU323
.LLST33:
	.4byte	.LVL101
	.4byte	.LVL102-1
	.2byte	0x1
	.byte	0x52
	.4byte	0
	.4byte	0
.LVUS34:
	.uleb128 .LVU320
	.uleb128 .LVU323
.LLST34:
	.4byte	.LVL101
	.4byte	.LVL102-1
	.2byte	0x1
	.byte	0x52
	.4byte	0
	.4byte	0
.LVUS35:
	.uleb128 .LVU320
	.uleb128 .LVU323
.LLST35:
	.4byte	.LVL101
	.4byte	.LVL102
	.2byte	0x1
	.byte	0x57
	.4byte	0
	.4byte	0
.LVUS36:
	.uleb128 .LVU320
	.uleb128 .LVU323
.LLST36:
	.4byte	.LVL101
	.4byte	.LVL102
	.2byte	0x1
	.byte	0x55
	.4byte	0
	.4byte	0
.LVUS37:
	.uleb128 .LVU331
	.uleb128 .LVU376
	.uleb128 .LVU379
	.uleb128 .LVU380
	.uleb128 .LVU475
	.uleb128 0
.LLST37:
	.4byte	.LVL104
	.4byte	.LVL130
	.2byte	0x1
	.byte	0x54
	.4byte	.LVL131
	.4byte	.LVL132
	.2byte	0x1
	.byte	0x54
	.4byte	.LVL172
	.4byte	.LFE22
	.2byte	0x1
	.byte	0x54
	.4byte	0
	.4byte	0
.LVUS38:
	.uleb128 .LVU331
	.uleb128 .LVU376
	.uleb128 .LVU379
	.uleb128 .LVU380
	.uleb128 .LVU475
	.uleb128 0
.LLST38:
	.4byte	.LVL104
	.4byte	.LVL130
	.2byte	0x1
	.byte	0x57
	.4byte	.LVL131
	.4byte	.LVL132
	.2byte	0x1
	.byte	0x57
	.4byte	.LVL172
	.4byte	.LFE22
	.2byte	0x1
	.byte	0x57
	.4byte	0
	.4byte	0
.LVUS39:
	.uleb128 .LVU331
	.uleb128 .LVU376
	.uleb128 .LVU379
	.uleb128 .LVU380
	.uleb128 .LVU475
	.uleb128 0
.LLST39:
	.4byte	.LVL104
	.4byte	.LVL130
	.2byte	0x1
	.byte	0x55
	.4byte	.LVL131
	.4byte	.LVL132
	.2byte	0x1
	.byte	0x55
	.4byte	.LVL172
	.4byte	.LFE22
	.2byte	0x1
	.byte	0x55
	.4byte	0
	.4byte	0
.LVUS40:
	.uleb128 .LVU347
	.uleb128 .LVU374
	.uleb128 .LVU374
	.uleb128 .LVU376
	.uleb128 .LVU379
	.uleb128 .LVU380
	.uleb128 .LVU475
	.uleb128 0
.LLST40:
	.4byte	.LVL117
	.4byte	.LVL129
	.2byte	0x2
	.byte	0x30
	.byte	0x9f
	.4byte	.LVL129
	.4byte	.LVL130
	.2byte	0x1
	.byte	0x56
	.4byte	.LVL131
	.4byte	.LVL132
	.2byte	0x2
	.byte	0x30
	.byte	0x9f
	.4byte	.LVL172
	.4byte	.LFE22
	.2byte	0x2
	.byte	0x30
	.byte	0x9f
	.4byte	0
	.4byte	0
.LVUS41:
	.uleb128 .LVU351
	.uleb128 .LVU353
	.uleb128 .LVU353
	.uleb128 .LVU376
	.uleb128 .LVU379
	.uleb128 .LVU380
	.uleb128 .LVU475
	.uleb128 0
.LLST41:
	.4byte	.LVL119
	.4byte	.LVL120
	.2byte	0x1
	.byte	0x50
	.4byte	.LVL120
	.4byte	.LVL130
	.2byte	0x1
	.byte	0x58
	.4byte	.LVL131
	.4byte	.LVL132
	.2byte	0x1
	.byte	0x50
	.4byte	.LVL172
	.4byte	.LFE22
	.2byte	0x1
	.byte	0x58
	.4byte	0
	.4byte	0
.LVUS42:
	.uleb128 .LVU367
	.uleb128 .LVU370
.LLST42:
	.4byte	.LVL126
	.4byte	.LVL127-1
	.2byte	0x2
	.byte	0x78
	.sleb128 28
	.4byte	0
	.4byte	0
.LVUS43:
	.uleb128 .LVU367
	.uleb128 .LVU370
.LLST43:
	.4byte	.LVL126
	.4byte	.LVL127
	.2byte	0x1
	.byte	0x57
	.4byte	0
	.4byte	0
.LVUS44:
	.uleb128 .LVU367
	.uleb128 .LVU370
.LLST44:
	.4byte	.LVL126
	.4byte	.LVL127
	.2byte	0x1
	.byte	0x55
	.4byte	0
	.4byte	0
.LVUS45:
	.uleb128 .LVU383
	.uleb128 .LVU475
.LLST45:
	.4byte	.LVL133
	.4byte	.LVL172
	.2byte	0x1
	.byte	0x54
	.4byte	0
	.4byte	0
.LVUS46:
	.uleb128 .LVU383
	.uleb128 .LVU459
.LLST46:
	.4byte	.LVL133
	.4byte	.LVL166
	.2byte	0x1
	.byte	0x57
	.4byte	0
	.4byte	0
.LVUS47:
	.uleb128 .LVU383
	.uleb128 .LVU475
.LLST47:
	.4byte	.LVL133
	.4byte	.LVL172
	.2byte	0x1
	.byte	0x55
	.4byte	0
	.4byte	0
.LVUS48:
	.uleb128 .LVU386
	.uleb128 .LVU436
	.uleb128 .LVU436
	.uleb128 .LVU437
	.uleb128 .LVU437
	.uleb128 .LVU449
	.uleb128 .LVU454
	.uleb128 .LVU460
	.uleb128 .LVU472
	.uleb128 .LVU475
.LLST48:
	.4byte	.LVL134
	.4byte	.LVL158
	.2byte	0x2
	.byte	0x30
	.byte	0x9f
	.4byte	.LVL158
	.4byte	.LVL159-1
	.2byte	0x1
	.byte	0x51
	.4byte	.LVL159-1
	.4byte	.LVL164
	.2byte	0x1
	.byte	0x56
	.4byte	.LVL165
	.4byte	.LVL167-1
	.2byte	0x2
	.byte	0x75
	.sleb128 40
	.4byte	.LVL170
	.4byte	.LVL172
	.2byte	0x1
	.byte	0x56
	.4byte	0
	.4byte	0
.LVUS49:
	.uleb128 .LVU446
	.uleb128 .LVU447
	.uleb128 .LVU447
	.uleb128 .LVU472
.LLST49:
	.4byte	.LVL162
	.4byte	.LVL163-1
	.2byte	0x1
	.byte	0x51
	.4byte	.LVL163-1
	.4byte	.LVL170
	.2byte	0x1
	.byte	0x58
	.4byte	0
	.4byte	0
.LVUS50:
	.uleb128 .LVU390
	.uleb128 .LVU404
.LLST50:
	.4byte	.LVL136
	.4byte	.LVL139
	.2byte	0x1
	.byte	0x54
	.4byte	0
	.4byte	0
.LVUS51:
	.uleb128 .LVU402
	.uleb128 .LVU409
	.uleb128 .LVU409
	.uleb128 .LVU410
.LLST51:
	.4byte	.LVL138
	.4byte	.LVL140
	.2byte	0x1
	.byte	0x56
	.4byte	.LVL140
	.4byte	.LVL141-1
	.2byte	0x1
	.byte	0x52
	.4byte	0
	.4byte	0
.LVUS52:
	.uleb128 .LVU404
	.uleb128 .LVU409
	.uleb128 .LVU409
	.uleb128 .LVU410
.LLST52:
	.4byte	.LVL139
	.4byte	.LVL140
	.2byte	0x1
	.byte	0x56
	.4byte	.LVL140
	.4byte	.LVL141-1
	.2byte	0x1
	.byte	0x52
	.4byte	0
	.4byte	0
.LVUS53:
	.uleb128 .LVU404
	.uleb128 .LVU410
.LLST53:
	.4byte	.LVL139
	.4byte	.LVL141
	.2byte	0x1
	.byte	0x57
	.4byte	0
	.4byte	0
.LVUS54:
	.uleb128 .LVU404
	.uleb128 .LVU410
.LLST54:
	.4byte	.LVL139
	.4byte	.LVL141
	.2byte	0x1
	.byte	0x55
	.4byte	0
	.4byte	0
.LVUS55:
	.uleb128 .LVU427
	.uleb128 .LVU434
.LLST55:
	.4byte	.LVL151
	.4byte	.LVL157
	.2byte	0x1
	.byte	0x56
	.4byte	0
	.4byte	0
.LVUS56:
	.uleb128 .LVU427
	.uleb128 .LVU436
.LLST56:
	.4byte	.LVL151
	.4byte	.LVL158
	.2byte	0x1
	.byte	0x55
	.4byte	0
	.4byte	0
.LVUS57:
	.uleb128 .LVU455
	.uleb128 .LVU459
.LLST57:
	.4byte	.LVL165
	.4byte	.LVL166
	.2byte	0x1
	.byte	0x57
	.4byte	0
	.4byte	0
.LVUS58:
	.uleb128 .LVU459
	.uleb128 .LVU461
.LLST58:
	.4byte	.LVL166
	.4byte	.LVL167
	.2byte	0x1
	.byte	0x57
	.4byte	0
	.4byte	0
.LVUS0:
	.uleb128 0
	.uleb128 .LVU3
	.uleb128 .LVU3
	.uleb128 .LVU5
	.uleb128 .LVU5
	.uleb128 .LVU6
	.uleb128 .LVU6
	.uleb128 .LVU7
	.uleb128 .LVU7
	.uleb128 .LVU8
	.uleb128 .LVU8
	.uleb128 .LVU9
	.uleb128 .LVU9
	.uleb128 .LVU10
	.uleb128 .LVU10
	.uleb128 0
.LLST0:
	.4byte	.LVL0
	.4byte	.LVL1
	.2byte	0x1
	.byte	0x50
	.4byte	.LVL1
	.4byte	.LVL2
	.2byte	0x4
	.byte	0xf3
	.uleb128 0x1
	.byte	0x50
	.byte	0x9f
	.4byte	.LVL2
	.4byte	.LVL3
	.2byte	0x1
	.byte	0x50
	.4byte	.LVL3
	.4byte	.LVL4
	.2byte	0x4
	.byte	0xf3
	.uleb128 0x1
	.byte	0x50
	.byte	0x9f
	.4byte	.LVL4
	.4byte	.LVL5
	.2byte	0x1
	.byte	0x50
	.4byte	.LVL5
	.4byte	.LVL6
	.2byte	0x4
	.byte	0xf3
	.uleb128 0x1
	.byte	0x50
	.byte	0x9f
	.4byte	.LVL6
	.4byte	.LVL7
	.2byte	0x1
	.byte	0x50
	.4byte	.LVL7
	.4byte	.LFE21
	.2byte	0x4
	.byte	0xf3
	.uleb128 0x1
	.byte	0x50
	.byte	0x9f
	.4byte	0
	.4byte	0
.LVUS14:
	.uleb128 0
	.uleb128 .LVU161
	.uleb128 .LVU161
	.uleb128 .LVU190
	.uleb128 .LVU190
	.uleb128 .LVU191
	.uleb128 .LVU191
	.uleb128 .LVU239
	.uleb128 .LVU239
	.uleb128 .LVU240
	.uleb128 .LVU240
	.uleb128 .LVU240
	.uleb128 .LVU240
	.uleb128 .LVU259
	.uleb128 .LVU259
	.uleb128 .LVU260
	.uleb128 .LVU260
	.uleb128 .LVU260
	.uleb128 .LVU260
	.uleb128 .LVU263
	.uleb128 .LVU263
	.uleb128 .LVU264
	.uleb128 .LVU264
	.uleb128 .LVU271
	.uleb128 .LVU271
	.uleb128 0
.LLST14:
	.4byte	.LVL44
	.4byte	.LVL45
	.2byte	0x1
	.byte	0x50
	.4byte	.LVL45
	.4byte	.LVL54
	.2byte	0x1
	.byte	0x57
	.4byte	.LVL54
	.4byte	.LVL55
	.2byte	0x4
	.byte	0xf3
	.uleb128 0x1
	.byte	0x50
	.byte	0x9f
	.4byte	.LVL55
	.4byte	.LVL69
	.2byte	0x1
	.byte	0x57
	.4byte	.LVL69
	.4byte	.LVL70-1
	.2byte	0x1
	.byte	0x50
	.4byte	.LVL70-1
	.4byte	.LVL70
	.2byte	0x4
	.byte	0xf3
	.uleb128 0x1
	.byte	0x50
	.byte	0x9f
	.4byte	.LVL70
	.4byte	.LVL78
	.2byte	0x1
	.byte	0x57
	.4byte	.LVL78
	.4byte	.LVL79-1
	.2byte	0x1
	.byte	0x50
	.4byte	.LVL79-1
	.4byte	.LVL79
	.2byte	0x4
	.byte	0xf3
	.uleb128 0x1
	.byte	0x50
	.byte	0x9f
	.4byte	.LVL79
	.4byte	.LVL80
	.2byte	0x1
	.byte	0x57
	.4byte	.LVL80
	.4byte	.LVL81
	.2byte	0x4
	.byte	0xf3
	.uleb128 0x1
	.byte	0x50
	.byte	0x9f
	.4byte	.LVL81
	.4byte	.LVL85
	.2byte	0x1
	.byte	0x57
	.4byte	.LVL85
	.4byte	.LFE38
	.2byte	0x4
	.byte	0xf3
	.uleb128 0x1
	.byte	0x50
	.byte	0x9f
	.4byte	0
	.4byte	0
.LVUS15:
	.uleb128 0
	.uleb128 .LVU170
	.uleb128 .LVU170
	.uleb128 .LVU171
	.uleb128 .LVU171
	.uleb128 .LVU190
	.uleb128 .LVU191
	.uleb128 .LVU239
	.uleb128 .LVU239
	.uleb128 .LVU240
	.uleb128 .LVU240
	.uleb128 .LVU244
	.uleb128 .LVU244
	.uleb128 .LVU247
	.uleb128 .LVU247
	.uleb128 .LVU259
	.uleb128 .LVU259
	.uleb128 .LVU260
	.uleb128 .LVU260
	.uleb128 .LVU263
	.uleb128 .LVU264
	.uleb128 .LVU271
.LLST15:
	.4byte	.LVL44
	.4byte	.LVL47
	.2byte	0x1
	.byte	0x51
	.4byte	.LVL47
	.4byte	.LVL48-1
	.2byte	0x1
	.byte	0x53
	.4byte	.LVL48-1
	.4byte	.LVL54
	.2byte	0x1
	.byte	0x54
	.4byte	.LVL55
	.4byte	.LVL69
	.2byte	0x1
	.byte	0x54
	.4byte	.LVL69
	.4byte	.LVL70
	.2byte	0x4
	.byte	0xf3
	.uleb128 0x1
	.byte	0x51
	.byte	0x9f
	.4byte	.LVL70
	.4byte	.LVL71
	.2byte	0x1
	.byte	0x54
	.4byte	.LVL71
	.4byte	.LVL72
	.2byte	0x4
	.byte	0xf3
	.uleb128 0x1
	.byte	0x51
	.byte	0x9f
	.4byte	.LVL72
	.4byte	.LVL78
	.2byte	0x1
	.byte	0x54
	.4byte	.LVL78
	.4byte	.LVL79
	.2byte	0x4
	.byte	0xf3
	.uleb128 0x1
	.byte	0x51
	.byte	0x9f
	.4byte	.LVL79
	.4byte	.LVL80
	.2byte	0x1
	.byte	0x54
	.4byte	.LVL81
	.4byte	.LVL85
	.2byte	0x1
	.byte	0x54
	.4byte	0
	.4byte	0
.LVUS16:
	.uleb128 0
	.uleb128 .LVU167
	.uleb128 .LVU167
	.uleb128 .LVU190
	.uleb128 .LVU190
	.uleb128 .LVU191
	.uleb128 .LVU191
	.uleb128 .LVU235
	.uleb128 .LVU235
	.uleb128 .LVU240
	.uleb128 .LVU240
	.uleb128 .LVU259
	.uleb128 .LVU259
	.uleb128 .LVU260
	.uleb128 .LVU260
	.uleb128 .LVU263
	.uleb128 .LVU263
	.uleb128 .LVU264
	.uleb128 .LVU264
	.uleb128 .LVU266
	.uleb128 .LVU266
	.uleb128 .LVU269
	.uleb128 .LVU269
	.uleb128 0
.LLST16:
	.4byte	.LVL44
	.4byte	.LVL46
	.2byte	0x1
	.byte	0x52
	.4byte	.LVL46
	.4byte	.LVL54
	.2byte	0x1
	.byte	0x55
	.4byte	.LVL54
	.4byte	.LVL55
	.2byte	0x4
	.byte	0xf3
	.uleb128 0x1
	.byte	0x52
	.byte	0x9f
	.4byte	.LVL55
	.4byte	.LVL68
	.2byte	0x1
	.byte	0x55
	.4byte	.LVL68
	.4byte	.LVL70
	.2byte	0x4
	.byte	0xf3
	.uleb128 0x1
	.byte	0x52
	.byte	0x9f
	.4byte	.LVL70
	.4byte	.LVL78
	.2byte	0x1
	.byte	0x55
	.4byte	.LVL78
	.4byte	.LVL79
	.2byte	0x4
	.byte	0xf3
	.uleb128 0x1
	.byte	0x52
	.byte	0x9f
	.4byte	.LVL79
	.4byte	.LVL80
	.2byte	0x1
	.byte	0x55
	.4byte	.LVL80
	.4byte	.LVL81
	.2byte	0x4
	.byte	0xf3
	.uleb128 0x1
	.byte	0x52
	.byte	0x9f
	.4byte	.LVL81
	.4byte	.LVL82
	.2byte	0x1
	.byte	0x55
	.4byte	.LVL82
	.4byte	.LVL84
	.2byte	0x4
	.byte	0x75
	.sleb128 192
	.byte	0x9f
	.4byte	.LVL84
	.4byte	.LFE38
	.2byte	0x4
	.byte	0xf3
	.uleb128 0x1
	.byte	0x52
	.byte	0x9f
	.4byte	0
	.4byte	0
.LVUS17:
	.uleb128 .LVU172
	.uleb128 .LVU176
.LLST17:
	.4byte	.LVL48
	.4byte	.LVL49
	.2byte	0x1
	.byte	0x54
	.4byte	0
	.4byte	0
.LVUS18:
	.uleb128 .LVU174
	.uleb128 .LVU176
.LLST18:
	.4byte	.LVL48
	.4byte	.LVL49
	.2byte	0x1
	.byte	0x56
	.4byte	0
	.4byte	0
.LVUS19:
	.uleb128 .LVU209
	.uleb128 .LVU240
	.uleb128 .LVU256
	.uleb128 .LVU260
	.uleb128 .LVU264
	.uleb128 .LVU269
.LLST19:
	.4byte	.LVL60
	.4byte	.LVL70
	.2byte	0x2
	.byte	0x30
	.byte	0x9f
	.4byte	.LVL76
	.4byte	.LVL79
	.2byte	0x2
	.byte	0x30
	.byte	0x9f
	.4byte	.LVL81
	.4byte	.LVL84
	.2byte	0x2
	.byte	0x30
	.byte	0x9f
	.4byte	0
	.4byte	0
.LVUS20:
	.uleb128 .LVU208
	.uleb128 .LVU239
	.uleb128 .LVU256
	.uleb128 .LVU259
	.uleb128 .LVU259
	.uleb128 .LVU260
	.uleb128 .LVU264
	.uleb128 .LVU269
.LLST20:
	.4byte	.LVL60
	.4byte	.LVL69
	.2byte	0x1
	.byte	0x55
	.4byte	.LVL76
	.4byte	.LVL78
	.2byte	0x1
	.byte	0x55
	.4byte	.LVL78
	.4byte	.LVL79
	.2byte	0x4
	.byte	0xf3
	.uleb128 0x1
	.byte	0x52
	.byte	0x9f
	.4byte	.LVL81
	.4byte	.LVL84
	.2byte	0x1
	.byte	0x55
	.4byte	0
	.4byte	0
.LVUS21:
	.uleb128 .LVU208
	.uleb128 .LVU239
	.uleb128 .LVU239
	.uleb128 .LVU240
	.uleb128 .LVU256
	.uleb128 .LVU259
	.uleb128 .LVU259
	.uleb128 .LVU260
	.uleb128 .LVU264
	.uleb128 .LVU269
.LLST21:
	.4byte	.LVL60
	.4byte	.LVL69
	.2byte	0x1
	.byte	0x54
	.4byte	.LVL69
	.4byte	.LVL70
	.2byte	0x4
	.byte	0xf3
	.uleb128 0x1
	.byte	0x51
	.byte	0x9f
	.4byte	.LVL76
	.4byte	.LVL78
	.2byte	0x1
	.byte	0x54
	.4byte	.LVL78
	.4byte	.LVL79
	.2byte	0x4
	.byte	0xf3
	.uleb128 0x1
	.byte	0x51
	.byte	0x9f
	.4byte	.LVL81
	.4byte	.LVL84
	.2byte	0x1
	.byte	0x54
	.4byte	0
	.4byte	0
.LVUS22:
	.uleb128 .LVU208
	.uleb128 .LVU239
	.uleb128 .LVU239
	.uleb128 .LVU240
	.uleb128 .LVU240
	.uleb128 .LVU240
	.uleb128 .LVU256
	.uleb128 .LVU259
	.uleb128 .LVU259
	.uleb128 .LVU260
	.uleb128 .LVU260
	.uleb128 .LVU260
	.uleb128 .LVU264
	.uleb128 .LVU269
.LLST22:
	.4byte	.LVL60
	.4byte	.LVL69
	.2byte	0x1
	.byte	0x57
	.4byte	.LVL69
	.4byte	.LVL70-1
	.2byte	0x1
	.byte	0x50
	.4byte	.LVL70-1
	.4byte	.LVL70
	.2byte	0x4
	.byte	0xf3
	.uleb128 0x1
	.byte	0x50
	.byte	0x9f
	.4byte	.LVL76
	.4byte	.LVL78
	.2byte	0x1
	.byte	0x57
	.4byte	.LVL78
	.4byte	.LVL79-1
	.2byte	0x1
	.byte	0x50
	.4byte	.LVL79-1
	.4byte	.LVL79
	.2byte	0x4
	.byte	0xf3
	.uleb128 0x1
	.byte	0x50
	.byte	0x9f
	.4byte	.LVL81
	.4byte	.LVL84
	.2byte	0x1
	.byte	0x57
	.4byte	0
	.4byte	0
	.section	.debug_aranges,"",%progbits
	.4byte	0x44
	.2byte	0x2
	.4byte	.Ldebug_info0
	.byte	0x4
	.byte	0
	.2byte	0
	.2byte	0
	.4byte	.LFB21
	.4byte	.LFE21-.LFB21
	.4byte	.LFB23
	.4byte	.LFE23-.LFB23
	.4byte	.LFB24
	.4byte	.LFE24-.LFB24
	.4byte	.LFB38
	.4byte	.LFE38-.LFB38
	.4byte	.LFB22
	.4byte	.LFE22-.LFB22
	.4byte	.LFB25
	.4byte	.LFE25-.LFB25
	.4byte	0
	.4byte	0
	.section	.debug_ranges,"",%progbits
.Ldebug_ranges0:
	.4byte	.LBB22
	.4byte	.LBE22
	.4byte	.LBB33
	.4byte	.LBE33
	.4byte	.LBB34
	.4byte	.LBE34
	.4byte	.LBB36
	.4byte	.LBE36
	.4byte	.LBB38
	.4byte	.LBE38
	.4byte	.LBB39
	.4byte	.LBE39
	.4byte	0
	.4byte	0
	.4byte	.LBB29
	.4byte	.LBE29
	.4byte	.LBB35
	.4byte	.LBE35
	.4byte	.LBB37
	.4byte	.LBE37
	.4byte	0
	.4byte	0
	.4byte	.LBB40
	.4byte	.LBE40
	.4byte	.LBB47
	.4byte	.LBE47
	.4byte	.LBB48
	.4byte	.LBE48
	.4byte	0
	.4byte	0
	.4byte	.LBB41
	.4byte	.LBE41
	.4byte	.LBB42
	.4byte	.LBE42
	.4byte	.LBB43
	.4byte	.LBE43
	.4byte	.LBB44
	.4byte	.LBE44
	.4byte	.LBB46
	.4byte	.LBE46
	.4byte	0
	.4byte	0
	.4byte	.LBB53
	.4byte	.LBE53
	.4byte	.LBB56
	.4byte	.LBE56
	.4byte	0
	.4byte	0
	.4byte	.LBB57
	.4byte	.LBE57
	.4byte	.LBB63
	.4byte	.LBE63
	.4byte	.LBB64
	.4byte	.LBE64
	.4byte	.LBB65
	.4byte	.LBE65
	.4byte	.LBB66
	.4byte	.LBE66
	.4byte	0
	.4byte	0
	.4byte	.LBB85
	.4byte	.LBE85
	.4byte	.LBB92
	.4byte	.LBE92
	.4byte	0
	.4byte	0
	.4byte	.LBB87
	.4byte	.LBE87
	.4byte	.LBB90
	.4byte	.LBE90
	.4byte	0
	.4byte	0
	.4byte	.LBB93
	.4byte	.LBE93
	.4byte	.LBB100
	.4byte	.LBE100
	.4byte	.LBB101
	.4byte	.LBE101
	.4byte	.LBB114
	.4byte	.LBE114
	.4byte	0
	.4byte	0
	.4byte	.LBB106
	.4byte	.LBE106
	.4byte	.LBB109
	.4byte	.LBE109
	.4byte	0
	.4byte	0
	.4byte	.LFB21
	.4byte	.LFE21
	.4byte	.LFB23
	.4byte	.LFE23
	.4byte	.LFB24
	.4byte	.LFE24
	.4byte	.LFB38
	.4byte	.LFE38
	.4byte	.LFB22
	.4byte	.LFE22
	.4byte	.LFB25
	.4byte	.LFE25
	.4byte	0
	.4byte	0
	.section	.debug_line,"",%progbits
.Ldebug_line0:
	.section	.debug_str,"MS",%progbits,1
.LASF154:
	.ascii	"ivlen\000"
.LASF87:
	.ascii	"last\000"
.LASF48:
	.ascii	"PKT_MARKER\000"
.LASF179:
	.ascii	"mdc_method\000"
.LASF187:
	.ascii	"datalen\000"
.LASF68:
	.ascii	"prefitem_t\000"
.LASF124:
	.ascii	"aead\000"
.LASF104:
	.ascii	"flags\000"
.LASF172:
	.ascii	"PKT_public_key\000"
.LASF161:
	.ascii	"exact\000"
.LASF85:
	.ascii	"sig_class\000"
.LASF186:
	.ascii	"control\000"
.LASF8:
	.ascii	"unsigned int\000"
.LASF231:
	.ascii	"src/build-packet.c\000"
.LASF74:
	.ascii	"version\000"
.LASF153:
	.ascii	"csum\000"
.LASF188:
	.ascii	"PKT_gpg_control\000"
.LASF160:
	.ascii	"serialno_valid\000"
.LASF19:
	.ascii	"IOBUF_INPUT_TEMP\000"
.LASF228:
	.ascii	"iobuf_copy\000"
.LASF61:
	.ascii	"gcry_mpi_t\000"
.LASF170:
	.ascii	"serialno\000"
.LASF195:
	.ascii	"secret_key\000"
.LASF92:
	.ascii	"email\000"
.LASF177:
	.ascii	"extralen\000"
.LASF212:
	.ascii	"log_hexdump\000"
.LASF204:
	.ascii	"write_header\000"
.LASF94:
	.ascii	"chosen_selfsig\000"
.LASF25:
	.ascii	"ntotal\000"
.LASF28:
	.ascii	"error\000"
.LASF69:
	.ascii	"mode\000"
.LASF27:
	.ascii	"filter_eof\000"
.LASF93:
	.ascii	"pka_info_t\000"
.LASF197:
	.ascii	"compressed\000"
.LASF56:
	.ascii	"PKT_MDC\000"
.LASF178:
	.ascii	"is_partial\000"
.LASF101:
	.ascii	"key_block\000"
.LASF196:
	.ascii	"comment\000"
.LASF46:
	.ascii	"PKT_COMPRESSED\000"
.LASF41:
	.ascii	"PKT_SYMKEY_ENC\000"
.LASF82:
	.ascii	"throw_keyid\000"
.LASF139:
	.ascii	"created\000"
.LASF200:
	.ascii	"gpg_control\000"
.LASF208:
	.ascii	"do_plaintext\000"
.LASF233:
	.ascii	"iobuf_use\000"
.LASF189:
	.ascii	"generic\000"
.LASF152:
	.ascii	"sha1chk\000"
.LASF23:
	.ascii	"nlimit\000"
.LASF57:
	.ascii	"PKT_ENCRYPTED_AEAD\000"
.LASF205:
	.ascii	"calc_header_length\000"
.LASF73:
	.ascii	"STRING2KEY\000"
.LASF174:
	.ascii	"new_ctb\000"
.LASF138:
	.ascii	"prefs\000"
.LASF72:
	.ascii	"count\000"
.LASF194:
	.ascii	"public_key\000"
.LASF149:
	.ascii	"algo\000"
.LASF88:
	.ascii	"PKT_onepass_sig\000"
.LASF81:
	.ascii	"pubkey_algo\000"
.LASF156:
	.ascii	"disabled\000"
.LASF7:
	.ascii	"long long unsigned int\000"
.LASF128:
	.ascii	"revoked\000"
.LASF89:
	.ascii	"subpktarea_t\000"
.LASF109:
	.ascii	"trust_regexp\000"
.LASF211:
	.ascii	"print_iobuf_info2\000"
.LASF50:
	.ascii	"PKT_RING_TRUST\000"
.LASF193:
	.ascii	"signature\000"
.LASF136:
	.ascii	"help_full_count\000"
.LASF45:
	.ascii	"PKT_SECRET_SUBKEY\000"
.LASF131:
	.ascii	"attrib_data\000"
.LASF112:
	.ascii	"help_counter\000"
.LASF67:
	.ascii	"value\000"
.LASF43:
	.ascii	"PKT_SECRET_KEY\000"
.LASF18:
	.ascii	"IOBUF_INPUT\000"
.LASF62:
	.ascii	"PACKET\000"
.LASF230:
	.ascii	"GNU C17 10.3.1 20210621 (release) -mcpu=cortex-a7 -"
	.ascii	"mfloat-abi=soft -marm -march=armv7ve -g -O2 -fpic -"
	.ascii	"ffreestanding -ffunction-sections -fdata-sections -"
	.ascii	"fno-common\000"
.LASF192:
	.ascii	"onepass_sig\000"
.LASF10:
	.ascii	"size_t\000"
.LASF107:
	.ascii	"trust_depth\000"
.LASF39:
	.ascii	"PKT_PUBKEY_ENC\000"
.LASF26:
	.ascii	"nofast\000"
.LASF137:
	.ascii	"help_marginal_count\000"
.LASF130:
	.ascii	"numattribs\000"
.LASF162:
	.ascii	"max_expiredate\000"
.LASF103:
	.ascii	"pka_tried\000"
.LASF117:
	.ascii	"digest_start\000"
.LASF120:
	.ascii	"gcry_mpi\000"
.LASF171:
	.ascii	"pkey\000"
.LASF129:
	.ascii	"attribs\000"
.LASF133:
	.ascii	"namehash\000"
.LASF100:
	.ascii	"pref_ks\000"
.LASF163:
	.ascii	"hdrbytes\000"
.LASF75:
	.ascii	"cipher_algo\000"
.LASF113:
	.ascii	"pka_info\000"
.LASF119:
	.ascii	"digest_len\000"
.LASF14:
	.ascii	"char\000"
.LASF126:
	.ascii	"compacted\000"
.LASF209:
	.ascii	"calc_plaintext\000"
.LASF53:
	.ascii	"PKT_OLD_COMMENT\000"
.LASF184:
	.ascii	"namelen\000"
.LASF234:
	.ascii	"text\000"
.LASF79:
	.ascii	"PKT_symkey_enc\000"
.LASF198:
	.ascii	"encrypted\000"
.LASF142:
	.ascii	"keyorg\000"
.LASF226:
	.ascii	"iobuf_close\000"
.LASF40:
	.ascii	"PKT_SIGNATURE\000"
.LASF15:
	.ascii	"uint8_t\000"
.LASF78:
	.ascii	"seskey\000"
.LASF175:
	.ascii	"algorithm\000"
.LASF34:
	.ascii	"subno\000"
.LASF47:
	.ascii	"PKT_ENCRYPTED\000"
.LASF232:
	.ascii	"/home/fred/code/rpi-qemu-gdb/Claude/raspi3b_qemu_\000"
.LASF71:
	.ascii	"salt\000"
.LASF6:
	.ascii	"long long int\000"
.LASF90:
	.ascii	"valid\000"
.LASF173:
	.ascii	"PKT_comment\000"
.LASF146:
	.ascii	"PKT_user_id\000"
.LASF86:
	.ascii	"digest_algo\000"
.LASF95:
	.ascii	"unknown_critical\000"
.LASF140:
	.ascii	"keyupdate\000"
.LASF213:
	.ascii	"iobuf\000"
.LASF141:
	.ascii	"updateurl\000"
.LASF59:
	.ascii	"PKT_GPG_CONTROL\000"
.LASF30:
	.ascii	"filter_ov\000"
.LASF24:
	.ascii	"nbytes\000"
.LASF110:
	.ascii	"revkey\000"
.LASF202:
	.ascii	"write_new_header\000"
.LASF203:
	.ascii	"write_header2\000"
.LASF106:
	.ascii	"expiredate\000"
.LASF214:
	.ascii	"buffer\000"
.LASF55:
	.ascii	"PKT_ENCRYPTED_MDC\000"
.LASF224:
	.ascii	"iobuf_writebyte\000"
.LASF36:
	.ascii	"size\000"
.LASF122:
	.ascii	"PKT_signature\000"
.LASF84:
	.ascii	"PKT_pubkey_enc\000"
.LASF42:
	.ascii	"PKT_ONEPASS_SIG\000"
.LASF158:
	.ascii	"dont_cache\000"
.LASF76:
	.ascii	"aead_algo\000"
.LASF181:
	.ascii	"PKT_encrypted\000"
.LASF52:
	.ascii	"PKT_PUBLIC_SUBKEY\000"
.LASF190:
	.ascii	"symkey_enc\000"
.LASF65:
	.ascii	"pkttype\000"
.LASF150:
	.ascii	"seckey_info\000"
.LASF222:
	.ascii	"tfp_printf\000"
.LASF83:
	.ascii	"data\000"
.LASF38:
	.ascii	"PKT_NONE\000"
.LASF168:
	.ascii	"user_id\000"
.LASF227:
	.ascii	"iobuf_write\000"
.LASF3:
	.ascii	"short unsigned int\000"
.LASF118:
	.ascii	"digest\000"
.LASF11:
	.ascii	"long double\000"
.LASF135:
	.ascii	"help_key_expire\000"
.LASF210:
	.ascii	"do_symkey_enc\000"
.LASF35:
	.ascii	"IOBUF\000"
.LASF169:
	.ascii	"trust_timestamp\000"
.LASF164:
	.ascii	"pubkey_usage\000"
.LASF134:
	.ascii	"help_key_usage\000"
.LASF99:
	.ascii	"notation\000"
.LASF2:
	.ascii	"short int\000"
.LASF206:
	.ascii	"write_32\000"
.LASF220:
	.ascii	"get_pkttype_name\000"
.LASF4:
	.ascii	"long int\000"
.LASF182:
	.ascii	"hash\000"
.LASF215:
	.ascii	"length\000"
.LASF91:
	.ascii	"checked\000"
.LASF29:
	.ascii	"filter\000"
.LASF199:
	.ascii	"plaintext\000"
.LASF58:
	.ascii	"PKT_COMMENT\000"
.LASF108:
	.ascii	"trust_value\000"
.LASF144:
	.ascii	"mbox\000"
.LASF223:
	.ascii	"iobuf_temp\000"
.LASF70:
	.ascii	"hash_algo\000"
.LASF191:
	.ascii	"pubkey_enc\000"
.LASF159:
	.ascii	"backsig\000"
.LASF116:
	.ascii	"unhashed\000"
.LASF114:
	.ascii	"signers_uid\000"
.LASF96:
	.ascii	"exportable\000"
.LASF9:
	.ascii	"__uint8_t\000"
.LASF145:
	.ascii	"name\000"
.LASF37:
	.ascii	"start\000"
.LASF60:
	.ascii	"pkttype_t\000"
.LASF49:
	.ascii	"PKT_PLAINTEXT\000"
.LASF218:
	.ascii	"calc_packet_length\000"
.LASF5:
	.ascii	"long unsigned int\000"
.LASF32:
	.ascii	"real_fname\000"
.LASF148:
	.ascii	"date\000"
.LASF63:
	.ascii	"iobuf_struct\000"
.LASF166:
	.ascii	"has_expired\000"
.LASF143:
	.ascii	"selfsigversion\000"
.LASF219:
	.ascii	"build_packet\000"
.LASF17:
	.ascii	"byte\000"
.LASF157:
	.ascii	"maybe_revoked\000"
.LASF77:
	.ascii	"seskeylen\000"
.LASF44:
	.ascii	"PKT_PUBLIC_KEY\000"
.LASF66:
	.ascii	"type\000"
.LASF1:
	.ascii	"unsigned char\000"
.LASF54:
	.ascii	"PKT_ATTRIBUTE\000"
.LASF20:
	.ascii	"IOBUF_OUTPUT\000"
.LASF221:
	.ascii	"ctb_new_format_p\000"
.LASF111:
	.ascii	"numrevkeys\000"
.LASF167:
	.ascii	"main_keyid\000"
.LASF51:
	.ascii	"PKT_USER_ID\000"
.LASF155:
	.ascii	"disabled_valid\000"
.LASF176:
	.ascii	"PKT_compressed\000"
.LASF31:
	.ascii	"filter_ov_owner\000"
.LASF165:
	.ascii	"req_usage\000"
.LASF185:
	.ascii	"PKT_plaintext\000"
.LASF217:
	.ascii	"have\000"
.LASF105:
	.ascii	"timestamp\000"
.LASF229:
	.ascii	"iobuf_set_partial_body_length_mode\000"
.LASF207:
	.ascii	"do_encrypted\000"
.LASF13:
	.ascii	"__off_t\000"
.LASF97:
	.ascii	"revocable\000"
.LASF201:
	.ascii	"hdrlen\000"
.LASF225:
	.ascii	"iobuf_write_temp\000"
.LASF0:
	.ascii	"signed char\000"
.LASF80:
	.ascii	"keyid\000"
.LASF16:
	.ascii	"off_t\000"
.LASF21:
	.ascii	"IOBUF_OUTPUT_TEMP\000"
.LASF33:
	.ascii	"chain\000"
.LASF22:
	.ascii	"iobuf_t\000"
.LASF102:
	.ascii	"expired\000"
.LASF115:
	.ascii	"hashed\000"
.LASF147:
	.ascii	"revoke_info\000"
.LASF216:
	.ascii	"written\000"
.LASF151:
	.ascii	"is_protected\000"
.LASF125:
	.ascii	"ks_modify\000"
.LASF12:
	.ascii	"_off_t\000"
.LASF121:
	.ascii	"revocation_key\000"
.LASF64:
	.ascii	"packet_struct\000"
.LASF180:
	.ascii	"chunkbyte\000"
.LASF123:
	.ascii	"user_attribute\000"
.LASF183:
	.ascii	"PKT_mdc\000"
.LASF98:
	.ascii	"policy_url\000"
.LASF132:
	.ascii	"attrib_len\000"
.LASF127:
	.ascii	"primary\000"
	.ident	"GCC: (15:10.3-2021.07-4) 10.3.1 20210621 (release)"
