	.cpu cortex-a7
	.eabi_attribute 20, 1	@ Tag_ABI_FP_denormal
	.eabi_attribute 21, 1	@ Tag_ABI_FP_exceptions
	.eabi_attribute 23, 3	@ Tag_ABI_FP_number_model
	.eabi_attribute 24, 1	@ Tag_ABI_align8_needed
	.eabi_attribute 25, 1	@ Tag_ABI_align8_preserved
	.eabi_attribute 26, 1	@ Tag_ABI_enum_size
	.eabi_attribute 30, 2	@ Tag_ABI_optimization_goals
	.eabi_attribute 34, 1	@ Tag_CPU_unaligned_access
	.eabi_attribute 18, 4	@ Tag_ABI_PCS_wchar_t
	.file	"cipher.c"
@ GNU C17 (15:10.3-2021.07-4) version 10.3.1 20210621 (release) (arm-none-eabi)
@	compiled by GNU C version 11.2.0, GMP version 6.2.1, MPFR version 4.1.0, MPC version 1.2.1, isl version isl-0.24-GMP

@ GGC heuristics: --param ggc-min-expand=100 --param ggc-min-heapsize=131072
@ options passed:  -I src -I src/common -imultilib thumb/v7-a/nofp
@ -D__USES_INITFINI__ src/cipher.c -mcpu=cortex-a7 -mfloat-abi=soft -marm
@ -mlibarch=armv7ve -march=armv7ve -auxbase-strip build/asm_output/cipher.s
@ -g -O2 -Wall -Wextra -fpic -ffreestanding -ffunction-sections
@ -fdata-sections -fno-common -fverbose-asm
@ options enabled:  -faggressive-loop-optimizations -falign-functions
@ -falign-jumps -falign-labels -falign-loops -fallocation-dce
@ -fauto-inc-dec -fbranch-count-reg -fcaller-saves
@ -fcombine-stack-adjustments -fcompare-elim -fcprop-registers
@ -fcrossjumping -fcse-follow-jumps -fdata-sections -fdefer-pop
@ -fdelete-null-pointer-checks -fdevirtualize -fdevirtualize-speculatively
@ -fdwarf2-cfi-asm -fearly-inlining -feliminate-unused-debug-symbols
@ -feliminate-unused-debug-types -fexpensive-optimizations
@ -fforward-propagate -ffp-int-builtin-inexact -ffunction-cse
@ -ffunction-sections -fgcse -fgcse-lm -fgnu-unique
@ -fguess-branch-probability -fhoist-adjacent-loads -fident -fif-conversion
@ -fif-conversion2 -findirect-inlining -finline -finline-atomics
@ -finline-functions -finline-functions-called-once
@ -finline-small-functions -fipa-bit-cp -fipa-cp -fipa-icf
@ -fipa-icf-functions -fipa-icf-variables -fipa-profile -fipa-pure-const
@ -fipa-ra -fipa-reference -fipa-reference-addressable -fipa-sra
@ -fipa-stack-alignment -fipa-vrp -fira-hoist-pressure
@ -fira-share-save-slots -fira-share-spill-slots
@ -fisolate-erroneous-paths-dereference -fivopts -fkeep-static-consts
@ -fleading-underscore -flifetime-dse -flra-remat -fmath-errno
@ -fmerge-constants -fmerge-debug-strings -fmove-loop-invariants
@ -fomit-frame-pointer -foptimize-sibling-calls -foptimize-strlen
@ -fpartial-inlining -fpeephole -fpeephole2 -fpic -fplt
@ -fprefetch-loop-arrays -freg-struct-return -freorder-blocks
@ -freorder-functions -frerun-cse-after-loop
@ -fsched-critical-path-heuristic -fsched-dep-count-heuristic
@ -fsched-group-heuristic -fsched-interblock -fsched-last-insn-heuristic
@ -fsched-pressure -fsched-rank-heuristic -fsched-spec
@ -fsched-spec-insn-heuristic -fsched-stalled-insns-dep -fschedule-insns
@ -fschedule-insns2 -fsection-anchors -fsemantic-interposition
@ -fshow-column -fshrink-wrap -fshrink-wrap-separate -fsigned-zeros
@ -fsplit-ivs-in-unroller -fsplit-wide-types -fssa-backprop -fssa-phiopt
@ -fstdarg-opt -fstore-merging -fstrict-aliasing
@ -fstrict-volatile-bitfields -fsync-libcalls -fthread-jumps
@ -ftoplevel-reorder -ftrapping-math -ftree-bit-ccp -ftree-builtin-call-dce
@ -ftree-ccp -ftree-ch -ftree-coalesce-vars -ftree-copy-prop -ftree-cselim
@ -ftree-dce -ftree-dominator-opts -ftree-dse -ftree-forwprop -ftree-fre
@ -ftree-loop-if-convert -ftree-loop-im -ftree-loop-ivcanon
@ -ftree-loop-optimize -ftree-parallelize-loops= -ftree-phiprop -ftree-pre
@ -ftree-pta -ftree-reassoc -ftree-scev-cprop -ftree-sink -ftree-slsr
@ -ftree-sra -ftree-switch-conversion -ftree-tail-merge -ftree-ter
@ -ftree-vrp -funit-at-a-time -fvar-tracking -fvar-tracking-assignments
@ -fverbose-asm -fzero-initialized-in-bss -marm -mbe32 -mlittle-endian
@ -mpic-data-is-text-relative -msched-prolog -munaligned-access
@ -mvectorize-with-neon-quad -mword-relocations

	.text
.Ltext0:
	.cfi_sections	.debug_frame
	.section	.rodata._gcry_cipher_encrypt.str1.4,"aMS",%progbits,1
	.align	2
.LC0:
	.ascii	"_gcry_cipher_encrypt inlen: %d, outSize: %d, unused"
	.ascii	": %d\012\000"
	.section	.text._gcry_cipher_encrypt,"ax",%progbits
	.align	2
	.global	_gcry_cipher_encrypt
	.arch armv7ve
	.syntax unified
	.arm
	.fpu softvfp
	.type	_gcry_cipher_encrypt, %function
_gcry_cipher_encrypt:
.LVL0:
.LFB20:
	.file 1 "src/cipher.c"
	.loc 1 109 1 view -0
	.cfi_startproc
	@ args = 4, pretend = 0, frame = 0
	@ frame_needed = 0, uses_anonymous_args = 0
	.loc 1 110 3 view .LVU1
@ src/cipher.c:109: {
	.loc 1 109 1 is_stmt 0 view .LVU2
	push	{r4, r5, r6, r7, r8, lr}	@
	.cfi_def_cfa_offset 24
	.cfi_offset 4, -24
	.cfi_offset 5, -20
	.cfi_offset 6, -16
	.cfi_offset 7, -12
	.cfi_offset 8, -8
	.cfi_offset 14, -4
	sub	sp, sp, #8	@,,
	.cfi_def_cfa_offset 32
@ src/cipher.c:109: {
	.loc 1 109 1 view .LVU3
	mov	r8, r0	@ tmp136, h
	mov	r4, r1	@ out, tmp137
	ldr	r6, [sp, #32]	@ inlen, inlen
	mov	r7, r3	@ tmp139, in
@ src/cipher.c:110:   printf("_gcry_cipher_encrypt inlen: %d, outSize: %d, unused: %d\n", inlen, outsize, h->unused);
	.loc 1 110 3 view .LVU4
	ldr	r0, .L10	@,
.LVL1:
@ src/cipher.c:109: {
	.loc 1 109 1 view .LVU5
	mov	r5, r2	@ outsize, tmp138
@ src/cipher.c:110:   printf("_gcry_cipher_encrypt inlen: %d, outSize: %d, unused: %d\n", inlen, outsize, h->unused);
	.loc 1 110 3 view .LVU6
	ldr	r3, [r8, #32]	@, h_9(D)->unused
.LVL2:
	.loc 1 110 3 view .LVU7
	mov	r1, r6	@, inlen
.LVL3:
	.loc 1 110 3 view .LVU8
.LPIC0:
	add	r0, pc, r0	@,
	bl	tfp_printf(PLT)	@
.LVL4:
	.loc 1 111 3 is_stmt 1 view .LVU9
	.loc 1 113 3 view .LVU10
@ src/cipher.c:113:   if (!in)  /* Caller requested in-place encryption.  */
	.loc 1 113 6 is_stmt 0 view .LVU11
	cmp	r7, #0	@ in,
@ src/cipher.c:128:   rc = _gcry_cipher_cfb_encrypt (h, out, outsize, in, inlen);
	.loc 1 128 8 view .LVU12
	mov	r0, r8	@, h
@ src/cipher.c:113:   if (!in)  /* Caller requested in-place encryption.  */
	.loc 1 113 6 view .LVU13
	moveq	r6, r5	@ tmp134, outsize
.LVL5:
	.loc 1 128 3 is_stmt 1 view .LVU14
@ src/cipher.c:128:   rc = _gcry_cipher_cfb_encrypt (h, out, outsize, in, inlen);
	.loc 1 128 8 is_stmt 0 view .LVU15
	movne	r3, r7	@, in
	str	r6, [sp]	@ tmp134,
	moveq	r3, r4	@, out
	mov	r2, r5	@, outsize
	mov	r1, r4	@, out
	bl	_gcry_cipher_cfb_encrypt(PLT)	@
.LVL6:
	.loc 1 132 3 is_stmt 1 view .LVU16
@ src/cipher.c:132:   if (rc && out)
	.loc 1 132 6 is_stmt 0 view .LVU17
	cmp	r0, #0	@ <retval>,
	cmpne	r4, #0	@, out,
@ src/cipher.c:132:   if (rc && out)
	.loc 1 132 7 view .LVU18
	mov	r6, r0	@ <retval>, tmp140
.LVL7:
@ src/cipher.c:132:   if (rc && out)
	.loc 1 132 6 view .LVU19
	bne	.L9		@,
@ src/cipher.c:136: }
	.loc 1 136 1 view .LVU20
	mov	r0, r6	@, <retval>
	.loc 1 136 1 view .LVU21
	add	sp, sp, #8	@,,
	.cfi_remember_state
	.cfi_def_cfa_offset 24
	@ sp needed	@
	pop	{r4, r5, r6, r7, r8, pc}	@
.LVL8:
.L9:
	.cfi_restore_state
	.loc 1 133 5 is_stmt 1 view .LVU22
	mov	r2, r5	@, outsize
	mov	r1, #66	@,
	mov	r0, r4	@, out
.LVL9:
	.loc 1 133 5 is_stmt 0 view .LVU23
	bl	memset(PLT)	@
.LVL10:
	.loc 1 135 3 is_stmt 1 view .LVU24
@ src/cipher.c:136: }
	.loc 1 136 1 is_stmt 0 view .LVU25
	mov	r0, r6	@, <retval>
	add	sp, sp, #8	@,,
	.cfi_def_cfa_offset 24
	@ sp needed	@
	pop	{r4, r5, r6, r7, r8, pc}	@
.LVL11:
.L11:
	.loc 1 136 1 view .LVU26
	.align	2
.L10:
	.word	.LC0-(.LPIC0+8)
	.cfi_endproc
.LFE20:
	.size	_gcry_cipher_encrypt, .-_gcry_cipher_encrypt
	.section	.rodata.cipher_filter_cfb.str1.4,"aMS",%progbits,1
	.align	2
.LC1:
	.ascii	"cipher_filter_cfb\012\000"
	.align	2
.LC2:
	.ascii	"cipher_filter_cfb %d %d\012\000"
	.align	2
.LC3:
	.ascii	"IOBUFCTRL_FLUSH\012\000"
	.align	2
.LC4:
	.ascii	"write_cfb_header\012\000"
	.align	2
.LC5:
	.ascii	"use_mdc %d\012\000"
	.align	2
.LC6:
	.ascii	"build_packet(ENCR_DATA) failed\012\000"
	.align	2
.LC7:
	.ascii	"Fixing random %d bytes\012\000"
	.align	2
.LC9:
	.ascii	"Encrypting: %d bytes\012\000"
	.align	2
.LC10:
	.ascii	"Encrypting2: %d bytes\012\000"
	.align	2
.LC11:
	.ascii	"short_blklen_count: %d\012\000"
	.align	2
.LC12:
	.ascii	"IOBUFCTRL_FREE\012\000"
	.align	2
.LC13:
	.ascii	"cipher_filter_cfb RETURNING %d\012\000"
	.align	2
.LC8:
	.ascii	"\001#Eg\211\253\315\357\000"
	.section	.text.cipher_filter_cfb,"ax",%progbits
	.align	2
	.global	cipher_filter_cfb
	.syntax unified
	.arm
	.fpu softvfp
	.type	cipher_filter_cfb, %function
cipher_filter_cfb:
.LVL12:
.LFB21:
	.loc 1 141 1 is_stmt 1 view -0
	.cfi_startproc
	@ args = 4, pretend = 0, frame = 56
	@ frame_needed = 0, uses_anonymous_args = 0
	.loc 1 142 3 view .LVU28
@ src/cipher.c:141: {
	.loc 1 141 1 is_stmt 0 view .LVU29
	push	{r4, r5, r6, r7, r8, r9, lr}	@
	.cfi_def_cfa_offset 28
	.cfi_offset 4, -28
	.cfi_offset 5, -24
	.cfi_offset 6, -20
	.cfi_offset 7, -16
	.cfi_offset 8, -12
	.cfi_offset 9, -8
	.cfi_offset 14, -4
	mov	r5, r0	@ tmp244, opaque
@ src/cipher.c:142:   printf("cipher_filter_cfb\n");
	.loc 1 142 3 view .LVU30
	ldr	r0, .L29	@,
.LVL13:
@ src/cipher.c:141: {
	.loc 1 141 1 view .LVU31
	sub	sp, sp, #68	@,,
	.cfi_def_cfa_offset 96
@ src/cipher.c:141: {
	.loc 1 141 1 view .LVU32
	mov	r4, r1	@ control, tmp245
	mov	r7, r2	@ chain, tmp246
@ src/cipher.c:142:   printf("cipher_filter_cfb\n");
	.loc 1 142 3 view .LVU33
.LPIC1:
	add	r0, pc, r0	@,
@ src/cipher.c:141: {
	.loc 1 141 1 view .LVU34
	mov	r6, r3	@ buf, tmp247
@ src/cipher.c:142:   printf("cipher_filter_cfb\n");
	.loc 1 142 3 view .LVU35
	bl	tfp_printf(PLT)	@
.LVL14:
	.loc 1 143 3 is_stmt 1 view .LVU36
	.loc 1 145 3 view .LVU37
@ src/cipher.c:147:   printf("cipher_filter_cfb %d %d\n",control, cfx->wrote_header);
	.loc 1 147 50 is_stmt 0 view .LVU38
	ldrb	r2, [r5, #12]	@ zero_extendqisi2	@ MEM[(struct cipher_filter_context_t *)opaque_18(D)], MEM[(struct cipher_filter_context_t *)opaque_18(D)]
@ src/cipher.c:147:   printf("cipher_filter_cfb %d %d\n",control, cfx->wrote_header);
	.loc 1 147 3 view .LVU39
	mov	r1, r4	@, control
	ldr	r0, .L29+4	@,
@ src/cipher.c:145:   size_t size = *len;
	.loc 1 145 10 view .LVU40
	ldr	r3, [sp, #96]	@ tmp255, len
@ src/cipher.c:147:   printf("cipher_filter_cfb %d %d\n",control, cfx->wrote_header);
	.loc 1 147 3 view .LVU41
	and	r2, r2, #1	@, MEM[(struct cipher_filter_context_t *)opaque_18(D)],
.LPIC2:
	add	r0, pc, r0	@,
@ src/cipher.c:145:   size_t size = *len;
	.loc 1 145 10 view .LVU42
	ldr	r8, [r3]	@ size, *len_19(D)
.LVL15:
	.loc 1 146 3 is_stmt 1 view .LVU43
	.loc 1 147 3 view .LVU44
	bl	tfp_printf(PLT)	@
.LVL16:
	.loc 1 149 3 view .LVU45
@ src/cipher.c:149:   if (control == IOBUFCTRL_UNDERFLOW) /* decrypt */
	.loc 1 149 6 is_stmt 0 view .LVU46
	cmp	r4, #3	@ control,
	beq	.L19		@,
	.loc 1 154 8 is_stmt 1 view .LVU47
@ src/cipher.c:154:   else if (control == IOBUFCTRL_FLUSH) /* encrypt */
	.loc 1 154 11 is_stmt 0 view .LVU48
	cmp	r4, #4	@ control,
	beq	.L25		@,
	.loc 1 192 8 is_stmt 1 view .LVU49
@ src/cipher.c:192:   else if (control == IOBUFCTRL_FREE)
	.loc 1 192 11 is_stmt 0 view .LVU50
	cmp	r4, #2	@ control,
@ src/cipher.c:146:   int rc = 0;
	.loc 1 146 7 view .LVU51
	movne	r4, #0	@ <retval>,
.LVL17:
@ src/cipher.c:192:   else if (control == IOBUFCTRL_FREE)
	.loc 1 192 11 view .LVU52
	beq	.L26		@,
.LVL18:
.L13:
	.loc 1 228 5 is_stmt 1 view .LVU53
	.loc 1 229 5 view .LVU54
	ldr	r0, .L29+8	@,
	mov	r1, r4	@, <retval>
.LPIC13:
	add	r0, pc, r0	@,
	bl	tfp_printf(PLT)	@
.LVL19:
	.loc 1 231 3 view .LVU55
@ src/cipher.c:232: }
	.loc 1 232 1 is_stmt 0 view .LVU56
	mov	r0, r4	@, <retval>
	add	sp, sp, #68	@,,
	.cfi_remember_state
	.cfi_def_cfa_offset 28
	@ sp needed	@
	pop	{r4, r5, r6, r7, r8, r9, pc}	@
.LVL20:
.L25:
	.cfi_restore_state
	.loc 1 156 7 is_stmt 1 view .LVU57
	ldr	r0, .L29+12	@,
.LPIC3:
	add	r0, pc, r0	@,
	bl	tfp_printf(PLT)	@
.LVL21:
	.loc 1 158 7 view .LVU58
@ src/cipher.c:158:       if (!cfx->wrote_header){
	.loc 1 158 11 is_stmt 0 view .LVU59
	ldrb	r1, [r5, #12]	@ zero_extendqisi2	@ MEM[(struct cipher_filter_context_t *)opaque_18(D)], MEM[(struct cipher_filter_context_t *)opaque_18(D)]
@ src/cipher.c:158:       if (!cfx->wrote_header){
	.loc 1 158 10 view .LVU60
	ands	r4, r1, #1	@ tmp169, MEM[(struct cipher_filter_context_t *)opaque_18(D)],
.LVL22:
	.loc 1 158 10 view .LVU61
	beq	.L27		@,
.L15:
	.loc 1 168 7 is_stmt 1 view .LVU62
	ldr	r0, .L29+16	@,
	mov	r1, r8	@, size
.LPIC10:
	add	r0, pc, r0	@,
	bl	tfp_printf(PLT)	@
.LVL23:
	.loc 1 173 7 view .LVU63
	mov	r3, #0	@ tmp229,
	mov	r2, r8	@, size
	str	r3, [sp]	@ tmp229,
	mov	r1, r6	@, buf
	ldr	r0, [r5, #8]	@, MEM[(struct cipher_filter_context_t *)opaque_18(D)].cipher_hd
	bl	_gcry_cipher_encrypt(PLT)	@
.LVL24:
	.loc 1 174 7 view .LVU64
@ src/cipher.c:174:       if (cfx->short_blklen_warn)
	.loc 1 174 11 is_stmt 0 view .LVU65
	ldrb	r3, [r5, #12]	@ zero_extendqisi2	@ MEM[(struct cipher_filter_context_t *)opaque_18(D)], MEM[(struct cipher_filter_context_t *)opaque_18(D)]
@ src/cipher.c:176:           cfx->short_blklen_count += size;
	.loc 1 176 35 view .LVU66
	ldr	r1, [r5, #16]	@ MEM[(struct cipher_filter_context_t *)opaque_18(D)].short_blklen_count, MEM[(struct cipher_filter_context_t *)opaque_18(D)].short_blklen_count
@ src/cipher.c:188:       printf("short_blklen_count: %d\n", cfx->short_blklen_count);
	.loc 1 188 7 view .LVU67
	ldr	r0, .L29+20	@,
@ src/cipher.c:174:       if (cfx->short_blklen_warn)
	.loc 1 174 10 view .LVU68
	tst	r3, #2	@ MEM[(struct cipher_filter_context_t *)opaque_18(D)],
	.loc 1 176 11 is_stmt 1 view .LVU69
	.loc 1 188 7 view .LVU70
@ src/cipher.c:176:           cfx->short_blklen_count += size;
	.loc 1 176 35 is_stmt 0 view .LVU71
	addne	r1, r8, r1	@ _9, size, MEM[(struct cipher_filter_context_t *)opaque_18(D)].short_blklen_count
	strne	r1, [r5, #16]	@ _9, MEM[(struct cipher_filter_context_t *)opaque_18(D)].short_blklen_count
@ src/cipher.c:188:       printf("short_blklen_count: %d\n", cfx->short_blklen_count);
	.loc 1 188 7 view .LVU72
.LPIC11:
	add	r0, pc, r0	@,
	bl	tfp_printf(PLT)	@
.LVL25:
	.loc 1 190 7 is_stmt 1 view .LVU73
@ src/cipher.c:190:       rc = iobuf_write (chain, buf, size);
	.loc 1 190 12 is_stmt 0 view .LVU74
	mov	r2, r8	@, size
	mov	r1, r6	@, buf
	mov	r0, r7	@, chain
	bl	iobuf_write(PLT)	@
.LVL26:
	mov	r4, r0	@ <retval>, tmp249
.LVL27:
	.loc 1 190 12 view .LVU75
	b	.L13		@
.LVL28:
.L27:
	.loc 1 160 1 is_stmt 1 view .LVU76
.LBB5:
.LBI5:
	.loc 1 10 1 view .LVU77
.LBB6:
	.loc 1 12 3 view .LVU78
	ldr	r0, .L29+24	@,
@ src/cipher.c:25:   memset (&ed, 0, sizeof ed);
	.loc 1 25 3 is_stmt 0 view .LVU79
	add	r9, sp, #44	@ tmp172,,
@ src/cipher.c:12:   printf ("write_cfb_header\n");
	.loc 1 12 3 view .LVU80
.LPIC4:
	add	r0, pc, r0	@,
	bl	tfp_printf(PLT)	@
.LVL29:
	.loc 1 13 3 is_stmt 1 view .LVU81
	.loc 1 14 3 view .LVU82
	.loc 1 15 3 view .LVU83
	.loc 1 16 3 view .LVU84
	.loc 1 17 3 view .LVU85
	.loc 1 18 3 view .LVU86
	.loc 1 20 3 view .LVU87
	.loc 1 22 3 view .LVU88
	.loc 1 25 3 view .LVU89
	mov	r2, #20	@,
	mov	r1, r4	@, tmp169
	mov	r0, r9	@, tmp172
	bl	memset(PLT)	@
.LVL30:
	.loc 1 26 3 view .LVU90
@ src/cipher.c:26:   ed.len = cfx->datalen;
	.loc 1 26 15 is_stmt 0 view .LVU91
	ldr	r3, [r5, #4]	@ _36, MEM[(struct cipher_filter_context_t *)opaque_18(D)].datalen
@ src/cipher.c:47:   printf("use_mdc %d\n", cfx->dek->use_mdc);
	.loc 1 47 3 view .LVU92
	ldr	r0, .L29+28	@,
@ src/cipher.c:26:   ed.len = cfx->datalen;
	.loc 1 26 10 view .LVU93
	str	r3, [sp, #44]	@ _36, ed.len
	.loc 1 27 3 is_stmt 1 view .LVU94
@ src/cipher.c:28:   ed.new_ctb = !ed.len;
	.loc 1 28 16 is_stmt 0 view .LVU95
	clz	r3, r3	@ tmp174, _36
@ src/cipher.c:47:   printf("use_mdc %d\n", cfx->dek->use_mdc);
	.loc 1 47 3 view .LVU96
.LPIC5:
	add	r0, pc, r0	@,
@ src/cipher.c:28:   ed.new_ctb = !ed.len;
	.loc 1 28 16 view .LVU97
	lsr	r3, r3, #5	@ tmp174, tmp174,
	strb	r3, [sp, #52]	@ tmp174, ed.new_ctb
@ src/cipher.c:47:   printf("use_mdc %d\n", cfx->dek->use_mdc);
	.loc 1 47 34 view .LVU98
	ldr	r3, [r5]	@ MEM[(struct cipher_filter_context_t *)opaque_18(D)].dek, MEM[(struct cipher_filter_context_t *)opaque_18(D)].dek
@ src/cipher.c:46:   init_packet (&pkt);
	.loc 1 46 3 view .LVU99
	strb	r4, [sp, #8]	@ tmp169, pkt.pkttype
@ src/cipher.c:47:   printf("use_mdc %d\n", cfx->dek->use_mdc);
	.loc 1 47 34 view .LVU100
	ldrb	r1, [r3, #8]	@ zero_extendqisi2	@ *_39, *_39
@ src/cipher.c:27:   ed.extralen = blocksize + 2;
	.loc 1 27 15 view .LVU101
	mov	r3, #10	@ tmp173,
	str	r3, [sp, #48]	@ tmp173, ed.extralen
	.loc 1 28 3 is_stmt 1 view .LVU102
	.loc 1 46 3 view .LVU103
	.loc 1 46 3 view .LVU104
	.loc 1 46 3 view .LVU105
	.loc 1 46 3 view .LVU106
	.loc 1 47 3 view .LVU107
	ubfx	r1, r1, #5, #1	@, *_39,,
@ src/cipher.c:46:   init_packet (&pkt);
	.loc 1 46 3 is_stmt 0 view .LVU108
	str	r4, [sp, #12]	@ tmp169, pkt.pkt.generic
@ src/cipher.c:47:   printf("use_mdc %d\n", cfx->dek->use_mdc);
	.loc 1 47 3 view .LVU109
	bl	tfp_printf(PLT)	@
.LVL31:
	.loc 1 48 3 is_stmt 1 view .LVU110
@ src/cipher.c:50:   pkt.pkt.encrypted = &ed;
	.loc 1 50 21 is_stmt 0 view .LVU111
	str	r9, [sp, #12]	@ tmp172, pkt.pkt.encrypted
@ src/cipher.c:48:   pkt.pkttype = //cfx->dek->use_mdc? PKT_ENCRYPTED_MDC :
	.loc 1 48 15 view .LVU112
	mov	r3, #9	@ tmp187,
	strb	r3, [sp, #8]	@ tmp187, pkt.pkttype
	.loc 1 50 3 is_stmt 1 view .LVU113
	.loc 1 51 3 view .LVU114
@ src/cipher.c:51:   if (build_packet( a, &pkt))
	.loc 1 51 7 is_stmt 0 view .LVU115
	add	r1, sp, #8	@,,
	mov	r0, r7	@, chain
	bl	build_packet(PLT)	@
.LVL32:
@ src/cipher.c:51:   if (build_packet( a, &pkt))
	.loc 1 51 6 view .LVU116
	cmp	r0, #0	@ tmp248,
	bne	.L28		@,
.L16:
	.loc 1 53 3 is_stmt 1 view .LVU117
.LVL33:
	.loc 1 55 3 view .LVU118
	ldr	r0, .L29+32	@,
	mov	r1, #8	@,
@ src/cipher.c:57: memcpy(temp, fixed_random, nprefix);
	.loc 1 57 1 is_stmt 0 view .LVU119
	add	r4, sp, #24	@ tmp200,,
@ src/cipher.c:55:   printf("Fixing random %d bytes\n", nprefix);
	.loc 1 55 3 view .LVU120
.LPIC7:
	add	r0, pc, r0	@,
	bl	tfp_printf(PLT)	@
.LVL34:
	.loc 1 56 3 is_stmt 1 view .LVU121
@ src/cipher.c:56:   const unsigned char fixed_random[] = {0x01, 0x23, 0x45, 0x67, 0x89, 0xAB, 0xCD, 0xEF}; // Example fixed bytes
	.loc 1 56 23 is_stmt 0 view .LVU122
	ldr	r3, .L29+36	@ tmp196,
@ src/cipher.c:57: memcpy(temp, fixed_random, nprefix);
	.loc 1 57 1 view .LVU123
	mov	r2, #8	@,
@ src/cipher.c:56:   const unsigned char fixed_random[] = {0x01, 0x23, 0x45, 0x67, 0x89, 0xAB, 0xCD, 0xEF}; // Example fixed bytes
	.loc 1 56 23 view .LVU124
.LPIC8:
	add	r3, pc, r3	@ tmp196, tmp196
	ldm	r3, {r0, r1}	@ tmp196,,
	add	r3, sp, #16	@ tmp197,,
	stm	r3, {r0, r1}	@ tmp197,,
	.loc 1 57 1 is_stmt 1 view .LVU125
	mov	r1, r3	@, tmp197
	mov	r0, r4	@, tmp200
	bl	memcpy(PLT)	@
.LVL35:
	.loc 1 58 3 view .LVU126
@ src/cipher.c:58:   temp[nprefix] = temp[nprefix-2];
	.loc 1 58 17 is_stmt 0 view .LVU127
	ldrb	r2, [sp, #30]	@ zero_extendqisi2	@ temp[6], temp[6]
@ src/cipher.c:75:   _gcry_cipher_setkey (cfx->cipher_hd, cfx->dek->key, cfx->dek->keylen);
	.loc 1 75 43 view .LVU128
	ldr	r3, [r5]	@ _46, MEM[(struct cipher_filter_context_t *)opaque_18(D)].dek
@ src/cipher.c:58:   temp[nprefix] = temp[nprefix-2];
	.loc 1 58 17 view .LVU129
	strb	r2, [sp, #32]	@ temp[6], temp[8]
	.loc 1 59 3 is_stmt 1 view .LVU130
@ src/cipher.c:59:   temp[nprefix+1] = temp[nprefix-1];
	.loc 1 59 19 is_stmt 0 view .LVU131
	ldrb	r2, [sp, #31]	@ zero_extendqisi2	@ temp[7], temp[7]
@ src/cipher.c:75:   _gcry_cipher_setkey (cfx->cipher_hd, cfx->dek->key, cfx->dek->keylen);
	.loc 1 75 3 view .LVU132
	add	r1, r3, #9	@, _46,
	ldr	r0, [r5, #8]	@, MEM[(struct cipher_filter_context_t *)opaque_18(D)].cipher_hd
@ src/cipher.c:59:   temp[nprefix+1] = temp[nprefix-1];
	.loc 1 59 19 view .LVU133
	strb	r2, [sp, #33]	@ temp[7], temp[9]
	.loc 1 75 3 is_stmt 1 view .LVU134
	ldr	r2, [r3, #4]	@, _46->keylen
	bl	_gcry_cipher_setkey(PLT)	@
.LVL36:
	.loc 1 76 3 view .LVU135
	ldr	r0, [r5, #8]	@ MEM[(struct cipher_filter_context_t *)opaque_18(D)].cipher_hd, MEM[(struct cipher_filter_context_t *)opaque_18(D)].cipher_hd
	mov	r1, #16	@,
	add	r0, r0, #48	@, MEM[(struct cipher_filter_context_t *)opaque_18(D)].cipher_hd,
	bl	log_hexdump(PLT)	@
.LVL37:
	.loc 1 78 3 view .LVU136
	ldr	r0, [r5, #8]	@, MEM[(struct cipher_filter_context_t *)opaque_18(D)].cipher_hd
	mov	r2, #8	@,
	mov	r1, #0	@,
	bl	_gcry_cipher_setiv(PLT)	@
.LVL38:
	.loc 1 80 3 view .LVU137
	ldr	r0, [r5, #8]	@, MEM[(struct cipher_filter_context_t *)opaque_18(D)].cipher_hd
	mov	r1, #8	@,
	bl	log_hexdump(PLT)	@
.LVL39:
	.loc 1 86 7 view .LVU138
	ldr	r0, .L29+40	@,
	mov	r1, #10	@,
.LPIC9:
	add	r0, pc, r0	@,
	bl	tfp_printf(PLT)	@
.LVL40:
	.loc 1 88 3 view .LVU139
	mov	r3, #0	@ tmp216,
	mov	r2, #10	@,
	str	r3, [sp]	@ tmp216,
	mov	r1, r4	@, tmp200
	ldr	r0, [r5, #8]	@, MEM[(struct cipher_filter_context_t *)opaque_18(D)].cipher_hd
	bl	_gcry_cipher_encrypt(PLT)	@
.LVL41:
	.loc 1 93 3 view .LVU140
	ldr	r0, [r5, #8]	@, MEM[(struct cipher_filter_context_t *)opaque_18(D)].cipher_hd
	bl	cipher_sync(PLT)	@
.LVL42:
	.loc 1 94 3 view .LVU141
	mov	r1, r4	@, tmp200
	mov	r2, #10	@,
	mov	r0, r7	@, chain
	bl	iobuf_write(PLT)	@
.LVL43:
	.loc 1 98 3 view .LVU142
	.loc 1 100 3 view .LVU143
@ src/cipher.c:100:   cfx->short_blklen_count = nprefix+2;
	.loc 1 100 27 is_stmt 0 view .LVU144
	mov	r3, #10	@ tmp219,
	str	r3, [r5, #16]	@ tmp219, MEM[(struct cipher_filter_context_t *)opaque_18(D)].short_blklen_count
	.loc 1 103 3 is_stmt 1 view .LVU145
@ src/cipher.c:103:   cfx->wrote_header = 1;
	.loc 1 103 21 is_stmt 0 view .LVU146
	ldrb	r3, [r5, #12]	@ zero_extendqisi2	@ MEM <unsigned char> [(struct cipher_filter_context_t *)opaque_18(D) + 12B], MEM <unsigned char> [(struct cipher_filter_context_t *)opaque_18(D) + 12B]
	bic	r3, r3, #3	@ tmp222, MEM <unsigned char> [(struct cipher_filter_context_t *)opaque_18(D) + 12B],
	orr	r3, r3, #3	@ tmp224, tmp222,
	strb	r3, [r5, #12]	@ tmp224, MEM <unsigned char> [(struct cipher_filter_context_t *)opaque_18(D) + 12B]
@ src/cipher.c:104: }
	.loc 1 104 1 view .LVU147
	b	.L15		@
.LVL44:
.L26:
	.loc 1 104 1 view .LVU148
.LBE6:
.LBE5:
	.loc 1 194 7 is_stmt 1 view .LVU149
	ldr	r0, .L29+44	@,
@ src/cipher.c:146:   int rc = 0;
	.loc 1 146 7 is_stmt 0 view .LVU150
	mov	r4, #0	@ <retval>,
@ src/cipher.c:194:       printf("IOBUFCTRL_FREE\n");
	.loc 1 194 7 view .LVU151
.LPIC12:
	add	r0, pc, r0	@,
	bl	tfp_printf(PLT)	@
.LVL45:
	.loc 1 222 7 is_stmt 1 view .LVU152
	ldr	r0, [r5, #8]	@, MEM[(struct cipher_filter_context_t *)opaque_18(D)].cipher_hd
	bl	_gcry_cipher_close(PLT)	@
.LVL46:
	b	.L13		@
.LVL47:
.L28:
.LBB8:
.LBB7:
	.loc 1 52 5 view .LVU153
	ldr	r0, .L29+48	@,
.LPIC6:
	add	r0, pc, r0	@,
	bl	tfp_printf(PLT)	@
.LVL48:
	b	.L16		@
.LVL49:
.L19:
	.loc 1 52 5 is_stmt 0 view .LVU154
.LBE7:
.LBE8:
@ src/cipher.c:152:       rc = -1; /* not used */
	.loc 1 152 10 view .LVU155
	mvn	r4, #0	@ <retval>,
.LVL50:
	.loc 1 152 10 view .LVU156
	b	.L13		@
.L30:
	.align	2
.L29:
	.word	.LC1-(.LPIC1+8)
	.word	.LC2-(.LPIC2+8)
	.word	.LC13-(.LPIC13+8)
	.word	.LC3-(.LPIC3+8)
	.word	.LC10-(.LPIC10+8)
	.word	.LC11-(.LPIC11+8)
	.word	.LC4-(.LPIC4+8)
	.word	.LC5-(.LPIC5+8)
	.word	.LC7-(.LPIC7+8)
	.word	.LC8-(.LPIC8+8)
	.word	.LC9-(.LPIC9+8)
	.word	.LC12-(.LPIC12+8)
	.word	.LC6-(.LPIC6+8)
	.cfi_endproc
.LFE21:
	.size	cipher_filter_cfb, .-cipher_filter_cfb
	.text
.Letext0:
	.file 2 "/usr/lib/gcc/arm-none-eabi/10.3.1/include/stddef.h"
	.file 3 "/usr/lib/gcc/arm-none-eabi/10.3.1/include/stdint.h"
	.file 4 "/usr/include/newlib/sys/_types.h"
	.file 5 "/usr/include/newlib/sys/types.h"
	.file 6 "src/common/../common/types.h"
	.file 7 "src/common/iobuf.h"
	.file 8 "src/dek.h"
	.file 9 "src/filter.h"
	.file 10 "src/libgcrypt.h"
	.file 11 "src/gcrypt.h"
	.file 12 "src/common/openpgpdefs.h"
	.file 13 "src/packet.h"
	.file 14 "src/printf.h"
	.file 15 "/usr/include/newlib/string.h"
	.section	.debug_info,"",%progbits
.Ldebug_info0:
	.4byte	0x1904
	.2byte	0x4
	.4byte	.Ldebug_abbrev0
	.byte	0x4
	.uleb128 0x1
	.4byte	.LASF256
	.byte	0xc
	.4byte	.LASF257
	.4byte	.LASF258
	.4byte	.Ldebug_ranges0+0x18
	.4byte	0
	.4byte	.Ldebug_line0
	.uleb128 0x2
	.byte	0x4
	.byte	0x5
	.ascii	"int\000"
	.uleb128 0x3
	.4byte	.LASF8
	.byte	0x2
	.byte	0xd1
	.byte	0x17
	.4byte	0x38
	.uleb128 0x4
	.byte	0x4
	.byte	0x7
	.4byte	.LASF0
	.uleb128 0x4
	.byte	0x8
	.byte	0x5
	.4byte	.LASF1
	.uleb128 0x4
	.byte	0x8
	.byte	0x4
	.4byte	.LASF2
	.uleb128 0x4
	.byte	0x1
	.byte	0x6
	.4byte	.LASF3
	.uleb128 0x4
	.byte	0x2
	.byte	0x5
	.4byte	.LASF4
	.uleb128 0x4
	.byte	0x4
	.byte	0x5
	.4byte	.LASF5
	.uleb128 0x4
	.byte	0x1
	.byte	0x8
	.4byte	.LASF6
	.uleb128 0x5
	.4byte	0x62
	.uleb128 0x4
	.byte	0x2
	.byte	0x7
	.4byte	.LASF7
	.uleb128 0x3
	.4byte	.LASF9
	.byte	0x3
	.byte	0x34
	.byte	0x19
	.4byte	0x81
	.uleb128 0x4
	.byte	0x4
	.byte	0x7
	.4byte	.LASF10
	.uleb128 0x4
	.byte	0x8
	.byte	0x7
	.4byte	.LASF11
	.uleb128 0x6
	.byte	0x4
	.uleb128 0x3
	.4byte	.LASF12
	.byte	0x4
	.byte	0x2e
	.byte	0xe
	.4byte	0x5b
	.uleb128 0x3
	.4byte	.LASF13
	.byte	0x4
	.byte	0x66
	.byte	0x10
	.4byte	0x91
	.uleb128 0x7
	.byte	0x4
	.4byte	0xaf
	.uleb128 0x4
	.byte	0x1
	.byte	0x8
	.4byte	.LASF14
	.uleb128 0x8
	.4byte	0x62
	.4byte	0xc6
	.uleb128 0x9
	.4byte	0x38
	.byte	0
	.byte	0
	.uleb128 0x3
	.4byte	.LASF15
	.byte	0x5
	.byte	0x9d
	.byte	0x12
	.4byte	0x9d
	.uleb128 0x7
	.byte	0x4
	.4byte	0xd8
	.uleb128 0xa
	.uleb128 0x3
	.4byte	.LASF16
	.byte	0x6
	.byte	0x4a
	.byte	0x1c
	.4byte	0x62
	.uleb128 0x5
	.4byte	0xd9
	.uleb128 0xb
	.ascii	"u16\000"
	.byte	0x6
	.byte	0x60
	.byte	0x1d
	.4byte	0x6e
	.uleb128 0xb
	.ascii	"u32\000"
	.byte	0x6
	.byte	0x6a
	.byte	0x1b
	.4byte	0x38
	.uleb128 0x8
	.4byte	0xaf
	.4byte	0x112
	.uleb128 0x9
	.4byte	0x38
	.byte	0
	.byte	0
	.uleb128 0xc
	.byte	0x7
	.byte	0x1
	.4byte	0x62
	.byte	0x7
	.byte	0x76
	.byte	0x3
	.4byte	0x151
	.uleb128 0xd
	.4byte	.LASF17
	.byte	0x1
	.uleb128 0xd
	.4byte	.LASF18
	.byte	0x2
	.uleb128 0xd
	.4byte	.LASF19
	.byte	0x3
	.uleb128 0xd
	.4byte	.LASF20
	.byte	0x4
	.uleb128 0xd
	.4byte	.LASF21
	.byte	0x5
	.uleb128 0xd
	.4byte	.LASF22
	.byte	0x6
	.uleb128 0xd
	.4byte	.LASF23
	.byte	0x7
	.uleb128 0xd
	.4byte	.LASF24
	.byte	0x10
	.byte	0
	.uleb128 0xe
	.4byte	.LASF259
	.byte	0x7
	.byte	0x1
	.4byte	0x62
	.byte	0x7
	.byte	0x8c
	.byte	0x6
	.4byte	0x17c
	.uleb128 0xd
	.4byte	.LASF25
	.byte	0
	.uleb128 0xd
	.4byte	.LASF26
	.byte	0x1
	.uleb128 0xd
	.4byte	.LASF27
	.byte	0x2
	.uleb128 0xd
	.4byte	.LASF28
	.byte	0x3
	.byte	0
	.uleb128 0x3
	.4byte	.LASF29
	.byte	0x7
	.byte	0xa0
	.byte	0x1e
	.4byte	0x188
	.uleb128 0x7
	.byte	0x4
	.4byte	0x18e
	.uleb128 0xf
	.4byte	.LASF52
	.byte	0x48
	.byte	0x7
	.byte	0xa4
	.byte	0x8
	.4byte	0x25e
	.uleb128 0x10
	.ascii	"use\000"
	.byte	0x7
	.byte	0xa8
	.byte	0x12
	.4byte	0x151
	.byte	0
	.uleb128 0x11
	.4byte	.LASF30
	.byte	0x7
	.byte	0xad
	.byte	0x9
	.4byte	0xc6
	.byte	0x4
	.uleb128 0x11
	.4byte	.LASF31
	.byte	0x7
	.byte	0xb1
	.byte	0x9
	.4byte	0xc6
	.byte	0x8
	.uleb128 0x11
	.4byte	.LASF32
	.byte	0x7
	.byte	0xb6
	.byte	0x9
	.4byte	0xc6
	.byte	0xc
	.uleb128 0x11
	.4byte	.LASF33
	.byte	0x7
	.byte	0xbb
	.byte	0x7
	.4byte	0x25
	.byte	0x10
	.uleb128 0x10
	.ascii	"d\000"
	.byte	0x7
	.byte	0xdd
	.byte	0x5
	.4byte	0x25e
	.byte	0x14
	.uleb128 0x11
	.4byte	.LASF34
	.byte	0x7
	.byte	0xe3
	.byte	0x7
	.4byte	0x25
	.byte	0x24
	.uleb128 0x11
	.4byte	.LASF35
	.byte	0x7
	.byte	0xe9
	.byte	0x7
	.4byte	0x25
	.byte	0x28
	.uleb128 0x11
	.4byte	.LASF36
	.byte	0x7
	.byte	0xed
	.byte	0x9
	.4byte	0x2cb
	.byte	0x2c
	.uleb128 0x11
	.4byte	.LASF37
	.byte	0x7
	.byte	0xf1
	.byte	0x9
	.4byte	0x8f
	.byte	0x30
	.uleb128 0x11
	.4byte	.LASF38
	.byte	0x7
	.byte	0xf4
	.byte	0x7
	.4byte	0x25
	.byte	0x34
	.uleb128 0x11
	.4byte	.LASF39
	.byte	0x7
	.byte	0xfa
	.byte	0x9
	.4byte	0xa9
	.byte	0x38
	.uleb128 0x11
	.4byte	.LASF40
	.byte	0x7
	.byte	0xfd
	.byte	0xb
	.4byte	0x17c
	.byte	0x3c
	.uleb128 0x12
	.ascii	"no\000"
	.byte	0x7
	.2byte	0x103
	.byte	0x7
	.4byte	0x25
	.byte	0x40
	.uleb128 0x13
	.4byte	.LASF41
	.byte	0x7
	.2byte	0x10b
	.byte	0x7
	.4byte	0x25
	.byte	0x44
	.byte	0
	.uleb128 0x14
	.byte	0x10
	.byte	0x7
	.byte	0xcf
	.byte	0x3
	.4byte	0x29c
	.uleb128 0x11
	.4byte	.LASF42
	.byte	0x7
	.byte	0xd2
	.byte	0xc
	.4byte	0x2c
	.byte	0
	.uleb128 0x11
	.4byte	.LASF43
	.byte	0x7
	.byte	0xd7
	.byte	0xc
	.4byte	0x2c
	.byte	0x4
	.uleb128 0x10
	.ascii	"len\000"
	.byte	0x7
	.byte	0xda
	.byte	0xc
	.4byte	0x2c
	.byte	0x8
	.uleb128 0x10
	.ascii	"buf\000"
	.byte	0x7
	.byte	0xdc
	.byte	0xb
	.4byte	0x29c
	.byte	0xc
	.byte	0
	.uleb128 0x7
	.byte	0x4
	.4byte	0xd9
	.uleb128 0x15
	.4byte	0x25
	.4byte	0x2c5
	.uleb128 0x16
	.4byte	0x8f
	.uleb128 0x16
	.4byte	0x25
	.uleb128 0x16
	.4byte	0x17c
	.uleb128 0x16
	.4byte	0x29c
	.uleb128 0x16
	.4byte	0x2c5
	.byte	0
	.uleb128 0x7
	.byte	0x4
	.4byte	0x2c
	.uleb128 0x7
	.byte	0x4
	.4byte	0x2a2
	.uleb128 0x14
	.byte	0x3c
	.byte	0x8
	.byte	0x17
	.byte	0x9
	.4byte	0x34f
	.uleb128 0x11
	.4byte	.LASF44
	.byte	0x8
	.byte	0x1a
	.byte	0x7
	.4byte	0x25
	.byte	0
	.uleb128 0x11
	.4byte	.LASF45
	.byte	0x8
	.byte	0x1c
	.byte	0x7
	.4byte	0x25
	.byte	0x4
	.uleb128 0x17
	.4byte	.LASF46
	.byte	0x8
	.byte	0x21
	.byte	0x10
	.4byte	0x38
	.byte	0x4
	.byte	0x1
	.byte	0x1f
	.byte	0x8
	.uleb128 0x17
	.4byte	.LASF47
	.byte	0x8
	.byte	0x26
	.byte	0x7
	.4byte	0x25
	.byte	0x4
	.byte	0x4
	.byte	0x1b
	.byte	0x8
	.uleb128 0x17
	.4byte	.LASF48
	.byte	0x8
	.byte	0x29
	.byte	0x10
	.4byte	0x38
	.byte	0x4
	.byte	0x1
	.byte	0x1a
	.byte	0x8
	.uleb128 0x17
	.4byte	.LASF49
	.byte	0x8
	.byte	0x2c
	.byte	0x10
	.4byte	0x38
	.byte	0x4
	.byte	0x1
	.byte	0x19
	.byte	0x8
	.uleb128 0x10
	.ascii	"key\000"
	.byte	0x8
	.byte	0x2f
	.byte	0x8
	.4byte	0x34f
	.byte	0x9
	.uleb128 0x11
	.4byte	.LASF50
	.byte	0x8
	.byte	0x32
	.byte	0x8
	.4byte	0x35f
	.byte	0x29
	.byte	0
	.uleb128 0x8
	.4byte	0xd9
	.4byte	0x35f
	.uleb128 0x9
	.4byte	0x38
	.byte	0x1f
	.byte	0
	.uleb128 0x8
	.4byte	0xaf
	.4byte	0x36f
	.uleb128 0x9
	.4byte	0x38
	.byte	0x11
	.byte	0
	.uleb128 0xb
	.ascii	"DEK\000"
	.byte	0x8
	.byte	0x33
	.byte	0x3
	.4byte	0x2d1
	.uleb128 0x3
	.4byte	.LASF51
	.byte	0x9
	.byte	0xa
	.byte	0x24
	.4byte	0x387
	.uleb128 0x7
	.byte	0x4
	.4byte	0x38d
	.uleb128 0xf
	.4byte	.LASF53
	.byte	0x40
	.byte	0xa
	.byte	0x2a
	.byte	0x8
	.4byte	0x3dc
	.uleb128 0x11
	.4byte	.LASF54
	.byte	0xa
	.byte	0x2f
	.byte	0x7
	.4byte	0x577
	.byte	0
	.uleb128 0x11
	.4byte	.LASF55
	.byte	0xa
	.byte	0x32
	.byte	0x13
	.4byte	0x598
	.byte	0x10
	.uleb128 0x11
	.4byte	.LASF56
	.byte	0xa
	.byte	0x33
	.byte	0x9
	.4byte	0x25
	.byte	0x20
	.uleb128 0x11
	.4byte	.LASF57
	.byte	0xa
	.byte	0x36
	.byte	0x20
	.4byte	0x56b
	.byte	0x28
	.uleb128 0x10
	.ascii	"key\000"
	.byte	0xa
	.byte	0x37
	.byte	0x9
	.4byte	0x4cf
	.byte	0x30
	.byte	0
	.uleb128 0x3
	.4byte	.LASF58
	.byte	0x9
	.byte	0xb
	.byte	0x20
	.4byte	0x3e8
	.uleb128 0x7
	.byte	0x4
	.4byte	0x3ee
	.uleb128 0x18
	.4byte	.LASF59
	.byte	0x10
	.byte	0xb
	.2byte	0x531
	.byte	0x10
	.4byte	0x435
	.uleb128 0x12
	.ascii	"ctx\000"
	.byte	0xb
	.2byte	0x534
	.byte	0x1b
	.4byte	0x663
	.byte	0
	.uleb128 0x13
	.4byte	.LASF60
	.byte	0xb
	.2byte	0x537
	.byte	0x8
	.4byte	0x25
	.byte	0x4
	.uleb128 0x13
	.4byte	.LASF61
	.byte	0xb
	.2byte	0x538
	.byte	0x8
	.4byte	0x25
	.byte	0x8
	.uleb128 0x12
	.ascii	"buf\000"
	.byte	0xb
	.2byte	0x539
	.byte	0x11
	.4byte	0xb6
	.byte	0xc
	.byte	0
	.uleb128 0x14
	.byte	0x28
	.byte	0x9
	.byte	0x17
	.byte	0x9
	.4byte	0x4ad
	.uleb128 0x10
	.ascii	"dek\000"
	.byte	0x9
	.byte	0x19
	.byte	0xa
	.4byte	0x4ad
	.byte	0
	.uleb128 0x11
	.4byte	.LASF62
	.byte	0x9
	.byte	0x1c
	.byte	0xe
	.4byte	0x75
	.byte	0x4
	.uleb128 0x11
	.4byte	.LASF63
	.byte	0x9
	.byte	0x1f
	.byte	0x16
	.4byte	0x37b
	.byte	0x8
	.uleb128 0x17
	.4byte	.LASF64
	.byte	0x9
	.byte	0x22
	.byte	0x12
	.4byte	0x38
	.byte	0x4
	.byte	0x1
	.byte	0x1f
	.byte	0xc
	.uleb128 0x17
	.4byte	.LASF65
	.byte	0x9
	.byte	0x23
	.byte	0x12
	.4byte	0x38
	.byte	0x4
	.byte	0x1
	.byte	0x1e
	.byte	0xc
	.uleb128 0x11
	.4byte	.LASF66
	.byte	0x9
	.byte	0x24
	.byte	0x13
	.4byte	0x81
	.byte	0x10
	.uleb128 0x11
	.4byte	.LASF67
	.byte	0x9
	.byte	0x27
	.byte	0x12
	.4byte	0x3dc
	.byte	0x14
	.uleb128 0x11
	.4byte	.LASF68
	.byte	0x9
	.byte	0x2a
	.byte	0xa
	.4byte	0x4b3
	.byte	0x18
	.byte	0
	.uleb128 0x7
	.byte	0x4
	.4byte	0x36f
	.uleb128 0x8
	.4byte	0xd9
	.4byte	0x4c3
	.uleb128 0x9
	.4byte	0x38
	.byte	0xf
	.byte	0
	.uleb128 0x3
	.4byte	.LASF69
	.byte	0x9
	.byte	0x2c
	.byte	0x3
	.4byte	0x435
	.uleb128 0xb
	.ascii	"Key\000"
	.byte	0xa
	.byte	0x10
	.byte	0x12
	.4byte	0x4db
	.uleb128 0x8
	.4byte	0x75
	.4byte	0x4eb
	.uleb128 0x9
	.4byte	0x38
	.byte	0x3
	.byte	0
	.uleb128 0x19
	.byte	0x8
	.byte	0xa
	.byte	0x18
	.byte	0x9
	.4byte	0x531
	.uleb128 0x1a
	.ascii	"a\000"
	.byte	0xa
	.byte	0x19
	.byte	0x9
	.4byte	0x25
	.uleb128 0x1a
	.ascii	"b\000"
	.byte	0xa
	.byte	0x1a
	.byte	0xb
	.4byte	0x54
	.uleb128 0x1a
	.ascii	"c\000"
	.byte	0xa
	.byte	0x1b
	.byte	0xa
	.4byte	0x102
	.uleb128 0x1a
	.ascii	"d\000"
	.byte	0xa
	.byte	0x1c
	.byte	0xa
	.4byte	0x5b
	.uleb128 0x1a
	.ascii	"f\000"
	.byte	0xa
	.byte	0x1d
	.byte	0xb
	.4byte	0x531
	.uleb128 0x1a
	.ascii	"g\000"
	.byte	0xa
	.byte	0x1e
	.byte	0xc
	.4byte	0x538
	.byte	0
	.uleb128 0x4
	.byte	0x4
	.byte	0x4
	.4byte	.LASF70
	.uleb128 0x4
	.byte	0x8
	.byte	0x4
	.4byte	.LASF71
	.uleb128 0x3
	.4byte	.LASF72
	.byte	0xa
	.byte	0x1f
	.byte	0x3
	.4byte	0x4eb
	.uleb128 0x19
	.byte	0x8
	.byte	0xa
	.byte	0x21
	.byte	0x9
	.4byte	0x56b
	.uleb128 0x1a
	.ascii	"foo\000"
	.byte	0xa
	.byte	0x22
	.byte	0x1b
	.4byte	0x53f
	.uleb128 0x1a
	.ascii	"c\000"
	.byte	0xa
	.byte	0x26
	.byte	0xa
	.4byte	0x102
	.byte	0
	.uleb128 0x3
	.4byte	.LASF73
	.byte	0xa
	.byte	0x27
	.byte	0x3
	.4byte	0x54b
	.uleb128 0x19
	.byte	0x10
	.byte	0xa
	.byte	0x2c
	.byte	0x5
	.4byte	0x598
	.uleb128 0x1b
	.4byte	.LASF74
	.byte	0xa
	.byte	0x2d
	.byte	0x24
	.4byte	0x56b
	.uleb128 0x1a
	.ascii	"iv\000"
	.byte	0xa
	.byte	0x2e
	.byte	0x17
	.4byte	0x598
	.byte	0
	.uleb128 0x8
	.4byte	0x62
	.4byte	0x5a8
	.uleb128 0x9
	.4byte	0x38
	.byte	0xf
	.byte	0
	.uleb128 0xc
	.byte	0x7
	.byte	0x1
	.4byte	0x62
	.byte	0xc
	.byte	0x22
	.byte	0x3
	.4byte	0x63b
	.uleb128 0xd
	.4byte	.LASF75
	.byte	0
	.uleb128 0xd
	.4byte	.LASF76
	.byte	0x1
	.uleb128 0xd
	.4byte	.LASF77
	.byte	0x2
	.uleb128 0xd
	.4byte	.LASF78
	.byte	0x3
	.uleb128 0xd
	.4byte	.LASF79
	.byte	0x4
	.uleb128 0xd
	.4byte	.LASF80
	.byte	0x5
	.uleb128 0xd
	.4byte	.LASF81
	.byte	0x6
	.uleb128 0xd
	.4byte	.LASF82
	.byte	0x7
	.uleb128 0xd
	.4byte	.LASF83
	.byte	0x8
	.uleb128 0xd
	.4byte	.LASF84
	.byte	0x9
	.uleb128 0xd
	.4byte	.LASF85
	.byte	0xa
	.uleb128 0xd
	.4byte	.LASF86
	.byte	0xb
	.uleb128 0xd
	.4byte	.LASF87
	.byte	0xc
	.uleb128 0xd
	.4byte	.LASF88
	.byte	0xd
	.uleb128 0xd
	.4byte	.LASF89
	.byte	0xe
	.uleb128 0xd
	.4byte	.LASF90
	.byte	0x10
	.uleb128 0xd
	.4byte	.LASF91
	.byte	0x11
	.uleb128 0xd
	.4byte	.LASF92
	.byte	0x12
	.uleb128 0xd
	.4byte	.LASF93
	.byte	0x13
	.uleb128 0xd
	.4byte	.LASF94
	.byte	0x14
	.uleb128 0xd
	.4byte	.LASF95
	.byte	0x3d
	.uleb128 0xd
	.4byte	.LASF96
	.byte	0x3f
	.byte	0
	.uleb128 0x3
	.4byte	.LASF97
	.byte	0xc
	.byte	0x3a
	.byte	0x1
	.4byte	0x5a8
	.uleb128 0x3
	.4byte	.LASF98
	.byte	0xb
	.byte	0xe4
	.byte	0x1a
	.4byte	0x653
	.uleb128 0x7
	.byte	0x4
	.4byte	0x659
	.uleb128 0x1c
	.4byte	.LASF99
	.uleb128 0x1c
	.4byte	.LASF100
	.uleb128 0x7
	.byte	0x4
	.4byte	0x65e
	.uleb128 0x3
	.4byte	.LASF101
	.byte	0xd
	.byte	0x46
	.byte	0x1e
	.4byte	0x675
	.uleb128 0x18
	.4byte	.LASF102
	.byte	0x8
	.byte	0xd
	.2byte	0x22e
	.byte	0x8
	.4byte	0x6a0
	.uleb128 0x13
	.4byte	.LASF103
	.byte	0xd
	.2byte	0x22f
	.byte	0xf
	.4byte	0x63b
	.byte	0
	.uleb128 0x12
	.ascii	"pkt\000"
	.byte	0xd
	.2byte	0x23f
	.byte	0x7
	.4byte	0x12b1
	.byte	0x4
	.byte	0
	.uleb128 0x14
	.byte	0x2
	.byte	0xd
	.byte	0x57
	.byte	0x9
	.4byte	0x6c4
	.uleb128 0x11
	.4byte	.LASF104
	.byte	0xd
	.byte	0x58
	.byte	0xa
	.4byte	0xd9
	.byte	0
	.uleb128 0x11
	.4byte	.LASF105
	.byte	0xd
	.byte	0x59
	.byte	0xa
	.4byte	0xd9
	.byte	0x1
	.byte	0
	.uleb128 0x3
	.4byte	.LASF106
	.byte	0xd
	.byte	0x5a
	.byte	0x3
	.4byte	0x6a0
	.uleb128 0x14
	.byte	0x14
	.byte	0xd
	.byte	0x5d
	.byte	0x9
	.4byte	0x70e
	.uleb128 0x11
	.4byte	.LASF107
	.byte	0xd
	.byte	0x5f
	.byte	0x8
	.4byte	0x25
	.byte	0
	.uleb128 0x11
	.4byte	.LASF108
	.byte	0xd
	.byte	0x60
	.byte	0x8
	.4byte	0xd9
	.byte	0x4
	.uleb128 0x11
	.4byte	.LASF109
	.byte	0xd
	.byte	0x61
	.byte	0x8
	.4byte	0x70e
	.byte	0x5
	.uleb128 0x11
	.4byte	.LASF110
	.byte	0xd
	.byte	0x63
	.byte	0x8
	.4byte	0xf6
	.byte	0x10
	.byte	0
	.uleb128 0x8
	.4byte	0xd9
	.4byte	0x71e
	.uleb128 0x9
	.4byte	0x38
	.byte	0x7
	.byte	0
	.uleb128 0x3
	.4byte	.LASF111
	.byte	0xd
	.byte	0x64
	.byte	0x3
	.4byte	0x6d0
	.uleb128 0x14
	.byte	0x1c
	.byte	0xd
	.byte	0x68
	.byte	0x9
	.4byte	0x782
	.uleb128 0x11
	.4byte	.LASF112
	.byte	0xd
	.byte	0x6a
	.byte	0x8
	.4byte	0xd9
	.byte	0
	.uleb128 0x11
	.4byte	.LASF113
	.byte	0xd
	.byte	0x6e
	.byte	0x8
	.4byte	0xd9
	.byte	0x1
	.uleb128 0x11
	.4byte	.LASF114
	.byte	0xd
	.byte	0x70
	.byte	0x8
	.4byte	0xd9
	.byte	0x2
	.uleb128 0x10
	.ascii	"s2k\000"
	.byte	0xd
	.byte	0x72
	.byte	0xe
	.4byte	0x71e
	.byte	0x4
	.uleb128 0x11
	.4byte	.LASF115
	.byte	0xd
	.byte	0x77
	.byte	0x8
	.4byte	0xd9
	.byte	0x18
	.uleb128 0x11
	.4byte	.LASF116
	.byte	0xd
	.byte	0x7a
	.byte	0x8
	.4byte	0x782
	.byte	0x19
	.byte	0
	.uleb128 0x8
	.4byte	0xd9
	.4byte	0x792
	.uleb128 0x9
	.4byte	0x38
	.byte	0
	.byte	0
	.uleb128 0x3
	.4byte	.LASF117
	.byte	0xd
	.byte	0x7b
	.byte	0x3
	.4byte	0x72a
	.uleb128 0x14
	.byte	0x14
	.byte	0xd
	.byte	0x7f
	.byte	0x9
	.4byte	0x7e9
	.uleb128 0x11
	.4byte	.LASF118
	.byte	0xd
	.byte	0x81
	.byte	0xb
	.4byte	0x7e9
	.byte	0
	.uleb128 0x11
	.4byte	.LASF112
	.byte	0xd
	.byte	0x83
	.byte	0xb
	.4byte	0xd9
	.byte	0x8
	.uleb128 0x11
	.4byte	.LASF119
	.byte	0xd
	.byte	0x85
	.byte	0xb
	.4byte	0xd9
	.byte	0x9
	.uleb128 0x11
	.4byte	.LASF120
	.byte	0xd
	.byte	0x88
	.byte	0xb
	.4byte	0xd9
	.byte	0xa
	.uleb128 0x11
	.4byte	.LASF121
	.byte	0xd
	.byte	0x8a
	.byte	0x12
	.4byte	0x7f9
	.byte	0xc
	.byte	0
	.uleb128 0x8
	.4byte	0xf6
	.4byte	0x7f9
	.uleb128 0x9
	.4byte	0x38
	.byte	0x1
	.byte	0
	.uleb128 0x8
	.4byte	0x647
	.4byte	0x809
	.uleb128 0x9
	.4byte	0x38
	.byte	0x1
	.byte	0
	.uleb128 0x3
	.4byte	.LASF122
	.byte	0xd
	.byte	0x8b
	.byte	0x3
	.4byte	0x79e
	.uleb128 0x14
	.byte	0xc
	.byte	0xd
	.byte	0x90
	.byte	0x9
	.4byte	0x860
	.uleb128 0x11
	.4byte	.LASF118
	.byte	0xd
	.byte	0x91
	.byte	0xd
	.4byte	0x7e9
	.byte	0
	.uleb128 0x11
	.4byte	.LASF123
	.byte	0xd
	.byte	0x93
	.byte	0xd
	.4byte	0xd9
	.byte	0x8
	.uleb128 0x11
	.4byte	.LASF124
	.byte	0xd
	.byte	0x94
	.byte	0xd
	.4byte	0xd9
	.byte	0x9
	.uleb128 0x11
	.4byte	.LASF119
	.byte	0xd
	.byte	0x95
	.byte	0xd
	.4byte	0xd9
	.byte	0xa
	.uleb128 0x11
	.4byte	.LASF125
	.byte	0xd
	.byte	0x9e
	.byte	0xd
	.4byte	0xd9
	.byte	0xb
	.byte	0
	.uleb128 0x3
	.4byte	.LASF126
	.byte	0xd
	.byte	0x9f
	.byte	0x3
	.4byte	0x815
	.uleb128 0x14
	.byte	0xc
	.byte	0xd
	.byte	0xa6
	.byte	0x9
	.4byte	0x89d
	.uleb128 0x11
	.4byte	.LASF42
	.byte	0xd
	.byte	0xa7
	.byte	0xc
	.4byte	0x2c
	.byte	0
	.uleb128 0x10
	.ascii	"len\000"
	.byte	0xd
	.byte	0xa8
	.byte	0xc
	.4byte	0x2c
	.byte	0x4
	.uleb128 0x11
	.4byte	.LASF121
	.byte	0xd
	.byte	0xa9
	.byte	0xa
	.4byte	0x782
	.byte	0x8
	.byte	0
	.uleb128 0x3
	.4byte	.LASF127
	.byte	0xd
	.byte	0xaa
	.byte	0x3
	.4byte	0x86c
	.uleb128 0x14
	.byte	0x24
	.byte	0xd
	.byte	0xbb
	.byte	0x9
	.4byte	0x8f4
	.uleb128 0x11
	.4byte	.LASF128
	.byte	0xd
	.byte	0xbd
	.byte	0x7
	.4byte	0x25
	.byte	0
	.uleb128 0x11
	.4byte	.LASF129
	.byte	0xd
	.byte	0xbe
	.byte	0x7
	.4byte	0x25
	.byte	0x4
	.uleb128 0x10
	.ascii	"uri\000"
	.byte	0xd
	.byte	0xc0
	.byte	0x9
	.4byte	0xa9
	.byte	0x8
	.uleb128 0x10
	.ascii	"fpr\000"
	.byte	0xd
	.byte	0xc2
	.byte	0x11
	.4byte	0x8f4
	.byte	0xc
	.uleb128 0x11
	.4byte	.LASF130
	.byte	0xd
	.byte	0xc3
	.byte	0x8
	.4byte	0x102
	.byte	0x20
	.byte	0
	.uleb128 0x8
	.4byte	0x62
	.4byte	0x904
	.uleb128 0x9
	.4byte	0x38
	.byte	0x13
	.byte	0
	.uleb128 0x3
	.4byte	.LASF131
	.byte	0xd
	.byte	0xc4
	.byte	0x3
	.4byte	0x8a9
	.uleb128 0x14
	.byte	0x4
	.byte	0xd
	.byte	0xce
	.byte	0x3
	.4byte	0x9da
	.uleb128 0x17
	.4byte	.LASF129
	.byte	0xd
	.byte	0xd0
	.byte	0xe
	.4byte	0x38
	.byte	0x4
	.byte	0x1
	.byte	0x1f
	.byte	0
	.uleb128 0x17
	.4byte	.LASF128
	.byte	0xd
	.byte	0xd1
	.byte	0xe
	.4byte	0x38
	.byte	0x4
	.byte	0x1
	.byte	0x1e
	.byte	0
	.uleb128 0x17
	.4byte	.LASF132
	.byte	0xd
	.byte	0xd2
	.byte	0xe
	.4byte	0x38
	.byte	0x4
	.byte	0x1
	.byte	0x1d
	.byte	0
	.uleb128 0x17
	.4byte	.LASF133
	.byte	0xd
	.byte	0xd3
	.byte	0xe
	.4byte	0x38
	.byte	0x4
	.byte	0x1
	.byte	0x1c
	.byte	0
	.uleb128 0x17
	.4byte	.LASF134
	.byte	0xd
	.byte	0xd4
	.byte	0xe
	.4byte	0x38
	.byte	0x4
	.byte	0x1
	.byte	0x1b
	.byte	0
	.uleb128 0x17
	.4byte	.LASF135
	.byte	0xd
	.byte	0xd5
	.byte	0xe
	.4byte	0x38
	.byte	0x4
	.byte	0x1
	.byte	0x1a
	.byte	0
	.uleb128 0x17
	.4byte	.LASF136
	.byte	0xd
	.byte	0xd6
	.byte	0xe
	.4byte	0x38
	.byte	0x4
	.byte	0x1
	.byte	0x19
	.byte	0
	.uleb128 0x17
	.4byte	.LASF137
	.byte	0xd
	.byte	0xd7
	.byte	0xe
	.4byte	0x38
	.byte	0x4
	.byte	0x1
	.byte	0x18
	.byte	0
	.uleb128 0x17
	.4byte	.LASF138
	.byte	0xd
	.byte	0xd8
	.byte	0xe
	.4byte	0x38
	.byte	0x4
	.byte	0x1
	.byte	0x17
	.byte	0
	.uleb128 0x17
	.4byte	.LASF139
	.byte	0xd
	.byte	0xd9
	.byte	0xe
	.4byte	0x38
	.byte	0x4
	.byte	0x1
	.byte	0x16
	.byte	0
	.uleb128 0x17
	.4byte	.LASF140
	.byte	0xd
	.byte	0xda
	.byte	0xe
	.4byte	0x38
	.byte	0x4
	.byte	0x1
	.byte	0x15
	.byte	0
	.uleb128 0x17
	.4byte	.LASF141
	.byte	0xd
	.byte	0xdb
	.byte	0xe
	.4byte	0x38
	.byte	0x4
	.byte	0x1
	.byte	0x14
	.byte	0
	.byte	0
	.uleb128 0x14
	.byte	0x8c
	.byte	0xd
	.byte	0xcc
	.byte	0x9
	.4byte	0xb06
	.uleb128 0x11
	.4byte	.LASF142
	.byte	0xd
	.byte	0xdc
	.byte	0x5
	.4byte	0x910
	.byte	0
	.uleb128 0x11
	.4byte	.LASF118
	.byte	0xd
	.byte	0xe0
	.byte	0xb
	.4byte	0x7e9
	.byte	0x4
	.uleb128 0x11
	.4byte	.LASF143
	.byte	0xd
	.byte	0xe4
	.byte	0xb
	.4byte	0xf6
	.byte	0xc
	.uleb128 0x11
	.4byte	.LASF144
	.byte	0xd
	.byte	0xe5
	.byte	0xb
	.4byte	0xf6
	.byte	0x10
	.uleb128 0x11
	.4byte	.LASF112
	.byte	0xd
	.byte	0xe8
	.byte	0xb
	.4byte	0xd9
	.byte	0x14
	.uleb128 0x11
	.4byte	.LASF123
	.byte	0xd
	.byte	0xea
	.byte	0xb
	.4byte	0xd9
	.byte	0x15
	.uleb128 0x11
	.4byte	.LASF119
	.byte	0xd
	.byte	0xed
	.byte	0xb
	.4byte	0xd9
	.byte	0x16
	.uleb128 0x11
	.4byte	.LASF124
	.byte	0xd
	.byte	0xf0
	.byte	0xb
	.4byte	0xd9
	.byte	0x17
	.uleb128 0x11
	.4byte	.LASF145
	.byte	0xd
	.byte	0xf1
	.byte	0xb
	.4byte	0xd9
	.byte	0x18
	.uleb128 0x11
	.4byte	.LASF146
	.byte	0xd
	.byte	0xf2
	.byte	0xb
	.4byte	0xd9
	.byte	0x19
	.uleb128 0x11
	.4byte	.LASF147
	.byte	0xd
	.byte	0xf3
	.byte	0xf
	.4byte	0xb06
	.byte	0x1c
	.uleb128 0x11
	.4byte	.LASF148
	.byte	0xd
	.byte	0xf4
	.byte	0x1a
	.4byte	0xb11
	.byte	0x20
	.uleb128 0x11
	.4byte	.LASF149
	.byte	0xd
	.byte	0xf5
	.byte	0x7
	.4byte	0x25
	.byte	0x24
	.uleb128 0x11
	.4byte	.LASF150
	.byte	0xd
	.byte	0xf6
	.byte	0x7
	.4byte	0x25
	.byte	0x28
	.uleb128 0x11
	.4byte	.LASF151
	.byte	0xd
	.byte	0xf7
	.byte	0xf
	.4byte	0xb17
	.byte	0x2c
	.uleb128 0x11
	.4byte	.LASF152
	.byte	0xd
	.byte	0xf9
	.byte	0x9
	.4byte	0xa9
	.byte	0x30
	.uleb128 0x11
	.4byte	.LASF153
	.byte	0xd
	.byte	0xfc
	.byte	0x11
	.4byte	0xb1d
	.byte	0x34
	.uleb128 0x11
	.4byte	.LASF154
	.byte	0xd
	.byte	0xfd
	.byte	0x11
	.4byte	0xb1d
	.byte	0x38
	.uleb128 0x13
	.4byte	.LASF155
	.byte	0xd
	.2byte	0x100
	.byte	0x8
	.4byte	0xb23
	.byte	0x3c
	.uleb128 0x13
	.4byte	.LASF121
	.byte	0xd
	.2byte	0x102
	.byte	0xf
	.4byte	0x7f9
	.byte	0x40
	.uleb128 0x13
	.4byte	.LASF156
	.byte	0xd
	.2byte	0x106
	.byte	0x8
	.4byte	0xb33
	.byte	0x48
	.uleb128 0x13
	.4byte	.LASF157
	.byte	0xd
	.2byte	0x107
	.byte	0x7
	.4byte	0x25
	.byte	0x88
	.byte	0
	.uleb128 0x7
	.byte	0x4
	.4byte	0xe5
	.uleb128 0x1c
	.4byte	.LASF158
	.uleb128 0x7
	.byte	0x4
	.4byte	0xb0c
	.uleb128 0x7
	.byte	0x4
	.4byte	0x904
	.uleb128 0x7
	.byte	0x4
	.4byte	0x89d
	.uleb128 0x8
	.4byte	0xd9
	.4byte	0xb33
	.uleb128 0x9
	.4byte	0x38
	.byte	0x1
	.byte	0
	.uleb128 0x8
	.4byte	0xd9
	.4byte	0xb43
	.uleb128 0x9
	.4byte	0x38
	.byte	0x3f
	.byte	0
	.uleb128 0x1d
	.4byte	.LASF159
	.byte	0xd
	.2byte	0x108
	.byte	0x3
	.4byte	0x9da
	.uleb128 0x18
	.4byte	.LASF160
	.byte	0xc
	.byte	0xd
	.2byte	0x10d
	.byte	0x8
	.4byte	0xb89
	.uleb128 0x13
	.4byte	.LASF104
	.byte	0xd
	.2byte	0x10e
	.byte	0x8
	.4byte	0xd9
	.byte	0
	.uleb128 0x13
	.4byte	.LASF121
	.byte	0xd
	.2byte	0x10f
	.byte	0xf
	.4byte	0xb06
	.byte	0x4
	.uleb128 0x12
	.ascii	"len\000"
	.byte	0xd
	.2byte	0x110
	.byte	0x7
	.4byte	0xf6
	.byte	0x8
	.byte	0
	.uleb128 0x1e
	.byte	0x4
	.byte	0xd
	.2byte	0x130
	.byte	0x3
	.4byte	0xc0b
	.uleb128 0x1f
	.ascii	"mdc\000"
	.byte	0xd
	.2byte	0x132
	.byte	0x12
	.4byte	0x38
	.byte	0x4
	.byte	0x1
	.byte	0x1f
	.byte	0
	.uleb128 0x20
	.4byte	.LASF161
	.byte	0xd
	.2byte	0x133
	.byte	0x12
	.4byte	0x38
	.byte	0x4
	.byte	0x1
	.byte	0x1e
	.byte	0
	.uleb128 0x20
	.4byte	.LASF162
	.byte	0xd
	.2byte	0x134
	.byte	0x12
	.4byte	0x38
	.byte	0x4
	.byte	0x1
	.byte	0x1d
	.byte	0
	.uleb128 0x20
	.4byte	.LASF163
	.byte	0xd
	.2byte	0x135
	.byte	0x12
	.4byte	0x38
	.byte	0x4
	.byte	0x1
	.byte	0x1c
	.byte	0
	.uleb128 0x20
	.4byte	.LASF164
	.byte	0xd
	.2byte	0x136
	.byte	0x12
	.4byte	0x38
	.byte	0x4
	.byte	0x2
	.byte	0x1a
	.byte	0
	.uleb128 0x20
	.4byte	.LASF165
	.byte	0xd
	.2byte	0x137
	.byte	0x12
	.4byte	0x38
	.byte	0x4
	.byte	0x1
	.byte	0x19
	.byte	0
	.uleb128 0x20
	.4byte	.LASF140
	.byte	0xd
	.2byte	0x138
	.byte	0x12
	.4byte	0x38
	.byte	0x4
	.byte	0x1
	.byte	0x18
	.byte	0
	.byte	0
	.uleb128 0x1e
	.byte	0x50
	.byte	0xd
	.2byte	0x118
	.byte	0x9
	.4byte	0xd3c
	.uleb128 0x12
	.ascii	"ref\000"
	.byte	0xd
	.2byte	0x11a
	.byte	0x7
	.4byte	0x25
	.byte	0
	.uleb128 0x12
	.ascii	"len\000"
	.byte	0xd
	.2byte	0x11c
	.byte	0x7
	.4byte	0x25
	.byte	0x4
	.uleb128 0x13
	.4byte	.LASF166
	.byte	0xd
	.2byte	0x11d
	.byte	0x1a
	.4byte	0xd3c
	.byte	0x8
	.uleb128 0x13
	.4byte	.LASF167
	.byte	0xd
	.2byte	0x11e
	.byte	0x7
	.4byte	0x25
	.byte	0xc
	.uleb128 0x13
	.4byte	.LASF168
	.byte	0xd
	.2byte	0x121
	.byte	0x9
	.4byte	0x29c
	.byte	0x10
	.uleb128 0x13
	.4byte	.LASF169
	.byte	0xd
	.2byte	0x123
	.byte	0x11
	.4byte	0x81
	.byte	0x14
	.uleb128 0x13
	.4byte	.LASF170
	.byte	0xd
	.2byte	0x124
	.byte	0x9
	.4byte	0x29c
	.byte	0x18
	.uleb128 0x13
	.4byte	.LASF171
	.byte	0xd
	.2byte	0x125
	.byte	0x7
	.4byte	0xea
	.byte	0x1c
	.uleb128 0x13
	.4byte	.LASF172
	.byte	0xd
	.2byte	0x126
	.byte	0x7
	.4byte	0xf6
	.byte	0x20
	.uleb128 0x13
	.4byte	.LASF173
	.byte	0xd
	.2byte	0x127
	.byte	0x7
	.4byte	0x25
	.byte	0x24
	.uleb128 0x13
	.4byte	.LASF174
	.byte	0xd
	.2byte	0x128
	.byte	0x7
	.4byte	0x25
	.byte	0x28
	.uleb128 0x13
	.4byte	.LASF144
	.byte	0xd
	.2byte	0x129
	.byte	0x7
	.4byte	0xf6
	.byte	0x2c
	.uleb128 0x13
	.4byte	.LASF175
	.byte	0xd
	.2byte	0x12a
	.byte	0xf
	.4byte	0xd42
	.byte	0x30
	.uleb128 0x13
	.4byte	.LASF176
	.byte	0xd
	.2byte	0x12b
	.byte	0x7
	.4byte	0xf6
	.byte	0x34
	.uleb128 0x13
	.4byte	.LASF177
	.byte	0xd
	.2byte	0x12c
	.byte	0x7
	.4byte	0xf6
	.byte	0x38
	.uleb128 0x13
	.4byte	.LASF178
	.byte	0xd
	.2byte	0x12d
	.byte	0x9
	.4byte	0xa9
	.byte	0x3c
	.uleb128 0x13
	.4byte	.LASF179
	.byte	0xd
	.2byte	0x12e
	.byte	0x8
	.4byte	0xd9
	.byte	0x40
	.uleb128 0x13
	.4byte	.LASF180
	.byte	0xd
	.2byte	0x12f
	.byte	0x8
	.4byte	0xd9
	.byte	0x41
	.uleb128 0x13
	.4byte	.LASF142
	.byte	0xd
	.2byte	0x139
	.byte	0x5
	.4byte	0xb89
	.byte	0x44
	.uleb128 0x13
	.4byte	.LASF181
	.byte	0xd
	.2byte	0x13b
	.byte	0x9
	.4byte	0xa9
	.byte	0x48
	.uleb128 0x13
	.4byte	.LASF182
	.byte	0xd
	.2byte	0x140
	.byte	0x8
	.4byte	0x102
	.byte	0x4c
	.byte	0
	.uleb128 0x7
	.byte	0x4
	.4byte	0xb50
	.uleb128 0x7
	.byte	0x4
	.4byte	0x6c4
	.uleb128 0x1d
	.4byte	.LASF183
	.byte	0xd
	.2byte	0x141
	.byte	0x3
	.4byte	0xc0b
	.uleb128 0x18
	.4byte	.LASF184
	.byte	0x10
	.byte	0xd
	.2byte	0x145
	.byte	0x8
	.4byte	0xd8e
	.uleb128 0x13
	.4byte	.LASF185
	.byte	0xd
	.2byte	0x148
	.byte	0x7
	.4byte	0xf6
	.byte	0
	.uleb128 0x13
	.4byte	.LASF118
	.byte	0xd
	.2byte	0x14a
	.byte	0x7
	.4byte	0x7e9
	.byte	0x4
	.uleb128 0x13
	.4byte	.LASF44
	.byte	0xd
	.2byte	0x14c
	.byte	0x8
	.4byte	0xd9
	.byte	0xc
	.byte	0
	.uleb128 0x18
	.4byte	.LASF186
	.byte	0x30
	.byte	0xd
	.2byte	0x151
	.byte	0x8
	.4byte	0xe04
	.uleb128 0x20
	.4byte	.LASF187
	.byte	0xd
	.2byte	0x153
	.byte	0x7
	.4byte	0x25
	.byte	0x4
	.byte	0x1
	.byte	0x1f
	.byte	0
	.uleb128 0x20
	.4byte	.LASF188
	.byte	0xd
	.2byte	0x157
	.byte	0x7
	.4byte	0x25
	.byte	0x4
	.byte	0x1
	.byte	0x1e
	.byte	0
	.uleb128 0x13
	.4byte	.LASF189
	.byte	0xd
	.2byte	0x158
	.byte	0x7
	.4byte	0xea
	.byte	0x2
	.uleb128 0x13
	.4byte	.LASF44
	.byte	0xd
	.2byte	0x159
	.byte	0x8
	.4byte	0xd9
	.byte	0x4
	.uleb128 0x12
	.ascii	"s2k\000"
	.byte	0xd
	.2byte	0x15a
	.byte	0xe
	.4byte	0x71e
	.byte	0x8
	.uleb128 0x13
	.4byte	.LASF190
	.byte	0xd
	.2byte	0x15b
	.byte	0x8
	.4byte	0xd9
	.byte	0x1c
	.uleb128 0x12
	.ascii	"iv\000"
	.byte	0xd
	.2byte	0x15c
	.byte	0x8
	.4byte	0x4b3
	.byte	0x1d
	.byte	0
	.uleb128 0x1e
	.byte	0x4
	.byte	0xd
	.2byte	0x191
	.byte	0x3
	.4byte	0xedb
	.uleb128 0x1f
	.ascii	"mdc\000"
	.byte	0xd
	.2byte	0x193
	.byte	0x12
	.4byte	0x38
	.byte	0x4
	.byte	0x1
	.byte	0x1f
	.byte	0
	.uleb128 0x20
	.4byte	.LASF161
	.byte	0xd
	.2byte	0x194
	.byte	0x12
	.4byte	0x38
	.byte	0x4
	.byte	0x1
	.byte	0x1e
	.byte	0
	.uleb128 0x20
	.4byte	.LASF191
	.byte	0xd
	.2byte	0x195
	.byte	0x12
	.4byte	0x38
	.byte	0x4
	.byte	0x1
	.byte	0x1d
	.byte	0
	.uleb128 0x20
	.4byte	.LASF192
	.byte	0xd
	.2byte	0x196
	.byte	0x12
	.4byte	0x38
	.byte	0x4
	.byte	0x1
	.byte	0x1c
	.byte	0
	.uleb128 0x20
	.4byte	.LASF164
	.byte	0xd
	.2byte	0x197
	.byte	0x12
	.4byte	0x38
	.byte	0x4
	.byte	0x1
	.byte	0x1b
	.byte	0
	.uleb128 0x20
	.4byte	.LASF165
	.byte	0xd
	.2byte	0x198
	.byte	0x12
	.4byte	0x38
	.byte	0x4
	.byte	0x2
	.byte	0x19
	.byte	0
	.uleb128 0x20
	.4byte	.LASF193
	.byte	0xd
	.2byte	0x19b
	.byte	0x12
	.4byte	0x38
	.byte	0x4
	.byte	0x1
	.byte	0x18
	.byte	0
	.uleb128 0x20
	.4byte	.LASF128
	.byte	0xd
	.2byte	0x19e
	.byte	0x12
	.4byte	0x38
	.byte	0x4
	.byte	0x1
	.byte	0x17
	.byte	0
	.uleb128 0x20
	.4byte	.LASF194
	.byte	0xd
	.2byte	0x19f
	.byte	0x12
	.4byte	0x38
	.byte	0x4
	.byte	0x1
	.byte	0x16
	.byte	0
	.uleb128 0x20
	.4byte	.LASF195
	.byte	0xd
	.2byte	0x1a0
	.byte	0x12
	.4byte	0x38
	.byte	0x4
	.byte	0x2
	.byte	0x14
	.byte	0
	.uleb128 0x20
	.4byte	.LASF196
	.byte	0xd
	.2byte	0x1a1
	.byte	0x12
	.4byte	0x38
	.byte	0x4
	.byte	0x1
	.byte	0x13
	.byte	0
	.uleb128 0x20
	.4byte	.LASF197
	.byte	0xd
	.2byte	0x1a2
	.byte	0x12
	.4byte	0x38
	.byte	0x4
	.byte	0x1
	.byte	0x12
	.byte	0
	.byte	0
	.uleb128 0x1e
	.byte	0x84
	.byte	0xd
	.2byte	0x175
	.byte	0x9
	.4byte	0x106e
	.uleb128 0x13
	.4byte	.LASF143
	.byte	0xd
	.2byte	0x178
	.byte	0xb
	.4byte	0xf6
	.byte	0
	.uleb128 0x13
	.4byte	.LASF144
	.byte	0xd
	.2byte	0x179
	.byte	0xb
	.4byte	0xf6
	.byte	0x4
	.uleb128 0x13
	.4byte	.LASF198
	.byte	0xd
	.2byte	0x17a
	.byte	0xb
	.4byte	0xf6
	.byte	0x8
	.uleb128 0x13
	.4byte	.LASF165
	.byte	0xd
	.2byte	0x17b
	.byte	0x16
	.4byte	0xd55
	.byte	0xc
	.uleb128 0x13
	.4byte	.LASF199
	.byte	0xd
	.2byte	0x180
	.byte	0xb
	.4byte	0xd9
	.byte	0x1c
	.uleb128 0x13
	.4byte	.LASF112
	.byte	0xd
	.2byte	0x183
	.byte	0xb
	.4byte	0xd9
	.byte	0x1d
	.uleb128 0x13
	.4byte	.LASF180
	.byte	0xd
	.2byte	0x184
	.byte	0xb
	.4byte	0xd9
	.byte	0x1e
	.uleb128 0x13
	.4byte	.LASF119
	.byte	0xd
	.2byte	0x186
	.byte	0xb
	.4byte	0xd9
	.byte	0x1f
	.uleb128 0x13
	.4byte	.LASF200
	.byte	0xd
	.2byte	0x187
	.byte	0xb
	.4byte	0xea
	.byte	0x20
	.uleb128 0x13
	.4byte	.LASF201
	.byte	0xd
	.2byte	0x188
	.byte	0xb
	.4byte	0xd9
	.byte	0x22
	.uleb128 0x13
	.4byte	.LASF202
	.byte	0xd
	.2byte	0x189
	.byte	0xb
	.4byte	0xf6
	.byte	0x24
	.uleb128 0x13
	.4byte	.LASF203
	.byte	0xd
	.2byte	0x18c
	.byte	0xb
	.4byte	0x7e9
	.byte	0x28
	.uleb128 0x13
	.4byte	.LASF118
	.byte	0xd
	.2byte	0x18f
	.byte	0xb
	.4byte	0x7e9
	.byte	0x30
	.uleb128 0x13
	.4byte	.LASF175
	.byte	0xd
	.2byte	0x190
	.byte	0xf
	.4byte	0xd42
	.byte	0x38
	.uleb128 0x13
	.4byte	.LASF142
	.byte	0xd
	.2byte	0x1a3
	.byte	0x5
	.4byte	0xe04
	.byte	0x3c
	.uleb128 0x13
	.4byte	.LASF204
	.byte	0xd
	.2byte	0x1a4
	.byte	0x10
	.4byte	0x106e
	.byte	0x40
	.uleb128 0x13
	.4byte	.LASF148
	.byte	0xd
	.2byte	0x1a5
	.byte	0x1a
	.4byte	0xb11
	.byte	0x44
	.uleb128 0x13
	.4byte	.LASF149
	.byte	0xd
	.2byte	0x1a6
	.byte	0xb
	.4byte	0x25
	.byte	0x48
	.uleb128 0x13
	.4byte	.LASF205
	.byte	0xd
	.2byte	0x1a7
	.byte	0xb
	.4byte	0xf6
	.byte	0x4c
	.uleb128 0x13
	.4byte	.LASF145
	.byte	0xd
	.2byte	0x1a8
	.byte	0xb
	.4byte	0xd9
	.byte	0x50
	.uleb128 0x13
	.4byte	.LASF146
	.byte	0xd
	.2byte	0x1a9
	.byte	0xb
	.4byte	0xd9
	.byte	0x51
	.uleb128 0x13
	.4byte	.LASF179
	.byte	0xd
	.2byte	0x1aa
	.byte	0xb
	.4byte	0xd9
	.byte	0x52
	.uleb128 0x13
	.4byte	.LASF177
	.byte	0xd
	.2byte	0x1ab
	.byte	0xb
	.4byte	0xf6
	.byte	0x54
	.uleb128 0x13
	.4byte	.LASF178
	.byte	0xd
	.2byte	0x1ac
	.byte	0xc
	.4byte	0xa9
	.byte	0x58
	.uleb128 0x13
	.4byte	.LASF147
	.byte	0xd
	.2byte	0x1ad
	.byte	0xf
	.4byte	0xb06
	.byte	0x5c
	.uleb128 0x13
	.4byte	.LASF206
	.byte	0xd
	.2byte	0x1ae
	.byte	0xc
	.4byte	0xa9
	.byte	0x60
	.uleb128 0x13
	.4byte	.LASF186
	.byte	0xd
	.2byte	0x1b3
	.byte	0x17
	.4byte	0x1074
	.byte	0x64
	.uleb128 0x13
	.4byte	.LASF207
	.byte	0xd
	.2byte	0x1b8
	.byte	0xf
	.4byte	0x107a
	.byte	0x68
	.byte	0
	.uleb128 0x7
	.byte	0x4
	.4byte	0xd48
	.uleb128 0x7
	.byte	0x4
	.4byte	0xd8e
	.uleb128 0x8
	.4byte	0x647
	.4byte	0x108a
	.uleb128 0x9
	.4byte	0x38
	.byte	0x6
	.byte	0
	.uleb128 0x1d
	.4byte	.LASF208
	.byte	0xd
	.2byte	0x1b9
	.byte	0x3
	.4byte	0xedb
	.uleb128 0x1e
	.byte	0x8
	.byte	0xd
	.2byte	0x1c2
	.byte	0x9
	.4byte	0x10be
	.uleb128 0x12
	.ascii	"len\000"
	.byte	0xd
	.2byte	0x1c3
	.byte	0xa
	.4byte	0x25
	.byte	0
	.uleb128 0x13
	.4byte	.LASF121
	.byte	0xd
	.2byte	0x1c4
	.byte	0xa
	.4byte	0x102
	.byte	0x4
	.byte	0
	.uleb128 0x1d
	.4byte	.LASF209
	.byte	0xd
	.2byte	0x1c5
	.byte	0x3
	.4byte	0x1097
	.uleb128 0x1e
	.byte	0xc
	.byte	0xd
	.2byte	0x1c8
	.byte	0x9
	.4byte	0x110e
	.uleb128 0x12
	.ascii	"len\000"
	.byte	0xd
	.2byte	0x1ca
	.byte	0x7
	.4byte	0xf6
	.byte	0
	.uleb128 0x13
	.4byte	.LASF210
	.byte	0xd
	.2byte	0x1cd
	.byte	0x9
	.4byte	0xd9
	.byte	0x4
	.uleb128 0x13
	.4byte	.LASF211
	.byte	0xd
	.2byte	0x1cf
	.byte	0x9
	.4byte	0xd9
	.byte	0x5
	.uleb128 0x12
	.ascii	"buf\000"
	.byte	0xd
	.2byte	0x1d2
	.byte	0xb
	.4byte	0x17c
	.byte	0x8
	.byte	0
	.uleb128 0x1d
	.4byte	.LASF212
	.byte	0xd
	.2byte	0x1d3
	.byte	0x3
	.4byte	0x10cb
	.uleb128 0x1e
	.byte	0x14
	.byte	0xd
	.2byte	0x1d8
	.byte	0x9
	.4byte	0x11a4
	.uleb128 0x12
	.ascii	"len\000"
	.byte	0xd
	.2byte	0x1da
	.byte	0x8
	.4byte	0xf6
	.byte	0
	.uleb128 0x13
	.4byte	.LASF213
	.byte	0xd
	.2byte	0x1e2
	.byte	0x8
	.4byte	0x25
	.byte	0x4
	.uleb128 0x13
	.4byte	.LASF210
	.byte	0xd
	.2byte	0x1e5
	.byte	0x8
	.4byte	0xd9
	.byte	0x8
	.uleb128 0x13
	.4byte	.LASF214
	.byte	0xd
	.2byte	0x1e9
	.byte	0x8
	.4byte	0xd9
	.byte	0x9
	.uleb128 0x13
	.4byte	.LASF215
	.byte	0xd
	.2byte	0x1ec
	.byte	0x8
	.4byte	0xd9
	.byte	0xa
	.uleb128 0x13
	.4byte	.LASF114
	.byte	0xd
	.2byte	0x1ef
	.byte	0x8
	.4byte	0xd9
	.byte	0xb
	.uleb128 0x13
	.4byte	.LASF113
	.byte	0xd
	.2byte	0x1f2
	.byte	0x8
	.4byte	0xd9
	.byte	0xc
	.uleb128 0x13
	.4byte	.LASF216
	.byte	0xd
	.2byte	0x1f4
	.byte	0x8
	.4byte	0xd9
	.byte	0xd
	.uleb128 0x12
	.ascii	"buf\000"
	.byte	0xd
	.2byte	0x1f8
	.byte	0xb
	.4byte	0x17c
	.byte	0x10
	.byte	0
	.uleb128 0x1d
	.4byte	.LASF217
	.byte	0xd
	.2byte	0x1f9
	.byte	0x3
	.4byte	0x111b
	.uleb128 0x1e
	.byte	0x14
	.byte	0xd
	.2byte	0x1fb
	.byte	0x9
	.4byte	0x11ca
	.uleb128 0x13
	.4byte	.LASF218
	.byte	0xd
	.2byte	0x1fc
	.byte	0xa
	.4byte	0x11ca
	.byte	0
	.byte	0
	.uleb128 0x8
	.4byte	0xd9
	.4byte	0x11da
	.uleb128 0x9
	.4byte	0x38
	.byte	0x13
	.byte	0
	.uleb128 0x1d
	.4byte	.LASF219
	.byte	0xd
	.2byte	0x1fd
	.byte	0x3
	.4byte	0x11b1
	.uleb128 0x1e
	.byte	0x1c
	.byte	0xd
	.2byte	0x216
	.byte	0x9
	.4byte	0x1262
	.uleb128 0x12
	.ascii	"len\000"
	.byte	0xd
	.2byte	0x218
	.byte	0x8
	.4byte	0xf6
	.byte	0
	.uleb128 0x12
	.ascii	"buf\000"
	.byte	0xd
	.2byte	0x21a
	.byte	0xb
	.4byte	0x17c
	.byte	0x4
	.uleb128 0x13
	.4byte	.LASF210
	.byte	0xd
	.2byte	0x21b
	.byte	0x8
	.4byte	0xd9
	.byte	0x8
	.uleb128 0x13
	.4byte	.LASF214
	.byte	0xd
	.2byte	0x21c
	.byte	0x8
	.4byte	0xd9
	.byte	0x9
	.uleb128 0x13
	.4byte	.LASF107
	.byte	0xd
	.2byte	0x21f
	.byte	0x7
	.4byte	0x25
	.byte	0xc
	.uleb128 0x13
	.4byte	.LASF143
	.byte	0xd
	.2byte	0x220
	.byte	0x7
	.4byte	0xf6
	.byte	0x10
	.uleb128 0x13
	.4byte	.LASF220
	.byte	0xd
	.2byte	0x223
	.byte	0x8
	.4byte	0x25
	.byte	0x14
	.uleb128 0x13
	.4byte	.LASF182
	.byte	0xd
	.2byte	0x224
	.byte	0x8
	.4byte	0x102
	.byte	0x18
	.byte	0
	.uleb128 0x1d
	.4byte	.LASF221
	.byte	0xd
	.2byte	0x225
	.byte	0x3
	.4byte	0x11e7
	.uleb128 0x1e
	.byte	0xc
	.byte	0xd
	.2byte	0x227
	.byte	0x9
	.4byte	0x12a4
	.uleb128 0x13
	.4byte	.LASF222
	.byte	0xd
	.2byte	0x228
	.byte	0xa
	.4byte	0x25
	.byte	0
	.uleb128 0x13
	.4byte	.LASF62
	.byte	0xd
	.2byte	0x229
	.byte	0xc
	.4byte	0x2c
	.byte	0x4
	.uleb128 0x13
	.4byte	.LASF121
	.byte	0xd
	.2byte	0x22a
	.byte	0xa
	.4byte	0x102
	.byte	0x8
	.byte	0
	.uleb128 0x1d
	.4byte	.LASF223
	.byte	0xd
	.2byte	0x22b
	.byte	0x3
	.4byte	0x126f
	.uleb128 0x21
	.byte	0x4
	.byte	0xd
	.2byte	0x230
	.byte	0x5
	.4byte	0x1372
	.uleb128 0x22
	.4byte	.LASF224
	.byte	0xd
	.2byte	0x231
	.byte	0x8
	.4byte	0x8f
	.uleb128 0x22
	.4byte	.LASF225
	.byte	0xd
	.2byte	0x232
	.byte	0x12
	.4byte	0x1372
	.uleb128 0x22
	.4byte	.LASF226
	.byte	0xd
	.2byte	0x233
	.byte	0x12
	.4byte	0x1378
	.uleb128 0x22
	.4byte	.LASF227
	.byte	0xd
	.2byte	0x234
	.byte	0x13
	.4byte	0x137e
	.uleb128 0x22
	.4byte	.LASF228
	.byte	0xd
	.2byte	0x235
	.byte	0x11
	.4byte	0x1384
	.uleb128 0x22
	.4byte	.LASF229
	.byte	0xd
	.2byte	0x236
	.byte	0x12
	.4byte	0x138a
	.uleb128 0x22
	.4byte	.LASF230
	.byte	0xd
	.2byte	0x237
	.byte	0x12
	.4byte	0x138a
	.uleb128 0x22
	.4byte	.LASF231
	.byte	0xd
	.2byte	0x238
	.byte	0xf
	.4byte	0x1390
	.uleb128 0x22
	.4byte	.LASF204
	.byte	0xd
	.2byte	0x239
	.byte	0xf
	.4byte	0x106e
	.uleb128 0x22
	.4byte	.LASF232
	.byte	0xd
	.2byte	0x23a
	.byte	0x12
	.4byte	0x1396
	.uleb128 0x22
	.4byte	.LASF233
	.byte	0xd
	.2byte	0x23b
	.byte	0x11
	.4byte	0x139c
	.uleb128 0x23
	.ascii	"mdc\000"
	.byte	0xd
	.2byte	0x23c
	.byte	0xc
	.4byte	0x13a2
	.uleb128 0x22
	.4byte	.LASF234
	.byte	0xd
	.2byte	0x23d
	.byte	0x11
	.4byte	0x13a8
	.uleb128 0x22
	.4byte	.LASF235
	.byte	0xd
	.2byte	0x23e
	.byte	0x1a
	.4byte	0x13ae
	.byte	0
	.uleb128 0x7
	.byte	0x4
	.4byte	0x792
	.uleb128 0x7
	.byte	0x4
	.4byte	0x809
	.uleb128 0x7
	.byte	0x4
	.4byte	0x860
	.uleb128 0x7
	.byte	0x4
	.4byte	0xb43
	.uleb128 0x7
	.byte	0x4
	.4byte	0x108a
	.uleb128 0x7
	.byte	0x4
	.4byte	0x10be
	.uleb128 0x7
	.byte	0x4
	.4byte	0x110e
	.uleb128 0x7
	.byte	0x4
	.4byte	0x11a4
	.uleb128 0x7
	.byte	0x4
	.4byte	0x11da
	.uleb128 0x7
	.byte	0x4
	.4byte	0x1262
	.uleb128 0x7
	.byte	0x4
	.4byte	0x12a4
	.uleb128 0x24
	.4byte	.LASF237
	.byte	0x1
	.byte	0x8b
	.byte	0x1
	.4byte	0x25
	.4byte	.LFB21
	.4byte	.LFE21-.LFB21
	.uleb128 0x1
	.byte	0x9c
	.4byte	0x16c0
	.uleb128 0x25
	.4byte	.LASF236
	.byte	0x1
	.byte	0x8b
	.byte	0x1a
	.4byte	0x8f
	.4byte	.LLST6
	.4byte	.LVUS6
	.uleb128 0x25
	.4byte	.LASF222
	.byte	0x1
	.byte	0x8b
	.byte	0x26
	.4byte	0x25
	.4byte	.LLST7
	.4byte	.LVUS7
	.uleb128 0x25
	.4byte	.LASF40
	.byte	0x1
	.byte	0x8c
	.byte	0x1c
	.4byte	0x17c
	.4byte	.LLST8
	.4byte	.LVUS8
	.uleb128 0x26
	.ascii	"buf\000"
	.byte	0x1
	.byte	0x8c
	.byte	0x29
	.4byte	0x29c
	.4byte	.LLST9
	.4byte	.LVUS9
	.uleb128 0x27
	.ascii	"len\000"
	.byte	0x1
	.byte	0x8c
	.byte	0x36
	.4byte	0x2c5
	.uleb128 0x2
	.byte	0x91
	.sleb128 0
	.uleb128 0x28
	.ascii	"cfx\000"
	.byte	0x1
	.byte	0x8f
	.byte	0x1c
	.4byte	0x16c0
	.4byte	.LLST10
	.4byte	.LVUS10
	.uleb128 0x29
	.4byte	.LASF42
	.byte	0x1
	.byte	0x91
	.byte	0xa
	.4byte	0x2c
	.4byte	.LLST11
	.4byte	.LVUS11
	.uleb128 0x28
	.ascii	"rc\000"
	.byte	0x1
	.byte	0x92
	.byte	0x7
	.4byte	0x25
	.4byte	.LLST12
	.4byte	.LVUS12
	.uleb128 0x2a
	.4byte	0x17b2
	.4byte	.LBI5
	.byte	.LVU77
	.4byte	.Ldebug_ranges0+0
	.byte	0x1
	.byte	0xa0
	.byte	0x1
	.4byte	0x1611
	.uleb128 0x2b
	.4byte	0x17cb
	.4byte	.LLST13
	.4byte	.LVUS13
	.uleb128 0x2b
	.4byte	0x17bf
	.4byte	.LLST14
	.4byte	.LVUS14
	.uleb128 0x2c
	.4byte	.Ldebug_ranges0+0
	.uleb128 0x2d
	.4byte	0x17d5
	.uleb128 0x2e
	.4byte	0x17e1
	.uleb128 0x3
	.byte	0x91
	.sleb128 -88
	.uleb128 0x2e
	.4byte	0x17ed
	.uleb128 0x2
	.byte	0x91
	.sleb128 -52
	.uleb128 0x2e
	.4byte	0x17f8
	.uleb128 0x3
	.byte	0x91
	.sleb128 -72
	.uleb128 0x2f
	.4byte	0x1804
	.4byte	.LLST15
	.4byte	.LVUS15
	.uleb128 0x2f
	.4byte	0x1810
	.4byte	.LLST16
	.4byte	.LVUS16
	.uleb128 0x2e
	.4byte	0x181c
	.uleb128 0x3
	.byte	0x91
	.sleb128 -80
	.uleb128 0x30
	.4byte	.LVL29
	.4byte	0x1882
	.uleb128 0x31
	.4byte	.LVL30
	.4byte	0x188e
	.4byte	0x1506
	.uleb128 0x32
	.uleb128 0x1
	.byte	0x50
	.uleb128 0x2
	.byte	0x91
	.sleb128 -60
	.uleb128 0x32
	.uleb128 0x1
	.byte	0x51
	.uleb128 0x2
	.byte	0x74
	.sleb128 0
	.uleb128 0x32
	.uleb128 0x1
	.byte	0x52
	.uleb128 0x1
	.byte	0x44
	.byte	0
	.uleb128 0x30
	.4byte	.LVL31
	.4byte	0x1882
	.uleb128 0x31
	.4byte	.LVL32
	.4byte	0x189a
	.4byte	0x152a
	.uleb128 0x32
	.uleb128 0x1
	.byte	0x50
	.uleb128 0x2
	.byte	0x77
	.sleb128 0
	.uleb128 0x32
	.uleb128 0x1
	.byte	0x51
	.uleb128 0x3
	.byte	0x91
	.sleb128 -96
	.byte	0
	.uleb128 0x31
	.4byte	.LVL34
	.4byte	0x1882
	.4byte	0x153d
	.uleb128 0x32
	.uleb128 0x1
	.byte	0x51
	.uleb128 0x1
	.byte	0x38
	.byte	0
	.uleb128 0x31
	.4byte	.LVL35
	.4byte	0x18a7
	.4byte	0x155e
	.uleb128 0x32
	.uleb128 0x1
	.byte	0x50
	.uleb128 0x3
	.byte	0x91
	.sleb128 -80
	.uleb128 0x32
	.uleb128 0x1
	.byte	0x51
	.uleb128 0x3
	.byte	0x91
	.sleb128 -88
	.uleb128 0x32
	.uleb128 0x1
	.byte	0x52
	.uleb128 0x1
	.byte	0x38
	.byte	0
	.uleb128 0x30
	.4byte	.LVL36
	.4byte	0x18b3
	.uleb128 0x31
	.4byte	.LVL37
	.4byte	0x18bf
	.4byte	0x157a
	.uleb128 0x32
	.uleb128 0x1
	.byte	0x51
	.uleb128 0x1
	.byte	0x40
	.byte	0
	.uleb128 0x31
	.4byte	.LVL38
	.4byte	0x18cb
	.4byte	0x1592
	.uleb128 0x32
	.uleb128 0x1
	.byte	0x51
	.uleb128 0x1
	.byte	0x30
	.uleb128 0x32
	.uleb128 0x1
	.byte	0x52
	.uleb128 0x1
	.byte	0x38
	.byte	0
	.uleb128 0x31
	.4byte	.LVL39
	.4byte	0x18bf
	.4byte	0x15a5
	.uleb128 0x32
	.uleb128 0x1
	.byte	0x51
	.uleb128 0x1
	.byte	0x38
	.byte	0
	.uleb128 0x31
	.4byte	.LVL40
	.4byte	0x1882
	.4byte	0x15b8
	.uleb128 0x32
	.uleb128 0x1
	.byte	0x51
	.uleb128 0x1
	.byte	0x3a
	.byte	0
	.uleb128 0x31
	.4byte	.LVL41
	.4byte	0x16c6
	.4byte	0x15dd
	.uleb128 0x32
	.uleb128 0x1
	.byte	0x51
	.uleb128 0x3
	.byte	0x91
	.sleb128 -80
	.uleb128 0x32
	.uleb128 0x1
	.byte	0x52
	.uleb128 0x1
	.byte	0x3a
	.uleb128 0x32
	.uleb128 0x1
	.byte	0x53
	.uleb128 0x1
	.byte	0x30
	.uleb128 0x32
	.uleb128 0x2
	.byte	0x7d
	.sleb128 0
	.uleb128 0x1
	.byte	0x30
	.byte	0
	.uleb128 0x30
	.4byte	.LVL42
	.4byte	0x18d7
	.uleb128 0x31
	.4byte	.LVL43
	.4byte	0x18e3
	.4byte	0x1606
	.uleb128 0x32
	.uleb128 0x1
	.byte	0x50
	.uleb128 0x2
	.byte	0x77
	.sleb128 0
	.uleb128 0x32
	.uleb128 0x1
	.byte	0x51
	.uleb128 0x3
	.byte	0x91
	.sleb128 -80
	.uleb128 0x32
	.uleb128 0x1
	.byte	0x52
	.uleb128 0x1
	.byte	0x3a
	.byte	0
	.uleb128 0x30
	.4byte	.LVL48
	.4byte	0x1882
	.byte	0
	.byte	0
	.uleb128 0x30
	.4byte	.LVL14
	.4byte	0x1882
	.uleb128 0x31
	.4byte	.LVL16
	.4byte	0x1882
	.4byte	0x162e
	.uleb128 0x32
	.uleb128 0x1
	.byte	0x51
	.uleb128 0x2
	.byte	0x74
	.sleb128 0
	.byte	0
	.uleb128 0x31
	.4byte	.LVL19
	.4byte	0x1882
	.4byte	0x1642
	.uleb128 0x32
	.uleb128 0x1
	.byte	0x51
	.uleb128 0x2
	.byte	0x74
	.sleb128 0
	.byte	0
	.uleb128 0x30
	.4byte	.LVL21
	.4byte	0x1882
	.uleb128 0x31
	.4byte	.LVL23
	.4byte	0x1882
	.4byte	0x165f
	.uleb128 0x32
	.uleb128 0x1
	.byte	0x51
	.uleb128 0x2
	.byte	0x78
	.sleb128 0
	.byte	0
	.uleb128 0x31
	.4byte	.LVL24
	.4byte	0x16c6
	.4byte	0x1684
	.uleb128 0x32
	.uleb128 0x1
	.byte	0x51
	.uleb128 0x2
	.byte	0x76
	.sleb128 0
	.uleb128 0x32
	.uleb128 0x1
	.byte	0x52
	.uleb128 0x2
	.byte	0x78
	.sleb128 0
	.uleb128 0x32
	.uleb128 0x1
	.byte	0x53
	.uleb128 0x1
	.byte	0x30
	.uleb128 0x32
	.uleb128 0x2
	.byte	0x7d
	.sleb128 0
	.uleb128 0x1
	.byte	0x30
	.byte	0
	.uleb128 0x30
	.4byte	.LVL25
	.4byte	0x1882
	.uleb128 0x31
	.4byte	.LVL26
	.4byte	0x18e3
	.4byte	0x16ad
	.uleb128 0x32
	.uleb128 0x1
	.byte	0x50
	.uleb128 0x2
	.byte	0x77
	.sleb128 0
	.uleb128 0x32
	.uleb128 0x1
	.byte	0x51
	.uleb128 0x2
	.byte	0x76
	.sleb128 0
	.uleb128 0x32
	.uleb128 0x1
	.byte	0x52
	.uleb128 0x2
	.byte	0x78
	.sleb128 0
	.byte	0
	.uleb128 0x30
	.4byte	.LVL45
	.4byte	0x1882
	.uleb128 0x30
	.4byte	.LVL46
	.4byte	0x18ef
	.byte	0
	.uleb128 0x7
	.byte	0x4
	.4byte	0x4c3
	.uleb128 0x24
	.4byte	.LASF238
	.byte	0x1
	.byte	0x6b
	.byte	0x1
	.4byte	0x25
	.4byte	.LFB20
	.4byte	.LFE20-.LFB20
	.uleb128 0x1
	.byte	0x9c
	.4byte	0x17b2
	.uleb128 0x26
	.ascii	"h\000"
	.byte	0x1
	.byte	0x6b
	.byte	0x28
	.4byte	0x37b
	.4byte	.LLST0
	.4byte	.LVUS0
	.uleb128 0x26
	.ascii	"out\000"
	.byte	0x1
	.byte	0x6b
	.byte	0x31
	.4byte	0x8f
	.4byte	.LLST1
	.4byte	.LVUS1
	.uleb128 0x25
	.4byte	.LASF239
	.byte	0x1
	.byte	0x6b
	.byte	0x3d
	.4byte	0x2c
	.4byte	.LLST2
	.4byte	.LVUS2
	.uleb128 0x26
	.ascii	"in\000"
	.byte	0x1
	.byte	0x6c
	.byte	0x23
	.4byte	0xd2
	.4byte	.LLST3
	.4byte	.LVUS3
	.uleb128 0x25
	.4byte	.LASF240
	.byte	0x1
	.byte	0x6c
	.byte	0x2e
	.4byte	0x2c
	.4byte	.LLST4
	.4byte	.LVUS4
	.uleb128 0x28
	.ascii	"rc\000"
	.byte	0x1
	.byte	0x6f
	.byte	0x7
	.4byte	0x25
	.4byte	.LLST5
	.4byte	.LVUS5
	.uleb128 0x31
	.4byte	.LVL4
	.4byte	0x1882
	.4byte	0x176e
	.uleb128 0x32
	.uleb128 0x1
	.byte	0x51
	.uleb128 0x2
	.byte	0x76
	.sleb128 0
	.uleb128 0x32
	.uleb128 0x1
	.byte	0x52
	.uleb128 0x2
	.byte	0x75
	.sleb128 0
	.byte	0
	.uleb128 0x31
	.4byte	.LVL6
	.4byte	0x18fb
	.4byte	0x1795
	.uleb128 0x32
	.uleb128 0x1
	.byte	0x50
	.uleb128 0x2
	.byte	0x78
	.sleb128 0
	.uleb128 0x32
	.uleb128 0x1
	.byte	0x51
	.uleb128 0x2
	.byte	0x74
	.sleb128 0
	.uleb128 0x32
	.uleb128 0x1
	.byte	0x52
	.uleb128 0x2
	.byte	0x75
	.sleb128 0
	.uleb128 0x32
	.uleb128 0x2
	.byte	0x7d
	.sleb128 0
	.uleb128 0x2
	.byte	0x76
	.sleb128 0
	.byte	0
	.uleb128 0x33
	.4byte	.LVL10
	.4byte	0x188e
	.uleb128 0x32
	.uleb128 0x1
	.byte	0x50
	.uleb128 0x2
	.byte	0x74
	.sleb128 0
	.uleb128 0x32
	.uleb128 0x1
	.byte	0x51
	.uleb128 0x2
	.byte	0x8
	.byte	0x42
	.uleb128 0x32
	.uleb128 0x1
	.byte	0x52
	.uleb128 0x2
	.byte	0x75
	.sleb128 0
	.byte	0
	.byte	0
	.uleb128 0x34
	.4byte	.LASF260
	.byte	0x1
	.byte	0xa
	.byte	0x1
	.byte	0x1
	.4byte	0x185d
	.uleb128 0x35
	.ascii	"cfx\000"
	.byte	0x1
	.byte	0xa
	.byte	0x2c
	.4byte	0x16c0
	.uleb128 0x35
	.ascii	"a\000"
	.byte	0x1
	.byte	0xa
	.byte	0x39
	.4byte	0x17c
	.uleb128 0x36
	.ascii	"err\000"
	.byte	0x1
	.byte	0xd
	.byte	0x7
	.4byte	0x25
	.uleb128 0x36
	.ascii	"pkt\000"
	.byte	0x1
	.byte	0xe
	.byte	0xa
	.4byte	0x669
	.uleb128 0x36
	.ascii	"ed\000"
	.byte	0x1
	.byte	0xf
	.byte	0x11
	.4byte	0x11a4
	.uleb128 0x37
	.4byte	.LASF241
	.byte	0x1
	.byte	0x10
	.byte	0x8
	.4byte	0x185d
	.uleb128 0x37
	.4byte	.LASF242
	.byte	0x1
	.byte	0x11
	.byte	0x10
	.4byte	0x38
	.uleb128 0x37
	.4byte	.LASF243
	.byte	0x1
	.byte	0x12
	.byte	0x10
	.4byte	0x38
	.uleb128 0x37
	.4byte	.LASF244
	.byte	0x1
	.byte	0x38
	.byte	0x17
	.4byte	0x187d
	.uleb128 0x38
	.4byte	.LASF245
	.byte	0x1
	.byte	0x4c
	.byte	0x3
	.4byte	0x25
	.4byte	0x183a
	.uleb128 0x39
	.byte	0
	.uleb128 0x38
	.4byte	.LASF238
	.byte	0x1
	.byte	0x58
	.byte	0x3
	.4byte	0x25
	.4byte	0x184c
	.uleb128 0x39
	.byte	0
	.uleb128 0x3a
	.uleb128 0x3b
	.4byte	.LASF261
	.byte	0x1
	.byte	0x17
	.byte	0x5
	.4byte	0x25
	.uleb128 0x39
	.byte	0
	.byte	0
	.byte	0
	.uleb128 0x8
	.4byte	0xd9
	.4byte	0x186d
	.uleb128 0x9
	.4byte	0x38
	.byte	0x11
	.byte	0
	.uleb128 0x8
	.4byte	0x69
	.4byte	0x187d
	.uleb128 0x9
	.4byte	0x38
	.byte	0x7
	.byte	0
	.uleb128 0x5
	.4byte	0x186d
	.uleb128 0x3c
	.4byte	.LASF246
	.4byte	.LASF246
	.byte	0xe
	.byte	0x4c
	.byte	0x6
	.uleb128 0x3c
	.4byte	.LASF247
	.4byte	.LASF247
	.byte	0xf
	.byte	0x21
	.byte	0x9
	.uleb128 0x3d
	.4byte	.LASF248
	.4byte	.LASF248
	.byte	0xd
	.2byte	0x352
	.byte	0x5
	.uleb128 0x3c
	.4byte	.LASF249
	.4byte	.LASF249
	.byte	0xf
	.byte	0x1f
	.byte	0x9
	.uleb128 0x3c
	.4byte	.LASF250
	.4byte	.LASF250
	.byte	0xa
	.byte	0x42
	.byte	0x1
	.uleb128 0x3c
	.4byte	.LASF245
	.4byte	.LASF245
	.byte	0x1
	.byte	0x4c
	.byte	0x3
	.uleb128 0x3c
	.4byte	.LASF251
	.4byte	.LASF251
	.byte	0xa
	.byte	0x40
	.byte	0x1
	.uleb128 0x3c
	.4byte	.LASF252
	.4byte	.LASF252
	.byte	0xa
	.byte	0x4c
	.byte	0x6
	.uleb128 0x3c
	.4byte	.LASF253
	.4byte	.LASF253
	.byte	0x9
	.byte	0x44
	.byte	0x5
	.uleb128 0x3c
	.4byte	.LASF254
	.4byte	.LASF254
	.byte	0xa
	.byte	0x4e
	.byte	0x1
	.uleb128 0x3c
	.4byte	.LASF255
	.4byte	.LASF255
	.byte	0xa
	.byte	0x44
	.byte	0x5
	.byte	0
	.section	.debug_abbrev,"",%progbits
.Ldebug_abbrev0:
	.uleb128 0x1
	.uleb128 0x11
	.byte	0x1
	.uleb128 0x25
	.uleb128 0xe
	.uleb128 0x13
	.uleb128 0xb
	.uleb128 0x3
	.uleb128 0xe
	.uleb128 0x1b
	.uleb128 0xe
	.uleb128 0x55
	.uleb128 0x17
	.uleb128 0x11
	.uleb128 0x1
	.uleb128 0x10
	.uleb128 0x17
	.byte	0
	.byte	0
	.uleb128 0x2
	.uleb128 0x24
	.byte	0
	.uleb128 0xb
	.uleb128 0xb
	.uleb128 0x3e
	.uleb128 0xb
	.uleb128 0x3
	.uleb128 0x8
	.byte	0
	.byte	0
	.uleb128 0x3
	.uleb128 0x16
	.byte	0
	.uleb128 0x3
	.uleb128 0xe
	.uleb128 0x3a
	.uleb128 0xb
	.uleb128 0x3b
	.uleb128 0xb
	.uleb128 0x39
	.uleb128 0xb
	.uleb128 0x49
	.uleb128 0x13
	.byte	0
	.byte	0
	.uleb128 0x4
	.uleb128 0x24
	.byte	0
	.uleb128 0xb
	.uleb128 0xb
	.uleb128 0x3e
	.uleb128 0xb
	.uleb128 0x3
	.uleb128 0xe
	.byte	0
	.byte	0
	.uleb128 0x5
	.uleb128 0x26
	.byte	0
	.uleb128 0x49
	.uleb128 0x13
	.byte	0
	.byte	0
	.uleb128 0x6
	.uleb128 0xf
	.byte	0
	.uleb128 0xb
	.uleb128 0xb
	.byte	0
	.byte	0
	.uleb128 0x7
	.uleb128 0xf
	.byte	0
	.uleb128 0xb
	.uleb128 0xb
	.uleb128 0x49
	.uleb128 0x13
	.byte	0
	.byte	0
	.uleb128 0x8
	.uleb128 0x1
	.byte	0x1
	.uleb128 0x49
	.uleb128 0x13
	.uleb128 0x1
	.uleb128 0x13
	.byte	0
	.byte	0
	.uleb128 0x9
	.uleb128 0x21
	.byte	0
	.uleb128 0x49
	.uleb128 0x13
	.uleb128 0x2f
	.uleb128 0xb
	.byte	0
	.byte	0
	.uleb128 0xa
	.uleb128 0x26
	.byte	0
	.byte	0
	.byte	0
	.uleb128 0xb
	.uleb128 0x16
	.byte	0
	.uleb128 0x3
	.uleb128 0x8
	.uleb128 0x3a
	.uleb128 0xb
	.uleb128 0x3b
	.uleb128 0xb
	.uleb128 0x39
	.uleb128 0xb
	.uleb128 0x49
	.uleb128 0x13
	.byte	0
	.byte	0
	.uleb128 0xc
	.uleb128 0x4
	.byte	0x1
	.uleb128 0x3e
	.uleb128 0xb
	.uleb128 0xb
	.uleb128 0xb
	.uleb128 0x49
	.uleb128 0x13
	.uleb128 0x3a
	.uleb128 0xb
	.uleb128 0x3b
	.uleb128 0xb
	.uleb128 0x39
	.uleb128 0xb
	.uleb128 0x1
	.uleb128 0x13
	.byte	0
	.byte	0
	.uleb128 0xd
	.uleb128 0x28
	.byte	0
	.uleb128 0x3
	.uleb128 0xe
	.uleb128 0x1c
	.uleb128 0xb
	.byte	0
	.byte	0
	.uleb128 0xe
	.uleb128 0x4
	.byte	0x1
	.uleb128 0x3
	.uleb128 0xe
	.uleb128 0x3e
	.uleb128 0xb
	.uleb128 0xb
	.uleb128 0xb
	.uleb128 0x49
	.uleb128 0x13
	.uleb128 0x3a
	.uleb128 0xb
	.uleb128 0x3b
	.uleb128 0xb
	.uleb128 0x39
	.uleb128 0xb
	.uleb128 0x1
	.uleb128 0x13
	.byte	0
	.byte	0
	.uleb128 0xf
	.uleb128 0x13
	.byte	0x1
	.uleb128 0x3
	.uleb128 0xe
	.uleb128 0xb
	.uleb128 0xb
	.uleb128 0x3a
	.uleb128 0xb
	.uleb128 0x3b
	.uleb128 0xb
	.uleb128 0x39
	.uleb128 0xb
	.uleb128 0x1
	.uleb128 0x13
	.byte	0
	.byte	0
	.uleb128 0x10
	.uleb128 0xd
	.byte	0
	.uleb128 0x3
	.uleb128 0x8
	.uleb128 0x3a
	.uleb128 0xb
	.uleb128 0x3b
	.uleb128 0xb
	.uleb128 0x39
	.uleb128 0xb
	.uleb128 0x49
	.uleb128 0x13
	.uleb128 0x38
	.uleb128 0xb
	.byte	0
	.byte	0
	.uleb128 0x11
	.uleb128 0xd
	.byte	0
	.uleb128 0x3
	.uleb128 0xe
	.uleb128 0x3a
	.uleb128 0xb
	.uleb128 0x3b
	.uleb128 0xb
	.uleb128 0x39
	.uleb128 0xb
	.uleb128 0x49
	.uleb128 0x13
	.uleb128 0x38
	.uleb128 0xb
	.byte	0
	.byte	0
	.uleb128 0x12
	.uleb128 0xd
	.byte	0
	.uleb128 0x3
	.uleb128 0x8
	.uleb128 0x3a
	.uleb128 0xb
	.uleb128 0x3b
	.uleb128 0x5
	.uleb128 0x39
	.uleb128 0xb
	.uleb128 0x49
	.uleb128 0x13
	.uleb128 0x38
	.uleb128 0xb
	.byte	0
	.byte	0
	.uleb128 0x13
	.uleb128 0xd
	.byte	0
	.uleb128 0x3
	.uleb128 0xe
	.uleb128 0x3a
	.uleb128 0xb
	.uleb128 0x3b
	.uleb128 0x5
	.uleb128 0x39
	.uleb128 0xb
	.uleb128 0x49
	.uleb128 0x13
	.uleb128 0x38
	.uleb128 0xb
	.byte	0
	.byte	0
	.uleb128 0x14
	.uleb128 0x13
	.byte	0x1
	.uleb128 0xb
	.uleb128 0xb
	.uleb128 0x3a
	.uleb128 0xb
	.uleb128 0x3b
	.uleb128 0xb
	.uleb128 0x39
	.uleb128 0xb
	.uleb128 0x1
	.uleb128 0x13
	.byte	0
	.byte	0
	.uleb128 0x15
	.uleb128 0x15
	.byte	0x1
	.uleb128 0x27
	.uleb128 0x19
	.uleb128 0x49
	.uleb128 0x13
	.uleb128 0x1
	.uleb128 0x13
	.byte	0
	.byte	0
	.uleb128 0x16
	.uleb128 0x5
	.byte	0
	.uleb128 0x49
	.uleb128 0x13
	.byte	0
	.byte	0
	.uleb128 0x17
	.uleb128 0xd
	.byte	0
	.uleb128 0x3
	.uleb128 0xe
	.uleb128 0x3a
	.uleb128 0xb
	.uleb128 0x3b
	.uleb128 0xb
	.uleb128 0x39
	.uleb128 0xb
	.uleb128 0x49
	.uleb128 0x13
	.uleb128 0xb
	.uleb128 0xb
	.uleb128 0xd
	.uleb128 0xb
	.uleb128 0xc
	.uleb128 0xb
	.uleb128 0x38
	.uleb128 0xb
	.byte	0
	.byte	0
	.uleb128 0x18
	.uleb128 0x13
	.byte	0x1
	.uleb128 0x3
	.uleb128 0xe
	.uleb128 0xb
	.uleb128 0xb
	.uleb128 0x3a
	.uleb128 0xb
	.uleb128 0x3b
	.uleb128 0x5
	.uleb128 0x39
	.uleb128 0xb
	.uleb128 0x1
	.uleb128 0x13
	.byte	0
	.byte	0
	.uleb128 0x19
	.uleb128 0x17
	.byte	0x1
	.uleb128 0xb
	.uleb128 0xb
	.uleb128 0x3a
	.uleb128 0xb
	.uleb128 0x3b
	.uleb128 0xb
	.uleb128 0x39
	.uleb128 0xb
	.uleb128 0x1
	.uleb128 0x13
	.byte	0
	.byte	0
	.uleb128 0x1a
	.uleb128 0xd
	.byte	0
	.uleb128 0x3
	.uleb128 0x8
	.uleb128 0x3a
	.uleb128 0xb
	.uleb128 0x3b
	.uleb128 0xb
	.uleb128 0x39
	.uleb128 0xb
	.uleb128 0x49
	.uleb128 0x13
	.byte	0
	.byte	0
	.uleb128 0x1b
	.uleb128 0xd
	.byte	0
	.uleb128 0x3
	.uleb128 0xe
	.uleb128 0x3a
	.uleb128 0xb
	.uleb128 0x3b
	.uleb128 0xb
	.uleb128 0x39
	.uleb128 0xb
	.uleb128 0x49
	.uleb128 0x13
	.byte	0
	.byte	0
	.uleb128 0x1c
	.uleb128 0x13
	.byte	0
	.uleb128 0x3
	.uleb128 0xe
	.uleb128 0x3c
	.uleb128 0x19
	.byte	0
	.byte	0
	.uleb128 0x1d
	.uleb128 0x16
	.byte	0
	.uleb128 0x3
	.uleb128 0xe
	.uleb128 0x3a
	.uleb128 0xb
	.uleb128 0x3b
	.uleb128 0x5
	.uleb128 0x39
	.uleb128 0xb
	.uleb128 0x49
	.uleb128 0x13
	.byte	0
	.byte	0
	.uleb128 0x1e
	.uleb128 0x13
	.byte	0x1
	.uleb128 0xb
	.uleb128 0xb
	.uleb128 0x3a
	.uleb128 0xb
	.uleb128 0x3b
	.uleb128 0x5
	.uleb128 0x39
	.uleb128 0xb
	.uleb128 0x1
	.uleb128 0x13
	.byte	0
	.byte	0
	.uleb128 0x1f
	.uleb128 0xd
	.byte	0
	.uleb128 0x3
	.uleb128 0x8
	.uleb128 0x3a
	.uleb128 0xb
	.uleb128 0x3b
	.uleb128 0x5
	.uleb128 0x39
	.uleb128 0xb
	.uleb128 0x49
	.uleb128 0x13
	.uleb128 0xb
	.uleb128 0xb
	.uleb128 0xd
	.uleb128 0xb
	.uleb128 0xc
	.uleb128 0xb
	.uleb128 0x38
	.uleb128 0xb
	.byte	0
	.byte	0
	.uleb128 0x20
	.uleb128 0xd
	.byte	0
	.uleb128 0x3
	.uleb128 0xe
	.uleb128 0x3a
	.uleb128 0xb
	.uleb128 0x3b
	.uleb128 0x5
	.uleb128 0x39
	.uleb128 0xb
	.uleb128 0x49
	.uleb128 0x13
	.uleb128 0xb
	.uleb128 0xb
	.uleb128 0xd
	.uleb128 0xb
	.uleb128 0xc
	.uleb128 0xb
	.uleb128 0x38
	.uleb128 0xb
	.byte	0
	.byte	0
	.uleb128 0x21
	.uleb128 0x17
	.byte	0x1
	.uleb128 0xb
	.uleb128 0xb
	.uleb128 0x3a
	.uleb128 0xb
	.uleb128 0x3b
	.uleb128 0x5
	.uleb128 0x39
	.uleb128 0xb
	.uleb128 0x1
	.uleb128 0x13
	.byte	0
	.byte	0
	.uleb128 0x22
	.uleb128 0xd
	.byte	0
	.uleb128 0x3
	.uleb128 0xe
	.uleb128 0x3a
	.uleb128 0xb
	.uleb128 0x3b
	.uleb128 0x5
	.uleb128 0x39
	.uleb128 0xb
	.uleb128 0x49
	.uleb128 0x13
	.byte	0
	.byte	0
	.uleb128 0x23
	.uleb128 0xd
	.byte	0
	.uleb128 0x3
	.uleb128 0x8
	.uleb128 0x3a
	.uleb128 0xb
	.uleb128 0x3b
	.uleb128 0x5
	.uleb128 0x39
	.uleb128 0xb
	.uleb128 0x49
	.uleb128 0x13
	.byte	0
	.byte	0
	.uleb128 0x24
	.uleb128 0x2e
	.byte	0x1
	.uleb128 0x3f
	.uleb128 0x19
	.uleb128 0x3
	.uleb128 0xe
	.uleb128 0x3a
	.uleb128 0xb
	.uleb128 0x3b
	.uleb128 0xb
	.uleb128 0x39
	.uleb128 0xb
	.uleb128 0x27
	.uleb128 0x19
	.uleb128 0x49
	.uleb128 0x13
	.uleb128 0x11
	.uleb128 0x1
	.uleb128 0x12
	.uleb128 0x6
	.uleb128 0x40
	.uleb128 0x18
	.uleb128 0x2117
	.uleb128 0x19
	.uleb128 0x1
	.uleb128 0x13
	.byte	0
	.byte	0
	.uleb128 0x25
	.uleb128 0x5
	.byte	0
	.uleb128 0x3
	.uleb128 0xe
	.uleb128 0x3a
	.uleb128 0xb
	.uleb128 0x3b
	.uleb128 0xb
	.uleb128 0x39
	.uleb128 0xb
	.uleb128 0x49
	.uleb128 0x13
	.uleb128 0x2
	.uleb128 0x17
	.uleb128 0x2137
	.uleb128 0x17
	.byte	0
	.byte	0
	.uleb128 0x26
	.uleb128 0x5
	.byte	0
	.uleb128 0x3
	.uleb128 0x8
	.uleb128 0x3a
	.uleb128 0xb
	.uleb128 0x3b
	.uleb128 0xb
	.uleb128 0x39
	.uleb128 0xb
	.uleb128 0x49
	.uleb128 0x13
	.uleb128 0x2
	.uleb128 0x17
	.uleb128 0x2137
	.uleb128 0x17
	.byte	0
	.byte	0
	.uleb128 0x27
	.uleb128 0x5
	.byte	0
	.uleb128 0x3
	.uleb128 0x8
	.uleb128 0x3a
	.uleb128 0xb
	.uleb128 0x3b
	.uleb128 0xb
	.uleb128 0x39
	.uleb128 0xb
	.uleb128 0x49
	.uleb128 0x13
	.uleb128 0x2
	.uleb128 0x18
	.byte	0
	.byte	0
	.uleb128 0x28
	.uleb128 0x34
	.byte	0
	.uleb128 0x3
	.uleb128 0x8
	.uleb128 0x3a
	.uleb128 0xb
	.uleb128 0x3b
	.uleb128 0xb
	.uleb128 0x39
	.uleb128 0xb
	.uleb128 0x49
	.uleb128 0x13
	.uleb128 0x2
	.uleb128 0x17
	.uleb128 0x2137
	.uleb128 0x17
	.byte	0
	.byte	0
	.uleb128 0x29
	.uleb128 0x34
	.byte	0
	.uleb128 0x3
	.uleb128 0xe
	.uleb128 0x3a
	.uleb128 0xb
	.uleb128 0x3b
	.uleb128 0xb
	.uleb128 0x39
	.uleb128 0xb
	.uleb128 0x49
	.uleb128 0x13
	.uleb128 0x2
	.uleb128 0x17
	.uleb128 0x2137
	.uleb128 0x17
	.byte	0
	.byte	0
	.uleb128 0x2a
	.uleb128 0x1d
	.byte	0x1
	.uleb128 0x31
	.uleb128 0x13
	.uleb128 0x52
	.uleb128 0x1
	.uleb128 0x2138
	.uleb128 0xb
	.uleb128 0x55
	.uleb128 0x17
	.uleb128 0x58
	.uleb128 0xb
	.uleb128 0x59
	.uleb128 0xb
	.uleb128 0x57
	.uleb128 0xb
	.uleb128 0x1
	.uleb128 0x13
	.byte	0
	.byte	0
	.uleb128 0x2b
	.uleb128 0x5
	.byte	0
	.uleb128 0x31
	.uleb128 0x13
	.uleb128 0x2
	.uleb128 0x17
	.uleb128 0x2137
	.uleb128 0x17
	.byte	0
	.byte	0
	.uleb128 0x2c
	.uleb128 0xb
	.byte	0x1
	.uleb128 0x55
	.uleb128 0x17
	.byte	0
	.byte	0
	.uleb128 0x2d
	.uleb128 0x34
	.byte	0
	.uleb128 0x31
	.uleb128 0x13
	.byte	0
	.byte	0
	.uleb128 0x2e
	.uleb128 0x34
	.byte	0
	.uleb128 0x31
	.uleb128 0x13
	.uleb128 0x2
	.uleb128 0x18
	.byte	0
	.byte	0
	.uleb128 0x2f
	.uleb128 0x34
	.byte	0
	.uleb128 0x31
	.uleb128 0x13
	.uleb128 0x2
	.uleb128 0x17
	.uleb128 0x2137
	.uleb128 0x17
	.byte	0
	.byte	0
	.uleb128 0x30
	.uleb128 0x4109
	.byte	0
	.uleb128 0x11
	.uleb128 0x1
	.uleb128 0x31
	.uleb128 0x13
	.byte	0
	.byte	0
	.uleb128 0x31
	.uleb128 0x4109
	.byte	0x1
	.uleb128 0x11
	.uleb128 0x1
	.uleb128 0x31
	.uleb128 0x13
	.uleb128 0x1
	.uleb128 0x13
	.byte	0
	.byte	0
	.uleb128 0x32
	.uleb128 0x410a
	.byte	0
	.uleb128 0x2
	.uleb128 0x18
	.uleb128 0x2111
	.uleb128 0x18
	.byte	0
	.byte	0
	.uleb128 0x33
	.uleb128 0x4109
	.byte	0x1
	.uleb128 0x11
	.uleb128 0x1
	.uleb128 0x31
	.uleb128 0x13
	.byte	0
	.byte	0
	.uleb128 0x34
	.uleb128 0x2e
	.byte	0x1
	.uleb128 0x3
	.uleb128 0xe
	.uleb128 0x3a
	.uleb128 0xb
	.uleb128 0x3b
	.uleb128 0xb
	.uleb128 0x39
	.uleb128 0xb
	.uleb128 0x27
	.uleb128 0x19
	.uleb128 0x20
	.uleb128 0xb
	.uleb128 0x1
	.uleb128 0x13
	.byte	0
	.byte	0
	.uleb128 0x35
	.uleb128 0x5
	.byte	0
	.uleb128 0x3
	.uleb128 0x8
	.uleb128 0x3a
	.uleb128 0xb
	.uleb128 0x3b
	.uleb128 0xb
	.uleb128 0x39
	.uleb128 0xb
	.uleb128 0x49
	.uleb128 0x13
	.byte	0
	.byte	0
	.uleb128 0x36
	.uleb128 0x34
	.byte	0
	.uleb128 0x3
	.uleb128 0x8
	.uleb128 0x3a
	.uleb128 0xb
	.uleb128 0x3b
	.uleb128 0xb
	.uleb128 0x39
	.uleb128 0xb
	.uleb128 0x49
	.uleb128 0x13
	.byte	0
	.byte	0
	.uleb128 0x37
	.uleb128 0x34
	.byte	0
	.uleb128 0x3
	.uleb128 0xe
	.uleb128 0x3a
	.uleb128 0xb
	.uleb128 0x3b
	.uleb128 0xb
	.uleb128 0x39
	.uleb128 0xb
	.uleb128 0x49
	.uleb128 0x13
	.byte	0
	.byte	0
	.uleb128 0x38
	.uleb128 0x2e
	.byte	0x1
	.uleb128 0x3f
	.uleb128 0x19
	.uleb128 0x3
	.uleb128 0xe
	.uleb128 0x3a
	.uleb128 0xb
	.uleb128 0x3b
	.uleb128 0xb
	.uleb128 0x39
	.uleb128 0xb
	.uleb128 0x49
	.uleb128 0x13
	.uleb128 0x3c
	.uleb128 0x19
	.uleb128 0x1
	.uleb128 0x13
	.byte	0
	.byte	0
	.uleb128 0x39
	.uleb128 0x18
	.byte	0
	.byte	0
	.byte	0
	.uleb128 0x3a
	.uleb128 0xb
	.byte	0x1
	.byte	0
	.byte	0
	.uleb128 0x3b
	.uleb128 0x2e
	.byte	0x1
	.uleb128 0x3f
	.uleb128 0x19
	.uleb128 0x3
	.uleb128 0xe
	.uleb128 0x3a
	.uleb128 0xb
	.uleb128 0x3b
	.uleb128 0xb
	.uleb128 0x39
	.uleb128 0xb
	.uleb128 0x49
	.uleb128 0x13
	.uleb128 0x3c
	.uleb128 0x19
	.byte	0
	.byte	0
	.uleb128 0x3c
	.uleb128 0x2e
	.byte	0
	.uleb128 0x3f
	.uleb128 0x19
	.uleb128 0x3c
	.uleb128 0x19
	.uleb128 0x6e
	.uleb128 0xe
	.uleb128 0x3
	.uleb128 0xe
	.uleb128 0x3a
	.uleb128 0xb
	.uleb128 0x3b
	.uleb128 0xb
	.uleb128 0x39
	.uleb128 0xb
	.byte	0
	.byte	0
	.uleb128 0x3d
	.uleb128 0x2e
	.byte	0
	.uleb128 0x3f
	.uleb128 0x19
	.uleb128 0x3c
	.uleb128 0x19
	.uleb128 0x6e
	.uleb128 0xe
	.uleb128 0x3
	.uleb128 0xe
	.uleb128 0x3a
	.uleb128 0xb
	.uleb128 0x3b
	.uleb128 0x5
	.uleb128 0x39
	.uleb128 0xb
	.byte	0
	.byte	0
	.byte	0
	.section	.debug_loc,"",%progbits
.Ldebug_loc0:
.LVUS6:
	.uleb128 0
	.uleb128 .LVU31
	.uleb128 .LVU31
	.uleb128 0
.LLST6:
	.4byte	.LVL12
	.4byte	.LVL13
	.2byte	0x1
	.byte	0x50
	.4byte	.LVL13
	.4byte	.LFE21
	.2byte	0x1
	.byte	0x55
	.4byte	0
	.4byte	0
.LVUS7:
	.uleb128 0
	.uleb128 .LVU36
	.uleb128 .LVU36
	.uleb128 .LVU52
	.uleb128 .LVU52
	.uleb128 .LVU57
	.uleb128 .LVU57
	.uleb128 .LVU61
	.uleb128 .LVU61
	.uleb128 .LVU154
	.uleb128 .LVU154
	.uleb128 .LVU156
	.uleb128 .LVU156
	.uleb128 0
.LLST7:
	.4byte	.LVL12
	.4byte	.LVL14-1
	.2byte	0x1
	.byte	0x51
	.4byte	.LVL14-1
	.4byte	.LVL17
	.2byte	0x1
	.byte	0x54
	.4byte	.LVL17
	.4byte	.LVL20
	.2byte	0x4
	.byte	0xf3
	.uleb128 0x1
	.byte	0x51
	.byte	0x9f
	.4byte	.LVL20
	.4byte	.LVL22
	.2byte	0x1
	.byte	0x54
	.4byte	.LVL22
	.4byte	.LVL49
	.2byte	0x4
	.byte	0xf3
	.uleb128 0x1
	.byte	0x51
	.byte	0x9f
	.4byte	.LVL49
	.4byte	.LVL50
	.2byte	0x1
	.byte	0x54
	.4byte	.LVL50
	.4byte	.LFE21
	.2byte	0x4
	.byte	0xf3
	.uleb128 0x1
	.byte	0x51
	.byte	0x9f
	.4byte	0
	.4byte	0
.LVUS8:
	.uleb128 0
	.uleb128 .LVU36
	.uleb128 .LVU36
	.uleb128 0
.LLST8:
	.4byte	.LVL12
	.4byte	.LVL14-1
	.2byte	0x1
	.byte	0x52
	.4byte	.LVL14-1
	.4byte	.LFE21
	.2byte	0x1
	.byte	0x57
	.4byte	0
	.4byte	0
.LVUS9:
	.uleb128 0
	.uleb128 .LVU36
	.uleb128 .LVU36
	.uleb128 0
.LLST9:
	.4byte	.LVL12
	.4byte	.LVL14-1
	.2byte	0x1
	.byte	0x53
	.4byte	.LVL14-1
	.4byte	.LFE21
	.2byte	0x1
	.byte	0x56
	.4byte	0
	.4byte	0
.LVUS10:
	.uleb128 .LVU37
	.uleb128 0
.LLST10:
	.4byte	.LVL14
	.4byte	.LFE21
	.2byte	0x1
	.byte	0x55
	.4byte	0
	.4byte	0
.LVUS11:
	.uleb128 .LVU43
	.uleb128 0
.LLST11:
	.4byte	.LVL15
	.4byte	.LFE21
	.2byte	0x1
	.byte	0x58
	.4byte	0
	.4byte	0
.LVUS12:
	.uleb128 .LVU44
	.uleb128 .LVU53
	.uleb128 .LVU53
	.uleb128 .LVU57
	.uleb128 .LVU57
	.uleb128 .LVU75
	.uleb128 .LVU75
	.uleb128 .LVU76
	.uleb128 .LVU76
	.uleb128 0
.LLST12:
	.4byte	.LVL15
	.4byte	.LVL18
	.2byte	0x2
	.byte	0x30
	.byte	0x9f
	.4byte	.LVL18
	.4byte	.LVL20
	.2byte	0x1
	.byte	0x54
	.4byte	.LVL20
	.4byte	.LVL27
	.2byte	0x2
	.byte	0x30
	.byte	0x9f
	.4byte	.LVL27
	.4byte	.LVL28
	.2byte	0x1
	.byte	0x50
	.4byte	.LVL28
	.4byte	.LFE21
	.2byte	0x2
	.byte	0x30
	.byte	0x9f
	.4byte	0
	.4byte	0
.LVUS13:
	.uleb128 .LVU77
	.uleb128 .LVU148
	.uleb128 .LVU153
	.uleb128 .LVU154
.LLST13:
	.4byte	.LVL28
	.4byte	.LVL44
	.2byte	0x1
	.byte	0x57
	.4byte	.LVL47
	.4byte	.LVL49
	.2byte	0x1
	.byte	0x57
	.4byte	0
	.4byte	0
.LVUS14:
	.uleb128 .LVU77
	.uleb128 .LVU148
	.uleb128 .LVU153
	.uleb128 .LVU154
.LLST14:
	.4byte	.LVL28
	.4byte	.LVL44
	.2byte	0x1
	.byte	0x55
	.4byte	.LVL47
	.4byte	.LVL49
	.2byte	0x1
	.byte	0x55
	.4byte	0
	.4byte	0
.LVUS15:
	.uleb128 .LVU88
	.uleb128 .LVU148
	.uleb128 .LVU153
	.uleb128 .LVU154
.LLST15:
	.4byte	.LVL29
	.4byte	.LVL44
	.2byte	0x2
	.byte	0x38
	.byte	0x9f
	.4byte	.LVL47
	.4byte	.LVL49
	.2byte	0x2
	.byte	0x38
	.byte	0x9f
	.4byte	0
	.4byte	0
.LVUS16:
	.uleb128 .LVU118
	.uleb128 .LVU148
.LLST16:
	.4byte	.LVL33
	.4byte	.LVL44
	.2byte	0x2
	.byte	0x38
	.byte	0x9f
	.4byte	0
	.4byte	0
.LVUS0:
	.uleb128 0
	.uleb128 .LVU5
	.uleb128 .LVU5
	.uleb128 .LVU26
	.uleb128 .LVU26
	.uleb128 0
.LLST0:
	.4byte	.LVL0
	.4byte	.LVL1
	.2byte	0x1
	.byte	0x50
	.4byte	.LVL1
	.4byte	.LVL11
	.2byte	0x1
	.byte	0x58
	.4byte	.LVL11
	.4byte	.LFE20
	.2byte	0x4
	.byte	0xf3
	.uleb128 0x1
	.byte	0x50
	.byte	0x9f
	.4byte	0
	.4byte	0
.LVUS1:
	.uleb128 0
	.uleb128 .LVU8
	.uleb128 .LVU8
	.uleb128 .LVU26
	.uleb128 .LVU26
	.uleb128 0
.LLST1:
	.4byte	.LVL0
	.4byte	.LVL3
	.2byte	0x1
	.byte	0x51
	.4byte	.LVL3
	.4byte	.LVL11
	.2byte	0x1
	.byte	0x54
	.4byte	.LVL11
	.4byte	.LFE20
	.2byte	0x4
	.byte	0xf3
	.uleb128 0x1
	.byte	0x51
	.byte	0x9f
	.4byte	0
	.4byte	0
.LVUS2:
	.uleb128 0
	.uleb128 .LVU9
	.uleb128 .LVU9
	.uleb128 .LVU26
	.uleb128 .LVU26
	.uleb128 0
.LLST2:
	.4byte	.LVL0
	.4byte	.LVL4-1
	.2byte	0x1
	.byte	0x52
	.4byte	.LVL4-1
	.4byte	.LVL11
	.2byte	0x1
	.byte	0x55
	.4byte	.LVL11
	.4byte	.LFE20
	.2byte	0x4
	.byte	0xf3
	.uleb128 0x1
	.byte	0x52
	.byte	0x9f
	.4byte	0
	.4byte	0
.LVUS3:
	.uleb128 0
	.uleb128 .LVU7
	.uleb128 .LVU7
	.uleb128 .LVU14
	.uleb128 .LVU16
	.uleb128 .LVU26
	.uleb128 .LVU26
	.uleb128 0
.LLST3:
	.4byte	.LVL0
	.4byte	.LVL2
	.2byte	0x1
	.byte	0x53
	.4byte	.LVL2
	.4byte	.LVL5
	.2byte	0x1
	.byte	0x57
	.4byte	.LVL6-1
	.4byte	.LVL11
	.2byte	0xe
	.byte	0x77
	.sleb128 0
	.byte	0x74
	.sleb128 0
	.byte	0x77
	.sleb128 0
	.byte	0x30
	.byte	0x2e
	.byte	0x28
	.2byte	0x1
	.byte	0x16
	.byte	0x13
	.byte	0x9f
	.4byte	.LVL11
	.4byte	.LFE20
	.2byte	0x11
	.byte	0xf3
	.uleb128 0x1
	.byte	0x53
	.byte	0xf3
	.uleb128 0x1
	.byte	0x51
	.byte	0xf3
	.uleb128 0x1
	.byte	0x53
	.byte	0x30
	.byte	0x2e
	.byte	0x28
	.2byte	0x1
	.byte	0x16
	.byte	0x13
	.byte	0x9f
	.4byte	0
	.4byte	0
.LVUS4:
	.uleb128 0
	.uleb128 .LVU14
	.uleb128 .LVU14
	.uleb128 .LVU19
	.uleb128 .LVU19
	.uleb128 .LVU26
	.uleb128 .LVU26
	.uleb128 0
.LLST4:
	.4byte	.LVL0
	.4byte	.LVL5
	.2byte	0x2
	.byte	0x91
	.sleb128 0
	.4byte	.LVL5
	.4byte	.LVL7
	.2byte	0x1
	.byte	0x56
	.4byte	.LVL7
	.4byte	.LVL11
	.2byte	0xf
	.byte	0x75
	.sleb128 0
	.byte	0x91
	.sleb128 -8
	.byte	0x6
	.byte	0x77
	.sleb128 0
	.byte	0x30
	.byte	0x29
	.byte	0x28
	.2byte	0x1
	.byte	0x16
	.byte	0x13
	.byte	0x9f
	.4byte	.LVL11
	.4byte	.LFE20
	.2byte	0x11
	.byte	0xf3
	.uleb128 0x1
	.byte	0x52
	.byte	0x91
	.sleb128 -8
	.byte	0x6
	.byte	0xf3
	.uleb128 0x1
	.byte	0x53
	.byte	0x30
	.byte	0x29
	.byte	0x28
	.2byte	0x1
	.byte	0x16
	.byte	0x13
	.byte	0x9f
	.4byte	0
	.4byte	0
.LVUS5:
	.uleb128 .LVU16
	.uleb128 .LVU23
	.uleb128 .LVU23
	.uleb128 .LVU26
	.uleb128 .LVU26
	.uleb128 0
.LLST5:
	.4byte	.LVL6
	.4byte	.LVL9
	.2byte	0x1
	.byte	0x50
	.4byte	.LVL9
	.4byte	.LVL11
	.2byte	0x1
	.byte	0x56
	.4byte	.LVL11
	.4byte	.LFE20
	.2byte	0x1
	.byte	0x50
	.4byte	0
	.4byte	0
	.section	.debug_aranges,"",%progbits
	.4byte	0x24
	.2byte	0x2
	.4byte	.Ldebug_info0
	.byte	0x4
	.byte	0
	.2byte	0
	.2byte	0
	.4byte	.LFB20
	.4byte	.LFE20-.LFB20
	.4byte	.LFB21
	.4byte	.LFE21-.LFB21
	.4byte	0
	.4byte	0
	.section	.debug_ranges,"",%progbits
.Ldebug_ranges0:
	.4byte	.LBB5
	.4byte	.LBE5
	.4byte	.LBB8
	.4byte	.LBE8
	.4byte	0
	.4byte	0
	.4byte	.LFB20
	.4byte	.LFE20
	.4byte	.LFB21
	.4byte	.LFE21
	.4byte	0
	.4byte	0
	.section	.debug_line,"",%progbits
.Ldebug_line0:
	.section	.debug_str,"MS",%progbits,1
.LASF170:
	.ascii	"namehash\000"
.LASF190:
	.ascii	"ivlen\000"
.LASF125:
	.ascii	"last\000"
.LASF59:
	.ascii	"gcry_md_handle\000"
.LASF215:
	.ascii	"mdc_method\000"
.LASF18:
	.ascii	"IOBUFCTRL_FREE\000"
.LASF62:
	.ascii	"datalen\000"
.LASF242:
	.ascii	"blocksize\000"
.LASF106:
	.ascii	"prefitem_t\000"
.LASF199:
	.ascii	"hdrbytes\000"
.LASF161:
	.ascii	"aead\000"
.LASF142:
	.ascii	"flags\000"
.LASF22:
	.ascii	"IOBUFCTRL_CANCEL\000"
.LASF208:
	.ascii	"PKT_public_key\000"
.LASF197:
	.ascii	"exact\000"
.LASF123:
	.ascii	"sig_class\000"
.LASF46:
	.ascii	"algo_info_printed\000"
.LASF222:
	.ascii	"control\000"
.LASF0:
	.ascii	"unsigned int\000"
.LASF112:
	.ascii	"version\000"
.LASF189:
	.ascii	"csum\000"
.LASF223:
	.ascii	"PKT_gpg_control\000"
.LASF196:
	.ascii	"serialno_valid\000"
.LASF26:
	.ascii	"IOBUF_INPUT_TEMP\000"
.LASF98:
	.ascii	"gcry_mpi_t\000"
.LASF60:
	.ascii	"bufpos\000"
.LASF206:
	.ascii	"serialno\000"
.LASF230:
	.ascii	"secret_key\000"
.LASF130:
	.ascii	"email\000"
.LASF63:
	.ascii	"cipher_hd\000"
.LASF213:
	.ascii	"extralen\000"
.LASF245:
	.ascii	"log_hexdump\000"
.LASF85:
	.ascii	"PKT_MARKER\000"
.LASF132:
	.ascii	"chosen_selfsig\000"
.LASF32:
	.ascii	"ntotal\000"
.LASF35:
	.ascii	"error\000"
.LASF107:
	.ascii	"mode\000"
.LASF34:
	.ascii	"filter_eof\000"
.LASF131:
	.ascii	"pka_info_t\000"
.LASF232:
	.ascii	"compressed\000"
.LASF93:
	.ascii	"PKT_MDC\000"
.LASF261:
	.ascii	"log_fatal\000"
.LASF214:
	.ascii	"is_partial\000"
.LASF139:
	.ascii	"key_block\000"
.LASF231:
	.ascii	"comment\000"
.LASF83:
	.ascii	"PKT_COMPRESSED\000"
.LASF78:
	.ascii	"PKT_SYMKEY_ENC\000"
.LASF120:
	.ascii	"throw_keyid\000"
.LASF176:
	.ascii	"created\000"
.LASF235:
	.ascii	"gpg_control\000"
.LASF9:
	.ascii	"uint32_t\000"
.LASF69:
	.ascii	"cipher_filter_context_t\000"
.LASF236:
	.ascii	"opaque\000"
.LASF156:
	.ascii	"digest\000"
.LASF259:
	.ascii	"iobuf_use\000"
.LASF224:
	.ascii	"generic\000"
.LASF188:
	.ascii	"sha1chk\000"
.LASF30:
	.ascii	"nlimit\000"
.LASF94:
	.ascii	"PKT_ENCRYPTED_AEAD\000"
.LASF70:
	.ascii	"float\000"
.LASF111:
	.ascii	"STRING2KEY\000"
.LASF210:
	.ascii	"new_ctb\000"
.LASF110:
	.ascii	"count\000"
.LASF229:
	.ascii	"public_key\000"
.LASF44:
	.ascii	"algo\000"
.LASF126:
	.ascii	"PKT_onepass_sig\000"
.LASF119:
	.ascii	"pubkey_algo\000"
.LASF192:
	.ascii	"disabled\000"
.LASF244:
	.ascii	"fixed_random\000"
.LASF11:
	.ascii	"long long unsigned int\000"
.LASF165:
	.ascii	"revoked\000"
.LASF127:
	.ascii	"subpktarea_t\000"
.LASF147:
	.ascii	"trust_regexp\000"
.LASF87:
	.ascii	"PKT_RING_TRUST\000"
.LASF228:
	.ascii	"signature\000"
.LASF173:
	.ascii	"help_full_count\000"
.LASF82:
	.ascii	"PKT_SECRET_SUBKEY\000"
.LASF168:
	.ascii	"attrib_data\000"
.LASF150:
	.ascii	"help_counter\000"
.LASF105:
	.ascii	"value\000"
.LASF80:
	.ascii	"PKT_SECRET_KEY\000"
.LASF25:
	.ascii	"IOBUF_INPUT\000"
.LASF101:
	.ascii	"PACKET\000"
.LASF256:
	.ascii	"GNU C17 10.3.1 20210621 (release) -mcpu=cortex-a7 -"
	.ascii	"mfloat-abi=soft -marm -march=armv7ve -g -O2 -fpic -"
	.ascii	"ffreestanding -ffunction-sections -fdata-sections -"
	.ascii	"fno-common\000"
.LASF227:
	.ascii	"onepass_sig\000"
.LASF8:
	.ascii	"size_t\000"
.LASF145:
	.ascii	"trust_depth\000"
.LASF257:
	.ascii	"src/cipher.c\000"
.LASF76:
	.ascii	"PKT_PUBKEY_ENC\000"
.LASF33:
	.ascii	"nofast\000"
.LASF174:
	.ascii	"help_marginal_count\000"
.LASF167:
	.ascii	"numattribs\000"
.LASF198:
	.ascii	"max_expiredate\000"
.LASF141:
	.ascii	"pka_tried\000"
.LASF155:
	.ascii	"digest_start\000"
.LASF99:
	.ascii	"gcry_mpi\000"
.LASF207:
	.ascii	"pkey\000"
.LASF166:
	.ascii	"attribs\000"
.LASF250:
	.ascii	"_gcry_cipher_setkey\000"
.LASF138:
	.ascii	"pref_ks\000"
.LASF252:
	.ascii	"cipher_sync\000"
.LASF240:
	.ascii	"inlen\000"
.LASF113:
	.ascii	"cipher_algo\000"
.LASF151:
	.ascii	"pka_info\000"
.LASF45:
	.ascii	"keylen\000"
.LASF157:
	.ascii	"digest_len\000"
.LASF14:
	.ascii	"char\000"
.LASF117:
	.ascii	"PKT_symkey_enc\000"
.LASF90:
	.ascii	"PKT_OLD_COMMENT\000"
.LASF55:
	.ascii	"lastiv\000"
.LASF220:
	.ascii	"namelen\000"
.LASF233:
	.ascii	"encrypted\000"
.LASF179:
	.ascii	"keyorg\000"
.LASF185:
	.ascii	"date\000"
.LASF17:
	.ascii	"IOBUFCTRL_INIT\000"
.LASF77:
	.ascii	"PKT_SIGNATURE\000"
.LASF65:
	.ascii	"short_blklen_warn\000"
.LASF116:
	.ascii	"seskey\000"
.LASF211:
	.ascii	"algorithm\000"
.LASF41:
	.ascii	"subno\000"
.LASF84:
	.ascii	"PKT_ENCRYPTED\000"
.LASF186:
	.ascii	"seckey_info\000"
.LASF258:
	.ascii	"/home/fred/code/rpi-qemu-gdb/Claude/raspi3b_qemu_\000"
.LASF109:
	.ascii	"salt\000"
.LASF61:
	.ascii	"bufsize\000"
.LASF163:
	.ascii	"compacted\000"
.LASF1:
	.ascii	"long long int\000"
.LASF128:
	.ascii	"valid\000"
.LASF209:
	.ascii	"PKT_comment\000"
.LASF183:
	.ascii	"PKT_user_id\000"
.LASF57:
	.ascii	"context\000"
.LASF124:
	.ascii	"digest_algo\000"
.LASF50:
	.ascii	"s2k_cacheid\000"
.LASF133:
	.ascii	"unknown_critical\000"
.LASF100:
	.ascii	"gcry_md_context\000"
.LASF177:
	.ascii	"keyupdate\000"
.LASF178:
	.ascii	"updateurl\000"
.LASF238:
	.ascii	"_gcry_cipher_encrypt\000"
.LASF37:
	.ascii	"filter_ov\000"
.LASF260:
	.ascii	"write_cfb_header\000"
.LASF247:
	.ascii	"memset\000"
.LASF24:
	.ascii	"IOBUFCTRL_USER\000"
.LASF31:
	.ascii	"nbytes\000"
.LASF148:
	.ascii	"revkey\000"
.LASF175:
	.ascii	"prefs\000"
.LASF144:
	.ascii	"expiredate\000"
.LASF92:
	.ascii	"PKT_ENCRYPTED_MDC\000"
.LASF42:
	.ascii	"size\000"
.LASF159:
	.ascii	"PKT_signature\000"
.LASF122:
	.ascii	"PKT_pubkey_enc\000"
.LASF79:
	.ascii	"PKT_ONEPASS_SIG\000"
.LASF194:
	.ascii	"dont_cache\000"
.LASF114:
	.ascii	"aead_algo\000"
.LASF217:
	.ascii	"PKT_encrypted\000"
.LASF89:
	.ascii	"PKT_PUBLIC_SUBKEY\000"
.LASF225:
	.ascii	"symkey_enc\000"
.LASF64:
	.ascii	"wrote_header\000"
.LASF103:
	.ascii	"pkttype\000"
.LASF58:
	.ascii	"gcry_md_hd_t\000"
.LASF246:
	.ascii	"tfp_printf\000"
.LASF72:
	.ascii	"PROPERLY_ALIGNED_TYPE\000"
.LASF47:
	.ascii	"use_aead\000"
.LASF121:
	.ascii	"data\000"
.LASF75:
	.ascii	"PKT_NONE\000"
.LASF204:
	.ascii	"user_id\000"
.LASF253:
	.ascii	"iobuf_write\000"
.LASF255:
	.ascii	"_gcry_cipher_cfb_encrypt\000"
.LASF7:
	.ascii	"short unsigned int\000"
.LASF243:
	.ascii	"nprefix\000"
.LASF2:
	.ascii	"long double\000"
.LASF172:
	.ascii	"help_key_expire\000"
.LASF21:
	.ascii	"IOBUFCTRL_DESC\000"
.LASF23:
	.ascii	"IOBUFCTRL_PEEK\000"
.LASF49:
	.ascii	"symmetric\000"
.LASF54:
	.ascii	"u_iv\000"
.LASF205:
	.ascii	"trust_timestamp\000"
.LASF200:
	.ascii	"pubkey_usage\000"
.LASF171:
	.ascii	"help_key_usage\000"
.LASF137:
	.ascii	"notation\000"
.LASF19:
	.ascii	"IOBUFCTRL_UNDERFLOW\000"
.LASF4:
	.ascii	"short int\000"
.LASF5:
	.ascii	"long int\000"
.LASF218:
	.ascii	"hash\000"
.LASF52:
	.ascii	"iobuf_struct\000"
.LASF251:
	.ascii	"_gcry_cipher_setiv\000"
.LASF129:
	.ascii	"checked\000"
.LASF241:
	.ascii	"temp\000"
.LASF234:
	.ascii	"plaintext\000"
.LASF51:
	.ascii	"gcry_cipher_hd_t\000"
.LASF67:
	.ascii	"mdc_hash\000"
.LASF95:
	.ascii	"PKT_COMMENT\000"
.LASF146:
	.ascii	"trust_value\000"
.LASF181:
	.ascii	"mbox\000"
.LASF108:
	.ascii	"hash_algo\000"
.LASF226:
	.ascii	"pubkey_enc\000"
.LASF195:
	.ascii	"backsig\000"
.LASF154:
	.ascii	"unhashed\000"
.LASF152:
	.ascii	"signers_uid\000"
.LASF134:
	.ascii	"exportable\000"
.LASF53:
	.ascii	"gcry_cipher_handle\000"
.LASF140:
	.ascii	"expired\000"
.LASF182:
	.ascii	"name\000"
.LASF43:
	.ascii	"start\000"
.LASF97:
	.ascii	"pkttype_t\000"
.LASF86:
	.ascii	"PKT_PLAINTEXT\000"
.LASF10:
	.ascii	"long unsigned int\000"
.LASF56:
	.ascii	"unused\000"
.LASF39:
	.ascii	"real_fname\000"
.LASF202:
	.ascii	"has_expired\000"
.LASF36:
	.ascii	"filter\000"
.LASF180:
	.ascii	"selfsigversion\000"
.LASF248:
	.ascii	"build_packet\000"
.LASF16:
	.ascii	"byte\000"
.LASF193:
	.ascii	"maybe_revoked\000"
.LASF115:
	.ascii	"seskeylen\000"
.LASF81:
	.ascii	"PKT_PUBLIC_KEY\000"
.LASF104:
	.ascii	"type\000"
.LASF6:
	.ascii	"unsigned char\000"
.LASF239:
	.ascii	"outsize\000"
.LASF91:
	.ascii	"PKT_ATTRIBUTE\000"
.LASF27:
	.ascii	"IOBUF_OUTPUT\000"
.LASF149:
	.ascii	"numrevkeys\000"
.LASF237:
	.ascii	"cipher_filter_cfb\000"
.LASF203:
	.ascii	"main_keyid\000"
.LASF88:
	.ascii	"PKT_USER_ID\000"
.LASF96:
	.ascii	"PKT_GPG_CONTROL\000"
.LASF191:
	.ascii	"disabled_valid\000"
.LASF68:
	.ascii	"startiv\000"
.LASF212:
	.ascii	"PKT_compressed\000"
.LASF38:
	.ascii	"filter_ov_owner\000"
.LASF48:
	.ascii	"use_mdc\000"
.LASF201:
	.ascii	"req_usage\000"
.LASF221:
	.ascii	"PKT_plaintext\000"
.LASF143:
	.ascii	"timestamp\000"
.LASF13:
	.ascii	"__off_t\000"
.LASF135:
	.ascii	"revocable\000"
.LASF3:
	.ascii	"signed char\000"
.LASF118:
	.ascii	"keyid\000"
.LASF15:
	.ascii	"off_t\000"
.LASF28:
	.ascii	"IOBUF_OUTPUT_TEMP\000"
.LASF40:
	.ascii	"chain\000"
.LASF29:
	.ascii	"iobuf_t\000"
.LASF249:
	.ascii	"memcpy\000"
.LASF20:
	.ascii	"IOBUFCTRL_FLUSH\000"
.LASF74:
	.ascii	"iv_align\000"
.LASF153:
	.ascii	"hashed\000"
.LASF66:
	.ascii	"short_blklen_count\000"
.LASF184:
	.ascii	"revoke_info\000"
.LASF71:
	.ascii	"double\000"
.LASF187:
	.ascii	"is_protected\000"
.LASF162:
	.ascii	"ks_modify\000"
.LASF12:
	.ascii	"_off_t\000"
.LASF158:
	.ascii	"revocation_key\000"
.LASF73:
	.ascii	"cipher_context_alignment_t\000"
.LASF102:
	.ascii	"packet_struct\000"
.LASF216:
	.ascii	"chunkbyte\000"
.LASF254:
	.ascii	"_gcry_cipher_close\000"
.LASF160:
	.ascii	"user_attribute\000"
.LASF219:
	.ascii	"PKT_mdc\000"
.LASF136:
	.ascii	"policy_url\000"
.LASF169:
	.ascii	"attrib_len\000"
.LASF164:
	.ascii	"primary\000"
	.ident	"GCC: (15:10.3-2021.07-4) 10.3.1 20210621 (release)"
