	.cpu cortex-a7
	.eabi_attribute 20, 1	@ Tag_ABI_FP_denormal
	.eabi_attribute 21, 1	@ Tag_ABI_FP_exceptions
	.eabi_attribute 23, 3	@ Tag_ABI_FP_number_model
	.eabi_attribute 24, 1	@ Tag_ABI_align8_needed
	.eabi_attribute 25, 1	@ Tag_ABI_align8_preserved
	.eabi_attribute 26, 1	@ Tag_ABI_enum_size
	.eabi_attribute 30, 2	@ Tag_ABI_optimization_goals
	.eabi_attribute 34, 1	@ Tag_CPU_unaligned_access
	.eabi_attribute 18, 4	@ Tag_ABI_PCS_wchar_t
	.file	"cipher.c"
@ GNU C17 (15:10.3-2021.07-4) version 10.3.1 20210621 (release) (arm-none-eabi)
@	compiled by GNU C version 11.2.0, GMP version 6.2.1, MPFR version 4.1.0, MPC version 1.2.1, isl version isl-0.24-GMP

@ GGC heuristics: --param ggc-min-expand=100 --param ggc-min-heapsize=131072
@ options passed:  -I src -I src/common -imultilib thumb/v7-a/nofp
@ -D__USES_INITFINI__ src/cipher.c -mcpu=cortex-a7 -mfloat-abi=soft -marm
@ -mlibarch=armv7ve -march=armv7ve -auxbase-strip build/asm_output/cipher.s
@ -g -O2 -Wall -Wextra -fpic -ffreestanding -ffunction-sections
@ -fdata-sections -fno-common -fverbose-asm
@ options enabled:  -faggressive-loop-optimizations -falign-functions
@ -falign-jumps -falign-labels -falign-loops -fallocation-dce
@ -fauto-inc-dec -fbranch-count-reg -fcaller-saves
@ -fcombine-stack-adjustments -fcompare-elim -fcprop-registers
@ -fcrossjumping -fcse-follow-jumps -fdata-sections -fdefer-pop
@ -fdelete-null-pointer-checks -fdevirtualize -fdevirtualize-speculatively
@ -fdwarf2-cfi-asm -fearly-inlining -feliminate-unused-debug-symbols
@ -feliminate-unused-debug-types -fexpensive-optimizations
@ -fforward-propagate -ffp-int-builtin-inexact -ffunction-cse
@ -ffunction-sections -fgcse -fgcse-lm -fgnu-unique
@ -fguess-branch-probability -fhoist-adjacent-loads -fident -fif-conversion
@ -fif-conversion2 -findirect-inlining -finline -finline-atomics
@ -finline-functions -finline-functions-called-once
@ -finline-small-functions -fipa-bit-cp -fipa-cp -fipa-icf
@ -fipa-icf-functions -fipa-icf-variables -fipa-profile -fipa-pure-const
@ -fipa-ra -fipa-reference -fipa-reference-addressable -fipa-sra
@ -fipa-stack-alignment -fipa-vrp -fira-hoist-pressure
@ -fira-share-save-slots -fira-share-spill-slots
@ -fisolate-erroneous-paths-dereference -fivopts -fkeep-static-consts
@ -fleading-underscore -flifetime-dse -flra-remat -fmath-errno
@ -fmerge-constants -fmerge-debug-strings -fmove-loop-invariants
@ -fomit-frame-pointer -foptimize-sibling-calls -foptimize-strlen
@ -fpartial-inlining -fpeephole -fpeephole2 -fpic -fplt
@ -fprefetch-loop-arrays -freg-struct-return -freorder-blocks
@ -freorder-functions -frerun-cse-after-loop
@ -fsched-critical-path-heuristic -fsched-dep-count-heuristic
@ -fsched-group-heuristic -fsched-interblock -fsched-last-insn-heuristic
@ -fsched-pressure -fsched-rank-heuristic -fsched-spec
@ -fsched-spec-insn-heuristic -fsched-stalled-insns-dep -fschedule-insns
@ -fschedule-insns2 -fsection-anchors -fsemantic-interposition
@ -fshow-column -fshrink-wrap -fshrink-wrap-separate -fsigned-zeros
@ -fsplit-ivs-in-unroller -fsplit-wide-types -fssa-backprop -fssa-phiopt
@ -fstdarg-opt -fstore-merging -fstrict-aliasing
@ -fstrict-volatile-bitfields -fsync-libcalls -fthread-jumps
@ -ftoplevel-reorder -ftrapping-math -ftree-bit-ccp -ftree-builtin-call-dce
@ -ftree-ccp -ftree-ch -ftree-coalesce-vars -ftree-copy-prop -ftree-cselim
@ -ftree-dce -ftree-dominator-opts -ftree-dse -ftree-forwprop -ftree-fre
@ -ftree-loop-if-convert -ftree-loop-im -ftree-loop-ivcanon
@ -ftree-loop-optimize -ftree-parallelize-loops= -ftree-phiprop -ftree-pre
@ -ftree-pta -ftree-reassoc -ftree-scev-cprop -ftree-sink -ftree-slsr
@ -ftree-sra -ftree-switch-conversion -ftree-tail-merge -ftree-ter
@ -ftree-vrp -funit-at-a-time -fvar-tracking -fvar-tracking-assignments
@ -fverbose-asm -fzero-initialized-in-bss -marm -mbe32 -mlittle-endian
@ -mpic-data-is-text-relative -msched-prolog -munaligned-access
@ -mvectorize-with-neon-quad -mword-relocations

	.text
.Ltext0:
	.cfi_sections	.debug_frame
	.section	.rodata._gcry_cipher_encrypt.str1.4,"aMS",%progbits,1
	.align	2
.LC0:
	.ascii	"_gcry_cipher_encrypt inlen: %d, outSize: %d, unused"
	.ascii	": %d\012\000"
	.section	.text._gcry_cipher_encrypt,"ax",%progbits
	.align	2
	.global	_gcry_cipher_encrypt
	.arch armv7ve
	.syntax unified
	.arm
	.fpu softvfp
	.type	_gcry_cipher_encrypt, %function
_gcry_cipher_encrypt:
.LVL0:
.LFB20:
	.file 1 "src/cipher.c"
	.loc 1 109 1 view -0
	.cfi_startproc
	@ args = 4, pretend = 0, frame = 0
	@ frame_needed = 0, uses_anonymous_args = 0
	.loc 1 110 3 view .LVU1
@ src/cipher.c:109: {
	.loc 1 109 1 is_stmt 0 view .LVU2
	push	{r4, r5, r6, r7, r8, lr}	@
	.cfi_def_cfa_offset 24
	.cfi_offset 4, -24
	.cfi_offset 5, -20
	.cfi_offset 6, -16
	.cfi_offset 7, -12
	.cfi_offset 8, -8
	.cfi_offset 14, -4
	sub	sp, sp, #8	@,,
	.cfi_def_cfa_offset 32
@ src/cipher.c:109: {
	.loc 1 109 1 view .LVU3
	mov	r8, r0	@ tmp136, h
	mov	r4, r1	@ out, tmp137
	ldr	r6, [sp, #32]	@ inlen, inlen
	mov	r7, r3	@ tmp139, in
@ src/cipher.c:110:   printf("_gcry_cipher_encrypt inlen: %d, outSize: %d, unused: %d\n", inlen, outsize, h->unused);
	.loc 1 110 3 view .LVU4
	ldr	r0, .L10	@,
.LVL1:
@ src/cipher.c:109: {
	.loc 1 109 1 view .LVU5
	mov	r5, r2	@ outsize, tmp138
@ src/cipher.c:110:   printf("_gcry_cipher_encrypt inlen: %d, outSize: %d, unused: %d\n", inlen, outsize, h->unused);
	.loc 1 110 3 view .LVU6
	ldr	r3, [r8, #32]	@, h_9(D)->unused
.LVL2:
	.loc 1 110 3 view .LVU7
	mov	r1, r6	@, inlen
.LVL3:
	.loc 1 110 3 view .LVU8
.LPIC0:
	add	r0, pc, r0	@,
	bl	tfp_printf(PLT)	@
.LVL4:
	.loc 1 111 3 is_stmt 1 view .LVU9
	.loc 1 113 3 view .LVU10
@ src/cipher.c:113:   if (!in)  /* Caller requested in-place encryption.  */
	.loc 1 113 6 is_stmt 0 view .LVU11
	cmp	r7, #0	@ in,
@ src/cipher.c:128:   rc = _gcry_cipher_cfb_encrypt (h, out, outsize, in, inlen);
	.loc 1 128 8 view .LVU12
	mov	r0, r8	@, h
@ src/cipher.c:113:   if (!in)  /* Caller requested in-place encryption.  */
	.loc 1 113 6 view .LVU13
	moveq	r6, r5	@ tmp134, outsize
.LVL5:
	.loc 1 128 3 is_stmt 1 view .LVU14
@ src/cipher.c:128:   rc = _gcry_cipher_cfb_encrypt (h, out, outsize, in, inlen);
	.loc 1 128 8 is_stmt 0 view .LVU15
	movne	r3, r7	@, in
	str	r6, [sp]	@ tmp134,
	moveq	r3, r4	@, out
	mov	r2, r5	@, outsize
	mov	r1, r4	@, out
	bl	_gcry_cipher_cfb_encrypt(PLT)	@
.LVL6:
	.loc 1 132 3 is_stmt 1 view .LVU16
@ src/cipher.c:132:   if (rc && out)
	.loc 1 132 6 is_stmt 0 view .LVU17
	cmp	r0, #0	@ <retval>,
	cmpne	r4, #0	@, out,
@ src/cipher.c:132:   if (rc && out)
	.loc 1 132 7 view .LVU18
	mov	r6, r0	@ <retval>, tmp140
.LVL7:
@ src/cipher.c:132:   if (rc && out)
	.loc 1 132 6 view .LVU19
	bne	.L9		@,
@ src/cipher.c:136: }
	.loc 1 136 1 view .LVU20
	mov	r0, r6	@, <retval>
	.loc 1 136 1 view .LVU21
	add	sp, sp, #8	@,,
	.cfi_remember_state
	.cfi_def_cfa_offset 24
	@ sp needed	@
	pop	{r4, r5, r6, r7, r8, pc}	@
.LVL8:
.L9:
	.cfi_restore_state
	.loc 1 133 5 is_stmt 1 view .LVU22
	mov	r2, r5	@, outsize
	mov	r1, #66	@,
	mov	r0, r4	@, out
.LVL9:
	.loc 1 133 5 is_stmt 0 view .LVU23
	bl	memset(PLT)	@
.LVL10:
	.loc 1 135 3 is_stmt 1 view .LVU24
@ src/cipher.c:136: }
	.loc 1 136 1 is_stmt 0 view .LVU25
	mov	r0, r6	@, <retval>
	add	sp, sp, #8	@,,
	.cfi_def_cfa_offset 24
	@ sp needed	@
	pop	{r4, r5, r6, r7, r8, pc}	@
.LVL11:
.L11:
	.loc 1 136 1 view .LVU26
	.align	2
.L10:
	.word	.LC0-(.LPIC0+8)
	.cfi_endproc
.LFE20:
	.size	_gcry_cipher_encrypt, .-_gcry_cipher_encrypt
	.section	.rodata.cipher_filter_cfb.str1.4,"aMS",%progbits,1
	.align	2
.LC1:
	.ascii	"cipher_filter_cfb\012\000"
	.align	2
.LC2:
	.ascii	"cipher_filter_cfb %d %d\012\000"
	.align	2
.LC3:
	.ascii	"IOBUFCTRL_FLUSH\012\000"
	.align	2
.LC4:
	.ascii	"write_cfb_header\012\000"
	.align	2
.LC5:
	.ascii	"use_mdc %d\012\000"
	.align	2
.LC6:
	.ascii	"build_packet(ENCR_DATA) failed\012\000"
	.align	2
.LC7:
	.ascii	"Fixing random %d bytes\012\000"
	.align	2
.LC9:
	.ascii	"Encrypting: %d bytes\012\000"
	.align	2
.LC10:
	.ascii	"Encrypting2: %d bytes\012\000"
	.align	2
.LC11:
	.ascii	"short_blklen_count: %d\012\000"
	.align	2
.LC12:
	.ascii	"IOBUFCTRL_FREE\012\000"
	.align	2
.LC13:
	.ascii	"cipher_filter_cfb RETURNING %d\012\000"
	.align	2
.LC8:
	.ascii	"\001#Eg\211\253\315\357\000"
	.section	.text.cipher_filter_cfb,"ax",%progbits
	.align	2
	.global	cipher_filter_cfb
	.syntax unified
	.arm
	.fpu softvfp
	.type	cipher_filter_cfb, %function
cipher_filter_cfb:
.LVL12:
.LFB21:
	.loc 1 141 1 is_stmt 1 view -0
	.cfi_startproc
	@ args = 4, pretend = 0, frame = 56
	@ frame_needed = 0, uses_anonymous_args = 0
	.loc 1 142 3 view .LVU28
@ src/cipher.c:141: {
	.loc 1 141 1 is_stmt 0 view .LVU29
	push	{r4, r5, r6, r7, r8, r9, lr}	@
	.cfi_def_cfa_offset 28
	.cfi_offset 4, -28
	.cfi_offset 5, -24
	.cfi_offset 6, -20
	.cfi_offset 7, -16
	.cfi_offset 8, -12
	.cfi_offset 9, -8
	.cfi_offset 14, -4
	mov	r5, r0	@ tmp244, opaque
@ src/cipher.c:142:   printf("cipher_filter_cfb\n");
	.loc 1 142 3 view .LVU30
	ldr	r0, .L29	@,
.LVL13:
@ src/cipher.c:141: {
	.loc 1 141 1 view .LVU31
	sub	sp, sp, #68	@,,
	.cfi_def_cfa_offset 96
@ src/cipher.c:141: {
	.loc 1 141 1 view .LVU32
	mov	r4, r1	@ control, tmp245
	mov	r7, r2	@ chain, tmp246
@ src/cipher.c:142:   printf("cipher_filter_cfb\n");
	.loc 1 142 3 view .LVU33
.LPIC1:
	add	r0, pc, r0	@,
@ src/cipher.c:141: {
	.loc 1 141 1 view .LVU34
	mov	r6, r3	@ buf, tmp247
@ src/cipher.c:142:   printf("cipher_filter_cfb\n");
	.loc 1 142 3 view .LVU35
	bl	tfp_printf(PLT)	@
.LVL14:
	.loc 1 143 3 is_stmt 1 view .LVU36
	.loc 1 145 3 view .LVU37
@ src/cipher.c:147:   printf("cipher_filter_cfb %d %d\n",control, cfx->wrote_header);
	.loc 1 147 50 is_stmt 0 view .LVU38
	ldrb	r2, [r5, #12]	@ zero_extendqisi2	@ MEM[(struct cipher_filter_context_t *)opaque_18(D)], MEM[(struct cipher_filter_context_t *)opaque_18(D)]
@ src/cipher.c:147:   printf("cipher_filter_cfb %d %d\n",control, cfx->wrote_header);
	.loc 1 147 3 view .LVU39
	mov	r1, r4	@, control
	ldr	r0, .L29+4	@,
@ src/cipher.c:145:   size_t size = *len;
	.loc 1 145 10 view .LVU40
	ldr	r3, [sp, #96]	@ tmp255, len
@ src/cipher.c:147:   printf("cipher_filter_cfb %d %d\n",control, cfx->wrote_header);
	.loc 1 147 3 view .LVU41
	and	r2, r2, #1	@, MEM[(struct cipher_filter_context_t *)opaque_18(D)],
.LPIC2:
	add	r0, pc, r0	@,
@ src/cipher.c:145:   size_t size = *len;
	.loc 1 145 10 view .LVU42
	ldr	r8, [r3]	@ size, *len_19(D)
.LVL15:
	.loc 1 146 3 is_stmt 1 view .LVU43
	.loc 1 147 3 view .LVU44
	bl	tfp_printf(PLT)	@
.LVL16:
	.loc 1 149 3 view .LVU45
@ src/cipher.c:149:   if (control == IOBUFCTRL_UNDERFLOW) /* decrypt */
	.loc 1 149 6 is_stmt 0 view .LVU46
	cmp	r4, #3	@ control,
	beq	.L19		@,
	.loc 1 154 8 is_stmt 1 view .LVU47
@ src/cipher.c:154:   else if (control == IOBUFCTRL_FLUSH) /* encrypt */
	.loc 1 154 11 is_stmt 0 view .LVU48
	cmp	r4, #4	@ control,
	beq	.L25		@,
	.loc 1 192 8 is_stmt 1 view .LVU49
@ src/cipher.c:192:   else if (control == IOBUFCTRL_FREE)
	.loc 1 192 11 is_stmt 0 view .LVU50
	cmp	r4, #2	@ control,
@ src/cipher.c:146:   int rc = 0;
	.loc 1 146 7 view .LVU51
	movne	r4, #0	@ <retval>,
.LVL17:
@ src/cipher.c:192:   else if (control == IOBUFCTRL_FREE)
	.loc 1 192 11 view .LVU52
	beq	.L26		@,
.LVL18:
.L13:
	.loc 1 228 5 is_stmt 1 view .LVU53
	.loc 1 229 5 view .LVU54
	ldr	r0, .L29+8	@,
	mov	r1, r4	@, <retval>
.LPIC13:
	add	r0, pc, r0	@,
	bl	tfp_printf(PLT)	@
.LVL19:
	.loc 1 231 3 view .LVU55
@ src/cipher.c:232: }
	.loc 1 232 1 is_stmt 0 view .LVU56
	mov	r0, r4	@, <retval>
	add	sp, sp, #68	@,,
	.cfi_remember_state
	.cfi_def_cfa_offset 28
	@ sp needed	@
	pop	{r4, r5, r6, r7, r8, r9, pc}	@
.LVL20:
.L25:
	.cfi_restore_state
	.loc 1 156 7 is_stmt 1 view .LVU57
	ldr	r0, .L29+12	@,
.LPIC3:
	add	r0, pc, r0	@,
	bl	tfp_printf(PLT)	@
.LVL21:
	.loc 1 158 7 view .LVU58
@ src/cipher.c:158:       if (!cfx->wrote_header){
	.loc 1 158 11 is_stmt 0 view .LVU59
	ldrb	r1, [r5, #12]	@ zero_extendqisi2	@ MEM[(struct cipher_filter_context_t *)opaque_18(D)], MEM[(struct cipher_filter_context_t *)opaque_18(D)]
@ src/cipher.c:158:       if (!cfx->wrote_header){
	.loc 1 158 10 view .LVU60
	ands	r4, r1, #1	@ tmp169, MEM[(struct cipher_filter_context_t *)opaque_18(D)],
.LVL22:
	.loc 1 158 10 view .LVU61
	beq	.L27		@,
.L15:
	.loc 1 168 7 is_stmt 1 view .LVU62
	ldr	r0, .L29+16	@,
	mov	r1, r8	@, size
.LPIC10:
	add	r0, pc, r0	@,
	bl	tfp_printf(PLT)	@
.LVL23:
	.loc 1 173 7 view .LVU63
	mov	r3, #0	@ tmp229,
	mov	r2, r8	@, size
	str	r3, [sp]	@ tmp229,
	mov	r1, r6	@, buf
	ldr	r0, [r5, #8]	@, MEM[(struct cipher_filter_context_t *)opaque_18(D)].cipher_hd
	bl	_gcry_cipher_encrypt(PLT)	@
.LVL24:
	.loc 1 174 7 view .LVU64
@ src/cipher.c:174:       if (cfx->short_blklen_warn)
	.loc 1 174 11 is_stmt 0 view .LVU65
	ldrb	r3, [r5, #12]	@ zero_extendqisi2	@ MEM[(struct cipher_filter_context_t *)opaque_18(D)], MEM[(struct cipher_filter_context_t *)opaque_18(D)]
@ src/cipher.c:176:           cfx->short_blklen_count += size;
	.loc 1 176 35 view .LVU66
	ldr	r1, [r5, #16]	@ MEM[(struct cipher_filter_context_t *)opaque_18(D)].short_blklen_count, MEM[(struct cipher_filter_context_t *)opaque_18(D)].short_blklen_count
@ src/cipher.c:188:       printf("short_blklen_count: %d\n", cfx->short_blklen_count);
	.loc 1 188 7 view .LVU67
	ldr	r0, .L29+20	@,
@ src/cipher.c:174:       if (cfx->short_blklen_warn)
	.loc 1 174 10 view .LVU68
	tst	r3, #2	@ MEM[(struct cipher_filter_context_t *)opaque_18(D)],
	.loc 1 176 11 is_stmt 1 view .LVU69
	.loc 1 188 7 view .LVU70
@ src/cipher.c:176:           cfx->short_blklen_count += size;
	.loc 1 176 35 is_stmt 0 view .LVU71
	addne	r1, r8, r1	@ _9, size, MEM[(struct cipher_filter_context_t *)opaque_18(D)].short_blklen_count
	strne	r1, [r5, #16]	@ _9, MEM[(struct cipher_filter_context_t *)opaque_18(D)].short_blklen_count
@ src/cipher.c:188:       printf("short_blklen_count: %d\n", cfx->short_blklen_count);
	.loc 1 188 7 view .LVU72
.LPIC11:
	add	r0, pc, r0	@,
	bl	tfp_printf(PLT)	@
.LVL25:
	.loc 1 190 7 is_stmt 1 view .LVU73
@ src/cipher.c:190:       rc = iobuf_write (chain, buf, size);
	.loc 1 190 12 is_stmt 0 view .LVU74
	mov	r2, r8	@, size
	mov	r1, r6	@, buf
	mov	r0, r7	@, chain
	bl	iobuf_write(PLT)	@
.LVL26:
	mov	r4, r0	@ <retval>, tmp249
.LVL27:
	.loc 1 190 12 view .LVU75
	b	.L13		@
.LVL28:
.L27:
	.loc 1 160 1 is_stmt 1 view .LVU76
.LBB5:
.LBI5:
	.loc 1 10 1 view .LVU77
.LBB6:
	.loc 1 12 3 view .LVU78
	ldr	r0, .L29+24	@,
@ src/cipher.c:25:   memset (&ed, 0, sizeof ed);
	.loc 1 25 3 is_stmt 0 view .LVU79
	add	r9, sp, #44	@ tmp172,,
@ src/cipher.c:12:   printf ("write_cfb_header\n");
	.loc 1 12 3 view .LVU80
.LPIC4:
	add	r0, pc, r0	@,
	bl	tfp_printf(PLT)	@
.LVL29:
	.loc 1 13 3 is_stmt 1 view .LVU81
	.loc 1 14 3 view .LVU82
	.loc 1 15 3 view .LVU83
	.loc 1 16 3 view .LVU84
	.loc 1 17 3 view .LVU85
	.loc 1 18 3 view .LVU86
	.loc 1 20 3 view .LVU87
	.loc 1 22 3 view .LVU88
	.loc 1 25 3 view .LVU89
	mov	r2, #20	@,
	mov	r1, r4	@, tmp169
	mov	r0, r9	@, tmp172
	bl	memset(PLT)	@
.LVL30:
	.loc 1 26 3 view .LVU90
@ src/cipher.c:26:   ed.len = cfx->datalen;
	.loc 1 26 15 is_stmt 0 view .LVU91
	ldr	r3, [r5, #4]	@ _36, MEM[(struct cipher_filter_context_t *)opaque_18(D)].datalen
@ src/cipher.c:47:   printf("use_mdc %d\n", cfx->dek->use_mdc);
	.loc 1 47 3 view .LVU92
	ldr	r0, .L29+28	@,
@ src/cipher.c:26:   ed.len = cfx->datalen;
	.loc 1 26 10 view .LVU93
	str	r3, [sp, #44]	@ _36, ed.len
	.loc 1 27 3 is_stmt 1 view .LVU94
@ src/cipher.c:28:   ed.new_ctb = !ed.len;
	.loc 1 28 16 is_stmt 0 view .LVU95
	clz	r3, r3	@ tmp174, _36
@ src/cipher.c:47:   printf("use_mdc %d\n", cfx->dek->use_mdc);
	.loc 1 47 3 view .LVU96
.LPIC5:
	add	r0, pc, r0	@,
@ src/cipher.c:28:   ed.new_ctb = !ed.len;
	.loc 1 28 16 view .LVU97
	lsr	r3, r3, #5	@ tmp174, tmp174,
	strb	r3, [sp, #52]	@ tmp174, ed.new_ctb
@ src/cipher.c:47:   printf("use_mdc %d\n", cfx->dek->use_mdc);
	.loc 1 47 34 view .LVU98
	ldr	r3, [r5]	@ MEM[(struct cipher_filter_context_t *)opaque_18(D)].dek, MEM[(struct cipher_filter_context_t *)opaque_18(D)].dek
@ src/cipher.c:46:   init_packet (&pkt);
	.loc 1 46 3 view .LVU99
	strb	r4, [sp, #8]	@ tmp169, pkt.pkttype
@ src/cipher.c:47:   printf("use_mdc %d\n", cfx->dek->use_mdc);
	.loc 1 47 34 view .LVU100
	ldrb	r1, [r3, #8]	@ zero_extendqisi2	@ *_39, *_39
@ src/cipher.c:27:   ed.extralen = blocksize + 2;
	.loc 1 27 15 view .LVU101
	mov	r3, #10	@ tmp173,
	str	r3, [sp, #48]	@ tmp173, ed.extralen
	.loc 1 28 3 is_stmt 1 view .LVU102
	.loc 1 46 3 view .LVU103
	.loc 1 46 3 view .LVU104
	.loc 1 46 3 view .LVU105
	.loc 1 46 3 view .LVU106
	.loc 1 47 3 view .LVU107
	ubfx	r1, r1, #5, #1	@, *_39,,
@ src/cipher.c:46:   init_packet (&pkt);
	.loc 1 46 3 is_stmt 0 view .LVU108
	str	r4, [sp, #12]	@ tmp169, pkt.pkt.generic
@ src/cipher.c:47:   printf("use_mdc %d\n", cfx->dek->use_mdc);
	.loc 1 47 3 view .LVU109
	bl	tfp_printf(PLT)	@
.LVL31:
	.loc 1 48 3 is_stmt 1 view .LVU110
@ src/cipher.c:50:   pkt.pkt.encrypted = &ed;
	.loc 1 50 21 is_stmt 0 view .LVU111
	str	r9, [sp, #12]	@ tmp172, pkt.pkt.encrypted
@ src/cipher.c:48:   pkt.pkttype = //cfx->dek->use_mdc? PKT_ENCRYPTED_MDC :
	.loc 1 48 15 view .LVU112
	mov	r3, #9	@ tmp187,
	strb	r3, [sp, #8]	@ tmp187, pkt.pkttype
	.loc 1 50 3 is_stmt 1 view .LVU113
	.loc 1 51 3 view .LVU114
@ src/cipher.c:51:   if (build_packet( a, &pkt))
	.loc 1 51 7 is_stmt 0 view .LVU115
	add	r1, sp, #8	@,,
	mov	r0, r7	@, chain
	bl	build_packet(PLT)	@
.LVL32:
@ src/cipher.c:51:   if (build_packet( a, &pkt))
	.loc 1 51 6 view .LVU116
	cmp	r0, #0	@ tmp248,
	bne	.L28		@,
.L16:
	.loc 1 53 3 is_stmt 1 view .LVU117
.LVL33:
	.loc 1 55 3 view .LVU118
	ldr	r0, .L29+32	@,
	mov	r1, #8	@,
@ src/cipher.c:57: memcpy(temp, fixed_random, nprefix);
	.loc 1 57 1 is_stmt 0 view .LVU119
	add	r4, sp, #24	@ tmp200,,
@ src/cipher.c:55:   printf("Fixing random %d bytes\n", nprefix);
	.loc 1 55 3 view .LVU120
.LPIC7:
	add	r0, pc, r0	@,
	bl	tfp_printf(PLT)	@
.LVL34:
	.loc 1 56 3 is_stmt 1 view .LVU121
@ src/cipher.c:56:   const unsigned char fixed_random[] = {0x01, 0x23, 0x45, 0x67, 0x89, 0xAB, 0xCD, 0xEF}; // Example fixed bytes
	.loc 1 56 23 is_stmt 0 view .LVU122
	ldr	r3, .L29+36	@ tmp196,
@ src/cipher.c:57: memcpy(temp, fixed_random, nprefix);
	.loc 1 57 1 view .LVU123
	mov	r2, #8	@,
@ src/cipher.c:56:   const unsigned char fixed_random[] = {0x01, 0x23, 0x45, 0x67, 0x89, 0xAB, 0xCD, 0xEF}; // Example fixed bytes
	.loc 1 56 23 view .LVU124
.LPIC8:
	add	r3, pc, r3	@ tmp196, tmp196
	ldm	r3, {r0, r1}	@ tmp196,,
	add	r3, sp, #16	@ tmp197,,
	stm	r3, {r0, r1}	@ tmp197,,
	.loc 1 57 1 is_stmt 1 view .LVU125
	mov	r1, r3	@, tmp197
	mov	r0, r4	@, tmp200
	bl	memcpy(PLT)	@
.LVL35:
	.loc 1 58 3 view .LVU126
@ src/cipher.c:58:   temp[nprefix] = temp[nprefix-2];
	.loc 1 58 17 is_stmt 0 view .LVU127
	ldrb	r2, [sp, #30]	@ zero_extendqisi2	@ temp[6], temp[6]
@ src/cipher.c:75:   _gcry_cipher_setkey (cfx->cipher_hd, cfx->dek->key, cfx->dek->keylen);
	.loc 1 75 43 view .LVU128
	ldr	r3, [r5]	@ _46, MEM[(struct cipher_filter_context_t *)opaque_18(D)].dek
@ src/cipher.c:58:   temp[nprefix] = temp[nprefix-2];
	.loc 1 58 17 view .LVU129
	strb	r2, [sp, #32]	@ temp[6], temp[8]
	.loc 1 59 3 is_stmt 1 view .LVU130
@ src/cipher.c:59:   temp[nprefix+1] = temp[nprefix-1];
	.loc 1 59 19 is_stmt 0 view .LVU131
	ldrb	r2, [sp, #31]	@ zero_extendqisi2	@ temp[7], temp[7]
@ src/cipher.c:75:   _gcry_cipher_setkey (cfx->cipher_hd, cfx->dek->key, cfx->dek->keylen);
	.loc 1 75 3 view .LVU132
	add	r1, r3, #9	@, _46,
	ldr	r0, [r5, #8]	@, MEM[(struct cipher_filter_context_t *)opaque_18(D)].cipher_hd
@ src/cipher.c:59:   temp[nprefix+1] = temp[nprefix-1];
	.loc 1 59 19 view .LVU133
	strb	r2, [sp, #33]	@ temp[7], temp[9]
	.loc 1 75 3 is_stmt 1 view .LVU134
	ldr	r2, [r3, #4]	@, _46->keylen
	bl	_gcry_cipher_setkey(PLT)	@
.LVL36:
	.loc 1 76 3 view .LVU135
	ldr	r0, [r5, #8]	@ MEM[(struct cipher_filter_context_t *)opaque_18(D)].cipher_hd, MEM[(struct cipher_filter_context_t *)opaque_18(D)].cipher_hd
	mov	r1, #16	@,
	add	r0, r0, #48	@, MEM[(struct cipher_filter_context_t *)opaque_18(D)].cipher_hd,
	bl	log_hexdump(PLT)	@
.LVL37:
	.loc 1 78 3 view .LVU136
	ldr	r0, [r5, #8]	@, MEM[(struct cipher_filter_context_t *)opaque_18(D)].cipher_hd
	mov	r2, #8	@,
	mov	r1, #0	@,
	bl	_gcry_cipher_setiv(PLT)	@
.LVL38:
	.loc 1 80 3 view .LVU137
	ldr	r0, [r5, #8]	@, MEM[(struct cipher_filter_context_t *)opaque_18(D)].cipher_hd
	mov	r1, #8	@,
	bl	log_hexdump(PLT)	@
.LVL39:
	.loc 1 86 7 view .LVU138
	ldr	r0, .L29+40	@,
	mov	r1, #10	@,
.LPIC9:
	add	r0, pc, r0	@,
	bl	tfp_printf(PLT)	@
.LVL40:
	.loc 1 88 3 view .LVU139
	mov	r3, #0	@ tmp216,
	mov	r2, #10	@,
	str	r3, [sp]	@ tmp216,
	mov	r1, r4	@, tmp200
	ldr	r0, [r5, #8]	@, MEM[(struct cipher_filter_context_t *)opaque_18(D)].cipher_hd
	bl	_gcry_cipher_encrypt(PLT)	@
.LVL41:
	.loc 1 93 3 view .LVU140
	ldr	r0, [r5, #8]	@, MEM[(struct cipher_filter_context_t *)opaque_18(D)].cipher_hd
	bl	cipher_sync(PLT)	@
.LVL42:
	.loc 1 94 3 view .LVU141
	mov	r1, r4	@, tmp200
	mov	r2, #10	@,
	mov	r0, r7	@, chain
	bl	iobuf_write(PLT)	@
.LVL43:
	.loc 1 98 3 view .LVU142
	.loc 1 100 3 view .LVU143
@ src/cipher.c:100:   cfx->short_blklen_count = nprefix+2;
	.loc 1 100 27 is_stmt 0 view .LVU144
	mov	r3, #10	@ tmp219,
	str	r3, [r5, #16]	@ tmp219, MEM[(struct cipher_filter_context_t *)opaque_18(D)].short_blklen_count
	.loc 1 103 3 is_stmt 1 view .LVU145
@ src/cipher.c:103:   cfx->wrote_header = 1;
	.loc 1 103 21 is_stmt 0 view .LVU146
	ldrb	r3, [r5, #12]	@ zero_extendqisi2	@ MEM <unsigned char> [(struct cipher_filter_context_t *)opaque_18(D) + 12B], MEM <unsigned char> [(struct cipher_filter_context_t *)opaque_18(D) + 12B]
	bic	r3, r3, #3	@ tmp222, MEM <unsigned char> [(struct cipher_filter_context_t *)opaque_18(D) + 12B],
	orr	r3, r3, #3	@ tmp224, tmp222,
	strb	r3, [r5, #12]	@ tmp224, MEM <unsigned char> [(struct cipher_filter_context_t *)opaque_18(D) + 12B]
@ src/cipher.c:104: }
	.loc 1 104 1 view .LVU147
	b	.L15		@
.LVL44:
.L26:
	.loc 1 104 1 view .LVU148
.LBE6:
.LBE5:
	.loc 1 194 7 is_stmt 1 view .LVU149
	ldr	r0, .L29+44	@,
@ src/cipher.c:146:   int rc = 0;
	.loc 1 146 7 is_stmt 0 view .LVU150
	mov	r4, #0	@ <retval>,
@ src/cipher.c:194:       printf("IOBUFCTRL_FREE\n");
	.loc 1 194 7 view .LVU151
.LPIC12:
	add	r0, pc, r0	@,
	bl	tfp_printf(PLT)	@
.LVL45:
	.loc 1 222 7 is_stmt 1 view .LVU152
	ldr	r0, [r5, #8]	@, MEM[(struct cipher_filter_context_t *)opaque_18(D)].cipher_hd
	bl	_gcry_cipher_close(PLT)	@
.LVL46:
	b	.L13		@
.LVL47:
.L28:
.LBB8:
.LBB7:
	.loc 1 52 5 view .LVU153
	ldr	r0, .L29+48	@,
.LPIC6:
	add	r0, pc, r0	@,
	bl	tfp_printf(PLT)	@
.LVL48:
	b	.L16		@
.LVL49:
.L19:
	.loc 1 52 5 is_stmt 0 view .LVU154
.LBE7:
.LBE8:
@ src/cipher.c:152:       rc = -1; /* not used */
	.loc 1 152 10 view .LVU155
	mvn	r4, #0	@ <retval>,
.LVL50:
	.loc 1 152 10 view .LVU156
	b	.L13		@
.L30:
	.align	2
.L29:
	.word	.LC1-(.LPIC1+8)
	.word	.LC2-(.LPIC2+8)
	.word	.LC13-(.LPIC13+8)
	.word	.LC3-(.LPIC3+8)
	.word	.LC10-(.LPIC10+8)
	.word	.LC11-(.LPIC11+8)
	.word	.LC4-(.LPIC4+8)
	.word	.LC5-(.LPIC5+8)
	.word	.LC7-(.LPIC7+8)
	.word	.LC8-(.LPIC8+8)
	.word	.LC9-(.LPIC9+8)
	.word	.LC12-(.LPIC12+8)
	.word	.LC6-(.LPIC6+8)
	.cfi_endproc
.LFE21:
	.size	cipher_filter_cfb, .-cipher_filter_cfb
	.text
.Letext0:
	.file 2 "/usr/lib/gcc/arm-none-eabi/10.3.1/include/stddef.h"
	.file 3 "/usr/lib/gcc/arm-none-eabi/10.3.1/include/stdint.h"
	.file 4 "/usr/include/newlib/sys/_types.h"
	.file 5 "/usr/include/newlib/sys/types.h"
	.file 6 "src/common/../common/types.h"
	.file 7 "src/common/iobuf.h"
	.file 8 "src/dek.h"
	.file 9 "src/filter.h"
	.file 10 "src/libgcrypt.h"
	.file 11 "src/gcrypt.h"
	.file 12 "src/common/openpgpdefs.h"
	.file 13 "src/packet.h"
	.file 14 "src/printf.h"
	.file 15 "/usr/include/newlib/string.h"