	.cpu cortex-a7
	.eabi_attribute 20, 1	@ Tag_ABI_FP_denormal
	.eabi_attribute 21, 1	@ Tag_ABI_FP_exceptions
	.eabi_attribute 23, 3	@ Tag_ABI_FP_number_model
	.eabi_attribute 24, 1	@ Tag_ABI_align8_needed
	.eabi_attribute 25, 1	@ Tag_ABI_align8_preserved
	.eabi_attribute 26, 1	@ Tag_ABI_enum_size
	.eabi_attribute 30, 2	@ Tag_ABI_optimization_goals
	.eabi_attribute 34, 1	@ Tag_CPU_unaligned_access
	.eabi_attribute 18, 4	@ Tag_ABI_PCS_wchar_t
	.file	"decrypt-data.c"
@ GNU C17 (15:10.3-2021.07-4) version 10.3.1 20210621 (release) (arm-none-eabi)
@	compiled by GNU C version 11.2.0, GMP version 6.2.1, MPFR version 4.1.0, MPC version 1.2.1, isl version isl-0.24-GMP

@ GGC heuristics: --param ggc-min-expand=100 --param ggc-min-heapsize=131072
@ options passed:  -I src -I src/common -imultilib thumb/v7-a/nofp
@ -D__USES_INITFINI__ src/decrypt-data.c -mcpu=cortex-a7 -mfloat-abi=soft
@ -marm -mlibarch=armv7ve -march=armv7ve
@ -auxbase-strip build/asm_output/decrypt-data.s -g -O2 -Wall -Wextra -fpic
@ -ffreestanding -ffunction-sections -fdata-sections -fno-common
@ -fverbose-asm
@ options enabled:  -faggressive-loop-optimizations -falign-functions
@ -falign-jumps -falign-labels -falign-loops -fallocation-dce
@ -fauto-inc-dec -fbranch-count-reg -fcaller-saves
@ -fcombine-stack-adjustments -fcompare-elim -fcprop-registers
@ -fcrossjumping -fcse-follow-jumps -fdata-sections -fdefer-pop
@ -fdelete-null-pointer-checks -fdevirtualize -fdevirtualize-speculatively
@ -fdwarf2-cfi-asm -fearly-inlining -feliminate-unused-debug-symbols
@ -feliminate-unused-debug-types -fexpensive-optimizations
@ -fforward-propagate -ffp-int-builtin-inexact -ffunction-cse
@ -ffunction-sections -fgcse -fgcse-lm -fgnu-unique
@ -fguess-branch-probability -fhoist-adjacent-loads -fident -fif-conversion
@ -fif-conversion2 -findirect-inlining -finline -finline-atomics
@ -finline-functions -finline-functions-called-once
@ -finline-small-functions -fipa-bit-cp -fipa-cp -fipa-icf
@ -fipa-icf-functions -fipa-icf-variables -fipa-profile -fipa-pure-const
@ -fipa-ra -fipa-reference -fipa-reference-addressable -fipa-sra
@ -fipa-stack-alignment -fipa-vrp -fira-hoist-pressure
@ -fira-share-save-slots -fira-share-spill-slots
@ -fisolate-erroneous-paths-dereference -fivopts -fkeep-static-consts
@ -fleading-underscore -flifetime-dse -flra-remat -fmath-errno
@ -fmerge-constants -fmerge-debug-strings -fmove-loop-invariants
@ -fomit-frame-pointer -foptimize-sibling-calls -foptimize-strlen
@ -fpartial-inlining -fpeephole -fpeephole2 -fpic -fplt
@ -fprefetch-loop-arrays -freg-struct-return -freorder-blocks
@ -freorder-functions -frerun-cse-after-loop
@ -fsched-critical-path-heuristic -fsched-dep-count-heuristic
@ -fsched-group-heuristic -fsched-interblock -fsched-last-insn-heuristic
@ -fsched-pressure -fsched-rank-heuristic -fsched-spec
@ -fsched-spec-insn-heuristic -fsched-stalled-insns-dep -fschedule-insns
@ -fschedule-insns2 -fsection-anchors -fsemantic-interposition
@ -fshow-column -fshrink-wrap -fshrink-wrap-separate -fsigned-zeros
@ -fsplit-ivs-in-unroller -fsplit-wide-types -fssa-backprop -fssa-phiopt
@ -fstdarg-opt -fstore-merging -fstrict-aliasing
@ -fstrict-volatile-bitfields -fsync-libcalls -fthread-jumps
@ -ftoplevel-reorder -ftrapping-math -ftree-bit-ccp -ftree-builtin-call-dce
@ -ftree-ccp -ftree-ch -ftree-coalesce-vars -ftree-copy-prop -ftree-cselim
@ -ftree-dce -ftree-dominator-opts -ftree-dse -ftree-forwprop -ftree-fre
@ -ftree-loop-if-convert -ftree-loop-im -ftree-loop-ivcanon
@ -ftree-loop-optimize -ftree-parallelize-loops= -ftree-phiprop -ftree-pre
@ -ftree-pta -ftree-reassoc -ftree-scev-cprop -ftree-sink -ftree-slsr
@ -ftree-sra -ftree-switch-conversion -ftree-tail-merge -ftree-ter
@ -ftree-vrp -funit-at-a-time -fvar-tracking -fvar-tracking-assignments
@ -fverbose-asm -fzero-initialized-in-bss -marm -mbe32 -mlittle-endian
@ -mpic-data-is-text-relative -msched-prolog -munaligned-access
@ -mvectorize-with-neon-quad -mword-relocations

	.text
.Ltext0:
	.cfi_sections	.debug_frame
	.section	.text.release_dfx_context,"ax",%progbits
	.align	2
	.arch armv7ve
	.syntax unified
	.arm
	.fpu softvfp
	.type	release_dfx_context, %function
release_dfx_context:
.LVL0:
.LFB19:
	.file 1 "src/decrypt-data.c"
	.loc 1 107 1 view -0
	.cfi_startproc
	@ args = 0, pretend = 0, frame = 0
	@ frame_needed = 0, uses_anonymous_args = 0
	.loc 1 108 3 view .LVU1
@ src/decrypt-data.c:107: {
	.loc 1 107 1 is_stmt 0 view .LVU2
	push	{r4, r5, r6, lr}	@
	.cfi_def_cfa_offset 16
	.cfi_offset 4, -16
	.cfi_offset 5, -12
	.cfi_offset 6, -8
	.cfi_offset 14, -4
@ src/decrypt-data.c:108:   if (!dfx)
	.loc 1 108 6 view .LVU3
	subs	r4, r0, #0	@ dfx, tmp126
	popeq	{r4, r5, r6, pc}	@
	.loc 1 111 3 is_stmt 1 view .LVU4
	ldr	r0, [r4]	@, dfx_6(D)->refcount
.LVL1:
	.loc 1 111 3 is_stmt 0 view .LVU5
	bl	tfp_printf(PLT)	@
.LVL2:
	.loc 1 112 3 is_stmt 1 view .LVU6
@ src/decrypt-data.c:112:   if (!--dfx->refcount)
	.loc 1 112 8 is_stmt 0 view .LVU7
	ldr	r5, [r4]	@ dfx_6(D)->refcount, dfx_6(D)->refcount
	sub	r5, r5, #1	@ _4, dfx_6(D)->refcount,
@ src/decrypt-data.c:112:   if (!--dfx->refcount)
	.loc 1 112 6 view .LVU8
	str	r5, [r4]	@ _4, dfx_6(D)->refcount
	cmp	r5, #0	@ _4,
	popne	{r4, r5, r6, pc}	@
.LVL3:
.LBB41:
.LBI41:
	.loc 1 106 1 is_stmt 1 view .LVU9
.LBB42:
	.loc 1 115 5 view .LVU10
	ldr	r0, [r4, #4]	@, dfx_6(D)->cipher_hd
	bl	xfree(PLT)	@
.LVL4:
	.loc 1 116 5 view .LVU11
@ src/decrypt-data.c:118:     xfree(dfx->mdc_hash);
	.loc 1 118 5 is_stmt 0 view .LVU12
	ldr	r0, [r4, #8]	@, dfx_6(D)->mdc_hash
@ src/decrypt-data.c:116:     dfx->cipher_hd = NULL;
	.loc 1 116 20 view .LVU13
	str	r5, [r4, #4]	@ _4, dfx_6(D)->cipher_hd
	.loc 1 118 5 is_stmt 1 view .LVU14
	bl	xfree(PLT)	@
.LVL5:
	.loc 1 119 5 view .LVU15
@ src/decrypt-data.c:119:     dfx->mdc_hash = NULL;
	.loc 1 119 19 is_stmt 0 view .LVU16
	str	r5, [r4, #8]	@ _4, dfx_6(D)->mdc_hash
	.loc 1 120 5 is_stmt 1 view .LVU17
	mov	r0, r4	@, dfx
.LBE42:
.LBE41:
@ src/decrypt-data.c:122: }
	.loc 1 122 1 is_stmt 0 view .LVU18
	pop	{r4, r5, r6, lr}	@
	.cfi_restore 14
	.cfi_restore 6
	.cfi_restore 5
	.cfi_restore 4
	.cfi_def_cfa_offset 0
.LVL6:
.LBB44:
.LBB43:
@ src/decrypt-data.c:120:     xfree(dfx);
	.loc 1 120 5 view .LVU19
	b	xfree(PLT)	@
.LVL7:
	.loc 1 120 5 view .LVU20
.LBE43:
.LBE44:
	.cfi_endproc
.LFE19:
	.size	release_dfx_context, .-release_dfx_context
	.section	.rodata.decode_filter.str1.4,"aMS",%progbits,1
	.align	2
.LC0:
	.ascii	"decode_filter control %d, ret_len=%d len=%d\012\000"
	.align	2
.LC1:
	.ascii	"IOBUFCTRL_UNDERFLOW && fc->eof_seen\012\000"
	.align	2
.LC2:
	.ascii	"control == IOBUFCTRL_UNDERFLOW\012\000"
	.align	2
.LC3:
	.ascii	"fill_buffer\012\000"
	.align	2
.LC4:
	.ascii	"dfx->partial nread=%zu nbytes=%zu\012\000"
	.align	2
.LC5:
	.ascii	"cipher_hd is allocated\012\000"
	.section	.text.decode_filter,"ax",%progbits
	.align	2
	.syntax unified
	.arm
	.fpu softvfp
	.type	decode_filter, %function
decode_filter:
.LVL8:
.LFB22:
	.loc 1 1043 1 is_stmt 1 view -0
	.cfi_startproc
	@ args = 4, pretend = 0, frame = 0
	@ frame_needed = 0, uses_anonymous_args = 0
	.loc 1 1044 5 view .LVU22
@ src/decrypt-data.c:1043: {
	.loc 1 1043 1 is_stmt 0 view .LVU23
	push	{r4, r5, r6, r7, r8, r9, r10, lr}	@
	.cfi_def_cfa_offset 32
	.cfi_offset 4, -32
	.cfi_offset 5, -28
	.cfi_offset 6, -24
	.cfi_offset 7, -20
	.cfi_offset 8, -16
	.cfi_offset 9, -12
	.cfi_offset 10, -8
	.cfi_offset 14, -4
	sub	sp, sp, #8	@,,
	.cfi_def_cfa_offset 40
@ src/decrypt-data.c:1043: {
	.loc 1 1043 1 view .LVU24
	mov	r5, r0	@ tmp192, opaque
	mov	r4, r1	@ control, tmp193
	ldr	r9, [sp, #40]	@ ret_len, ret_len
	mov	r7, r2	@ tmp194, a
@ src/decrypt-data.c:1046:   printf("decode_filter control %d, ret_len=%d len=%d\n",control,*ret_len, fc->length);
	.loc 1 1046 3 view .LVU25
	ldr	r0, .L38	@,
.LVL9:
@ src/decrypt-data.c:1043: {
	.loc 1 1043 1 view .LVU26
	mov	r6, r3	@ tmp195, buf
@ src/decrypt-data.c:1046:   printf("decode_filter control %d, ret_len=%d len=%d\n",control,*ret_len, fc->length);
	.loc 1 1046 3 view .LVU27
	ldr	r2, [r9]	@, *ret_len_16(D)
.LVL10:
	.loc 1 1046 3 view .LVU28
.LPIC0:
	add	r0, pc, r0	@,
.LVL11:
	.loc 1 1046 3 is_stmt 1 view .LVU29
	ldr	r3, [r5, #120]	@, MEM[(struct decode_filter_context_s *)opaque_14(D)].length
.LVL12:
	.loc 1 1046 3 is_stmt 0 view .LVU30
	bl	tfp_printf(PLT)	@
.LVL13:
	.loc 1 1047 3 is_stmt 1 view .LVU31
	.loc 1 1049 3 view .LVU32
	.loc 1 1050 3 view .LVU33
	.loc 1 1052 3 view .LVU34
@ src/decrypt-data.c:1052:   if (control == IOBUFCTRL_UNDERFLOW && fc->eof_seen)
	.loc 1 1052 6 is_stmt 0 view .LVU35
	cmp	r4, #3	@ control,
	beq	.L34		@,
	.loc 1 1058 8 is_stmt 1 view .LVU36
	.loc 1 1079 8 view .LVU37
@ src/decrypt-data.c:1079:   else if (control == IOBUFCTRL_FREE)
	.loc 1 1079 11 is_stmt 0 view .LVU38
	cmp	r4, #2	@ control,
@ src/decrypt-data.c:1050:   int rc = 0;
	.loc 1 1050 7 view .LVU39
	movne	r0, #0	@ <retval>,
@ src/decrypt-data.c:1079:   else if (control == IOBUFCTRL_FREE)
	.loc 1 1079 11 view .LVU40
	beq	.L35		@,
.LVL14:
.L7:
@ src/decrypt-data.c:1088: }
	.loc 1 1088 1 view .LVU41
	add	sp, sp, #8	@,,
	.cfi_remember_state
	.cfi_def_cfa_offset 32
	@ sp needed	@
	pop	{r4, r5, r6, r7, r8, r9, r10, pc}	@
.LVL15:
.L34:
	.cfi_restore_state
@ src/decrypt-data.c:1052:   if (control == IOBUFCTRL_UNDERFLOW && fc->eof_seen)
	.loc 1 1052 38 discriminator 1 view .LVU42
	ldrb	r4, [r5, #80]	@ zero_extendqisi2	@ MEM[(struct decode_filter_context_s *)opaque_14(D)], MEM[(struct decode_filter_context_s *)opaque_14(D)]
.LVL16:
	.loc 1 1052 38 discriminator 1 view .LVU43
	ands	r10, r4, #6	@ tmp149, MEM[(struct decode_filter_context_s *)opaque_14(D)],
	bne	.L36		@,
@ src/decrypt-data.c:1060:     printf("control == IOBUFCTRL_UNDERFLOW\n");
	.loc 1 1060 5 view .LVU44
	ldr	r0, .L38+4	@,
@ src/decrypt-data.c:1047:   size_t size = *ret_len;
	.loc 1 1047 10 view .LVU45
	ldr	r8, [r9]	@ size, *ret_len_16(D)
	.loc 1 1058 8 is_stmt 1 view .LVU46
	.loc 1 1060 5 view .LVU47
.LPIC2:
	add	r0, pc, r0	@,
	bl	tfp_printf(PLT)	@
.LVL17:
	.loc 1 1062 5 view .LVU48
.LBB48:
.LBI48:
	.loc 1 623 1 view .LVU49
.LBB49:
	.loc 1 626 3 view .LVU50
	ldr	r0, .L38+8	@,
.LPIC3:
	add	r0, pc, r0	@,
	bl	tfp_printf(PLT)	@
.LVL18:
	.loc 1 627 3 view .LVU51
	.loc 1 628 3 view .LVU52
	.loc 1 629 3 view .LVU53
	.loc 1 631 3 view .LVU54
@ src/decrypt-data.c:631:   if (dfx->partial)
	.loc 1 631 7 is_stmt 0 view .LVU55
	ldrb	r3, [r5, #80]	@ zero_extendqisi2	@ prephitmp_76, MEM[(struct decode_filter_context_s *)opaque_14(D)]
@ src/decrypt-data.c:631:   if (dfx->partial)
	.loc 1 631 6 view .LVU56
	ands	r4, r3, #1	@ tmp159, prephitmp_76,
	bne	.L11		@,
	.loc 1 650 11 is_stmt 1 view .LVU57
	cmp	r8, #0	@ size,
	beq	.L12		@,
@ src/decrypt-data.c:650:     while (nread < nbytes && dfx->length)
	.loc 1 650 33 is_stmt 0 view .LVU58
	ldr	ip, [r5, #120]	@ _49, MEM[(struct decode_filter_context_s *)opaque_14(D)].length
	b	.L13		@
.LVL19:
.L21:
@ src/decrypt-data.c:656:       ret = iobuf_read(stream, &buffer[nread], curr);
	.loc 1 656 13 view .LVU59
	cmp	r2, ip	@ curr, _49
	mov	r0, r7	@, a
	movcs	r2, ip	@, _49
.LVL20:
	.loc 1 656 13 view .LVU60
	bl	iobuf_read(PLT)	@
.LVL21:
	.loc 1 663 7 is_stmt 1 view .LVU61
	.loc 1 657 7 view .LVU62
@ src/decrypt-data.c:657:       if (ret == -1)
	.loc 1 657 10 is_stmt 0 view .LVU63
	cmn	r0, #1	@ ret,
	beq	.L37		@,
@ src/decrypt-data.c:664:       dfx->length -= ret;
	.loc 1 664 19 view .LVU64
	ldr	ip, [r5, #120]	@ MEM[(struct decode_filter_context_s *)opaque_14(D)].length, MEM[(struct decode_filter_context_s *)opaque_14(D)].length
@ src/decrypt-data.c:663:       nread += ret;
	.loc 1 663 13 view .LVU65
	add	r4, r4, r0	@ nread, nread, ret
.LVL22:
	.loc 1 664 7 is_stmt 1 view .LVU66
@ src/decrypt-data.c:650:     while (nread < nbytes && dfx->length)
	.loc 1 650 11 is_stmt 0 view .LVU67
	cmp	r8, r4	@ size, nread
@ src/decrypt-data.c:664:       dfx->length -= ret;
	.loc 1 664 19 view .LVU68
	sub	ip, ip, r0	@ _49, MEM[(struct decode_filter_context_s *)opaque_14(D)].length, ret
	str	ip, [r5, #120]	@ _49, MEM[(struct decode_filter_context_s *)opaque_14(D)].length
	.loc 1 650 11 is_stmt 1 view .LVU69
	bls	.L20		@,
.LVL23:
.L13:
	.loc 1 652 7 view .LVU70
@ src/decrypt-data.c:652:       curr = nbytes - nread;
	.loc 1 652 12 is_stmt 0 view .LVU71
	sub	r2, r8, r4	@ curr, size, nread
.LVL24:
	.loc 1 653 7 is_stmt 1 view .LVU72
	.loc 1 656 7 view .LVU73
@ src/decrypt-data.c:650:     while (nread < nbytes && dfx->length)
	.loc 1 650 27 is_stmt 0 view .LVU74
	cmp	ip, #0	@ _49,
@ src/decrypt-data.c:656:       ret = iobuf_read(stream, &buffer[nread], curr);
	.loc 1 656 13 view .LVU75
	add	r1, r6, r4	@, buf, nread
@ src/decrypt-data.c:650:     while (nread < nbytes && dfx->length)
	.loc 1 650 27 view .LVU76
	bne	.L21		@,
.LVL25:
.L22:
	.loc 1 667 7 is_stmt 1 view .LVU77
@ src/decrypt-data.c:667:       dfx->eof_seen = 1; /* Normal EOF.  */
	.loc 1 667 21 is_stmt 0 view .LVU78
	ldrb	r3, [r5, #80]	@ zero_extendqisi2	@, MEM[(struct decode_filter_context_s *)opaque_14(D)].eof_seen
	mov	r2, #1	@ tmp180,
	bfi	r3, r2, #1, #2	@ MEM[(struct decode_filter_context_s *)opaque_14(D)].eof_seen, tmp180,,
	strb	r3, [r5, #80]	@ MEM[(struct decode_filter_context_s *)opaque_14(D)].eof_seen, MEM[(struct decode_filter_context_s *)opaque_14(D)].eof_seen
.L17:
	.loc 1 670 3 is_stmt 1 view .LVU79
.LVL26:
	.loc 1 670 3 is_stmt 0 view .LVU80
.LBE49:
.LBE48:
	.loc 1 1063 5 is_stmt 1 view .LVU81
@ src/decrypt-data.c:1063:     if (n)
	.loc 1 1063 8 is_stmt 0 view .LVU82
	cmp	r4, #0	@ nread,
	bne	.L18		@,
.LVL27:
.L33:
@ src/decrypt-data.c:1073:       if (!fc->eof_seen)
	.loc 1 1073 11 view .LVU83
	ldrb	r3, [r5, #80]	@ zero_extendqisi2	@ prephitmp_76, MEM[(struct decode_filter_context_s *)opaque_14(D)]
.L14:
	.loc 1 1073 7 is_stmt 1 view .LVU84
	.loc 1 1074 9 view .LVU85
@ src/decrypt-data.c:1073:       if (!fc->eof_seen)
	.loc 1 1073 10 is_stmt 0 view .LVU86
	ands	r4, r3, #6	@ tmp186, prephitmp_76,
@ src/decrypt-data.c:1075:       rc = -1; /* Return EOF. */
	.loc 1 1075 10 view .LVU87
	mvn	r0, #0	@ <retval>,
@ src/decrypt-data.c:1074:         fc->eof_seen = 1;
	.loc 1 1074 22 view .LVU88
	moveq	r2, #1	@ tmp189,
	movne	r4, #0	@ nread,
	ldrbeq	r3, [r5, #80]	@ zero_extendqisi2	@, MEM[(struct decode_filter_context_s *)opaque_14(D)].eof_seen
	bfieq	r3, r2, #1, #2	@ MEM[(struct decode_filter_context_s *)opaque_14(D)].eof_seen, tmp189,,
	strbeq	r3, [r5, #80]	@ MEM[(struct decode_filter_context_s *)opaque_14(D)].eof_seen, MEM[(struct decode_filter_context_s *)opaque_14(D)].eof_seen
.LVL28:
.L24:
	.loc 1 1077 5 is_stmt 1 view .LVU89
@ src/decrypt-data.c:1077:     *ret_len = n;
	.loc 1 1077 14 is_stmt 0 view .LVU90
	str	r4, [r9]	@ nread, *ret_len_16(D)
@ src/decrypt-data.c:1088: }
	.loc 1 1088 1 view .LVU91
	add	sp, sp, #8	@,,
	.cfi_remember_state
	.cfi_def_cfa_offset 32
	@ sp needed	@
	pop	{r4, r5, r6, r7, r8, r9, r10, pc}	@
.LVL29:
.L11:
	.cfi_restore_state
.LBB52:
.LBB50:
	.loc 1 633 7 is_stmt 1 view .LVU92
	ldr	r0, .L38+12	@,
	mov	r2, r8	@, size
	mov	r1, r10	@, tmp149
.LPIC4:
	add	r0, pc, r0	@,
	bl	tfp_printf(PLT)	@
.LVL30:
	.loc 1 634 5 view .LVU93
	.loc 1 634 11 view .LVU94
	cmp	r8, #0	@ size,
@ src/decrypt-data.c:627:   size_t nread = offset;
	.loc 1 627 10 is_stmt 0 view .LVU95
	movne	r4, r10	@ nread, tmp149
@ src/decrypt-data.c:634:     while (nread < nbytes)
	.loc 1 634 11 view .LVU96
	bne	.L15		@,
	b	.L33		@
.LVL31:
.L16:
@ src/decrypt-data.c:645:       nread += ret;
	.loc 1 645 13 view .LVU97
	add	r4, r4, r0	@ nread, nread, ret
.LVL32:
	.loc 1 634 11 is_stmt 1 view .LVU98
	cmp	r8, r4	@ size, nread
	bls	.L18		@,
.LVL33:
.L15:
	.loc 1 636 7 view .LVU99
	.loc 1 638 7 view .LVU100
@ src/decrypt-data.c:638:       ret = iobuf_read(stream, &buffer[nread], curr);
	.loc 1 638 13 is_stmt 0 view .LVU101
	sub	r2, r8, r4	@, size, nread
.LVL34:
	.loc 1 638 13 view .LVU102
	mov	r0, r7	@, a
	add	r1, r6, r4	@, buf, nread
	bl	iobuf_read(PLT)	@
.LVL35:
	.loc 1 645 7 is_stmt 1 view .LVU103
	.loc 1 639 7 view .LVU104
@ src/decrypt-data.c:639:       if (ret == -1)
	.loc 1 639 10 is_stmt 0 view .LVU105
	cmn	r0, #1	@ ret,
	bne	.L16		@,
	b	.L22		@
.LVL36:
.L35:
	.loc 1 639 10 view .LVU106
.LBE50:
.LBE52:
	.loc 1 1081 5 is_stmt 1 view .LVU107
	mov	r0, r5	@, opaque
	bl	release_dfx_context(PLT)	@
.LVL37:
@ src/decrypt-data.c:1050:   int rc = 0;
	.loc 1 1050 7 is_stmt 0 view .LVU108
	mov	r0, #0	@ <retval>,
@ src/decrypt-data.c:1088: }
	.loc 1 1088 1 view .LVU109
	add	sp, sp, #8	@,,
	.cfi_remember_state
	.cfi_def_cfa_offset 32
	@ sp needed	@
	pop	{r4, r5, r6, r7, r8, r9, r10, pc}	@
.LVL38:
.L18:
	.cfi_restore_state
.LBB53:
	.loc 1 1065 7 is_stmt 1 view .LVU110
@ src/decrypt-data.c:1065:       if (fc->cipher_hd)
	.loc 1 1065 13 is_stmt 0 view .LVU111
	ldr	r0, [r5, #4]	@ _5, MEM[(struct decode_filter_context_s *)opaque_14(D)].cipher_hd
@ src/decrypt-data.c:1065:       if (fc->cipher_hd)
	.loc 1 1065 10 view .LVU112
	cmp	r0, #0	@ _5,
	beq	.L23		@,
	.loc 1 1066 11 is_stmt 1 view .LVU113
	ldr	r0, .L38+16	@,
.LPIC5:
	add	r0, pc, r0	@,
	bl	tfp_printf(PLT)	@
.LVL39:
@ src/decrypt-data.c:1067:         _gcry_cipher_decrypt (fc->cipher_hd, buf, n, NULL, 0);
	.loc 1 1067 9 is_stmt 0 view .LVU114
	ldr	r0, [r5, #4]	@ _5, MEM[(struct decode_filter_context_s *)opaque_14(D)].cipher_hd
.L23:
	.loc 1 1067 9 is_stmt 1 view .LVU115
	mov	r5, #0	@ tmp183,
.LVL40:
	.loc 1 1067 9 is_stmt 0 view .LVU116
	mov	r1, r6	@, buf
	str	r5, [sp]	@ tmp183,
	mov	r3, r5	@, tmp183
	mov	r2, r4	@, nread
	bl	_gcry_cipher_decrypt(PLT)	@
.LVL41:
.LBE53:
@ src/decrypt-data.c:1050:   int rc = 0;
	.loc 1 1050 7 view .LVU117
	mov	r0, r5	@ <retval>, tmp183
	b	.L24		@
.LVL42:
.L37:
.LBB54:
.LBB51:
	.loc 1 659 9 is_stmt 1 view .LVU118
@ src/decrypt-data.c:659:         dfx->eof_seen = 3; /* Premature EOF. */
	.loc 1 659 23 is_stmt 0 view .LVU119
	ldrb	r3, [r5, #80]	@ zero_extendqisi2	@ MEM[(struct decode_filter_context_s *)opaque_14(D)].eof_seen, MEM[(struct decode_filter_context_s *)opaque_14(D)].eof_seen
@ src/decrypt-data.c:666:     if (!dfx->length)
	.loc 1 666 13 view .LVU120
	ldr	ip, [r5, #120]	@ _49, MEM[(struct decode_filter_context_s *)opaque_14(D)].length
@ src/decrypt-data.c:659:         dfx->eof_seen = 3; /* Premature EOF. */
	.loc 1 659 23 view .LVU121
	orr	r3, r3, #6	@ tmp175, MEM[(struct decode_filter_context_s *)opaque_14(D)].eof_seen,
	strb	r3, [r5, #80]	@ tmp175, MEM[(struct decode_filter_context_s *)opaque_14(D)].eof_seen
	.loc 1 660 9 is_stmt 1 view .LVU122
.L20:
	.loc 1 666 5 view .LVU123
@ src/decrypt-data.c:666:     if (!dfx->length)
	.loc 1 666 8 is_stmt 0 view .LVU124
	cmp	ip, #0	@ _49,
	bne	.L17		@,
	b	.L22		@
.LVL43:
.L12:
	.loc 1 666 5 is_stmt 1 view .LVU125
@ src/decrypt-data.c:666:     if (!dfx->length)
	.loc 1 666 8 is_stmt 0 view .LVU126
	ldr	r2, [r5, #120]	@ MEM[(struct decode_filter_context_s *)opaque_14(D)].length, MEM[(struct decode_filter_context_s *)opaque_14(D)].length
	cmp	r2, #0	@ MEM[(struct decode_filter_context_s *)opaque_14(D)].length,
	.loc 1 667 7 is_stmt 1 view .LVU127
@ src/decrypt-data.c:667:       dfx->eof_seen = 1; /* Normal EOF.  */
	.loc 1 667 21 is_stmt 0 view .LVU128
	moveq	r2, #1	@ tmp163,
	bfieq	r3, r2, #1, #2	@ MEM[(struct decode_filter_context_s *)opaque_14(D)].eof_seen, tmp163,,
	strbeq	r3, [r5, #80]	@ MEM[(struct decode_filter_context_s *)opaque_14(D)].eof_seen, MEM[(struct decode_filter_context_s *)opaque_14(D)].eof_seen
	.loc 1 670 3 is_stmt 1 view .LVU129
.LVL44:
	.loc 1 670 3 is_stmt 0 view .LVU130
.LBE51:
.LBE54:
	.loc 1 1063 5 is_stmt 1 view .LVU131
@ src/decrypt-data.c:1073:       if (!fc->eof_seen)
	.loc 1 1073 11 is_stmt 0 view .LVU132
	uxtbeq	r3, r3	@ prephitmp_76, MEM[(struct decode_filter_context_s *)opaque_14(D)].eof_seen
	b	.L14		@
.LVL45:
.L36:
	.loc 1 1054 5 is_stmt 1 view .LVU133
	ldr	r0, .L38+20	@,
.LPIC1:
	add	r0, pc, r0	@,
	bl	tfp_printf(PLT)	@
.LVL46:
	.loc 1 1054 53 view .LVU134
	.loc 1 1055 5 view .LVU135
@ src/decrypt-data.c:1055:     *ret_len = 0;
	.loc 1 1055 14 is_stmt 0 view .LVU136
	mov	r3, #0	@ tmp152,
@ src/decrypt-data.c:1056:     rc = -1;
	.loc 1 1056 8 view .LVU137
	mvn	r0, #0	@ <retval>,
@ src/decrypt-data.c:1055:     *ret_len = 0;
	.loc 1 1055 14 view .LVU138
	str	r3, [r9]	@ tmp152, *ret_len_16(D)
	.loc 1 1056 5 is_stmt 1 view .LVU139
.LVL47:
@ src/decrypt-data.c:1056:     rc = -1;
	.loc 1 1056 8 is_stmt 0 view .LVU140
	b	.L7		@
.L39:
	.align	2
.L38:
	.word	.LC0-(.LPIC0+8)
	.word	.LC2-(.LPIC2+8)
	.word	.LC3-(.LPIC3+8)
	.word	.LC4-(.LPIC4+8)
	.word	.LC5-(.LPIC5+8)
	.word	.LC1-(.LPIC1+8)
	.cfi_endproc
.LFE22:
	.size	decode_filter, .-decode_filter
	.section	.rodata.decrypt_data.str1.4,"aMS",%progbits,1
	.align	2
.LC6:
	.ascii	"decrypt_data\012\000"
	.align	2
.LC7:
	.ascii	"decrypt_data %d\012\000"
	.align	2
.LC8:
	.ascii	"%d %d %d\000"
	.align	2
.LC9:
	.ascii	"problem handling encrypted packet\012\000"
	.align	2
.LC10:
	.ascii	"ed->len: %d\012\000"
	.align	2
.LC11:
	.ascii	"\012\012BAD KEY!\012\012\000"
	.align	2
.LC12:
	.ascii	"\012\012GOOD KEY!\012\012\000"
	.section	.text.decrypt_data,"ax",%progbits
	.align	2
	.global	decrypt_data
	.syntax unified
	.arm
	.fpu softvfp
	.type	decrypt_data, %function
decrypt_data:
.LVL48:
.LFB20:
	.loc 1 225 1 is_stmt 1 view -0
	.cfi_startproc
	@ args = 4, pretend = 0, frame = 40
	@ frame_needed = 0, uses_anonymous_args = 0
	.loc 1 226 3 view .LVU142
@ src/decrypt-data.c:225: {
	.loc 1 225 1 is_stmt 0 view .LVU143
	push	{r4, r5, r6, r7, r8, r9, r10, lr}	@
	.cfi_def_cfa_offset 32
	.cfi_offset 4, -32
	.cfi_offset 5, -28
	.cfi_offset 6, -24
	.cfi_offset 7, -20
	.cfi_offset 8, -16
	.cfi_offset 9, -12
	.cfi_offset 10, -8
	.cfi_offset 14, -4
	sub	sp, sp, #48	@,,
	.cfi_def_cfa_offset 80
@ src/decrypt-data.c:225: {
	.loc 1 225 1 view .LVU144
	mov	r7, r0	@ tmp278, ctrl
@ src/decrypt-data.c:262:   *compliance_error = 0;
	.loc 1 262 21 view .LVU145
	mov	r6, #0	@ tmp193,
@ src/decrypt-data.c:226:   printf("decrypt_data\n");
	.loc 1 226 3 view .LVU146
	ldr	r0, .L75	@,
.LVL49:
@ src/decrypt-data.c:225: {
	.loc 1 225 1 view .LVU147
	mov	r8, r1	@ procctx, tmp279
	ldr	r9, [sp, #80]	@ compliance_error, compliance_error
	mov	r4, r2	@ ed, tmp280
@ src/decrypt-data.c:226:   printf("decrypt_data\n");
	.loc 1 226 3 view .LVU148
.LPIC6:
	add	r0, pc, r0	@,
@ src/decrypt-data.c:225: {
	.loc 1 225 1 view .LVU149
	mov	r5, r3	@ dek, tmp281
@ src/decrypt-data.c:226:   printf("decrypt_data\n");
	.loc 1 226 3 view .LVU150
	bl	tfp_printf(PLT)	@
.LVL50:
	.loc 1 253 3 is_stmt 1 view .LVU151
	.loc 1 254 3 view .LVU152
	.loc 1 255 3 view .LVU153
	.loc 1 256 3 view .LVU154
	.loc 1 257 3 view .LVU155
	.loc 1 258 3 view .LVU156
	.loc 1 259 3 view .LVU157
	.loc 1 260 3 view .LVU158
	.loc 1 262 3 view .LVU159
@ src/decrypt-data.c:262:   *compliance_error = 0;
	.loc 1 262 21 is_stmt 0 view .LVU160
	str	r6, [r9]	@ tmp193, *compliance_error_84(D)
	.loc 1 265 3 is_stmt 1 view .LVU161
@ src/decrypt-data.c:265:   dfx = xtrycalloc(1, sizeof *dfx);
	.loc 1 265 9 is_stmt 0 view .LVU162
	mov	r1, #128	@,
	mov	r0, #1	@,
	bl	xtrycalloc(PLT)	@
.LVL51:
@ src/decrypt-data.c:266:   if (!dfx)
	.loc 1 266 6 view .LVU163
	cmp	r0, r6	@ _1,
@ src/decrypt-data.c:265:   dfx = xtrycalloc(1, sizeof *dfx);
	.loc 1 265 7 view .LVU164
	str	r0, [sp, #12]	@ _1, dfx
	.loc 1 266 3 is_stmt 1 view .LVU165
@ src/decrypt-data.c:266:   if (!dfx)
	.loc 1 266 6 is_stmt 0 view .LVU166
	beq	.L46		@,
	.loc 1 268 3 is_stmt 1 view .LVU167
@ src/decrypt-data.c:273:   printf("decrypt_data %d\n",dfx->length);
	.loc 1 273 3 is_stmt 0 view .LVU168
	ldr	r1, [r0, #120]	@, MEM[(struct decode_filter_context_s *)_1].length
@ src/decrypt-data.c:268:   dfx->refcount = 1;
	.loc 1 268 17 view .LVU169
	mov	r3, #1	@ tmp194,
	str	r3, [r0]	@ tmp194, MEM[(struct decode_filter_context_s *)_1].refcount
	.loc 1 273 3 is_stmt 1 view .LVU170
	ldr	r0, .L75+4	@,
.LPIC7:
	add	r0, pc, r0	@,
	bl	tfp_printf(PLT)	@
.LVL52:
	.loc 1 293 3 view .LVU171
	.loc 1 311 3 view .LVU172
	ldr	r1, .L75+8	@,
	mov	r0, #23	@,
	str	r6, [sp]	@ tmp193,
.LPIC8:
	add	r1, pc, r1	@,
	ldr	r3, [r5]	@, dek_91(D)->algo
	ldrb	r2, [r4, #10]	@ zero_extendqisi2	@, ed_90(D)->mdc_method
	bl	tfp_printf(PLT)	@
.LVL53:
	.loc 1 337 3 view .LVU173
	.loc 1 338 3 view .LVU174
	.loc 1 341 3 view .LVU175
@ src/decrypt-data.c:341:   if (ed->aead_algo)
	.loc 1 341 6 is_stmt 0 view .LVU176
	ldrb	r9, [r4, #11]	@ zero_extendqisi2	@ ed_90(D)->aead_algo, ed_90(D)->aead_algo
	cmp	r9, #0	@ ed_90(D)->aead_algo,
	bne	.L71		@,
.LBB55:
	.loc 1 422 5 is_stmt 1 view .LVU177
.LVL54:
	.loc 1 423 5 view .LVU178
@ src/decrypt-data.c:423:     if (ed->len && ed->len < (nprefix + 2))
	.loc 1 423 17 is_stmt 0 view .LVU179
	ldr	r3, [r4]	@ ed_90(D)->len, ed_90(D)->len
	sub	r3, r3, #1	@ tmp204, ed_90(D)->len,
	cmp	r3, #8	@ tmp204,
	bls	.L72		@,
	.loc 1 438 5 is_stmt 1 view .LVU180
	mov	r2, #4	@,
	mov	r1, r9	@, ed_90(D)->aead_algo
	add	r0, sp, #12	@,,
	bl	memset(PLT)	@
.LVL55:
	.loc 1 440 5 view .LVU181
@ src/decrypt-data.c:440:     dfx->cipher_hd = malloc(sizeof(struct gcry_cipher_handle));
	.loc 1 440 8 is_stmt 0 view .LVU182
	ldr	r6, [sp, #12]	@ dfx.22_8, dfx
@ src/decrypt-data.c:440:     dfx->cipher_hd = malloc(sizeof(struct gcry_cipher_handle));
	.loc 1 440 22 view .LVU183
	mov	r0, #64	@,
	bl	malloc(PLT)	@
.LVL56:
@ src/decrypt-data.c:441:     if (!dfx->cipher_hd)
	.loc 1 441 13 view .LVU184
	ldr	r3, [sp, #12]	@ dfx, dfx
@ src/decrypt-data.c:440:     dfx->cipher_hd = malloc(sizeof(struct gcry_cipher_handle));
	.loc 1 440 20 view .LVU185
	str	r0, [r6, #4]	@ tmp283, dfx.22_8->cipher_hd
	.loc 1 441 5 is_stmt 1 view .LVU186
@ src/decrypt-data.c:441:     if (!dfx->cipher_hd)
	.loc 1 441 13 is_stmt 0 view .LVU187
	ldr	r0, [r3, #4]	@ _11, dfx.23_10->cipher_hd
@ src/decrypt-data.c:441:     if (!dfx->cipher_hd)
	.loc 1 441 8 view .LVU188
	cmp	r0, #0	@ _11,
	beq	.L46		@,
	.loc 1 445 5 is_stmt 1 view .LVU189
	mov	r2, #64	@,
	mov	r1, r9	@, ed_90(D)->aead_algo
	bl	memset(PLT)	@
.LVL57:
	.loc 1 452 5 view .LVU190
	.loc 1 460 5 view .LVU191
@ src/decrypt-data.c:460:     rc = _gcry_cipher_setkey(dfx->cipher_hd, dek->key, dek->keylen);
	.loc 1 460 10 is_stmt 0 view .LVU192
	ldr	r3, [sp, #12]	@ dfx, dfx
	add	r1, r5, #9	@, dek,
	ldr	r2, [r5, #4]	@, dek_91(D)->keylen
	ldr	r0, [r3, #4]	@, dfx.25_12->cipher_hd
	bl	_gcry_cipher_setkey(PLT)	@
.LVL58:
@ src/decrypt-data.c:473:     if (!ed->buf)
	.loc 1 473 8 view .LVU193
	ldr	r3, [r4, #16]	@ ed_90(D)->buf, ed_90(D)->buf
@ src/decrypt-data.c:460:     rc = _gcry_cipher_setkey(dfx->cipher_hd, dek->key, dek->keylen);
	.loc 1 460 10 view .LVU194
	mov	r6, r0	@ <retval>, tmp284
.LVL59:
	.loc 1 473 5 is_stmt 1 view .LVU195
@ src/decrypt-data.c:473:     if (!ed->buf)
	.loc 1 473 8 is_stmt 0 view .LVU196
	cmp	r3, #0	@ ed_90(D)->buf,
	beq	.L73		@,
	.loc 1 480 5 is_stmt 1 view .LVU197
	ldr	r3, [sp, #12]	@ dfx, dfx
	mov	r1, r9	@, ed_90(D)->aead_algo
	mov	r2, #8	@,
	ldr	r0, [r3, #4]	@, dfx.26_18->cipher_hd
.LVL60:
	.loc 1 480 5 is_stmt 0 view .LVU198
	bl	_gcry_cipher_setiv(PLT)	@
.LVL61:
	.loc 1 482 5 is_stmt 1 view .LVU199
@ src/decrypt-data.c:482:     if (ed->len)
	.loc 1 482 11 is_stmt 0 view .LVU200
	ldr	r1, [r4]	@ _20, ed_90(D)->len
@ src/decrypt-data.c:482:     if (ed->len)
	.loc 1 482 8 view .LVU201
	cmp	r1, #0	@ _20,
	addeq	r10, sp, #15	@ ivtmp.78,,
	addeq	r9, sp, #25	@ _68,,
	beq	.L61		@,
	b	.L74		@
.LVL62:
.L59:
@ src/decrypt-data.c:498:           if ((c = iobuf_get(ed->buf)) == -1) {
	.loc 1 498 20 discriminator 4 view .LVU202
	str	r1, [r2, #24]	@ tmp245, _36->d.start
	ldr	r1, [r2, #8]	@ _36->nbytes, _36->nbytes
	ldr	r0, [r2, #32]	@ _42, _36->d.buf
	add	r1, r1, #1	@ tmp243, _36->nbytes,
	str	r1, [r2, #8]	@ tmp243, _36->nbytes
	ldrb	r0, [r0, r3]	@ zero_extendqisi2	@ _73, *_44
.LVL63:
.L60:
	.loc 1 503 15 is_stmt 1 discriminator 2 view .LVU203
@ src/decrypt-data.c:503:               temp[i] = c;
	.loc 1 503 23 is_stmt 0 discriminator 2 view .LVU204
	strb	r0, [r10, #1]!	@ _73, MEM[base: _31, offset: 0B]
.LVL64:
	.loc 1 496 38 is_stmt 1 discriminator 2 view .LVU205
	.loc 1 496 19 discriminator 2 view .LVU206
@ src/decrypt-data.c:496:       for (i = 0; i < (nprefix + 2); i++) {
	.loc 1 496 7 is_stmt 0 discriminator 2 view .LVU207
	cmp	r10, r9	@ ivtmp.78, _68
	beq	.L56		@,
.LVL65:
.L61:
	.loc 1 498 11 is_stmt 1 view .LVU208
@ src/decrypt-data.c:498:           if ((c = iobuf_get(ed->buf)) == -1) {
	.loc 1 498 20 is_stmt 0 view .LVU209
	ldr	r2, [r4, #16]	@ _36, ed_90(D)->buf
	ldr	r3, [r2, #16]	@ _36->nofast, _36->nofast
	mov	r0, r2	@, _36
	cmp	r3, #0	@ _36->nofast,
	bne	.L58		@,
@ src/decrypt-data.c:498:           if ((c = iobuf_get(ed->buf)) == -1) {
	.loc 1 498 20 discriminator 2 view .LVU210
	ldr	r3, [r2, #24]	@ _38, _36->d.start
	ldr	r1, [r2, #28]	@ _36->d.len, _36->d.len
	cmp	r3, r1	@ _38, _36->d.len
	add	r1, r3, #1	@ tmp245, _38,
	bcc	.L59		@,
.L58:
@ src/decrypt-data.c:498:           if ((c = iobuf_get(ed->buf)) == -1) {
	.loc 1 498 20 discriminator 3 view .LVU211
	bl	iobuf_readbyte(PLT)	@
.LVL66:
@ src/decrypt-data.c:498:           if ((c = iobuf_get(ed->buf)) == -1) {
	.loc 1 498 14 discriminator 3 view .LVU212
	cmn	r0, #1	@ iftmp.29_104,
@ src/decrypt-data.c:503:               temp[i] = c;
	.loc 1 503 23 discriminator 3 view .LVU213
	uxtb	r0, r0	@ _73, iftmp.29_104
.LVL67:
@ src/decrypt-data.c:498:           if ((c = iobuf_get(ed->buf)) == -1) {
	.loc 1 498 14 discriminator 3 view .LVU214
	bne	.L60		@,
.LVL68:
.L56:
	.loc 1 508 5 is_stmt 1 view .LVU215
	ldr	r3, [sp, #12]	@ dfx, dfx
	mov	r2, #10	@,
	add	r1, sp, #16	@,,
	ldr	r0, [r3, #4]	@ dfx.31_48->cipher_hd, dfx.31_48->cipher_hd
	mov	r3, #0	@ tmp227,
	str	r3, [sp]	@ tmp227,
	bl	_gcry_cipher_decrypt(PLT)	@
.LVL69:
	.loc 1 509 5 view .LVU216
	ldr	r3, [sp, #12]	@ dfx, dfx
	ldr	r0, [r3, #4]	@, dfx.32_50->cipher_hd
	bl	cipher_sync(PLT)	@
.LVL70:
	.loc 1 510 5 view .LVU217
	.loc 1 512 5 view .LVU218
@ src/decrypt-data.c:512:     if (dek->symmetric && (p[nprefix - 2] != p[nprefix] || p[nprefix - 1] != p[nprefix + 1]))
	.loc 1 512 9 is_stmt 0 view .LVU219
	ldrb	r3, [r5, #8]	@ zero_extendqisi2	@ *dek_91(D), *dek_91(D)
@ src/decrypt-data.c:512:     if (dek->symmetric && (p[nprefix - 2] != p[nprefix] || p[nprefix - 1] != p[nprefix + 1]))
	.loc 1 512 8 view .LVU220
	tst	r3, #64	@ *dek_91(D),
	beq	.L54		@,
@ src/decrypt-data.c:512:     if (dek->symmetric && (p[nprefix - 2] != p[nprefix] || p[nprefix - 1] != p[nprefix + 1]))
	.loc 1 512 24 discriminator 1 view .LVU221
	ldrb	r2, [sp, #22]	@ zero_extendqisi2	@ MEM[(byte *)&temp + 6B], MEM[(byte *)&temp + 6B]
	ldrb	r3, [sp, #24]	@ zero_extendqisi2	@ MEM[(byte *)&temp + 8B], MEM[(byte *)&temp + 8B]
	cmp	r2, r3	@ MEM[(byte *)&temp + 6B], MEM[(byte *)&temp + 8B]
	bne	.L62		@,
@ src/decrypt-data.c:512:     if (dek->symmetric && (p[nprefix - 2] != p[nprefix] || p[nprefix - 1] != p[nprefix + 1]))
	.loc 1 512 57 discriminator 2 view .LVU222
	ldrb	r2, [sp, #23]	@ zero_extendqisi2	@ MEM[(byte *)&temp + 7B], MEM[(byte *)&temp + 7B]
	ldrb	r3, [sp, #25]	@ zero_extendqisi2	@ MEM[(byte *)&temp + 9B], MEM[(byte *)&temp + 9B]
	cmp	r2, r3	@ MEM[(byte *)&temp + 7B], MEM[(byte *)&temp + 9B]
	beq	.L54		@,
.L62:
	.loc 1 514 7 is_stmt 1 view .LVU223
	ldr	r0, .L75+12	@,
@ src/decrypt-data.c:515:       rc = gpg_error(GPG_ERR_BAD_KEY);
	.loc 1 515 10 is_stmt 0 view .LVU224
	mov	r6, #19	@ <retval>,
.LVL71:
	.loc 1 515 10 view .LVU225
	movt	r6, 512	@ <retval>,
@ src/decrypt-data.c:514:       printf("\n\nBAD KEY!\n\n");
	.loc 1 514 7 view .LVU226
.LPIC11:
	add	r0, pc, r0	@,
	bl	tfp_printf(PLT)	@
.LVL72:
	.loc 1 515 7 is_stmt 1 view .LVU227
	.loc 1 515 7 is_stmt 0 view .LVU228
.LBE55:
	.file 2 "src/common/../gpg-error.h"
	.loc 2 966 3 is_stmt 1 view .LVU229
	.loc 2 951 3 view .LVU230
.LBB56:
	.loc 1 516 7 view .LVU231
.LBE56:
@ src/decrypt-data.c:614:   release_dfx_context(dfx);
	.loc 1 614 3 is_stmt 0 view .LVU232
	ldr	r0, [sp, #12]	@ prephitmp_135, dfx
.LBB57:
@ src/decrypt-data.c:516:       goto leave;
	.loc 1 516 7 view .LVU233
	b	.L44		@
.LVL73:
.L71:
	.loc 1 516 7 view .LVU234
.LBE57:
@ src/decrypt-data.c:614:   release_dfx_context(dfx);
	.loc 1 614 3 view .LVU235
	ldr	r0, [sp, #12]	@ prephitmp_135, dfx
.LBB58:
@ src/decrypt-data.c:345:       rc = gpg_error(GPG_ERR_CIPHER_ALGO);
	.loc 1 345 10 view .LVU236
	mov	r6, #12	@ <retval>,
	movt	r6, 512	@ <retval>,
.LVL74:
.L44:
	.loc 1 345 10 view .LVU237
.LBE58:
	.loc 1 614 3 is_stmt 1 view .LVU238
	bl	release_dfx_context(PLT)	@
.LVL75:
	.loc 1 615 3 view .LVU239
.L40:
@ src/decrypt-data.c:616: }
	.loc 1 616 1 is_stmt 0 view .LVU240
	mov	r0, r6	@, <retval>
	add	sp, sp, #48	@,,
	.cfi_remember_state
	.cfi_def_cfa_offset 32
	@ sp needed	@
	pop	{r4, r5, r6, r7, r8, r9, r10, pc}	@
.LVL76:
.L54:
	.cfi_restore_state
.LBB59:
	.loc 1 518 7 is_stmt 1 view .LVU241
	ldr	r0, .L75+16	@,
.LPIC12:
	add	r0, pc, r0	@,
	bl	tfp_printf(PLT)	@
.LVL77:
	.loc 1 518 7 is_stmt 0 view .LVU242
.LBE59:
	.loc 1 529 3 is_stmt 1 view .LVU243
@ src/decrypt-data.c:529:   dfx->refcount++;
	.loc 1 529 6 is_stmt 0 view .LVU244
	ldr	r2, [sp, #12]	@ dfx.33_58, dfx
@ src/decrypt-data.c:541:   iobuf_push_filter(ed->buf, decode_filter, dfx);
	.loc 1 541 3 view .LVU245
	ldr	r0, [r4, #16]	@, ed_90(D)->buf
@ src/decrypt-data.c:529:   dfx->refcount++;
	.loc 1 529 16 view .LVU246
	ldr	r3, [r2]	@ dfx.33_58->refcount, dfx.33_58->refcount
@ src/decrypt-data.c:530:   dfx->partial = !!ed->is_partial;
	.loc 1 530 16 view .LVU247
	ldrb	ip, [r2, #80]	@ zero_extendqisi2	@, dfx.33_58->partial
@ src/decrypt-data.c:541:   iobuf_push_filter(ed->buf, decode_filter, dfx);
	.loc 1 541 3 view .LVU248
	ldr	r1, .L75+20	@,
@ src/decrypt-data.c:529:   dfx->refcount++;
	.loc 1 529 16 view .LVU249
	add	r3, r3, #1	@ tmp255, dfx.33_58->refcount,
	str	r3, [r2]	@ tmp255, dfx.33_58->refcount
	.loc 1 530 3 is_stmt 1 view .LVU250
@ src/decrypt-data.c:530:   dfx->partial = !!ed->is_partial;
	.loc 1 530 18 is_stmt 0 view .LVU251
	ldrb	r3, [r4, #9]	@ zero_extendqisi2	@ ed_90(D)->is_partial, ed_90(D)->is_partial
@ src/decrypt-data.c:541:   iobuf_push_filter(ed->buf, decode_filter, dfx);
	.loc 1 541 3 view .LVU252
.LPIC13:
	add	r1, pc, r1	@,
@ src/decrypt-data.c:530:   dfx->partial = !!ed->is_partial;
	.loc 1 530 18 view .LVU253
	subs	r3, r3, #0	@ tmp259, ed_90(D)->is_partial,
	movne	r3, #1	@ tmp259,
@ src/decrypt-data.c:530:   dfx->partial = !!ed->is_partial;
	.loc 1 530 16 view .LVU254
	bfi	ip, r3, #0, #1	@ dfx.33_58->partial, tmp259,,
	strb	ip, [r2, #80]	@ dfx.33_58->partial, dfx.33_58->partial
	.loc 1 531 3 is_stmt 1 view .LVU255
@ src/decrypt-data.c:531:   dfx->length = ed->len;
	.loc 1 531 15 is_stmt 0 view .LVU256
	ldr	r3, [r4]	@ ed_90(D)->len, ed_90(D)->len
	str	r3, [r2, #120]	@ ed_90(D)->len, dfx.33_58->length
	.loc 1 541 3 is_stmt 1 view .LVU257
	bl	iobuf_push_filter(PLT)	@
.LVL78:
	.loc 1 576 3 view .LVU258
	ldr	r2, [r4, #16]	@, ed_90(D)->buf
	mov	r1, r8	@, procctx
	mov	r0, r7	@, ctrl
	bl	proc_packets(PLT)	@
.LVL79:
	.loc 1 578 3 view .LVU259
@ src/decrypt-data.c:579:   if (dfx->eof_seen > 1)
	.loc 1 579 10 is_stmt 0 view .LVU260
	ldr	r0, [sp, #12]	@ prephitmp_135, dfx
@ src/decrypt-data.c:580:     rc = gpg_error(GPG_ERR_INV_PACKET);
	.loc 1 580 8 view .LVU261
	mov	r2, #14	@ tmp277,
	movt	r2, 512	@ tmp277,
@ src/decrypt-data.c:578:   ed->buf = NULL;
	.loc 1 578 11 view .LVU262
	mov	r1, #0	@ tmp268,
@ src/decrypt-data.c:579:   if (dfx->eof_seen > 1)
	.loc 1 579 10 view .LVU263
	ldrb	r3, [r0, #80]	@ zero_extendqisi2	@ *dfx.37_66, *dfx.37_66
@ src/decrypt-data.c:578:   ed->buf = NULL;
	.loc 1 578 11 view .LVU264
	str	r1, [r4, #16]	@ tmp268, ed_90(D)->buf
	.loc 1 579 3 is_stmt 1 view .LVU265
@ src/decrypt-data.c:579:   if (dfx->eof_seen > 1)
	.loc 1 579 6 is_stmt 0 view .LVU266
	ubfx	r3, r3, #1, #2	@ tmp275, *dfx.37_66,,
@ src/decrypt-data.c:580:     rc = gpg_error(GPG_ERR_INV_PACKET);
	.loc 1 580 8 view .LVU267
	cmp	r3, #1	@ tmp275,
	movhi	r6, r2	@ <retval>, tmp277
.LVL80:
	.loc 1 580 8 view .LVU268
	b	.L44		@
.LVL81:
.L73:
.LBB60:
	.loc 1 475 7 is_stmt 1 view .LVU269
	ldr	r0, .L75+24	@,
.LVL82:
@ src/decrypt-data.c:476:       rc = gpg_error(GPG_ERR_INV_PACKET);
	.loc 1 476 10 is_stmt 0 view .LVU270
	mov	r6, #14	@ <retval>,
.LVL83:
	.loc 1 476 10 view .LVU271
	movt	r6, 512	@ <retval>,
@ src/decrypt-data.c:475:       printf(("problem handling encrypted packet\n"));
	.loc 1 475 7 view .LVU272
.LPIC9:
	add	r0, pc, r0	@,
	bl	tfp_printf(PLT)	@
.LVL84:
	.loc 1 476 7 is_stmt 1 view .LVU273
	.loc 1 476 7 is_stmt 0 view .LVU274
.LBE60:
	.loc 2 966 3 is_stmt 1 view .LVU275
	.loc 2 951 3 view .LVU276
.LBB61:
	.loc 1 477 7 view .LVU277
.LBE61:
@ src/decrypt-data.c:614:   release_dfx_context(dfx);
	.loc 1 614 3 is_stmt 0 view .LVU278
	ldr	r0, [sp, #12]	@ prephitmp_135, dfx
.LBB62:
@ src/decrypt-data.c:477:       goto leave;
	.loc 1 477 7 view .LVU279
	b	.L44		@
.LVL85:
.L72:
	.loc 1 477 7 view .LVU280
.LBE62:
@ src/decrypt-data.c:614:   release_dfx_context(dfx);
	.loc 1 614 3 view .LVU281
	ldr	r0, [sp, #12]	@ prephitmp_135, dfx
.LBB63:
@ src/decrypt-data.c:427:       rc = gpg_error(GPG_ERR_INV_PACKET);
	.loc 1 427 10 view .LVU282
	mov	r6, #14	@ <retval>,
	movt	r6, 512	@ <retval>,
	b	.L44		@
.LVL86:
.L74:
	.loc 1 484 7 is_stmt 1 view .LVU283
	ldr	r0, .L75+28	@,
	add	r10, sp, #15	@ ivtmp.69,,
	add	r9, sp, #25	@ _71,,
.LPIC10:
	add	r0, pc, r0	@,
	bl	tfp_printf(PLT)	@
.LVL87:
	.loc 1 485 7 view .LVU284
	.loc 1 485 19 view .LVU285
@ src/decrypt-data.c:485:       for (i = 0; i < (nprefix + 2) && ed->len; i++, ed->len--)
	.loc 1 485 42 is_stmt 0 view .LVU286
	ldr	r2, [r4]	@ _33, ed_90(D)->len
	b	.L49		@
.LVL88:
.L51:
@ src/decrypt-data.c:487:         if ((c = iobuf_get(ed->buf)) == -1)
	.loc 1 487 18 discriminator 4 view .LVU287
	ldr	r0, [r3, #8]	@ _21->nbytes, _21->nbytes
	str	ip, [r3, #24]	@ tmp237, _21->d.start
	ldr	ip, [r3, #32]	@ _27, _21->d.buf
	add	r0, r0, #1	@ tmp235, _21->nbytes,
	str	r0, [r3, #8]	@ tmp235, _21->nbytes
	ldrb	r0, [ip, r1]	@ zero_extendqisi2	@ _138, *_29
.LVL89:
.L55:
	.loc 1 490 11 is_stmt 1 discriminator 2 view .LVU288
@ src/decrypt-data.c:490:           temp[i] = c;
	.loc 1 490 19 is_stmt 0 discriminator 2 view .LVU289
	strb	r0, [r10, #1]!	@ _138, MEM[base: _77, offset: 0B]
.LVL90:
	.loc 1 485 49 is_stmt 1 discriminator 2 view .LVU290
@ src/decrypt-data.c:485:       for (i = 0; i < (nprefix + 2) && ed->len; i++, ed->len--)
	.loc 1 485 61 is_stmt 0 discriminator 2 view .LVU291
	sub	r2, r2, #1	@ _33, _33,
@ src/decrypt-data.c:485:       for (i = 0; i < (nprefix + 2) && ed->len; i++, ed->len--)
	.loc 1 485 7 discriminator 2 view .LVU292
	cmp	r9, r10	@ _71, ivtmp.69
@ src/decrypt-data.c:485:       for (i = 0; i < (nprefix + 2) && ed->len; i++, ed->len--)
	.loc 1 485 61 discriminator 2 view .LVU293
	str	r2, [r4]	@ _33, ed_90(D)->len
	.loc 1 485 19 is_stmt 1 discriminator 2 view .LVU294
@ src/decrypt-data.c:485:       for (i = 0; i < (nprefix + 2) && ed->len; i++, ed->len--)
	.loc 1 485 7 is_stmt 0 discriminator 2 view .LVU295
	beq	.L56		@,
.LVL91:
.L49:
	.loc 1 487 9 is_stmt 1 discriminator 3 view .LVU296
@ src/decrypt-data.c:485:       for (i = 0; i < (nprefix + 2) && ed->len; i++, ed->len--)
	.loc 1 485 37 is_stmt 0 discriminator 3 view .LVU297
	cmp	r2, #0	@ _33,
	beq	.L56		@,
@ src/decrypt-data.c:487:         if ((c = iobuf_get(ed->buf)) == -1)
	.loc 1 487 18 view .LVU298
	ldr	r3, [r4, #16]	@ _21, ed_90(D)->buf
	ldr	r1, [r3, #16]	@ _21->nofast, _21->nofast
	mov	r0, r3	@, _21
	cmp	r1, #0	@ _21->nofast,
	bne	.L50		@,
@ src/decrypt-data.c:487:         if ((c = iobuf_get(ed->buf)) == -1)
	.loc 1 487 18 discriminator 2 view .LVU299
	ldr	r1, [r3, #24]	@ _23, _21->d.start
	ldr	ip, [r3, #28]	@ _21->d.len, _21->d.len
	cmp	r1, ip	@ _23, _21->d.len
	add	ip, r1, #1	@ tmp237, _23,
	bcc	.L51		@,
.L50:
@ src/decrypt-data.c:487:         if ((c = iobuf_get(ed->buf)) == -1)
	.loc 1 487 18 discriminator 3 view .LVU300
	bl	iobuf_readbyte(PLT)	@
.LVL92:
@ src/decrypt-data.c:487:         if ((c = iobuf_get(ed->buf)) == -1)
	.loc 1 487 12 discriminator 3 view .LVU301
	cmn	r0, #1	@ iftmp.27_112,
@ src/decrypt-data.c:490:           temp[i] = c;
	.loc 1 490 19 discriminator 3 view .LVU302
	uxtb	r0, r0	@ _138, iftmp.27_112
.LVL93:
@ src/decrypt-data.c:487:         if ((c = iobuf_get(ed->buf)) == -1)
	.loc 1 487 12 discriminator 3 view .LVU303
	beq	.L56		@,
@ src/decrypt-data.c:485:       for (i = 0; i < (nprefix + 2) && ed->len; i++, ed->len--)
	.loc 1 485 56 view .LVU304
	ldr	r2, [r4]	@ _33, ed_90(D)->len
	b	.L55		@
.LVL94:
.L46:
	.loc 1 485 56 view .LVU305
.LBE63:
@ src/decrypt-data.c:267:     return gpg_error_from_syserror();
	.loc 1 267 12 view .LVU306
	mvn	r6, #0	@ <retval>,
	b	.L40		@
.L76:
	.align	2
.L75:
	.word	.LC6-(.LPIC6+8)
	.word	.LC7-(.LPIC7+8)
	.word	.LC8-(.LPIC8+8)
	.word	.LC11-(.LPIC11+8)
	.word	.LC12-(.LPIC12+8)
	.word	decode_filter-(.LPIC13+8)
	.word	.LC9-(.LPIC9+8)
	.word	.LC10-(.LPIC10+8)
	.cfi_endproc
.LFE20:
	.size	decrypt_data, .-decrypt_data
	.text
.Letext0:
	.file 3 "/usr/include/newlib/machine/_default_types.h"
	.file 4 "/usr/lib/gcc/arm-none-eabi/10.3.1/include/stddef.h"
	.file 5 "/usr/include/newlib/sys/_types.h"
	.file 6 "/usr/include/newlib/sys/_stdint.h"
	.file 7 "/usr/include/newlib/sys/types.h"
	.file 8 "src/libgcrypt.h"
	.file 9 "src/gpg.h"
	.file 10 "src/common/../common/fwddecl.h"
	.file 11 "src/common/iobuf.h"
	.file 12 "src/dek.h"
	.file 13 "src/filter.h"
	.file 14 "src/gcrypt.h"
	.file 15 "src/packet.h"
	.file 16 "src/common/status.h"
	.file 17 "src/printf.h"
	.file 18 "/usr/include/newlib/string.h"
	.file 19 "/usr/include/newlib/stdlib.h"
	.file 20 "src/memory.h"