	.cpu cortex-a7
	.eabi_attribute 20, 1	@ Tag_ABI_FP_denormal
	.eabi_attribute 21, 1	@ Tag_ABI_FP_exceptions
	.eabi_attribute 23, 3	@ Tag_ABI_FP_number_model
	.eabi_attribute 24, 1	@ Tag_ABI_align8_needed
	.eabi_attribute 25, 1	@ Tag_ABI_align8_preserved
	.eabi_attribute 26, 1	@ Tag_ABI_enum_size
	.eabi_attribute 30, 2	@ Tag_ABI_optimization_goals
	.eabi_attribute 34, 1	@ Tag_CPU_unaligned_access
	.eabi_attribute 18, 4	@ Tag_ABI_PCS_wchar_t
	.file	"decrypt.c"
@ GNU C17 (15:10.3-2021.07-4) version 10.3.1 20210621 (release) (arm-none-eabi)
@	compiled by GNU C version 11.2.0, GMP version 6.2.1, MPFR version 4.1.0, MPC version 1.2.1, isl version isl-0.24-GMP

@ GGC heuristics: --param ggc-min-expand=100 --param ggc-min-heapsize=131072
@ options passed:  -I src -I src/common -imultilib thumb/v7-a/nofp
@ -D__USES_INITFINI__ src/decrypt.c -mcpu=cortex-a7 -mfloat-abi=soft -marm
@ -mlibarch=armv7ve -march=armv7ve
@ -auxbase-strip build/asm_output/decrypt.s -g -O2 -Wall -Wextra -fpic
@ -ffreestanding -ffunction-sections -fdata-sections -fno-common
@ -fverbose-asm
@ options enabled:  -faggressive-loop-optimizations -falign-functions
@ -falign-jumps -falign-labels -falign-loops -fallocation-dce
@ -fauto-inc-dec -fbranch-count-reg -fcaller-saves
@ -fcombine-stack-adjustments -fcompare-elim -fcprop-registers
@ -fcrossjumping -fcse-follow-jumps -fdata-sections -fdefer-pop
@ -fdelete-null-pointer-checks -fdevirtualize -fdevirtualize-speculatively
@ -fdwarf2-cfi-asm -fearly-inlining -feliminate-unused-debug-symbols
@ -feliminate-unused-debug-types -fexpensive-optimizations
@ -fforward-propagate -ffp-int-builtin-inexact -ffunction-cse
@ -ffunction-sections -fgcse -fgcse-lm -fgnu-unique
@ -fguess-branch-probability -fhoist-adjacent-loads -fident -fif-conversion
@ -fif-conversion2 -findirect-inlining -finline -finline-atomics
@ -finline-functions -finline-functions-called-once
@ -finline-small-functions -fipa-bit-cp -fipa-cp -fipa-icf
@ -fipa-icf-functions -fipa-icf-variables -fipa-profile -fipa-pure-const
@ -fipa-ra -fipa-reference -fipa-reference-addressable -fipa-sra
@ -fipa-stack-alignment -fipa-vrp -fira-hoist-pressure
@ -fira-share-save-slots -fira-share-spill-slots
@ -fisolate-erroneous-paths-dereference -fivopts -fkeep-static-consts
@ -fleading-underscore -flifetime-dse -flra-remat -fmath-errno
@ -fmerge-constants -fmerge-debug-strings -fmove-loop-invariants
@ -fomit-frame-pointer -foptimize-sibling-calls -foptimize-strlen
@ -fpartial-inlining -fpeephole -fpeephole2 -fpic -fplt
@ -fprefetch-loop-arrays -freg-struct-return -freorder-blocks
@ -freorder-functions -frerun-cse-after-loop
@ -fsched-critical-path-heuristic -fsched-dep-count-heuristic
@ -fsched-group-heuristic -fsched-interblock -fsched-last-insn-heuristic
@ -fsched-pressure -fsched-rank-heuristic -fsched-spec
@ -fsched-spec-insn-heuristic -fsched-stalled-insns-dep -fschedule-insns
@ -fschedule-insns2 -fsection-anchors -fsemantic-interposition
@ -fshow-column -fshrink-wrap -fshrink-wrap-separate -fsigned-zeros
@ -fsplit-ivs-in-unroller -fsplit-wide-types -fssa-backprop -fssa-phiopt
@ -fstdarg-opt -fstore-merging -fstrict-aliasing
@ -fstrict-volatile-bitfields -fsync-libcalls -fthread-jumps
@ -ftoplevel-reorder -ftrapping-math -ftree-bit-ccp -ftree-builtin-call-dce
@ -ftree-ccp -ftree-ch -ftree-coalesce-vars -ftree-copy-prop -ftree-cselim
@ -ftree-dce -ftree-dominator-opts -ftree-dse -ftree-forwprop -ftree-fre
@ -ftree-loop-if-convert -ftree-loop-im -ftree-loop-ivcanon
@ -ftree-loop-optimize -ftree-parallelize-loops= -ftree-phiprop -ftree-pre
@ -ftree-pta -ftree-reassoc -ftree-scev-cprop -ftree-sink -ftree-slsr
@ -ftree-sra -ftree-switch-conversion -ftree-tail-merge -ftree-ter
@ -ftree-vrp -funit-at-a-time -fvar-tracking -fvar-tracking-assignments
@ -fverbose-asm -fzero-initialized-in-bss -marm -mbe32 -mlittle-endian
@ -mpic-data-is-text-relative -msched-prolog -munaligned-access
@ -mvectorize-with-neon-quad -mword-relocations

	.text
.Ltext0:
	.cfi_sections	.debug_frame
	.section	.rodata.decrypt_memory.str1.4,"aMS",%progbits,1
	.align	2
.LC0:
	.ascii	"decrypt_memory\012\000"
	.align	2
.LC1:
	.ascii	"Session key: %s\012\000"
	.align	2
.LC2:
	.ascii	"rb\000"
	.align	2
.LC3:
	.ascii	"\012\012END decrypt_memory\012\012\000"
	.section	.text.decrypt_memory,"ax",%progbits
	.align	2
	.global	decrypt_memory
	.arch armv7ve
	.syntax unified
	.arm
	.fpu softvfp
	.type	decrypt_memory, %function
decrypt_memory:
.LVL0:
.LFB19:
	.file 1 "src/decrypt.c"
	.loc 1 43 75 view -0
	.cfi_startproc
	@ args = 0, pretend = 0, frame = 8
	@ frame_needed = 0, uses_anonymous_args = 0
	.loc 1 44 5 view .LVU1
@ src/decrypt.c:43: int decrypt_memory(ctrl_t ctrl, const unsigned char* data, size_t length) {
	.loc 1 43 75 is_stmt 0 view .LVU2
	push	{r4, r5, r6, r7, r8, r9, lr}	@
	.cfi_def_cfa_offset 28
	.cfi_offset 4, -28
	.cfi_offset 5, -24
	.cfi_offset 6, -20
	.cfi_offset 7, -16
	.cfi_offset 8, -12
	.cfi_offset 9, -8
	.cfi_offset 14, -4
	mov	r7, r0	@ tmp148, ctrl
@ src/decrypt.c:44:     printf("decrypt_memory\n");
	.loc 1 44 5 view .LVU3
	ldr	r0, .L6	@,
.LVL1:
@ src/decrypt.c:43: int decrypt_memory(ctrl_t ctrl, const unsigned char* data, size_t length) {
	.loc 1 43 75 view .LVU4
	sub	sp, sp, #20	@,,
	.cfi_def_cfa_offset 48
@ src/decrypt.c:43: int decrypt_memory(ctrl_t ctrl, const unsigned char* data, size_t length) {
	.loc 1 43 75 view .LVU5
	ldr	r8, .L6+4	@ tmp142,
	mov	r5, r2	@ length, tmp150
@ src/decrypt.c:44:     printf("decrypt_memory\n");
	.loc 1 44 5 view .LVU6
.LPIC0:
	add	r0, pc, r0	@,
@ src/decrypt.c:43: int decrypt_memory(ctrl_t ctrl, const unsigned char* data, size_t length) {
	.loc 1 43 75 view .LVU7
	mov	r6, r1	@ data, tmp149
.LPIC4:
	add	r8, pc, r8	@ tmp142, tmp142
@ src/decrypt.c:44:     printf("decrypt_memory\n");
	.loc 1 44 5 view .LVU8
	bl	tfp_printf(PLT)	@
.LVL2:
	.loc 1 47 5 is_stmt 1 view .LVU9
	ldr	r0, .L6+8	@,
@ src/decrypt.c:54:     size_t len = 0;
	.loc 1 54 12 is_stmt 0 view .LVU10
	mov	r4, #0	@ tmp132,
@ src/decrypt.c:47:     printf("Session key: %s\n", ctrl->session_key);
	.loc 1 47 5 view .LVU11
	ldr	r1, [r7, #28]	@, ctrl_12(D)->session_key
.LPIC1:
	add	r0, pc, r0	@,
	bl	tfp_printf(PLT)	@
.LVL3:
	.loc 1 48 5 is_stmt 1 view .LVU12
@ src/decrypt.c:48:     ctrl->enc_length=length;
	.loc 1 48 21 is_stmt 0 view .LVU13
	str	r5, [r7, #32]	@ length, ctrl_12(D)->enc_length
	.loc 1 50 5 is_stmt 1 view .LVU14
	.loc 1 51 5 view .LVU15
	.loc 1 52 5 view .LVU16
	.loc 1 53 5 view .LVU17
	.loc 1 54 5 view .LVU18
@ src/decrypt.c:62:     a = iobuf_temp_with_content((const char*)data, length);
	.loc 1 62 9 is_stmt 0 view .LVU19
	mov	r0, r6	@, data
@ src/decrypt.c:54:     size_t len = 0;
	.loc 1 54 12 view .LVU20
	str	r4, [sp, #12]	@ tmp132, len
	.loc 1 55 5 is_stmt 1 view .LVU21
.LVL4:
	.loc 1 57 5 view .LVU22
	.loc 1 58 5 view .LVU23
	.loc 1 59 5 view .LVU24
	.loc 1 60 5 view .LVU25
	.loc 1 62 5 view .LVU26
@ src/decrypt.c:62:     a = iobuf_temp_with_content((const char*)data, length);
	.loc 1 62 9 is_stmt 0 view .LVU27
	mov	r1, r5	@, length
	bl	iobuf_temp_with_content(PLT)	@
.LVL5:
	.loc 1 64 5 is_stmt 1 view .LVU28
@ src/decrypt.c:64:     if (!a) {
	.loc 1 64 8 is_stmt 0 view .LVU29
	subs	r6, r0, #0	@ a, tmp151
.LVL6:
	.loc 1 64 8 view .LVU30
	beq	.L3		@,
	.loc 1 67 5 is_stmt 1 view .LVU31
	ldr	r5, .L6+12	@ tmp134,
.LVL7:
	.loc 1 67 5 is_stmt 0 view .LVU32
	mov	r1, r4	@, tmp132
	mov	r0, r4	@, tmp132
.LVL8:
	.loc 1 67 5 view .LVU33
.LPIC2:
	add	r5, pc, r5	@ tmp134, tmp134
	bl	translate_file_handle(PLT)	@
.LVL9:
	mov	r1, r5	@, tmp134
	bl	iobuf_fdopen(PLT)	@
.LVL10:
	.loc 1 70 4 is_stmt 1 view .LVU34
@ src/decrypt.c:70: 	  fp = fd_cache_open (NULL, opentype);
	.loc 1 70 9 is_stmt 0 view .LVU35
	mov	r1, r5	@, tmp134
	mov	r0, r4	@, tmp132
	bl	fd_cache_open(PLT)	@
.LVL11:
	mov	r9, r0	@ fp, tmp152
.LVL12:
	.loc 1 71 5 is_stmt 1 view .LVU36
@ src/decrypt.c:71:     fcx = xmalloc (sizeof *fcx + strlen (fname));
	.loc 1 71 34 is_stmt 0 view .LVU37
	mov	r0, r4	@, tmp132
.LVL13:
	.loc 1 71 34 view .LVU38
	bl	strlen(PLT)	@
.LVL14:
@ src/decrypt.c:71:     fcx = xmalloc (sizeof *fcx + strlen (fname));
	.loc 1 71 11 view .LVU39
	add	r0, r0, #56	@, tmp153,
	bl	xmalloc(PLT)	@
.LVL15:
@ src/decrypt.c:73:     fcx->print_only_name = print_only;
	.loc 1 73 26 view .LVU40
	str	r4, [r0, #16]	@ tmp132, fcx_26->print_only_name
@ src/decrypt.c:71:     fcx = xmalloc (sizeof *fcx + strlen (fname));
	.loc 1 71 11 view .LVU41
	mov	r5, r0	@ fcx, tmp154
.LVL16:
	.loc 1 72 5 is_stmt 1 view .LVU42
@ src/decrypt.c:72:     fcx->fp = fp;
	.loc 1 72 13 is_stmt 0 view .LVU43
	str	r9, [r0]	@ fp, fcx_26->fp
	.loc 1 73 5 is_stmt 1 view .LVU44
	.loc 1 74 5 view .LVU45
	mov	r1, r4	@, tmp132
	add	r0, r0, #54	@, fcx,
.LVL17:
	.loc 1 74 5 is_stmt 0 view .LVU46
	bl	strcpy(PLT)	@
.LVL18:
	.loc 1 75 5 is_stmt 1 view .LVU47
.LBB7:
	.loc 1 76 7 view .LVU48
@ src/decrypt.c:76:       a->real_fname = xstrdup (fname);
	.loc 1 76 23 is_stmt 0 view .LVU49
	mov	r0, r4	@, tmp132
	bl	xstrdup(PLT)	@
.LVL19:
.LBE7:
@ src/decrypt.c:77:     a->filter = file_filter;
	.loc 1 77 15 view .LVU50
	ldr	r3, .L6+16	@ tmp157,
@ src/decrypt.c:78:     fcx->no_cache = 1;
	.loc 1 78 19 view .LVU51
	mov	r1, #1	@ tmp143,
.LBB8:
@ src/decrypt.c:76:       a->real_fname = xstrdup (fname);
	.loc 1 76 21 view .LVU52
	str	r0, [r6, #56]	@ tmp155, a_19->real_fname
.LBE8:
	.loc 1 77 5 is_stmt 1 view .LVU53
@ src/decrypt.c:82:     file_filter (fcx, IOBUFCTRL_INIT, NULL, NULL, &len);
	.loc 1 82 5 is_stmt 0 view .LVU54
	mov	r2, r4	@, tmp132
@ src/decrypt.c:77:     a->filter = file_filter;
	.loc 1 77 15 view .LVU55
	ldr	r3, [r8, r3]	@ tmp141,
@ src/decrypt.c:82:     file_filter (fcx, IOBUFCTRL_INIT, NULL, NULL, &len);
	.loc 1 82 5 view .LVU56
	mov	r0, r5	@, fcx
@ src/decrypt.c:77:     a->filter = file_filter;
	.loc 1 77 15 view .LVU57
	str	r3, [r6, #44]	@ tmp141, a_19->filter
	.loc 1 78 5 is_stmt 1 view .LVU58
@ src/decrypt.c:82:     file_filter (fcx, IOBUFCTRL_INIT, NULL, NULL, &len);
	.loc 1 82 5 is_stmt 0 view .LVU59
	add	r3, sp, #12	@ tmp144,,
@ src/decrypt.c:78:     fcx->no_cache = 1;
	.loc 1 78 19 view .LVU60
	str	r1, [r5, #8]	@ tmp143, fcx_26->no_cache
	.loc 1 79 5 is_stmt 1 view .LVU61
@ src/decrypt.c:79:     a->filter_ov = fcx;
	.loc 1 79 18 is_stmt 0 view .LVU62
	str	r5, [r6, #48]	@ fcx, a_19->filter_ov
	.loc 1 82 5 is_stmt 1 view .LVU63
	str	r3, [sp]	@ tmp144,
	mov	r3, r4	@, tmp132
	bl	file_filter(PLT)	@
.LVL20:
	.loc 1 94 5 view .LVU64
@ src/decrypt.c:94:     rc = proc_encryption_packets(ctrl, NULL, a);
	.loc 1 94 10 is_stmt 0 view .LVU65
	mov	r1, r4	@, tmp132
	mov	r2, r6	@, a
	mov	r0, r7	@, ctrl
	bl	proc_encryption_packets(PLT)	@
.LVL21:
	mov	r4, r0	@ tmp156,
@ src/decrypt.c:96:     printf("\n\nEND decrypt_memory\n\n");
	.loc 1 96 5 view .LVU66
	ldr	r0, .L6+20	@,
.LPIC5:
	add	r0, pc, r0	@,
.LVL22:
	.loc 1 96 5 is_stmt 1 view .LVU67
	bl	tfp_printf(PLT)	@
.LVL23:
	.loc 1 99 5 view .LVU68
.L1:
@ src/decrypt.c:100: }
	.loc 1 100 1 is_stmt 0 view .LVU69
	mov	r0, r4	@, <retval>
	add	sp, sp, #20	@,,
	.cfi_remember_state
	.cfi_def_cfa_offset 28
	@ sp needed	@
	pop	{r4, r5, r6, r7, r8, r9, pc}	@
.LVL24:
.L3:
	.cfi_restore_state
@ src/decrypt.c:65:         return gpg_error_from_syserror();
	.loc 1 65 16 view .LVU70
	mvn	r4, #0	@ <retval>,
	b	.L1		@
.L7:
	.align	2
.L6:
	.word	.LC0-(.LPIC0+8)
	.word	_GLOBAL_OFFSET_TABLE_-(.LPIC4+8)
	.word	.LC1-(.LPIC1+8)
	.word	.LC2-(.LPIC2+8)
	.word	file_filter(GOT)
	.word	.LC3-(.LPIC5+8)
	.cfi_endproc
.LFE19:
	.size	decrypt_memory, .-decrypt_memory
	.section	.rodata.decrypt_message.str1.4,"aMS",%progbits,1
	.align	2
.LC4:
	.ascii	"decrypt_message filename:%s\012\000"
	.align	2
.LC5:
	.ascii	"opt.outfile:%s\012\000"
	.section	.text.decrypt_message,"ax",%progbits
	.align	2
	.global	decrypt_message
	.syntax unified
	.arm
	.fpu softvfp
	.type	decrypt_message, %function
decrypt_message:
.LVL25:
.LFB20:
	.loc 1 111 1 is_stmt 1 view -0
	.cfi_startproc
	@ args = 0, pretend = 0, frame = 0
	@ frame_needed = 0, uses_anonymous_args = 0
	.loc 1 112 3 view .LVU72
@ src/decrypt.c:111: {
	.loc 1 111 1 is_stmt 0 view .LVU73
	push	{r4, r5, r6, lr}	@
	.cfi_def_cfa_offset 16
	.cfi_offset 4, -16
	.cfi_offset 5, -12
	.cfi_offset 6, -8
	.cfi_offset 14, -4
@ src/decrypt.c:111: {
	.loc 1 111 1 view .LVU74
	mov	r5, r0	@ tmp126, ctrl
@ src/decrypt.c:112:   printf("decrypt_message filename:%s\n",filename);
	.loc 1 112 3 view .LVU75
	ldr	r0, .L12	@,
.LVL26:
@ src/decrypt.c:111: {
	.loc 1 111 1 view .LVU76
	mov	r4, r1	@ filename, tmp127
	ldr	r6, .L12+4	@ tmp121,
@ src/decrypt.c:112:   printf("decrypt_message filename:%s\n",filename);
	.loc 1 112 3 view .LVU77
.LPIC6:
	add	r0, pc, r0	@,
@ src/decrypt.c:111: {
	.loc 1 111 1 view .LVU78
.LPIC7:
	add	r6, pc, r6	@ tmp121, tmp121
@ src/decrypt.c:112:   printf("decrypt_message filename:%s\n",filename);
	.loc 1 112 3 view .LVU79
	bl	tfp_printf(PLT)	@
.LVL27:
	.loc 1 113 3 is_stmt 1 view .LVU80
	.loc 1 116 3 view .LVU81
	.loc 1 121 3 view .LVU82
@ src/decrypt.c:121:   fp = iobuf_open (filename);
	.loc 1 121 8 is_stmt 0 view .LVU83
	mov	r0, r4	@, filename
	bl	iobuf_open(PLT)	@
.LVL28:
	mov	r4, r0	@ tmp128,
.LVL29:
	.loc 1 132 1 is_stmt 1 view .LVU84
	bl	iobuf_get_fd(PLT)	@
.LVL30:
	.loc 1 133 3 view .LVU85
@ src/decrypt.c:133:   if ( !fp )
	.loc 1 133 6 is_stmt 0 view .LVU86
	cmp	r4, #0	@ fp,
	beq	.L10		@,
	.loc 1 160 3 is_stmt 1 view .LVU87
	ldr	r3, .L12+8	@ tmp130,
	ldr	r0, .L12+12	@,
	ldr	r3, [r6, r3]	@ tmp120,
.LPIC8:
	add	r0, pc, r0	@,
	ldr	r1, [r3, #16]	@, opt.outfile
	bl	tfp_printf(PLT)	@
.LVL31:
	.loc 1 161 3 view .LVU88
@ src/decrypt.c:161:   rc = proc_encryption_packets (ctrl, NULL, fp );
	.loc 1 161 8 is_stmt 0 view .LVU89
	mov	r2, r4	@, fp
	mov	r1, #0	@,
	mov	r0, r5	@, ctrl
	bl	proc_encryption_packets(PLT)	@
.LVL32:
	mov	r3, r0	@ tmp129,
@ src/decrypt.c:165:   iobuf_close (fp);
	.loc 1 165 3 view .LVU90
	mov	r0, r4	@, fp
@ src/decrypt.c:161:   rc = proc_encryption_packets (ctrl, NULL, fp );
	.loc 1 161 8 view .LVU91
	mov	r4, r3	@ <retval>, tmp129
.LVL33:
	.loc 1 165 3 is_stmt 1 view .LVU92
	bl	iobuf_close(PLT)	@
.LVL34:
	.loc 1 168 3 view .LVU93
.L8:
@ src/decrypt.c:169: }
	.loc 1 169 1 is_stmt 0 view .LVU94
	mov	r0, r4	@, <retval>
	pop	{r4, r5, r6, pc}	@
.LVL35:
.L10:
@ src/decrypt.c:139:       return rc;
	.loc 1 139 14 view .LVU95
	mvn	r4, #0	@ <retval>,
.LVL36:
	.loc 1 139 14 view .LVU96
	b	.L8		@
.L13:
	.align	2
.L12:
	.word	.LC4-(.LPIC6+8)
	.word	_GLOBAL_OFFSET_TABLE_-(.LPIC7+8)
	.word	opt(GOT)
	.word	.LC5-(.LPIC8+8)
	.cfi_endproc
.LFE20:
	.size	decrypt_message, .-decrypt_message
	.global	opt
	.section	.bss.opt,"aw",%nobits
	.align	3
	.type	opt, %object
	.size	opt, 544
opt:
	.space	544
	.text
.Letext0:
	.file 2 "/usr/lib/gcc/arm-none-eabi/10.3.1/include/stddef.h"
	.file 3 "/usr/include/newlib/sys/_types.h"
	.file 4 "/usr/lib/gcc/arm-none-eabi/10.3.1/include/stdint.h"
	.file 5 "src/libgcrypt.h"
	.file 6 "src/gpg.h"
	.file 7 "/usr/include/newlib/sys/types.h"
	.file 8 "src/common/../gpg-error.h"
	.file 9 "src/common/../common/sysutils.h"
	.file 10 "src/common/iobuf.h"
	.file 11 "src/common/../common/fwddecl.h"
	.file 12 "src/packet.h"
	.file 13 "src/common/compliance.h"
	.file 14 "src/options.h"
	.file 15 "src/printf.h"
	.file 16 "/usr/include/newlib/string.h"
	.file 17 "src/memory.h"
	.section	.debug_info,"",%progbits
.Ldebug_info0:
	.4byte	0x12e1
	.2byte	0x4
	.4byte	.Ldebug_abbrev0
	.byte	0x4
	.uleb128 0x1
	.4byte	.LASF300
	.byte	0xc
	.4byte	.LASF301
	.4byte	.LASF302
	.4byte	.Ldebug_ranges0+0x18
	.4byte	0
	.4byte	.Ldebug_line0
	.uleb128 0x2
	.4byte	.LASF10
	.byte	0x2
	.byte	0xd1
	.byte	0x17
	.4byte	0x31
	.uleb128 0x3
	.byte	0x4
	.byte	0x7
	.4byte	.LASF0
	.uleb128 0x4
	.byte	0x4
	.byte	0x5
	.ascii	"int\000"
	.uleb128 0x3
	.byte	0x8
	.byte	0x5
	.4byte	.LASF1
	.uleb128 0x3
	.byte	0x8
	.byte	0x4
	.4byte	.LASF2
	.uleb128 0x3
	.byte	0x1
	.byte	0x6
	.4byte	.LASF3
	.uleb128 0x3
	.byte	0x1
	.byte	0x8
	.4byte	.LASF4
	.uleb128 0x5
	.4byte	0x54
	.uleb128 0x3
	.byte	0x2
	.byte	0x5
	.4byte	.LASF5
	.uleb128 0x3
	.byte	0x2
	.byte	0x7
	.4byte	.LASF6
	.uleb128 0x3
	.byte	0x4
	.byte	0x5
	.4byte	.LASF7
	.uleb128 0x3
	.byte	0x4
	.byte	0x7
	.4byte	.LASF8
	.uleb128 0x3
	.byte	0x8
	.byte	0x7
	.4byte	.LASF9
	.uleb128 0x2
	.4byte	.LASF11
	.byte	0x3
	.byte	0x2e
	.byte	0xe
	.4byte	0x6e
	.uleb128 0x2
	.4byte	.LASF12
	.byte	0x3
	.byte	0x66
	.byte	0x10
	.4byte	0x83
	.uleb128 0x6
	.byte	0x4
	.uleb128 0x7
	.byte	0x4
	.4byte	0x54
	.uleb128 0x7
	.byte	0x4
	.4byte	0xa9
	.uleb128 0x3
	.byte	0x1
	.byte	0x8
	.4byte	.LASF13
	.uleb128 0x5
	.4byte	0xa9
	.uleb128 0x7
	.byte	0x4
	.4byte	0xb0
	.uleb128 0x2
	.4byte	.LASF14
	.byte	0x4
	.byte	0x37
	.byte	0x19
	.4byte	0x7c
	.uleb128 0x2
	.4byte	.LASF15
	.byte	0x5
	.byte	0xd
	.byte	0x17
	.4byte	0x54
	.uleb128 0x8
	.4byte	0xa9
	.4byte	0xe3
	.uleb128 0x9
	.4byte	0x31
	.byte	0
	.byte	0
	.uleb128 0x3
	.byte	0x4
	.byte	0x4
	.4byte	.LASF16
	.uleb128 0x3
	.byte	0x8
	.byte	0x4
	.4byte	.LASF17
	.uleb128 0xa
	.byte	0x7
	.byte	0x1
	.4byte	0x54
	.byte	0x5
	.byte	0x5e
	.byte	0x1
	.4byte	0x10c
	.uleb128 0xb
	.4byte	.LASF18
	.byte	0x4
	.uleb128 0xb
	.4byte	.LASF19
	.byte	0x2
	.byte	0
	.uleb128 0x2
	.4byte	.LASF20
	.byte	0x6
	.byte	0x42
	.byte	0x21
	.4byte	0x118
	.uleb128 0x7
	.byte	0x4
	.4byte	0x11e
	.uleb128 0xc
	.4byte	.LASF22
	.uleb128 0x2
	.4byte	.LASF21
	.byte	0x6
	.byte	0x49
	.byte	0x1e
	.4byte	0x12f
	.uleb128 0x7
	.byte	0x4
	.4byte	0x135
	.uleb128 0xc
	.4byte	.LASF23
	.uleb128 0x2
	.4byte	.LASF24
	.byte	0x6
	.byte	0x4d
	.byte	0x1c
	.4byte	0x146
	.uleb128 0x7
	.byte	0x4
	.4byte	0x14c
	.uleb128 0xc
	.4byte	.LASF25
	.uleb128 0xd
	.byte	0x8
	.byte	0x6
	.byte	0x65
	.byte	0x3
	.4byte	0x175
	.uleb128 0xe
	.ascii	"dbs\000"
	.byte	0x6
	.byte	0x66
	.byte	0x10
	.4byte	0x13a
	.byte	0
	.uleb128 0xf
	.4byte	.LASF26
	.byte	0x6
	.byte	0x67
	.byte	0x9
	.4byte	0x38
	.byte	0x4
	.byte	0
	.uleb128 0x10
	.4byte	.LASF62
	.byte	0x24
	.byte	0x6
	.byte	0x59
	.byte	0x8
	.4byte	0x1eb
	.uleb128 0xf
	.4byte	.LASF27
	.byte	0x6
	.byte	0x5c
	.byte	0x11
	.4byte	0x75
	.byte	0
	.uleb128 0xf
	.4byte	.LASF28
	.byte	0x6
	.byte	0x5f
	.byte	0x1a
	.4byte	0x1f0
	.byte	0x4
	.uleb128 0xf
	.4byte	.LASF29
	.byte	0x6
	.byte	0x62
	.byte	0x13
	.4byte	0x10c
	.byte	0x8
	.uleb128 0xf
	.4byte	.LASF30
	.byte	0x6
	.byte	0x68
	.byte	0x5
	.4byte	0x151
	.byte	0xc
	.uleb128 0xf
	.4byte	.LASF31
	.byte	0x6
	.byte	0x6b
	.byte	0x10
	.4byte	0x123
	.byte	0x14
	.uleb128 0xf
	.4byte	.LASF32
	.byte	0x6
	.byte	0x6d
	.byte	0x9
	.4byte	0xa3
	.byte	0x18
	.uleb128 0xf
	.4byte	.LASF33
	.byte	0x6
	.byte	0x6e
	.byte	0x9
	.4byte	0xa3
	.byte	0x1c
	.uleb128 0xf
	.4byte	.LASF34
	.byte	0x6
	.byte	0x6f
	.byte	0xa
	.4byte	0x25
	.byte	0x20
	.byte	0
	.uleb128 0xc
	.4byte	.LASF35
	.uleb128 0x7
	.byte	0x4
	.4byte	0x1eb
	.uleb128 0x2
	.4byte	.LASF36
	.byte	0x7
	.byte	0x5d
	.byte	0x17
	.4byte	0x75
	.uleb128 0x2
	.4byte	.LASF37
	.byte	0x7
	.byte	0x9d
	.byte	0x12
	.4byte	0x8f
	.uleb128 0x11
	.4byte	.LASF38
	.byte	0x8
	.2byte	0x2e6
	.byte	0x16
	.4byte	0x31
	.uleb128 0x2
	.4byte	.LASF39
	.byte	0x9
	.byte	0x2b
	.byte	0xd
	.4byte	0x38
	.uleb128 0xd
	.byte	0x38
	.byte	0xa
	.byte	0x66
	.byte	0x9
	.4byte	0x2a5
	.uleb128 0xe
	.ascii	"fp\000"
	.byte	0xa
	.byte	0x68
	.byte	0xe
	.4byte	0x21b
	.byte	0
	.uleb128 0xf
	.4byte	.LASF40
	.byte	0xa
	.byte	0x69
	.byte	0x7
	.4byte	0x38
	.byte	0x4
	.uleb128 0xf
	.4byte	.LASF41
	.byte	0xa
	.byte	0x6a
	.byte	0x7
	.4byte	0x38
	.byte	0x8
	.uleb128 0xf
	.4byte	.LASF42
	.byte	0xa
	.byte	0x6b
	.byte	0x7
	.4byte	0x38
	.byte	0xc
	.uleb128 0xf
	.4byte	.LASF43
	.byte	0xa
	.byte	0x6c
	.byte	0x7
	.4byte	0x38
	.byte	0x10
	.uleb128 0xf
	.4byte	.LASF44
	.byte	0xa
	.byte	0x6d
	.byte	0x8
	.4byte	0x2a5
	.byte	0x14
	.uleb128 0xf
	.4byte	.LASF45
	.byte	0xa
	.byte	0x6e
	.byte	0x8
	.4byte	0xc7
	.byte	0x34
	.uleb128 0xf
	.4byte	.LASF46
	.byte	0xa
	.byte	0x6f
	.byte	0x8
	.4byte	0xc7
	.byte	0x35
	.uleb128 0xf
	.4byte	.LASF47
	.byte	0xa
	.byte	0x70
	.byte	0x8
	.4byte	0xd3
	.byte	0x36
	.byte	0
	.uleb128 0x8
	.4byte	0xa9
	.4byte	0x2b5
	.uleb128 0x9
	.4byte	0x31
	.byte	0x1f
	.byte	0
	.uleb128 0x2
	.4byte	.LASF48
	.byte	0xa
	.byte	0x71
	.byte	0x3
	.4byte	0x227
	.uleb128 0xa
	.byte	0x7
	.byte	0x1
	.4byte	0x54
	.byte	0xa
	.byte	0x76
	.byte	0x3
	.4byte	0x300
	.uleb128 0xb
	.4byte	.LASF49
	.byte	0x1
	.uleb128 0xb
	.4byte	.LASF50
	.byte	0x2
	.uleb128 0xb
	.4byte	.LASF51
	.byte	0x3
	.uleb128 0xb
	.4byte	.LASF52
	.byte	0x4
	.uleb128 0xb
	.4byte	.LASF53
	.byte	0x5
	.uleb128 0xb
	.4byte	.LASF54
	.byte	0x6
	.uleb128 0xb
	.4byte	.LASF55
	.byte	0x7
	.uleb128 0xb
	.4byte	.LASF56
	.byte	0x10
	.byte	0
	.uleb128 0x12
	.4byte	.LASF91
	.byte	0x7
	.byte	0x1
	.4byte	0x54
	.byte	0xa
	.byte	0x8c
	.byte	0x6
	.4byte	0x32b
	.uleb128 0xb
	.4byte	.LASF57
	.byte	0
	.uleb128 0xb
	.4byte	.LASF58
	.byte	0x1
	.uleb128 0xb
	.4byte	.LASF59
	.byte	0x2
	.uleb128 0xb
	.4byte	.LASF60
	.byte	0x3
	.byte	0
	.uleb128 0x2
	.4byte	.LASF61
	.byte	0xa
	.byte	0xa0
	.byte	0x1e
	.4byte	0x337
	.uleb128 0x7
	.byte	0x4
	.4byte	0x33d
	.uleb128 0x10
	.4byte	.LASF63
	.byte	0x48
	.byte	0xa
	.byte	0xa4
	.byte	0x8
	.4byte	0x40d
	.uleb128 0xe
	.ascii	"use\000"
	.byte	0xa
	.byte	0xa8
	.byte	0x12
	.4byte	0x300
	.byte	0
	.uleb128 0xf
	.4byte	.LASF64
	.byte	0xa
	.byte	0xad
	.byte	0x9
	.4byte	0x202
	.byte	0x4
	.uleb128 0xf
	.4byte	.LASF65
	.byte	0xa
	.byte	0xb1
	.byte	0x9
	.4byte	0x202
	.byte	0x8
	.uleb128 0xf
	.4byte	.LASF66
	.byte	0xa
	.byte	0xb6
	.byte	0x9
	.4byte	0x202
	.byte	0xc
	.uleb128 0xf
	.4byte	.LASF67
	.byte	0xa
	.byte	0xbb
	.byte	0x7
	.4byte	0x38
	.byte	0x10
	.uleb128 0xe
	.ascii	"d\000"
	.byte	0xa
	.byte	0xdd
	.byte	0x5
	.4byte	0x419
	.byte	0x14
	.uleb128 0xf
	.4byte	.LASF68
	.byte	0xa
	.byte	0xe3
	.byte	0x7
	.4byte	0x38
	.byte	0x24
	.uleb128 0xf
	.4byte	.LASF69
	.byte	0xa
	.byte	0xe9
	.byte	0x7
	.4byte	0x38
	.byte	0x28
	.uleb128 0xf
	.4byte	.LASF70
	.byte	0xa
	.byte	0xed
	.byte	0x9
	.4byte	0x486
	.byte	0x2c
	.uleb128 0xf
	.4byte	.LASF71
	.byte	0xa
	.byte	0xf1
	.byte	0x9
	.4byte	0x9b
	.byte	0x30
	.uleb128 0xf
	.4byte	.LASF72
	.byte	0xa
	.byte	0xf4
	.byte	0x7
	.4byte	0x38
	.byte	0x34
	.uleb128 0xf
	.4byte	.LASF73
	.byte	0xa
	.byte	0xfa
	.byte	0x9
	.4byte	0xa3
	.byte	0x38
	.uleb128 0xf
	.4byte	.LASF74
	.byte	0xa
	.byte	0xfd
	.byte	0xb
	.4byte	0x32b
	.byte	0x3c
	.uleb128 0x13
	.ascii	"no\000"
	.byte	0xa
	.2byte	0x103
	.byte	0x7
	.4byte	0x38
	.byte	0x40
	.uleb128 0x14
	.4byte	.LASF75
	.byte	0xa
	.2byte	0x10b
	.byte	0x7
	.4byte	0x38
	.byte	0x44
	.byte	0
	.uleb128 0x2
	.4byte	.LASF76
	.byte	0xa
	.byte	0xa1
	.byte	0x1e
	.4byte	0x337
	.uleb128 0xd
	.byte	0x10
	.byte	0xa
	.byte	0xcf
	.byte	0x3
	.4byte	0x457
	.uleb128 0xf
	.4byte	.LASF77
	.byte	0xa
	.byte	0xd2
	.byte	0xc
	.4byte	0x25
	.byte	0
	.uleb128 0xf
	.4byte	.LASF78
	.byte	0xa
	.byte	0xd7
	.byte	0xc
	.4byte	0x25
	.byte	0x4
	.uleb128 0xe
	.ascii	"len\000"
	.byte	0xa
	.byte	0xda
	.byte	0xc
	.4byte	0x25
	.byte	0x8
	.uleb128 0xe
	.ascii	"buf\000"
	.byte	0xa
	.byte	0xdc
	.byte	0xb
	.4byte	0x457
	.byte	0xc
	.byte	0
	.uleb128 0x7
	.byte	0x4
	.4byte	0xc7
	.uleb128 0x15
	.4byte	0x38
	.4byte	0x480
	.uleb128 0x16
	.4byte	0x9b
	.uleb128 0x16
	.4byte	0x38
	.uleb128 0x16
	.4byte	0x32b
	.uleb128 0x16
	.4byte	0x457
	.uleb128 0x16
	.4byte	0x480
	.byte	0
	.uleb128 0x7
	.byte	0x4
	.4byte	0x25
	.uleb128 0x7
	.byte	0x4
	.4byte	0x45d
	.uleb128 0x2
	.4byte	.LASF79
	.byte	0xb
	.byte	0x24
	.byte	0x22
	.4byte	0x498
	.uleb128 0x7
	.byte	0x4
	.4byte	0x175
	.uleb128 0x17
	.byte	0x4
	.byte	0xc
	.2byte	0x260
	.byte	0x3
	.4byte	0x4dc
	.uleb128 0x18
	.4byte	.LASF80
	.byte	0xc
	.2byte	0x263
	.byte	0x12
	.4byte	0x31
	.byte	0x4
	.byte	0x1
	.byte	0x1f
	.byte	0
	.uleb128 0x18
	.4byte	.LASF81
	.byte	0xc
	.2byte	0x265
	.byte	0x12
	.4byte	0x31
	.byte	0x4
	.byte	0x1
	.byte	0x1e
	.byte	0
	.uleb128 0x18
	.4byte	.LASF82
	.byte	0xc
	.2byte	0x267
	.byte	0x12
	.4byte	0x31
	.byte	0x4
	.byte	0x1
	.byte	0x1d
	.byte	0
	.byte	0
	.uleb128 0x19
	.4byte	.LASF83
	.byte	0x1c
	.byte	0xc
	.2byte	0x248
	.byte	0x8
	.4byte	0x54d
	.uleb128 0x14
	.4byte	.LASF84
	.byte	0xc
	.2byte	0x24b
	.byte	0x9
	.4byte	0xa3
	.byte	0
	.uleb128 0x14
	.4byte	.LASF85
	.byte	0xc
	.2byte	0x250
	.byte	0x9
	.4byte	0xa3
	.byte	0x4
	.uleb128 0x14
	.4byte	.LASF86
	.byte	0xc
	.2byte	0x253
	.byte	0x9
	.4byte	0xa3
	.byte	0x8
	.uleb128 0x14
	.4byte	.LASF87
	.byte	0xc
	.2byte	0x256
	.byte	0x12
	.4byte	0x9d
	.byte	0xc
	.uleb128 0x14
	.4byte	.LASF88
	.byte	0xc
	.2byte	0x25f
	.byte	0xa
	.4byte	0x25
	.byte	0x10
	.uleb128 0x14
	.4byte	.LASF89
	.byte	0xc
	.2byte	0x268
	.byte	0x5
	.4byte	0x49e
	.byte	0x14
	.uleb128 0x14
	.4byte	.LASF90
	.byte	0xc
	.2byte	0x26b
	.byte	0x14
	.4byte	0x54d
	.byte	0x18
	.byte	0
	.uleb128 0x7
	.byte	0x4
	.4byte	0x4dc
	.uleb128 0x12
	.4byte	.LASF92
	.byte	0x7
	.byte	0x1
	.4byte	0x54
	.byte	0xd
	.byte	0x28
	.byte	0x6
	.4byte	0x590
	.uleb128 0xb
	.4byte	.LASF93
	.byte	0
	.uleb128 0xb
	.4byte	.LASF94
	.byte	0x1
	.uleb128 0xb
	.4byte	.LASF95
	.byte	0x2
	.uleb128 0xb
	.4byte	.LASF96
	.byte	0x3
	.uleb128 0xb
	.4byte	.LASF97
	.byte	0x4
	.uleb128 0xb
	.4byte	.LASF98
	.byte	0x5
	.uleb128 0xb
	.4byte	.LASF99
	.byte	0x6
	.byte	0
	.uleb128 0xa
	.byte	0x7
	.byte	0x1
	.4byte	0x54
	.byte	0xe
	.byte	0x8a
	.byte	0x5
	.4byte	0x5cf
	.uleb128 0xb
	.4byte	.LASF100
	.byte	0
	.uleb128 0xb
	.4byte	.LASF101
	.byte	0x1
	.uleb128 0xb
	.4byte	.LASF102
	.byte	0x2
	.uleb128 0xb
	.4byte	.LASF103
	.byte	0x3
	.uleb128 0xb
	.4byte	.LASF104
	.byte	0x4
	.uleb128 0xb
	.4byte	.LASF105
	.byte	0x5
	.uleb128 0xb
	.4byte	.LASF106
	.byte	0x6
	.uleb128 0xb
	.4byte	.LASF107
	.byte	0x7
	.byte	0
	.uleb128 0xa
	.byte	0x7
	.byte	0x1
	.4byte	0x54
	.byte	0xe
	.byte	0x92
	.byte	0x5
	.4byte	0x602
	.uleb128 0xb
	.4byte	.LASF108
	.byte	0
	.uleb128 0xb
	.4byte	.LASF109
	.byte	0x1
	.uleb128 0xb
	.4byte	.LASF110
	.byte	0x2
	.uleb128 0xb
	.4byte	.LASF111
	.byte	0x3
	.uleb128 0xb
	.4byte	.LASF112
	.byte	0x4
	.uleb128 0xb
	.4byte	.LASF113
	.byte	0x5
	.byte	0
	.uleb128 0xd
	.byte	0x10
	.byte	0xe
	.byte	0xa2
	.byte	0x3
	.4byte	0x640
	.uleb128 0xf
	.4byte	.LASF114
	.byte	0xe
	.byte	0xa4
	.byte	0x12
	.4byte	0x31
	.byte	0
	.uleb128 0xf
	.4byte	.LASF115
	.byte	0xe
	.byte	0xa5
	.byte	0x12
	.4byte	0x31
	.byte	0x4
	.uleb128 0xf
	.4byte	.LASF116
	.byte	0xe
	.byte	0xa6
	.byte	0x12
	.4byte	0x31
	.byte	0x8
	.uleb128 0xf
	.4byte	.LASF117
	.byte	0xe
	.byte	0xa7
	.byte	0xb
	.4byte	0xa3
	.byte	0xc
	.byte	0
	.uleb128 0xd
	.byte	0x4
	.byte	0xe
	.byte	0xe6
	.byte	0x3
	.4byte	0x75c
	.uleb128 0x1a
	.4byte	.LASF118
	.byte	0xe
	.byte	0xeb
	.byte	0x12
	.4byte	0x31
	.byte	0x4
	.byte	0x1
	.byte	0x1f
	.byte	0
	.uleb128 0x1a
	.4byte	.LASF119
	.byte	0xe
	.byte	0xed
	.byte	0x12
	.4byte	0x31
	.byte	0x4
	.byte	0x1
	.byte	0x1e
	.byte	0
	.uleb128 0x1a
	.4byte	.LASF120
	.byte	0xe
	.byte	0xee
	.byte	0x12
	.4byte	0x31
	.byte	0x4
	.byte	0x1
	.byte	0x1d
	.byte	0
	.uleb128 0x1a
	.4byte	.LASF121
	.byte	0xe
	.byte	0xef
	.byte	0x12
	.4byte	0x31
	.byte	0x4
	.byte	0x1
	.byte	0x1c
	.byte	0
	.uleb128 0x1a
	.4byte	.LASF122
	.byte	0xe
	.byte	0xf0
	.byte	0x12
	.4byte	0x31
	.byte	0x4
	.byte	0x1
	.byte	0x1b
	.byte	0
	.uleb128 0x1a
	.4byte	.LASF123
	.byte	0xe
	.byte	0xf1
	.byte	0x12
	.4byte	0x31
	.byte	0x4
	.byte	0x1
	.byte	0x1a
	.byte	0
	.uleb128 0x1a
	.4byte	.LASF124
	.byte	0xe
	.byte	0xf2
	.byte	0x12
	.4byte	0x31
	.byte	0x4
	.byte	0x1
	.byte	0x19
	.byte	0
	.uleb128 0x1a
	.4byte	.LASF125
	.byte	0xe
	.byte	0xf3
	.byte	0x12
	.4byte	0x31
	.byte	0x4
	.byte	0x1
	.byte	0x18
	.byte	0
	.uleb128 0x1a
	.4byte	.LASF126
	.byte	0xe
	.byte	0xf4
	.byte	0x12
	.4byte	0x31
	.byte	0x4
	.byte	0x1
	.byte	0x17
	.byte	0
	.uleb128 0x1a
	.4byte	.LASF127
	.byte	0xe
	.byte	0xf5
	.byte	0x12
	.4byte	0x31
	.byte	0x4
	.byte	0x1
	.byte	0x16
	.byte	0
	.uleb128 0x1a
	.4byte	.LASF128
	.byte	0xe
	.byte	0xf6
	.byte	0x12
	.4byte	0x31
	.byte	0x4
	.byte	0x1
	.byte	0x15
	.byte	0
	.uleb128 0x1a
	.4byte	.LASF129
	.byte	0xe
	.byte	0xf8
	.byte	0x12
	.4byte	0x31
	.byte	0x4
	.byte	0x1
	.byte	0x14
	.byte	0
	.uleb128 0x1a
	.4byte	.LASF130
	.byte	0xe
	.byte	0xfa
	.byte	0x12
	.4byte	0x31
	.byte	0x4
	.byte	0x1
	.byte	0x13
	.byte	0
	.uleb128 0x1a
	.4byte	.LASF131
	.byte	0xe
	.byte	0xfd
	.byte	0x12
	.4byte	0x31
	.byte	0x4
	.byte	0x1
	.byte	0x12
	.byte	0
	.uleb128 0x1a
	.4byte	.LASF132
	.byte	0xe
	.byte	0xff
	.byte	0x12
	.4byte	0x31
	.byte	0x4
	.byte	0x1
	.byte	0x11
	.byte	0
	.uleb128 0x18
	.4byte	.LASF133
	.byte	0xe
	.2byte	0x102
	.byte	0x12
	.4byte	0x31
	.byte	0x4
	.byte	0x1
	.byte	0x10
	.byte	0
	.uleb128 0x18
	.4byte	.LASF134
	.byte	0xe
	.2byte	0x105
	.byte	0x12
	.4byte	0x31
	.byte	0x4
	.byte	0x1
	.byte	0xf
	.byte	0
	.byte	0
	.uleb128 0x1b
	.byte	0x7
	.byte	0x1
	.4byte	0x54
	.byte	0xe
	.2byte	0x10c
	.byte	0xa
	.4byte	0x7a8
	.uleb128 0xb
	.4byte	.LASF135
	.byte	0
	.uleb128 0xb
	.4byte	.LASF136
	.byte	0x1
	.uleb128 0xb
	.4byte	.LASF137
	.byte	0x2
	.uleb128 0xb
	.4byte	.LASF138
	.byte	0x3
	.uleb128 0xb
	.4byte	.LASF139
	.byte	0x4
	.uleb128 0xb
	.4byte	.LASF140
	.byte	0x5
	.uleb128 0xb
	.4byte	.LASF141
	.byte	0x6
	.uleb128 0xb
	.4byte	.LASF142
	.byte	0x7
	.uleb128 0xb
	.4byte	.LASF143
	.byte	0x8
	.uleb128 0xb
	.4byte	.LASF144
	.byte	0x9
	.byte	0
	.uleb128 0x1c
	.ascii	"akl\000"
	.byte	0x8
	.byte	0xe
	.2byte	0x10a
	.byte	0xa
	.4byte	0x7d3
	.uleb128 0x14
	.4byte	.LASF145
	.byte	0xe
	.2byte	0x117
	.byte	0x7
	.4byte	0x75c
	.byte	0
	.uleb128 0x14
	.4byte	.LASF90
	.byte	0xe
	.2byte	0x119
	.byte	0x11
	.4byte	0x7d3
	.byte	0x4
	.byte	0
	.uleb128 0x7
	.byte	0x4
	.4byte	0x7a8
	.uleb128 0x1d
	.2byte	0x220
	.byte	0xe
	.byte	0x2e
	.byte	0x1
	.4byte	0xef6
	.uleb128 0xf
	.4byte	.LASF146
	.byte	0xe
	.byte	0x30
	.byte	0x7
	.4byte	0x38
	.byte	0
	.uleb128 0xf
	.4byte	.LASF147
	.byte	0xe
	.byte	0x31
	.byte	0x7
	.4byte	0x38
	.byte	0x4
	.uleb128 0xf
	.4byte	.LASF148
	.byte	0xe
	.byte	0x32
	.byte	0xc
	.4byte	0x31
	.byte	0x8
	.uleb128 0xf
	.4byte	.LASF149
	.byte	0xe
	.byte	0x33
	.byte	0x7
	.4byte	0x38
	.byte	0xc
	.uleb128 0xf
	.4byte	.LASF150
	.byte	0xe
	.byte	0x34
	.byte	0x9
	.4byte	0xa3
	.byte	0x10
	.uleb128 0xf
	.4byte	.LASF151
	.byte	0xe
	.byte	0x36
	.byte	0x9
	.4byte	0x202
	.byte	0x14
	.uleb128 0xf
	.4byte	.LASF152
	.byte	0xe
	.byte	0x3b
	.byte	0xc
	.4byte	0xbb
	.byte	0x18
	.uleb128 0xf
	.4byte	.LASF153
	.byte	0xe
	.byte	0x3d
	.byte	0x7
	.4byte	0x38
	.byte	0x20
	.uleb128 0xf
	.4byte	.LASF154
	.byte	0xe
	.byte	0x3e
	.byte	0x7
	.4byte	0x38
	.byte	0x24
	.uleb128 0xf
	.4byte	.LASF155
	.byte	0xe
	.byte	0x3f
	.byte	0x7
	.4byte	0x38
	.byte	0x28
	.uleb128 0xf
	.4byte	.LASF156
	.byte	0xe
	.byte	0x40
	.byte	0x7
	.4byte	0x38
	.byte	0x2c
	.uleb128 0xf
	.4byte	.LASF157
	.byte	0xe
	.byte	0x41
	.byte	0x7
	.4byte	0x38
	.byte	0x30
	.uleb128 0xf
	.4byte	.LASF158
	.byte	0xe
	.byte	0x42
	.byte	0x7
	.4byte	0x38
	.byte	0x34
	.uleb128 0xf
	.4byte	.LASF159
	.byte	0xe
	.byte	0x43
	.byte	0xf
	.4byte	0xb5
	.byte	0x38
	.uleb128 0xf
	.4byte	.LASF160
	.byte	0xe
	.byte	0x44
	.byte	0x7
	.4byte	0x38
	.byte	0x3c
	.uleb128 0xf
	.4byte	.LASF161
	.byte	0xe
	.byte	0x45
	.byte	0xf
	.4byte	0xb5
	.byte	0x40
	.uleb128 0xf
	.4byte	.LASF162
	.byte	0xe
	.byte	0x46
	.byte	0x7
	.4byte	0x38
	.byte	0x44
	.uleb128 0xf
	.4byte	.LASF163
	.byte	0xe
	.byte	0x47
	.byte	0x7
	.4byte	0x38
	.byte	0x48
	.uleb128 0xf
	.4byte	.LASF164
	.byte	0xe
	.byte	0x48
	.byte	0x7
	.4byte	0x38
	.byte	0x4c
	.uleb128 0xf
	.4byte	.LASF165
	.byte	0xe
	.byte	0x49
	.byte	0x7
	.4byte	0x38
	.byte	0x50
	.uleb128 0xf
	.4byte	.LASF166
	.byte	0xe
	.byte	0x4a
	.byte	0x7
	.4byte	0x38
	.byte	0x54
	.uleb128 0xf
	.4byte	.LASF167
	.byte	0xe
	.byte	0x4b
	.byte	0x7
	.4byte	0x38
	.byte	0x58
	.uleb128 0xf
	.4byte	.LASF168
	.byte	0xe
	.byte	0x4c
	.byte	0x7
	.4byte	0x38
	.byte	0x5c
	.uleb128 0xf
	.4byte	.LASF169
	.byte	0xe
	.byte	0x4d
	.byte	0x7
	.4byte	0x38
	.byte	0x60
	.uleb128 0xf
	.4byte	.LASF170
	.byte	0xe
	.byte	0x4e
	.byte	0x7
	.4byte	0x38
	.byte	0x64
	.uleb128 0xf
	.4byte	.LASF171
	.byte	0xe
	.byte	0x4f
	.byte	0x7
	.4byte	0x38
	.byte	0x68
	.uleb128 0xf
	.4byte	.LASF172
	.byte	0xe
	.byte	0x50
	.byte	0x7
	.4byte	0x38
	.byte	0x6c
	.uleb128 0xf
	.4byte	.LASF173
	.byte	0xe
	.byte	0x51
	.byte	0x7
	.4byte	0x38
	.byte	0x70
	.uleb128 0xf
	.4byte	.LASF174
	.byte	0xe
	.byte	0x52
	.byte	0x7
	.4byte	0x38
	.byte	0x74
	.uleb128 0xf
	.4byte	.LASF175
	.byte	0xe
	.byte	0x53
	.byte	0x7
	.4byte	0x38
	.byte	0x78
	.uleb128 0xf
	.4byte	.LASF176
	.byte	0xe
	.byte	0x54
	.byte	0x7
	.4byte	0x38
	.byte	0x7c
	.uleb128 0xf
	.4byte	.LASF177
	.byte	0xe
	.byte	0x55
	.byte	0x7
	.4byte	0x38
	.byte	0x80
	.uleb128 0xf
	.4byte	.LASF178
	.byte	0xe
	.byte	0x56
	.byte	0x7
	.4byte	0x38
	.byte	0x84
	.uleb128 0xf
	.4byte	.LASF179
	.byte	0xe
	.byte	0x57
	.byte	0x7
	.4byte	0x38
	.byte	0x88
	.uleb128 0xf
	.4byte	.LASF180
	.byte	0xe
	.byte	0x58
	.byte	0x7
	.4byte	0x38
	.byte	0x8c
	.uleb128 0xf
	.4byte	.LASF181
	.byte	0xe
	.byte	0x59
	.byte	0x7
	.4byte	0x38
	.byte	0x90
	.uleb128 0xf
	.4byte	.LASF182
	.byte	0xe
	.byte	0x5a
	.byte	0x7
	.4byte	0x38
	.byte	0x94
	.uleb128 0xf
	.4byte	.LASF183
	.byte	0xe
	.byte	0x5b
	.byte	0x7
	.4byte	0x38
	.byte	0x98
	.uleb128 0xf
	.4byte	.LASF184
	.byte	0xe
	.byte	0x5c
	.byte	0x7
	.4byte	0x38
	.byte	0x9c
	.uleb128 0xf
	.4byte	.LASF185
	.byte	0xe
	.byte	0x5d
	.byte	0x7
	.4byte	0x38
	.byte	0xa0
	.uleb128 0xf
	.4byte	.LASF186
	.byte	0xe
	.byte	0x5e
	.byte	0x7
	.4byte	0x38
	.byte	0xa4
	.uleb128 0xf
	.4byte	.LASF187
	.byte	0xe
	.byte	0x5f
	.byte	0x7
	.4byte	0x38
	.byte	0xa8
	.uleb128 0xf
	.4byte	.LASF188
	.byte	0xe
	.byte	0x60
	.byte	0x7
	.4byte	0x38
	.byte	0xac
	.uleb128 0xf
	.4byte	.LASF189
	.byte	0xe
	.byte	0x61
	.byte	0x7
	.4byte	0x38
	.byte	0xb0
	.uleb128 0xf
	.4byte	.LASF190
	.byte	0xe
	.byte	0x63
	.byte	0x9
	.4byte	0xa3
	.byte	0xb4
	.uleb128 0xf
	.4byte	.LASF191
	.byte	0xe
	.byte	0x64
	.byte	0x7
	.4byte	0x38
	.byte	0xb8
	.uleb128 0xf
	.4byte	.LASF192
	.byte	0xe
	.byte	0x6e
	.byte	0x7
	.4byte	0x38
	.byte	0xbc
	.uleb128 0xf
	.4byte	.LASF193
	.byte	0xe
	.byte	0x6f
	.byte	0x7
	.4byte	0x38
	.byte	0xc0
	.uleb128 0xf
	.4byte	.LASF194
	.byte	0xe
	.byte	0x70
	.byte	0x7
	.4byte	0x38
	.byte	0xc4
	.uleb128 0xf
	.4byte	.LASF195
	.byte	0xe
	.byte	0x71
	.byte	0x7
	.4byte	0x38
	.byte	0xc8
	.uleb128 0xf
	.4byte	.LASF196
	.byte	0xe
	.byte	0x76
	.byte	0x7
	.4byte	0x38
	.byte	0xcc
	.uleb128 0xf
	.4byte	.LASF197
	.byte	0xe
	.byte	0x77
	.byte	0x7
	.4byte	0x38
	.byte	0xd0
	.uleb128 0xf
	.4byte	.LASF198
	.byte	0xe
	.byte	0x78
	.byte	0x7
	.4byte	0x38
	.byte	0xd4
	.uleb128 0xf
	.4byte	.LASF199
	.byte	0xe
	.byte	0x79
	.byte	0xf
	.4byte	0xb5
	.byte	0xd8
	.uleb128 0xf
	.4byte	.LASF200
	.byte	0xe
	.byte	0x7a
	.byte	0xf
	.4byte	0xb5
	.byte	0xdc
	.uleb128 0xf
	.4byte	.LASF201
	.byte	0xe
	.byte	0x7b
	.byte	0x7
	.4byte	0x38
	.byte	0xe0
	.uleb128 0xf
	.4byte	.LASF202
	.byte	0xe
	.byte	0x7d
	.byte	0xf
	.4byte	0xb5
	.byte	0xe4
	.uleb128 0xf
	.4byte	.LASF203
	.byte	0xe
	.byte	0x81
	.byte	0x9
	.4byte	0xa3
	.byte	0xe8
	.uleb128 0xf
	.4byte	.LASF204
	.byte	0xe
	.byte	0x82
	.byte	0x9
	.4byte	0xa3
	.byte	0xec
	.uleb128 0xf
	.4byte	.LASF205
	.byte	0xe
	.byte	0x84
	.byte	0x7
	.4byte	0x38
	.byte	0xf0
	.uleb128 0xf
	.4byte	.LASF206
	.byte	0xe
	.byte	0x85
	.byte	0x7
	.4byte	0x38
	.byte	0xf4
	.uleb128 0xf
	.4byte	.LASF207
	.byte	0xe
	.byte	0x8d
	.byte	0x7
	.4byte	0x590
	.byte	0xf8
	.uleb128 0xf
	.4byte	.LASF208
	.byte	0xe
	.byte	0x8f
	.byte	0x7
	.4byte	0x38
	.byte	0xfc
	.uleb128 0x1e
	.4byte	.LASF209
	.byte	0xe
	.byte	0x90
	.byte	0x1e
	.4byte	0x553
	.2byte	0x100
	.uleb128 0x1e
	.4byte	.LASF210
	.byte	0xe
	.byte	0x94
	.byte	0x7
	.4byte	0x5cf
	.2byte	0x101
	.uleb128 0x1e
	.4byte	.LASF211
	.byte	0xe
	.byte	0x95
	.byte	0xf
	.4byte	0xb5
	.2byte	0x104
	.uleb128 0x1e
	.4byte	.LASF212
	.byte	0xe
	.byte	0x97
	.byte	0x7
	.4byte	0x38
	.2byte	0x108
	.uleb128 0x1e
	.4byte	.LASF213
	.byte	0xe
	.byte	0x98
	.byte	0xf
	.4byte	0xb5
	.2byte	0x10c
	.uleb128 0x1e
	.4byte	.LASF214
	.byte	0xe
	.byte	0x99
	.byte	0x7
	.4byte	0x38
	.2byte	0x110
	.uleb128 0x1e
	.4byte	.LASF215
	.byte	0xe
	.byte	0x9a
	.byte	0x7
	.4byte	0x38
	.2byte	0x114
	.uleb128 0x1e
	.4byte	.LASF216
	.byte	0xe
	.byte	0x9b
	.byte	0x7
	.4byte	0x38
	.2byte	0x118
	.uleb128 0x1e
	.4byte	.LASF217
	.byte	0xe
	.byte	0x9c
	.byte	0x11
	.4byte	0x54
	.2byte	0x11c
	.uleb128 0x1e
	.4byte	.LASF218
	.byte	0xe
	.byte	0x9e
	.byte	0x7
	.4byte	0x38
	.2byte	0x120
	.uleb128 0x1e
	.4byte	.LASF219
	.byte	0xe
	.byte	0x9f
	.byte	0x7
	.4byte	0x38
	.2byte	0x124
	.uleb128 0x1e
	.4byte	.LASF220
	.byte	0xe
	.byte	0xa0
	.byte	0x7
	.4byte	0x38
	.2byte	0x128
	.uleb128 0x1e
	.4byte	.LASF221
	.byte	0xe
	.byte	0xa8
	.byte	0x5
	.4byte	0x602
	.2byte	0x12c
	.uleb128 0x1e
	.4byte	.LASF222
	.byte	0xe
	.byte	0xa9
	.byte	0x7
	.4byte	0x38
	.2byte	0x13c
	.uleb128 0x1e
	.4byte	.LASF223
	.byte	0xe
	.byte	0xaa
	.byte	0x7
	.4byte	0x38
	.2byte	0x140
	.uleb128 0x1e
	.4byte	.LASF115
	.byte	0xe
	.byte	0xab
	.byte	0x10
	.4byte	0x31
	.2byte	0x144
	.uleb128 0x1e
	.4byte	.LASF116
	.byte	0xe
	.byte	0xac
	.byte	0x10
	.4byte	0x31
	.2byte	0x148
	.uleb128 0x1e
	.4byte	.LASF224
	.byte	0xe
	.byte	0xad
	.byte	0x10
	.4byte	0x31
	.2byte	0x14c
	.uleb128 0x1e
	.4byte	.LASF225
	.byte	0xe
	.byte	0xae
	.byte	0x10
	.4byte	0x31
	.2byte	0x150
	.uleb128 0x1e
	.4byte	.LASF226
	.byte	0xe
	.byte	0xaf
	.byte	0xf
	.4byte	0xb5
	.2byte	0x154
	.uleb128 0x1e
	.4byte	.LASF227
	.byte	0xe
	.byte	0xb0
	.byte	0xf
	.4byte	0xb5
	.2byte	0x158
	.uleb128 0x1e
	.4byte	.LASF228
	.byte	0xe
	.byte	0xb4
	.byte	0x14
	.4byte	0xefb
	.2byte	0x15c
	.uleb128 0x1e
	.4byte	.LASF229
	.byte	0xe
	.byte	0xb5
	.byte	0x7
	.4byte	0x38
	.2byte	0x160
	.uleb128 0x1e
	.4byte	.LASF230
	.byte	0xe
	.byte	0xb6
	.byte	0x9
	.4byte	0xa3
	.2byte	0x164
	.uleb128 0x1e
	.4byte	.LASF231
	.byte	0xe
	.byte	0xb7
	.byte	0x7
	.4byte	0x38
	.2byte	0x168
	.uleb128 0x1e
	.4byte	.LASF232
	.byte	0xe
	.byte	0xb8
	.byte	0x7
	.4byte	0x38
	.2byte	0x16c
	.uleb128 0x1e
	.4byte	.LASF233
	.byte	0xe
	.byte	0xb9
	.byte	0x7
	.4byte	0x38
	.2byte	0x170
	.uleb128 0x1e
	.4byte	.LASF234
	.byte	0xe
	.byte	0xba
	.byte	0x14
	.4byte	0x54d
	.2byte	0x174
	.uleb128 0x1e
	.4byte	.LASF235
	.byte	0xe
	.byte	0xbb
	.byte	0x14
	.4byte	0x54d
	.2byte	0x178
	.uleb128 0x1e
	.4byte	.LASF236
	.byte	0xe
	.byte	0xc1
	.byte	0x7
	.4byte	0x38
	.2byte	0x17c
	.uleb128 0x1e
	.4byte	.LASF237
	.byte	0xe
	.byte	0xc2
	.byte	0x7
	.4byte	0x38
	.2byte	0x180
	.uleb128 0x1e
	.4byte	.LASF238
	.byte	0xe
	.byte	0xc3
	.byte	0x7
	.4byte	0x38
	.2byte	0x184
	.uleb128 0x1e
	.4byte	.LASF239
	.byte	0xe
	.byte	0xc4
	.byte	0x9
	.4byte	0x1f6
	.2byte	0x188
	.uleb128 0x1e
	.4byte	.LASF240
	.byte	0xe
	.byte	0xc5
	.byte	0x7
	.4byte	0x38
	.2byte	0x18c
	.uleb128 0x1e
	.4byte	.LASF241
	.byte	0xe
	.byte	0xc6
	.byte	0x7
	.4byte	0x38
	.2byte	0x190
	.uleb128 0x1e
	.4byte	.LASF242
	.byte	0xe
	.byte	0xc7
	.byte	0x7
	.4byte	0x38
	.2byte	0x194
	.uleb128 0x1e
	.4byte	.LASF243
	.byte	0xe
	.byte	0xc8
	.byte	0x7
	.4byte	0x38
	.2byte	0x198
	.uleb128 0x1e
	.4byte	.LASF244
	.byte	0xe
	.byte	0xc9
	.byte	0x7
	.4byte	0x38
	.2byte	0x19c
	.uleb128 0x1e
	.4byte	.LASF245
	.byte	0xe
	.byte	0xca
	.byte	0x7
	.4byte	0x38
	.2byte	0x1a0
	.uleb128 0x1e
	.4byte	.LASF246
	.byte	0xe
	.byte	0xcb
	.byte	0x7
	.4byte	0x38
	.2byte	0x1a4
	.uleb128 0x1e
	.4byte	.LASF247
	.byte	0xe
	.byte	0xcc
	.byte	0xf
	.4byte	0xb5
	.2byte	0x1a8
	.uleb128 0x1e
	.4byte	.LASF248
	.byte	0xe
	.byte	0xcd
	.byte	0x7
	.4byte	0x38
	.2byte	0x1ac
	.uleb128 0x1e
	.4byte	.LASF249
	.byte	0xe
	.byte	0xcf
	.byte	0xf
	.4byte	0xb5
	.2byte	0x1b0
	.uleb128 0x1e
	.4byte	.LASF250
	.byte	0xe
	.byte	0xd0
	.byte	0x7
	.4byte	0x38
	.2byte	0x1b4
	.uleb128 0x1e
	.4byte	.LASF251
	.byte	0xe
	.byte	0xd1
	.byte	0x7
	.4byte	0x38
	.2byte	0x1b8
	.uleb128 0x1e
	.4byte	.LASF252
	.byte	0xe
	.byte	0xd2
	.byte	0x7
	.4byte	0x38
	.2byte	0x1bc
	.uleb128 0x1e
	.4byte	.LASF253
	.byte	0xe
	.byte	0xd3
	.byte	0x7
	.4byte	0x38
	.2byte	0x1c0
	.uleb128 0x1e
	.4byte	.LASF254
	.byte	0xe
	.byte	0xd4
	.byte	0x7
	.4byte	0x38
	.2byte	0x1c4
	.uleb128 0x1e
	.4byte	.LASF255
	.byte	0xe
	.byte	0xd5
	.byte	0x7
	.4byte	0x38
	.2byte	0x1c8
	.uleb128 0x1e
	.4byte	.LASF256
	.byte	0xe
	.byte	0xd6
	.byte	0x15
	.4byte	0xf06
	.2byte	0x1cc
	.uleb128 0x1e
	.4byte	.LASF257
	.byte	0xe
	.byte	0xd7
	.byte	0x7
	.4byte	0x38
	.2byte	0x1d0
	.uleb128 0x1e
	.4byte	.LASF258
	.byte	0xe
	.byte	0xd8
	.byte	0x7
	.4byte	0x38
	.2byte	0x1d4
	.uleb128 0x1e
	.4byte	.LASF259
	.byte	0xe
	.byte	0xd9
	.byte	0x10
	.4byte	0x31
	.2byte	0x1d8
	.uleb128 0x1e
	.4byte	.LASF260
	.byte	0xe
	.byte	0xda
	.byte	0x10
	.4byte	0x31
	.2byte	0x1dc
	.uleb128 0x1e
	.4byte	.LASF261
	.byte	0xe
	.byte	0xdb
	.byte	0x9
	.4byte	0x457
	.2byte	0x1e0
	.uleb128 0x1e
	.4byte	.LASF262
	.byte	0xe
	.byte	0xdc
	.byte	0x7
	.4byte	0x38
	.2byte	0x1e4
	.uleb128 0x1e
	.4byte	.LASF263
	.byte	0xe
	.byte	0xdd
	.byte	0x10
	.4byte	0x31
	.2byte	0x1e8
	.uleb128 0x1e
	.4byte	.LASF264
	.byte	0xe
	.byte	0xe0
	.byte	0x7
	.4byte	0x38
	.2byte	0x1ec
	.uleb128 0x1e
	.4byte	.LASF265
	.byte	0xe
	.byte	0xe4
	.byte	0x7
	.4byte	0x38
	.2byte	0x1f0
	.uleb128 0x1f
	.4byte	.LASF89
	.byte	0xe
	.2byte	0x106
	.byte	0x5
	.4byte	0x640
	.2byte	0x1f4
	.uleb128 0x1f
	.4byte	.LASF266
	.byte	0xe
	.2byte	0x11a
	.byte	0x6
	.4byte	0x7d3
	.2byte	0x1f8
	.uleb128 0x1f
	.4byte	.LASF267
	.byte	0xe
	.2byte	0x11d
	.byte	0x7
	.4byte	0x38
	.2byte	0x1fc
	.uleb128 0x1f
	.4byte	.LASF268
	.byte	0xe
	.2byte	0x11e
	.byte	0x9
	.4byte	0xa3
	.2byte	0x200
	.uleb128 0x1f
	.4byte	.LASF269
	.byte	0xe
	.2byte	0x120
	.byte	0x7
	.4byte	0x38
	.2byte	0x204
	.uleb128 0x1f
	.4byte	.LASF270
	.byte	0xe
	.2byte	0x121
	.byte	0x7
	.4byte	0x38
	.2byte	0x208
	.uleb128 0x1f
	.4byte	.LASF271
	.byte	0xe
	.2byte	0x122
	.byte	0x7
	.4byte	0x38
	.2byte	0x20c
	.uleb128 0x1f
	.4byte	.LASF272
	.byte	0xe
	.2byte	0x124
	.byte	0x7
	.4byte	0x38
	.2byte	0x210
	.uleb128 0x1f
	.4byte	.LASF273
	.byte	0xe
	.2byte	0x125
	.byte	0x7
	.4byte	0x38
	.2byte	0x214
	.uleb128 0x1f
	.4byte	.LASF274
	.byte	0xe
	.2byte	0x127
	.byte	0x7
	.4byte	0x38
	.2byte	0x218
	.uleb128 0x1f
	.4byte	.LASF275
	.byte	0xe
	.2byte	0x12a
	.byte	0x10
	.4byte	0x31
	.2byte	0x21c
	.byte	0
	.uleb128 0xc
	.4byte	.LASF276
	.uleb128 0x7
	.byte	0x4
	.4byte	0xef6
	.uleb128 0xc
	.4byte	.LASF277
	.uleb128 0x7
	.byte	0x4
	.4byte	0xf01
	.uleb128 0x20
	.ascii	"opt\000"
	.byte	0xe
	.2byte	0x12b
	.byte	0x3
	.4byte	0x7d9
	.uleb128 0x5
	.byte	0x3
	.4byte	opt
	.uleb128 0x21
	.4byte	.LASF280
	.byte	0x1
	.byte	0x6e
	.byte	0x1
	.4byte	0x38
	.4byte	.LFB20
	.4byte	.LFE20-.LFB20
	.uleb128 0x1
	.byte	0x9c
	.4byte	0xff5
	.uleb128 0x22
	.4byte	.LASF278
	.byte	0x1
	.byte	0x6e
	.byte	0x19
	.4byte	0x48c
	.4byte	.LLST7
	.4byte	.LVUS7
	.uleb128 0x22
	.4byte	.LASF279
	.byte	0x1
	.byte	0x6e
	.byte	0x2b
	.4byte	0xb5
	.4byte	.LLST8
	.4byte	.LVUS8
	.uleb128 0x23
	.ascii	"fp\000"
	.byte	0x1
	.byte	0x71
	.byte	0x9
	.4byte	0x40d
	.4byte	.LLST9
	.4byte	.LVUS9
	.uleb128 0x23
	.ascii	"rc\000"
	.byte	0x1
	.byte	0x74
	.byte	0x7
	.4byte	0x38
	.4byte	.LLST10
	.4byte	.LVUS10
	.uleb128 0x24
	.4byte	.LVL27
	.4byte	0x1233
	.4byte	0xf9b
	.uleb128 0x25
	.uleb128 0x1
	.byte	0x51
	.uleb128 0x2
	.byte	0x74
	.sleb128 0
	.byte	0
	.uleb128 0x24
	.4byte	.LVL28
	.4byte	0x123f
	.4byte	0xfaf
	.uleb128 0x25
	.uleb128 0x1
	.byte	0x50
	.uleb128 0x2
	.byte	0x74
	.sleb128 0
	.byte	0
	.uleb128 0x24
	.4byte	.LVL30
	.4byte	0x124c
	.4byte	0xfc3
	.uleb128 0x25
	.uleb128 0x1
	.byte	0x50
	.uleb128 0x2
	.byte	0x74
	.sleb128 0
	.byte	0
	.uleb128 0x26
	.4byte	.LVL31
	.4byte	0x1233
	.uleb128 0x24
	.4byte	.LVL32
	.4byte	0x1259
	.4byte	0xfeb
	.uleb128 0x25
	.uleb128 0x1
	.byte	0x50
	.uleb128 0x2
	.byte	0x75
	.sleb128 0
	.uleb128 0x25
	.uleb128 0x1
	.byte	0x51
	.uleb128 0x1
	.byte	0x30
	.uleb128 0x25
	.uleb128 0x1
	.byte	0x52
	.uleb128 0x2
	.byte	0x74
	.sleb128 0
	.byte	0
	.uleb128 0x26
	.4byte	.LVL34
	.4byte	0x1266
	.byte	0
	.uleb128 0x21
	.4byte	.LASF281
	.byte	0x1
	.byte	0x2b
	.byte	0x5
	.4byte	0x38
	.4byte	.LFB19
	.4byte	.LFE19-.LFB19
	.uleb128 0x1
	.byte	0x9c
	.4byte	0x1219
	.uleb128 0x22
	.4byte	.LASF278
	.byte	0x1
	.byte	0x2b
	.byte	0x1b
	.4byte	0x48c
	.4byte	.LLST0
	.4byte	.LVUS0
	.uleb128 0x22
	.4byte	.LASF282
	.byte	0x1
	.byte	0x2b
	.byte	0x36
	.4byte	0x1219
	.4byte	.LLST1
	.4byte	.LVUS1
	.uleb128 0x22
	.4byte	.LASF283
	.byte	0x1
	.byte	0x2b
	.byte	0x43
	.4byte	0x25
	.4byte	.LLST2
	.4byte	.LVUS2
	.uleb128 0x23
	.ascii	"a\000"
	.byte	0x1
	.byte	0x32
	.byte	0xd
	.4byte	0x32b
	.4byte	.LLST3
	.4byte	.LVUS3
	.uleb128 0x23
	.ascii	"rc\000"
	.byte	0x1
	.byte	0x33
	.byte	0x9
	.4byte	0x38
	.4byte	.LLST4
	.4byte	.LVUS4
	.uleb128 0x23
	.ascii	"fp\000"
	.byte	0x1
	.byte	0x34
	.byte	0x10
	.4byte	0x21b
	.4byte	.LLST5
	.4byte	.LVUS5
	.uleb128 0x23
	.ascii	"fcx\000"
	.byte	0x1
	.byte	0x35
	.byte	0x18
	.4byte	0x121f
	.4byte	.LLST6
	.4byte	.LVUS6
	.uleb128 0x27
	.ascii	"len\000"
	.byte	0x1
	.byte	0x36
	.byte	0xc
	.4byte	0x25
	.uleb128 0x2
	.byte	0x91
	.sleb128 -36
	.uleb128 0x28
	.4byte	.LASF284
	.byte	0x1
	.byte	0x37
	.byte	0x9
	.4byte	0x38
	.byte	0
	.uleb128 0x29
	.4byte	.LASF285
	.byte	0x1
	.byte	0x39
	.byte	0x11
	.4byte	0xb5
	.uleb128 0x6
	.byte	0x3
	.4byte	.LC2
	.byte	0x9f
	.uleb128 0x28
	.4byte	.LASF47
	.byte	0x1
	.byte	0x3a
	.byte	0x11
	.4byte	0xb5
	.byte	0
	.uleb128 0x2a
	.ascii	"fd\000"
	.byte	0x1
	.byte	0x3b
	.byte	0x9
	.4byte	0x38
	.byte	0
	.uleb128 0x2a
	.ascii	"use\000"
	.byte	0x1
	.byte	0x3c
	.byte	0x9
	.4byte	0x38
	.byte	0
	.uleb128 0x2b
	.4byte	.Ldebug_ranges0+0
	.4byte	0x1118
	.uleb128 0x2c
	.4byte	.LASF291
	.byte	0x1
	.byte	0x4c
	.byte	0x17
	.4byte	0x38
	.4byte	0x1107
	.uleb128 0x2d
	.byte	0
	.uleb128 0x2e
	.4byte	.LVL19
	.4byte	0x1273
	.uleb128 0x25
	.uleb128 0x1
	.byte	0x50
	.uleb128 0x2
	.byte	0x74
	.sleb128 0
	.byte	0
	.byte	0
	.uleb128 0x26
	.4byte	.LVL2
	.4byte	0x1233
	.uleb128 0x26
	.4byte	.LVL3
	.4byte	0x1233
	.uleb128 0x24
	.4byte	.LVL5
	.4byte	0x127f
	.4byte	0x1144
	.uleb128 0x25
	.uleb128 0x1
	.byte	0x50
	.uleb128 0x2
	.byte	0x76
	.sleb128 0
	.uleb128 0x25
	.uleb128 0x1
	.byte	0x51
	.uleb128 0x2
	.byte	0x75
	.sleb128 0
	.byte	0
	.uleb128 0x24
	.4byte	.LVL9
	.4byte	0x128c
	.4byte	0x115e
	.uleb128 0x25
	.uleb128 0x1
	.byte	0x50
	.uleb128 0x2
	.byte	0x74
	.sleb128 0
	.uleb128 0x25
	.uleb128 0x1
	.byte	0x51
	.uleb128 0x2
	.byte	0x74
	.sleb128 0
	.byte	0
	.uleb128 0x24
	.4byte	.LVL10
	.4byte	0x1299
	.4byte	0x1172
	.uleb128 0x25
	.uleb128 0x1
	.byte	0x51
	.uleb128 0x2
	.byte	0x75
	.sleb128 0
	.byte	0
	.uleb128 0x24
	.4byte	.LVL11
	.4byte	0x12a6
	.4byte	0x118c
	.uleb128 0x25
	.uleb128 0x1
	.byte	0x50
	.uleb128 0x2
	.byte	0x74
	.sleb128 0
	.uleb128 0x25
	.uleb128 0x1
	.byte	0x51
	.uleb128 0x2
	.byte	0x75
	.sleb128 0
	.byte	0
	.uleb128 0x24
	.4byte	.LVL14
	.4byte	0x12b3
	.4byte	0x11a0
	.uleb128 0x25
	.uleb128 0x1
	.byte	0x50
	.uleb128 0x2
	.byte	0x74
	.sleb128 0
	.byte	0
	.uleb128 0x26
	.4byte	.LVL15
	.4byte	0x12bf
	.uleb128 0x24
	.4byte	.LVL18
	.4byte	0x12cb
	.4byte	0x11c3
	.uleb128 0x25
	.uleb128 0x1
	.byte	0x50
	.uleb128 0x2
	.byte	0x75
	.sleb128 54
	.uleb128 0x25
	.uleb128 0x1
	.byte	0x51
	.uleb128 0x2
	.byte	0x74
	.sleb128 0
	.byte	0
	.uleb128 0x24
	.4byte	.LVL20
	.4byte	0x12d7
	.4byte	0x11ef
	.uleb128 0x25
	.uleb128 0x1
	.byte	0x50
	.uleb128 0x2
	.byte	0x75
	.sleb128 0
	.uleb128 0x25
	.uleb128 0x1
	.byte	0x51
	.uleb128 0x1
	.byte	0x31
	.uleb128 0x25
	.uleb128 0x1
	.byte	0x52
	.uleb128 0x2
	.byte	0x74
	.sleb128 0
	.uleb128 0x25
	.uleb128 0x1
	.byte	0x53
	.uleb128 0x2
	.byte	0x74
	.sleb128 0
	.uleb128 0x25
	.uleb128 0x2
	.byte	0x7d
	.sleb128 0
	.uleb128 0x2
	.byte	0x91
	.sleb128 -44
	.byte	0
	.uleb128 0x24
	.4byte	.LVL21
	.4byte	0x1259
	.4byte	0x120f
	.uleb128 0x25
	.uleb128 0x1
	.byte	0x50
	.uleb128 0x2
	.byte	0x77
	.sleb128 0
	.uleb128 0x25
	.uleb128 0x1
	.byte	0x51
	.uleb128 0x2
	.byte	0x74
	.sleb128 0
	.uleb128 0x25
	.uleb128 0x1
	.byte	0x52
	.uleb128 0x2
	.byte	0x76
	.sleb128 0
	.byte	0
	.uleb128 0x26
	.4byte	.LVL23
	.4byte	0x1233
	.byte	0
	.uleb128 0x7
	.byte	0x4
	.4byte	0x5b
	.uleb128 0x7
	.byte	0x4
	.4byte	0x2b5
	.uleb128 0x2f
	.4byte	.LASF303
	.byte	0x8
	.2byte	0x42a
	.byte	0x1
	.4byte	0x20e
	.byte	0x3
	.uleb128 0x30
	.4byte	.LASF286
	.4byte	.LASF286
	.byte	0xf
	.byte	0x4c
	.byte	0x6
	.uleb128 0x31
	.4byte	.LASF287
	.4byte	.LASF287
	.byte	0xa
	.2byte	0x132
	.byte	0x9
	.uleb128 0x31
	.4byte	.LASF288
	.4byte	.LASF288
	.byte	0xa
	.2byte	0x245
	.byte	0x6
	.uleb128 0x31
	.4byte	.LASF289
	.4byte	.LASF289
	.byte	0xc
	.2byte	0x276
	.byte	0x5
	.uleb128 0x31
	.4byte	.LASF290
	.4byte	.LASF290
	.byte	0xa
	.2byte	0x164
	.byte	0x5
	.uleb128 0x30
	.4byte	.LASF291
	.4byte	.LASF291
	.byte	0x1
	.byte	0x4c
	.byte	0x17
	.uleb128 0x31
	.4byte	.LASF292
	.4byte	.LASF292
	.byte	0xa
	.2byte	0x12c
	.byte	0x9
	.uleb128 0x31
	.4byte	.LASF293
	.4byte	.LASF293
	.byte	0xa
	.2byte	0x275
	.byte	0x1
	.uleb128 0x31
	.4byte	.LASF294
	.4byte	.LASF294
	.byte	0xa
	.2byte	0x146
	.byte	0x9
	.uleb128 0x31
	.4byte	.LASF295
	.4byte	.LASF295
	.byte	0xa
	.2byte	0x277
	.byte	0x1
	.uleb128 0x30
	.4byte	.LASF296
	.4byte	.LASF296
	.byte	0x10
	.byte	0x29
	.byte	0x9
	.uleb128 0x30
	.4byte	.LASF297
	.4byte	.LASF297
	.byte	0x11
	.byte	0xb
	.byte	0x7
	.uleb128 0x30
	.4byte	.LASF298
	.4byte	.LASF298
	.byte	0x10
	.byte	0x26
	.byte	0x8
	.uleb128 0x31
	.4byte	.LASF299
	.4byte	.LASF299
	.byte	0xa
	.2byte	0x278
	.byte	0x5
	.byte	0
	.section	.debug_abbrev,"",%progbits
.Ldebug_abbrev0:
	.uleb128 0x1
	.uleb128 0x11
	.byte	0x1
	.uleb128 0x25
	.uleb128 0xe
	.uleb128 0x13
	.uleb128 0xb
	.uleb128 0x3
	.uleb128 0xe
	.uleb128 0x1b
	.uleb128 0xe
	.uleb128 0x55
	.uleb128 0x17
	.uleb128 0x11
	.uleb128 0x1
	.uleb128 0x10
	.uleb128 0x17
	.byte	0
	.byte	0
	.uleb128 0x2
	.uleb128 0x16
	.byte	0
	.uleb128 0x3
	.uleb128 0xe
	.uleb128 0x3a
	.uleb128 0xb
	.uleb128 0x3b
	.uleb128 0xb
	.uleb128 0x39
	.uleb128 0xb
	.uleb128 0x49
	.uleb128 0x13
	.byte	0
	.byte	0
	.uleb128 0x3
	.uleb128 0x24
	.byte	0
	.uleb128 0xb
	.uleb128 0xb
	.uleb128 0x3e
	.uleb128 0xb
	.uleb128 0x3
	.uleb128 0xe
	.byte	0
	.byte	0
	.uleb128 0x4
	.uleb128 0x24
	.byte	0
	.uleb128 0xb
	.uleb128 0xb
	.uleb128 0x3e
	.uleb128 0xb
	.uleb128 0x3
	.uleb128 0x8
	.byte	0
	.byte	0
	.uleb128 0x5
	.uleb128 0x26
	.byte	0
	.uleb128 0x49
	.uleb128 0x13
	.byte	0
	.byte	0
	.uleb128 0x6
	.uleb128 0xf
	.byte	0
	.uleb128 0xb
	.uleb128 0xb
	.byte	0
	.byte	0
	.uleb128 0x7
	.uleb128 0xf
	.byte	0
	.uleb128 0xb
	.uleb128 0xb
	.uleb128 0x49
	.uleb128 0x13
	.byte	0
	.byte	0
	.uleb128 0x8
	.uleb128 0x1
	.byte	0x1
	.uleb128 0x49
	.uleb128 0x13
	.uleb128 0x1
	.uleb128 0x13
	.byte	0
	.byte	0
	.uleb128 0x9
	.uleb128 0x21
	.byte	0
	.uleb128 0x49
	.uleb128 0x13
	.uleb128 0x2f
	.uleb128 0xb
	.byte	0
	.byte	0
	.uleb128 0xa
	.uleb128 0x4
	.byte	0x1
	.uleb128 0x3e
	.uleb128 0xb
	.uleb128 0xb
	.uleb128 0xb
	.uleb128 0x49
	.uleb128 0x13
	.uleb128 0x3a
	.uleb128 0xb
	.uleb128 0x3b
	.uleb128 0xb
	.uleb128 0x39
	.uleb128 0xb
	.uleb128 0x1
	.uleb128 0x13
	.byte	0
	.byte	0
	.uleb128 0xb
	.uleb128 0x28
	.byte	0
	.uleb128 0x3
	.uleb128 0xe
	.uleb128 0x1c
	.uleb128 0xb
	.byte	0
	.byte	0
	.uleb128 0xc
	.uleb128 0x13
	.byte	0
	.uleb128 0x3
	.uleb128 0xe
	.uleb128 0x3c
	.uleb128 0x19
	.byte	0
	.byte	0
	.uleb128 0xd
	.uleb128 0x13
	.byte	0x1
	.uleb128 0xb
	.uleb128 0xb
	.uleb128 0x3a
	.uleb128 0xb
	.uleb128 0x3b
	.uleb128 0xb
	.uleb128 0x39
	.uleb128 0xb
	.uleb128 0x1
	.uleb128 0x13
	.byte	0
	.byte	0
	.uleb128 0xe
	.uleb128 0xd
	.byte	0
	.uleb128 0x3
	.uleb128 0x8
	.uleb128 0x3a
	.uleb128 0xb
	.uleb128 0x3b
	.uleb128 0xb
	.uleb128 0x39
	.uleb128 0xb
	.uleb128 0x49
	.uleb128 0x13
	.uleb128 0x38
	.uleb128 0xb
	.byte	0
	.byte	0
	.uleb128 0xf
	.uleb128 0xd
	.byte	0
	.uleb128 0x3
	.uleb128 0xe
	.uleb128 0x3a
	.uleb128 0xb
	.uleb128 0x3b
	.uleb128 0xb
	.uleb128 0x39
	.uleb128 0xb
	.uleb128 0x49
	.uleb128 0x13
	.uleb128 0x38
	.uleb128 0xb
	.byte	0
	.byte	0
	.uleb128 0x10
	.uleb128 0x13
	.byte	0x1
	.uleb128 0x3
	.uleb128 0xe
	.uleb128 0xb
	.uleb128 0xb
	.uleb128 0x3a
	.uleb128 0xb
	.uleb128 0x3b
	.uleb128 0xb
	.uleb128 0x39
	.uleb128 0xb
	.uleb128 0x1
	.uleb128 0x13
	.byte	0
	.byte	0
	.uleb128 0x11
	.uleb128 0x16
	.byte	0
	.uleb128 0x3
	.uleb128 0xe
	.uleb128 0x3a
	.uleb128 0xb
	.uleb128 0x3b
	.uleb128 0x5
	.uleb128 0x39
	.uleb128 0xb
	.uleb128 0x49
	.uleb128 0x13
	.byte	0
	.byte	0
	.uleb128 0x12
	.uleb128 0x4
	.byte	0x1
	.uleb128 0x3
	.uleb128 0xe
	.uleb128 0x3e
	.uleb128 0xb
	.uleb128 0xb
	.uleb128 0xb
	.uleb128 0x49
	.uleb128 0x13
	.uleb128 0x3a
	.uleb128 0xb
	.uleb128 0x3b
	.uleb128 0xb
	.uleb128 0x39
	.uleb128 0xb
	.uleb128 0x1
	.uleb128 0x13
	.byte	0
	.byte	0
	.uleb128 0x13
	.uleb128 0xd
	.byte	0
	.uleb128 0x3
	.uleb128 0x8
	.uleb128 0x3a
	.uleb128 0xb
	.uleb128 0x3b
	.uleb128 0x5
	.uleb128 0x39
	.uleb128 0xb
	.uleb128 0x49
	.uleb128 0x13
	.uleb128 0x38
	.uleb128 0xb
	.byte	0
	.byte	0
	.uleb128 0x14
	.uleb128 0xd
	.byte	0
	.uleb128 0x3
	.uleb128 0xe
	.uleb128 0x3a
	.uleb128 0xb
	.uleb128 0x3b
	.uleb128 0x5
	.uleb128 0x39
	.uleb128 0xb
	.uleb128 0x49
	.uleb128 0x13
	.uleb128 0x38
	.uleb128 0xb
	.byte	0
	.byte	0
	.uleb128 0x15
	.uleb128 0x15
	.byte	0x1
	.uleb128 0x27
	.uleb128 0x19
	.uleb128 0x49
	.uleb128 0x13
	.uleb128 0x1
	.uleb128 0x13
	.byte	0
	.byte	0
	.uleb128 0x16
	.uleb128 0x5
	.byte	0
	.uleb128 0x49
	.uleb128 0x13
	.byte	0
	.byte	0
	.uleb128 0x17
	.uleb128 0x13
	.byte	0x1
	.uleb128 0xb
	.uleb128 0xb
	.uleb128 0x3a
	.uleb128 0xb
	.uleb128 0x3b
	.uleb128 0x5
	.uleb128 0x39
	.uleb128 0xb
	.uleb128 0x1
	.uleb128 0x13
	.byte	0
	.byte	0
	.uleb128 0x18
	.uleb128 0xd
	.byte	0
	.uleb128 0x3
	.uleb128 0xe
	.uleb128 0x3a
	.uleb128 0xb
	.uleb128 0x3b
	.uleb128 0x5
	.uleb128 0x39
	.uleb128 0xb
	.uleb128 0x49
	.uleb128 0x13
	.uleb128 0xb
	.uleb128 0xb
	.uleb128 0xd
	.uleb128 0xb
	.uleb128 0xc
	.uleb128 0xb
	.uleb128 0x38
	.uleb128 0xb
	.byte	0
	.byte	0
	.uleb128 0x19
	.uleb128 0x13
	.byte	0x1
	.uleb128 0x3
	.uleb128 0xe
	.uleb128 0xb
	.uleb128 0xb
	.uleb128 0x3a
	.uleb128 0xb
	.uleb128 0x3b
	.uleb128 0x5
	.uleb128 0x39
	.uleb128 0xb
	.uleb128 0x1
	.uleb128 0x13
	.byte	0
	.byte	0
	.uleb128 0x1a
	.uleb128 0xd
	.byte	0
	.uleb128 0x3
	.uleb128 0xe
	.uleb128 0x3a
	.uleb128 0xb
	.uleb128 0x3b
	.uleb128 0xb
	.uleb128 0x39
	.uleb128 0xb
	.uleb128 0x49
	.uleb128 0x13
	.uleb128 0xb
	.uleb128 0xb
	.uleb128 0xd
	.uleb128 0xb
	.uleb128 0xc
	.uleb128 0xb
	.uleb128 0x38
	.uleb128 0xb
	.byte	0
	.byte	0
	.uleb128 0x1b
	.uleb128 0x4
	.byte	0x1
	.uleb128 0x3e
	.uleb128 0xb
	.uleb128 0xb
	.uleb128 0xb
	.uleb128 0x49
	.uleb128 0x13
	.uleb128 0x3a
	.uleb128 0xb
	.uleb128 0x3b
	.uleb128 0x5
	.uleb128 0x39
	.uleb128 0xb
	.uleb128 0x1
	.uleb128 0x13
	.byte	0
	.byte	0
	.uleb128 0x1c
	.uleb128 0x13
	.byte	0x1
	.uleb128 0x3
	.uleb128 0x8
	.uleb128 0xb
	.uleb128 0xb
	.uleb128 0x3a
	.uleb128 0xb
	.uleb128 0x3b
	.uleb128 0x5
	.uleb128 0x39
	.uleb128 0xb
	.uleb128 0x1
	.uleb128 0x13
	.byte	0
	.byte	0
	.uleb128 0x1d
	.uleb128 0x13
	.byte	0x1
	.uleb128 0xb
	.uleb128 0x5
	.uleb128 0x3a
	.uleb128 0xb
	.uleb128 0x3b
	.uleb128 0xb
	.uleb128 0x39
	.uleb128 0xb
	.uleb128 0x1
	.uleb128 0x13
	.byte	0
	.byte	0
	.uleb128 0x1e
	.uleb128 0xd
	.byte	0
	.uleb128 0x3
	.uleb128 0xe
	.uleb128 0x3a
	.uleb128 0xb
	.uleb128 0x3b
	.uleb128 0xb
	.uleb128 0x39
	.uleb128 0xb
	.uleb128 0x49
	.uleb128 0x13
	.uleb128 0x38
	.uleb128 0x5
	.byte	0
	.byte	0
	.uleb128 0x1f
	.uleb128 0xd
	.byte	0
	.uleb128 0x3
	.uleb128 0xe
	.uleb128 0x3a
	.uleb128 0xb
	.uleb128 0x3b
	.uleb128 0x5
	.uleb128 0x39
	.uleb128 0xb
	.uleb128 0x49
	.uleb128 0x13
	.uleb128 0x38
	.uleb128 0x5
	.byte	0
	.byte	0
	.uleb128 0x20
	.uleb128 0x34
	.byte	0
	.uleb128 0x3
	.uleb128 0x8
	.uleb128 0x3a
	.uleb128 0xb
	.uleb128 0x3b
	.uleb128 0x5
	.uleb128 0x39
	.uleb128 0xb
	.uleb128 0x49
	.uleb128 0x13
	.uleb128 0x3f
	.uleb128 0x19
	.uleb128 0x2
	.uleb128 0x18
	.byte	0
	.byte	0
	.uleb128 0x21
	.uleb128 0x2e
	.byte	0x1
	.uleb128 0x3f
	.uleb128 0x19
	.uleb128 0x3
	.uleb128 0xe
	.uleb128 0x3a
	.uleb128 0xb
	.uleb128 0x3b
	.uleb128 0xb
	.uleb128 0x39
	.uleb128 0xb
	.uleb128 0x27
	.uleb128 0x19
	.uleb128 0x49
	.uleb128 0x13
	.uleb128 0x11
	.uleb128 0x1
	.uleb128 0x12
	.uleb128 0x6
	.uleb128 0x40
	.uleb128 0x18
	.uleb128 0x2117
	.uleb128 0x19
	.uleb128 0x1
	.uleb128 0x13
	.byte	0
	.byte	0
	.uleb128 0x22
	.uleb128 0x5
	.byte	0
	.uleb128 0x3
	.uleb128 0xe
	.uleb128 0x3a
	.uleb128 0xb
	.uleb128 0x3b
	.uleb128 0xb
	.uleb128 0x39
	.uleb128 0xb
	.uleb128 0x49
	.uleb128 0x13
	.uleb128 0x2
	.uleb128 0x17
	.uleb128 0x2137
	.uleb128 0x17
	.byte	0
	.byte	0
	.uleb128 0x23
	.uleb128 0x34
	.byte	0
	.uleb128 0x3
	.uleb128 0x8
	.uleb128 0x3a
	.uleb128 0xb
	.uleb128 0x3b
	.uleb128 0xb
	.uleb128 0x39
	.uleb128 0xb
	.uleb128 0x49
	.uleb128 0x13
	.uleb128 0x2
	.uleb128 0x17
	.uleb128 0x2137
	.uleb128 0x17
	.byte	0
	.byte	0
	.uleb128 0x24
	.uleb128 0x4109
	.byte	0x1
	.uleb128 0x11
	.uleb128 0x1
	.uleb128 0x31
	.uleb128 0x13
	.uleb128 0x1
	.uleb128 0x13
	.byte	0
	.byte	0
	.uleb128 0x25
	.uleb128 0x410a
	.byte	0
	.uleb128 0x2
	.uleb128 0x18
	.uleb128 0x2111
	.uleb128 0x18
	.byte	0
	.byte	0
	.uleb128 0x26
	.uleb128 0x4109
	.byte	0
	.uleb128 0x11
	.uleb128 0x1
	.uleb128 0x31
	.uleb128 0x13
	.byte	0
	.byte	0
	.uleb128 0x27
	.uleb128 0x34
	.byte	0
	.uleb128 0x3
	.uleb128 0x8
	.uleb128 0x3a
	.uleb128 0xb
	.uleb128 0x3b
	.uleb128 0xb
	.uleb128 0x39
	.uleb128 0xb
	.uleb128 0x49
	.uleb128 0x13
	.uleb128 0x2
	.uleb128 0x18
	.byte	0
	.byte	0
	.uleb128 0x28
	.uleb128 0x34
	.byte	0
	.uleb128 0x3
	.uleb128 0xe
	.uleb128 0x3a
	.uleb128 0xb
	.uleb128 0x3b
	.uleb128 0xb
	.uleb128 0x39
	.uleb128 0xb
	.uleb128 0x49
	.uleb128 0x13
	.uleb128 0x1c
	.uleb128 0xb
	.byte	0
	.byte	0
	.uleb128 0x29
	.uleb128 0x34
	.byte	0
	.uleb128 0x3
	.uleb128 0xe
	.uleb128 0x3a
	.uleb128 0xb
	.uleb128 0x3b
	.uleb128 0xb
	.uleb128 0x39
	.uleb128 0xb
	.uleb128 0x49
	.uleb128 0x13
	.uleb128 0x2
	.uleb128 0x18
	.byte	0
	.byte	0
	.uleb128 0x2a
	.uleb128 0x34
	.byte	0
	.uleb128 0x3
	.uleb128 0x8
	.uleb128 0x3a
	.uleb128 0xb
	.uleb128 0x3b
	.uleb128 0xb
	.uleb128 0x39
	.uleb128 0xb
	.uleb128 0x49
	.uleb128 0x13
	.uleb128 0x1c
	.uleb128 0xb
	.byte	0
	.byte	0
	.uleb128 0x2b
	.uleb128 0xb
	.byte	0x1
	.uleb128 0x55
	.uleb128 0x17
	.uleb128 0x1
	.uleb128 0x13
	.byte	0
	.byte	0
	.uleb128 0x2c
	.uleb128 0x2e
	.byte	0x1
	.uleb128 0x3f
	.uleb128 0x19
	.uleb128 0x3
	.uleb128 0xe
	.uleb128 0x3a
	.uleb128 0xb
	.uleb128 0x3b
	.uleb128 0xb
	.uleb128 0x39
	.uleb128 0xb
	.uleb128 0x49
	.uleb128 0x13
	.uleb128 0x3c
	.uleb128 0x19
	.uleb128 0x1
	.uleb128 0x13
	.byte	0
	.byte	0
	.uleb128 0x2d
	.uleb128 0x18
	.byte	0
	.byte	0
	.byte	0
	.uleb128 0x2e
	.uleb128 0x4109
	.byte	0x1
	.uleb128 0x11
	.uleb128 0x1
	.uleb128 0x31
	.uleb128 0x13
	.byte	0
	.byte	0
	.uleb128 0x2f
	.uleb128 0x2e
	.byte	0
	.uleb128 0x3
	.uleb128 0xe
	.uleb128 0x3a
	.uleb128 0xb
	.uleb128 0x3b
	.uleb128 0x5
	.uleb128 0x39
	.uleb128 0xb
	.uleb128 0x27
	.uleb128 0x19
	.uleb128 0x49
	.uleb128 0x13
	.uleb128 0x20
	.uleb128 0xb
	.byte	0
	.byte	0
	.uleb128 0x30
	.uleb128 0x2e
	.byte	0
	.uleb128 0x3f
	.uleb128 0x19
	.uleb128 0x3c
	.uleb128 0x19
	.uleb128 0x6e
	.uleb128 0xe
	.uleb128 0x3
	.uleb128 0xe
	.uleb128 0x3a
	.uleb128 0xb
	.uleb128 0x3b
	.uleb128 0xb
	.uleb128 0x39
	.uleb128 0xb
	.byte	0
	.byte	0
	.uleb128 0x31
	.uleb128 0x2e
	.byte	0
	.uleb128 0x3f
	.uleb128 0x19
	.uleb128 0x3c
	.uleb128 0x19
	.uleb128 0x6e
	.uleb128 0xe
	.uleb128 0x3
	.uleb128 0xe
	.uleb128 0x3a
	.uleb128 0xb
	.uleb128 0x3b
	.uleb128 0x5
	.uleb128 0x39
	.uleb128 0xb
	.byte	0
	.byte	0
	.byte	0
	.section	.debug_loc,"",%progbits
.Ldebug_loc0:
.LVUS7:
	.uleb128 0
	.uleb128 .LVU76
	.uleb128 .LVU76
	.uleb128 0
.LLST7:
	.4byte	.LVL25
	.4byte	.LVL26
	.2byte	0x1
	.byte	0x50
	.4byte	.LVL26
	.4byte	.LFE20
	.2byte	0x1
	.byte	0x55
	.4byte	0
	.4byte	0
.LVUS8:
	.uleb128 0
	.uleb128 .LVU80
	.uleb128 .LVU80
	.uleb128 .LVU84
	.uleb128 .LVU84
	.uleb128 0
.LLST8:
	.4byte	.LVL25
	.4byte	.LVL27-1
	.2byte	0x1
	.byte	0x51
	.4byte	.LVL27-1
	.4byte	.LVL29
	.2byte	0x1
	.byte	0x54
	.4byte	.LVL29
	.4byte	.LFE20
	.2byte	0x4
	.byte	0xf3
	.uleb128 0x1
	.byte	0x51
	.byte	0x9f
	.4byte	0
	.4byte	0
.LVUS9:
	.uleb128 .LVU84
	.uleb128 .LVU85
	.uleb128 .LVU85
	.uleb128 .LVU92
	.uleb128 .LVU92
	.uleb128 .LVU93
	.uleb128 .LVU95
	.uleb128 .LVU96
.LLST9:
	.4byte	.LVL29
	.4byte	.LVL30-1
	.2byte	0x1
	.byte	0x50
	.4byte	.LVL30-1
	.4byte	.LVL33
	.2byte	0x1
	.byte	0x54
	.4byte	.LVL33
	.4byte	.LVL34-1
	.2byte	0x1
	.byte	0x50
	.4byte	.LVL35
	.4byte	.LVL36
	.2byte	0x1
	.byte	0x54
	.4byte	0
	.4byte	0
.LVUS10:
	.uleb128 .LVU92
	.uleb128 .LVU93
	.uleb128 .LVU93
	.uleb128 .LVU94
.LLST10:
	.4byte	.LVL33
	.4byte	.LVL34-1
	.2byte	0x1
	.byte	0x53
	.4byte	.LVL34-1
	.4byte	.LVL34
	.2byte	0x1
	.byte	0x54
	.4byte	0
	.4byte	0
.LVUS0:
	.uleb128 0
	.uleb128 .LVU4
	.uleb128 .LVU4
	.uleb128 0
.LLST0:
	.4byte	.LVL0
	.4byte	.LVL1
	.2byte	0x1
	.byte	0x50
	.4byte	.LVL1
	.4byte	.LFE19
	.2byte	0x1
	.byte	0x57
	.4byte	0
	.4byte	0
.LVUS1:
	.uleb128 0
	.uleb128 .LVU9
	.uleb128 .LVU9
	.uleb128 .LVU30
	.uleb128 .LVU30
	.uleb128 0
.LLST1:
	.4byte	.LVL0
	.4byte	.LVL2-1
	.2byte	0x1
	.byte	0x51
	.4byte	.LVL2-1
	.4byte	.LVL6
	.2byte	0x1
	.byte	0x56
	.4byte	.LVL6
	.4byte	.LFE19
	.2byte	0x4
	.byte	0xf3
	.uleb128 0x1
	.byte	0x51
	.byte	0x9f
	.4byte	0
	.4byte	0
.LVUS2:
	.uleb128 0
	.uleb128 .LVU9
	.uleb128 .LVU9
	.uleb128 .LVU32
	.uleb128 .LVU32
	.uleb128 .LVU70
	.uleb128 .LVU70
	.uleb128 0
.LLST2:
	.4byte	.LVL0
	.4byte	.LVL2-1
	.2byte	0x1
	.byte	0x52
	.4byte	.LVL2-1
	.4byte	.LVL7
	.2byte	0x1
	.byte	0x55
	.4byte	.LVL7
	.4byte	.LVL24
	.2byte	0x4
	.byte	0xf3
	.uleb128 0x1
	.byte	0x52
	.byte	0x9f
	.4byte	.LVL24
	.4byte	.LFE19
	.2byte	0x1
	.byte	0x55
	.4byte	0
	.4byte	0
.LVUS3:
	.uleb128 .LVU28
	.uleb128 .LVU33
	.uleb128 .LVU33
	.uleb128 .LVU70
	.uleb128 .LVU70
	.uleb128 0
.LLST3:
	.4byte	.LVL5
	.4byte	.LVL8
	.2byte	0x1
	.byte	0x50
	.4byte	.LVL8
	.4byte	.LVL24
	.2byte	0x1
	.byte	0x56
	.4byte	.LVL24
	.4byte	.LFE19
	.2byte	0x1
	.byte	0x50
	.4byte	0
	.4byte	0
.LVUS4:
	.uleb128 .LVU67
	.uleb128 .LVU69
.LLST4:
	.4byte	.LVL22
	.4byte	.LVL23
	.2byte	0x1
	.byte	0x54
	.4byte	0
	.4byte	0
.LVUS5:
	.uleb128 .LVU36
	.uleb128 .LVU38
	.uleb128 .LVU38
	.uleb128 .LVU69
.LLST5:
	.4byte	.LVL12
	.4byte	.LVL13
	.2byte	0x1
	.byte	0x50
	.4byte	.LVL13
	.4byte	.LVL23
	.2byte	0x1
	.byte	0x59
	.4byte	0
	.4byte	0
.LVUS6:
	.uleb128 .LVU42
	.uleb128 .LVU46
	.uleb128 .LVU46
	.uleb128 .LVU69
.LLST6:
	.4byte	.LVL16
	.4byte	.LVL17
	.2byte	0x1
	.byte	0x50
	.4byte	.LVL17
	.4byte	.LVL23
	.2byte	0x1
	.byte	0x55
	.4byte	0
	.4byte	0
	.section	.debug_aranges,"",%progbits
	.4byte	0x24
	.2byte	0x2
	.4byte	.Ldebug_info0
	.byte	0x4
	.byte	0
	.2byte	0
	.2byte	0
	.4byte	.LFB19
	.4byte	.LFE19-.LFB19
	.4byte	.LFB20
	.4byte	.LFE20-.LFB20
	.4byte	0
	.4byte	0
	.section	.debug_ranges,"",%progbits
.Ldebug_ranges0:
	.4byte	.LBB7
	.4byte	.LBE7
	.4byte	.LBB8
	.4byte	.LBE8
	.4byte	0
	.4byte	0
	.4byte	.LFB19
	.4byte	.LFE19
	.4byte	.LFB20
	.4byte	.LFE20
	.4byte	0
	.4byte	0
	.section	.debug_line,"",%progbits
.Ldebug_line0:
	.section	.debug_str,"MS",%progbits,1
.LASF284:
	.ascii	"print_only\000"
.LASF95:
	.ascii	"CO_RFC2440\000"
.LASF151:
	.ascii	"max_output\000"
.LASF94:
	.ascii	"CO_RFC4880\000"
.LASF117:
	.ascii	"http_proxy\000"
.LASF140:
	.ascii	"AKL_WKD\000"
.LASF268:
	.ascii	"key_origin_url\000"
.LASF148:
	.ascii	"debug\000"
.LASF84:
	.ascii	"name\000"
.LASF35:
	.ascii	"server_local_s\000"
.LASF33:
	.ascii	"session_key\000"
.LASF128:
	.ascii	"auto_key_import\000"
.LASF166:
	.ascii	"check_sigs\000"
.LASF216:
	.ascii	"s2k_cipher_algo\000"
.LASF296:
	.ascii	"strlen\000"
.LASF218:
	.ascii	"not_dash_escaped\000"
.LASF158:
	.ascii	"expert\000"
.LASF109:
	.ascii	"KF_NONE\000"
.LASF89:
	.ascii	"flags\000"
.LASF54:
	.ascii	"IOBUFCTRL_CANCEL\000"
.LASF192:
	.ascii	"def_cert_level\000"
.LASF297:
	.ascii	"xmalloc\000"
.LASF280:
	.ascii	"decrypt_message\000"
.LASF180:
	.ascii	"list_packets\000"
.LASF177:
	.ascii	"fingerprint\000"
.LASF154:
	.ascii	"autostart\000"
.LASF256:
	.ascii	"grouplist\000"
.LASF25:
	.ascii	"tofu_dbs_s\000"
.LASF24:
	.ascii	"tofu_dbs_t\000"
.LASF261:
	.ascii	"show_subpackets\000"
.LASF58:
	.ascii	"IOBUF_INPUT_TEMP\000"
.LASF229:
	.ascii	"no_perm_warn\000"
.LASF56:
	.ascii	"IOBUFCTRL_USER\000"
.LASF227:
	.ascii	"def_keyserver_url\000"
.LASF11:
	.ascii	"_off_t\000"
.LASF191:
	.ascii	"def_recipient_self\000"
.LASF241:
	.ascii	"legacy_list_mode\000"
.LASF197:
	.ascii	"completes_needed\000"
.LASF237:
	.ascii	"allow_freeform_uid\000"
.LASF253:
	.ascii	"no_auto_check_trustdb\000"
.LASF262:
	.ascii	"rfc2440_text\000"
.LASF66:
	.ascii	"ntotal\000"
.LASF21:
	.ascii	"KEYDB_HANDLE\000"
.LASF69:
	.ascii	"error\000"
.LASF190:
	.ascii	"def_recipient\000"
.LASF119:
	.ascii	"use_embedded_filename\000"
.LASF274:
	.ascii	"no_symkey_cache\000"
.LASF215:
	.ascii	"s2k_digest_algo\000"
.LASF68:
	.ascii	"filter_eof\000"
.LASF219:
	.ascii	"escape_from\000"
.LASF275:
	.ascii	"compat_flags\000"
.LASF201:
	.ascii	"disable_dirmngr\000"
.LASF224:
	.ascii	"list_options\000"
.LASF96:
	.ascii	"CO_PGP6\000"
.LASF97:
	.ascii	"CO_PGP7\000"
.LASF98:
	.ascii	"CO_PGP8\000"
.LASF242:
	.ascii	"ignore_time_conflict\000"
.LASF157:
	.ascii	"textmode\000"
.LASF288:
	.ascii	"iobuf_get_fd\000"
.LASF221:
	.ascii	"keyserver_options\000"
.LASF100:
	.ascii	"TM_CLASSIC\000"
.LASF298:
	.ascii	"strcpy\000"
.LASF91:
	.ascii	"iobuf_use\000"
.LASF266:
	.ascii	"auto_key_locate\000"
.LASF240:
	.ascii	"fast_list_mode\000"
.LASF64:
	.ascii	"nlimit\000"
.LASF178:
	.ascii	"list_sigs\000"
.LASF162:
	.ascii	"ask_cert_expire\000"
.LASF16:
	.ascii	"float\000"
.LASF30:
	.ascii	"tofu\000"
.LASF155:
	.ascii	"list_only\000"
.LASF39:
	.ascii	"gnupg_fd_t\000"
.LASF82:
	.ascii	"ignore\000"
.LASF170:
	.ascii	"with_fingerprint\000"
.LASF118:
	.ascii	"require_cross_cert\000"
.LASF9:
	.ascii	"long long unsigned int\000"
.LASF175:
	.ascii	"with_wkd_hash\000"
.LASF138:
	.ascii	"AKL_PKA\000"
.LASF200:
	.ascii	"dirmngr_program\000"
.LASF161:
	.ascii	"def_cert_expire\000"
.LASF182:
	.ascii	"def_digest_algo\000"
.LASF87:
	.ascii	"bdat\000"
.LASF272:
	.ascii	"unwrap_encryption\000"
.LASF293:
	.ascii	"translate_file_handle\000"
.LASF65:
	.ascii	"nbytes\000"
.LASF260:
	.ascii	"screen_lines\000"
.LASF213:
	.ascii	"photo_viewer\000"
.LASF42:
	.ascii	"eof_seen\000"
.LASF136:
	.ascii	"AKL_LOCAL\000"
.LASF249:
	.ascii	"gpg_agent_info\000"
.LASF137:
	.ascii	"AKL_CERT\000"
.LASF173:
	.ascii	"with_tofu_info\000"
.LASF278:
	.ascii	"ctrl\000"
.LASF203:
	.ascii	"lc_ctype\000"
.LASF121:
	.ascii	"dsa2\000"
.LASF85:
	.ascii	"value\000"
.LASF92:
	.ascii	"gnupg_compliance_mode\000"
.LASF230:
	.ascii	"temp_dir\000"
.LASF57:
	.ascii	"IOBUF_INPUT\000"
.LASF196:
	.ascii	"marginals_needed\000"
.LASF300:
	.ascii	"GNU C17 10.3.1 20210621 (release) -mcpu=cortex-a7 -"
	.ascii	"mfloat-abi=soft -marm -march=armv7ve -g -O2 -fpic -"
	.ascii	"ffreestanding -ffunction-sections -fdata-sections -"
	.ascii	"fno-common\000"
.LASF183:
	.ascii	"force_ocb\000"
.LASF10:
	.ascii	"size_t\000"
.LASF214:
	.ascii	"s2k_mode\000"
.LASF122:
	.ascii	"allow_multiple_messages\000"
.LASF67:
	.ascii	"nofast\000"
.LASF106:
	.ascii	"TM_TOFU\000"
.LASF147:
	.ascii	"quiet\000"
.LASF165:
	.ascii	"answer_no\000"
.LASF270:
	.ascii	"pinentry_mode\000"
.LASF163:
	.ascii	"batch\000"
.LASF225:
	.ascii	"verify_options\000"
.LASF206:
	.ascii	"skip_hidden_recipients\000"
.LASF22:
	.ascii	"dirmngr_local_s\000"
.LASF20:
	.ascii	"dirmngr_local_t\000"
.LASF301:
	.ascii	"src/decrypt.c\000"
.LASF169:
	.ascii	"with_icao_spelling\000"
.LASF245:
	.ascii	"ignore_mdc_error\000"
.LASF267:
	.ascii	"key_origin\000"
.LASF13:
	.ascii	"char\000"
.LASF160:
	.ascii	"ask_sig_expire\000"
.LASF207:
	.ascii	"trust_model\000"
.LASF257:
	.ascii	"mangle_dos_filenames\000"
.LASF150:
	.ascii	"outfile\000"
.LASF61:
	.ascii	"iobuf_t\000"
.LASF279:
	.ascii	"filename\000"
.LASF285:
	.ascii	"opentype\000"
.LASF132:
	.ascii	"force_sign_key\000"
.LASF189:
	.ascii	"bz2_decompress_lowmem\000"
.LASF179:
	.ascii	"no_armor\000"
.LASF120:
	.ascii	"utf8_filename\000"
.LASF112:
	.ascii	"KF_0xSHORT\000"
.LASF282:
	.ascii	"data\000"
.LASF243:
	.ascii	"ignore_valid_from\000"
.LASF290:
	.ascii	"iobuf_close\000"
.LASF31:
	.ascii	"cached_getkey_kdb\000"
.LASF129:
	.ascii	"rfc4880bis\000"
.LASF49:
	.ascii	"IOBUFCTRL_INIT\000"
.LASF75:
	.ascii	"subno\000"
.LASF80:
	.ascii	"critical\000"
.LASF19:
	.ascii	"MSG_LEN\000"
.LASF246:
	.ascii	"command_fd\000"
.LASF226:
	.ascii	"def_preference_list\000"
.LASF107:
	.ascii	"TM_TOFU_PGP\000"
.LASF302:
	.ascii	"/home/fred/code/rpi-qemu-gdb/Claude/raspi3b_qemu_\000"
.LASF41:
	.ascii	"no_cache\000"
.LASF205:
	.ascii	"skip_verify\000"
.LASF234:
	.ascii	"sig_notations\000"
.LASF217:
	.ascii	"s2k_count\000"
.LASF1:
	.ascii	"long long int\000"
.LASF127:
	.ascii	"include_key_block\000"
.LASF220:
	.ascii	"lock_once\000"
.LASF264:
	.ascii	"exit_on_status_write_error\000"
.LASF223:
	.ascii	"exec_path_set\000"
.LASF99:
	.ascii	"CO_DE_VS\000"
.LASF103:
	.ascii	"TM_ALWAYS\000"
.LASF209:
	.ascii	"compliance\000"
.LASF186:
	.ascii	"explicit_compress_option\000"
.LASF71:
	.ascii	"filter_ov\000"
.LASF202:
	.ascii	"def_new_key_algo\000"
.LASF149:
	.ascii	"armor\000"
.LASF271:
	.ascii	"request_origin\000"
.LASF113:
	.ascii	"KF_0xLONG\000"
.LASF44:
	.ascii	"peeked\000"
.LASF259:
	.ascii	"screen_columns\000"
.LASF255:
	.ascii	"no_homedir_creation\000"
.LASF77:
	.ascii	"size\000"
.LASF244:
	.ascii	"ignore_crc_error\000"
.LASF251:
	.ascii	"no_expensive_trust_checks\000"
.LASF181:
	.ascii	"def_cipher_algo\000"
.LASF23:
	.ascii	"keydb_handle\000"
.LASF78:
	.ascii	"start\000"
.LASF8:
	.ascii	"long unsigned int\000"
.LASF212:
	.ascii	"throw_keyids\000"
.LASF176:
	.ascii	"with_key_origin\000"
.LASF63:
	.ascii	"iobuf_struct\000"
.LASF108:
	.ascii	"KF_DEFAULT\000"
.LASF47:
	.ascii	"fname\000"
.LASF185:
	.ascii	"compress_algo\000"
.LASF86:
	.ascii	"altvalue\000"
.LASF126:
	.ascii	"disable_signer_uid\000"
.LASF286:
	.ascii	"tfp_printf\000"
.LASF40:
	.ascii	"keep_open\000"
.LASF6:
	.ascii	"short unsigned int\000"
.LASF239:
	.ascii	"set_filesize\000"
.LASF2:
	.ascii	"long double\000"
.LASF110:
	.ascii	"KF_SHORT\000"
.LASF248:
	.ascii	"show_session_key\000"
.LASF167:
	.ascii	"with_colons\000"
.LASF53:
	.ascii	"IOBUFCTRL_DESC\000"
.LASF43:
	.ascii	"print_only_name\000"
.LASF55:
	.ascii	"IOBUFCTRL_PEEK\000"
.LASF18:
	.ascii	"KEY_LEN\000"
.LASF124:
	.ascii	"allow_weak_key_signatures\000"
.LASF114:
	.ascii	"options\000"
.LASF76:
	.ascii	"IOBUF\000"
.LASF198:
	.ascii	"max_cert_depth\000"
.LASF174:
	.ascii	"with_secret\000"
.LASF83:
	.ascii	"notation\000"
.LASF51:
	.ascii	"IOBUFCTRL_UNDERFLOW\000"
.LASF5:
	.ascii	"short int\000"
.LASF105:
	.ascii	"TM_AUTO\000"
.LASF287:
	.ascii	"iobuf_open\000"
.LASF88:
	.ascii	"blen\000"
.LASF7:
	.ascii	"long int\000"
.LASF125:
	.ascii	"large_rsa\000"
.LASF93:
	.ascii	"CO_GNUPG\000"
.LASF193:
	.ascii	"min_cert_level\000"
.LASF281:
	.ascii	"decrypt_memory\000"
.LASF283:
	.ascii	"length\000"
.LASF294:
	.ascii	"iobuf_fdopen\000"
.LASF134:
	.ascii	"require_compliance\000"
.LASF90:
	.ascii	"next\000"
.LASF70:
	.ascii	"filter\000"
.LASF194:
	.ascii	"ask_cert_level\000"
.LASF211:
	.ascii	"set_filename\000"
.LASF48:
	.ascii	"file_filter_ctx_t\000"
.LASF14:
	.ascii	"uint64_t\000"
.LASF36:
	.ascii	"ulong\000"
.LASF235:
	.ascii	"cert_notations\000"
.LASF236:
	.ascii	"allow_non_selfsigned_uid\000"
.LASF50:
	.ascii	"IOBUFCTRL_FREE\000"
.LASF258:
	.ascii	"enable_progress_filter\000"
.LASF222:
	.ascii	"exec_disable\000"
.LASF62:
	.ascii	"server_control_s\000"
.LASF277:
	.ascii	"groupitem\000"
.LASF265:
	.ascii	"limit_card_insert_tries\000"
.LASF232:
	.ascii	"encrypt_to_default_key\000"
.LASF199:
	.ascii	"agent_program\000"
.LASF289:
	.ascii	"proc_encryption_packets\000"
.LASF291:
	.ascii	"xstrdup\000"
.LASF269:
	.ascii	"passphrase_repeat\000"
.LASF0:
	.ascii	"unsigned int\000"
.LASF27:
	.ascii	"magic\000"
.LASF159:
	.ascii	"def_sig_expire\000"
.LASF252:
	.ascii	"no_sig_cache\000"
.LASF188:
	.ascii	"bz2_compress_level\000"
.LASF254:
	.ascii	"preserve_permissions\000"
.LASF38:
	.ascii	"gpg_error_t\000"
.LASF187:
	.ascii	"compress_level\000"
.LASF231:
	.ascii	"no_encrypt_to\000"
.LASF133:
	.ascii	"expl_import_self_sigs_only\000"
.LASF204:
	.ascii	"lc_messages\000"
.LASF73:
	.ascii	"real_fname\000"
.LASF46:
	.ascii	"upeeked\000"
.LASF208:
	.ascii	"force_ownertrust\000"
.LASF131:
	.ascii	"use_only_openpgp_card\000"
.LASF15:
	.ascii	"byte\000"
.LASF152:
	.ascii	"input_size_hint\000"
.LASF145:
	.ascii	"type\000"
.LASF101:
	.ascii	"TM_PGP\000"
.LASF4:
	.ascii	"unsigned char\000"
.LASF28:
	.ascii	"server_local\000"
.LASF26:
	.ascii	"batch_updated_wanted\000"
.LASF276:
	.ascii	"weakhash\000"
.LASF273:
	.ascii	"only_sign_text_ids\000"
.LASF164:
	.ascii	"answer_yes\000"
.LASF292:
	.ascii	"iobuf_temp_with_content\000"
.LASF142:
	.ascii	"AKL_NTDS\000"
.LASF59:
	.ascii	"IOBUF_OUTPUT\000"
.LASF238:
	.ascii	"no_literal\000"
.LASF250:
	.ascii	"try_all_secrets\000"
.LASF45:
	.ascii	"npeeked\000"
.LASF263:
	.ascii	"min_rsa_length\000"
.LASF233:
	.ascii	"interactive\000"
.LASF295:
	.ascii	"fd_cache_open\000"
.LASF72:
	.ascii	"filter_ov_owner\000"
.LASF172:
	.ascii	"with_keygrip\000"
.LASF299:
	.ascii	"file_filter\000"
.LASF210:
	.ascii	"keyid_format\000"
.LASF153:
	.ascii	"dry_run\000"
.LASF247:
	.ascii	"override_session_key\000"
.LASF12:
	.ascii	"__off_t\000"
.LASF111:
	.ascii	"KF_LONG\000"
.LASF146:
	.ascii	"verbose\000"
.LASF32:
	.ascii	"passphrase\000"
.LASF3:
	.ascii	"signed char\000"
.LASF34:
	.ascii	"enc_length\000"
.LASF81:
	.ascii	"human\000"
.LASF37:
	.ascii	"off_t\000"
.LASF60:
	.ascii	"IOBUF_OUTPUT_TEMP\000"
.LASF74:
	.ascii	"chain\000"
.LASF116:
	.ascii	"export_options\000"
.LASF52:
	.ascii	"IOBUFCTRL_FLUSH\000"
.LASF29:
	.ascii	"dirmngr_local\000"
.LASF228:
	.ascii	"weak_digests\000"
.LASF303:
	.ascii	"gpg_error_from_syserror\000"
.LASF171:
	.ascii	"with_subkey_fingerprint\000"
.LASF123:
	.ascii	"allow_weak_digest_algos\000"
.LASF17:
	.ascii	"double\000"
.LASF141:
	.ascii	"AKL_LDAP\000"
.LASF79:
	.ascii	"ctrl_t\000"
.LASF104:
	.ascii	"TM_DIRECT\000"
.LASF143:
	.ascii	"AKL_KEYSERVER\000"
.LASF184:
	.ascii	"cert_digest_algo\000"
.LASF156:
	.ascii	"mimemode\000"
.LASF102:
	.ascii	"TM_EXTERNAL\000"
.LASF168:
	.ascii	"with_key_data\000"
.LASF115:
	.ascii	"import_options\000"
.LASF139:
	.ascii	"AKL_DANE\000"
.LASF135:
	.ascii	"AKL_NODEFAULT\000"
.LASF195:
	.ascii	"emit_version\000"
.LASF144:
	.ascii	"AKL_SPEC\000"
.LASF130:
	.ascii	"dummy_outfile\000"
	.ident	"GCC: (15:10.3-2021.07-4) 10.3.1 20210621 (release)"
