	.cpu cortex-a7
	.eabi_attribute 20, 1	@ Tag_ABI_FP_denormal
	.eabi_attribute 21, 1	@ Tag_ABI_FP_exceptions
	.eabi_attribute 23, 3	@ Tag_ABI_FP_number_model
	.eabi_attribute 24, 1	@ Tag_ABI_align8_needed
	.eabi_attribute 25, 1	@ Tag_ABI_align8_preserved
	.eabi_attribute 26, 1	@ Tag_ABI_enum_size
	.eabi_attribute 30, 2	@ Tag_ABI_optimization_goals
	.eabi_attribute 34, 1	@ Tag_CPU_unaligned_access
	.eabi_attribute 18, 4	@ Tag_ABI_PCS_wchar_t
	.file	"decrypt.c"
@ GNU C17 (15:10.3-2021.07-4) version 10.3.1 20210621 (release) (arm-none-eabi)
@	compiled by GNU C version 11.2.0, GMP version 6.2.1, MPFR version 4.1.0, MPC version 1.2.1, isl version isl-0.24-GMP

@ GGC heuristics: --param ggc-min-expand=100 --param ggc-min-heapsize=131072
@ options passed:  -I src -I src/common -imultilib thumb/v7-a/nofp
@ -D__USES_INITFINI__ src/decrypt.c -mcpu=cortex-a7 -mfloat-abi=soft -marm
@ -mlibarch=armv7ve -march=armv7ve
@ -auxbase-strip build/asm_output/decrypt.s -g -O2 -Wall -Wextra -fpic
@ -ffreestanding -ffunction-sections -fdata-sections -fno-common
@ -fverbose-asm
@ options enabled:  -faggressive-loop-optimizations -falign-functions
@ -falign-jumps -falign-labels -falign-loops -fallocation-dce
@ -fauto-inc-dec -fbranch-count-reg -fcaller-saves
@ -fcombine-stack-adjustments -fcompare-elim -fcprop-registers
@ -fcrossjumping -fcse-follow-jumps -fdata-sections -fdefer-pop
@ -fdelete-null-pointer-checks -fdevirtualize -fdevirtualize-speculatively
@ -fdwarf2-cfi-asm -fearly-inlining -feliminate-unused-debug-symbols
@ -feliminate-unused-debug-types -fexpensive-optimizations
@ -fforward-propagate -ffp-int-builtin-inexact -ffunction-cse
@ -ffunction-sections -fgcse -fgcse-lm -fgnu-unique
@ -fguess-branch-probability -fhoist-adjacent-loads -fident -fif-conversion
@ -fif-conversion2 -findirect-inlining -finline -finline-atomics
@ -finline-functions -finline-functions-called-once
@ -finline-small-functions -fipa-bit-cp -fipa-cp -fipa-icf
@ -fipa-icf-functions -fipa-icf-variables -fipa-profile -fipa-pure-const
@ -fipa-ra -fipa-reference -fipa-reference-addressable -fipa-sra
@ -fipa-stack-alignment -fipa-vrp -fira-hoist-pressure
@ -fira-share-save-slots -fira-share-spill-slots
@ -fisolate-erroneous-paths-dereference -fivopts -fkeep-static-consts
@ -fleading-underscore -flifetime-dse -flra-remat -fmath-errno
@ -fmerge-constants -fmerge-debug-strings -fmove-loop-invariants
@ -fomit-frame-pointer -foptimize-sibling-calls -foptimize-strlen
@ -fpartial-inlining -fpeephole -fpeephole2 -fpic -fplt
@ -fprefetch-loop-arrays -freg-struct-return -freorder-blocks
@ -freorder-functions -frerun-cse-after-loop
@ -fsched-critical-path-heuristic -fsched-dep-count-heuristic
@ -fsched-group-heuristic -fsched-interblock -fsched-last-insn-heuristic
@ -fsched-pressure -fsched-rank-heuristic -fsched-spec
@ -fsched-spec-insn-heuristic -fsched-stalled-insns-dep -fschedule-insns
@ -fschedule-insns2 -fsection-anchors -fsemantic-interposition
@ -fshow-column -fshrink-wrap -fshrink-wrap-separate -fsigned-zeros
@ -fsplit-ivs-in-unroller -fsplit-wide-types -fssa-backprop -fssa-phiopt
@ -fstdarg-opt -fstore-merging -fstrict-aliasing
@ -fstrict-volatile-bitfields -fsync-libcalls -fthread-jumps
@ -ftoplevel-reorder -ftrapping-math -ftree-bit-ccp -ftree-builtin-call-dce
@ -ftree-ccp -ftree-ch -ftree-coalesce-vars -ftree-copy-prop -ftree-cselim
@ -ftree-dce -ftree-dominator-opts -ftree-dse -ftree-forwprop -ftree-fre
@ -ftree-loop-if-convert -ftree-loop-im -ftree-loop-ivcanon
@ -ftree-loop-optimize -ftree-parallelize-loops= -ftree-phiprop -ftree-pre
@ -ftree-pta -ftree-reassoc -ftree-scev-cprop -ftree-sink -ftree-slsr
@ -ftree-sra -ftree-switch-conversion -ftree-tail-merge -ftree-ter
@ -ftree-vrp -funit-at-a-time -fvar-tracking -fvar-tracking-assignments
@ -fverbose-asm -fzero-initialized-in-bss -marm -mbe32 -mlittle-endian
@ -mpic-data-is-text-relative -msched-prolog -munaligned-access
@ -mvectorize-with-neon-quad -mword-relocations

	.text
.Ltext0:
	.cfi_sections	.debug_frame
	.section	.rodata.decrypt_memory.str1.4,"aMS",%progbits,1
	.align	2
.LC0:
	.ascii	"decrypt_memory\012\000"
	.align	2
.LC1:
	.ascii	"Session key: %s\012\000"
	.align	2
.LC2:
	.ascii	"rb\000"
	.align	2
.LC3:
	.ascii	"\012\012END decrypt_memory\012\012\000"
	.section	.text.decrypt_memory,"ax",%progbits
	.align	2
	.global	decrypt_memory
	.arch armv7ve
	.syntax unified
	.arm
	.fpu softvfp
	.type	decrypt_memory, %function
decrypt_memory:
.LVL0:
.LFB19:
	.file 1 "src/decrypt.c"
	.loc 1 43 75 view -0
	.cfi_startproc
	@ args = 0, pretend = 0, frame = 8
	@ frame_needed = 0, uses_anonymous_args = 0
	.loc 1 44 5 view .LVU1
@ src/decrypt.c:43: int decrypt_memory(ctrl_t ctrl, const unsigned char* data, size_t length) {
	.loc 1 43 75 is_stmt 0 view .LVU2
	push	{r4, r5, r6, r7, r8, r9, lr}	@
	.cfi_def_cfa_offset 28
	.cfi_offset 4, -28
	.cfi_offset 5, -24
	.cfi_offset 6, -20
	.cfi_offset 7, -16
	.cfi_offset 8, -12
	.cfi_offset 9, -8
	.cfi_offset 14, -4
	mov	r7, r0	@ tmp148, ctrl
@ src/decrypt.c:44:     printf("decrypt_memory\n");
	.loc 1 44 5 view .LVU3
	ldr	r0, .L6	@,
.LVL1:
@ src/decrypt.c:43: int decrypt_memory(ctrl_t ctrl, const unsigned char* data, size_t length) {
	.loc 1 43 75 view .LVU4
	sub	sp, sp, #20	@,,
	.cfi_def_cfa_offset 48
@ src/decrypt.c:43: int decrypt_memory(ctrl_t ctrl, const unsigned char* data, size_t length) {
	.loc 1 43 75 view .LVU5
	ldr	r8, .L6+4	@ tmp142,
	mov	r5, r2	@ length, tmp150
@ src/decrypt.c:44:     printf("decrypt_memory\n");
	.loc 1 44 5 view .LVU6
.LPIC0:
	add	r0, pc, r0	@,
@ src/decrypt.c:43: int decrypt_memory(ctrl_t ctrl, const unsigned char* data, size_t length) {
	.loc 1 43 75 view .LVU7
	mov	r6, r1	@ data, tmp149
.LPIC4:
	add	r8, pc, r8	@ tmp142, tmp142
@ src/decrypt.c:44:     printf("decrypt_memory\n");
	.loc 1 44 5 view .LVU8
	bl	tfp_printf(PLT)	@
.LVL2:
	.loc 1 47 5 is_stmt 1 view .LVU9
	ldr	r0, .L6+8	@,
@ src/decrypt.c:54:     size_t len = 0;
	.loc 1 54 12 is_stmt 0 view .LVU10
	mov	r4, #0	@ tmp132,
@ src/decrypt.c:47:     printf("Session key: %s\n", ctrl->session_key);
	.loc 1 47 5 view .LVU11
	ldr	r1, [r7, #28]	@, ctrl_12(D)->session_key
.LPIC1:
	add	r0, pc, r0	@,
	bl	tfp_printf(PLT)	@
.LVL3:
	.loc 1 48 5 is_stmt 1 view .LVU12
@ src/decrypt.c:48:     ctrl->enc_length=length;
	.loc 1 48 21 is_stmt 0 view .LVU13
	str	r5, [r7, #32]	@ length, ctrl_12(D)->enc_length
	.loc 1 50 5 is_stmt 1 view .LVU14
	.loc 1 51 5 view .LVU15
	.loc 1 52 5 view .LVU16
	.loc 1 53 5 view .LVU17
	.loc 1 54 5 view .LVU18
@ src/decrypt.c:62:     a = iobuf_temp_with_content((const char*)data, length);
	.loc 1 62 9 is_stmt 0 view .LVU19
	mov	r0, r6	@, data
@ src/decrypt.c:54:     size_t len = 0;
	.loc 1 54 12 view .LVU20
	str	r4, [sp, #12]	@ tmp132, len
	.loc 1 55 5 is_stmt 1 view .LVU21
.LVL4:
	.loc 1 57 5 view .LVU22
	.loc 1 58 5 view .LVU23
	.loc 1 59 5 view .LVU24
	.loc 1 60 5 view .LVU25
	.loc 1 62 5 view .LVU26
@ src/decrypt.c:62:     a = iobuf_temp_with_content((const char*)data, length);
	.loc 1 62 9 is_stmt 0 view .LVU27
	mov	r1, r5	@, length
	bl	iobuf_temp_with_content(PLT)	@
.LVL5:
	.loc 1 64 5 is_stmt 1 view .LVU28
@ src/decrypt.c:64:     if (!a) {
	.loc 1 64 8 is_stmt 0 view .LVU29
	subs	r6, r0, #0	@ a, tmp151
.LVL6:
	.loc 1 64 8 view .LVU30
	beq	.L3		@,
	.loc 1 67 5 is_stmt 1 view .LVU31
	ldr	r5, .L6+12	@ tmp134,
.LVL7:
	.loc 1 67 5 is_stmt 0 view .LVU32
	mov	r1, r4	@, tmp132
	mov	r0, r4	@, tmp132
.LVL8:
	.loc 1 67 5 view .LVU33
.LPIC2:
	add	r5, pc, r5	@ tmp134, tmp134
	bl	translate_file_handle(PLT)	@
.LVL9:
	mov	r1, r5	@, tmp134
	bl	iobuf_fdopen(PLT)	@
.LVL10:
	.loc 1 70 4 is_stmt 1 view .LVU34
@ src/decrypt.c:70: 	  fp = fd_cache_open (NULL, opentype);
	.loc 1 70 9 is_stmt 0 view .LVU35
	mov	r1, r5	@, tmp134
	mov	r0, r4	@, tmp132
	bl	fd_cache_open(PLT)	@
.LVL11:
	mov	r9, r0	@ fp, tmp152
.LVL12:
	.loc 1 71 5 is_stmt 1 view .LVU36
@ src/decrypt.c:71:     fcx = xmalloc (sizeof *fcx + strlen (fname));
	.loc 1 71 34 is_stmt 0 view .LVU37
	mov	r0, r4	@, tmp132
.LVL13:
	.loc 1 71 34 view .LVU38
	bl	strlen(PLT)	@
.LVL14:
@ src/decrypt.c:71:     fcx = xmalloc (sizeof *fcx + strlen (fname));
	.loc 1 71 11 view .LVU39
	add	r0, r0, #56	@, tmp153,
	bl	xmalloc(PLT)	@
.LVL15:
@ src/decrypt.c:73:     fcx->print_only_name = print_only;
	.loc 1 73 26 view .LVU40
	str	r4, [r0, #16]	@ tmp132, fcx_26->print_only_name
@ src/decrypt.c:71:     fcx = xmalloc (sizeof *fcx + strlen (fname));
	.loc 1 71 11 view .LVU41
	mov	r5, r0	@ fcx, tmp154
.LVL16:
	.loc 1 72 5 is_stmt 1 view .LVU42
@ src/decrypt.c:72:     fcx->fp = fp;
	.loc 1 72 13 is_stmt 0 view .LVU43
	str	r9, [r0]	@ fp, fcx_26->fp
	.loc 1 73 5 is_stmt 1 view .LVU44
	.loc 1 74 5 view .LVU45
	mov	r1, r4	@, tmp132
	add	r0, r0, #54	@, fcx,
.LVL17:
	.loc 1 74 5 is_stmt 0 view .LVU46
	bl	strcpy(PLT)	@
.LVL18:
	.loc 1 75 5 is_stmt 1 view .LVU47
.LBB7:
	.loc 1 76 7 view .LVU48
@ src/decrypt.c:76:       a->real_fname = xstrdup (fname);
	.loc 1 76 23 is_stmt 0 view .LVU49
	mov	r0, r4	@, tmp132
	bl	xstrdup(PLT)	@
.LVL19:
.LBE7:
@ src/decrypt.c:77:     a->filter = file_filter;
	.loc 1 77 15 view .LVU50
	ldr	r3, .L6+16	@ tmp157,
@ src/decrypt.c:78:     fcx->no_cache = 1;
	.loc 1 78 19 view .LVU51
	mov	r1, #1	@ tmp143,
.LBB8:
@ src/decrypt.c:76:       a->real_fname = xstrdup (fname);
	.loc 1 76 21 view .LVU52
	str	r0, [r6, #56]	@ tmp155, a_19->real_fname
.LBE8:
	.loc 1 77 5 is_stmt 1 view .LVU53
@ src/decrypt.c:82:     file_filter (fcx, IOBUFCTRL_INIT, NULL, NULL, &len);
	.loc 1 82 5 is_stmt 0 view .LVU54
	mov	r2, r4	@, tmp132
@ src/decrypt.c:77:     a->filter = file_filter;
	.loc 1 77 15 view .LVU55
	ldr	r3, [r8, r3]	@ tmp141,
@ src/decrypt.c:82:     file_filter (fcx, IOBUFCTRL_INIT, NULL, NULL, &len);
	.loc 1 82 5 view .LVU56
	mov	r0, r5	@, fcx
@ src/decrypt.c:77:     a->filter = file_filter;
	.loc 1 77 15 view .LVU57
	str	r3, [r6, #44]	@ tmp141, a_19->filter
	.loc 1 78 5 is_stmt 1 view .LVU58
@ src/decrypt.c:82:     file_filter (fcx, IOBUFCTRL_INIT, NULL, NULL, &len);
	.loc 1 82 5 is_stmt 0 view .LVU59
	add	r3, sp, #12	@ tmp144,,
@ src/decrypt.c:78:     fcx->no_cache = 1;
	.loc 1 78 19 view .LVU60
	str	r1, [r5, #8]	@ tmp143, fcx_26->no_cache
	.loc 1 79 5 is_stmt 1 view .LVU61
@ src/decrypt.c:79:     a->filter_ov = fcx;
	.loc 1 79 18 is_stmt 0 view .LVU62
	str	r5, [r6, #48]	@ fcx, a_19->filter_ov
	.loc 1 82 5 is_stmt 1 view .LVU63
	str	r3, [sp]	@ tmp144,
	mov	r3, r4	@, tmp132
	bl	file_filter(PLT)	@
.LVL20:
	.loc 1 94 5 view .LVU64
@ src/decrypt.c:94:     rc = proc_encryption_packets(ctrl, NULL, a);
	.loc 1 94 10 is_stmt 0 view .LVU65
	mov	r1, r4	@, tmp132
	mov	r2, r6	@, a
	mov	r0, r7	@, ctrl
	bl	proc_encryption_packets(PLT)	@
.LVL21:
	mov	r4, r0	@ tmp156,
@ src/decrypt.c:96:     printf("\n\nEND decrypt_memory\n\n");
	.loc 1 96 5 view .LVU66
	ldr	r0, .L6+20	@,
.LPIC5:
	add	r0, pc, r0	@,
.LVL22:
	.loc 1 96 5 is_stmt 1 view .LVU67
	bl	tfp_printf(PLT)	@
.LVL23:
	.loc 1 99 5 view .LVU68
.L1:
@ src/decrypt.c:100: }
	.loc 1 100 1 is_stmt 0 view .LVU69
	mov	r0, r4	@, <retval>
	add	sp, sp, #20	@,,
	.cfi_remember_state
	.cfi_def_cfa_offset 28
	@ sp needed	@
	pop	{r4, r5, r6, r7, r8, r9, pc}	@
.LVL24:
.L3:
	.cfi_restore_state
@ src/decrypt.c:65:         return gpg_error_from_syserror();
	.loc 1 65 16 view .LVU70
	mvn	r4, #0	@ <retval>,
	b	.L1		@
.L7:
	.align	2
.L6:
	.word	.LC0-(.LPIC0+8)
	.word	_GLOBAL_OFFSET_TABLE_-(.LPIC4+8)
	.word	.LC1-(.LPIC1+8)
	.word	.LC2-(.LPIC2+8)
	.word	file_filter(GOT)
	.word	.LC3-(.LPIC5+8)
	.cfi_endproc
.LFE19:
	.size	decrypt_memory, .-decrypt_memory
	.section	.rodata.decrypt_message.str1.4,"aMS",%progbits,1
	.align	2
.LC4:
	.ascii	"decrypt_message filename:%s\012\000"
	.align	2
.LC5:
	.ascii	"opt.outfile:%s\012\000"
	.section	.text.decrypt_message,"ax",%progbits
	.align	2
	.global	decrypt_message
	.syntax unified
	.arm
	.fpu softvfp
	.type	decrypt_message, %function
decrypt_message:
.LVL25:
.LFB20:
	.loc 1 111 1 is_stmt 1 view -0
	.cfi_startproc
	@ args = 0, pretend = 0, frame = 0
	@ frame_needed = 0, uses_anonymous_args = 0
	.loc 1 112 3 view .LVU72
@ src/decrypt.c:111: {
	.loc 1 111 1 is_stmt 0 view .LVU73
	push	{r4, r5, r6, lr}	@
	.cfi_def_cfa_offset 16
	.cfi_offset 4, -16
	.cfi_offset 5, -12
	.cfi_offset 6, -8
	.cfi_offset 14, -4
@ src/decrypt.c:111: {
	.loc 1 111 1 view .LVU74
	mov	r5, r0	@ tmp126, ctrl
@ src/decrypt.c:112:   printf("decrypt_message filename:%s\n",filename);
	.loc 1 112 3 view .LVU75
	ldr	r0, .L12	@,
.LVL26:
@ src/decrypt.c:111: {
	.loc 1 111 1 view .LVU76
	mov	r4, r1	@ filename, tmp127
	ldr	r6, .L12+4	@ tmp121,
@ src/decrypt.c:112:   printf("decrypt_message filename:%s\n",filename);
	.loc 1 112 3 view .LVU77
.LPIC6:
	add	r0, pc, r0	@,
@ src/decrypt.c:111: {
	.loc 1 111 1 view .LVU78
.LPIC7:
	add	r6, pc, r6	@ tmp121, tmp121
@ src/decrypt.c:112:   printf("decrypt_message filename:%s\n",filename);
	.loc 1 112 3 view .LVU79
	bl	tfp_printf(PLT)	@
.LVL27:
	.loc 1 113 3 is_stmt 1 view .LVU80
	.loc 1 116 3 view .LVU81
	.loc 1 121 3 view .LVU82
@ src/decrypt.c:121:   fp = iobuf_open (filename);
	.loc 1 121 8 is_stmt 0 view .LVU83
	mov	r0, r4	@, filename
	bl	iobuf_open(PLT)	@
.LVL28:
	mov	r4, r0	@ tmp128,
.LVL29:
	.loc 1 132 1 is_stmt 1 view .LVU84
	bl	iobuf_get_fd(PLT)	@
.LVL30:
	.loc 1 133 3 view .LVU85
@ src/decrypt.c:133:   if ( !fp )
	.loc 1 133 6 is_stmt 0 view .LVU86
	cmp	r4, #0	@ fp,
	beq	.L10		@,
	.loc 1 160 3 is_stmt 1 view .LVU87
	ldr	r3, .L12+8	@ tmp130,
	ldr	r0, .L12+12	@,
	ldr	r3, [r6, r3]	@ tmp120,
.LPIC8:
	add	r0, pc, r0	@,
	ldr	r1, [r3, #16]	@, opt.outfile
	bl	tfp_printf(PLT)	@
.LVL31:
	.loc 1 161 3 view .LVU88
@ src/decrypt.c:161:   rc = proc_encryption_packets (ctrl, NULL, fp );
	.loc 1 161 8 is_stmt 0 view .LVU89
	mov	r2, r4	@, fp
	mov	r1, #0	@,
	mov	r0, r5	@, ctrl
	bl	proc_encryption_packets(PLT)	@
.LVL32:
	mov	r3, r0	@ tmp129,
@ src/decrypt.c:165:   iobuf_close (fp);
	.loc 1 165 3 view .LVU90
	mov	r0, r4	@, fp
@ src/decrypt.c:161:   rc = proc_encryption_packets (ctrl, NULL, fp );
	.loc 1 161 8 view .LVU91
	mov	r4, r3	@ <retval>, tmp129
.LVL33:
	.loc 1 165 3 is_stmt 1 view .LVU92
	bl	iobuf_close(PLT)	@
.LVL34:
	.loc 1 168 3 view .LVU93
.L8:
@ src/decrypt.c:169: }
	.loc 1 169 1 is_stmt 0 view .LVU94
	mov	r0, r4	@, <retval>
	pop	{r4, r5, r6, pc}	@
.LVL35:
.L10:
@ src/decrypt.c:139:       return rc;
	.loc 1 139 14 view .LVU95
	mvn	r4, #0	@ <retval>,
.LVL36:
	.loc 1 139 14 view .LVU96
	b	.L8		@
.L13:
	.align	2
.L12:
	.word	.LC4-(.LPIC6+8)
	.word	_GLOBAL_OFFSET_TABLE_-(.LPIC7+8)
	.word	opt(GOT)
	.word	.LC5-(.LPIC8+8)
	.cfi_endproc
.LFE20:
	.size	decrypt_message, .-decrypt_message
	.global	opt
	.section	.bss.opt,"aw",%nobits
	.align	3
	.type	opt, %object
	.size	opt, 544
opt:
	.space	544
	.text
.Letext0:
	.file 2 "/usr/lib/gcc/arm-none-eabi/10.3.1/include/stddef.h"
	.file 3 "/usr/include/newlib/sys/_types.h"
	.file 4 "/usr/lib/gcc/arm-none-eabi/10.3.1/include/stdint.h"
	.file 5 "src/libgcrypt.h"
	.file 6 "src/gpg.h"
	.file 7 "/usr/include/newlib/sys/types.h"
	.file 8 "src/common/../gpg-error.h"
	.file 9 "src/common/../common/sysutils.h"
	.file 10 "src/common/iobuf.h"
	.file 11 "src/common/../common/fwddecl.h"
	.file 12 "src/packet.h"
	.file 13 "src/common/compliance.h"
	.file 14 "src/options.h"
	.file 15 "src/printf.h"
	.file 16 "/usr/include/newlib/string.h"
	.file 17 "src/memory.h"