	.cpu cortex-a7
	.eabi_attribute 20, 1	@ Tag_ABI_FP_denormal
	.eabi_attribute 21, 1	@ Tag_ABI_FP_exceptions
	.eabi_attribute 23, 3	@ Tag_ABI_FP_number_model
	.eabi_attribute 24, 1	@ Tag_ABI_align8_needed
	.eabi_attribute 25, 1	@ Tag_ABI_align8_preserved
	.eabi_attribute 26, 1	@ Tag_ABI_enum_size
	.eabi_attribute 30, 2	@ Tag_ABI_optimization_goals
	.eabi_attribute 34, 1	@ Tag_CPU_unaligned_access
	.eabi_attribute 18, 4	@ Tag_ABI_PCS_wchar_t
	.file	"decrypt-data.c"
@ GNU C17 (15:10.3-2021.07-4) version 10.3.1 20210621 (release) (arm-none-eabi)
@	compiled by GNU C version 11.2.0, GMP version 6.2.1, MPFR version 4.1.0, MPC version 1.2.1, isl version isl-0.24-GMP

@ GGC heuristics: --param ggc-min-expand=100 --param ggc-min-heapsize=131072
@ options passed:  -I src -I src/common -imultilib thumb/v7-a/nofp
@ -D__USES_INITFINI__ src/decrypt-data.c -mcpu=cortex-a7 -mfloat-abi=soft
@ -marm -mlibarch=armv7ve -march=armv7ve
@ -auxbase-strip build/asm_output/decrypt-data.s -g -O2 -Wall -Wextra -fpic
@ -ffreestanding -ffunction-sections -fdata-sections -fno-common
@ -fverbose-asm
@ options enabled:  -faggressive-loop-optimizations -falign-functions
@ -falign-jumps -falign-labels -falign-loops -fallocation-dce
@ -fauto-inc-dec -fbranch-count-reg -fcaller-saves
@ -fcombine-stack-adjustments -fcompare-elim -fcprop-registers
@ -fcrossjumping -fcse-follow-jumps -fdata-sections -fdefer-pop
@ -fdelete-null-pointer-checks -fdevirtualize -fdevirtualize-speculatively
@ -fdwarf2-cfi-asm -fearly-inlining -feliminate-unused-debug-symbols
@ -feliminate-unused-debug-types -fexpensive-optimizations
@ -fforward-propagate -ffp-int-builtin-inexact -ffunction-cse
@ -ffunction-sections -fgcse -fgcse-lm -fgnu-unique
@ -fguess-branch-probability -fhoist-adjacent-loads -fident -fif-conversion
@ -fif-conversion2 -findirect-inlining -finline -finline-atomics
@ -finline-functions -finline-functions-called-once
@ -finline-small-functions -fipa-bit-cp -fipa-cp -fipa-icf
@ -fipa-icf-functions -fipa-icf-variables -fipa-profile -fipa-pure-const
@ -fipa-ra -fipa-reference -fipa-reference-addressable -fipa-sra
@ -fipa-stack-alignment -fipa-vrp -fira-hoist-pressure
@ -fira-share-save-slots -fira-share-spill-slots
@ -fisolate-erroneous-paths-dereference -fivopts -fkeep-static-consts
@ -fleading-underscore -flifetime-dse -flra-remat -fmath-errno
@ -fmerge-constants -fmerge-debug-strings -fmove-loop-invariants
@ -fomit-frame-pointer -foptimize-sibling-calls -foptimize-strlen
@ -fpartial-inlining -fpeephole -fpeephole2 -fpic -fplt
@ -fprefetch-loop-arrays -freg-struct-return -freorder-blocks
@ -freorder-functions -frerun-cse-after-loop
@ -fsched-critical-path-heuristic -fsched-dep-count-heuristic
@ -fsched-group-heuristic -fsched-interblock -fsched-last-insn-heuristic
@ -fsched-pressure -fsched-rank-heuristic -fsched-spec
@ -fsched-spec-insn-heuristic -fsched-stalled-insns-dep -fschedule-insns
@ -fschedule-insns2 -fsection-anchors -fsemantic-interposition
@ -fshow-column -fshrink-wrap -fshrink-wrap-separate -fsigned-zeros
@ -fsplit-ivs-in-unroller -fsplit-wide-types -fssa-backprop -fssa-phiopt
@ -fstdarg-opt -fstore-merging -fstrict-aliasing
@ -fstrict-volatile-bitfields -fsync-libcalls -fthread-jumps
@ -ftoplevel-reorder -ftrapping-math -ftree-bit-ccp -ftree-builtin-call-dce
@ -ftree-ccp -ftree-ch -ftree-coalesce-vars -ftree-copy-prop -ftree-cselim
@ -ftree-dce -ftree-dominator-opts -ftree-dse -ftree-forwprop -ftree-fre
@ -ftree-loop-if-convert -ftree-loop-im -ftree-loop-ivcanon
@ -ftree-loop-optimize -ftree-parallelize-loops= -ftree-phiprop -ftree-pre
@ -ftree-pta -ftree-reassoc -ftree-scev-cprop -ftree-sink -ftree-slsr
@ -ftree-sra -ftree-switch-conversion -ftree-tail-merge -ftree-ter
@ -ftree-vrp -funit-at-a-time -fvar-tracking -fvar-tracking-assignments
@ -fverbose-asm -fzero-initialized-in-bss -marm -mbe32 -mlittle-endian
@ -mpic-data-is-text-relative -msched-prolog -munaligned-access
@ -mvectorize-with-neon-quad -mword-relocations

	.text
.Ltext0:
	.cfi_sections	.debug_frame
	.section	.text.release_dfx_context,"ax",%progbits
	.align	2
	.arch armv7ve
	.syntax unified
	.arm
	.fpu softvfp
	.type	release_dfx_context, %function
release_dfx_context:
.LVL0:
.LFB19:
	.file 1 "src/decrypt-data.c"
	.loc 1 107 1 view -0
	.cfi_startproc
	@ args = 0, pretend = 0, frame = 0
	@ frame_needed = 0, uses_anonymous_args = 0
	.loc 1 108 3 view .LVU1
@ src/decrypt-data.c:107: {
	.loc 1 107 1 is_stmt 0 view .LVU2
	push	{r4, r5, r6, lr}	@
	.cfi_def_cfa_offset 16
	.cfi_offset 4, -16
	.cfi_offset 5, -12
	.cfi_offset 6, -8
	.cfi_offset 14, -4
@ src/decrypt-data.c:108:   if (!dfx)
	.loc 1 108 6 view .LVU3
	subs	r4, r0, #0	@ dfx, tmp126
	popeq	{r4, r5, r6, pc}	@
	.loc 1 111 3 is_stmt 1 view .LVU4
	ldr	r0, [r4]	@, dfx_6(D)->refcount
.LVL1:
	.loc 1 111 3 is_stmt 0 view .LVU5
	bl	tfp_printf(PLT)	@
.LVL2:
	.loc 1 112 3 is_stmt 1 view .LVU6
@ src/decrypt-data.c:112:   if (!--dfx->refcount)
	.loc 1 112 8 is_stmt 0 view .LVU7
	ldr	r5, [r4]	@ dfx_6(D)->refcount, dfx_6(D)->refcount
	sub	r5, r5, #1	@ _4, dfx_6(D)->refcount,
@ src/decrypt-data.c:112:   if (!--dfx->refcount)
	.loc 1 112 6 view .LVU8
	str	r5, [r4]	@ _4, dfx_6(D)->refcount
	cmp	r5, #0	@ _4,
	popne	{r4, r5, r6, pc}	@
.LVL3:
.LBB41:
.LBI41:
	.loc 1 106 1 is_stmt 1 view .LVU9
.LBB42:
	.loc 1 115 5 view .LVU10
	ldr	r0, [r4, #4]	@, dfx_6(D)->cipher_hd
	bl	xfree(PLT)	@
.LVL4:
	.loc 1 116 5 view .LVU11
@ src/decrypt-data.c:118:     xfree(dfx->mdc_hash);
	.loc 1 118 5 is_stmt 0 view .LVU12
	ldr	r0, [r4, #8]	@, dfx_6(D)->mdc_hash
@ src/decrypt-data.c:116:     dfx->cipher_hd = NULL;
	.loc 1 116 20 view .LVU13
	str	r5, [r4, #4]	@ _4, dfx_6(D)->cipher_hd
	.loc 1 118 5 is_stmt 1 view .LVU14
	bl	xfree(PLT)	@
.LVL5:
	.loc 1 119 5 view .LVU15
@ src/decrypt-data.c:119:     dfx->mdc_hash = NULL;
	.loc 1 119 19 is_stmt 0 view .LVU16
	str	r5, [r4, #8]	@ _4, dfx_6(D)->mdc_hash
	.loc 1 120 5 is_stmt 1 view .LVU17
	mov	r0, r4	@, dfx
.LBE42:
.LBE41:
@ src/decrypt-data.c:122: }
	.loc 1 122 1 is_stmt 0 view .LVU18
	pop	{r4, r5, r6, lr}	@
	.cfi_restore 14
	.cfi_restore 6
	.cfi_restore 5
	.cfi_restore 4
	.cfi_def_cfa_offset 0
.LVL6:
.LBB44:
.LBB43:
@ src/decrypt-data.c:120:     xfree(dfx);
	.loc 1 120 5 view .LVU19
	b	xfree(PLT)	@
.LVL7:
	.loc 1 120 5 view .LVU20
.LBE43:
.LBE44:
	.cfi_endproc
.LFE19:
	.size	release_dfx_context, .-release_dfx_context
	.section	.rodata.decode_filter.str1.4,"aMS",%progbits,1
	.align	2
.LC0:
	.ascii	"decode_filter control %d, ret_len=%d len=%d\012\000"
	.align	2
.LC1:
	.ascii	"IOBUFCTRL_UNDERFLOW && fc->eof_seen\012\000"
	.align	2
.LC2:
	.ascii	"control == IOBUFCTRL_UNDERFLOW\012\000"
	.align	2
.LC3:
	.ascii	"fill_buffer\012\000"
	.align	2
.LC4:
	.ascii	"dfx->partial nread=%zu nbytes=%zu\012\000"
	.align	2
.LC5:
	.ascii	"cipher_hd is allocated\012\000"
	.section	.text.decode_filter,"ax",%progbits
	.align	2
	.syntax unified
	.arm
	.fpu softvfp
	.type	decode_filter, %function
decode_filter:
.LVL8:
.LFB22:
	.loc 1 1043 1 is_stmt 1 view -0
	.cfi_startproc
	@ args = 4, pretend = 0, frame = 0
	@ frame_needed = 0, uses_anonymous_args = 0
	.loc 1 1044 5 view .LVU22
@ src/decrypt-data.c:1043: {
	.loc 1 1043 1 is_stmt 0 view .LVU23
	push	{r4, r5, r6, r7, r8, r9, r10, lr}	@
	.cfi_def_cfa_offset 32
	.cfi_offset 4, -32
	.cfi_offset 5, -28
	.cfi_offset 6, -24
	.cfi_offset 7, -20
	.cfi_offset 8, -16
	.cfi_offset 9, -12
	.cfi_offset 10, -8
	.cfi_offset 14, -4
	sub	sp, sp, #8	@,,
	.cfi_def_cfa_offset 40
@ src/decrypt-data.c:1043: {
	.loc 1 1043 1 view .LVU24
	mov	r5, r0	@ tmp192, opaque
	mov	r4, r1	@ control, tmp193
	ldr	r9, [sp, #40]	@ ret_len, ret_len
	mov	r7, r2	@ tmp194, a
@ src/decrypt-data.c:1046:   printf("decode_filter control %d, ret_len=%d len=%d\n",control,*ret_len, fc->length);
	.loc 1 1046 3 view .LVU25
	ldr	r0, .L38	@,
.LVL9:
@ src/decrypt-data.c:1043: {
	.loc 1 1043 1 view .LVU26
	mov	r6, r3	@ tmp195, buf
@ src/decrypt-data.c:1046:   printf("decode_filter control %d, ret_len=%d len=%d\n",control,*ret_len, fc->length);
	.loc 1 1046 3 view .LVU27
	ldr	r2, [r9]	@, *ret_len_16(D)
.LVL10:
	.loc 1 1046 3 view .LVU28
.LPIC0:
	add	r0, pc, r0	@,
.LVL11:
	.loc 1 1046 3 is_stmt 1 view .LVU29
	ldr	r3, [r5, #120]	@, MEM[(struct decode_filter_context_s *)opaque_14(D)].length
.LVL12:
	.loc 1 1046 3 is_stmt 0 view .LVU30
	bl	tfp_printf(PLT)	@
.LVL13:
	.loc 1 1047 3 is_stmt 1 view .LVU31
	.loc 1 1049 3 view .LVU32
	.loc 1 1050 3 view .LVU33
	.loc 1 1052 3 view .LVU34
@ src/decrypt-data.c:1052:   if (control == IOBUFCTRL_UNDERFLOW && fc->eof_seen)
	.loc 1 1052 6 is_stmt 0 view .LVU35
	cmp	r4, #3	@ control,
	beq	.L34		@,
	.loc 1 1058 8 is_stmt 1 view .LVU36
	.loc 1 1079 8 view .LVU37
@ src/decrypt-data.c:1079:   else if (control == IOBUFCTRL_FREE)
	.loc 1 1079 11 is_stmt 0 view .LVU38
	cmp	r4, #2	@ control,
@ src/decrypt-data.c:1050:   int rc = 0;
	.loc 1 1050 7 view .LVU39
	movne	r0, #0	@ <retval>,
@ src/decrypt-data.c:1079:   else if (control == IOBUFCTRL_FREE)
	.loc 1 1079 11 view .LVU40
	beq	.L35		@,
.LVL14:
.L7:
@ src/decrypt-data.c:1088: }
	.loc 1 1088 1 view .LVU41
	add	sp, sp, #8	@,,
	.cfi_remember_state
	.cfi_def_cfa_offset 32
	@ sp needed	@
	pop	{r4, r5, r6, r7, r8, r9, r10, pc}	@
.LVL15:
.L34:
	.cfi_restore_state
@ src/decrypt-data.c:1052:   if (control == IOBUFCTRL_UNDERFLOW && fc->eof_seen)
	.loc 1 1052 38 discriminator 1 view .LVU42
	ldrb	r4, [r5, #80]	@ zero_extendqisi2	@ MEM[(struct decode_filter_context_s *)opaque_14(D)], MEM[(struct decode_filter_context_s *)opaque_14(D)]
.LVL16:
	.loc 1 1052 38 discriminator 1 view .LVU43
	ands	r10, r4, #6	@ tmp149, MEM[(struct decode_filter_context_s *)opaque_14(D)],
	bne	.L36		@,
@ src/decrypt-data.c:1060:     printf("control == IOBUFCTRL_UNDERFLOW\n");
	.loc 1 1060 5 view .LVU44
	ldr	r0, .L38+4	@,
@ src/decrypt-data.c:1047:   size_t size = *ret_len;
	.loc 1 1047 10 view .LVU45
	ldr	r8, [r9]	@ size, *ret_len_16(D)
	.loc 1 1058 8 is_stmt 1 view .LVU46
	.loc 1 1060 5 view .LVU47
.LPIC2:
	add	r0, pc, r0	@,
	bl	tfp_printf(PLT)	@
.LVL17:
	.loc 1 1062 5 view .LVU48
.LBB48:
.LBI48:
	.loc 1 623 1 view .LVU49
.LBB49:
	.loc 1 626 3 view .LVU50
	ldr	r0, .L38+8	@,
.LPIC3:
	add	r0, pc, r0	@,
	bl	tfp_printf(PLT)	@
.LVL18:
	.loc 1 627 3 view .LVU51
	.loc 1 628 3 view .LVU52
	.loc 1 629 3 view .LVU53
	.loc 1 631 3 view .LVU54
@ src/decrypt-data.c:631:   if (dfx->partial)
	.loc 1 631 7 is_stmt 0 view .LVU55
	ldrb	r3, [r5, #80]	@ zero_extendqisi2	@ prephitmp_76, MEM[(struct decode_filter_context_s *)opaque_14(D)]
@ src/decrypt-data.c:631:   if (dfx->partial)
	.loc 1 631 6 view .LVU56
	ands	r4, r3, #1	@ tmp159, prephitmp_76,
	bne	.L11		@,
	.loc 1 650 11 is_stmt 1 view .LVU57
	cmp	r8, #0	@ size,
	beq	.L12		@,
@ src/decrypt-data.c:650:     while (nread < nbytes && dfx->length)
	.loc 1 650 33 is_stmt 0 view .LVU58
	ldr	ip, [r5, #120]	@ _49, MEM[(struct decode_filter_context_s *)opaque_14(D)].length
	b	.L13		@
.LVL19:
.L21:
@ src/decrypt-data.c:656:       ret = iobuf_read(stream, &buffer[nread], curr);
	.loc 1 656 13 view .LVU59
	cmp	r2, ip	@ curr, _49
	mov	r0, r7	@, a
	movcs	r2, ip	@, _49
.LVL20:
	.loc 1 656 13 view .LVU60
	bl	iobuf_read(PLT)	@
.LVL21:
	.loc 1 663 7 is_stmt 1 view .LVU61
	.loc 1 657 7 view .LVU62
@ src/decrypt-data.c:657:       if (ret == -1)
	.loc 1 657 10 is_stmt 0 view .LVU63
	cmn	r0, #1	@ ret,
	beq	.L37		@,
@ src/decrypt-data.c:664:       dfx->length -= ret;
	.loc 1 664 19 view .LVU64
	ldr	ip, [r5, #120]	@ MEM[(struct decode_filter_context_s *)opaque_14(D)].length, MEM[(struct decode_filter_context_s *)opaque_14(D)].length
@ src/decrypt-data.c:663:       nread += ret;
	.loc 1 663 13 view .LVU65
	add	r4, r4, r0	@ nread, nread, ret
.LVL22:
	.loc 1 664 7 is_stmt 1 view .LVU66
@ src/decrypt-data.c:650:     while (nread < nbytes && dfx->length)
	.loc 1 650 11 is_stmt 0 view .LVU67
	cmp	r8, r4	@ size, nread
@ src/decrypt-data.c:664:       dfx->length -= ret;
	.loc 1 664 19 view .LVU68
	sub	ip, ip, r0	@ _49, MEM[(struct decode_filter_context_s *)opaque_14(D)].length, ret
	str	ip, [r5, #120]	@ _49, MEM[(struct decode_filter_context_s *)opaque_14(D)].length
	.loc 1 650 11 is_stmt 1 view .LVU69
	bls	.L20		@,
.LVL23:
.L13:
	.loc 1 652 7 view .LVU70
@ src/decrypt-data.c:652:       curr = nbytes - nread;
	.loc 1 652 12 is_stmt 0 view .LVU71
	sub	r2, r8, r4	@ curr, size, nread
.LVL24:
	.loc 1 653 7 is_stmt 1 view .LVU72
	.loc 1 656 7 view .LVU73
@ src/decrypt-data.c:650:     while (nread < nbytes && dfx->length)
	.loc 1 650 27 is_stmt 0 view .LVU74
	cmp	ip, #0	@ _49,
@ src/decrypt-data.c:656:       ret = iobuf_read(stream, &buffer[nread], curr);
	.loc 1 656 13 view .LVU75
	add	r1, r6, r4	@, buf, nread
@ src/decrypt-data.c:650:     while (nread < nbytes && dfx->length)
	.loc 1 650 27 view .LVU76
	bne	.L21		@,
.LVL25:
.L22:
	.loc 1 667 7 is_stmt 1 view .LVU77
@ src/decrypt-data.c:667:       dfx->eof_seen = 1; /* Normal EOF.  */
	.loc 1 667 21 is_stmt 0 view .LVU78
	ldrb	r3, [r5, #80]	@ zero_extendqisi2	@, MEM[(struct decode_filter_context_s *)opaque_14(D)].eof_seen
	mov	r2, #1	@ tmp180,
	bfi	r3, r2, #1, #2	@ MEM[(struct decode_filter_context_s *)opaque_14(D)].eof_seen, tmp180,,
	strb	r3, [r5, #80]	@ MEM[(struct decode_filter_context_s *)opaque_14(D)].eof_seen, MEM[(struct decode_filter_context_s *)opaque_14(D)].eof_seen
.L17:
	.loc 1 670 3 is_stmt 1 view .LVU79
.LVL26:
	.loc 1 670 3 is_stmt 0 view .LVU80
.LBE49:
.LBE48:
	.loc 1 1063 5 is_stmt 1 view .LVU81
@ src/decrypt-data.c:1063:     if (n)
	.loc 1 1063 8 is_stmt 0 view .LVU82
	cmp	r4, #0	@ nread,
	bne	.L18		@,
.LVL27:
.L33:
@ src/decrypt-data.c:1073:       if (!fc->eof_seen)
	.loc 1 1073 11 view .LVU83
	ldrb	r3, [r5, #80]	@ zero_extendqisi2	@ prephitmp_76, MEM[(struct decode_filter_context_s *)opaque_14(D)]
.L14:
	.loc 1 1073 7 is_stmt 1 view .LVU84
	.loc 1 1074 9 view .LVU85
@ src/decrypt-data.c:1073:       if (!fc->eof_seen)
	.loc 1 1073 10 is_stmt 0 view .LVU86
	ands	r4, r3, #6	@ tmp186, prephitmp_76,
@ src/decrypt-data.c:1075:       rc = -1; /* Return EOF. */
	.loc 1 1075 10 view .LVU87
	mvn	r0, #0	@ <retval>,
@ src/decrypt-data.c:1074:         fc->eof_seen = 1;
	.loc 1 1074 22 view .LVU88
	moveq	r2, #1	@ tmp189,
	movne	r4, #0	@ nread,
	ldrbeq	r3, [r5, #80]	@ zero_extendqisi2	@, MEM[(struct decode_filter_context_s *)opaque_14(D)].eof_seen
	bfieq	r3, r2, #1, #2	@ MEM[(struct decode_filter_context_s *)opaque_14(D)].eof_seen, tmp189,,
	strbeq	r3, [r5, #80]	@ MEM[(struct decode_filter_context_s *)opaque_14(D)].eof_seen, MEM[(struct decode_filter_context_s *)opaque_14(D)].eof_seen
.LVL28:
.L24:
	.loc 1 1077 5 is_stmt 1 view .LVU89
@ src/decrypt-data.c:1077:     *ret_len = n;
	.loc 1 1077 14 is_stmt 0 view .LVU90
	str	r4, [r9]	@ nread, *ret_len_16(D)
@ src/decrypt-data.c:1088: }
	.loc 1 1088 1 view .LVU91
	add	sp, sp, #8	@,,
	.cfi_remember_state
	.cfi_def_cfa_offset 32
	@ sp needed	@
	pop	{r4, r5, r6, r7, r8, r9, r10, pc}	@
.LVL29:
.L11:
	.cfi_restore_state
.LBB52:
.LBB50:
	.loc 1 633 7 is_stmt 1 view .LVU92
	ldr	r0, .L38+12	@,
	mov	r2, r8	@, size
	mov	r1, r10	@, tmp149
.LPIC4:
	add	r0, pc, r0	@,
	bl	tfp_printf(PLT)	@
.LVL30:
	.loc 1 634 5 view .LVU93
	.loc 1 634 11 view .LVU94
	cmp	r8, #0	@ size,
@ src/decrypt-data.c:627:   size_t nread = offset;
	.loc 1 627 10 is_stmt 0 view .LVU95
	movne	r4, r10	@ nread, tmp149
@ src/decrypt-data.c:634:     while (nread < nbytes)
	.loc 1 634 11 view .LVU96
	bne	.L15		@,
	b	.L33		@
.LVL31:
.L16:
@ src/decrypt-data.c:645:       nread += ret;
	.loc 1 645 13 view .LVU97
	add	r4, r4, r0	@ nread, nread, ret
.LVL32:
	.loc 1 634 11 is_stmt 1 view .LVU98
	cmp	r8, r4	@ size, nread
	bls	.L18		@,
.LVL33:
.L15:
	.loc 1 636 7 view .LVU99
	.loc 1 638 7 view .LVU100
@ src/decrypt-data.c:638:       ret = iobuf_read(stream, &buffer[nread], curr);
	.loc 1 638 13 is_stmt 0 view .LVU101
	sub	r2, r8, r4	@, size, nread
.LVL34:
	.loc 1 638 13 view .LVU102
	mov	r0, r7	@, a
	add	r1, r6, r4	@, buf, nread
	bl	iobuf_read(PLT)	@
.LVL35:
	.loc 1 645 7 is_stmt 1 view .LVU103
	.loc 1 639 7 view .LVU104
@ src/decrypt-data.c:639:       if (ret == -1)
	.loc 1 639 10 is_stmt 0 view .LVU105
	cmn	r0, #1	@ ret,
	bne	.L16		@,
	b	.L22		@
.LVL36:
.L35:
	.loc 1 639 10 view .LVU106
.LBE50:
.LBE52:
	.loc 1 1081 5 is_stmt 1 view .LVU107
	mov	r0, r5	@, opaque
	bl	release_dfx_context(PLT)	@
.LVL37:
@ src/decrypt-data.c:1050:   int rc = 0;
	.loc 1 1050 7 is_stmt 0 view .LVU108
	mov	r0, #0	@ <retval>,
@ src/decrypt-data.c:1088: }
	.loc 1 1088 1 view .LVU109
	add	sp, sp, #8	@,,
	.cfi_remember_state
	.cfi_def_cfa_offset 32
	@ sp needed	@
	pop	{r4, r5, r6, r7, r8, r9, r10, pc}	@
.LVL38:
.L18:
	.cfi_restore_state
.LBB53:
	.loc 1 1065 7 is_stmt 1 view .LVU110
@ src/decrypt-data.c:1065:       if (fc->cipher_hd)
	.loc 1 1065 13 is_stmt 0 view .LVU111
	ldr	r0, [r5, #4]	@ _5, MEM[(struct decode_filter_context_s *)opaque_14(D)].cipher_hd
@ src/decrypt-data.c:1065:       if (fc->cipher_hd)
	.loc 1 1065 10 view .LVU112
	cmp	r0, #0	@ _5,
	beq	.L23		@,
	.loc 1 1066 11 is_stmt 1 view .LVU113
	ldr	r0, .L38+16	@,
.LPIC5:
	add	r0, pc, r0	@,
	bl	tfp_printf(PLT)	@
.LVL39:
@ src/decrypt-data.c:1067:         _gcry_cipher_decrypt (fc->cipher_hd, buf, n, NULL, 0);
	.loc 1 1067 9 is_stmt 0 view .LVU114
	ldr	r0, [r5, #4]	@ _5, MEM[(struct decode_filter_context_s *)opaque_14(D)].cipher_hd
.L23:
	.loc 1 1067 9 is_stmt 1 view .LVU115
	mov	r5, #0	@ tmp183,
.LVL40:
	.loc 1 1067 9 is_stmt 0 view .LVU116
	mov	r1, r6	@, buf
	str	r5, [sp]	@ tmp183,
	mov	r3, r5	@, tmp183
	mov	r2, r4	@, nread
	bl	_gcry_cipher_decrypt(PLT)	@
.LVL41:
.LBE53:
@ src/decrypt-data.c:1050:   int rc = 0;
	.loc 1 1050 7 view .LVU117
	mov	r0, r5	@ <retval>, tmp183
	b	.L24		@
.LVL42:
.L37:
.LBB54:
.LBB51:
	.loc 1 659 9 is_stmt 1 view .LVU118
@ src/decrypt-data.c:659:         dfx->eof_seen = 3; /* Premature EOF. */
	.loc 1 659 23 is_stmt 0 view .LVU119
	ldrb	r3, [r5, #80]	@ zero_extendqisi2	@ MEM[(struct decode_filter_context_s *)opaque_14(D)].eof_seen, MEM[(struct decode_filter_context_s *)opaque_14(D)].eof_seen
@ src/decrypt-data.c:666:     if (!dfx->length)
	.loc 1 666 13 view .LVU120
	ldr	ip, [r5, #120]	@ _49, MEM[(struct decode_filter_context_s *)opaque_14(D)].length
@ src/decrypt-data.c:659:         dfx->eof_seen = 3; /* Premature EOF. */
	.loc 1 659 23 view .LVU121
	orr	r3, r3, #6	@ tmp175, MEM[(struct decode_filter_context_s *)opaque_14(D)].eof_seen,
	strb	r3, [r5, #80]	@ tmp175, MEM[(struct decode_filter_context_s *)opaque_14(D)].eof_seen
	.loc 1 660 9 is_stmt 1 view .LVU122
.L20:
	.loc 1 666 5 view .LVU123
@ src/decrypt-data.c:666:     if (!dfx->length)
	.loc 1 666 8 is_stmt 0 view .LVU124
	cmp	ip, #0	@ _49,
	bne	.L17		@,
	b	.L22		@
.LVL43:
.L12:
	.loc 1 666 5 is_stmt 1 view .LVU125
@ src/decrypt-data.c:666:     if (!dfx->length)
	.loc 1 666 8 is_stmt 0 view .LVU126
	ldr	r2, [r5, #120]	@ MEM[(struct decode_filter_context_s *)opaque_14(D)].length, MEM[(struct decode_filter_context_s *)opaque_14(D)].length
	cmp	r2, #0	@ MEM[(struct decode_filter_context_s *)opaque_14(D)].length,
	.loc 1 667 7 is_stmt 1 view .LVU127
@ src/decrypt-data.c:667:       dfx->eof_seen = 1; /* Normal EOF.  */
	.loc 1 667 21 is_stmt 0 view .LVU128
	moveq	r2, #1	@ tmp163,
	bfieq	r3, r2, #1, #2	@ MEM[(struct decode_filter_context_s *)opaque_14(D)].eof_seen, tmp163,,
	strbeq	r3, [r5, #80]	@ MEM[(struct decode_filter_context_s *)opaque_14(D)].eof_seen, MEM[(struct decode_filter_context_s *)opaque_14(D)].eof_seen
	.loc 1 670 3 is_stmt 1 view .LVU129
.LVL44:
	.loc 1 670 3 is_stmt 0 view .LVU130
.LBE51:
.LBE54:
	.loc 1 1063 5 is_stmt 1 view .LVU131
@ src/decrypt-data.c:1073:       if (!fc->eof_seen)
	.loc 1 1073 11 is_stmt 0 view .LVU132
	uxtbeq	r3, r3	@ prephitmp_76, MEM[(struct decode_filter_context_s *)opaque_14(D)].eof_seen
	b	.L14		@
.LVL45:
.L36:
	.loc 1 1054 5 is_stmt 1 view .LVU133
	ldr	r0, .L38+20	@,
.LPIC1:
	add	r0, pc, r0	@,
	bl	tfp_printf(PLT)	@
.LVL46:
	.loc 1 1054 53 view .LVU134
	.loc 1 1055 5 view .LVU135
@ src/decrypt-data.c:1055:     *ret_len = 0;
	.loc 1 1055 14 is_stmt 0 view .LVU136
	mov	r3, #0	@ tmp152,
@ src/decrypt-data.c:1056:     rc = -1;
	.loc 1 1056 8 view .LVU137
	mvn	r0, #0	@ <retval>,
@ src/decrypt-data.c:1055:     *ret_len = 0;
	.loc 1 1055 14 view .LVU138
	str	r3, [r9]	@ tmp152, *ret_len_16(D)
	.loc 1 1056 5 is_stmt 1 view .LVU139
.LVL47:
@ src/decrypt-data.c:1056:     rc = -1;
	.loc 1 1056 8 is_stmt 0 view .LVU140
	b	.L7		@
.L39:
	.align	2
.L38:
	.word	.LC0-(.LPIC0+8)
	.word	.LC2-(.LPIC2+8)
	.word	.LC3-(.LPIC3+8)
	.word	.LC4-(.LPIC4+8)
	.word	.LC5-(.LPIC5+8)
	.word	.LC1-(.LPIC1+8)
	.cfi_endproc
.LFE22:
	.size	decode_filter, .-decode_filter
	.section	.rodata.decrypt_data.str1.4,"aMS",%progbits,1
	.align	2
.LC6:
	.ascii	"decrypt_data\012\000"
	.align	2
.LC7:
	.ascii	"decrypt_data %d\012\000"
	.align	2
.LC8:
	.ascii	"%d %d %d\000"
	.align	2
.LC9:
	.ascii	"problem handling encrypted packet\012\000"
	.align	2
.LC10:
	.ascii	"ed->len: %d\012\000"
	.align	2
.LC11:
	.ascii	"\012\012BAD KEY!\012\012\000"
	.align	2
.LC12:
	.ascii	"\012\012GOOD KEY!\012\012\000"
	.section	.text.decrypt_data,"ax",%progbits
	.align	2
	.global	decrypt_data
	.syntax unified
	.arm
	.fpu softvfp
	.type	decrypt_data, %function
decrypt_data:
.LVL48:
.LFB20:
	.loc 1 225 1 is_stmt 1 view -0
	.cfi_startproc
	@ args = 4, pretend = 0, frame = 40
	@ frame_needed = 0, uses_anonymous_args = 0
	.loc 1 226 3 view .LVU142
@ src/decrypt-data.c:225: {
	.loc 1 225 1 is_stmt 0 view .LVU143
	push	{r4, r5, r6, r7, r8, r9, r10, lr}	@
	.cfi_def_cfa_offset 32
	.cfi_offset 4, -32
	.cfi_offset 5, -28
	.cfi_offset 6, -24
	.cfi_offset 7, -20
	.cfi_offset 8, -16
	.cfi_offset 9, -12
	.cfi_offset 10, -8
	.cfi_offset 14, -4
	sub	sp, sp, #48	@,,
	.cfi_def_cfa_offset 80
@ src/decrypt-data.c:225: {
	.loc 1 225 1 view .LVU144
	mov	r7, r0	@ tmp278, ctrl
@ src/decrypt-data.c:262:   *compliance_error = 0;
	.loc 1 262 21 view .LVU145
	mov	r6, #0	@ tmp193,
@ src/decrypt-data.c:226:   printf("decrypt_data\n");
	.loc 1 226 3 view .LVU146
	ldr	r0, .L75	@,
.LVL49:
@ src/decrypt-data.c:225: {
	.loc 1 225 1 view .LVU147
	mov	r8, r1	@ procctx, tmp279
	ldr	r9, [sp, #80]	@ compliance_error, compliance_error
	mov	r4, r2	@ ed, tmp280
@ src/decrypt-data.c:226:   printf("decrypt_data\n");
	.loc 1 226 3 view .LVU148
.LPIC6:
	add	r0, pc, r0	@,
@ src/decrypt-data.c:225: {
	.loc 1 225 1 view .LVU149
	mov	r5, r3	@ dek, tmp281
@ src/decrypt-data.c:226:   printf("decrypt_data\n");
	.loc 1 226 3 view .LVU150
	bl	tfp_printf(PLT)	@
.LVL50:
	.loc 1 253 3 is_stmt 1 view .LVU151
	.loc 1 254 3 view .LVU152
	.loc 1 255 3 view .LVU153
	.loc 1 256 3 view .LVU154
	.loc 1 257 3 view .LVU155
	.loc 1 258 3 view .LVU156
	.loc 1 259 3 view .LVU157
	.loc 1 260 3 view .LVU158
	.loc 1 262 3 view .LVU159
@ src/decrypt-data.c:262:   *compliance_error = 0;
	.loc 1 262 21 is_stmt 0 view .LVU160
	str	r6, [r9]	@ tmp193, *compliance_error_84(D)
	.loc 1 265 3 is_stmt 1 view .LVU161
@ src/decrypt-data.c:265:   dfx = xtrycalloc(1, sizeof *dfx);
	.loc 1 265 9 is_stmt 0 view .LVU162
	mov	r1, #128	@,
	mov	r0, #1	@,
	bl	xtrycalloc(PLT)	@
.LVL51:
@ src/decrypt-data.c:266:   if (!dfx)
	.loc 1 266 6 view .LVU163
	cmp	r0, r6	@ _1,
@ src/decrypt-data.c:265:   dfx = xtrycalloc(1, sizeof *dfx);
	.loc 1 265 7 view .LVU164
	str	r0, [sp, #12]	@ _1, dfx
	.loc 1 266 3 is_stmt 1 view .LVU165
@ src/decrypt-data.c:266:   if (!dfx)
	.loc 1 266 6 is_stmt 0 view .LVU166
	beq	.L46		@,
	.loc 1 268 3 is_stmt 1 view .LVU167
@ src/decrypt-data.c:273:   printf("decrypt_data %d\n",dfx->length);
	.loc 1 273 3 is_stmt 0 view .LVU168
	ldr	r1, [r0, #120]	@, MEM[(struct decode_filter_context_s *)_1].length
@ src/decrypt-data.c:268:   dfx->refcount = 1;
	.loc 1 268 17 view .LVU169
	mov	r3, #1	@ tmp194,
	str	r3, [r0]	@ tmp194, MEM[(struct decode_filter_context_s *)_1].refcount
	.loc 1 273 3 is_stmt 1 view .LVU170
	ldr	r0, .L75+4	@,
.LPIC7:
	add	r0, pc, r0	@,
	bl	tfp_printf(PLT)	@
.LVL52:
	.loc 1 293 3 view .LVU171
	.loc 1 311 3 view .LVU172
	ldr	r1, .L75+8	@,
	mov	r0, #23	@,
	str	r6, [sp]	@ tmp193,
.LPIC8:
	add	r1, pc, r1	@,
	ldr	r3, [r5]	@, dek_91(D)->algo
	ldrb	r2, [r4, #10]	@ zero_extendqisi2	@, ed_90(D)->mdc_method
	bl	tfp_printf(PLT)	@
.LVL53:
	.loc 1 337 3 view .LVU173
	.loc 1 338 3 view .LVU174
	.loc 1 341 3 view .LVU175
@ src/decrypt-data.c:341:   if (ed->aead_algo)
	.loc 1 341 6 is_stmt 0 view .LVU176
	ldrb	r9, [r4, #11]	@ zero_extendqisi2	@ ed_90(D)->aead_algo, ed_90(D)->aead_algo
	cmp	r9, #0	@ ed_90(D)->aead_algo,
	bne	.L71		@,
.LBB55:
	.loc 1 422 5 is_stmt 1 view .LVU177
.LVL54:
	.loc 1 423 5 view .LVU178
@ src/decrypt-data.c:423:     if (ed->len && ed->len < (nprefix + 2))
	.loc 1 423 17 is_stmt 0 view .LVU179
	ldr	r3, [r4]	@ ed_90(D)->len, ed_90(D)->len
	sub	r3, r3, #1	@ tmp204, ed_90(D)->len,
	cmp	r3, #8	@ tmp204,
	bls	.L72		@,
	.loc 1 438 5 is_stmt 1 view .LVU180
	mov	r2, #4	@,
	mov	r1, r9	@, ed_90(D)->aead_algo
	add	r0, sp, #12	@,,
	bl	memset(PLT)	@
.LVL55:
	.loc 1 440 5 view .LVU181
@ src/decrypt-data.c:440:     dfx->cipher_hd = malloc(sizeof(struct gcry_cipher_handle));
	.loc 1 440 8 is_stmt 0 view .LVU182
	ldr	r6, [sp, #12]	@ dfx.22_8, dfx
@ src/decrypt-data.c:440:     dfx->cipher_hd = malloc(sizeof(struct gcry_cipher_handle));
	.loc 1 440 22 view .LVU183
	mov	r0, #64	@,
	bl	malloc(PLT)	@
.LVL56:
@ src/decrypt-data.c:441:     if (!dfx->cipher_hd)
	.loc 1 441 13 view .LVU184
	ldr	r3, [sp, #12]	@ dfx, dfx
@ src/decrypt-data.c:440:     dfx->cipher_hd = malloc(sizeof(struct gcry_cipher_handle));
	.loc 1 440 20 view .LVU185
	str	r0, [r6, #4]	@ tmp283, dfx.22_8->cipher_hd
	.loc 1 441 5 is_stmt 1 view .LVU186
@ src/decrypt-data.c:441:     if (!dfx->cipher_hd)
	.loc 1 441 13 is_stmt 0 view .LVU187
	ldr	r0, [r3, #4]	@ _11, dfx.23_10->cipher_hd
@ src/decrypt-data.c:441:     if (!dfx->cipher_hd)
	.loc 1 441 8 view .LVU188
	cmp	r0, #0	@ _11,
	beq	.L46		@,
	.loc 1 445 5 is_stmt 1 view .LVU189
	mov	r2, #64	@,
	mov	r1, r9	@, ed_90(D)->aead_algo
	bl	memset(PLT)	@
.LVL57:
	.loc 1 452 5 view .LVU190
	.loc 1 460 5 view .LVU191
@ src/decrypt-data.c:460:     rc = _gcry_cipher_setkey(dfx->cipher_hd, dek->key, dek->keylen);
	.loc 1 460 10 is_stmt 0 view .LVU192
	ldr	r3, [sp, #12]	@ dfx, dfx
	add	r1, r5, #9	@, dek,
	ldr	r2, [r5, #4]	@, dek_91(D)->keylen
	ldr	r0, [r3, #4]	@, dfx.25_12->cipher_hd
	bl	_gcry_cipher_setkey(PLT)	@
.LVL58:
@ src/decrypt-data.c:473:     if (!ed->buf)
	.loc 1 473 8 view .LVU193
	ldr	r3, [r4, #16]	@ ed_90(D)->buf, ed_90(D)->buf
@ src/decrypt-data.c:460:     rc = _gcry_cipher_setkey(dfx->cipher_hd, dek->key, dek->keylen);
	.loc 1 460 10 view .LVU194
	mov	r6, r0	@ <retval>, tmp284
.LVL59:
	.loc 1 473 5 is_stmt 1 view .LVU195
@ src/decrypt-data.c:473:     if (!ed->buf)
	.loc 1 473 8 is_stmt 0 view .LVU196
	cmp	r3, #0	@ ed_90(D)->buf,
	beq	.L73		@,
	.loc 1 480 5 is_stmt 1 view .LVU197
	ldr	r3, [sp, #12]	@ dfx, dfx
	mov	r1, r9	@, ed_90(D)->aead_algo
	mov	r2, #8	@,
	ldr	r0, [r3, #4]	@, dfx.26_18->cipher_hd
.LVL60:
	.loc 1 480 5 is_stmt 0 view .LVU198
	bl	_gcry_cipher_setiv(PLT)	@
.LVL61:
	.loc 1 482 5 is_stmt 1 view .LVU199
@ src/decrypt-data.c:482:     if (ed->len)
	.loc 1 482 11 is_stmt 0 view .LVU200
	ldr	r1, [r4]	@ _20, ed_90(D)->len
@ src/decrypt-data.c:482:     if (ed->len)
	.loc 1 482 8 view .LVU201
	cmp	r1, #0	@ _20,
	addeq	r10, sp, #15	@ ivtmp.78,,
	addeq	r9, sp, #25	@ _68,,
	beq	.L61		@,
	b	.L74		@
.LVL62:
.L59:
@ src/decrypt-data.c:498:           if ((c = iobuf_get(ed->buf)) == -1) {
	.loc 1 498 20 discriminator 4 view .LVU202
	str	r1, [r2, #24]	@ tmp245, _36->d.start
	ldr	r1, [r2, #8]	@ _36->nbytes, _36->nbytes
	ldr	r0, [r2, #32]	@ _42, _36->d.buf
	add	r1, r1, #1	@ tmp243, _36->nbytes,
	str	r1, [r2, #8]	@ tmp243, _36->nbytes
	ldrb	r0, [r0, r3]	@ zero_extendqisi2	@ _73, *_44
.LVL63:
.L60:
	.loc 1 503 15 is_stmt 1 discriminator 2 view .LVU203
@ src/decrypt-data.c:503:               temp[i] = c;
	.loc 1 503 23 is_stmt 0 discriminator 2 view .LVU204
	strb	r0, [r10, #1]!	@ _73, MEM[base: _31, offset: 0B]
.LVL64:
	.loc 1 496 38 is_stmt 1 discriminator 2 view .LVU205
	.loc 1 496 19 discriminator 2 view .LVU206
@ src/decrypt-data.c:496:       for (i = 0; i < (nprefix + 2); i++) {
	.loc 1 496 7 is_stmt 0 discriminator 2 view .LVU207
	cmp	r10, r9	@ ivtmp.78, _68
	beq	.L56		@,
.LVL65:
.L61:
	.loc 1 498 11 is_stmt 1 view .LVU208
@ src/decrypt-data.c:498:           if ((c = iobuf_get(ed->buf)) == -1) {
	.loc 1 498 20 is_stmt 0 view .LVU209
	ldr	r2, [r4, #16]	@ _36, ed_90(D)->buf
	ldr	r3, [r2, #16]	@ _36->nofast, _36->nofast
	mov	r0, r2	@, _36
	cmp	r3, #0	@ _36->nofast,
	bne	.L58		@,
@ src/decrypt-data.c:498:           if ((c = iobuf_get(ed->buf)) == -1) {
	.loc 1 498 20 discriminator 2 view .LVU210
	ldr	r3, [r2, #24]	@ _38, _36->d.start
	ldr	r1, [r2, #28]	@ _36->d.len, _36->d.len
	cmp	r3, r1	@ _38, _36->d.len
	add	r1, r3, #1	@ tmp245, _38,
	bcc	.L59		@,
.L58:
@ src/decrypt-data.c:498:           if ((c = iobuf_get(ed->buf)) == -1) {
	.loc 1 498 20 discriminator 3 view .LVU211
	bl	iobuf_readbyte(PLT)	@
.LVL66:
@ src/decrypt-data.c:498:           if ((c = iobuf_get(ed->buf)) == -1) {
	.loc 1 498 14 discriminator 3 view .LVU212
	cmn	r0, #1	@ iftmp.29_104,
@ src/decrypt-data.c:503:               temp[i] = c;
	.loc 1 503 23 discriminator 3 view .LVU213
	uxtb	r0, r0	@ _73, iftmp.29_104
.LVL67:
@ src/decrypt-data.c:498:           if ((c = iobuf_get(ed->buf)) == -1) {
	.loc 1 498 14 discriminator 3 view .LVU214
	bne	.L60		@,
.LVL68:
.L56:
	.loc 1 508 5 is_stmt 1 view .LVU215
	ldr	r3, [sp, #12]	@ dfx, dfx
	mov	r2, #10	@,
	add	r1, sp, #16	@,,
	ldr	r0, [r3, #4]	@ dfx.31_48->cipher_hd, dfx.31_48->cipher_hd
	mov	r3, #0	@ tmp227,
	str	r3, [sp]	@ tmp227,
	bl	_gcry_cipher_decrypt(PLT)	@
.LVL69:
	.loc 1 509 5 view .LVU216
	ldr	r3, [sp, #12]	@ dfx, dfx
	ldr	r0, [r3, #4]	@, dfx.32_50->cipher_hd
	bl	cipher_sync(PLT)	@
.LVL70:
	.loc 1 510 5 view .LVU217
	.loc 1 512 5 view .LVU218
@ src/decrypt-data.c:512:     if (dek->symmetric && (p[nprefix - 2] != p[nprefix] || p[nprefix - 1] != p[nprefix + 1]))
	.loc 1 512 9 is_stmt 0 view .LVU219
	ldrb	r3, [r5, #8]	@ zero_extendqisi2	@ *dek_91(D), *dek_91(D)
@ src/decrypt-data.c:512:     if (dek->symmetric && (p[nprefix - 2] != p[nprefix] || p[nprefix - 1] != p[nprefix + 1]))
	.loc 1 512 8 view .LVU220
	tst	r3, #64	@ *dek_91(D),
	beq	.L54		@,
@ src/decrypt-data.c:512:     if (dek->symmetric && (p[nprefix - 2] != p[nprefix] || p[nprefix - 1] != p[nprefix + 1]))
	.loc 1 512 24 discriminator 1 view .LVU221
	ldrb	r2, [sp, #22]	@ zero_extendqisi2	@ MEM[(byte *)&temp + 6B], MEM[(byte *)&temp + 6B]
	ldrb	r3, [sp, #24]	@ zero_extendqisi2	@ MEM[(byte *)&temp + 8B], MEM[(byte *)&temp + 8B]
	cmp	r2, r3	@ MEM[(byte *)&temp + 6B], MEM[(byte *)&temp + 8B]
	bne	.L62		@,
@ src/decrypt-data.c:512:     if (dek->symmetric && (p[nprefix - 2] != p[nprefix] || p[nprefix - 1] != p[nprefix + 1]))
	.loc 1 512 57 discriminator 2 view .LVU222
	ldrb	r2, [sp, #23]	@ zero_extendqisi2	@ MEM[(byte *)&temp + 7B], MEM[(byte *)&temp + 7B]
	ldrb	r3, [sp, #25]	@ zero_extendqisi2	@ MEM[(byte *)&temp + 9B], MEM[(byte *)&temp + 9B]
	cmp	r2, r3	@ MEM[(byte *)&temp + 7B], MEM[(byte *)&temp + 9B]
	beq	.L54		@,
.L62:
	.loc 1 514 7 is_stmt 1 view .LVU223
	ldr	r0, .L75+12	@,
@ src/decrypt-data.c:515:       rc = gpg_error(GPG_ERR_BAD_KEY);
	.loc 1 515 10 is_stmt 0 view .LVU224
	mov	r6, #19	@ <retval>,
.LVL71:
	.loc 1 515 10 view .LVU225
	movt	r6, 512	@ <retval>,
@ src/decrypt-data.c:514:       printf("\n\nBAD KEY!\n\n");
	.loc 1 514 7 view .LVU226
.LPIC11:
	add	r0, pc, r0	@,
	bl	tfp_printf(PLT)	@
.LVL72:
	.loc 1 515 7 is_stmt 1 view .LVU227
	.loc 1 515 7 is_stmt 0 view .LVU228
.LBE55:
	.file 2 "src/common/../gpg-error.h"
	.loc 2 966 3 is_stmt 1 view .LVU229
	.loc 2 951 3 view .LVU230
.LBB56:
	.loc 1 516 7 view .LVU231
.LBE56:
@ src/decrypt-data.c:614:   release_dfx_context(dfx);
	.loc 1 614 3 is_stmt 0 view .LVU232
	ldr	r0, [sp, #12]	@ prephitmp_135, dfx
.LBB57:
@ src/decrypt-data.c:516:       goto leave;
	.loc 1 516 7 view .LVU233
	b	.L44		@
.LVL73:
.L71:
	.loc 1 516 7 view .LVU234
.LBE57:
@ src/decrypt-data.c:614:   release_dfx_context(dfx);
	.loc 1 614 3 view .LVU235
	ldr	r0, [sp, #12]	@ prephitmp_135, dfx
.LBB58:
@ src/decrypt-data.c:345:       rc = gpg_error(GPG_ERR_CIPHER_ALGO);
	.loc 1 345 10 view .LVU236
	mov	r6, #12	@ <retval>,
	movt	r6, 512	@ <retval>,
.LVL74:
.L44:
	.loc 1 345 10 view .LVU237
.LBE58:
	.loc 1 614 3 is_stmt 1 view .LVU238
	bl	release_dfx_context(PLT)	@
.LVL75:
	.loc 1 615 3 view .LVU239
.L40:
@ src/decrypt-data.c:616: }
	.loc 1 616 1 is_stmt 0 view .LVU240
	mov	r0, r6	@, <retval>
	add	sp, sp, #48	@,,
	.cfi_remember_state
	.cfi_def_cfa_offset 32
	@ sp needed	@
	pop	{r4, r5, r6, r7, r8, r9, r10, pc}	@
.LVL76:
.L54:
	.cfi_restore_state
.LBB59:
	.loc 1 518 7 is_stmt 1 view .LVU241
	ldr	r0, .L75+16	@,
.LPIC12:
	add	r0, pc, r0	@,
	bl	tfp_printf(PLT)	@
.LVL77:
	.loc 1 518 7 is_stmt 0 view .LVU242
.LBE59:
	.loc 1 529 3 is_stmt 1 view .LVU243
@ src/decrypt-data.c:529:   dfx->refcount++;
	.loc 1 529 6 is_stmt 0 view .LVU244
	ldr	r2, [sp, #12]	@ dfx.33_58, dfx
@ src/decrypt-data.c:541:   iobuf_push_filter(ed->buf, decode_filter, dfx);
	.loc 1 541 3 view .LVU245
	ldr	r0, [r4, #16]	@, ed_90(D)->buf
@ src/decrypt-data.c:529:   dfx->refcount++;
	.loc 1 529 16 view .LVU246
	ldr	r3, [r2]	@ dfx.33_58->refcount, dfx.33_58->refcount
@ src/decrypt-data.c:530:   dfx->partial = !!ed->is_partial;
	.loc 1 530 16 view .LVU247
	ldrb	ip, [r2, #80]	@ zero_extendqisi2	@, dfx.33_58->partial
@ src/decrypt-data.c:541:   iobuf_push_filter(ed->buf, decode_filter, dfx);
	.loc 1 541 3 view .LVU248
	ldr	r1, .L75+20	@,
@ src/decrypt-data.c:529:   dfx->refcount++;
	.loc 1 529 16 view .LVU249
	add	r3, r3, #1	@ tmp255, dfx.33_58->refcount,
	str	r3, [r2]	@ tmp255, dfx.33_58->refcount
	.loc 1 530 3 is_stmt 1 view .LVU250
@ src/decrypt-data.c:530:   dfx->partial = !!ed->is_partial;
	.loc 1 530 18 is_stmt 0 view .LVU251
	ldrb	r3, [r4, #9]	@ zero_extendqisi2	@ ed_90(D)->is_partial, ed_90(D)->is_partial
@ src/decrypt-data.c:541:   iobuf_push_filter(ed->buf, decode_filter, dfx);
	.loc 1 541 3 view .LVU252
.LPIC13:
	add	r1, pc, r1	@,
@ src/decrypt-data.c:530:   dfx->partial = !!ed->is_partial;
	.loc 1 530 18 view .LVU253
	subs	r3, r3, #0	@ tmp259, ed_90(D)->is_partial,
	movne	r3, #1	@ tmp259,
@ src/decrypt-data.c:530:   dfx->partial = !!ed->is_partial;
	.loc 1 530 16 view .LVU254
	bfi	ip, r3, #0, #1	@ dfx.33_58->partial, tmp259,,
	strb	ip, [r2, #80]	@ dfx.33_58->partial, dfx.33_58->partial
	.loc 1 531 3 is_stmt 1 view .LVU255
@ src/decrypt-data.c:531:   dfx->length = ed->len;
	.loc 1 531 15 is_stmt 0 view .LVU256
	ldr	r3, [r4]	@ ed_90(D)->len, ed_90(D)->len
	str	r3, [r2, #120]	@ ed_90(D)->len, dfx.33_58->length
	.loc 1 541 3 is_stmt 1 view .LVU257
	bl	iobuf_push_filter(PLT)	@
.LVL78:
	.loc 1 576 3 view .LVU258
	ldr	r2, [r4, #16]	@, ed_90(D)->buf
	mov	r1, r8	@, procctx
	mov	r0, r7	@, ctrl
	bl	proc_packets(PLT)	@
.LVL79:
	.loc 1 578 3 view .LVU259
@ src/decrypt-data.c:579:   if (dfx->eof_seen > 1)
	.loc 1 579 10 is_stmt 0 view .LVU260
	ldr	r0, [sp, #12]	@ prephitmp_135, dfx
@ src/decrypt-data.c:580:     rc = gpg_error(GPG_ERR_INV_PACKET);
	.loc 1 580 8 view .LVU261
	mov	r2, #14	@ tmp277,
	movt	r2, 512	@ tmp277,
@ src/decrypt-data.c:578:   ed->buf = NULL;
	.loc 1 578 11 view .LVU262
	mov	r1, #0	@ tmp268,
@ src/decrypt-data.c:579:   if (dfx->eof_seen > 1)
	.loc 1 579 10 view .LVU263
	ldrb	r3, [r0, #80]	@ zero_extendqisi2	@ *dfx.37_66, *dfx.37_66
@ src/decrypt-data.c:578:   ed->buf = NULL;
	.loc 1 578 11 view .LVU264
	str	r1, [r4, #16]	@ tmp268, ed_90(D)->buf
	.loc 1 579 3 is_stmt 1 view .LVU265
@ src/decrypt-data.c:579:   if (dfx->eof_seen > 1)
	.loc 1 579 6 is_stmt 0 view .LVU266
	ubfx	r3, r3, #1, #2	@ tmp275, *dfx.37_66,,
@ src/decrypt-data.c:580:     rc = gpg_error(GPG_ERR_INV_PACKET);
	.loc 1 580 8 view .LVU267
	cmp	r3, #1	@ tmp275,
	movhi	r6, r2	@ <retval>, tmp277
.LVL80:
	.loc 1 580 8 view .LVU268
	b	.L44		@
.LVL81:
.L73:
.LBB60:
	.loc 1 475 7 is_stmt 1 view .LVU269
	ldr	r0, .L75+24	@,
.LVL82:
@ src/decrypt-data.c:476:       rc = gpg_error(GPG_ERR_INV_PACKET);
	.loc 1 476 10 is_stmt 0 view .LVU270
	mov	r6, #14	@ <retval>,
.LVL83:
	.loc 1 476 10 view .LVU271
	movt	r6, 512	@ <retval>,
@ src/decrypt-data.c:475:       printf(("problem handling encrypted packet\n"));
	.loc 1 475 7 view .LVU272
.LPIC9:
	add	r0, pc, r0	@,
	bl	tfp_printf(PLT)	@
.LVL84:
	.loc 1 476 7 is_stmt 1 view .LVU273
	.loc 1 476 7 is_stmt 0 view .LVU274
.LBE60:
	.loc 2 966 3 is_stmt 1 view .LVU275
	.loc 2 951 3 view .LVU276
.LBB61:
	.loc 1 477 7 view .LVU277
.LBE61:
@ src/decrypt-data.c:614:   release_dfx_context(dfx);
	.loc 1 614 3 is_stmt 0 view .LVU278
	ldr	r0, [sp, #12]	@ prephitmp_135, dfx
.LBB62:
@ src/decrypt-data.c:477:       goto leave;
	.loc 1 477 7 view .LVU279
	b	.L44		@
.LVL85:
.L72:
	.loc 1 477 7 view .LVU280
.LBE62:
@ src/decrypt-data.c:614:   release_dfx_context(dfx);
	.loc 1 614 3 view .LVU281
	ldr	r0, [sp, #12]	@ prephitmp_135, dfx
.LBB63:
@ src/decrypt-data.c:427:       rc = gpg_error(GPG_ERR_INV_PACKET);
	.loc 1 427 10 view .LVU282
	mov	r6, #14	@ <retval>,
	movt	r6, 512	@ <retval>,
	b	.L44		@
.LVL86:
.L74:
	.loc 1 484 7 is_stmt 1 view .LVU283
	ldr	r0, .L75+28	@,
	add	r10, sp, #15	@ ivtmp.69,,
	add	r9, sp, #25	@ _71,,
.LPIC10:
	add	r0, pc, r0	@,
	bl	tfp_printf(PLT)	@
.LVL87:
	.loc 1 485 7 view .LVU284
	.loc 1 485 19 view .LVU285
@ src/decrypt-data.c:485:       for (i = 0; i < (nprefix + 2) && ed->len; i++, ed->len--)
	.loc 1 485 42 is_stmt 0 view .LVU286
	ldr	r2, [r4]	@ _33, ed_90(D)->len
	b	.L49		@
.LVL88:
.L51:
@ src/decrypt-data.c:487:         if ((c = iobuf_get(ed->buf)) == -1)
	.loc 1 487 18 discriminator 4 view .LVU287
	ldr	r0, [r3, #8]	@ _21->nbytes, _21->nbytes
	str	ip, [r3, #24]	@ tmp237, _21->d.start
	ldr	ip, [r3, #32]	@ _27, _21->d.buf
	add	r0, r0, #1	@ tmp235, _21->nbytes,
	str	r0, [r3, #8]	@ tmp235, _21->nbytes
	ldrb	r0, [ip, r1]	@ zero_extendqisi2	@ _138, *_29
.LVL89:
.L55:
	.loc 1 490 11 is_stmt 1 discriminator 2 view .LVU288
@ src/decrypt-data.c:490:           temp[i] = c;
	.loc 1 490 19 is_stmt 0 discriminator 2 view .LVU289
	strb	r0, [r10, #1]!	@ _138, MEM[base: _77, offset: 0B]
.LVL90:
	.loc 1 485 49 is_stmt 1 discriminator 2 view .LVU290
@ src/decrypt-data.c:485:       for (i = 0; i < (nprefix + 2) && ed->len; i++, ed->len--)
	.loc 1 485 61 is_stmt 0 discriminator 2 view .LVU291
	sub	r2, r2, #1	@ _33, _33,
@ src/decrypt-data.c:485:       for (i = 0; i < (nprefix + 2) && ed->len; i++, ed->len--)
	.loc 1 485 7 discriminator 2 view .LVU292
	cmp	r9, r10	@ _71, ivtmp.69
@ src/decrypt-data.c:485:       for (i = 0; i < (nprefix + 2) && ed->len; i++, ed->len--)
	.loc 1 485 61 discriminator 2 view .LVU293
	str	r2, [r4]	@ _33, ed_90(D)->len
	.loc 1 485 19 is_stmt 1 discriminator 2 view .LVU294
@ src/decrypt-data.c:485:       for (i = 0; i < (nprefix + 2) && ed->len; i++, ed->len--)
	.loc 1 485 7 is_stmt 0 discriminator 2 view .LVU295
	beq	.L56		@,
.LVL91:
.L49:
	.loc 1 487 9 is_stmt 1 discriminator 3 view .LVU296
@ src/decrypt-data.c:485:       for (i = 0; i < (nprefix + 2) && ed->len; i++, ed->len--)
	.loc 1 485 37 is_stmt 0 discriminator 3 view .LVU297
	cmp	r2, #0	@ _33,
	beq	.L56		@,
@ src/decrypt-data.c:487:         if ((c = iobuf_get(ed->buf)) == -1)
	.loc 1 487 18 view .LVU298
	ldr	r3, [r4, #16]	@ _21, ed_90(D)->buf
	ldr	r1, [r3, #16]	@ _21->nofast, _21->nofast
	mov	r0, r3	@, _21
	cmp	r1, #0	@ _21->nofast,
	bne	.L50		@,
@ src/decrypt-data.c:487:         if ((c = iobuf_get(ed->buf)) == -1)
	.loc 1 487 18 discriminator 2 view .LVU299
	ldr	r1, [r3, #24]	@ _23, _21->d.start
	ldr	ip, [r3, #28]	@ _21->d.len, _21->d.len
	cmp	r1, ip	@ _23, _21->d.len
	add	ip, r1, #1	@ tmp237, _23,
	bcc	.L51		@,
.L50:
@ src/decrypt-data.c:487:         if ((c = iobuf_get(ed->buf)) == -1)
	.loc 1 487 18 discriminator 3 view .LVU300
	bl	iobuf_readbyte(PLT)	@
.LVL92:
@ src/decrypt-data.c:487:         if ((c = iobuf_get(ed->buf)) == -1)
	.loc 1 487 12 discriminator 3 view .LVU301
	cmn	r0, #1	@ iftmp.27_112,
@ src/decrypt-data.c:490:           temp[i] = c;
	.loc 1 490 19 discriminator 3 view .LVU302
	uxtb	r0, r0	@ _138, iftmp.27_112
.LVL93:
@ src/decrypt-data.c:487:         if ((c = iobuf_get(ed->buf)) == -1)
	.loc 1 487 12 discriminator 3 view .LVU303
	beq	.L56		@,
@ src/decrypt-data.c:485:       for (i = 0; i < (nprefix + 2) && ed->len; i++, ed->len--)
	.loc 1 485 56 view .LVU304
	ldr	r2, [r4]	@ _33, ed_90(D)->len
	b	.L55		@
.LVL94:
.L46:
	.loc 1 485 56 view .LVU305
.LBE63:
@ src/decrypt-data.c:267:     return gpg_error_from_syserror();
	.loc 1 267 12 view .LVU306
	mvn	r6, #0	@ <retval>,
	b	.L40		@
.L76:
	.align	2
.L75:
	.word	.LC6-(.LPIC6+8)
	.word	.LC7-(.LPIC7+8)
	.word	.LC8-(.LPIC8+8)
	.word	.LC11-(.LPIC11+8)
	.word	.LC12-(.LPIC12+8)
	.word	decode_filter-(.LPIC13+8)
	.word	.LC9-(.LPIC9+8)
	.word	.LC10-(.LPIC10+8)
	.cfi_endproc
.LFE20:
	.size	decrypt_data, .-decrypt_data
	.text
.Letext0:
	.file 3 "/usr/include/newlib/machine/_default_types.h"
	.file 4 "/usr/lib/gcc/arm-none-eabi/10.3.1/include/stddef.h"
	.file 5 "/usr/include/newlib/sys/_types.h"
	.file 6 "/usr/include/newlib/sys/_stdint.h"
	.file 7 "/usr/include/newlib/sys/types.h"
	.file 8 "src/libgcrypt.h"
	.file 9 "src/gpg.h"
	.file 10 "src/common/../common/fwddecl.h"
	.file 11 "src/common/iobuf.h"
	.file 12 "src/dek.h"
	.file 13 "src/filter.h"
	.file 14 "src/gcrypt.h"
	.file 15 "src/packet.h"
	.file 16 "src/common/status.h"
	.file 17 "src/printf.h"
	.file 18 "/usr/include/newlib/string.h"
	.file 19 "/usr/include/newlib/stdlib.h"
	.file 20 "src/memory.h"
	.section	.debug_info,"",%progbits
.Ldebug_info0:
	.4byte	0x21f5
	.2byte	0x4
	.4byte	.Ldebug_abbrev0
	.byte	0x4
	.uleb128 0x1
	.4byte	.LASF887
	.byte	0xc
	.4byte	.LASF888
	.4byte	.LASF889
	.4byte	.Ldebug_ranges0+0x80
	.4byte	0
	.4byte	.Ldebug_line0
	.uleb128 0x2
	.byte	0x1
	.byte	0x6
	.4byte	.LASF0
	.uleb128 0x2
	.byte	0x1
	.byte	0x8
	.4byte	.LASF1
	.uleb128 0x2
	.byte	0x2
	.byte	0x5
	.4byte	.LASF2
	.uleb128 0x2
	.byte	0x2
	.byte	0x7
	.4byte	.LASF3
	.uleb128 0x2
	.byte	0x4
	.byte	0x5
	.4byte	.LASF4
	.uleb128 0x3
	.4byte	.LASF7
	.byte	0x3
	.byte	0x4f
	.byte	0x19
	.4byte	0x54
	.uleb128 0x2
	.byte	0x4
	.byte	0x7
	.4byte	.LASF5
	.uleb128 0x2
	.byte	0x8
	.byte	0x5
	.4byte	.LASF6
	.uleb128 0x3
	.4byte	.LASF8
	.byte	0x3
	.byte	0x69
	.byte	0x19
	.4byte	0x6e
	.uleb128 0x2
	.byte	0x8
	.byte	0x7
	.4byte	.LASF9
	.uleb128 0x4
	.byte	0x4
	.byte	0x5
	.ascii	"int\000"
	.uleb128 0x2
	.byte	0x4
	.byte	0x7
	.4byte	.LASF10
	.uleb128 0x3
	.4byte	.LASF11
	.byte	0x4
	.byte	0xd1
	.byte	0x17
	.4byte	0x7c
	.uleb128 0x2
	.byte	0x8
	.byte	0x4
	.4byte	.LASF12
	.uleb128 0x5
	.byte	0x4
	.uleb128 0x3
	.4byte	.LASF13
	.byte	0x5
	.byte	0x2e
	.byte	0xe
	.4byte	0x41
	.uleb128 0x3
	.4byte	.LASF14
	.byte	0x5
	.byte	0x66
	.byte	0x10
	.4byte	0x98
	.uleb128 0x6
	.byte	0x4
	.4byte	0xb6
	.uleb128 0x2
	.byte	0x1
	.byte	0x8
	.4byte	.LASF15
	.uleb128 0x7
	.4byte	0x2c
	.4byte	0xcd
	.uleb128 0x8
	.4byte	0x7c
	.byte	0
	.byte	0
	.uleb128 0x3
	.4byte	.LASF16
	.byte	0x6
	.byte	0x30
	.byte	0x14
	.4byte	0x48
	.uleb128 0x3
	.4byte	.LASF17
	.byte	0x6
	.byte	0x3c
	.byte	0x14
	.4byte	0x62
	.uleb128 0x3
	.4byte	.LASF18
	.byte	0x7
	.byte	0x9d
	.byte	0x12
	.4byte	0xa4
	.uleb128 0x9
	.ascii	"u32\000"
	.byte	0x8
	.byte	0xc
	.byte	0x16
	.4byte	0x7c
	.uleb128 0x3
	.4byte	.LASF19
	.byte	0x8
	.byte	0xd
	.byte	0x17
	.4byte	0x2c
	.uleb128 0x9
	.ascii	"Key\000"
	.byte	0x8
	.byte	0x10
	.byte	0x12
	.4byte	0x115
	.uleb128 0x7
	.4byte	0xcd
	.4byte	0x125
	.uleb128 0x8
	.4byte	0x7c
	.byte	0x3
	.byte	0
	.uleb128 0xa
	.byte	0x8
	.byte	0x8
	.byte	0x18
	.byte	0x9
	.4byte	0x16b
	.uleb128 0xb
	.ascii	"a\000"
	.byte	0x8
	.byte	0x19
	.byte	0x9
	.4byte	0x75
	.uleb128 0xb
	.ascii	"b\000"
	.byte	0x8
	.byte	0x1a
	.byte	0xb
	.4byte	0x33
	.uleb128 0xb
	.ascii	"c\000"
	.byte	0x8
	.byte	0x1b
	.byte	0xa
	.4byte	0x16b
	.uleb128 0xb
	.ascii	"d\000"
	.byte	0x8
	.byte	0x1c
	.byte	0xa
	.4byte	0x41
	.uleb128 0xb
	.ascii	"f\000"
	.byte	0x8
	.byte	0x1d
	.byte	0xb
	.4byte	0x17b
	.uleb128 0xb
	.ascii	"g\000"
	.byte	0x8
	.byte	0x1e
	.byte	0xc
	.4byte	0x182
	.byte	0
	.uleb128 0x7
	.4byte	0xb6
	.4byte	0x17b
	.uleb128 0x8
	.4byte	0x7c
	.byte	0
	.byte	0
	.uleb128 0x2
	.byte	0x4
	.byte	0x4
	.4byte	.LASF20
	.uleb128 0x2
	.byte	0x8
	.byte	0x4
	.4byte	.LASF21
	.uleb128 0x3
	.4byte	.LASF22
	.byte	0x8
	.byte	0x1f
	.byte	0x3
	.4byte	0x125
	.uleb128 0xa
	.byte	0x8
	.byte	0x8
	.byte	0x21
	.byte	0x9
	.4byte	0x1b5
	.uleb128 0xb
	.ascii	"foo\000"
	.byte	0x8
	.byte	0x22
	.byte	0x1b
	.4byte	0x189
	.uleb128 0xb
	.ascii	"c\000"
	.byte	0x8
	.byte	0x26
	.byte	0xa
	.4byte	0x16b
	.byte	0
	.uleb128 0x3
	.4byte	.LASF23
	.byte	0x8
	.byte	0x27
	.byte	0x3
	.4byte	0x195
	.uleb128 0xa
	.byte	0x10
	.byte	0x8
	.byte	0x2c
	.byte	0x5
	.4byte	0x1e2
	.uleb128 0xc
	.4byte	.LASF24
	.byte	0x8
	.byte	0x2d
	.byte	0x24
	.4byte	0x1b5
	.uleb128 0xb
	.ascii	"iv\000"
	.byte	0x8
	.byte	0x2e
	.byte	0x17
	.4byte	0x1e2
	.byte	0
	.uleb128 0x7
	.4byte	0x2c
	.4byte	0x1f2
	.uleb128 0x8
	.4byte	0x7c
	.byte	0xf
	.byte	0
	.uleb128 0xd
	.4byte	.LASF37
	.byte	0x40
	.byte	0x8
	.byte	0x2a
	.byte	0x8
	.4byte	0x241
	.uleb128 0xe
	.4byte	.LASF25
	.byte	0x8
	.byte	0x2f
	.byte	0x7
	.4byte	0x1c1
	.byte	0
	.uleb128 0xe
	.4byte	.LASF26
	.byte	0x8
	.byte	0x32
	.byte	0x13
	.4byte	0x1e2
	.byte	0x10
	.uleb128 0xe
	.4byte	.LASF27
	.byte	0x8
	.byte	0x33
	.byte	0x9
	.4byte	0x75
	.byte	0x20
	.uleb128 0xe
	.4byte	.LASF28
	.byte	0x8
	.byte	0x36
	.byte	0x20
	.4byte	0x1b5
	.byte	0x28
	.uleb128 0xf
	.ascii	"key\000"
	.byte	0x8
	.byte	0x37
	.byte	0x9
	.4byte	0x109
	.byte	0x30
	.byte	0
	.uleb128 0x3
	.4byte	.LASF29
	.byte	0x8
	.byte	0x3a
	.byte	0x24
	.4byte	0x24d
	.uleb128 0x6
	.byte	0x4
	.4byte	0x1f2
	.uleb128 0x3
	.4byte	.LASF30
	.byte	0x9
	.byte	0x42
	.byte	0x21
	.4byte	0x25f
	.uleb128 0x6
	.byte	0x4
	.4byte	0x265
	.uleb128 0x10
	.4byte	.LASF32
	.uleb128 0x3
	.4byte	.LASF31
	.byte	0x9
	.byte	0x49
	.byte	0x1e
	.4byte	0x276
	.uleb128 0x6
	.byte	0x4
	.4byte	0x27c
	.uleb128 0x10
	.4byte	.LASF33
	.uleb128 0x3
	.4byte	.LASF34
	.byte	0x9
	.byte	0x4d
	.byte	0x1c
	.4byte	0x28d
	.uleb128 0x6
	.byte	0x4
	.4byte	0x293
	.uleb128 0x10
	.4byte	.LASF35
	.uleb128 0x11
	.byte	0x8
	.byte	0x9
	.byte	0x65
	.byte	0x3
	.4byte	0x2bc
	.uleb128 0xf
	.ascii	"dbs\000"
	.byte	0x9
	.byte	0x66
	.byte	0x10
	.4byte	0x281
	.byte	0
	.uleb128 0xe
	.4byte	.LASF36
	.byte	0x9
	.byte	0x67
	.byte	0x9
	.4byte	0x75
	.byte	0x4
	.byte	0
	.uleb128 0xd
	.4byte	.LASF38
	.byte	0x24
	.byte	0x9
	.byte	0x59
	.byte	0x8
	.4byte	0x332
	.uleb128 0xe
	.4byte	.LASF39
	.byte	0x9
	.byte	0x5c
	.byte	0x11
	.4byte	0x54
	.byte	0
	.uleb128 0xe
	.4byte	.LASF40
	.byte	0x9
	.byte	0x5f
	.byte	0x1a
	.4byte	0x337
	.byte	0x4
	.uleb128 0xe
	.4byte	.LASF41
	.byte	0x9
	.byte	0x62
	.byte	0x13
	.4byte	0x253
	.byte	0x8
	.uleb128 0xe
	.4byte	.LASF42
	.byte	0x9
	.byte	0x68
	.byte	0x5
	.4byte	0x298
	.byte	0xc
	.uleb128 0xe
	.4byte	.LASF43
	.byte	0x9
	.byte	0x6b
	.byte	0x10
	.4byte	0x26a
	.byte	0x14
	.uleb128 0xe
	.4byte	.LASF44
	.byte	0x9
	.byte	0x6d
	.byte	0x9
	.4byte	0xb0
	.byte	0x18
	.uleb128 0xe
	.4byte	.LASF45
	.byte	0x9
	.byte	0x6e
	.byte	0x9
	.4byte	0xb0
	.byte	0x1c
	.uleb128 0xe
	.4byte	.LASF46
	.byte	0x9
	.byte	0x6f
	.byte	0xa
	.4byte	0x83
	.byte	0x20
	.byte	0
	.uleb128 0x10
	.4byte	.LASF47
	.uleb128 0x6
	.byte	0x4
	.4byte	0x332
	.uleb128 0x3
	.4byte	.LASF48
	.byte	0xa
	.byte	0x24
	.byte	0x22
	.4byte	0x349
	.uleb128 0x6
	.byte	0x4
	.4byte	0x2bc
	.uleb128 0x12
	.byte	0x7
	.byte	0x1
	.4byte	0x2c
	.byte	0x2
	.byte	0x6c
	.byte	0x3
	.4byte	0x3f4
	.uleb128 0x13
	.4byte	.LASF49
	.byte	0
	.uleb128 0x13
	.4byte	.LASF50
	.byte	0x1
	.uleb128 0x13
	.4byte	.LASF51
	.byte	0x2
	.uleb128 0x13
	.4byte	.LASF52
	.byte	0x3
	.uleb128 0x13
	.4byte	.LASF53
	.byte	0x4
	.uleb128 0x13
	.4byte	.LASF54
	.byte	0x5
	.uleb128 0x13
	.4byte	.LASF55
	.byte	0x6
	.uleb128 0x13
	.4byte	.LASF56
	.byte	0x7
	.uleb128 0x13
	.4byte	.LASF57
	.byte	0x8
	.uleb128 0x13
	.4byte	.LASF58
	.byte	0x9
	.uleb128 0x13
	.4byte	.LASF59
	.byte	0xa
	.uleb128 0x13
	.4byte	.LASF60
	.byte	0xb
	.uleb128 0x13
	.4byte	.LASF61
	.byte	0xc
	.uleb128 0x13
	.4byte	.LASF62
	.byte	0xd
	.uleb128 0x13
	.4byte	.LASF63
	.byte	0xe
	.uleb128 0x13
	.4byte	.LASF64
	.byte	0xf
	.uleb128 0x13
	.4byte	.LASF65
	.byte	0x10
	.uleb128 0x13
	.4byte	.LASF66
	.byte	0x11
	.uleb128 0x13
	.4byte	.LASF67
	.byte	0x12
	.uleb128 0x13
	.4byte	.LASF68
	.byte	0x1f
	.uleb128 0x13
	.4byte	.LASF69
	.byte	0x20
	.uleb128 0x13
	.4byte	.LASF70
	.byte	0x21
	.uleb128 0x13
	.4byte	.LASF71
	.byte	0x22
	.uleb128 0x13
	.4byte	.LASF72
	.byte	0x23
	.uleb128 0x13
	.4byte	.LASF73
	.byte	0x80
	.byte	0
	.uleb128 0x3
	.4byte	.LASF74
	.byte	0x2
	.byte	0x88
	.byte	0x5
	.4byte	0x34f
	.uleb128 0x12
	.byte	0x7
	.byte	0x4
	.4byte	0x7c
	.byte	0x2
	.byte	0x90
	.byte	0x3
	.4byte	0x1305
	.uleb128 0x13
	.4byte	.LASF75
	.byte	0
	.uleb128 0x13
	.4byte	.LASF76
	.byte	0x1
	.uleb128 0x13
	.4byte	.LASF77
	.byte	0x2
	.uleb128 0x13
	.4byte	.LASF78
	.byte	0x3
	.uleb128 0x13
	.4byte	.LASF79
	.byte	0x4
	.uleb128 0x13
	.4byte	.LASF80
	.byte	0x5
	.uleb128 0x13
	.4byte	.LASF81
	.byte	0x6
	.uleb128 0x13
	.4byte	.LASF82
	.byte	0x7
	.uleb128 0x13
	.4byte	.LASF83
	.byte	0x8
	.uleb128 0x13
	.4byte	.LASF84
	.byte	0x9
	.uleb128 0x13
	.4byte	.LASF85
	.byte	0xa
	.uleb128 0x13
	.4byte	.LASF86
	.byte	0xb
	.uleb128 0x13
	.4byte	.LASF87
	.byte	0xc
	.uleb128 0x13
	.4byte	.LASF88
	.byte	0xd
	.uleb128 0x13
	.4byte	.LASF89
	.byte	0xe
	.uleb128 0x13
	.4byte	.LASF90
	.byte	0xf
	.uleb128 0x13
	.4byte	.LASF91
	.byte	0x10
	.uleb128 0x13
	.4byte	.LASF92
	.byte	0x11
	.uleb128 0x13
	.4byte	.LASF93
	.byte	0x12
	.uleb128 0x13
	.4byte	.LASF94
	.byte	0x13
	.uleb128 0x13
	.4byte	.LASF95
	.byte	0x14
	.uleb128 0x13
	.4byte	.LASF96
	.byte	0x15
	.uleb128 0x13
	.4byte	.LASF97
	.byte	0x16
	.uleb128 0x13
	.4byte	.LASF98
	.byte	0x17
	.uleb128 0x13
	.4byte	.LASF99
	.byte	0x18
	.uleb128 0x13
	.4byte	.LASF100
	.byte	0x19
	.uleb128 0x13
	.4byte	.LASF101
	.byte	0x1a
	.uleb128 0x13
	.4byte	.LASF102
	.byte	0x1b
	.uleb128 0x13
	.4byte	.LASF103
	.byte	0x1c
	.uleb128 0x13
	.4byte	.LASF104
	.byte	0x1d
	.uleb128 0x13
	.4byte	.LASF105
	.byte	0x1e
	.uleb128 0x13
	.4byte	.LASF106
	.byte	0x1f
	.uleb128 0x13
	.4byte	.LASF107
	.byte	0x20
	.uleb128 0x13
	.4byte	.LASF108
	.byte	0x21
	.uleb128 0x13
	.4byte	.LASF109
	.byte	0x22
	.uleb128 0x13
	.4byte	.LASF110
	.byte	0x23
	.uleb128 0x13
	.4byte	.LASF111
	.byte	0x24
	.uleb128 0x13
	.4byte	.LASF112
	.byte	0x25
	.uleb128 0x13
	.4byte	.LASF113
	.byte	0x26
	.uleb128 0x13
	.4byte	.LASF114
	.byte	0x27
	.uleb128 0x13
	.4byte	.LASF115
	.byte	0x28
	.uleb128 0x13
	.4byte	.LASF116
	.byte	0x29
	.uleb128 0x13
	.4byte	.LASF117
	.byte	0x2a
	.uleb128 0x13
	.4byte	.LASF118
	.byte	0x2b
	.uleb128 0x13
	.4byte	.LASF119
	.byte	0x2c
	.uleb128 0x13
	.4byte	.LASF120
	.byte	0x2d
	.uleb128 0x13
	.4byte	.LASF121
	.byte	0x2e
	.uleb128 0x13
	.4byte	.LASF122
	.byte	0x2f
	.uleb128 0x13
	.4byte	.LASF123
	.byte	0x30
	.uleb128 0x13
	.4byte	.LASF124
	.byte	0x31
	.uleb128 0x13
	.4byte	.LASF125
	.byte	0x32
	.uleb128 0x13
	.4byte	.LASF126
	.byte	0x33
	.uleb128 0x13
	.4byte	.LASF127
	.byte	0x34
	.uleb128 0x13
	.4byte	.LASF128
	.byte	0x35
	.uleb128 0x13
	.4byte	.LASF129
	.byte	0x36
	.uleb128 0x13
	.4byte	.LASF130
	.byte	0x37
	.uleb128 0x13
	.4byte	.LASF131
	.byte	0x38
	.uleb128 0x13
	.4byte	.LASF132
	.byte	0x39
	.uleb128 0x13
	.4byte	.LASF133
	.byte	0x3a
	.uleb128 0x13
	.4byte	.LASF134
	.byte	0x3b
	.uleb128 0x13
	.4byte	.LASF135
	.byte	0x3c
	.uleb128 0x13
	.4byte	.LASF136
	.byte	0x3d
	.uleb128 0x13
	.4byte	.LASF137
	.byte	0x3e
	.uleb128 0x13
	.4byte	.LASF138
	.byte	0x3f
	.uleb128 0x13
	.4byte	.LASF139
	.byte	0x40
	.uleb128 0x13
	.4byte	.LASF140
	.byte	0x41
	.uleb128 0x13
	.4byte	.LASF141
	.byte	0x42
	.uleb128 0x13
	.4byte	.LASF142
	.byte	0x43
	.uleb128 0x13
	.4byte	.LASF143
	.byte	0x44
	.uleb128 0x13
	.4byte	.LASF144
	.byte	0x45
	.uleb128 0x13
	.4byte	.LASF145
	.byte	0x46
	.uleb128 0x13
	.4byte	.LASF146
	.byte	0x47
	.uleb128 0x13
	.4byte	.LASF147
	.byte	0x48
	.uleb128 0x13
	.4byte	.LASF148
	.byte	0x49
	.uleb128 0x13
	.4byte	.LASF149
	.byte	0x4a
	.uleb128 0x13
	.4byte	.LASF150
	.byte	0x4b
	.uleb128 0x13
	.4byte	.LASF151
	.byte	0x4c
	.uleb128 0x13
	.4byte	.LASF152
	.byte	0x4d
	.uleb128 0x13
	.4byte	.LASF153
	.byte	0x4e
	.uleb128 0x13
	.4byte	.LASF154
	.byte	0x4f
	.uleb128 0x13
	.4byte	.LASF155
	.byte	0x50
	.uleb128 0x13
	.4byte	.LASF156
	.byte	0x51
	.uleb128 0x13
	.4byte	.LASF157
	.byte	0x52
	.uleb128 0x13
	.4byte	.LASF158
	.byte	0x53
	.uleb128 0x13
	.4byte	.LASF159
	.byte	0x54
	.uleb128 0x13
	.4byte	.LASF160
	.byte	0x55
	.uleb128 0x13
	.4byte	.LASF161
	.byte	0x56
	.uleb128 0x13
	.4byte	.LASF162
	.byte	0x57
	.uleb128 0x13
	.4byte	.LASF163
	.byte	0x58
	.uleb128 0x13
	.4byte	.LASF164
	.byte	0x59
	.uleb128 0x13
	.4byte	.LASF165
	.byte	0x5a
	.uleb128 0x13
	.4byte	.LASF166
	.byte	0x5b
	.uleb128 0x13
	.4byte	.LASF167
	.byte	0x5c
	.uleb128 0x13
	.4byte	.LASF168
	.byte	0x5d
	.uleb128 0x13
	.4byte	.LASF169
	.byte	0x5e
	.uleb128 0x13
	.4byte	.LASF170
	.byte	0x5f
	.uleb128 0x13
	.4byte	.LASF171
	.byte	0x60
	.uleb128 0x13
	.4byte	.LASF172
	.byte	0x61
	.uleb128 0x13
	.4byte	.LASF173
	.byte	0x62
	.uleb128 0x13
	.4byte	.LASF174
	.byte	0x63
	.uleb128 0x13
	.4byte	.LASF175
	.byte	0x64
	.uleb128 0x13
	.4byte	.LASF176
	.byte	0x65
	.uleb128 0x13
	.4byte	.LASF177
	.byte	0x66
	.uleb128 0x13
	.4byte	.LASF178
	.byte	0x67
	.uleb128 0x13
	.4byte	.LASF179
	.byte	0x68
	.uleb128 0x13
	.4byte	.LASF180
	.byte	0x69
	.uleb128 0x13
	.4byte	.LASF181
	.byte	0x6a
	.uleb128 0x13
	.4byte	.LASF182
	.byte	0x6b
	.uleb128 0x13
	.4byte	.LASF183
	.byte	0x6c
	.uleb128 0x13
	.4byte	.LASF184
	.byte	0x6d
	.uleb128 0x13
	.4byte	.LASF185
	.byte	0x6e
	.uleb128 0x13
	.4byte	.LASF186
	.byte	0x6f
	.uleb128 0x13
	.4byte	.LASF187
	.byte	0x70
	.uleb128 0x13
	.4byte	.LASF188
	.byte	0x71
	.uleb128 0x13
	.4byte	.LASF189
	.byte	0x72
	.uleb128 0x13
	.4byte	.LASF190
	.byte	0x73
	.uleb128 0x13
	.4byte	.LASF191
	.byte	0x74
	.uleb128 0x13
	.4byte	.LASF192
	.byte	0x75
	.uleb128 0x13
	.4byte	.LASF193
	.byte	0x76
	.uleb128 0x13
	.4byte	.LASF194
	.byte	0x77
	.uleb128 0x13
	.4byte	.LASF195
	.byte	0x78
	.uleb128 0x13
	.4byte	.LASF196
	.byte	0x79
	.uleb128 0x13
	.4byte	.LASF197
	.byte	0x7a
	.uleb128 0x13
	.4byte	.LASF198
	.byte	0x7b
	.uleb128 0x13
	.4byte	.LASF199
	.byte	0x7c
	.uleb128 0x13
	.4byte	.LASF200
	.byte	0x7d
	.uleb128 0x13
	.4byte	.LASF201
	.byte	0x7e
	.uleb128 0x13
	.4byte	.LASF202
	.byte	0x7f
	.uleb128 0x13
	.4byte	.LASF203
	.byte	0x80
	.uleb128 0x13
	.4byte	.LASF204
	.byte	0x81
	.uleb128 0x13
	.4byte	.LASF205
	.byte	0x82
	.uleb128 0x13
	.4byte	.LASF206
	.byte	0x83
	.uleb128 0x13
	.4byte	.LASF207
	.byte	0x84
	.uleb128 0x13
	.4byte	.LASF208
	.byte	0x85
	.uleb128 0x13
	.4byte	.LASF209
	.byte	0x86
	.uleb128 0x13
	.4byte	.LASF210
	.byte	0x87
	.uleb128 0x13
	.4byte	.LASF211
	.byte	0x88
	.uleb128 0x13
	.4byte	.LASF212
	.byte	0x89
	.uleb128 0x13
	.4byte	.LASF213
	.byte	0x8a
	.uleb128 0x13
	.4byte	.LASF214
	.byte	0x8b
	.uleb128 0x13
	.4byte	.LASF215
	.byte	0x8c
	.uleb128 0x13
	.4byte	.LASF216
	.byte	0x8d
	.uleb128 0x13
	.4byte	.LASF217
	.byte	0x8e
	.uleb128 0x13
	.4byte	.LASF218
	.byte	0x8f
	.uleb128 0x13
	.4byte	.LASF219
	.byte	0x90
	.uleb128 0x13
	.4byte	.LASF220
	.byte	0x91
	.uleb128 0x13
	.4byte	.LASF221
	.byte	0x92
	.uleb128 0x13
	.4byte	.LASF222
	.byte	0x93
	.uleb128 0x13
	.4byte	.LASF223
	.byte	0x94
	.uleb128 0x13
	.4byte	.LASF224
	.byte	0x95
	.uleb128 0x13
	.4byte	.LASF225
	.byte	0x96
	.uleb128 0x13
	.4byte	.LASF226
	.byte	0x97
	.uleb128 0x13
	.4byte	.LASF227
	.byte	0x98
	.uleb128 0x13
	.4byte	.LASF228
	.byte	0x99
	.uleb128 0x13
	.4byte	.LASF229
	.byte	0x9a
	.uleb128 0x13
	.4byte	.LASF230
	.byte	0x9b
	.uleb128 0x13
	.4byte	.LASF231
	.byte	0x9c
	.uleb128 0x13
	.4byte	.LASF232
	.byte	0x9d
	.uleb128 0x13
	.4byte	.LASF233
	.byte	0x9e
	.uleb128 0x13
	.4byte	.LASF234
	.byte	0x9f
	.uleb128 0x13
	.4byte	.LASF235
	.byte	0xa0
	.uleb128 0x13
	.4byte	.LASF236
	.byte	0xa1
	.uleb128 0x13
	.4byte	.LASF237
	.byte	0xa2
	.uleb128 0x13
	.4byte	.LASF238
	.byte	0xa3
	.uleb128 0x13
	.4byte	.LASF239
	.byte	0xa4
	.uleb128 0x13
	.4byte	.LASF240
	.byte	0xa5
	.uleb128 0x13
	.4byte	.LASF241
	.byte	0xa6
	.uleb128 0x13
	.4byte	.LASF242
	.byte	0xa7
	.uleb128 0x13
	.4byte	.LASF243
	.byte	0xa8
	.uleb128 0x13
	.4byte	.LASF244
	.byte	0xa9
	.uleb128 0x13
	.4byte	.LASF245
	.byte	0xaa
	.uleb128 0x13
	.4byte	.LASF246
	.byte	0xab
	.uleb128 0x13
	.4byte	.LASF247
	.byte	0xac
	.uleb128 0x13
	.4byte	.LASF248
	.byte	0xad
	.uleb128 0x13
	.4byte	.LASF249
	.byte	0xae
	.uleb128 0x13
	.4byte	.LASF250
	.byte	0xaf
	.uleb128 0x13
	.4byte	.LASF251
	.byte	0xb0
	.uleb128 0x13
	.4byte	.LASF252
	.byte	0xb1
	.uleb128 0x13
	.4byte	.LASF253
	.byte	0xb2
	.uleb128 0x13
	.4byte	.LASF254
	.byte	0xb3
	.uleb128 0x13
	.4byte	.LASF255
	.byte	0xb4
	.uleb128 0x13
	.4byte	.LASF256
	.byte	0xb5
	.uleb128 0x13
	.4byte	.LASF257
	.byte	0xb6
	.uleb128 0x13
	.4byte	.LASF258
	.byte	0xb7
	.uleb128 0x13
	.4byte	.LASF259
	.byte	0xb8
	.uleb128 0x13
	.4byte	.LASF260
	.byte	0xb9
	.uleb128 0x13
	.4byte	.LASF261
	.byte	0xba
	.uleb128 0x13
	.4byte	.LASF262
	.byte	0xbb
	.uleb128 0x13
	.4byte	.LASF263
	.byte	0xbc
	.uleb128 0x13
	.4byte	.LASF264
	.byte	0xbd
	.uleb128 0x13
	.4byte	.LASF265
	.byte	0xbe
	.uleb128 0x13
	.4byte	.LASF266
	.byte	0xbf
	.uleb128 0x13
	.4byte	.LASF267
	.byte	0xc0
	.uleb128 0x13
	.4byte	.LASF268
	.byte	0xc1
	.uleb128 0x13
	.4byte	.LASF269
	.byte	0xc2
	.uleb128 0x13
	.4byte	.LASF270
	.byte	0xc3
	.uleb128 0x13
	.4byte	.LASF271
	.byte	0xc4
	.uleb128 0x13
	.4byte	.LASF272
	.byte	0xc5
	.uleb128 0x13
	.4byte	.LASF273
	.byte	0xc6
	.uleb128 0x13
	.4byte	.LASF274
	.byte	0xc7
	.uleb128 0x13
	.4byte	.LASF275
	.byte	0xc8
	.uleb128 0x13
	.4byte	.LASF276
	.byte	0xc9
	.uleb128 0x13
	.4byte	.LASF277
	.byte	0xca
	.uleb128 0x13
	.4byte	.LASF278
	.byte	0xcb
	.uleb128 0x13
	.4byte	.LASF279
	.byte	0xcc
	.uleb128 0x13
	.4byte	.LASF280
	.byte	0xcd
	.uleb128 0x13
	.4byte	.LASF281
	.byte	0xce
	.uleb128 0x13
	.4byte	.LASF282
	.byte	0xcf
	.uleb128 0x13
	.4byte	.LASF283
	.byte	0xd0
	.uleb128 0x13
	.4byte	.LASF284
	.byte	0xd1
	.uleb128 0x13
	.4byte	.LASF285
	.byte	0xd2
	.uleb128 0x13
	.4byte	.LASF286
	.byte	0xd3
	.uleb128 0x13
	.4byte	.LASF287
	.byte	0xd4
	.uleb128 0x13
	.4byte	.LASF288
	.byte	0xd5
	.uleb128 0x13
	.4byte	.LASF289
	.byte	0xd9
	.uleb128 0x13
	.4byte	.LASF290
	.byte	0xda
	.uleb128 0x13
	.4byte	.LASF291
	.byte	0xdb
	.uleb128 0x13
	.4byte	.LASF292
	.byte	0xdc
	.uleb128 0x13
	.4byte	.LASF293
	.byte	0xdd
	.uleb128 0x13
	.4byte	.LASF294
	.byte	0xde
	.uleb128 0x13
	.4byte	.LASF295
	.byte	0xdf
	.uleb128 0x13
	.4byte	.LASF296
	.byte	0xe0
	.uleb128 0x13
	.4byte	.LASF297
	.byte	0xe1
	.uleb128 0x13
	.4byte	.LASF298
	.byte	0xe2
	.uleb128 0x13
	.4byte	.LASF299
	.byte	0xe3
	.uleb128 0x13
	.4byte	.LASF300
	.byte	0xe4
	.uleb128 0x13
	.4byte	.LASF301
	.byte	0xe5
	.uleb128 0x13
	.4byte	.LASF302
	.byte	0xe6
	.uleb128 0x13
	.4byte	.LASF303
	.byte	0xe7
	.uleb128 0x13
	.4byte	.LASF304
	.byte	0xe8
	.uleb128 0x13
	.4byte	.LASF305
	.byte	0xe9
	.uleb128 0x13
	.4byte	.LASF306
	.byte	0xea
	.uleb128 0x13
	.4byte	.LASF307
	.byte	0xeb
	.uleb128 0x13
	.4byte	.LASF308
	.byte	0xec
	.uleb128 0x13
	.4byte	.LASF309
	.byte	0xed
	.uleb128 0x13
	.4byte	.LASF310
	.byte	0xee
	.uleb128 0x13
	.4byte	.LASF311
	.byte	0xef
	.uleb128 0x13
	.4byte	.LASF312
	.byte	0xf0
	.uleb128 0x13
	.4byte	.LASF313
	.byte	0xf1
	.uleb128 0x13
	.4byte	.LASF314
	.byte	0xf2
	.uleb128 0x13
	.4byte	.LASF315
	.byte	0xf3
	.uleb128 0x13
	.4byte	.LASF316
	.byte	0xf4
	.uleb128 0x13
	.4byte	.LASF317
	.byte	0xf5
	.uleb128 0x13
	.4byte	.LASF318
	.byte	0xf6
	.uleb128 0x13
	.4byte	.LASF319
	.byte	0xf7
	.uleb128 0x13
	.4byte	.LASF320
	.byte	0xf8
	.uleb128 0x13
	.4byte	.LASF321
	.byte	0xf9
	.uleb128 0x13
	.4byte	.LASF322
	.byte	0xfa
	.uleb128 0x13
	.4byte	.LASF323
	.byte	0xfb
	.uleb128 0x13
	.4byte	.LASF324
	.byte	0xfc
	.uleb128 0x13
	.4byte	.LASF325
	.byte	0xfd
	.uleb128 0x13
	.4byte	.LASF326
	.byte	0xfe
	.uleb128 0x13
	.4byte	.LASF327
	.byte	0xff
	.uleb128 0x14
	.4byte	.LASF328
	.2byte	0x100
	.uleb128 0x14
	.4byte	.LASF329
	.2byte	0x101
	.uleb128 0x14
	.4byte	.LASF330
	.2byte	0x102
	.uleb128 0x14
	.4byte	.LASF331
	.2byte	0x103
	.uleb128 0x14
	.4byte	.LASF332
	.2byte	0x104
	.uleb128 0x14
	.4byte	.LASF333
	.2byte	0x105
	.uleb128 0x14
	.4byte	.LASF334
	.2byte	0x106
	.uleb128 0x14
	.4byte	.LASF335
	.2byte	0x107
	.uleb128 0x14
	.4byte	.LASF336
	.2byte	0x108
	.uleb128 0x14
	.4byte	.LASF337
	.2byte	0x109
	.uleb128 0x14
	.4byte	.LASF338
	.2byte	0x10a
	.uleb128 0x14
	.4byte	.LASF339
	.2byte	0x10b
	.uleb128 0x14
	.4byte	.LASF340
	.2byte	0x10c
	.uleb128 0x14
	.4byte	.LASF341
	.2byte	0x10d
	.uleb128 0x14
	.4byte	.LASF342
	.2byte	0x10e
	.uleb128 0x14
	.4byte	.LASF343
	.2byte	0x10f
	.uleb128 0x14
	.4byte	.LASF344
	.2byte	0x111
	.uleb128 0x14
	.4byte	.LASF345
	.2byte	0x112
	.uleb128 0x14
	.4byte	.LASF346
	.2byte	0x113
	.uleb128 0x14
	.4byte	.LASF347
	.2byte	0x114
	.uleb128 0x14
	.4byte	.LASF348
	.2byte	0x115
	.uleb128 0x14
	.4byte	.LASF349
	.2byte	0x116
	.uleb128 0x14
	.4byte	.LASF350
	.2byte	0x117
	.uleb128 0x14
	.4byte	.LASF351
	.2byte	0x118
	.uleb128 0x14
	.4byte	.LASF352
	.2byte	0x119
	.uleb128 0x14
	.4byte	.LASF353
	.2byte	0x12c
	.uleb128 0x14
	.4byte	.LASF354
	.2byte	0x12d
	.uleb128 0x14
	.4byte	.LASF355
	.2byte	0x12e
	.uleb128 0x14
	.4byte	.LASF356
	.2byte	0x12f
	.uleb128 0x14
	.4byte	.LASF357
	.2byte	0x130
	.uleb128 0x14
	.4byte	.LASF358
	.2byte	0x131
	.uleb128 0x14
	.4byte	.LASF359
	.2byte	0x132
	.uleb128 0x14
	.4byte	.LASF360
	.2byte	0x133
	.uleb128 0x14
	.4byte	.LASF361
	.2byte	0x134
	.uleb128 0x14
	.4byte	.LASF362
	.2byte	0x135
	.uleb128 0x14
	.4byte	.LASF363
	.2byte	0x136
	.uleb128 0x14
	.4byte	.LASF364
	.2byte	0x137
	.uleb128 0x14
	.4byte	.LASF365
	.2byte	0x138
	.uleb128 0x14
	.4byte	.LASF366
	.2byte	0x139
	.uleb128 0x14
	.4byte	.LASF367
	.2byte	0x13a
	.uleb128 0x14
	.4byte	.LASF368
	.2byte	0x13b
	.uleb128 0x14
	.4byte	.LASF369
	.2byte	0x13c
	.uleb128 0x14
	.4byte	.LASF370
	.2byte	0x13d
	.uleb128 0x14
	.4byte	.LASF371
	.2byte	0x13e
	.uleb128 0x14
	.4byte	.LASF372
	.2byte	0x13f
	.uleb128 0x14
	.4byte	.LASF373
	.2byte	0x140
	.uleb128 0x14
	.4byte	.LASF374
	.2byte	0x141
	.uleb128 0x14
	.4byte	.LASF375
	.2byte	0x142
	.uleb128 0x14
	.4byte	.LASF376
	.2byte	0x29a
	.uleb128 0x14
	.4byte	.LASF377
	.2byte	0x2c7
	.uleb128 0x14
	.4byte	.LASF378
	.2byte	0x2c8
	.uleb128 0x14
	.4byte	.LASF379
	.2byte	0x2c9
	.uleb128 0x14
	.4byte	.LASF380
	.2byte	0x2ca
	.uleb128 0x14
	.4byte	.LASF381
	.2byte	0x2cb
	.uleb128 0x14
	.4byte	.LASF382
	.2byte	0x2cc
	.uleb128 0x14
	.4byte	.LASF383
	.2byte	0x2cd
	.uleb128 0x14
	.4byte	.LASF384
	.2byte	0x2ce
	.uleb128 0x14
	.4byte	.LASF385
	.2byte	0x2d1
	.uleb128 0x14
	.4byte	.LASF386
	.2byte	0x2d2
	.uleb128 0x14
	.4byte	.LASF387
	.2byte	0x2d3
	.uleb128 0x14
	.4byte	.LASF388
	.2byte	0x2d4
	.uleb128 0x14
	.4byte	.LASF389
	.2byte	0x2d5
	.uleb128 0x14
	.4byte	.LASF390
	.2byte	0x2d6
	.uleb128 0x14
	.4byte	.LASF391
	.2byte	0x2d7
	.uleb128 0x14
	.4byte	.LASF392
	.2byte	0x2d8
	.uleb128 0x14
	.4byte	.LASF393
	.2byte	0x2d9
	.uleb128 0x14
	.4byte	.LASF394
	.2byte	0x2ee
	.uleb128 0x14
	.4byte	.LASF395
	.2byte	0x2ef
	.uleb128 0x14
	.4byte	.LASF396
	.2byte	0x2f0
	.uleb128 0x14
	.4byte	.LASF397
	.2byte	0x2f2
	.uleb128 0x14
	.4byte	.LASF398
	.2byte	0x2f3
	.uleb128 0x14
	.4byte	.LASF399
	.2byte	0x2f4
	.uleb128 0x14
	.4byte	.LASF400
	.2byte	0x2f5
	.uleb128 0x14
	.4byte	.LASF401
	.2byte	0x2f6
	.uleb128 0x14
	.4byte	.LASF402
	.2byte	0x2f7
	.uleb128 0x14
	.4byte	.LASF403
	.2byte	0x2f8
	.uleb128 0x14
	.4byte	.LASF404
	.2byte	0x2f9
	.uleb128 0x14
	.4byte	.LASF405
	.2byte	0x2fa
	.uleb128 0x14
	.4byte	.LASF406
	.2byte	0x2fb
	.uleb128 0x14
	.4byte	.LASF407
	.2byte	0x2fc
	.uleb128 0x14
	.4byte	.LASF408
	.2byte	0x2fd
	.uleb128 0x14
	.4byte	.LASF409
	.2byte	0x2fe
	.uleb128 0x14
	.4byte	.LASF410
	.2byte	0x2ff
	.uleb128 0x14
	.4byte	.LASF411
	.2byte	0x300
	.uleb128 0x14
	.4byte	.LASF412
	.2byte	0x301
	.uleb128 0x14
	.4byte	.LASF413
	.2byte	0x302
	.uleb128 0x14
	.4byte	.LASF414
	.2byte	0x303
	.uleb128 0x14
	.4byte	.LASF415
	.2byte	0x304
	.uleb128 0x14
	.4byte	.LASF416
	.2byte	0x305
	.uleb128 0x14
	.4byte	.LASF417
	.2byte	0x306
	.uleb128 0x14
	.4byte	.LASF418
	.2byte	0x307
	.uleb128 0x14
	.4byte	.LASF419
	.2byte	0x308
	.uleb128 0x14
	.4byte	.LASF420
	.2byte	0x309
	.uleb128 0x14
	.4byte	.LASF421
	.2byte	0x30a
	.uleb128 0x14
	.4byte	.LASF422
	.2byte	0x30b
	.uleb128 0x14
	.4byte	.LASF423
	.2byte	0x30c
	.uleb128 0x14
	.4byte	.LASF424
	.2byte	0x30d
	.uleb128 0x14
	.4byte	.LASF425
	.2byte	0x30e
	.uleb128 0x14
	.4byte	.LASF426
	.2byte	0x310
	.uleb128 0x14
	.4byte	.LASF427
	.2byte	0x311
	.uleb128 0x14
	.4byte	.LASF428
	.2byte	0x312
	.uleb128 0x14
	.4byte	.LASF429
	.2byte	0x313
	.uleb128 0x14
	.4byte	.LASF430
	.2byte	0x314
	.uleb128 0x14
	.4byte	.LASF431
	.2byte	0x315
	.uleb128 0x14
	.4byte	.LASF432
	.2byte	0x320
	.uleb128 0x14
	.4byte	.LASF433
	.2byte	0x321
	.uleb128 0x14
	.4byte	.LASF434
	.2byte	0x322
	.uleb128 0x14
	.4byte	.LASF435
	.2byte	0x323
	.uleb128 0x14
	.4byte	.LASF436
	.2byte	0x324
	.uleb128 0x14
	.4byte	.LASF437
	.2byte	0x32f
	.uleb128 0x14
	.4byte	.LASF438
	.2byte	0x330
	.uleb128 0x14
	.4byte	.LASF439
	.2byte	0x331
	.uleb128 0x14
	.4byte	.LASF440
	.2byte	0x332
	.uleb128 0x14
	.4byte	.LASF441
	.2byte	0x333
	.uleb128 0x14
	.4byte	.LASF442
	.2byte	0x334
	.uleb128 0x14
	.4byte	.LASF443
	.2byte	0x335
	.uleb128 0x14
	.4byte	.LASF444
	.2byte	0x336
	.uleb128 0x14
	.4byte	.LASF445
	.2byte	0x340
	.uleb128 0x14
	.4byte	.LASF446
	.2byte	0x341
	.uleb128 0x14
	.4byte	.LASF447
	.2byte	0x342
	.uleb128 0x14
	.4byte	.LASF448
	.2byte	0x343
	.uleb128 0x14
	.4byte	.LASF449
	.2byte	0x344
	.uleb128 0x14
	.4byte	.LASF450
	.2byte	0x345
	.uleb128 0x14
	.4byte	.LASF451
	.2byte	0x346
	.uleb128 0x14
	.4byte	.LASF452
	.2byte	0x347
	.uleb128 0x14
	.4byte	.LASF453
	.2byte	0x34c
	.uleb128 0x14
	.4byte	.LASF454
	.2byte	0x350
	.uleb128 0x14
	.4byte	.LASF455
	.2byte	0x371
	.uleb128 0x14
	.4byte	.LASF456
	.2byte	0x372
	.uleb128 0x14
	.4byte	.LASF457
	.2byte	0x373
	.uleb128 0x14
	.4byte	.LASF458
	.2byte	0x374
	.uleb128 0x14
	.4byte	.LASF459
	.2byte	0x375
	.uleb128 0x14
	.4byte	.LASF460
	.2byte	0x376
	.uleb128 0x14
	.4byte	.LASF461
	.2byte	0x377
	.uleb128 0x14
	.4byte	.LASF462
	.2byte	0x378
	.uleb128 0x14
	.4byte	.LASF463
	.2byte	0x379
	.uleb128 0x14
	.4byte	.LASF464
	.2byte	0x37a
	.uleb128 0x14
	.4byte	.LASF465
	.2byte	0x37b
	.uleb128 0x14
	.4byte	.LASF466
	.2byte	0x400
	.uleb128 0x14
	.4byte	.LASF467
	.2byte	0x401
	.uleb128 0x14
	.4byte	.LASF468
	.2byte	0x402
	.uleb128 0x14
	.4byte	.LASF469
	.2byte	0x403
	.uleb128 0x14
	.4byte	.LASF470
	.2byte	0x404
	.uleb128 0x14
	.4byte	.LASF471
	.2byte	0x405
	.uleb128 0x14
	.4byte	.LASF472
	.2byte	0x406
	.uleb128 0x14
	.4byte	.LASF473
	.2byte	0x407
	.uleb128 0x14
	.4byte	.LASF474
	.2byte	0x408
	.uleb128 0x14
	.4byte	.LASF475
	.2byte	0x409
	.uleb128 0x14
	.4byte	.LASF476
	.2byte	0x40a
	.uleb128 0x14
	.4byte	.LASF477
	.2byte	0x40b
	.uleb128 0x14
	.4byte	.LASF478
	.2byte	0x40c
	.uleb128 0x14
	.4byte	.LASF479
	.2byte	0x40d
	.uleb128 0x14
	.4byte	.LASF480
	.2byte	0x40e
	.uleb128 0x14
	.4byte	.LASF481
	.2byte	0x40f
	.uleb128 0x14
	.4byte	.LASF482
	.2byte	0x5dc
	.uleb128 0x14
	.4byte	.LASF483
	.2byte	0x5dd
	.uleb128 0x14
	.4byte	.LASF484
	.2byte	0x5de
	.uleb128 0x14
	.4byte	.LASF485
	.2byte	0x5df
	.uleb128 0x14
	.4byte	.LASF486
	.2byte	0x5e0
	.uleb128 0x14
	.4byte	.LASF487
	.2byte	0x5e1
	.uleb128 0x14
	.4byte	.LASF488
	.2byte	0x5e2
	.uleb128 0x14
	.4byte	.LASF489
	.2byte	0x5e3
	.uleb128 0x14
	.4byte	.LASF490
	.2byte	0x5e4
	.uleb128 0x14
	.4byte	.LASF491
	.2byte	0x5e5
	.uleb128 0x14
	.4byte	.LASF492
	.2byte	0x5e6
	.uleb128 0x14
	.4byte	.LASF493
	.2byte	0x5e7
	.uleb128 0x14
	.4byte	.LASF494
	.2byte	0x5e8
	.uleb128 0x14
	.4byte	.LASF495
	.2byte	0x5e9
	.uleb128 0x14
	.4byte	.LASF496
	.2byte	0x5ea
	.uleb128 0x14
	.4byte	.LASF497
	.2byte	0x5eb
	.uleb128 0x14
	.4byte	.LASF498
	.2byte	0x5ec
	.uleb128 0x14
	.4byte	.LASF499
	.2byte	0x5ed
	.uleb128 0x14
	.4byte	.LASF500
	.2byte	0x5ee
	.uleb128 0x14
	.4byte	.LASF501
	.2byte	0x5ef
	.uleb128 0x14
	.4byte	.LASF502
	.2byte	0x5f0
	.uleb128 0x14
	.4byte	.LASF503
	.2byte	0x5f1
	.uleb128 0x14
	.4byte	.LASF504
	.2byte	0x5f2
	.uleb128 0x14
	.4byte	.LASF505
	.2byte	0x5f3
	.uleb128 0x14
	.4byte	.LASF506
	.2byte	0x5f4
	.uleb128 0x14
	.4byte	.LASF507
	.2byte	0x5f5
	.uleb128 0x14
	.4byte	.LASF508
	.2byte	0x5f6
	.uleb128 0x14
	.4byte	.LASF509
	.2byte	0x5f7
	.uleb128 0x14
	.4byte	.LASF510
	.2byte	0x5f8
	.uleb128 0x14
	.4byte	.LASF511
	.2byte	0x640
	.uleb128 0x14
	.4byte	.LASF512
	.2byte	0x641
	.uleb128 0x14
	.4byte	.LASF513
	.2byte	0x3ffd
	.uleb128 0x14
	.4byte	.LASF514
	.2byte	0x3ffe
	.uleb128 0x14
	.4byte	.LASF515
	.2byte	0x3fff
	.uleb128 0x14
	.4byte	.LASF516
	.2byte	0x8000
	.uleb128 0x14
	.4byte	.LASF517
	.2byte	0x8001
	.uleb128 0x14
	.4byte	.LASF518
	.2byte	0x8002
	.uleb128 0x14
	.4byte	.LASF519
	.2byte	0x8003
	.uleb128 0x14
	.4byte	.LASF520
	.2byte	0x8004
	.uleb128 0x14
	.4byte	.LASF521
	.2byte	0x8005
	.uleb128 0x14
	.4byte	.LASF522
	.2byte	0x8006
	.uleb128 0x14
	.4byte	.LASF523
	.2byte	0x8007
	.uleb128 0x14
	.4byte	.LASF524
	.2byte	0x8008
	.uleb128 0x14
	.4byte	.LASF525
	.2byte	0x8009
	.uleb128 0x14
	.4byte	.LASF526
	.2byte	0x800a
	.uleb128 0x14
	.4byte	.LASF527
	.2byte	0x800b
	.uleb128 0x14
	.4byte	.LASF528
	.2byte	0x800c
	.uleb128 0x14
	.4byte	.LASF529
	.2byte	0x800d
	.uleb128 0x14
	.4byte	.LASF530
	.2byte	0x800e
	.uleb128 0x14
	.4byte	.LASF531
	.2byte	0x800f
	.uleb128 0x14
	.4byte	.LASF532
	.2byte	0x8010
	.uleb128 0x14
	.4byte	.LASF533
	.2byte	0x8011
	.uleb128 0x14
	.4byte	.LASF534
	.2byte	0x8012
	.uleb128 0x14
	.4byte	.LASF535
	.2byte	0x8013
	.uleb128 0x14
	.4byte	.LASF536
	.2byte	0x8014
	.uleb128 0x14
	.4byte	.LASF537
	.2byte	0x8015
	.uleb128 0x14
	.4byte	.LASF538
	.2byte	0x8016
	.uleb128 0x14
	.4byte	.LASF539
	.2byte	0x8017
	.uleb128 0x14
	.4byte	.LASF540
	.2byte	0x8018
	.uleb128 0x14
	.4byte	.LASF541
	.2byte	0x8019
	.uleb128 0x14
	.4byte	.LASF542
	.2byte	0x801a
	.uleb128 0x14
	.4byte	.LASF543
	.2byte	0x801b
	.uleb128 0x14
	.4byte	.LASF544
	.2byte	0x801c
	.uleb128 0x14
	.4byte	.LASF545
	.2byte	0x801d
	.uleb128 0x14
	.4byte	.LASF546
	.2byte	0x801e
	.uleb128 0x14
	.4byte	.LASF547
	.2byte	0x801f
	.uleb128 0x14
	.4byte	.LASF548
	.2byte	0x8020
	.uleb128 0x14
	.4byte	.LASF549
	.2byte	0x8021
	.uleb128 0x14
	.4byte	.LASF550
	.2byte	0x8022
	.uleb128 0x14
	.4byte	.LASF551
	.2byte	0x8023
	.uleb128 0x14
	.4byte	.LASF552
	.2byte	0x8024
	.uleb128 0x14
	.4byte	.LASF553
	.2byte	0x8025
	.uleb128 0x14
	.4byte	.LASF554
	.2byte	0x8026
	.uleb128 0x14
	.4byte	.LASF555
	.2byte	0x8027
	.uleb128 0x14
	.4byte	.LASF556
	.2byte	0x8028
	.uleb128 0x14
	.4byte	.LASF557
	.2byte	0x8029
	.uleb128 0x14
	.4byte	.LASF558
	.2byte	0x802a
	.uleb128 0x14
	.4byte	.LASF559
	.2byte	0x802b
	.uleb128 0x14
	.4byte	.LASF560
	.2byte	0x802c
	.uleb128 0x14
	.4byte	.LASF561
	.2byte	0x802d
	.uleb128 0x14
	.4byte	.LASF562
	.2byte	0x802e
	.uleb128 0x14
	.4byte	.LASF563
	.2byte	0x802f
	.uleb128 0x14
	.4byte	.LASF564
	.2byte	0x8030
	.uleb128 0x14
	.4byte	.LASF565
	.2byte	0x8031
	.uleb128 0x14
	.4byte	.LASF566
	.2byte	0x8032
	.uleb128 0x14
	.4byte	.LASF567
	.2byte	0x8033
	.uleb128 0x14
	.4byte	.LASF568
	.2byte	0x8034
	.uleb128 0x14
	.4byte	.LASF569
	.2byte	0x8035
	.uleb128 0x14
	.4byte	.LASF570
	.2byte	0x8036
	.uleb128 0x14
	.4byte	.LASF571
	.2byte	0x8037
	.uleb128 0x14
	.4byte	.LASF572
	.2byte	0x8038
	.uleb128 0x14
	.4byte	.LASF573
	.2byte	0x8039
	.uleb128 0x14
	.4byte	.LASF574
	.2byte	0x803a
	.uleb128 0x14
	.4byte	.LASF575
	.2byte	0x803b
	.uleb128 0x14
	.4byte	.LASF576
	.2byte	0x803c
	.uleb128 0x14
	.4byte	.LASF577
	.2byte	0x803d
	.uleb128 0x14
	.4byte	.LASF578
	.2byte	0x803e
	.uleb128 0x14
	.4byte	.LASF579
	.2byte	0x803f
	.uleb128 0x14
	.4byte	.LASF580
	.2byte	0x8040
	.uleb128 0x14
	.4byte	.LASF581
	.2byte	0x8041
	.uleb128 0x14
	.4byte	.LASF582
	.2byte	0x8042
	.uleb128 0x14
	.4byte	.LASF583
	.2byte	0x8043
	.uleb128 0x14
	.4byte	.LASF584
	.2byte	0x8044
	.uleb128 0x14
	.4byte	.LASF585
	.2byte	0x8045
	.uleb128 0x14
	.4byte	.LASF586
	.2byte	0x8046
	.uleb128 0x14
	.4byte	.LASF587
	.2byte	0x8047
	.uleb128 0x14
	.4byte	.LASF588
	.2byte	0x8048
	.uleb128 0x14
	.4byte	.LASF589
	.2byte	0x8049
	.uleb128 0x14
	.4byte	.LASF590
	.2byte	0x804a
	.uleb128 0x14
	.4byte	.LASF591
	.2byte	0x804b
	.uleb128 0x14
	.4byte	.LASF592
	.2byte	0x804c
	.uleb128 0x14
	.4byte	.LASF593
	.2byte	0x804d
	.uleb128 0x14
	.4byte	.LASF594
	.2byte	0x804e
	.uleb128 0x14
	.4byte	.LASF595
	.2byte	0x804f
	.uleb128 0x14
	.4byte	.LASF596
	.2byte	0x8050
	.uleb128 0x14
	.4byte	.LASF597
	.2byte	0x8051
	.uleb128 0x14
	.4byte	.LASF598
	.2byte	0x8052
	.uleb128 0x14
	.4byte	.LASF599
	.2byte	0x8053
	.uleb128 0x14
	.4byte	.LASF600
	.2byte	0x8054
	.uleb128 0x14
	.4byte	.LASF601
	.2byte	0x8055
	.uleb128 0x14
	.4byte	.LASF602
	.2byte	0x8056
	.uleb128 0x14
	.4byte	.LASF603
	.2byte	0x8057
	.uleb128 0x14
	.4byte	.LASF604
	.2byte	0x8058
	.uleb128 0x14
	.4byte	.LASF605
	.2byte	0x8059
	.uleb128 0x14
	.4byte	.LASF606
	.2byte	0x805a
	.uleb128 0x14
	.4byte	.LASF607
	.2byte	0x805b
	.uleb128 0x14
	.4byte	.LASF608
	.2byte	0x805c
	.uleb128 0x14
	.4byte	.LASF609
	.2byte	0x805d
	.uleb128 0x14
	.4byte	.LASF610
	.2byte	0x805e
	.uleb128 0x14
	.4byte	.LASF611
	.2byte	0x805f
	.uleb128 0x14
	.4byte	.LASF612
	.2byte	0x8060
	.uleb128 0x14
	.4byte	.LASF613
	.2byte	0x8061
	.uleb128 0x14
	.4byte	.LASF614
	.2byte	0x8062
	.uleb128 0x14
	.4byte	.LASF615
	.2byte	0x8063
	.uleb128 0x14
	.4byte	.LASF616
	.2byte	0x8064
	.uleb128 0x14
	.4byte	.LASF617
	.2byte	0x8065
	.uleb128 0x14
	.4byte	.LASF618
	.2byte	0x8066
	.uleb128 0x14
	.4byte	.LASF619
	.2byte	0x8067
	.uleb128 0x14
	.4byte	.LASF620
	.2byte	0x8068
	.uleb128 0x14
	.4byte	.LASF621
	.2byte	0x8069
	.uleb128 0x14
	.4byte	.LASF622
	.2byte	0x806a
	.uleb128 0x14
	.4byte	.LASF623
	.2byte	0x806b
	.uleb128 0x14
	.4byte	.LASF624
	.2byte	0x806c
	.uleb128 0x14
	.4byte	.LASF625
	.2byte	0x806d
	.uleb128 0x14
	.4byte	.LASF626
	.2byte	0x806e
	.uleb128 0x14
	.4byte	.LASF627
	.2byte	0x806f
	.uleb128 0x14
	.4byte	.LASF628
	.2byte	0x8070
	.uleb128 0x14
	.4byte	.LASF629
	.2byte	0x8071
	.uleb128 0x14
	.4byte	.LASF630
	.2byte	0x8072
	.uleb128 0x14
	.4byte	.LASF631
	.2byte	0x8073
	.uleb128 0x14
	.4byte	.LASF632
	.2byte	0x8074
	.uleb128 0x14
	.4byte	.LASF633
	.2byte	0x8075
	.uleb128 0x14
	.4byte	.LASF634
	.2byte	0x8076
	.uleb128 0x14
	.4byte	.LASF635
	.2byte	0x8077
	.uleb128 0x14
	.4byte	.LASF636
	.2byte	0x8078
	.uleb128 0x14
	.4byte	.LASF637
	.2byte	0x8079
	.uleb128 0x14
	.4byte	.LASF638
	.2byte	0x807a
	.uleb128 0x14
	.4byte	.LASF639
	.2byte	0x807b
	.uleb128 0x14
	.4byte	.LASF640
	.2byte	0x807c
	.uleb128 0x14
	.4byte	.LASF641
	.2byte	0x807d
	.uleb128 0x14
	.4byte	.LASF642
	.2byte	0x807e
	.uleb128 0x14
	.4byte	.LASF643
	.2byte	0x807f
	.uleb128 0x14
	.4byte	.LASF644
	.2byte	0x8080
	.uleb128 0x14
	.4byte	.LASF645
	.2byte	0x8081
	.uleb128 0x14
	.4byte	.LASF646
	.2byte	0x8082
	.uleb128 0x14
	.4byte	.LASF647
	.2byte	0x8083
	.uleb128 0x14
	.4byte	.LASF648
	.2byte	0x8084
	.uleb128 0x14
	.4byte	.LASF649
	.2byte	0x8085
	.uleb128 0x14
	.4byte	.LASF650
	.2byte	0x8086
	.uleb128 0x14
	.4byte	.LASF651
	.2byte	0x8087
	.uleb128 0x14
	.4byte	.LASF652
	.2byte	0x8088
	.uleb128 0x14
	.4byte	.LASF653
	.2byte	0x8089
	.uleb128 0x14
	.4byte	.LASF654
	.2byte	0x808a
	.uleb128 0x14
	.4byte	.LASF655
	.2byte	0x808b
	.uleb128 0x14
	.4byte	.LASF656
	.2byte	0x808c
	.uleb128 0x15
	.4byte	.LASF657
	.4byte	0x10000
	.byte	0
	.uleb128 0x16
	.4byte	.LASF658
	.byte	0x2
	.2byte	0x2dd
	.byte	0x5
	.4byte	0x400
	.uleb128 0x16
	.4byte	.LASF659
	.byte	0x2
	.2byte	0x2e6
	.byte	0x16
	.4byte	0x7c
	.uleb128 0x6
	.byte	0x4
	.4byte	0x75
	.uleb128 0x12
	.byte	0x7
	.byte	0x1
	.4byte	0x2c
	.byte	0xb
	.byte	0x76
	.byte	0x3
	.4byte	0x1364
	.uleb128 0x13
	.4byte	.LASF660
	.byte	0x1
	.uleb128 0x13
	.4byte	.LASF661
	.byte	0x2
	.uleb128 0x13
	.4byte	.LASF662
	.byte	0x3
	.uleb128 0x13
	.4byte	.LASF663
	.byte	0x4
	.uleb128 0x13
	.4byte	.LASF664
	.byte	0x5
	.uleb128 0x13
	.4byte	.LASF665
	.byte	0x6
	.uleb128 0x13
	.4byte	.LASF666
	.byte	0x7
	.uleb128 0x13
	.4byte	.LASF667
	.byte	0x10
	.byte	0
	.uleb128 0x17
	.4byte	.LASF700
	.byte	0x7
	.byte	0x1
	.4byte	0x2c
	.byte	0xb
	.byte	0x8c
	.byte	0x6
	.4byte	0x138f
	.uleb128 0x13
	.4byte	.LASF668
	.byte	0
	.uleb128 0x13
	.4byte	.LASF669
	.byte	0x1
	.uleb128 0x13
	.4byte	.LASF670
	.byte	0x2
	.uleb128 0x13
	.4byte	.LASF671
	.byte	0x3
	.byte	0
	.uleb128 0x3
	.4byte	.LASF672
	.byte	0xb
	.byte	0xa0
	.byte	0x1e
	.4byte	0x139b
	.uleb128 0x6
	.byte	0x4
	.4byte	0x13a1
	.uleb128 0xd
	.4byte	.LASF673
	.byte	0x48
	.byte	0xb
	.byte	0xa4
	.byte	0x8
	.4byte	0x1471
	.uleb128 0xf
	.ascii	"use\000"
	.byte	0xb
	.byte	0xa8
	.byte	0x12
	.4byte	0x1364
	.byte	0
	.uleb128 0xe
	.4byte	.LASF674
	.byte	0xb
	.byte	0xad
	.byte	0x9
	.4byte	0xe5
	.byte	0x4
	.uleb128 0xe
	.4byte	.LASF675
	.byte	0xb
	.byte	0xb1
	.byte	0x9
	.4byte	0xe5
	.byte	0x8
	.uleb128 0xe
	.4byte	.LASF676
	.byte	0xb
	.byte	0xb6
	.byte	0x9
	.4byte	0xe5
	.byte	0xc
	.uleb128 0xe
	.4byte	.LASF677
	.byte	0xb
	.byte	0xbb
	.byte	0x7
	.4byte	0x75
	.byte	0x10
	.uleb128 0xf
	.ascii	"d\000"
	.byte	0xb
	.byte	0xdd
	.byte	0x5
	.4byte	0x147d
	.byte	0x14
	.uleb128 0xe
	.4byte	.LASF678
	.byte	0xb
	.byte	0xe3
	.byte	0x7
	.4byte	0x75
	.byte	0x24
	.uleb128 0xe
	.4byte	.LASF679
	.byte	0xb
	.byte	0xe9
	.byte	0x7
	.4byte	0x75
	.byte	0x28
	.uleb128 0xe
	.4byte	.LASF680
	.byte	0xb
	.byte	0xed
	.byte	0x9
	.4byte	0x14ea
	.byte	0x2c
	.uleb128 0xe
	.4byte	.LASF681
	.byte	0xb
	.byte	0xf1
	.byte	0x9
	.4byte	0x96
	.byte	0x30
	.uleb128 0xe
	.4byte	.LASF682
	.byte	0xb
	.byte	0xf4
	.byte	0x7
	.4byte	0x75
	.byte	0x34
	.uleb128 0xe
	.4byte	.LASF683
	.byte	0xb
	.byte	0xfa
	.byte	0x9
	.4byte	0xb0
	.byte	0x38
	.uleb128 0xe
	.4byte	.LASF684
	.byte	0xb
	.byte	0xfd
	.byte	0xb
	.4byte	0x138f
	.byte	0x3c
	.uleb128 0x18
	.ascii	"no\000"
	.byte	0xb
	.2byte	0x103
	.byte	0x7
	.4byte	0x75
	.byte	0x40
	.uleb128 0x19
	.4byte	.LASF685
	.byte	0xb
	.2byte	0x10b
	.byte	0x7
	.4byte	0x75
	.byte	0x44
	.byte	0
	.uleb128 0x3
	.4byte	.LASF686
	.byte	0xb
	.byte	0xa1
	.byte	0x1e
	.4byte	0x139b
	.uleb128 0x11
	.byte	0x10
	.byte	0xb
	.byte	0xcf
	.byte	0x3
	.4byte	0x14bb
	.uleb128 0xe
	.4byte	.LASF687
	.byte	0xb
	.byte	0xd2
	.byte	0xc
	.4byte	0x83
	.byte	0
	.uleb128 0xe
	.4byte	.LASF688
	.byte	0xb
	.byte	0xd7
	.byte	0xc
	.4byte	0x83
	.byte	0x4
	.uleb128 0xf
	.ascii	"len\000"
	.byte	0xb
	.byte	0xda
	.byte	0xc
	.4byte	0x83
	.byte	0x8
	.uleb128 0xf
	.ascii	"buf\000"
	.byte	0xb
	.byte	0xdc
	.byte	0xb
	.4byte	0x14bb
	.byte	0xc
	.byte	0
	.uleb128 0x6
	.byte	0x4
	.4byte	0xfd
	.uleb128 0x1a
	.4byte	0x75
	.4byte	0x14e4
	.uleb128 0x1b
	.4byte	0x96
	.uleb128 0x1b
	.4byte	0x75
	.uleb128 0x1b
	.4byte	0x138f
	.uleb128 0x1b
	.4byte	0x14bb
	.uleb128 0x1b
	.4byte	0x14e4
	.byte	0
	.uleb128 0x6
	.byte	0x4
	.4byte	0x83
	.uleb128 0x6
	.byte	0x4
	.4byte	0x14c1
	.uleb128 0x11
	.byte	0x3c
	.byte	0xc
	.byte	0x17
	.byte	0x9
	.4byte	0x156e
	.uleb128 0xe
	.4byte	.LASF689
	.byte	0xc
	.byte	0x1a
	.byte	0x7
	.4byte	0x75
	.byte	0
	.uleb128 0xe
	.4byte	.LASF690
	.byte	0xc
	.byte	0x1c
	.byte	0x7
	.4byte	0x75
	.byte	0x4
	.uleb128 0x1c
	.4byte	.LASF691
	.byte	0xc
	.byte	0x21
	.byte	0x10
	.4byte	0x7c
	.byte	0x4
	.byte	0x1
	.byte	0x1f
	.byte	0x8
	.uleb128 0x1c
	.4byte	.LASF692
	.byte	0xc
	.byte	0x26
	.byte	0x7
	.4byte	0x75
	.byte	0x4
	.byte	0x4
	.byte	0x1b
	.byte	0x8
	.uleb128 0x1c
	.4byte	.LASF693
	.byte	0xc
	.byte	0x29
	.byte	0x10
	.4byte	0x7c
	.byte	0x4
	.byte	0x1
	.byte	0x1a
	.byte	0x8
	.uleb128 0x1c
	.4byte	.LASF694
	.byte	0xc
	.byte	0x2c
	.byte	0x10
	.4byte	0x7c
	.byte	0x4
	.byte	0x1
	.byte	0x19
	.byte	0x8
	.uleb128 0xf
	.ascii	"key\000"
	.byte	0xc
	.byte	0x2f
	.byte	0x8
	.4byte	0x156e
	.byte	0x9
	.uleb128 0xe
	.4byte	.LASF695
	.byte	0xc
	.byte	0x32
	.byte	0x8
	.4byte	0x157e
	.byte	0x29
	.byte	0
	.uleb128 0x7
	.4byte	0xfd
	.4byte	0x157e
	.uleb128 0x8
	.4byte	0x7c
	.byte	0x1f
	.byte	0
	.uleb128 0x7
	.4byte	0xb6
	.4byte	0x158e
	.uleb128 0x8
	.4byte	0x7c
	.byte	0x11
	.byte	0
	.uleb128 0x9
	.ascii	"DEK\000"
	.byte	0xc
	.byte	0x33
	.byte	0x3
	.4byte	0x14f0
	.uleb128 0x3
	.4byte	.LASF696
	.byte	0xd
	.byte	0xb
	.byte	0x20
	.4byte	0x15a6
	.uleb128 0x6
	.byte	0x4
	.4byte	0x15ac
	.uleb128 0x1d
	.4byte	.LASF697
	.byte	0x10
	.byte	0xe
	.2byte	0x531
	.byte	0x10
	.4byte	0x15f3
	.uleb128 0x18
	.ascii	"ctx\000"
	.byte	0xe
	.2byte	0x534
	.byte	0x1b
	.4byte	0x16ba
	.byte	0
	.uleb128 0x19
	.4byte	.LASF698
	.byte	0xe
	.2byte	0x537
	.byte	0x8
	.4byte	0x75
	.byte	0x4
	.uleb128 0x19
	.4byte	.LASF699
	.byte	0xe
	.2byte	0x538
	.byte	0x8
	.4byte	0x75
	.byte	0x8
	.uleb128 0x18
	.ascii	"buf\000"
	.byte	0xe
	.2byte	0x539
	.byte	0x11
	.4byte	0xbd
	.byte	0xc
	.byte	0
	.uleb128 0x6
	.byte	0x4
	.4byte	0x158e
	.uleb128 0x7
	.4byte	0xfd
	.4byte	0x1609
	.uleb128 0x8
	.4byte	0x7c
	.byte	0xf
	.byte	0
	.uleb128 0x1e
	.4byte	.LASF701
	.byte	0x7
	.byte	0x1
	.4byte	0x2c
	.byte	0xe
	.2byte	0x3c6
	.byte	0x6
	.4byte	0x1683
	.uleb128 0x13
	.4byte	.LASF702
	.byte	0
	.uleb128 0x13
	.4byte	.LASF703
	.byte	0x1
	.uleb128 0x13
	.4byte	.LASF704
	.byte	0x2
	.uleb128 0x13
	.4byte	.LASF705
	.byte	0x3
	.uleb128 0x13
	.4byte	.LASF706
	.byte	0x4
	.uleb128 0x13
	.4byte	.LASF707
	.byte	0x5
	.uleb128 0x13
	.4byte	.LASF708
	.byte	0x6
	.uleb128 0x13
	.4byte	.LASF709
	.byte	0x7
	.uleb128 0x13
	.4byte	.LASF710
	.byte	0x8
	.uleb128 0x13
	.4byte	.LASF711
	.byte	0x9
	.uleb128 0x13
	.4byte	.LASF712
	.byte	0xa
	.uleb128 0x13
	.4byte	.LASF713
	.byte	0xb
	.uleb128 0x13
	.4byte	.LASF714
	.byte	0xc
	.uleb128 0x13
	.4byte	.LASF715
	.byte	0xd
	.uleb128 0x13
	.4byte	.LASF716
	.byte	0xe
	.uleb128 0x13
	.4byte	.LASF717
	.byte	0xf
	.uleb128 0x13
	.4byte	.LASF718
	.byte	0x10
	.byte	0
	.uleb128 0x1e
	.4byte	.LASF719
	.byte	0x7
	.byte	0x1
	.4byte	0x2c
	.byte	0xe
	.2byte	0x3dc
	.byte	0x6
	.4byte	0x16b5
	.uleb128 0x13
	.4byte	.LASF720
	.byte	0x1
	.uleb128 0x13
	.4byte	.LASF721
	.byte	0x2
	.uleb128 0x13
	.4byte	.LASF722
	.byte	0x4
	.uleb128 0x13
	.4byte	.LASF723
	.byte	0x8
	.uleb128 0x13
	.4byte	.LASF724
	.byte	0x10
	.byte	0
	.uleb128 0x10
	.4byte	.LASF725
	.uleb128 0x6
	.byte	0x4
	.4byte	0x16b5
	.uleb128 0x1f
	.byte	0x14
	.byte	0xf
	.2byte	0x1d8
	.byte	0x9
	.4byte	0x1749
	.uleb128 0x18
	.ascii	"len\000"
	.byte	0xf
	.2byte	0x1da
	.byte	0x8
	.4byte	0xf1
	.byte	0
	.uleb128 0x19
	.4byte	.LASF726
	.byte	0xf
	.2byte	0x1e2
	.byte	0x8
	.4byte	0x75
	.byte	0x4
	.uleb128 0x19
	.4byte	.LASF727
	.byte	0xf
	.2byte	0x1e5
	.byte	0x8
	.4byte	0xfd
	.byte	0x8
	.uleb128 0x19
	.4byte	.LASF728
	.byte	0xf
	.2byte	0x1e9
	.byte	0x8
	.4byte	0xfd
	.byte	0x9
	.uleb128 0x19
	.4byte	.LASF729
	.byte	0xf
	.2byte	0x1ec
	.byte	0x8
	.4byte	0xfd
	.byte	0xa
	.uleb128 0x19
	.4byte	.LASF730
	.byte	0xf
	.2byte	0x1ef
	.byte	0x8
	.4byte	0xfd
	.byte	0xb
	.uleb128 0x19
	.4byte	.LASF731
	.byte	0xf
	.2byte	0x1f2
	.byte	0x8
	.4byte	0xfd
	.byte	0xc
	.uleb128 0x19
	.4byte	.LASF732
	.byte	0xf
	.2byte	0x1f4
	.byte	0x8
	.4byte	0xfd
	.byte	0xd
	.uleb128 0x18
	.ascii	"buf\000"
	.byte	0xf
	.2byte	0x1f8
	.byte	0xb
	.4byte	0x138f
	.byte	0x10
	.byte	0
	.uleb128 0x16
	.4byte	.LASF733
	.byte	0xf
	.2byte	0x1f9
	.byte	0x3
	.4byte	0x16c0
	.uleb128 0x6
	.byte	0x4
	.4byte	0x1749
	.uleb128 0x12
	.byte	0x7
	.byte	0x1
	.4byte	0x2c
	.byte	0x10
	.byte	0x22
	.byte	0x3
	.4byte	0x19cf
	.uleb128 0x13
	.4byte	.LASF734
	.byte	0
	.uleb128 0x13
	.4byte	.LASF735
	.byte	0x1
	.uleb128 0x13
	.4byte	.LASF736
	.byte	0x2
	.uleb128 0x13
	.4byte	.LASF737
	.byte	0x3
	.uleb128 0x13
	.4byte	.LASF738
	.byte	0x4
	.uleb128 0x13
	.4byte	.LASF739
	.byte	0x5
	.uleb128 0x13
	.4byte	.LASF740
	.byte	0x6
	.uleb128 0x13
	.4byte	.LASF741
	.byte	0x7
	.uleb128 0x13
	.4byte	.LASF742
	.byte	0x8
	.uleb128 0x13
	.4byte	.LASF743
	.byte	0x9
	.uleb128 0x13
	.4byte	.LASF744
	.byte	0xa
	.uleb128 0x13
	.4byte	.LASF745
	.byte	0xb
	.uleb128 0x13
	.4byte	.LASF746
	.byte	0xc
	.uleb128 0x13
	.4byte	.LASF747
	.byte	0xd
	.uleb128 0x13
	.4byte	.LASF748
	.byte	0xe
	.uleb128 0x13
	.4byte	.LASF749
	.byte	0xf
	.uleb128 0x13
	.4byte	.LASF750
	.byte	0x10
	.uleb128 0x13
	.4byte	.LASF751
	.byte	0x11
	.uleb128 0x13
	.4byte	.LASF752
	.byte	0x12
	.uleb128 0x13
	.4byte	.LASF753
	.byte	0x13
	.uleb128 0x13
	.4byte	.LASF754
	.byte	0x14
	.uleb128 0x13
	.4byte	.LASF755
	.byte	0x15
	.uleb128 0x13
	.4byte	.LASF756
	.byte	0x16
	.uleb128 0x13
	.4byte	.LASF757
	.byte	0x17
	.uleb128 0x13
	.4byte	.LASF758
	.byte	0x18
	.uleb128 0x13
	.4byte	.LASF759
	.byte	0x19
	.uleb128 0x13
	.4byte	.LASF760
	.byte	0x1a
	.uleb128 0x13
	.4byte	.LASF761
	.byte	0x1b
	.uleb128 0x13
	.4byte	.LASF762
	.byte	0x1c
	.uleb128 0x13
	.4byte	.LASF763
	.byte	0x1d
	.uleb128 0x13
	.4byte	.LASF764
	.byte	0x1e
	.uleb128 0x13
	.4byte	.LASF765
	.byte	0x1f
	.uleb128 0x13
	.4byte	.LASF766
	.byte	0x20
	.uleb128 0x13
	.4byte	.LASF767
	.byte	0x21
	.uleb128 0x13
	.4byte	.LASF768
	.byte	0x22
	.uleb128 0x13
	.4byte	.LASF769
	.byte	0x23
	.uleb128 0x13
	.4byte	.LASF770
	.byte	0x24
	.uleb128 0x13
	.4byte	.LASF771
	.byte	0x25
	.uleb128 0x13
	.4byte	.LASF772
	.byte	0x26
	.uleb128 0x13
	.4byte	.LASF773
	.byte	0x27
	.uleb128 0x13
	.4byte	.LASF774
	.byte	0x28
	.uleb128 0x13
	.4byte	.LASF775
	.byte	0x29
	.uleb128 0x13
	.4byte	.LASF776
	.byte	0x2a
	.uleb128 0x13
	.4byte	.LASF777
	.byte	0x2b
	.uleb128 0x13
	.4byte	.LASF778
	.byte	0x2c
	.uleb128 0x13
	.4byte	.LASF779
	.byte	0x2d
	.uleb128 0x13
	.4byte	.LASF780
	.byte	0x2e
	.uleb128 0x13
	.4byte	.LASF781
	.byte	0x2f
	.uleb128 0x13
	.4byte	.LASF782
	.byte	0x30
	.uleb128 0x13
	.4byte	.LASF783
	.byte	0x31
	.uleb128 0x13
	.4byte	.LASF784
	.byte	0x32
	.uleb128 0x13
	.4byte	.LASF785
	.byte	0x33
	.uleb128 0x13
	.4byte	.LASF786
	.byte	0x34
	.uleb128 0x13
	.4byte	.LASF787
	.byte	0x35
	.uleb128 0x13
	.4byte	.LASF788
	.byte	0x36
	.uleb128 0x13
	.4byte	.LASF789
	.byte	0x37
	.uleb128 0x13
	.4byte	.LASF790
	.byte	0x38
	.uleb128 0x13
	.4byte	.LASF791
	.byte	0x39
	.uleb128 0x13
	.4byte	.LASF792
	.byte	0x3a
	.uleb128 0x13
	.4byte	.LASF793
	.byte	0x3b
	.uleb128 0x13
	.4byte	.LASF794
	.byte	0x3c
	.uleb128 0x13
	.4byte	.LASF795
	.byte	0x3d
	.uleb128 0x13
	.4byte	.LASF796
	.byte	0x3e
	.uleb128 0x13
	.4byte	.LASF797
	.byte	0x3f
	.uleb128 0x13
	.4byte	.LASF798
	.byte	0x40
	.uleb128 0x13
	.4byte	.LASF799
	.byte	0x41
	.uleb128 0x13
	.4byte	.LASF800
	.byte	0x42
	.uleb128 0x13
	.4byte	.LASF801
	.byte	0x43
	.uleb128 0x13
	.4byte	.LASF802
	.byte	0x44
	.uleb128 0x13
	.4byte	.LASF803
	.byte	0x45
	.uleb128 0x13
	.4byte	.LASF804
	.byte	0x46
	.uleb128 0x13
	.4byte	.LASF805
	.byte	0x47
	.uleb128 0x13
	.4byte	.LASF806
	.byte	0x48
	.uleb128 0x13
	.4byte	.LASF807
	.byte	0x49
	.uleb128 0x13
	.4byte	.LASF808
	.byte	0x4a
	.uleb128 0x13
	.4byte	.LASF809
	.byte	0x4b
	.uleb128 0x13
	.4byte	.LASF810
	.byte	0x4c
	.uleb128 0x13
	.4byte	.LASF811
	.byte	0x4d
	.uleb128 0x13
	.4byte	.LASF812
	.byte	0x4e
	.uleb128 0x13
	.4byte	.LASF813
	.byte	0x4f
	.uleb128 0x13
	.4byte	.LASF814
	.byte	0x50
	.uleb128 0x13
	.4byte	.LASF815
	.byte	0x51
	.uleb128 0x13
	.4byte	.LASF816
	.byte	0x52
	.uleb128 0x13
	.4byte	.LASF817
	.byte	0x53
	.uleb128 0x13
	.4byte	.LASF818
	.byte	0x54
	.uleb128 0x13
	.4byte	.LASF819
	.byte	0x55
	.uleb128 0x13
	.4byte	.LASF820
	.byte	0x56
	.uleb128 0x13
	.4byte	.LASF821
	.byte	0x57
	.uleb128 0x13
	.4byte	.LASF822
	.byte	0x58
	.uleb128 0x13
	.4byte	.LASF823
	.byte	0x59
	.uleb128 0x13
	.4byte	.LASF824
	.byte	0x5a
	.uleb128 0x13
	.4byte	.LASF825
	.byte	0x5b
	.uleb128 0x13
	.4byte	.LASF826
	.byte	0x5c
	.uleb128 0x13
	.4byte	.LASF827
	.byte	0x5d
	.uleb128 0x13
	.4byte	.LASF828
	.byte	0x5e
	.uleb128 0x13
	.4byte	.LASF829
	.byte	0x5f
	.uleb128 0x13
	.4byte	.LASF830
	.byte	0x60
	.uleb128 0x13
	.4byte	.LASF831
	.byte	0x61
	.uleb128 0x13
	.4byte	.LASF832
	.byte	0x62
	.uleb128 0x13
	.4byte	.LASF833
	.byte	0x63
	.uleb128 0x13
	.4byte	.LASF834
	.byte	0x64
	.uleb128 0x13
	.4byte	.LASF835
	.byte	0x65
	.byte	0
	.uleb128 0xd
	.4byte	.LASF836
	.byte	0x80
	.byte	0x1
	.byte	0x2e
	.byte	0x8
	.4byte	0x1ab3
	.uleb128 0xe
	.4byte	.LASF837
	.byte	0x1
	.byte	0x33
	.byte	0x7
	.4byte	0x75
	.byte	0
	.uleb128 0xe
	.4byte	.LASF838
	.byte	0x1
	.byte	0x36
	.byte	0x14
	.4byte	0x241
	.byte	0x4
	.uleb128 0xe
	.4byte	.LASF839
	.byte	0x1
	.byte	0x39
	.byte	0x10
	.4byte	0x159a
	.byte	0x8
	.uleb128 0xe
	.4byte	.LASF840
	.byte	0x1
	.byte	0x3c
	.byte	0x8
	.4byte	0x15f9
	.byte	0xc
	.uleb128 0xe
	.4byte	.LASF841
	.byte	0x1
	.byte	0x41
	.byte	0x8
	.4byte	0x1ab3
	.byte	0x1c
	.uleb128 0xe
	.4byte	.LASF842
	.byte	0x1
	.byte	0x42
	.byte	0x10
	.4byte	0x7c
	.byte	0x4c
	.uleb128 0x1c
	.4byte	.LASF843
	.byte	0x1
	.byte	0x45
	.byte	0x10
	.4byte	0x7c
	.byte	0x4
	.byte	0x1
	.byte	0x1f
	.byte	0x50
	.uleb128 0x1c
	.4byte	.LASF844
	.byte	0x1
	.byte	0x4b
	.byte	0x10
	.4byte	0x7c
	.byte	0x4
	.byte	0x2
	.byte	0x1d
	.byte	0x50
	.uleb128 0xe
	.4byte	.LASF731
	.byte	0x1
	.byte	0x4e
	.byte	0x8
	.4byte	0xfd
	.byte	0x51
	.uleb128 0xe
	.4byte	.LASF730
	.byte	0x1
	.byte	0x51
	.byte	0x8
	.4byte	0xfd
	.byte	0x52
	.uleb128 0xe
	.4byte	.LASF732
	.byte	0x1
	.byte	0x54
	.byte	0x8
	.4byte	0xfd
	.byte	0x53
	.uleb128 0xe
	.4byte	.LASF845
	.byte	0x1
	.byte	0x57
	.byte	0xc
	.4byte	0xd9
	.byte	0x58
	.uleb128 0xe
	.4byte	.LASF846
	.byte	0x1
	.byte	0x5a
	.byte	0xc
	.4byte	0xd9
	.byte	0x60
	.uleb128 0xe
	.4byte	.LASF847
	.byte	0x1
	.byte	0x5d
	.byte	0xc
	.4byte	0xd9
	.byte	0x68
	.uleb128 0xe
	.4byte	.LASF848
	.byte	0x1
	.byte	0x60
	.byte	0xc
	.4byte	0xd9
	.byte	0x70
	.uleb128 0xe
	.4byte	.LASF849
	.byte	0x1
	.byte	0x64
	.byte	0xa
	.4byte	0x83
	.byte	0x78
	.byte	0
	.uleb128 0x7
	.4byte	0xb6
	.4byte	0x1ac3
	.uleb128 0x8
	.4byte	0x7c
	.byte	0x2f
	.byte	0
	.uleb128 0x3
	.4byte	.LASF850
	.byte	0x1
	.byte	0x66
	.byte	0x29
	.4byte	0x1acf
	.uleb128 0x6
	.byte	0x4
	.4byte	0x19cf
	.uleb128 0x20
	.4byte	.LASF890
	.byte	0x1
	.2byte	0x412
	.byte	0x1
	.4byte	0x75
	.4byte	.LFB22
	.4byte	.LFE22-.LFB22
	.uleb128 0x1
	.byte	0x9c
	.4byte	0x1d00
	.uleb128 0x21
	.4byte	.LASF851
	.byte	0x1
	.2byte	0x412
	.byte	0x15
	.4byte	0x96
	.4byte	.LLST2
	.4byte	.LVUS2
	.uleb128 0x21
	.4byte	.LASF852
	.byte	0x1
	.2byte	0x412
	.byte	0x21
	.4byte	0x75
	.4byte	.LLST3
	.4byte	.LVUS3
	.uleb128 0x22
	.ascii	"a\000"
	.byte	0x1
	.2byte	0x412
	.byte	0x30
	.4byte	0x1471
	.4byte	.LLST4
	.4byte	.LVUS4
	.uleb128 0x22
	.ascii	"buf\000"
	.byte	0x1
	.2byte	0x412
	.byte	0x39
	.4byte	0x14bb
	.4byte	.LLST5
	.4byte	.LVUS5
	.uleb128 0x23
	.4byte	.LASF860
	.byte	0x1
	.2byte	0x412
	.byte	0x46
	.4byte	0x14e4
	.uleb128 0x2
	.byte	0x91
	.sleb128 0
	.uleb128 0x24
	.ascii	"fc\000"
	.byte	0x1
	.2byte	0x414
	.byte	0x19
	.4byte	0x1ac3
	.4byte	.LLST6
	.4byte	.LVUS6
	.uleb128 0x25
	.4byte	.LASF687
	.byte	0x1
	.2byte	0x417
	.byte	0xa
	.4byte	0x83
	.4byte	.LLST7
	.4byte	.LVUS7
	.uleb128 0x24
	.ascii	"n\000"
	.byte	0x1
	.2byte	0x419
	.byte	0xa
	.4byte	0x83
	.4byte	.LLST8
	.4byte	.LVUS8
	.uleb128 0x24
	.ascii	"rc\000"
	.byte	0x1
	.2byte	0x41a
	.byte	0x7
	.4byte	0x75
	.4byte	.LLST9
	.4byte	.LVUS9
	.uleb128 0x26
	.4byte	.LBB53
	.4byte	.LBE53-.LBB53
	.4byte	0x1bef
	.uleb128 0x27
	.4byte	.LASF867
	.byte	0x1
	.2byte	0x1fc
	.byte	0x5
	.4byte	0x75
	.4byte	0x1bc2
	.uleb128 0x28
	.byte	0
	.uleb128 0x29
	.4byte	.LVL39
	.4byte	0x2158
	.uleb128 0x2a
	.4byte	.LVL41
	.4byte	0x2164
	.uleb128 0x2b
	.uleb128 0x1
	.byte	0x51
	.uleb128 0x2
	.byte	0x76
	.sleb128 0
	.uleb128 0x2b
	.uleb128 0x1
	.byte	0x52
	.uleb128 0x2
	.byte	0x74
	.sleb128 0
	.uleb128 0x2b
	.uleb128 0x1
	.byte	0x53
	.uleb128 0x2
	.byte	0x75
	.sleb128 0
	.uleb128 0x2b
	.uleb128 0x2
	.byte	0x7d
	.sleb128 0
	.uleb128 0x2
	.byte	0x75
	.sleb128 0
	.byte	0
	.byte	0
	.uleb128 0x2c
	.4byte	0x1d00
	.4byte	.LBI48
	.byte	.LVU49
	.4byte	.Ldebug_ranges0+0x18
	.byte	0x1
	.2byte	0x426
	.byte	0x9
	.4byte	0x1cc5
	.uleb128 0x2d
	.4byte	0x1d46
	.4byte	.LLST10
	.4byte	.LVUS10
	.uleb128 0x2e
	.4byte	0x1d39
	.uleb128 0x2d
	.4byte	0x1d2c
	.4byte	.LLST11
	.4byte	.LVUS11
	.uleb128 0x2d
	.4byte	0x1d1f
	.4byte	.LLST12
	.4byte	.LVUS12
	.uleb128 0x2d
	.4byte	0x1d12
	.4byte	.LLST13
	.4byte	.LVUS13
	.uleb128 0x2f
	.4byte	.Ldebug_ranges0+0x18
	.uleb128 0x30
	.4byte	0x1d53
	.4byte	.LLST14
	.4byte	.LVUS14
	.uleb128 0x30
	.4byte	0x1d60
	.4byte	.LLST15
	.4byte	.LVUS15
	.uleb128 0x30
	.4byte	0x1d6d
	.4byte	.LLST16
	.4byte	.LVUS16
	.uleb128 0x29
	.4byte	.LVL18
	.4byte	0x2158
	.uleb128 0x31
	.4byte	.LVL21
	.4byte	0x2171
	.4byte	0x1c87
	.uleb128 0x2b
	.uleb128 0x1
	.byte	0x50
	.uleb128 0x2
	.byte	0x77
	.sleb128 0
	.byte	0
	.uleb128 0x31
	.4byte	.LVL30
	.4byte	0x2158
	.4byte	0x1ca1
	.uleb128 0x2b
	.uleb128 0x1
	.byte	0x51
	.uleb128 0x2
	.byte	0x7a
	.sleb128 0
	.uleb128 0x2b
	.uleb128 0x1
	.byte	0x52
	.uleb128 0x2
	.byte	0x78
	.sleb128 0
	.byte	0
	.uleb128 0x2a
	.4byte	.LVL35
	.4byte	0x2171
	.uleb128 0x2b
	.uleb128 0x1
	.byte	0x50
	.uleb128 0x2
	.byte	0x77
	.sleb128 0
	.uleb128 0x2b
	.uleb128 0x1
	.byte	0x51
	.uleb128 0x5
	.byte	0x76
	.sleb128 0
	.byte	0x74
	.sleb128 0
	.byte	0x22
	.uleb128 0x2b
	.uleb128 0x1
	.byte	0x52
	.uleb128 0x5
	.byte	0x78
	.sleb128 0
	.byte	0x74
	.sleb128 0
	.byte	0x1c
	.byte	0
	.byte	0
	.byte	0
	.uleb128 0x31
	.4byte	.LVL13
	.4byte	0x2158
	.4byte	0x1cd9
	.uleb128 0x2b
	.uleb128 0x1
	.byte	0x51
	.uleb128 0x2
	.byte	0x74
	.sleb128 0
	.byte	0
	.uleb128 0x29
	.4byte	.LVL17
	.4byte	0x2158
	.uleb128 0x31
	.4byte	.LVL37
	.4byte	0x2053
	.4byte	0x1cf6
	.uleb128 0x2b
	.uleb128 0x1
	.byte	0x50
	.uleb128 0x2
	.byte	0x75
	.sleb128 0
	.byte	0
	.uleb128 0x29
	.4byte	.LVL46
	.4byte	0x2158
	.byte	0
	.uleb128 0x32
	.4byte	.LASF869
	.byte	0x1
	.2byte	0x26f
	.byte	0x1
	.4byte	0x83
	.byte	0x1
	.4byte	0x1d7b
	.uleb128 0x33
	.ascii	"dfx\000"
	.byte	0x1
	.2byte	0x26f
	.byte	0x21
	.4byte	0x1ac3
	.uleb128 0x34
	.4byte	.LASF853
	.byte	0x1
	.2byte	0x26f
	.byte	0x2e
	.4byte	0x138f
	.uleb128 0x34
	.4byte	.LASF854
	.byte	0x1
	.2byte	0x270
	.byte	0x13
	.4byte	0x14bb
	.uleb128 0x34
	.4byte	.LASF675
	.byte	0x1
	.2byte	0x270
	.byte	0x22
	.4byte	0x83
	.uleb128 0x34
	.4byte	.LASF855
	.byte	0x1
	.2byte	0x270
	.byte	0x31
	.4byte	0x83
	.uleb128 0x35
	.4byte	.LASF856
	.byte	0x1
	.2byte	0x273
	.byte	0xa
	.4byte	0x83
	.uleb128 0x35
	.4byte	.LASF857
	.byte	0x1
	.2byte	0x274
	.byte	0xa
	.4byte	0x83
	.uleb128 0x36
	.ascii	"ret\000"
	.byte	0x1
	.2byte	0x275
	.byte	0x7
	.4byte	0x75
	.byte	0
	.uleb128 0x37
	.4byte	.LASF891
	.byte	0x1
	.byte	0xdf
	.byte	0x5
	.4byte	0x75
	.4byte	.LFB20
	.4byte	.LFE20-.LFB20
	.uleb128 0x1
	.byte	0x9c
	.4byte	0x2053
	.uleb128 0x38
	.4byte	.LASF858
	.byte	0x1
	.byte	0xdf
	.byte	0x19
	.4byte	0x33d
	.4byte	.LLST17
	.4byte	.LVUS17
	.uleb128 0x38
	.4byte	.LASF859
	.byte	0x1
	.byte	0xdf
	.byte	0x25
	.4byte	0x96
	.4byte	.LLST18
	.4byte	.LVUS18
	.uleb128 0x39
	.ascii	"ed\000"
	.byte	0x1
	.byte	0xdf
	.byte	0x3d
	.4byte	0x1756
	.4byte	.LLST19
	.4byte	.LVUS19
	.uleb128 0x39
	.ascii	"dek\000"
	.byte	0x1
	.byte	0xdf
	.byte	0x46
	.4byte	0x15f3
	.4byte	.LLST20
	.4byte	.LVUS20
	.uleb128 0x3a
	.4byte	.LASF861
	.byte	0x1
	.byte	0xe0
	.byte	0x17
	.4byte	0x131f
	.uleb128 0x2
	.byte	0x91
	.sleb128 0
	.uleb128 0x3b
	.ascii	"dfx\000"
	.byte	0x1
	.byte	0xfd
	.byte	0x17
	.4byte	0x1ac3
	.uleb128 0x3
	.byte	0x91
	.sleb128 -68
	.uleb128 0x3c
	.4byte	.LASF862
	.byte	0x1
	.byte	0xfe
	.byte	0x1a
	.4byte	0x1609
	.4byte	.LLST21
	.4byte	.LVUS21
	.uleb128 0x3d
	.4byte	.LASF863
	.byte	0x1
	.byte	0xff
	.byte	0x10
	.4byte	0x7c
	.uleb128 0x24
	.ascii	"p\000"
	.byte	0x1
	.2byte	0x100
	.byte	0x9
	.4byte	0x14bb
	.4byte	.LLST22
	.4byte	.LVUS22
	.uleb128 0x24
	.ascii	"rc\000"
	.byte	0x1
	.2byte	0x101
	.byte	0x7
	.4byte	0x75
	.4byte	.LLST23
	.4byte	.LVUS23
	.uleb128 0x24
	.ascii	"c\000"
	.byte	0x1
	.2byte	0x101
	.byte	0xf
	.4byte	0x75
	.4byte	.LLST24
	.4byte	.LVUS24
	.uleb128 0x24
	.ascii	"i\000"
	.byte	0x1
	.2byte	0x101
	.byte	0x12
	.4byte	0x75
	.4byte	.LLST25
	.4byte	.LVUS25
	.uleb128 0x3e
	.4byte	.LASF864
	.byte	0x1
	.2byte	0x102
	.byte	0x8
	.4byte	0x156e
	.uleb128 0x2
	.byte	0x91
	.sleb128 -64
	.uleb128 0x25
	.4byte	.LASF865
	.byte	0x1
	.2byte	0x103
	.byte	0xc
	.4byte	0x7c
	.4byte	.LLST26
	.4byte	.LVUS26
	.uleb128 0x25
	.4byte	.LASF866
	.byte	0x1
	.2byte	0x104
	.byte	0xc
	.4byte	0x7c
	.4byte	.LLST27
	.4byte	.LVUS27
	.uleb128 0x3f
	.4byte	.LASF892
	.byte	0x1
	.2byte	0x265
	.byte	0x1
	.4byte	.L44
	.uleb128 0x26
	.4byte	.LBB58
	.4byte	.LBE58-.LBB58
	.4byte	0x1ee9
	.uleb128 0x27
	.4byte	.LASF868
	.byte	0x1
	.2byte	0x188
	.byte	0xa
	.4byte	0x75
	.4byte	0x1ed7
	.uleb128 0x28
	.byte	0
	.uleb128 0x40
	.uleb128 0x41
	.4byte	.LASF893
	.byte	0x1
	.2byte	0x185
	.byte	0xe
	.4byte	0x75
	.uleb128 0x28
	.byte	0
	.byte	0
	.byte	0
	.uleb128 0x42
	.4byte	.Ldebug_ranges0+0x38
	.4byte	0x1fe5
	.uleb128 0x27
	.4byte	.LASF867
	.byte	0x1
	.2byte	0x1fc
	.byte	0x5
	.4byte	0x75
	.4byte	0x1f05
	.uleb128 0x28
	.byte	0
	.uleb128 0x31
	.4byte	.LVL55
	.4byte	0x217d
	.4byte	0x1f25
	.uleb128 0x2b
	.uleb128 0x1
	.byte	0x50
	.uleb128 0x3
	.byte	0x91
	.sleb128 -76
	.uleb128 0x2b
	.uleb128 0x1
	.byte	0x51
	.uleb128 0x2
	.byte	0x79
	.sleb128 0
	.uleb128 0x2b
	.uleb128 0x1
	.byte	0x52
	.uleb128 0x1
	.byte	0x34
	.byte	0
	.uleb128 0x31
	.4byte	.LVL56
	.4byte	0x2189
	.4byte	0x1f39
	.uleb128 0x2b
	.uleb128 0x1
	.byte	0x50
	.uleb128 0x2
	.byte	0x8
	.byte	0x40
	.byte	0
	.uleb128 0x31
	.4byte	.LVL57
	.4byte	0x217d
	.4byte	0x1f53
	.uleb128 0x2b
	.uleb128 0x1
	.byte	0x51
	.uleb128 0x2
	.byte	0x79
	.sleb128 0
	.uleb128 0x2b
	.uleb128 0x1
	.byte	0x52
	.uleb128 0x2
	.byte	0x8
	.byte	0x40
	.byte	0
	.uleb128 0x31
	.4byte	.LVL58
	.4byte	0x2195
	.4byte	0x1f67
	.uleb128 0x2b
	.uleb128 0x1
	.byte	0x51
	.uleb128 0x2
	.byte	0x75
	.sleb128 9
	.byte	0
	.uleb128 0x31
	.4byte	.LVL61
	.4byte	0x21a1
	.4byte	0x1f80
	.uleb128 0x2b
	.uleb128 0x1
	.byte	0x51
	.uleb128 0x2
	.byte	0x79
	.sleb128 0
	.uleb128 0x2b
	.uleb128 0x1
	.byte	0x52
	.uleb128 0x1
	.byte	0x38
	.byte	0
	.uleb128 0x29
	.4byte	.LVL66
	.4byte	0x21ad
	.uleb128 0x31
	.4byte	.LVL69
	.4byte	0x2164
	.4byte	0x1fae
	.uleb128 0x2b
	.uleb128 0x1
	.byte	0x51
	.uleb128 0x3
	.byte	0x91
	.sleb128 -72
	.uleb128 0x2b
	.uleb128 0x1
	.byte	0x52
	.uleb128 0x1
	.byte	0x3a
	.uleb128 0x2b
	.uleb128 0x1
	.byte	0x53
	.uleb128 0x1
	.byte	0x30
	.uleb128 0x2b
	.uleb128 0x2
	.byte	0x7d
	.sleb128 0
	.uleb128 0x1
	.byte	0x30
	.byte	0
	.uleb128 0x29
	.4byte	.LVL70
	.4byte	0x21ba
	.uleb128 0x29
	.4byte	.LVL72
	.4byte	0x2158
	.uleb128 0x29
	.4byte	.LVL77
	.4byte	0x2158
	.uleb128 0x29
	.4byte	.LVL84
	.4byte	0x2158
	.uleb128 0x29
	.4byte	.LVL87
	.4byte	0x2158
	.uleb128 0x29
	.4byte	.LVL92
	.4byte	0x21ad
	.byte	0
	.uleb128 0x29
	.4byte	.LVL50
	.4byte	0x2158
	.uleb128 0x31
	.4byte	.LVL51
	.4byte	0x21c6
	.4byte	0x2007
	.uleb128 0x2b
	.uleb128 0x1
	.byte	0x50
	.uleb128 0x1
	.byte	0x31
	.uleb128 0x2b
	.uleb128 0x1
	.byte	0x51
	.uleb128 0x2
	.byte	0x8
	.byte	0x80
	.byte	0
	.uleb128 0x29
	.4byte	.LVL52
	.4byte	0x2158
	.uleb128 0x31
	.4byte	.LVL53
	.4byte	0x2158
	.4byte	0x202a
	.uleb128 0x2b
	.uleb128 0x1
	.byte	0x50
	.uleb128 0x1
	.byte	0x47
	.uleb128 0x2b
	.uleb128 0x2
	.byte	0x7d
	.sleb128 0
	.uleb128 0x2
	.byte	0x76
	.sleb128 0
	.byte	0
	.uleb128 0x29
	.4byte	.LVL75
	.4byte	0x2053
	.uleb128 0x29
	.4byte	.LVL78
	.4byte	0x21d2
	.uleb128 0x2a
	.4byte	.LVL79
	.4byte	0x21df
	.uleb128 0x2b
	.uleb128 0x1
	.byte	0x50
	.uleb128 0x2
	.byte	0x77
	.sleb128 0
	.uleb128 0x2b
	.uleb128 0x1
	.byte	0x51
	.uleb128 0x2
	.byte	0x78
	.sleb128 0
	.byte	0
	.byte	0
	.uleb128 0x43
	.4byte	.LASF894
	.byte	0x1
	.byte	0x6a
	.byte	0x1
	.byte	0x1
	.4byte	0x206d
	.uleb128 0x44
	.ascii	"dfx\000"
	.byte	0x1
	.byte	0x6a
	.byte	0x29
	.4byte	0x1ac3
	.byte	0
	.uleb128 0x45
	.4byte	.LASF895
	.byte	0x2
	.2byte	0x42a
	.byte	0x1
	.4byte	0x1312
	.byte	0x3
	.uleb128 0x32
	.4byte	.LASF870
	.byte	0x2
	.2byte	0x3cc
	.byte	0x1
	.4byte	0x1305
	.byte	0x3
	.4byte	0x209b
	.uleb128 0x33
	.ascii	"err\000"
	.byte	0x2
	.2byte	0x3cc
	.byte	0x1b
	.4byte	0x1312
	.byte	0
	.uleb128 0x32
	.4byte	.LASF871
	.byte	0x2
	.2byte	0x3c4
	.byte	0x1
	.4byte	0x1312
	.byte	0x3
	.4byte	0x20bb
	.uleb128 0x34
	.4byte	.LASF872
	.byte	0x2
	.2byte	0x3c4
	.byte	0x1b
	.4byte	0x1305
	.byte	0
	.uleb128 0x32
	.4byte	.LASF873
	.byte	0x2
	.2byte	0x3b5
	.byte	0x1
	.4byte	0x1312
	.byte	0x3
	.4byte	0x20e8
	.uleb128 0x34
	.4byte	.LASF874
	.byte	0x2
	.2byte	0x3b5
	.byte	0x20
	.4byte	0x3f4
	.uleb128 0x34
	.4byte	.LASF872
	.byte	0x2
	.2byte	0x3b5
	.byte	0x37
	.4byte	0x1305
	.byte	0
	.uleb128 0x46
	.4byte	0x2053
	.4byte	.LFB19
	.4byte	.LFE19-.LFB19
	.uleb128 0x1
	.byte	0x9c
	.4byte	0x2158
	.uleb128 0x2d
	.4byte	0x2060
	.4byte	.LLST0
	.4byte	.LVUS0
	.uleb128 0x47
	.4byte	0x2053
	.4byte	.LBI41
	.byte	.LVU9
	.4byte	.Ldebug_ranges0+0
	.byte	0x1
	.byte	0x6a
	.byte	0x1
	.4byte	0x214e
	.uleb128 0x2d
	.4byte	0x2060
	.4byte	.LLST1
	.4byte	.LVUS1
	.uleb128 0x29
	.4byte	.LVL4
	.4byte	0x21ec
	.uleb128 0x29
	.4byte	.LVL5
	.4byte	0x21ec
	.uleb128 0x48
	.4byte	.LVL7
	.4byte	0x21ec
	.uleb128 0x2b
	.uleb128 0x1
	.byte	0x50
	.uleb128 0x3
	.byte	0xf3
	.uleb128 0x1
	.byte	0x50
	.byte	0
	.byte	0
	.uleb128 0x29
	.4byte	.LVL2
	.4byte	0x2158
	.byte	0
	.uleb128 0x49
	.4byte	.LASF875
	.4byte	.LASF875
	.byte	0x11
	.byte	0x4c
	.byte	0x6
	.uleb128 0x4a
	.4byte	.LASF867
	.4byte	.LASF867
	.byte	0x1
	.2byte	0x1fc
	.byte	0x5
	.uleb128 0x49
	.4byte	.LASF876
	.4byte	.LASF876
	.byte	0xd
	.byte	0x45
	.byte	0x5
	.uleb128 0x49
	.4byte	.LASF877
	.4byte	.LASF877
	.byte	0x12
	.byte	0x21
	.byte	0x9
	.uleb128 0x49
	.4byte	.LASF878
	.4byte	.LASF878
	.byte	0x13
	.byte	0x6c
	.byte	0x7
	.uleb128 0x49
	.4byte	.LASF879
	.4byte	.LASF879
	.byte	0x8
	.byte	0x42
	.byte	0x1
	.uleb128 0x49
	.4byte	.LASF880
	.4byte	.LASF880
	.byte	0x8
	.byte	0x40
	.byte	0x1
	.uleb128 0x4a
	.4byte	.LASF881
	.4byte	.LASF881
	.byte	0xb
	.2byte	0x1e3
	.byte	0x5
	.uleb128 0x49
	.4byte	.LASF882
	.4byte	.LASF882
	.byte	0x8
	.byte	0x4c
	.byte	0x6
	.uleb128 0x49
	.4byte	.LASF883
	.4byte	.LASF883
	.byte	0x14
	.byte	0x14
	.byte	0x7
	.uleb128 0x4a
	.4byte	.LASF884
	.4byte	.LASF884
	.byte	0xb
	.2byte	0x1a0
	.byte	0x5
	.uleb128 0x4a
	.4byte	.LASF885
	.4byte	.LASF885
	.byte	0xf
	.2byte	0x271
	.byte	0x5
	.uleb128 0x49
	.4byte	.LASF886
	.4byte	.LASF886
	.byte	0x14
	.byte	0xe
	.byte	0x6
	.byte	0
	.section	.debug_abbrev,"",%progbits
.Ldebug_abbrev0:
	.uleb128 0x1
	.uleb128 0x11
	.byte	0x1
	.uleb128 0x25
	.uleb128 0xe
	.uleb128 0x13
	.uleb128 0xb
	.uleb128 0x3
	.uleb128 0xe
	.uleb128 0x1b
	.uleb128 0xe
	.uleb128 0x55
	.uleb128 0x17
	.uleb128 0x11
	.uleb128 0x1
	.uleb128 0x10
	.uleb128 0x17
	.byte	0
	.byte	0
	.uleb128 0x2
	.uleb128 0x24
	.byte	0
	.uleb128 0xb
	.uleb128 0xb
	.uleb128 0x3e
	.uleb128 0xb
	.uleb128 0x3
	.uleb128 0xe
	.byte	0
	.byte	0
	.uleb128 0x3
	.uleb128 0x16
	.byte	0
	.uleb128 0x3
	.uleb128 0xe
	.uleb128 0x3a
	.uleb128 0xb
	.uleb128 0x3b
	.uleb128 0xb
	.uleb128 0x39
	.uleb128 0xb
	.uleb128 0x49
	.uleb128 0x13
	.byte	0
	.byte	0
	.uleb128 0x4
	.uleb128 0x24
	.byte	0
	.uleb128 0xb
	.uleb128 0xb
	.uleb128 0x3e
	.uleb128 0xb
	.uleb128 0x3
	.uleb128 0x8
	.byte	0
	.byte	0
	.uleb128 0x5
	.uleb128 0xf
	.byte	0
	.uleb128 0xb
	.uleb128 0xb
	.byte	0
	.byte	0
	.uleb128 0x6
	.uleb128 0xf
	.byte	0
	.uleb128 0xb
	.uleb128 0xb
	.uleb128 0x49
	.uleb128 0x13
	.byte	0
	.byte	0
	.uleb128 0x7
	.uleb128 0x1
	.byte	0x1
	.uleb128 0x49
	.uleb128 0x13
	.uleb128 0x1
	.uleb128 0x13
	.byte	0
	.byte	0
	.uleb128 0x8
	.uleb128 0x21
	.byte	0
	.uleb128 0x49
	.uleb128 0x13
	.uleb128 0x2f
	.uleb128 0xb
	.byte	0
	.byte	0
	.uleb128 0x9
	.uleb128 0x16
	.byte	0
	.uleb128 0x3
	.uleb128 0x8
	.uleb128 0x3a
	.uleb128 0xb
	.uleb128 0x3b
	.uleb128 0xb
	.uleb128 0x39
	.uleb128 0xb
	.uleb128 0x49
	.uleb128 0x13
	.byte	0
	.byte	0
	.uleb128 0xa
	.uleb128 0x17
	.byte	0x1
	.uleb128 0xb
	.uleb128 0xb
	.uleb128 0x3a
	.uleb128 0xb
	.uleb128 0x3b
	.uleb128 0xb
	.uleb128 0x39
	.uleb128 0xb
	.uleb128 0x1
	.uleb128 0x13
	.byte	0
	.byte	0
	.uleb128 0xb
	.uleb128 0xd
	.byte	0
	.uleb128 0x3
	.uleb128 0x8
	.uleb128 0x3a
	.uleb128 0xb
	.uleb128 0x3b
	.uleb128 0xb
	.uleb128 0x39
	.uleb128 0xb
	.uleb128 0x49
	.uleb128 0x13
	.byte	0
	.byte	0
	.uleb128 0xc
	.uleb128 0xd
	.byte	0
	.uleb128 0x3
	.uleb128 0xe
	.uleb128 0x3a
	.uleb128 0xb
	.uleb128 0x3b
	.uleb128 0xb
	.uleb128 0x39
	.uleb128 0xb
	.uleb128 0x49
	.uleb128 0x13
	.byte	0
	.byte	0
	.uleb128 0xd
	.uleb128 0x13
	.byte	0x1
	.uleb128 0x3
	.uleb128 0xe
	.uleb128 0xb
	.uleb128 0xb
	.uleb128 0x3a
	.uleb128 0xb
	.uleb128 0x3b
	.uleb128 0xb
	.uleb128 0x39
	.uleb128 0xb
	.uleb128 0x1
	.uleb128 0x13
	.byte	0
	.byte	0
	.uleb128 0xe
	.uleb128 0xd
	.byte	0
	.uleb128 0x3
	.uleb128 0xe
	.uleb128 0x3a
	.uleb128 0xb
	.uleb128 0x3b
	.uleb128 0xb
	.uleb128 0x39
	.uleb128 0xb
	.uleb128 0x49
	.uleb128 0x13
	.uleb128 0x38
	.uleb128 0xb
	.byte	0
	.byte	0
	.uleb128 0xf
	.uleb128 0xd
	.byte	0
	.uleb128 0x3
	.uleb128 0x8
	.uleb128 0x3a
	.uleb128 0xb
	.uleb128 0x3b
	.uleb128 0xb
	.uleb128 0x39
	.uleb128 0xb
	.uleb128 0x49
	.uleb128 0x13
	.uleb128 0x38
	.uleb128 0xb
	.byte	0
	.byte	0
	.uleb128 0x10
	.uleb128 0x13
	.byte	0
	.uleb128 0x3
	.uleb128 0xe
	.uleb128 0x3c
	.uleb128 0x19
	.byte	0
	.byte	0
	.uleb128 0x11
	.uleb128 0x13
	.byte	0x1
	.uleb128 0xb
	.uleb128 0xb
	.uleb128 0x3a
	.uleb128 0xb
	.uleb128 0x3b
	.uleb128 0xb
	.uleb128 0x39
	.uleb128 0xb
	.uleb128 0x1
	.uleb128 0x13
	.byte	0
	.byte	0
	.uleb128 0x12
	.uleb128 0x4
	.byte	0x1
	.uleb128 0x3e
	.uleb128 0xb
	.uleb128 0xb
	.uleb128 0xb
	.uleb128 0x49
	.uleb128 0x13
	.uleb128 0x3a
	.uleb128 0xb
	.uleb128 0x3b
	.uleb128 0xb
	.uleb128 0x39
	.uleb128 0xb
	.uleb128 0x1
	.uleb128 0x13
	.byte	0
	.byte	0
	.uleb128 0x13
	.uleb128 0x28
	.byte	0
	.uleb128 0x3
	.uleb128 0xe
	.uleb128 0x1c
	.uleb128 0xb
	.byte	0
	.byte	0
	.uleb128 0x14
	.uleb128 0x28
	.byte	0
	.uleb128 0x3
	.uleb128 0xe
	.uleb128 0x1c
	.uleb128 0x5
	.byte	0
	.byte	0
	.uleb128 0x15
	.uleb128 0x28
	.byte	0
	.uleb128 0x3
	.uleb128 0xe
	.uleb128 0x1c
	.uleb128 0x6
	.byte	0
	.byte	0
	.uleb128 0x16
	.uleb128 0x16
	.byte	0
	.uleb128 0x3
	.uleb128 0xe
	.uleb128 0x3a
	.uleb128 0xb
	.uleb128 0x3b
	.uleb128 0x5
	.uleb128 0x39
	.uleb128 0xb
	.uleb128 0x49
	.uleb128 0x13
	.byte	0
	.byte	0
	.uleb128 0x17
	.uleb128 0x4
	.byte	0x1
	.uleb128 0x3
	.uleb128 0xe
	.uleb128 0x3e
	.uleb128 0xb
	.uleb128 0xb
	.uleb128 0xb
	.uleb128 0x49
	.uleb128 0x13
	.uleb128 0x3a
	.uleb128 0xb
	.uleb128 0x3b
	.uleb128 0xb
	.uleb128 0x39
	.uleb128 0xb
	.uleb128 0x1
	.uleb128 0x13
	.byte	0
	.byte	0
	.uleb128 0x18
	.uleb128 0xd
	.byte	0
	.uleb128 0x3
	.uleb128 0x8
	.uleb128 0x3a
	.uleb128 0xb
	.uleb128 0x3b
	.uleb128 0x5
	.uleb128 0x39
	.uleb128 0xb
	.uleb128 0x49
	.uleb128 0x13
	.uleb128 0x38
	.uleb128 0xb
	.byte	0
	.byte	0
	.uleb128 0x19
	.uleb128 0xd
	.byte	0
	.uleb128 0x3
	.uleb128 0xe
	.uleb128 0x3a
	.uleb128 0xb
	.uleb128 0x3b
	.uleb128 0x5
	.uleb128 0x39
	.uleb128 0xb
	.uleb128 0x49
	.uleb128 0x13
	.uleb128 0x38
	.uleb128 0xb
	.byte	0
	.byte	0
	.uleb128 0x1a
	.uleb128 0x15
	.byte	0x1
	.uleb128 0x27
	.uleb128 0x19
	.uleb128 0x49
	.uleb128 0x13
	.uleb128 0x1
	.uleb128 0x13
	.byte	0
	.byte	0
	.uleb128 0x1b
	.uleb128 0x5
	.byte	0
	.uleb128 0x49
	.uleb128 0x13
	.byte	0
	.byte	0
	.uleb128 0x1c
	.uleb128 0xd
	.byte	0
	.uleb128 0x3
	.uleb128 0xe
	.uleb128 0x3a
	.uleb128 0xb
	.uleb128 0x3b
	.uleb128 0xb
	.uleb128 0x39
	.uleb128 0xb
	.uleb128 0x49
	.uleb128 0x13
	.uleb128 0xb
	.uleb128 0xb
	.uleb128 0xd
	.uleb128 0xb
	.uleb128 0xc
	.uleb128 0xb
	.uleb128 0x38
	.uleb128 0xb
	.byte	0
	.byte	0
	.uleb128 0x1d
	.uleb128 0x13
	.byte	0x1
	.uleb128 0x3
	.uleb128 0xe
	.uleb128 0xb
	.uleb128 0xb
	.uleb128 0x3a
	.uleb128 0xb
	.uleb128 0x3b
	.uleb128 0x5
	.uleb128 0x39
	.uleb128 0xb
	.uleb128 0x1
	.uleb128 0x13
	.byte	0
	.byte	0
	.uleb128 0x1e
	.uleb128 0x4
	.byte	0x1
	.uleb128 0x3
	.uleb128 0xe
	.uleb128 0x3e
	.uleb128 0xb
	.uleb128 0xb
	.uleb128 0xb
	.uleb128 0x49
	.uleb128 0x13
	.uleb128 0x3a
	.uleb128 0xb
	.uleb128 0x3b
	.uleb128 0x5
	.uleb128 0x39
	.uleb128 0xb
	.uleb128 0x1
	.uleb128 0x13
	.byte	0
	.byte	0
	.uleb128 0x1f
	.uleb128 0x13
	.byte	0x1
	.uleb128 0xb
	.uleb128 0xb
	.uleb128 0x3a
	.uleb128 0xb
	.uleb128 0x3b
	.uleb128 0x5
	.uleb128 0x39
	.uleb128 0xb
	.uleb128 0x1
	.uleb128 0x13
	.byte	0
	.byte	0
	.uleb128 0x20
	.uleb128 0x2e
	.byte	0x1
	.uleb128 0x3
	.uleb128 0xe
	.uleb128 0x3a
	.uleb128 0xb
	.uleb128 0x3b
	.uleb128 0x5
	.uleb128 0x39
	.uleb128 0xb
	.uleb128 0x27
	.uleb128 0x19
	.uleb128 0x49
	.uleb128 0x13
	.uleb128 0x11
	.uleb128 0x1
	.uleb128 0x12
	.uleb128 0x6
	.uleb128 0x40
	.uleb128 0x18
	.uleb128 0x2117
	.uleb128 0x19
	.uleb128 0x1
	.uleb128 0x13
	.byte	0
	.byte	0
	.uleb128 0x21
	.uleb128 0x5
	.byte	0
	.uleb128 0x3
	.uleb128 0xe
	.uleb128 0x3a
	.uleb128 0xb
	.uleb128 0x3b
	.uleb128 0x5
	.uleb128 0x39
	.uleb128 0xb
	.uleb128 0x49
	.uleb128 0x13
	.uleb128 0x2
	.uleb128 0x17
	.uleb128 0x2137
	.uleb128 0x17
	.byte	0
	.byte	0
	.uleb128 0x22
	.uleb128 0x5
	.byte	0
	.uleb128 0x3
	.uleb128 0x8
	.uleb128 0x3a
	.uleb128 0xb
	.uleb128 0x3b
	.uleb128 0x5
	.uleb128 0x39
	.uleb128 0xb
	.uleb128 0x49
	.uleb128 0x13
	.uleb128 0x2
	.uleb128 0x17
	.uleb128 0x2137
	.uleb128 0x17
	.byte	0
	.byte	0
	.uleb128 0x23
	.uleb128 0x5
	.byte	0
	.uleb128 0x3
	.uleb128 0xe
	.uleb128 0x3a
	.uleb128 0xb
	.uleb128 0x3b
	.uleb128 0x5
	.uleb128 0x39
	.uleb128 0xb
	.uleb128 0x49
	.uleb128 0x13
	.uleb128 0x2
	.uleb128 0x18
	.byte	0
	.byte	0
	.uleb128 0x24
	.uleb128 0x34
	.byte	0
	.uleb128 0x3
	.uleb128 0x8
	.uleb128 0x3a
	.uleb128 0xb
	.uleb128 0x3b
	.uleb128 0x5
	.uleb128 0x39
	.uleb128 0xb
	.uleb128 0x49
	.uleb128 0x13
	.uleb128 0x2
	.uleb128 0x17
	.uleb128 0x2137
	.uleb128 0x17
	.byte	0
	.byte	0
	.uleb128 0x25
	.uleb128 0x34
	.byte	0
	.uleb128 0x3
	.uleb128 0xe
	.uleb128 0x3a
	.uleb128 0xb
	.uleb128 0x3b
	.uleb128 0x5
	.uleb128 0x39
	.uleb128 0xb
	.uleb128 0x49
	.uleb128 0x13
	.uleb128 0x2
	.uleb128 0x17
	.uleb128 0x2137
	.uleb128 0x17
	.byte	0
	.byte	0
	.uleb128 0x26
	.uleb128 0xb
	.byte	0x1
	.uleb128 0x11
	.uleb128 0x1
	.uleb128 0x12
	.uleb128 0x6
	.uleb128 0x1
	.uleb128 0x13
	.byte	0
	.byte	0
	.uleb128 0x27
	.uleb128 0x2e
	.byte	0x1
	.uleb128 0x3f
	.uleb128 0x19
	.uleb128 0x3
	.uleb128 0xe
	.uleb128 0x3a
	.uleb128 0xb
	.uleb128 0x3b
	.uleb128 0x5
	.uleb128 0x39
	.uleb128 0xb
	.uleb128 0x49
	.uleb128 0x13
	.uleb128 0x3c
	.uleb128 0x19
	.uleb128 0x1
	.uleb128 0x13
	.byte	0
	.byte	0
	.uleb128 0x28
	.uleb128 0x18
	.byte	0
	.byte	0
	.byte	0
	.uleb128 0x29
	.uleb128 0x4109
	.byte	0
	.uleb128 0x11
	.uleb128 0x1
	.uleb128 0x31
	.uleb128 0x13
	.byte	0
	.byte	0
	.uleb128 0x2a
	.uleb128 0x4109
	.byte	0x1
	.uleb128 0x11
	.uleb128 0x1
	.uleb128 0x31
	.uleb128 0x13
	.byte	0
	.byte	0
	.uleb128 0x2b
	.uleb128 0x410a
	.byte	0
	.uleb128 0x2
	.uleb128 0x18
	.uleb128 0x2111
	.uleb128 0x18
	.byte	0
	.byte	0
	.uleb128 0x2c
	.uleb128 0x1d
	.byte	0x1
	.uleb128 0x31
	.uleb128 0x13
	.uleb128 0x52
	.uleb128 0x1
	.uleb128 0x2138
	.uleb128 0xb
	.uleb128 0x55
	.uleb128 0x17
	.uleb128 0x58
	.uleb128 0xb
	.uleb128 0x59
	.uleb128 0x5
	.uleb128 0x57
	.uleb128 0xb
	.uleb128 0x1
	.uleb128 0x13
	.byte	0
	.byte	0
	.uleb128 0x2d
	.uleb128 0x5
	.byte	0
	.uleb128 0x31
	.uleb128 0x13
	.uleb128 0x2
	.uleb128 0x17
	.uleb128 0x2137
	.uleb128 0x17
	.byte	0
	.byte	0
	.uleb128 0x2e
	.uleb128 0x5
	.byte	0
	.uleb128 0x31
	.uleb128 0x13
	.byte	0
	.byte	0
	.uleb128 0x2f
	.uleb128 0xb
	.byte	0x1
	.uleb128 0x55
	.uleb128 0x17
	.byte	0
	.byte	0
	.uleb128 0x30
	.uleb128 0x34
	.byte	0
	.uleb128 0x31
	.uleb128 0x13
	.uleb128 0x2
	.uleb128 0x17
	.uleb128 0x2137
	.uleb128 0x17
	.byte	0
	.byte	0
	.uleb128 0x31
	.uleb128 0x4109
	.byte	0x1
	.uleb128 0x11
	.uleb128 0x1
	.uleb128 0x31
	.uleb128 0x13
	.uleb128 0x1
	.uleb128 0x13
	.byte	0
	.byte	0
	.uleb128 0x32
	.uleb128 0x2e
	.byte	0x1
	.uleb128 0x3
	.uleb128 0xe
	.uleb128 0x3a
	.uleb128 0xb
	.uleb128 0x3b
	.uleb128 0x5
	.uleb128 0x39
	.uleb128 0xb
	.uleb128 0x27
	.uleb128 0x19
	.uleb128 0x49
	.uleb128 0x13
	.uleb128 0x20
	.uleb128 0xb
	.uleb128 0x1
	.uleb128 0x13
	.byte	0
	.byte	0
	.uleb128 0x33
	.uleb128 0x5
	.byte	0
	.uleb128 0x3
	.uleb128 0x8
	.uleb128 0x3a
	.uleb128 0xb
	.uleb128 0x3b
	.uleb128 0x5
	.uleb128 0x39
	.uleb128 0xb
	.uleb128 0x49
	.uleb128 0x13
	.byte	0
	.byte	0
	.uleb128 0x34
	.uleb128 0x5
	.byte	0
	.uleb128 0x3
	.uleb128 0xe
	.uleb128 0x3a
	.uleb128 0xb
	.uleb128 0x3b
	.uleb128 0x5
	.uleb128 0x39
	.uleb128 0xb
	.uleb128 0x49
	.uleb128 0x13
	.byte	0
	.byte	0
	.uleb128 0x35
	.uleb128 0x34
	.byte	0
	.uleb128 0x3
	.uleb128 0xe
	.uleb128 0x3a
	.uleb128 0xb
	.uleb128 0x3b
	.uleb128 0x5
	.uleb128 0x39
	.uleb128 0xb
	.uleb128 0x49
	.uleb128 0x13
	.byte	0
	.byte	0
	.uleb128 0x36
	.uleb128 0x34
	.byte	0
	.uleb128 0x3
	.uleb128 0x8
	.uleb128 0x3a
	.uleb128 0xb
	.uleb128 0x3b
	.uleb128 0x5
	.uleb128 0x39
	.uleb128 0xb
	.uleb128 0x49
	.uleb128 0x13
	.byte	0
	.byte	0
	.uleb128 0x37
	.uleb128 0x2e
	.byte	0x1
	.uleb128 0x3f
	.uleb128 0x19
	.uleb128 0x3
	.uleb128 0xe
	.uleb128 0x3a
	.uleb128 0xb
	.uleb128 0x3b
	.uleb128 0xb
	.uleb128 0x39
	.uleb128 0xb
	.uleb128 0x27
	.uleb128 0x19
	.uleb128 0x49
	.uleb128 0x13
	.uleb128 0x11
	.uleb128 0x1
	.uleb128 0x12
	.uleb128 0x6
	.uleb128 0x40
	.uleb128 0x18
	.uleb128 0x2117
	.uleb128 0x19
	.uleb128 0x1
	.uleb128 0x13
	.byte	0
	.byte	0
	.uleb128 0x38
	.uleb128 0x5
	.byte	0
	.uleb128 0x3
	.uleb128 0xe
	.uleb128 0x3a
	.uleb128 0xb
	.uleb128 0x3b
	.uleb128 0xb
	.uleb128 0x39
	.uleb128 0xb
	.uleb128 0x49
	.uleb128 0x13
	.uleb128 0x2
	.uleb128 0x17
	.uleb128 0x2137
	.uleb128 0x17
	.byte	0
	.byte	0
	.uleb128 0x39
	.uleb128 0x5
	.byte	0
	.uleb128 0x3
	.uleb128 0x8
	.uleb128 0x3a
	.uleb128 0xb
	.uleb128 0x3b
	.uleb128 0xb
	.uleb128 0x39
	.uleb128 0xb
	.uleb128 0x49
	.uleb128 0x13
	.uleb128 0x2
	.uleb128 0x17
	.uleb128 0x2137
	.uleb128 0x17
	.byte	0
	.byte	0
	.uleb128 0x3a
	.uleb128 0x5
	.byte	0
	.uleb128 0x3
	.uleb128 0xe
	.uleb128 0x3a
	.uleb128 0xb
	.uleb128 0x3b
	.uleb128 0xb
	.uleb128 0x39
	.uleb128 0xb
	.uleb128 0x49
	.uleb128 0x13
	.uleb128 0x2
	.uleb128 0x18
	.byte	0
	.byte	0
	.uleb128 0x3b
	.uleb128 0x34
	.byte	0
	.uleb128 0x3
	.uleb128 0x8
	.uleb128 0x3a
	.uleb128 0xb
	.uleb128 0x3b
	.uleb128 0xb
	.uleb128 0x39
	.uleb128 0xb
	.uleb128 0x49
	.uleb128 0x13
	.uleb128 0x2
	.uleb128 0x18
	.byte	0
	.byte	0
	.uleb128 0x3c
	.uleb128 0x34
	.byte	0
	.uleb128 0x3
	.uleb128 0xe
	.uleb128 0x3a
	.uleb128 0xb
	.uleb128 0x3b
	.uleb128 0xb
	.uleb128 0x39
	.uleb128 0xb
	.uleb128 0x49
	.uleb128 0x13
	.uleb128 0x2
	.uleb128 0x17
	.uleb128 0x2137
	.uleb128 0x17
	.byte	0
	.byte	0
	.uleb128 0x3d
	.uleb128 0x34
	.byte	0
	.uleb128 0x3
	.uleb128 0xe
	.uleb128 0x3a
	.uleb128 0xb
	.uleb128 0x3b
	.uleb128 0xb
	.uleb128 0x39
	.uleb128 0xb
	.uleb128 0x49
	.uleb128 0x13
	.byte	0
	.byte	0
	.uleb128 0x3e
	.uleb128 0x34
	.byte	0
	.uleb128 0x3
	.uleb128 0xe
	.uleb128 0x3a
	.uleb128 0xb
	.uleb128 0x3b
	.uleb128 0x5
	.uleb128 0x39
	.uleb128 0xb
	.uleb128 0x49
	.uleb128 0x13
	.uleb128 0x2
	.uleb128 0x18
	.byte	0
	.byte	0
	.uleb128 0x3f
	.uleb128 0xa
	.byte	0
	.uleb128 0x3
	.uleb128 0xe
	.uleb128 0x3a
	.uleb128 0xb
	.uleb128 0x3b
	.uleb128 0x5
	.uleb128 0x39
	.uleb128 0xb
	.uleb128 0x11
	.uleb128 0x1
	.byte	0
	.byte	0
	.uleb128 0x40
	.uleb128 0xb
	.byte	0x1
	.byte	0
	.byte	0
	.uleb128 0x41
	.uleb128 0x2e
	.byte	0x1
	.uleb128 0x3f
	.uleb128 0x19
	.uleb128 0x3
	.uleb128 0xe
	.uleb128 0x3a
	.uleb128 0xb
	.uleb128 0x3b
	.uleb128 0x5
	.uleb128 0x39
	.uleb128 0xb
	.uleb128 0x49
	.uleb128 0x13
	.uleb128 0x3c
	.uleb128 0x19
	.byte	0
	.byte	0
	.uleb128 0x42
	.uleb128 0xb
	.byte	0x1
	.uleb128 0x55
	.uleb128 0x17
	.uleb128 0x1
	.uleb128 0x13
	.byte	0
	.byte	0
	.uleb128 0x43
	.uleb128 0x2e
	.byte	0x1
	.uleb128 0x3
	.uleb128 0xe
	.uleb128 0x3a
	.uleb128 0xb
	.uleb128 0x3b
	.uleb128 0xb
	.uleb128 0x39
	.uleb128 0xb
	.uleb128 0x27
	.uleb128 0x19
	.uleb128 0x20
	.uleb128 0xb
	.uleb128 0x1
	.uleb128 0x13
	.byte	0
	.byte	0
	.uleb128 0x44
	.uleb128 0x5
	.byte	0
	.uleb128 0x3
	.uleb128 0x8
	.uleb128 0x3a
	.uleb128 0xb
	.uleb128 0x3b
	.uleb128 0xb
	.uleb128 0x39
	.uleb128 0xb
	.uleb128 0x49
	.uleb128 0x13
	.byte	0
	.byte	0
	.uleb128 0x45
	.uleb128 0x2e
	.byte	0
	.uleb128 0x3
	.uleb128 0xe
	.uleb128 0x3a
	.uleb128 0xb
	.uleb128 0x3b
	.uleb128 0x5
	.uleb128 0x39
	.uleb128 0xb
	.uleb128 0x27
	.uleb128 0x19
	.uleb128 0x49
	.uleb128 0x13
	.uleb128 0x20
	.uleb128 0xb
	.byte	0
	.byte	0
	.uleb128 0x46
	.uleb128 0x2e
	.byte	0x1
	.uleb128 0x31
	.uleb128 0x13
	.uleb128 0x11
	.uleb128 0x1
	.uleb128 0x12
	.uleb128 0x6
	.uleb128 0x40
	.uleb128 0x18
	.uleb128 0x2117
	.uleb128 0x19
	.uleb128 0x1
	.uleb128 0x13
	.byte	0
	.byte	0
	.uleb128 0x47
	.uleb128 0x1d
	.byte	0x1
	.uleb128 0x31
	.uleb128 0x13
	.uleb128 0x52
	.uleb128 0x1
	.uleb128 0x2138
	.uleb128 0xb
	.uleb128 0x55
	.uleb128 0x17
	.uleb128 0x58
	.uleb128 0xb
	.uleb128 0x59
	.uleb128 0xb
	.uleb128 0x57
	.uleb128 0xb
	.uleb128 0x1
	.uleb128 0x13
	.byte	0
	.byte	0
	.uleb128 0x48
	.uleb128 0x4109
	.byte	0x1
	.uleb128 0x11
	.uleb128 0x1
	.uleb128 0x2115
	.uleb128 0x19
	.uleb128 0x31
	.uleb128 0x13
	.byte	0
	.byte	0
	.uleb128 0x49
	.uleb128 0x2e
	.byte	0
	.uleb128 0x3f
	.uleb128 0x19
	.uleb128 0x3c
	.uleb128 0x19
	.uleb128 0x6e
	.uleb128 0xe
	.uleb128 0x3
	.uleb128 0xe
	.uleb128 0x3a
	.uleb128 0xb
	.uleb128 0x3b
	.uleb128 0xb
	.uleb128 0x39
	.uleb128 0xb
	.byte	0
	.byte	0
	.uleb128 0x4a
	.uleb128 0x2e
	.byte	0
	.uleb128 0x3f
	.uleb128 0x19
	.uleb128 0x3c
	.uleb128 0x19
	.uleb128 0x6e
	.uleb128 0xe
	.uleb128 0x3
	.uleb128 0xe
	.uleb128 0x3a
	.uleb128 0xb
	.uleb128 0x3b
	.uleb128 0x5
	.uleb128 0x39
	.uleb128 0xb
	.byte	0
	.byte	0
	.byte	0
	.section	.debug_loc,"",%progbits
.Ldebug_loc0:
.LVUS2:
	.uleb128 0
	.uleb128 .LVU26
	.uleb128 .LVU26
	.uleb128 .LVU89
	.uleb128 .LVU89
	.uleb128 .LVU92
	.uleb128 .LVU92
	.uleb128 .LVU116
	.uleb128 .LVU116
	.uleb128 .LVU118
	.uleb128 .LVU118
	.uleb128 0
.LLST2:
	.4byte	.LVL8
	.4byte	.LVL9
	.2byte	0x1
	.byte	0x50
	.4byte	.LVL9
	.4byte	.LVL28
	.2byte	0x1
	.byte	0x55
	.4byte	.LVL28
	.4byte	.LVL29
	.2byte	0x4
	.byte	0xf3
	.uleb128 0x1
	.byte	0x50
	.byte	0x9f
	.4byte	.LVL29
	.4byte	.LVL40
	.2byte	0x1
	.byte	0x55
	.4byte	.LVL40
	.4byte	.LVL42
	.2byte	0x4
	.byte	0xf3
	.uleb128 0x1
	.byte	0x50
	.byte	0x9f
	.4byte	.LVL42
	.4byte	.LFE22
	.2byte	0x1
	.byte	0x55
	.4byte	0
	.4byte	0
.LVUS3:
	.uleb128 0
	.uleb128 .LVU31
	.uleb128 .LVU31
	.uleb128 .LVU41
	.uleb128 .LVU41
	.uleb128 .LVU42
	.uleb128 .LVU42
	.uleb128 .LVU43
	.uleb128 .LVU43
	.uleb128 .LVU106
	.uleb128 .LVU106
	.uleb128 .LVU110
	.uleb128 .LVU110
	.uleb128 0
.LLST3:
	.4byte	.LVL8
	.4byte	.LVL13-1
	.2byte	0x1
	.byte	0x51
	.4byte	.LVL13-1
	.4byte	.LVL14
	.2byte	0x1
	.byte	0x54
	.4byte	.LVL14
	.4byte	.LVL15
	.2byte	0x4
	.byte	0xf3
	.uleb128 0x1
	.byte	0x51
	.byte	0x9f
	.4byte	.LVL15
	.4byte	.LVL16
	.2byte	0x1
	.byte	0x54
	.4byte	.LVL16
	.4byte	.LVL36
	.2byte	0x4
	.byte	0xf3
	.uleb128 0x1
	.byte	0x51
	.byte	0x9f
	.4byte	.LVL36
	.4byte	.LVL38
	.2byte	0x1
	.byte	0x54
	.4byte	.LVL38
	.4byte	.LFE22
	.2byte	0x4
	.byte	0xf3
	.uleb128 0x1
	.byte	0x51
	.byte	0x9f
	.4byte	0
	.4byte	0
.LVUS4:
	.uleb128 0
	.uleb128 .LVU28
	.uleb128 .LVU28
	.uleb128 0
.LLST4:
	.4byte	.LVL8
	.4byte	.LVL10
	.2byte	0x1
	.byte	0x52
	.4byte	.LVL10
	.4byte	.LFE22
	.2byte	0x1
	.byte	0x57
	.4byte	0
	.4byte	0
.LVUS5:
	.uleb128 0
	.uleb128 .LVU30
	.uleb128 .LVU30
	.uleb128 0
.LLST5:
	.4byte	.LVL8
	.4byte	.LVL12
	.2byte	0x1
	.byte	0x53
	.4byte	.LVL12
	.4byte	.LFE22
	.2byte	0x1
	.byte	0x56
	.4byte	0
	.4byte	0
.LVUS6:
	.uleb128 .LVU29
	.uleb128 .LVU89
	.uleb128 .LVU89
	.uleb128 .LVU92
	.uleb128 .LVU92
	.uleb128 .LVU116
	.uleb128 .LVU116
	.uleb128 .LVU118
	.uleb128 .LVU118
	.uleb128 0
.LLST6:
	.4byte	.LVL11
	.4byte	.LVL28
	.2byte	0x1
	.byte	0x55
	.4byte	.LVL28
	.4byte	.LVL29
	.2byte	0x4
	.byte	0xf3
	.uleb128 0x1
	.byte	0x50
	.byte	0x9f
	.4byte	.LVL29
	.4byte	.LVL40
	.2byte	0x1
	.byte	0x55
	.4byte	.LVL40
	.4byte	.LVL42
	.2byte	0x4
	.byte	0xf3
	.uleb128 0x1
	.byte	0x50
	.byte	0x9f
	.4byte	.LVL42
	.4byte	.LFE22
	.2byte	0x1
	.byte	0x55
	.4byte	0
	.4byte	0
.LVUS7:
	.uleb128 .LVU32
	.uleb128 .LVU41
	.uleb128 .LVU42
	.uleb128 .LVU48
	.uleb128 .LVU106
	.uleb128 .LVU108
	.uleb128 .LVU133
	.uleb128 .LVU134
.LLST7:
	.4byte	.LVL13
	.4byte	.LVL14
	.2byte	0x2
	.byte	0x79
	.sleb128 0
	.4byte	.LVL15
	.4byte	.LVL17-1
	.2byte	0x2
	.byte	0x79
	.sleb128 0
	.4byte	.LVL36
	.4byte	.LVL37-1
	.2byte	0x2
	.byte	0x79
	.sleb128 0
	.4byte	.LVL45
	.4byte	.LVL46-1
	.2byte	0x2
	.byte	0x79
	.sleb128 0
	.4byte	0
	.4byte	0
.LVUS8:
	.uleb128 .LVU80
	.uleb128 .LVU83
	.uleb128 .LVU110
	.uleb128 .LVU118
	.uleb128 .LVU130
	.uleb128 .LVU133
.LLST8:
	.4byte	.LVL26
	.4byte	.LVL27
	.2byte	0x1
	.byte	0x54
	.4byte	.LVL38
	.4byte	.LVL42
	.2byte	0x1
	.byte	0x54
	.4byte	.LVL44
	.4byte	.LVL45
	.2byte	0x2
	.byte	0x30
	.byte	0x9f
	.4byte	0
	.4byte	0
.LVUS9:
	.uleb128 .LVU34
	.uleb128 .LVU41
	.uleb128 .LVU42
	.uleb128 .LVU89
	.uleb128 .LVU89
	.uleb128 .LVU92
	.uleb128 .LVU92
	.uleb128 .LVU140
	.uleb128 .LVU140
	.uleb128 0
.LLST9:
	.4byte	.LVL13
	.4byte	.LVL14
	.2byte	0x2
	.byte	0x30
	.byte	0x9f
	.4byte	.LVL15
	.4byte	.LVL28
	.2byte	0x2
	.byte	0x30
	.byte	0x9f
	.4byte	.LVL28
	.4byte	.LVL29
	.2byte	0x1
	.byte	0x50
	.4byte	.LVL29
	.4byte	.LVL47
	.2byte	0x2
	.byte	0x30
	.byte	0x9f
	.4byte	.LVL47
	.4byte	.LFE22
	.2byte	0x3
	.byte	0x9
	.byte	0xff
	.byte	0x9f
	.4byte	0
	.4byte	0
.LVUS10:
	.uleb128 .LVU50
	.uleb128 .LVU80
	.uleb128 .LVU92
	.uleb128 .LVU106
	.uleb128 .LVU118
	.uleb128 .LVU130
.LLST10:
	.4byte	.LVL17
	.4byte	.LVL26
	.2byte	0x2
	.byte	0x30
	.byte	0x9f
	.4byte	.LVL29
	.4byte	.LVL36
	.2byte	0x2
	.byte	0x30
	.byte	0x9f
	.4byte	.LVL42
	.4byte	.LVL44
	.2byte	0x2
	.byte	0x30
	.byte	0x9f
	.4byte	0
	.4byte	0
.LVUS11:
	.uleb128 .LVU49
	.uleb128 .LVU80
	.uleb128 .LVU92
	.uleb128 .LVU106
	.uleb128 .LVU118
	.uleb128 .LVU130
.LLST11:
	.4byte	.LVL17
	.4byte	.LVL26
	.2byte	0x1
	.byte	0x56
	.4byte	.LVL29
	.4byte	.LVL36
	.2byte	0x1
	.byte	0x56
	.4byte	.LVL42
	.4byte	.LVL44
	.2byte	0x1
	.byte	0x56
	.4byte	0
	.4byte	0
.LVUS12:
	.uleb128 .LVU49
	.uleb128 .LVU80
	.uleb128 .LVU92
	.uleb128 .LVU106
	.uleb128 .LVU118
	.uleb128 .LVU130
.LLST12:
	.4byte	.LVL17
	.4byte	.LVL26
	.2byte	0x1
	.byte	0x57
	.4byte	.LVL29
	.4byte	.LVL36
	.2byte	0x1
	.byte	0x57
	.4byte	.LVL42
	.4byte	.LVL44
	.2byte	0x1
	.byte	0x57
	.4byte	0
	.4byte	0
.LVUS13:
	.uleb128 .LVU49
	.uleb128 .LVU80
	.uleb128 .LVU92
	.uleb128 .LVU106
	.uleb128 .LVU118
	.uleb128 .LVU130
.LLST13:
	.4byte	.LVL17
	.4byte	.LVL26
	.2byte	0x1
	.byte	0x55
	.4byte	.LVL29
	.4byte	.LVL36
	.2byte	0x1
	.byte	0x55
	.4byte	.LVL42
	.4byte	.LVL44
	.2byte	0x1
	.byte	0x55
	.4byte	0
	.4byte	0
.LVUS14:
	.uleb128 .LVU52
	.uleb128 .LVU59
	.uleb128 .LVU59
	.uleb128 .LVU70
	.uleb128 .LVU71
	.uleb128 .LVU80
	.uleb128 .LVU92
	.uleb128 .LVU97
	.uleb128 .LVU97
	.uleb128 .LVU106
	.uleb128 .LVU118
	.uleb128 .LVU125
	.uleb128 .LVU125
	.uleb128 .LVU130
.LLST14:
	.4byte	.LVL18
	.4byte	.LVL19
	.2byte	0x2
	.byte	0x30
	.byte	0x9f
	.4byte	.LVL19
	.4byte	.LVL23
	.2byte	0x1
	.byte	0x54
	.4byte	.LVL23
	.4byte	.LVL26
	.2byte	0x1
	.byte	0x54
	.4byte	.LVL29
	.4byte	.LVL31
	.2byte	0x2
	.byte	0x30
	.byte	0x9f
	.4byte	.LVL31
	.4byte	.LVL36
	.2byte	0x1
	.byte	0x54
	.4byte	.LVL42
	.4byte	.LVL43
	.2byte	0x1
	.byte	0x54
	.4byte	.LVL43
	.4byte	.LVL44
	.2byte	0x2
	.byte	0x30
	.byte	0x9f
	.4byte	0
	.4byte	0
.LVUS15:
	.uleb128 .LVU59
	.uleb128 .LVU60
	.uleb128 .LVU60
	.uleb128 .LVU61
	.uleb128 .LVU72
	.uleb128 .LVU73
	.uleb128 .LVU73
	.uleb128 .LVU77
	.uleb128 .LVU97
	.uleb128 .LVU98
	.uleb128 .LVU100
	.uleb128 .LVU102
	.uleb128 .LVU102
	.uleb128 .LVU103
	.uleb128 .LVU103
	.uleb128 .LVU106
.LLST15:
	.4byte	.LVL19
	.4byte	.LVL20
	.2byte	0x16
	.byte	0x72
	.sleb128 0
	.byte	0x12
	.byte	0x40
	.byte	0x4b
	.byte	0x24
	.byte	0x22
	.byte	0x7c
	.sleb128 0
	.byte	0x16
	.byte	0x14
	.byte	0x40
	.byte	0x4b
	.byte	0x24
	.byte	0x22
	.byte	0x2d
	.byte	0x28
	.2byte	0x1
	.byte	0x16
	.byte	0x13
	.byte	0x9f
	.4byte	.LVL20
	.4byte	.LVL21-1
	.2byte	0x19
	.byte	0x78
	.sleb128 0
	.byte	0x74
	.sleb128 0
	.byte	0x1c
	.byte	0x12
	.byte	0x40
	.byte	0x4b
	.byte	0x24
	.byte	0x22
	.byte	0x7c
	.sleb128 0
	.byte	0x16
	.byte	0x14
	.byte	0x40
	.byte	0x4b
	.byte	0x24
	.byte	0x22
	.byte	0x2d
	.byte	0x28
	.2byte	0x1
	.byte	0x16
	.byte	0x13
	.byte	0x9f
	.4byte	.LVL24
	.4byte	.LVL24
	.2byte	0x1
	.byte	0x52
	.4byte	.LVL24
	.4byte	.LVL25
	.2byte	0x16
	.byte	0x72
	.sleb128 0
	.byte	0x12
	.byte	0x40
	.byte	0x4b
	.byte	0x24
	.byte	0x22
	.byte	0x7c
	.sleb128 0
	.byte	0x16
	.byte	0x14
	.byte	0x40
	.byte	0x4b
	.byte	0x24
	.byte	0x22
	.byte	0x2d
	.byte	0x28
	.2byte	0x1
	.byte	0x16
	.byte	0x13
	.byte	0x9f
	.4byte	.LVL31
	.4byte	.LVL32
	.2byte	0x6
	.byte	0x78
	.sleb128 0
	.byte	0x74
	.sleb128 0
	.byte	0x1c
	.byte	0x9f
	.4byte	.LVL33
	.4byte	.LVL34
	.2byte	0x6
	.byte	0x78
	.sleb128 0
	.byte	0x74
	.sleb128 0
	.byte	0x1c
	.byte	0x9f
	.4byte	.LVL34
	.4byte	.LVL35-1
	.2byte	0x1
	.byte	0x52
	.4byte	.LVL35-1
	.4byte	.LVL36
	.2byte	0x6
	.byte	0x78
	.sleb128 0
	.byte	0x74
	.sleb128 0
	.byte	0x1c
	.byte	0x9f
	.4byte	0
	.4byte	0
.LVUS16:
	.uleb128 .LVU62
	.uleb128 .LVU70
	.uleb128 .LVU97
	.uleb128 .LVU99
	.uleb128 .LVU104
	.uleb128 .LVU106
	.uleb128 .LVU118
	.uleb128 .LVU125
.LLST16:
	.4byte	.LVL21
	.4byte	.LVL23
	.2byte	0x1
	.byte	0x50
	.4byte	.LVL31
	.4byte	.LVL33
	.2byte	0x1
	.byte	0x50
	.4byte	.LVL35
	.4byte	.LVL36
	.2byte	0x1
	.byte	0x50
	.4byte	.LVL42
	.4byte	.LVL43
	.2byte	0x1
	.byte	0x50
	.4byte	0
	.4byte	0
.LVUS17:
	.uleb128 0
	.uleb128 .LVU147
	.uleb128 .LVU147
	.uleb128 0
.LLST17:
	.4byte	.LVL48
	.4byte	.LVL49
	.2byte	0x1
	.byte	0x50
	.4byte	.LVL49
	.4byte	.LFE20
	.2byte	0x1
	.byte	0x57
	.4byte	0
	.4byte	0
.LVUS18:
	.uleb128 0
	.uleb128 .LVU151
	.uleb128 .LVU151
	.uleb128 0
.LLST18:
	.4byte	.LVL48
	.4byte	.LVL50-1
	.2byte	0x1
	.byte	0x51
	.4byte	.LVL50-1
	.4byte	.LFE20
	.2byte	0x1
	.byte	0x58
	.4byte	0
	.4byte	0
.LVUS19:
	.uleb128 0
	.uleb128 .LVU151
	.uleb128 .LVU151
	.uleb128 0
.LLST19:
	.4byte	.LVL48
	.4byte	.LVL50-1
	.2byte	0x1
	.byte	0x52
	.4byte	.LVL50-1
	.4byte	.LFE20
	.2byte	0x1
	.byte	0x54
	.4byte	0
	.4byte	0
.LVUS20:
	.uleb128 0
	.uleb128 .LVU151
	.uleb128 .LVU151
	.uleb128 0
.LLST20:
	.4byte	.LVL48
	.4byte	.LVL50-1
	.2byte	0x1
	.byte	0x53
	.4byte	.LVL50-1
	.4byte	.LFE20
	.2byte	0x1
	.byte	0x55
	.4byte	0
	.4byte	0
.LVUS21:
	.uleb128 .LVU172
	.uleb128 .LVU240
	.uleb128 .LVU241
	.uleb128 .LVU305
.LLST21:
	.4byte	.LVL52
	.4byte	.LVL75
	.2byte	0x2
	.byte	0x32
	.byte	0x9f
	.4byte	.LVL76
	.4byte	.LVL94
	.2byte	0x2
	.byte	0x32
	.byte	0x9f
	.4byte	0
	.4byte	0
.LVUS22:
	.uleb128 .LVU218
	.uleb128 .LVU234
	.uleb128 .LVU241
	.uleb128 .LVU269
.LLST22:
	.4byte	.LVL70
	.4byte	.LVL73
	.2byte	0x4
	.byte	0x91
	.sleb128 -72
	.byte	0x9f
	.4byte	.LVL76
	.4byte	.LVL81
	.2byte	0x4
	.byte	0x91
	.sleb128 -72
	.byte	0x9f
	.4byte	0
	.4byte	0
.LVUS23:
	.uleb128 .LVU156
	.uleb128 .LVU195
	.uleb128 .LVU195
	.uleb128 .LVU198
	.uleb128 .LVU198
	.uleb128 .LVU225
	.uleb128 .LVU231
	.uleb128 .LVU234
	.uleb128 .LVU234
	.uleb128 .LVU237
	.uleb128 .LVU237
	.uleb128 .LVU240
	.uleb128 .LVU241
	.uleb128 .LVU268
	.uleb128 .LVU269
	.uleb128 .LVU270
	.uleb128 .LVU270
	.uleb128 .LVU271
	.uleb128 .LVU277
	.uleb128 .LVU280
	.uleb128 .LVU280
	.uleb128 .LVU283
	.uleb128 .LVU283
	.uleb128 .LVU305
	.uleb128 .LVU305
	.uleb128 0
.LLST23:
	.4byte	.LVL50
	.4byte	.LVL59
	.2byte	0x2
	.byte	0x30
	.byte	0x9f
	.4byte	.LVL59
	.4byte	.LVL60
	.2byte	0x1
	.byte	0x50
	.4byte	.LVL60
	.4byte	.LVL71
	.2byte	0x1
	.byte	0x56
	.4byte	.LVL72
	.4byte	.LVL73
	.2byte	0x6
	.byte	0xc
	.4byte	0x2000013
	.byte	0x9f
	.4byte	.LVL73
	.4byte	.LVL74
	.2byte	0x2
	.byte	0x30
	.byte	0x9f
	.4byte	.LVL74
	.4byte	.LVL75
	.2byte	0x1
	.byte	0x56
	.4byte	.LVL76
	.4byte	.LVL80
	.2byte	0x1
	.byte	0x56
	.4byte	.LVL81
	.4byte	.LVL82
	.2byte	0x1
	.byte	0x50
	.4byte	.LVL82
	.4byte	.LVL83
	.2byte	0x1
	.byte	0x56
	.4byte	.LVL84
	.4byte	.LVL85
	.2byte	0x6
	.byte	0xc
	.4byte	0x200000e
	.byte	0x9f
	.4byte	.LVL85
	.4byte	.LVL86
	.2byte	0x2
	.byte	0x30
	.byte	0x9f
	.4byte	.LVL86
	.4byte	.LVL94
	.2byte	0x1
	.byte	0x56
	.4byte	.LVL94
	.4byte	.LFE20
	.2byte	0x2
	.byte	0x30
	.byte	0x9f
	.4byte	0
	.4byte	0
.LVUS24:
	.uleb128 .LVU212
	.uleb128 .LVU214
	.uleb128 .LVU301
	.uleb128 .LVU303
.LLST24:
	.4byte	.LVL66
	.4byte	.LVL67
	.2byte	0x1
	.byte	0x50
	.4byte	.LVL92
	.4byte	.LVL93
	.2byte	0x1
	.byte	0x50
	.4byte	0
	.4byte	0
.LVUS25:
	.uleb128 .LVU202
	.uleb128 .LVU205
	.uleb128 .LVU205
	.uleb128 .LVU206
	.uleb128 .LVU206
	.uleb128 .LVU215
	.uleb128 .LVU285
	.uleb128 .LVU287
	.uleb128 .LVU287
	.uleb128 .LVU290
	.uleb128 .LVU290
	.uleb128 .LVU291
	.uleb128 .LVU291
	.uleb128 .LVU296
	.uleb128 .LVU297
	.uleb128 .LVU305
.LLST25:
	.4byte	.LVL62
	.4byte	.LVL64
	.2byte	0x8
	.byte	0x7a
	.sleb128 0
	.byte	0x91
	.sleb128 -4
	.byte	0x1c
	.byte	0x23
	.uleb128 0x45
	.byte	0x9f
	.4byte	.LVL64
	.4byte	.LVL64
	.2byte	0x8
	.byte	0x7a
	.sleb128 0
	.byte	0x91
	.sleb128 -4
	.byte	0x1c
	.byte	0x23
	.uleb128 0x44
	.byte	0x9f
	.4byte	.LVL64
	.4byte	.LVL68
	.2byte	0x8
	.byte	0x7a
	.sleb128 0
	.byte	0x91
	.sleb128 -4
	.byte	0x1c
	.byte	0x23
	.uleb128 0x45
	.byte	0x9f
	.4byte	.LVL87
	.4byte	.LVL88
	.2byte	0x2
	.byte	0x30
	.byte	0x9f
	.4byte	.LVL88
	.4byte	.LVL90
	.2byte	0x8
	.byte	0x7a
	.sleb128 0
	.byte	0x91
	.sleb128 -4
	.byte	0x1c
	.byte	0x23
	.uleb128 0x45
	.byte	0x9f
	.4byte	.LVL90
	.4byte	.LVL90
	.2byte	0x8
	.byte	0x7a
	.sleb128 0
	.byte	0x91
	.sleb128 -4
	.byte	0x1c
	.byte	0x23
	.uleb128 0x44
	.byte	0x9f
	.4byte	.LVL90
	.4byte	.LVL91
	.2byte	0x8
	.byte	0x7a
	.sleb128 0
	.byte	0x91
	.sleb128 -4
	.byte	0x1c
	.byte	0x23
	.uleb128 0x45
	.byte	0x9f
	.4byte	.LVL91
	.4byte	.LVL94
	.2byte	0x8
	.byte	0x7a
	.sleb128 0
	.byte	0x91
	.sleb128 -4
	.byte	0x1c
	.byte	0x23
	.uleb128 0x45
	.byte	0x9f
	.4byte	0
	.4byte	0
.LVUS26:
	.uleb128 .LVU174
	.uleb128 .LVU240
	.uleb128 .LVU241
	.uleb128 .LVU305
.LLST26:
	.4byte	.LVL53
	.4byte	.LVL75
	.2byte	0x2
	.byte	0x38
	.byte	0x9f
	.4byte	.LVL76
	.4byte	.LVL94
	.2byte	0x2
	.byte	0x38
	.byte	0x9f
	.4byte	0
	.4byte	0
.LVUS27:
	.uleb128 .LVU178
	.uleb128 .LVU234
	.uleb128 .LVU241
	.uleb128 .LVU305
.LLST27:
	.4byte	.LVL54
	.4byte	.LVL73
	.2byte	0x2
	.byte	0x38
	.byte	0x9f
	.4byte	.LVL76
	.4byte	.LVL94
	.2byte	0x2
	.byte	0x38
	.byte	0x9f
	.4byte	0
	.4byte	0
.LVUS0:
	.uleb128 0
	.uleb128 .LVU5
	.uleb128 .LVU5
	.uleb128 .LVU19
	.uleb128 .LVU19
	.uleb128 .LVU20
	.uleb128 .LVU20
	.uleb128 0
.LLST0:
	.4byte	.LVL0
	.4byte	.LVL1
	.2byte	0x1
	.byte	0x50
	.4byte	.LVL1
	.4byte	.LVL6
	.2byte	0x1
	.byte	0x54
	.4byte	.LVL6
	.4byte	.LVL7-1
	.2byte	0x1
	.byte	0x50
	.4byte	.LVL7-1
	.4byte	.LFE19
	.2byte	0x4
	.byte	0xf3
	.uleb128 0x1
	.byte	0x50
	.byte	0x9f
	.4byte	0
	.4byte	0
.LVUS1:
	.uleb128 .LVU9
	.uleb128 .LVU19
	.uleb128 .LVU19
	.uleb128 .LVU20
	.uleb128 .LVU20
	.uleb128 0
.LLST1:
	.4byte	.LVL3
	.4byte	.LVL6
	.2byte	0x1
	.byte	0x54
	.4byte	.LVL6
	.4byte	.LVL7-1
	.2byte	0x1
	.byte	0x50
	.4byte	.LVL7-1
	.4byte	.LFE19
	.2byte	0x4
	.byte	0xf3
	.uleb128 0x1
	.byte	0x50
	.byte	0x9f
	.4byte	0
	.4byte	0
	.section	.debug_aranges,"",%progbits
	.4byte	0x2c
	.2byte	0x2
	.4byte	.Ldebug_info0
	.byte	0x4
	.byte	0
	.2byte	0
	.2byte	0
	.4byte	.LFB19
	.4byte	.LFE19-.LFB19
	.4byte	.LFB22
	.4byte	.LFE22-.LFB22
	.4byte	.LFB20
	.4byte	.LFE20-.LFB20
	.4byte	0
	.4byte	0
	.section	.debug_ranges,"",%progbits
.Ldebug_ranges0:
	.4byte	.LBB41
	.4byte	.LBE41
	.4byte	.LBB44
	.4byte	.LBE44
	.4byte	0
	.4byte	0
	.4byte	.LBB48
	.4byte	.LBE48
	.4byte	.LBB52
	.4byte	.LBE52
	.4byte	.LBB54
	.4byte	.LBE54
	.4byte	0
	.4byte	0
	.4byte	.LBB55
	.4byte	.LBE55
	.4byte	.LBB56
	.4byte	.LBE56
	.4byte	.LBB57
	.4byte	.LBE57
	.4byte	.LBB59
	.4byte	.LBE59
	.4byte	.LBB60
	.4byte	.LBE60
	.4byte	.LBB61
	.4byte	.LBE61
	.4byte	.LBB62
	.4byte	.LBE62
	.4byte	.LBB63
	.4byte	.LBE63
	.4byte	0
	.4byte	0
	.4byte	.LFB19
	.4byte	.LFE19
	.4byte	.LFB22
	.4byte	.LFE22
	.4byte	.LFB20
	.4byte	.LFE20
	.4byte	0
	.4byte	0
	.section	.debug_line,"",%progbits
.Ldebug_line0:
	.section	.debug_str,"MS",%progbits,1
.LASF401:
	.ascii	"GPG_ERR_LDAP_NO_MEMORY\000"
.LASF848:
	.ascii	"total\000"
.LASF662:
	.ascii	"IOBUFCTRL_UNDERFLOW\000"
.LASF208:
	.ascii	"GPG_ERR_INV_CRL\000"
.LASF251:
	.ascii	"GPG_ERR_NOT_OPERATIONAL\000"
.LASF31:
	.ascii	"KEYDB_HANDLE\000"
.LASF343:
	.ascii	"GPG_ERR_ASS_WRITE_ERROR\000"
.LASF708:
	.ascii	"GCRY_CIPHER_MODE_CTR\000"
.LASF155:
	.ascii	"GPG_ERR_ASSUAN_SERVER_FAULT\000"
.LASF835:
	.ascii	"STATUS_INQUIRE_MAXLEN\000"
.LASF276:
	.ascii	"GPG_ERR_SEXP_INV_LEN_SPEC\000"
.LASF498:
	.ascii	"GPG_ERR_SQL_EMPTY\000"
.LASF516:
	.ascii	"GPG_ERR_E2BIG\000"
.LASF840:
	.ascii	"startiv\000"
.LASF242:
	.ascii	"GPG_ERR_NOT_LOCKED\000"
.LASF236:
	.ascii	"GPG_ERR_INV_TIME\000"
.LASF47:
	.ascii	"server_local_s\000"
.LASF754:
	.ascii	"STATUS_NO_SECKEY\000"
.LASF272:
	.ascii	"GPG_ERR_MAC_ALGO\000"
.LASF467:
	.ascii	"GPG_ERR_USER_2\000"
.LASF314:
	.ascii	"GPG_ERR_BAD_HS_CERT_VER\000"
.LASF219:
	.ascii	"GPG_ERR_INV_CMS_OBJ\000"
.LASF654:
	.ascii	"GPG_ERR_EWOULDBLOCK\000"
.LASF724:
	.ascii	"GCRY_CIPHER_EXTENDED\000"
.LASF571:
	.ascii	"GPG_ERR_EL3HLT\000"
.LASF882:
	.ascii	"cipher_sync\000"
.LASF472:
	.ascii	"GPG_ERR_USER_7\000"
.LASF450:
	.ascii	"GPG_ERR_LDAP_NO_OBJ_CLASS_MODS\000"
.LASF465:
	.ascii	"GPG_ERR_LDAP_PROX_AUTH_DENIED\000"
.LASF695:
	.ascii	"s2k_cacheid\000"
.LASF630:
	.ascii	"GPG_ERR_EPROTO\000"
.LASF49:
	.ascii	"GPG_ERR_SOURCE_UNKNOWN\000"
.LASF100:
	.ascii	"GPG_ERR_INV_ATTR\000"
.LASF350:
	.ascii	"GPG_ERR_ASS_NO_OUTPUT\000"
.LASF715:
	.ascii	"GCRY_CIPHER_MODE_XTS\000"
.LASF327:
	.ascii	"GPG_ERR_TRUE\000"
.LASF288:
	.ascii	"GPG_ERR_SEXP_BAD_OCT_CHAR\000"
.LASF578:
	.ascii	"GPG_ERR_ELNRNG\000"
.LASF500:
	.ascii	"GPG_ERR_SQL_TOOBIG\000"
.LASF841:
	.ascii	"holdback\000"
.LASF303:
	.ascii	"GPG_ERR_COMPR_FAILED\000"
.LASF211:
	.ascii	"GPG_ERR_ELEMENT_NOT_FOUND\000"
.LASF451:
	.ascii	"GPG_ERR_LDAP_RESULTS_TOO_LARGE\000"
.LASF409:
	.ascii	"GPG_ERR_LDAP_LOCAL\000"
.LASF453:
	.ascii	"GPG_ERR_LDAP_VLV\000"
.LASF198:
	.ascii	"GPG_ERR_CARD_NOT_INITIALIZED\000"
.LASF145:
	.ascii	"GPG_ERR_CONFLICT\000"
.LASF296:
	.ascii	"GPG_ERR_REQUEST_TOO_LONG\000"
.LASF685:
	.ascii	"subno\000"
.LASF808:
	.ascii	"STATUS_SIG_SUBPACKET\000"
.LASF270:
	.ascii	"GPG_ERR_BROKEN_PUBKEY\000"
.LASF725:
	.ascii	"gcry_md_context\000"
.LASF25:
	.ascii	"u_iv\000"
.LASF891:
	.ascii	"decrypt_data\000"
.LASF697:
	.ascii	"gcry_md_handle\000"
.LASF441:
	.ascii	"GPG_ERR_LDAP_BUSY\000"
.LASF382:
	.ascii	"GPG_ERR_DNS_CLOSED\000"
.LASF883:
	.ascii	"xtrycalloc\000"
.LASF287:
	.ascii	"GPG_ERR_SEXP_ODD_HEX_NUMBERS\000"
.LASF646:
	.ascii	"GPG_ERR_ESTRPIPE\000"
.LASF621:
	.ascii	"GPG_ERR_EOPNOTSUPP\000"
.LASF42:
	.ascii	"tofu\000"
.LASF173:
	.ascii	"GPG_ERR_NOT_TRUSTED\000"
.LASF14:
	.ascii	"__off_t\000"
.LASF739:
	.ascii	"STATUS_BADSIG\000"
.LASF420:
	.ascii	"GPG_ERR_LDAP_PARTIAL_RESULTS\000"
.LASF90:
	.ascii	"GPG_ERR_INV_ARMOR\000"
.LASF175:
	.ascii	"GPG_ERR_BAD_CA_CERT\000"
.LASF567:
	.ascii	"GPG_ERR_EISDIR\000"
.LASF193:
	.ascii	"GPG_ERR_INV_ID\000"
.LASF104:
	.ascii	"GPG_ERR_SYNTAX\000"
.LASF653:
	.ascii	"GPG_ERR_EUSERS\000"
.LASF747:
	.ascii	"STATUS_NEED_PASSPHRASE\000"
.LASF775:
	.ascii	"STATUS_BEGIN_DECRYPTION\000"
.LASF691:
	.ascii	"algo_info_printed\000"
.LASF168:
	.ascii	"GPG_ERR_DIRMNGR\000"
.LASF112:
	.ascii	"GPG_ERR_INV_USER_ID\000"
.LASF253:
	.ascii	"GPG_ERR_NO_PIN\000"
.LASF408:
	.ascii	"GPG_ERR_LDAP_ENCODING\000"
.LASF793:
	.ascii	"STATUS_USERID_HINT\000"
.LASF859:
	.ascii	"procctx\000"
.LASF429:
	.ascii	"GPG_ERR_LDAP_CONST_VIOLATION\000"
.LASF299:
	.ascii	"GPG_ERR_CERT_TOO_LARGE\000"
.LASF223:
	.ascii	"GPG_ERR_UNSUPPORTED_CMS_VERSION\000"
.LASF294:
	.ascii	"GPG_ERR_LEGACY_KEY\000"
.LASF887:
	.ascii	"GNU C17 10.3.1 20210621 (release) -mcpu=cortex-a7 -"
	.ascii	"mfloat-abi=soft -marm -march=armv7ve -g -O2 -fpic -"
	.ascii	"ffreestanding -ffunction-sections -fdata-sections -"
	.ascii	"fno-common\000"
.LASF790:
	.ascii	"STATUS_NOTATION_DATA\000"
.LASF721:
	.ascii	"GCRY_CIPHER_ENABLE_SYNC\000"
.LASF400:
	.ascii	"GPG_ERR_LDAP_CONNECT\000"
.LASF273:
	.ascii	"GPG_ERR_FULLY_CANCELED\000"
.LASF756:
	.ascii	"STATUS_DECRYPTION_KEY\000"
.LASF572:
	.ascii	"GPG_ERR_EL3RST\000"
.LASF379:
	.ascii	"GPG_ERR_DNS_ADDRESS\000"
.LASF68:
	.ascii	"GPG_ERR_SOURCE_ANY\000"
.LASF337:
	.ascii	"GPG_ERR_ASS_NO_DATA_CB\000"
.LASF612:
	.ascii	"GPG_ERR_ENOTCONN\000"
.LASF873:
	.ascii	"gpg_err_make\000"
.LASF711:
	.ascii	"GCRY_CIPHER_MODE_GCM\000"
.LASF858:
	.ascii	"ctrl\000"
.LASF146:
	.ascii	"GPG_ERR_INV_CIPHER_MODE\000"
.LASF640:
	.ascii	"GPG_ERR_ESHUTDOWN\000"
.LASF843:
	.ascii	"partial\000"
.LASF816:
	.ascii	"STATUS_BACKUP_KEY_CREATED\000"
.LASF224:
	.ascii	"GPG_ERR_UNKNOWN_ALGORITHM\000"
.LASF884:
	.ascii	"iobuf_push_filter\000"
.LASF745:
	.ascii	"STATUS_TRUST_FULLY\000"
.LASF624:
	.ascii	"GPG_ERR_EPFNOSUPPORT\000"
.LASF347:
	.ascii	"GPG_ERR_ASS_SYNTAX\000"
.LASF466:
	.ascii	"GPG_ERR_USER_1\000"
.LASF419:
	.ascii	"GPG_ERR_LDAP_STRONG_AUTH_RQRD\000"
.LASF468:
	.ascii	"GPG_ERR_USER_3\000"
.LASF469:
	.ascii	"GPG_ERR_USER_4\000"
.LASF470:
	.ascii	"GPG_ERR_USER_5\000"
.LASF471:
	.ascii	"GPG_ERR_USER_6\000"
.LASF317:
	.ascii	"GPG_ERR_BAD_HS_SERVER_HELLO\000"
.LASF473:
	.ascii	"GPG_ERR_USER_8\000"
.LASF474:
	.ascii	"GPG_ERR_USER_9\000"
.LASF133:
	.ascii	"GPG_ERR_NO_DATA\000"
.LASF311:
	.ascii	"GPG_ERR_UNKNOWN_IDENTITY\000"
.LASF186:
	.ascii	"GPG_ERR_INV_CARD\000"
.LASF372:
	.ascii	"GPG_ERR_SERVICE\000"
.LASF278:
	.ascii	"GPG_ERR_SEXP_UNMATCHED_PAREN\000"
.LASF507:
	.ascii	"GPG_ERR_SQL_RANGE\000"
.LASF486:
	.ascii	"GPG_ERR_SQL_ABORT\000"
.LASF795:
	.ascii	"STATUS_INV_RECP\000"
.LASF569:
	.ascii	"GPG_ERR_EL2HLT\000"
.LASF148:
	.ascii	"GPG_ERR_INV_HANDLE\000"
.LASF874:
	.ascii	"source\000"
.LASF197:
	.ascii	"GPG_ERR_BAD_PIN_METHOD\000"
.LASF305:
	.ascii	"GPG_ERR_FATAL_ALERT\000"
.LASF818:
	.ascii	"STATUS_PKA_TRUST_GOOD\000"
.LASF169:
	.ascii	"GPG_ERR_CERT_REVOKED\000"
.LASF29:
	.ascii	"gcry_cipher_hd_t\000"
.LASF861:
	.ascii	"compliance_error\000"
.LASF249:
	.ascii	"GPG_ERR_UNKNOWN_OPTION\000"
.LASF183:
	.ascii	"GPG_ERR_CARD\000"
.LASF131:
	.ascii	"GPG_ERR_BAD_CERT_CHAIN\000"
.LASF19:
	.ascii	"byte\000"
.LASF682:
	.ascii	"filter_ov_owner\000"
.LASF633:
	.ascii	"GPG_ERR_ERANGE\000"
.LASF787:
	.ascii	"STATUS_SESSION_KEY\000"
.LASF647:
	.ascii	"GPG_ERR_ETIME\000"
.LASF353:
	.ascii	"GPG_ERR_ENGINE_TOO_OLD\000"
.LASF201:
	.ascii	"GPG_ERR_NOTHING_FOUND\000"
.LASF528:
	.ascii	"GPG_ERR_EBADFD\000"
.LASF590:
	.ascii	"GPG_ERR_ENETUNREACH\000"
.LASF416:
	.ascii	"GPG_ERR_LDAP_COMPARE_FALSE\000"
.LASF867:
	.ascii	"_gcry_cipher_decrypt\000"
.LASF349:
	.ascii	"GPG_ERR_ASS_NO_INPUT\000"
.LASF684:
	.ascii	"chain\000"
.LASF160:
	.ascii	"GPG_ERR_NO_PIN_ENTRY\000"
.LASF792:
	.ascii	"STATUS_KEY_CREATED\000"
.LASF677:
	.ascii	"nofast\000"
.LASF302:
	.ascii	"GPG_ERR_UNEXPECTED_MSG\000"
.LASF544:
	.ascii	"GPG_ERR_EDEADLK\000"
.LASF752:
	.ascii	"STATUS_BAD_PASSPHRASE\000"
.LASF103:
	.ascii	"GPG_ERR_VALUE_NOT_FOUND\000"
.LASF396:
	.ascii	"GPG_ERR_LDAP_CLIENT_LOOP\000"
.LASF356:
	.ascii	"GPG_ERR_MISSING_ENVVAR\000"
.LASF243:
	.ascii	"GPG_ERR_PROTOCOL_VIOLATION\000"
.LASF856:
	.ascii	"nread\000"
.LASF601:
	.ascii	"GPG_ERR_ENOMEDIUM\000"
.LASF69:
	.ascii	"GPG_ERR_SOURCE_USER_1\000"
.LASF70:
	.ascii	"GPG_ERR_SOURCE_USER_2\000"
.LASF71:
	.ascii	"GPG_ERR_SOURCE_USER_3\000"
.LASF72:
	.ascii	"GPG_ERR_SOURCE_USER_4\000"
.LASF638:
	.ascii	"GPG_ERR_EROFS\000"
.LASF487:
	.ascii	"GPG_ERR_SQL_BUSY\000"
.LASF868:
	.ascii	"openpgp_cipher_open\000"
.LASF234:
	.ascii	"GPG_ERR_MODULE_NOT_FOUND\000"
.LASF811:
	.ascii	"STATUS_KEY_NOT_CREATED\000"
.LASF301:
	.ascii	"GPG_ERR_BAD_MAC\000"
.LASF663:
	.ascii	"IOBUFCTRL_FLUSH\000"
.LASF269:
	.ascii	"GPG_ERR_CRYPT_CTX_CONFLICT\000"
.LASF209:
	.ascii	"GPG_ERR_BAD_BER\000"
.LASF649:
	.ascii	"GPG_ERR_ETOOMANYREFS\000"
.LASF373:
	.ascii	"GPG_ERR_BAD_PUK\000"
.LASF136:
	.ascii	"GPG_ERR_INV_OP\000"
.LASF729:
	.ascii	"mdc_method\000"
.LASF455:
	.ascii	"GPG_ERR_LDAP_CUP_RESOURCE_LIMIT\000"
.LASF126:
	.ascii	"GPG_ERR_NOT_ENCRYPTED\000"
.LASF459:
	.ascii	"GPG_ERR_LDAP_CUP_RELOAD\000"
.LASF439:
	.ascii	"GPG_ERR_LDAP_INV_CREDENTIALS\000"
.LASF735:
	.ascii	"STATUS_LEAVE\000"
.LASF176:
	.ascii	"GPG_ERR_CERT_EXPIRED\000"
.LASF536:
	.ascii	"GPG_ERR_ECANCELED\000"
.LASF627:
	.ascii	"GPG_ERR_EPROCUNAVAIL\000"
.LASF214:
	.ascii	"GPG_ERR_INV_LENGTH\000"
.LASF43:
	.ascii	"cached_getkey_kdb\000"
.LASF284:
	.ascii	"GPG_ERR_SEXP_UNMATCHED_DH\000"
.LASF109:
	.ascii	"GPG_ERR_INV_KEYRING\000"
.LASF681:
	.ascii	"filter_ov\000"
.LASF689:
	.ascii	"algo\000"
.LASF376:
	.ascii	"GPG_ERR_SYSTEM_BUG\000"
.LASF656:
	.ascii	"GPG_ERR_EXFULL\000"
.LASF614:
	.ascii	"GPG_ERR_ENOTEMPTY\000"
.LASF63:
	.ascii	"GPG_ERR_SOURCE_G13\000"
.LASF151:
	.ascii	"GPG_ERR_INV_RESPONSE\000"
.LASF879:
	.ascii	"_gcry_cipher_setkey\000"
.LASF167:
	.ascii	"GPG_ERR_NO_DIRMNGR\000"
.LASF215:
	.ascii	"GPG_ERR_INV_KEYINFO\000"
.LASF318:
	.ascii	"GPG_ERR_BAD_HS_SERVER_HELLO_DONE\000"
.LASF669:
	.ascii	"IOBUF_INPUT_TEMP\000"
.LASF780:
	.ascii	"STATUS_DELETE_PROBLEM\000"
.LASF781:
	.ascii	"STATUS_GET_BOOL\000"
.LASF388:
	.ascii	"GPG_ERR_LDAP_SECURITY_GENERAL\000"
.LASF762:
	.ascii	"STATUS_GOODMDC\000"
.LASF95:
	.ascii	"GPG_ERR_COMPR_ALGO\000"
.LASF628:
	.ascii	"GPG_ERR_EPROGMISMATCH\000"
.LASF265:
	.ascii	"GPG_ERR_AMBIGUOUS\000"
.LASF857:
	.ascii	"curr\000"
.LASF541:
	.ascii	"GPG_ERR_ECONNREFUSED\000"
.LASF326:
	.ascii	"GPG_ERR_INV_LOCK_OBJ\000"
.LASF85:
	.ascii	"GPG_ERR_CHECKSUM\000"
.LASF256:
	.ascii	"GPG_ERR_MISSING_KEY\000"
.LASF799:
	.ascii	"STATUS_KEY_CONSIDERED\000"
.LASF839:
	.ascii	"mdc_hash\000"
.LASF822:
	.ascii	"STATUS_TOFU_STATS_LONG\000"
.LASF207:
	.ascii	"GPG_ERR_PIN_NOT_SYNCED\000"
.LASF182:
	.ascii	"GPG_ERR_AMBIGUOUS_NAME\000"
.LASF768:
	.ascii	"STATUS_IMPORT_RES\000"
.LASF157:
	.ascii	"GPG_ERR_INV_SESSION_KEY\000"
.LASF138:
	.ascii	"GPG_ERR_INTERNAL\000"
.LASF277:
	.ascii	"GPG_ERR_SEXP_STRING_TOO_LONG\000"
.LASF330:
	.ascii	"GPG_ERR_ASS_ACCEPT_FAILED\000"
.LASF546:
	.ascii	"GPG_ERR_EDESTADDRREQ\000"
.LASF812:
	.ascii	"STATUS_NEED_PASSPHRASE_PIN\000"
.LASF540:
	.ascii	"GPG_ERR_ECONNABORTED\000"
.LASF188:
	.ascii	"GPG_ERR_NO_PKCS15_APP\000"
.LASF483:
	.ascii	"GPG_ERR_SQL_ERROR\000"
.LASF206:
	.ascii	"GPG_ERR_USE_CONDITIONS\000"
.LASF598:
	.ascii	"GPG_ERR_ENOEXEC\000"
.LASF845:
	.ascii	"chunksize\000"
.LASF511:
	.ascii	"GPG_ERR_SQL_ROW\000"
.LASF733:
	.ascii	"PKT_encrypted\000"
.LASF786:
	.ascii	"STATUS_SIG_CREATED\000"
.LASF348:
	.ascii	"GPG_ERR_ASS_CANCELED\000"
.LASF878:
	.ascii	"malloc\000"
.LASF1:
	.ascii	"unsigned char\000"
.LASF80:
	.ascii	"GPG_ERR_DIGEST_ALGO\000"
.LASF573:
	.ascii	"GPG_ERR_ELIBACC\000"
.LASF490:
	.ascii	"GPG_ERR_SQL_READONLY\000"
.LASF411:
	.ascii	"GPG_ERR_LDAP_SUCCESS\000"
.LASF425:
	.ascii	"GPG_ERR_LDAP_SASL_BIND_INPROG\000"
.LASF509:
	.ascii	"GPG_ERR_SQL_NOTICE\000"
.LASF737:
	.ascii	"STATUS_CANCELED_BY_USER\000"
.LASF304:
	.ascii	"GPG_ERR_WOULD_WRAP\000"
.LASF20:
	.ascii	"float\000"
.LASF40:
	.ascii	"server_local\000"
.LASF617:
	.ascii	"GPG_ERR_ENOTSUP\000"
.LASF113:
	.ascii	"GPG_ERR_UNEXPECTED\000"
.LASF286:
	.ascii	"GPG_ERR_SEXP_BAD_HEX_CHAR\000"
.LASF776:
	.ascii	"STATUS_END_DECRYPTION\000"
.LASF298:
	.ascii	"GPG_ERR_NO_CERT_CHAIN\000"
.LASF190:
	.ascii	"GPG_ERR_CONFIGURATION\000"
.LASF746:
	.ascii	"STATUS_TRUST_ULTIMATE\000"
.LASF153:
	.ascii	"GPG_ERR_AGENT\000"
.LASF436:
	.ascii	"GPG_ERR_LDAP_ALIAS_DEREF\000"
.LASF524:
	.ascii	"GPG_ERR_EAUTH\000"
.LASF77:
	.ascii	"GPG_ERR_UNKNOWN_PACKET\000"
.LASF377:
	.ascii	"GPG_ERR_DNS_UNKNOWN\000"
.LASF230:
	.ascii	"GPG_ERR_ENCODING_PROBLEM\000"
.LASF491:
	.ascii	"GPG_ERR_SQL_INTERRUPT\000"
.LASF418:
	.ascii	"GPG_ERR_LDAP_UNSUPPORTED_AUTH\000"
.LASF738:
	.ascii	"STATUS_GOODSIG\000"
.LASF866:
	.ascii	"nprefix\000"
.LASF625:
	.ascii	"GPG_ERR_EPIPE\000"
.LASF255:
	.ascii	"GPG_ERR_NO_ENGINE\000"
.LASF869:
	.ascii	"fill_buffer\000"
.LASF18:
	.ascii	"off_t\000"
.LASF463:
	.ascii	"GPG_ERR_LDAP_CANNOT_CANCEL\000"
.LASF564:
	.ascii	"GPG_ERR_EINVAL\000"
.LASF324:
	.ascii	"GPG_ERR_KEY_DISABLED\000"
.LASF819:
	.ascii	"STATUS_TOFU_USER\000"
.LASF607:
	.ascii	"GPG_ERR_ENOSPC\000"
.LASF17:
	.ascii	"uint64_t\000"
.LASF499:
	.ascii	"GPG_ERR_SQL_SCHEMA\000"
.LASF179:
	.ascii	"GPG_ERR_UNKNOWN_SEXP\000"
.LASF542:
	.ascii	"GPG_ERR_ECONNRESET\000"
.LASF462:
	.ascii	"GPG_ERR_LDAP_TOO_LATE\000"
.LASF744:
	.ascii	"STATUS_TRUST_MARGINAL\000"
.LASF815:
	.ascii	"STATUS_SC_OP_SUCCESS\000"
.LASF777:
	.ascii	"STATUS_BEGIN_ENCRYPTION\000"
.LASF671:
	.ascii	"IOBUF_OUTPUT_TEMP\000"
.LASF550:
	.ascii	"GPG_ERR_EDQUOT\000"
.LASF399:
	.ascii	"GPG_ERR_LDAP_NOT_SUPPORTED\000"
.LASF417:
	.ascii	"GPG_ERR_LDAP_COMPARE_TRUE\000"
.LASF809:
	.ascii	"STATUS_PLAINTEXT\000"
.LASF240:
	.ascii	"GPG_ERR_UNKNOWN_NAME\000"
.LASF872:
	.ascii	"code\000"
.LASF96:
	.ascii	"GPG_ERR_NO_PRIME\000"
.LASF246:
	.ascii	"GPG_ERR_UNKNOWN_EXTN\000"
.LASF315:
	.ascii	"GPG_ERR_BAD_HS_CHANGE_CIPHER\000"
.LASF547:
	.ascii	"GPG_ERR_EDIED\000"
.LASF38:
	.ascii	"server_control_s\000"
.LASF325:
	.ascii	"GPG_ERR_KEY_ON_CARD\000"
.LASF574:
	.ascii	"GPG_ERR_ELIBBAD\000"
.LASF395:
	.ascii	"GPG_ERR_LDAP_REFERRAL_LIMIT\000"
.LASF362:
	.ascii	"GPG_ERR_UNKNOWN_FLAG\000"
.LASF600:
	.ascii	"GPG_ERR_ENOLINK\000"
.LASF26:
	.ascii	"lastiv\000"
.LASF832:
	.ascii	"STATUS_WARNING\000"
.LASF73:
	.ascii	"GPG_ERR_SOURCE_DIM\000"
.LASF650:
	.ascii	"GPG_ERR_ETXTBSY\000"
.LASF766:
	.ascii	"STATUS_IMPORT_OK\000"
.LASF895:
	.ascii	"gpg_error_from_syserror\000"
.LASF635:
	.ascii	"GPG_ERR_EREMOTE\000"
.LASF177:
	.ascii	"GPG_ERR_CERT_TOO_YOUNG\000"
.LASF289:
	.ascii	"GPG_ERR_SUBKEYS_EXP_OR_REV\000"
.LASF232:
	.ascii	"GPG_ERR_DUP_VALUE\000"
.LASF50:
	.ascii	"GPG_ERR_SOURCE_GCRYPT\000"
.LASF342:
	.ascii	"GPG_ERR_ASS_READ_ERROR\000"
.LASF503:
	.ascii	"GPG_ERR_SQL_MISUSE\000"
.LASF751:
	.ascii	"STATUS_NODATA\000"
.LASF258:
	.ascii	"GPG_ERR_LIMIT_REACHED\000"
.LASF538:
	.ascii	"GPG_ERR_ECHRNG\000"
.LASF556:
	.ascii	"GPG_ERR_EGREGIOUS\000"
.LASF293:
	.ascii	"GPG_ERR_NO_KEY\000"
.LASF329:
	.ascii	"GPG_ERR_ASS_GENERAL\000"
.LASF158:
	.ascii	"GPG_ERR_INV_SEXP\000"
.LASF523:
	.ascii	"GPG_ERR_EALREADY\000"
.LASF714:
	.ascii	"GCRY_CIPHER_MODE_CFB8\000"
.LASF825:
	.ascii	"STATUS_VERIFICATION_COMPLIANCE_MODE\000"
.LASF458:
	.ascii	"GPG_ERR_LDAP_CUP_UNSUP_SCHEME\000"
.LASF687:
	.ascii	"size\000"
.LASF196:
	.ascii	"GPG_ERR_UNSUPPORTED_PROTOCOL\000"
.LASF378:
	.ascii	"GPG_ERR_DNS_SECTION\000"
.LASF364:
	.ascii	"GPG_ERR_ALREADY_FETCHED\000"
.LASF414:
	.ascii	"GPG_ERR_LDAP_TIMELIMIT\000"
.LASF672:
	.ascii	"iobuf_t\000"
.LASF88:
	.ascii	"GPG_ERR_KEYRING_OPEN\000"
.LASF355:
	.ascii	"GPG_ERR_WINDOW_TOO_LARGE\000"
.LASF405:
	.ascii	"GPG_ERR_LDAP_AUTH_UNKNOWN\000"
.LASF22:
	.ascii	"PROPERLY_ALIGNED_TYPE\000"
.LASF437:
	.ascii	"GPG_ERR_LDAP_X_PROXY_AUTH_FAIL\000"
.LASF518:
	.ascii	"GPG_ERR_EADDRINUSE\000"
.LASF875:
	.ascii	"tfp_printf\000"
.LASF156:
	.ascii	"GPG_ERR_ASSUAN\000"
.LASF13:
	.ascii	"_off_t\000"
.LASF444:
	.ascii	"GPG_ERR_LDAP_LOOP_DETECT\000"
.LASF281:
	.ascii	"GPG_ERR_SEXP_BAD_QUOTATION\000"
.LASF652:
	.ascii	"GPG_ERR_EUNATCH\000"
.LASF609:
	.ascii	"GPG_ERR_ENOSTR\000"
.LASF679:
	.ascii	"error\000"
.LASF11:
	.ascii	"size_t\000"
.LASF163:
	.ascii	"GPG_ERR_INV_NAME\000"
.LASF380:
	.ascii	"GPG_ERR_DNS_NO_QUERY\000"
.LASF779:
	.ascii	"STATUS_BEGIN_SIGNING\000"
.LASF548:
	.ascii	"GPG_ERR_EDOM\000"
.LASF658:
	.ascii	"gpg_err_code_t\000"
.LASF336:
	.ascii	"GPG_ERR_ASS_NESTED_COMMANDS\000"
.LASF485:
	.ascii	"GPG_ERR_SQL_PERM\000"
.LASF634:
	.ascii	"GPG_ERR_EREMCHG\000"
.LASF642:
	.ascii	"GPG_ERR_ESPIPE\000"
.LASF147:
	.ascii	"GPG_ERR_INV_FLAG\000"
.LASF27:
	.ascii	"unused\000"
.LASF881:
	.ascii	"iobuf_readbyte\000"
.LASF213:
	.ascii	"GPG_ERR_INV_TAG\000"
.LASF140:
	.ascii	"GPG_ERR_INV_OBJ\000"
.LASF758:
	.ascii	"STATUS_DECRYPTION_FAILED\000"
.LASF340:
	.ascii	"GPG_ERR_ASS_NOT_A_CLIENT\000"
.LASF322:
	.ascii	"GPG_ERR_BOGUS_STRING\000"
.LASF643:
	.ascii	"GPG_ERR_ESRCH\000"
.LASF576:
	.ascii	"GPG_ERR_ELIBMAX\000"
.LASF132:
	.ascii	"GPG_ERR_MISSING_CERT\000"
.LASF297:
	.ascii	"GPG_ERR_OBJ_TERM_STATE\000"
.LASF218:
	.ascii	"GPG_ERR_NO_CMS_OBJ\000"
.LASF661:
	.ascii	"IOBUFCTRL_FREE\000"
.LASF502:
	.ascii	"GPG_ERR_SQL_MISMATCH\000"
.LASF32:
	.ascii	"dirmngr_local_s\000"
.LASF30:
	.ascii	"dirmngr_local_t\000"
.LASF678:
	.ascii	"filter_eof\000"
.LASF828:
	.ascii	"STATUS_BLOCKDEV\000"
.LASF664:
	.ascii	"IOBUFCTRL_DESC\000"
.LASF539:
	.ascii	"GPG_ERR_ECOMM\000"
.LASF641:
	.ascii	"GPG_ERR_ESOCKTNOSUPPORT\000"
.LASF599:
	.ascii	"GPG_ERR_ENOLCK\000"
.LASF531:
	.ascii	"GPG_ERR_EBADRPC\000"
.LASF159:
	.ascii	"GPG_ERR_UNSUPPORTED_ALGORITHM\000"
.LASF637:
	.ascii	"GPG_ERR_ERESTART\000"
.LASF764:
	.ascii	"STATUS_ERRMDC\000"
.LASF64:
	.ascii	"GPG_ERR_SOURCE_ASSUAN\000"
.LASF560:
	.ascii	"GPG_ERR_EIEIO\000"
.LASF264:
	.ascii	"GPG_ERR_DUP_KEY\000"
.LASF860:
	.ascii	"ret_len\000"
.LASF101:
	.ascii	"GPG_ERR_NO_VALUE\000"
.LASF730:
	.ascii	"aead_algo\000"
.LASF750:
	.ascii	"STATUS_ENC_TO\000"
.LASF368:
	.ascii	"GPG_ERR_BAD_AUTH\000"
.LASF307:
	.ascii	"GPG_ERR_MISSING_CLIENT_CERT\000"
.LASF44:
	.ascii	"passphrase\000"
.LASF532:
	.ascii	"GPG_ERR_EBADRQC\000"
.LASF393:
	.ascii	"GPG_ERR_LDAP_OTHER_GENERAL\000"
.LASF622:
	.ascii	"GPG_ERR_EOVERFLOW\000"
.LASF165:
	.ascii	"GPG_ERR_INV_PARAMETER\000"
.LASF300:
	.ascii	"GPG_ERR_INV_RECORD\000"
.LASF763:
	.ascii	"STATUS_BADMDC\000"
.LASF98:
	.ascii	"GPG_ERR_NO_ENCRYPTION_SCHEME\000"
.LASF432:
	.ascii	"GPG_ERR_LDAP_NO_SUCH_OBJ\000"
.LASF760:
	.ascii	"STATUS_MISSING_PASSPHRASE\000"
.LASF675:
	.ascii	"nbytes\000"
.LASF504:
	.ascii	"GPG_ERR_SQL_NOLFS\000"
.LASF537:
	.ascii	"GPG_ERR_ECHILD\000"
.LASF890:
	.ascii	"decode_filter\000"
.LASF784:
	.ascii	"STATUS_GOT_IT\000"
.LASF837:
	.ascii	"refcount\000"
.LASF8:
	.ascii	"__uint64_t\000"
.LASF533:
	.ascii	"GPG_ERR_EBADSLT\000"
.LASF345:
	.ascii	"GPG_ERR_ASS_UNEXPECTED_CMD\000"
.LASF202:
	.ascii	"GPG_ERR_WRONG_BLOB_TYPE\000"
.LASF363:
	.ascii	"GPG_ERR_INV_ORDER\000"
.LASF86:
	.ascii	"GPG_ERR_BAD_PASSPHRASE\000"
.LASF610:
	.ascii	"GPG_ERR_ENOSYS\000"
.LASF435:
	.ascii	"GPG_ERR_LDAP_IS_LEAF\000"
.LASF885:
	.ascii	"proc_packets\000"
.LASF23:
	.ascii	"cipher_context_alignment_t\000"
.LASF391:
	.ascii	"GPG_ERR_LDAP_E_GENERAL\000"
.LASF782:
	.ascii	"STATUS_GET_LINE\000"
.LASF632:
	.ascii	"GPG_ERR_EPROTOTYPE\000"
.LASF615:
	.ascii	"GPG_ERR_ENOTNAM\000"
.LASF94:
	.ascii	"GPG_ERR_BAD_KEY\000"
.LASF445:
	.ascii	"GPG_ERR_LDAP_NAMING_VIOLATION\000"
.LASF323:
	.ascii	"GPG_ERR_FORBIDDEN\000"
.LASF91:
	.ascii	"GPG_ERR_NO_USER_ID\000"
.LASF559:
	.ascii	"GPG_ERR_EIDRM\000"
.LASF618:
	.ascii	"GPG_ERR_ENOTTY\000"
.LASF563:
	.ascii	"GPG_ERR_EINTR\000"
.LASF484:
	.ascii	"GPG_ERR_SQL_INTERNAL\000"
.LASF135:
	.ascii	"GPG_ERR_NOT_SUPPORTED\000"
.LASF645:
	.ascii	"GPG_ERR_ESTALE\000"
.LASF545:
	.ascii	"GPG_ERR_EDEADLOCK\000"
.LASF257:
	.ascii	"GPG_ERR_TOO_MANY\000"
.LASF280:
	.ascii	"GPG_ERR_SEXP_BAD_CHARACTER\000"
.LASF865:
	.ascii	"blocksize\000"
.LASF116:
	.ascii	"GPG_ERR_WRONG_PUBKEY_ALGO\000"
.LASF846:
	.ascii	"chunkindex\000"
.LASF130:
	.ascii	"GPG_ERR_INV_VALUE\000"
.LASF606:
	.ascii	"GPG_ERR_ENOPROTOOPT\000"
.LASF611:
	.ascii	"GPG_ERR_ENOTBLK\000"
.LASF370:
	.ascii	"GPG_ERR_KEYBOXD\000"
.LASF404:
	.ascii	"GPG_ERR_LDAP_FILTER\000"
.LASF757:
	.ascii	"STATUS_DECRYPTION_INFO\000"
.LASF876:
	.ascii	"iobuf_read\000"
.LASF422:
	.ascii	"GPG_ERR_LDAP_ADMINLIMIT\000"
.LASF803:
	.ascii	"STATUS_EXPSIG\000"
.LASF57:
	.ascii	"GPG_ERR_SOURCE_KEYBOX\000"
.LASF552:
	.ascii	"GPG_ERR_EFAULT\000"
.LASF360:
	.ascii	"GPG_ERR_TOO_YOUNG\000"
.LASF115:
	.ascii	"GPG_ERR_KEYSERVER\000"
.LASF655:
	.ascii	"GPG_ERR_EXDEV\000"
.LASF512:
	.ascii	"GPG_ERR_SQL_DONE\000"
.LASF351:
	.ascii	"GPG_ERR_ASS_PARAMETER\000"
.LASF247:
	.ascii	"GPG_ERR_UNKNOWN_CRIT_EXTN\000"
.LASF110:
	.ascii	"GPG_ERR_TRUSTDB\000"
.LASF274:
	.ascii	"GPG_ERR_UNFINISHED\000"
.LASF894:
	.ascii	"release_dfx_context\000"
.LASF587:
	.ascii	"GPG_ERR_ENEEDAUTH\000"
.LASF271:
	.ascii	"GPG_ERR_BROKEN_SECKEY\000"
.LASF392:
	.ascii	"GPG_ERR_LDAP_X_GENERAL\000"
.LASF78:
	.ascii	"GPG_ERR_UNKNOWN_VERSION\000"
.LASF426:
	.ascii	"GPG_ERR_LDAP_NO_SUCH_ATTRIBUTE\000"
.LASF732:
	.ascii	"chunkbyte\000"
.LASF508:
	.ascii	"GPG_ERR_SQL_NOTADB\000"
.LASF166:
	.ascii	"GPG_ERR_WRONG_CARD\000"
.LASF39:
	.ascii	"magic\000"
.LASF99:
	.ascii	"GPG_ERR_NO_SIGNATURE_SCHEME\000"
.LASF877:
	.ascii	"memset\000"
.LASF814:
	.ascii	"STATUS_SC_OP_FAILURE\000"
.LASF720:
	.ascii	"GCRY_CIPHER_SECURE\000"
.LASF35:
	.ascii	"tofu_dbs_s\000"
.LASF34:
	.ascii	"tofu_dbs_t\000"
.LASF522:
	.ascii	"GPG_ERR_EAGAIN\000"
.LASF58:
	.ascii	"GPG_ERR_SOURCE_KSBA\000"
.LASF87:
	.ascii	"GPG_ERR_CIPHER_ALGO\000"
.LASF489:
	.ascii	"GPG_ERR_SQL_NOMEM\000"
.LASF692:
	.ascii	"use_aead\000"
.LASF749:
	.ascii	"STATUS_SIG_ID\000"
.LASF384:
	.ascii	"GPG_ERR_DNS_TIMEOUT\000"
.LASF402:
	.ascii	"GPG_ERR_LDAP_PARAM\000"
.LASF592:
	.ascii	"GPG_ERR_ENOANO\000"
.LASF312:
	.ascii	"GPG_ERR_BAD_HS_CERT\000"
.LASF413:
	.ascii	"GPG_ERR_LDAP_PROTOCOL\000"
.LASF660:
	.ascii	"IOBUFCTRL_INIT\000"
.LASF802:
	.ascii	"STATUS_KEYREVOKED\000"
.LASF424:
	.ascii	"GPG_ERR_LDAP_CONFIDENT_RQRD\000"
.LASF778:
	.ascii	"STATUS_END_ENCRYPTION\000"
.LASF79:
	.ascii	"GPG_ERR_PUBKEY_ALGO\000"
.LASF129:
	.ascii	"GPG_ERR_UNUSABLE_SECKEY\000"
.LASF428:
	.ascii	"GPG_ERR_LDAP_BAD_MATCHING\000"
.LASF321:
	.ascii	"GPG_ERR_BAD_HS_CLIENT_KEX\000"
.LASF582:
	.ascii	"GPG_ERR_EMLINK\000"
.LASF602:
	.ascii	"GPG_ERR_ENOMEM\000"
.LASF829:
	.ascii	"STATUS_PINENTRY_LAUNCHED\000"
.LASF37:
	.ascii	"gcry_cipher_handle\000"
.LASF76:
	.ascii	"GPG_ERR_GENERAL\000"
.LASF431:
	.ascii	"GPG_ERR_LDAP_INV_SYNTAX\000"
.LASF212:
	.ascii	"GPG_ERR_IDENTIFIER_NOT_FOUND\000"
.LASF870:
	.ascii	"gpg_err_code\000"
.LASF863:
	.ascii	"startivlen\000"
.LASF769:
	.ascii	"STATUS_IMPORT_CHECK\000"
.LASF772:
	.ascii	"STATUS_FILE_START\000"
.LASF412:
	.ascii	"GPG_ERR_LDAP_OPERATIONS\000"
.LASF493:
	.ascii	"GPG_ERR_SQL_CORRUPT\000"
.LASF228:
	.ascii	"GPG_ERR_KEY_EXPIRED\000"
.LASF398:
	.ascii	"GPG_ERR_LDAP_CONTROL_NOT_FOUND\000"
.LASF558:
	.ascii	"GPG_ERR_EHOSTUNREACH\000"
.LASF583:
	.ascii	"GPG_ERR_EMSGSIZE\000"
.LASF771:
	.ascii	"STATUS_EXPORT_RES\000"
.LASF549:
	.ascii	"GPG_ERR_EDOTDOT\000"
.LASF238:
	.ascii	"GPG_ERR_UNSUPPORTED_CRL_VERSION\000"
.LASF3:
	.ascii	"short unsigned int\000"
.LASF252:
	.ascii	"GPG_ERR_NO_PASSPHRASE\000"
.LASF0:
	.ascii	"signed char\000"
.LASF415:
	.ascii	"GPG_ERR_LDAP_SIZELIMIT\000"
.LASF864:
	.ascii	"temp\000"
.LASF371:
	.ascii	"GPG_ERR_NO_SERVICE\000"
.LASF501:
	.ascii	"GPG_ERR_SQL_CONSTRAINT\000"
.LASF688:
	.ascii	"start\000"
.LASF216:
	.ascii	"GPG_ERR_UNEXPECTED_TAG\000"
.LASF430:
	.ascii	"GPG_ERR_LDAP_TYPE_VALUE_EXISTS\000"
.LASF631:
	.ascii	"GPG_ERR_EPROTONOSUPPORT\000"
.LASF740:
	.ascii	"STATUS_ERRSIG\000"
.LASF526:
	.ascii	"GPG_ERR_EBADE\000"
.LASF527:
	.ascii	"GPG_ERR_EBADF\000"
.LASF346:
	.ascii	"GPG_ERR_ASS_UNKNOWN_CMD\000"
.LASF773:
	.ascii	"STATUS_FILE_DONE\000"
.LASF530:
	.ascii	"GPG_ERR_EBADR\000"
.LASF593:
	.ascii	"GPG_ERR_ENOBUFS\000"
.LASF785:
	.ascii	"STATUS_PROGRESS\000"
.LASF810:
	.ascii	"STATUS_PLAINTEXT_LENGTH\000"
.LASF56:
	.ascii	"GPG_ERR_SOURCE_GPGME\000"
.LASF801:
	.ascii	"STATUS_KEYEXPIRED\000"
.LASF92:
	.ascii	"GPG_ERR_NO_SECKEY\000"
.LASF107:
	.ascii	"GPG_ERR_SIG_CLASS\000"
.LASF102:
	.ascii	"GPG_ERR_NOT_FOUND\000"
.LASF358:
	.ascii	"GPG_ERR_NAME_EXISTS\000"
.LASF460:
	.ascii	"GPG_ERR_LDAP_CANCELLED\000"
.LASF827:
	.ascii	"STATUS_MOUNTPOINT\000"
.LASF171:
	.ascii	"GPG_ERR_CRL_TOO_OLD\000"
.LASF774:
	.ascii	"STATUS_FILE_ERROR\000"
.LASF588:
	.ascii	"GPG_ERR_ENETDOWN\000"
.LASF421:
	.ascii	"GPG_ERR_LDAP_REFERRAL\000"
.LASF800:
	.ascii	"STATUS_ALREADY_SIGNED\000"
.LASF369:
	.ascii	"GPG_ERR_NO_KEYBOXD\000"
.LASF381:
	.ascii	"GPG_ERR_DNS_NO_ANSWER\000"
.LASF282:
	.ascii	"GPG_ERR_SEXP_ZERO_PREFIX\000"
.LASF680:
	.ascii	"filter\000"
.LASF736:
	.ascii	"STATUS_ABORT\000"
.LASF717:
	.ascii	"GCRY_CIPHER_MODE_SIV\000"
.LASF521:
	.ascii	"GPG_ERR_EAFNOSUPPORT\000"
.LASF89:
	.ascii	"GPG_ERR_INV_PACKET\000"
.LASF581:
	.ascii	"GPG_ERR_EMFILE\000"
.LASF753:
	.ascii	"STATUS_NO_PUBKEY\000"
.LASF888:
	.ascii	"src/decrypt-data.c\000"
.LASF706:
	.ascii	"GCRY_CIPHER_MODE_STREAM\000"
.LASF178:
	.ascii	"GPG_ERR_UNSUPPORTED_CERT\000"
.LASF893:
	.ascii	"openpgp_cipher_algo_name\000"
.LASF365:
	.ascii	"GPG_ERR_TRY_LATER\000"
.LASF283:
	.ascii	"GPG_ERR_SEXP_NESTED_DH\000"
.LASF231:
	.ascii	"GPG_ERR_INV_STATE\000"
.LASF390:
	.ascii	"GPG_ERR_LDAP_UPDATE_GENERAL\000"
.LASF765:
	.ascii	"STATUS_IMPORTED\000"
.LASF694:
	.ascii	"symmetric\000"
.LASF613:
	.ascii	"GPG_ERR_ENOTDIR\000"
.LASF817:
	.ascii	"STATUS_PKA_TRUST_BAD\000"
.LASF676:
	.ascii	"ntotal\000"
.LASF4:
	.ascii	"long int\000"
.LASF584:
	.ascii	"GPG_ERR_EMULTIHOP\000"
.LASF519:
	.ascii	"GPG_ERR_EADDRNOTAVAIL\000"
.LASF619:
	.ascii	"GPG_ERR_ENOTUNIQ\000"
.LASF229:
	.ascii	"GPG_ERR_SIG_EXPIRED\000"
.LASF367:
	.ascii	"GPG_ERR_NO_AUTH\000"
.LASF121:
	.ascii	"GPG_ERR_BAD_URI\000"
.LASF93:
	.ascii	"GPG_ERR_WRONG_SECKEY\000"
.LASF570:
	.ascii	"GPG_ERR_EL2NSYNC\000"
.LASF604:
	.ascii	"GPG_ERR_ENONET\000"
.LASF448:
	.ascii	"GPG_ERR_LDAP_NOT_ALLOW_ON_RDN\000"
.LASF338:
	.ascii	"GPG_ERR_ASS_NO_INQUIRE_CB\000"
.LASF192:
	.ascii	"GPG_ERR_INV_INDEX\000"
.LASF851:
	.ascii	"opaque\000"
.LASF248:
	.ascii	"GPG_ERR_LOCKED\000"
.LASF842:
	.ascii	"holdbacklen\000"
.LASF440:
	.ascii	"GPG_ERR_LDAP_INSUFFICIENT_ACC\000"
.LASF690:
	.ascii	"keylen\000"
.LASF237:
	.ascii	"GPG_ERR_INV_CRL_OBJ\000"
.LASF807:
	.ascii	"STATUS_NEWSIG\000"
.LASF28:
	.ascii	"context\000"
.LASF565:
	.ascii	"GPG_ERR_EIO\000"
.LASF313:
	.ascii	"GPG_ERR_BAD_HS_CERT_REQ\000"
.LASF699:
	.ascii	"bufsize\000"
.LASF174:
	.ascii	"GPG_ERR_CANCELED\000"
.LASF361:
	.ascii	"GPG_ERR_TOO_OLD\000"
.LASF331:
	.ascii	"GPG_ERR_ASS_CONNECT_FAILED\000"
.LASF543:
	.ascii	"GPG_ERR_ED\000"
.LASF16:
	.ascii	"uint32_t\000"
.LASF359:
	.ascii	"GPG_ERR_DUP_NAME\000"
.LASF118:
	.ascii	"GPG_ERR_WEAK_KEY\000"
.LASF154:
	.ascii	"GPG_ERR_INV_DATA\000"
.LASF150:
	.ascii	"GPG_ERR_INCOMPLETE_LINE\000"
.LASF620:
	.ascii	"GPG_ERR_ENXIO\000"
.LASF616:
	.ascii	"GPG_ERR_ENOTSOCK\000"
.LASF824:
	.ascii	"STATUS_DECRYPTION_COMPLIANCE_MODE\000"
.LASF12:
	.ascii	"long double\000"
.LASF636:
	.ascii	"GPG_ERR_EREMOTEIO\000"
.LASF596:
	.ascii	"GPG_ERR_ENODEV\000"
.LASF128:
	.ascii	"GPG_ERR_UNUSABLE_PUBKEY\000"
.LASF52:
	.ascii	"GPG_ERR_SOURCE_GPGSM\000"
.LASF726:
	.ascii	"extralen\000"
.LASF553:
	.ascii	"GPG_ERR_EFBIG\000"
.LASF5:
	.ascii	"long unsigned int\000"
.LASF48:
	.ascii	"ctrl_t\000"
.LASF761:
	.ascii	"STATUS_GOOD_PASSPHRASE\000"
.LASF55:
	.ascii	"GPG_ERR_SOURCE_SCD\000"
.LASF674:
	.ascii	"nlimit\000"
.LASF220:
	.ascii	"GPG_ERR_UNKNOWN_CMS_OBJ\000"
.LASF82:
	.ascii	"GPG_ERR_BAD_SECKEY\000"
.LASF308:
	.ascii	"GPG_ERR_CLOSE_NOTIFY\000"
.LASF385:
	.ascii	"GPG_ERR_LDAP_GENERAL\000"
.LASF703:
	.ascii	"GCRY_CIPHER_MODE_ECB\000"
.LASF701:
	.ascii	"gcry_cipher_modes\000"
.LASF709:
	.ascii	"GCRY_CIPHER_MODE_AESWRAP\000"
.LASF727:
	.ascii	"new_ctb\000"
.LASF259:
	.ascii	"GPG_ERR_NOT_INITIALIZED\000"
.LASF850:
	.ascii	"decode_filter_ctx_t\000"
.LASF15:
	.ascii	"char\000"
.LASF33:
	.ascii	"keydb_handle\000"
.LASF797:
	.ascii	"STATUS_NO_RECP\000"
.LASF199:
	.ascii	"GPG_ERR_UNSUPPORTED_OPERATION\000"
.LASF644:
	.ascii	"GPG_ERR_ESRMNT\000"
.LASF189:
	.ascii	"GPG_ERR_NOT_CONFIRMED\000"
.LASF443:
	.ascii	"GPG_ERR_LDAP_UNWILL_TO_PERFORM\000"
.LASF335:
	.ascii	"GPG_ERR_ASS_LINE_TOO_LONG\000"
.LASF562:
	.ascii	"GPG_ERR_EINPROGRESS\000"
.LASF260:
	.ascii	"GPG_ERR_MISSING_ISSUER_CERT\000"
.LASF328:
	.ascii	"GPG_ERR_FALSE\000"
.LASF804:
	.ascii	"STATUS_EXPKEYSIG\000"
.LASF244:
	.ascii	"GPG_ERR_INV_MAC\000"
.LASF555:
	.ascii	"GPG_ERR_EGRATUITOUS\000"
.LASF84:
	.ascii	"GPG_ERR_NO_PUBKEY\000"
.LASF210:
	.ascii	"GPG_ERR_INV_BER\000"
.LASF517:
	.ascii	"GPG_ERR_EACCES\000"
.LASF673:
	.ascii	"iobuf_struct\000"
.LASF141:
	.ascii	"GPG_ERR_TOO_SHORT\000"
.LASF597:
	.ascii	"GPG_ERR_ENOENT\000"
.LASF45:
	.ascii	"session_key\000"
.LASF806:
	.ascii	"STATUS_REVKEYSIG\000"
.LASF505:
	.ascii	"GPG_ERR_SQL_AUTH\000"
.LASF185:
	.ascii	"GPG_ERR_CARD_REMOVED\000"
.LASF268:
	.ascii	"GPG_ERR_BAD_CRYPT_CTX\000"
.LASF108:
	.ascii	"GPG_ERR_RESOURCE_LIMIT\000"
.LASF106:
	.ascii	"GPG_ERR_INV_PASSPHRASE\000"
.LASF204:
	.ascii	"GPG_ERR_HARDWARE\000"
.LASF702:
	.ascii	"GCRY_CIPHER_MODE_NONE\000"
.LASF705:
	.ascii	"GCRY_CIPHER_MODE_CBC\000"
.LASF407:
	.ascii	"GPG_ERR_LDAP_DECODING\000"
.LASF464:
	.ascii	"GPG_ERR_LDAP_ASSERTION_FAILED\000"
.LASF366:
	.ascii	"GPG_ERR_WRONG_NAME\000"
.LASF61:
	.ascii	"GPG_ERR_SOURCE_GPA\000"
.LASF667:
	.ascii	"IOBUFCTRL_USER\000"
.LASF51:
	.ascii	"GPG_ERR_SOURCE_GPG\000"
.LASF187:
	.ascii	"GPG_ERR_CARD_NOT_PRESENT\000"
.LASF629:
	.ascii	"GPG_ERR_EPROGUNAVAIL\000"
.LASF854:
	.ascii	"buffer\000"
.LASF686:
	.ascii	"IOBUF\000"
.LASF24:
	.ascii	"iv_align\000"
.LASF383:
	.ascii	"GPG_ERR_DNS_VERIFY\000"
.LASF227:
	.ascii	"GPG_ERR_DECRYPT_FAILED\000"
.LASF651:
	.ascii	"GPG_ERR_EUCLEAN\000"
.LASF134:
	.ascii	"GPG_ERR_BUG\000"
.LASF341:
	.ascii	"GPG_ERR_ASS_SERVER_START\000"
.LASF295:
	.ascii	"GPG_ERR_REQUEST_TOO_SHORT\000"
.LASF457:
	.ascii	"GPG_ERR_LDAP_CUP_INV_DATA\000"
.LASF710:
	.ascii	"GCRY_CIPHER_MODE_CCM\000"
.LASF180:
	.ascii	"GPG_ERR_UNSUPPORTED_PROTECTION\000"
.LASF261:
	.ascii	"GPG_ERR_NO_KEYSERVER\000"
.LASF670:
	.ascii	"IOBUF_OUTPUT\000"
.LASF823:
	.ascii	"STATUS_ENCRYPTION_COMPLIANCE_MODE\000"
.LASF535:
	.ascii	"GPG_ERR_EBUSY\000"
.LASF748:
	.ascii	"STATUS_VALIDSIG\000"
.LASF696:
	.ascii	"gcry_md_hd_t\000"
.LASF461:
	.ascii	"GPG_ERR_LDAP_NO_SUCH_OPERATION\000"
.LASF387:
	.ascii	"GPG_ERR_LDAP_NAME_GENERAL\000"
.LASF892:
	.ascii	"leave\000"
.LASF852:
	.ascii	"control\000"
.LASF122:
	.ascii	"GPG_ERR_INV_URI\000"
.LASF262:
	.ascii	"GPG_ERR_INV_CURVE\000"
.LASF291:
	.ascii	"GPG_ERR_SERVER_FAILED\000"
.LASF603:
	.ascii	"GPG_ERR_ENOMSG\000"
.LASF119:
	.ascii	"GPG_ERR_INV_KEYLEN\000"
.LASF332:
	.ascii	"GPG_ERR_ASS_INV_RESPONSE\000"
.LASF718:
	.ascii	"GCRY_CIPHER_MODE_GCM_SIV\000"
.LASF354:
	.ascii	"GPG_ERR_WINDOW_TOO_SMALL\000"
.LASF743:
	.ascii	"STATUS_TRUST_NEVER\000"
.LASF203:
	.ascii	"GPG_ERR_MISSING_VALUE\000"
.LASF525:
	.ascii	"GPG_ERR_EBACKGROUND\000"
.LASF245:
	.ascii	"GPG_ERR_INV_REQUEST\000"
.LASF75:
	.ascii	"GPG_ERR_NO_ERROR\000"
.LASF534:
	.ascii	"GPG_ERR_EBFONT\000"
.LASF794:
	.ascii	"STATUS_UNEXPECTED\000"
.LASF195:
	.ascii	"GPG_ERR_SCDAEMON\000"
.LASF65:
	.ascii	"GPG_ERR_SOURCE_TPM2D\000"
.LASF554:
	.ascii	"GPG_ERR_EFTYPE\000"
.LASF21:
	.ascii	"double\000"
.LASF235:
	.ascii	"GPG_ERR_INV_OID_STRING\000"
.LASF205:
	.ascii	"GPG_ERR_PIN_BLOCKED\000"
.LASF217:
	.ascii	"GPG_ERR_NOT_DER_ENCODED\000"
.LASF595:
	.ascii	"GPG_ERR_ENODATA\000"
.LASF719:
	.ascii	"gcry_cipher_flags\000"
.LASF704:
	.ascii	"GCRY_CIPHER_MODE_CFB\000"
.LASF722:
	.ascii	"GCRY_CIPHER_CBC_CTS\000"
.LASF693:
	.ascii	"use_mdc\000"
.LASF357:
	.ascii	"GPG_ERR_USER_ID_EXISTS\000"
.LASF755:
	.ascii	"STATUS_NEED_PASSPHRASE_SYM\000"
.LASF594:
	.ascii	"GPG_ERR_ENOCSI\000"
.LASF333:
	.ascii	"GPG_ERR_ASS_INV_VALUE\000"
.LASF886:
	.ascii	"xfree\000"
.LASF791:
	.ascii	"STATUS_POLICY_URL\000"
.LASF7:
	.ascii	"__uint32_t\000"
.LASF833:
	.ascii	"STATUS_SUCCESS\000"
.LASF783:
	.ascii	"STATUS_GET_HIDDEN\000"
.LASF111:
	.ascii	"GPG_ERR_BAD_CERT\000"
.LASF452:
	.ascii	"GPG_ERR_LDAP_AFFECTS_MULT_DSAS\000"
.LASF184:
	.ascii	"GPG_ERR_CARD_RESET\000"
.LASF239:
	.ascii	"GPG_ERR_INV_CERT_OBJ\000"
.LASF456:
	.ascii	"GPG_ERR_LDAP_CUP_SEC_VIOLATION\000"
.LASF831:
	.ascii	"STATUS_ERROR\000"
.LASF142:
	.ascii	"GPG_ERR_TOO_LARGE\000"
.LASF74:
	.ascii	"gpg_err_source_t\000"
.LASF81:
	.ascii	"GPG_ERR_BAD_PUBKEY\000"
.LASF788:
	.ascii	"STATUS_NOTATION_NAME\000"
.LASF871:
	.ascii	"gpg_error\000"
.LASF434:
	.ascii	"GPG_ERR_LDAP_INV_DN_SYNTAX\000"
.LASF844:
	.ascii	"eof_seen\000"
.LASF120:
	.ascii	"GPG_ERR_INV_ARG\000"
.LASF105:
	.ascii	"GPG_ERR_BAD_MPI\000"
.LASF170:
	.ascii	"GPG_ERR_NO_CRL_KNOWN\000"
.LASF492:
	.ascii	"GPG_ERR_SQL_IOERR\000"
.LASF410:
	.ascii	"GPG_ERR_LDAP_SERVER_DOWN\000"
.LASF144:
	.ascii	"GPG_ERR_NOT_IMPLEMENTED\000"
.LASF254:
	.ascii	"GPG_ERR_NOT_ENABLED\000"
.LASF394:
	.ascii	"GPG_ERR_LDAP_X_CONNECTING\000"
.LASF194:
	.ascii	"GPG_ERR_NO_SCDAEMON\000"
.LASF36:
	.ascii	"batch_updated_wanted\000"
.LASF496:
	.ascii	"GPG_ERR_SQL_CANTOPEN\000"
.LASF275:
	.ascii	"GPG_ERR_BUFFER_TOO_SHORT\000"
.LASF114:
	.ascii	"GPG_ERR_TIME_CONFLICT\000"
.LASF181:
	.ascii	"GPG_ERR_CORRUPTED_PROTECTION\000"
.LASF306:
	.ascii	"GPG_ERR_NO_CIPHER\000"
.LASF292:
	.ascii	"GPG_ERR_NO_NAME\000"
.LASF137:
	.ascii	"GPG_ERR_TIMEOUT\000"
.LASF320:
	.ascii	"GPG_ERR_BAD_HS_SERVER_KEX\000"
.LASF513:
	.ascii	"GPG_ERR_MISSING_ERRNO\000"
.LASF9:
	.ascii	"long long unsigned int\000"
.LASF221:
	.ascii	"GPG_ERR_UNSUPPORTED_CMS_OBJ\000"
.LASF855:
	.ascii	"offset\000"
.LASF849:
	.ascii	"length\000"
.LASF375:
	.ascii	"GPG_ERR_BAD_RESET_CODE\000"
.LASF728:
	.ascii	"is_partial\000"
.LASF117:
	.ascii	"GPG_ERR_TRIBUTE_TO_D_A\000"
.LASF836:
	.ascii	"decode_filter_context_s\000"
.LASF316:
	.ascii	"GPG_ERR_BAD_HS_CLIENT_HELLO\000"
.LASF821:
	.ascii	"STATUS_TOFU_STATS_SHORT\000"
.LASF698:
	.ascii	"bufpos\000"
.LASF889:
	.ascii	"/home/fred/code/rpi-qemu-gdb/Claude/raspi3b_qemu_\000"
.LASF476:
	.ascii	"GPG_ERR_USER_11\000"
.LASF386:
	.ascii	"GPG_ERR_LDAP_ATTR_GENERAL\000"
.LASF657:
	.ascii	"GPG_ERR_CODE_DIM\000"
.LASF127:
	.ascii	"GPG_ERR_NOT_PROCESSED\000"
.LASF344:
	.ascii	"GPG_ERR_ASS_TOO_MUCH_DATA\000"
.LASF139:
	.ascii	"GPG_ERR_EOF_GCRYPT\000"
.LASF770:
	.ascii	"STATUS_EXPORTED\000"
.LASF266:
	.ascii	"GPG_ERR_NO_CRYPT_CTX\000"
.LASF433:
	.ascii	"GPG_ERR_LDAP_ALIAS_PROBLEM\000"
.LASF200:
	.ascii	"GPG_ERR_WRONG_KEY_USAGE\000"
.LASF124:
	.ascii	"GPG_ERR_UNKNOWN_HOST\000"
.LASF648:
	.ascii	"GPG_ERR_ETIMEDOUT\000"
.LASF488:
	.ascii	"GPG_ERR_SQL_LOCKED\000"
.LASF668:
	.ascii	"IOBUF_INPUT\000"
.LASF60:
	.ascii	"GPG_ERR_SOURCE_GSTI\000"
.LASF566:
	.ascii	"GPG_ERR_EISCONN\000"
.LASF389:
	.ascii	"GPG_ERR_LDAP_SERVICE_GENERAL\000"
.LASF241:
	.ascii	"GPG_ERR_LOCALE_PROBLEM\000"
.LASF83:
	.ascii	"GPG_ERR_BAD_SIGNATURE\000"
.LASF62:
	.ascii	"GPG_ERR_SOURCE_KLEO\000"
.LASF143:
	.ascii	"GPG_ERR_NO_OBJ\000"
.LASF46:
	.ascii	"enc_length\000"
.LASF449:
	.ascii	"GPG_ERR_LDAP_ALREADY_EXISTS\000"
.LASF580:
	.ascii	"GPG_ERR_EMEDIUMTYPE\000"
.LASF191:
	.ascii	"GPG_ERR_NO_POLICY_MATCH\000"
.LASF506:
	.ascii	"GPG_ERR_SQL_FORMAT\000"
.LASF826:
	.ascii	"STATUS_TRUNCATED\000"
.LASF352:
	.ascii	"GPG_ERR_ASS_UNKNOWN_INQUIRE\000"
.LASF713:
	.ascii	"GCRY_CIPHER_MODE_OCB\000"
.LASF520:
	.ascii	"GPG_ERR_EADV\000"
.LASF551:
	.ascii	"GPG_ERR_EEXIST\000"
.LASF447:
	.ascii	"GPG_ERR_LDAP_NOT_ALLOW_NONLEAF\000"
.LASF67:
	.ascii	"GPG_ERR_SOURCE_TKD\000"
.LASF716:
	.ascii	"GCRY_CIPHER_MODE_EAX\000"
.LASF586:
	.ascii	"GPG_ERR_ENAVAIL\000"
.LASF589:
	.ascii	"GPG_ERR_ENETRESET\000"
.LASF161:
	.ascii	"GPG_ERR_PIN_ENTRY\000"
.LASF734:
	.ascii	"STATUS_ENTER\000"
.LASF226:
	.ascii	"GPG_ERR_PUBKEY_NOT_TRUSTED\000"
.LASF97:
	.ascii	"GPG_ERR_NO_ENCODING_METHOD\000"
.LASF6:
	.ascii	"long long int\000"
.LASF482:
	.ascii	"GPG_ERR_SQL_OK\000"
.LASF723:
	.ascii	"GCRY_CIPHER_CBC_MAC\000"
.LASF310:
	.ascii	"GPG_ERR_BAD_TICKET\000"
.LASF591:
	.ascii	"GPG_ERR_ENFILE\000"
.LASF397:
	.ascii	"GPG_ERR_LDAP_NO_RESULTS\000"
.LASF605:
	.ascii	"GPG_ERR_ENOPKG\000"
.LASF579:
	.ascii	"GPG_ERR_ELOOP\000"
.LASF66:
	.ascii	"GPG_ERR_SOURCE_TLS\000"
.LASF805:
	.ascii	"STATUS_ATTRIBUTE\000"
.LASF222:
	.ascii	"GPG_ERR_UNSUPPORTED_ENCODING\000"
.LASF164:
	.ascii	"GPG_ERR_BAD_DATA\000"
.LASF250:
	.ascii	"GPG_ERR_UNKNOWN_COMMAND\000"
.LASF568:
	.ascii	"GPG_ERR_EISNAM\000"
.LASF862:
	.ascii	"ciphermode\000"
.LASF515:
	.ascii	"GPG_ERR_EOF\000"
.LASF623:
	.ascii	"GPG_ERR_EPERM\000"
.LASF712:
	.ascii	"GCRY_CIPHER_MODE_POLY1305\000"
.LASF267:
	.ascii	"GPG_ERR_WRONG_CRYPT_CTX\000"
.LASF279:
	.ascii	"GPG_ERR_SEXP_NOT_CANONICAL\000"
.LASF847:
	.ascii	"chunklen\000"
.LASF172:
	.ascii	"GPG_ERR_LINE_TOO_LONG\000"
.LASF233:
	.ascii	"GPG_ERR_MISSING_ACTION\000"
.LASF446:
	.ascii	"GPG_ERR_LDAP_OBJ_CLS_VIOLATION\000"
.LASF53:
	.ascii	"GPG_ERR_SOURCE_GPGAGENT\000"
.LASF510:
	.ascii	"GPG_ERR_SQL_WARNING\000"
.LASF659:
	.ascii	"gpg_error_t\000"
.LASF585:
	.ascii	"GPG_ERR_ENAMETOOLONG\000"
.LASF475:
	.ascii	"GPG_ERR_USER_10\000"
.LASF152:
	.ascii	"GPG_ERR_NO_AGENT\000"
.LASF477:
	.ascii	"GPG_ERR_USER_12\000"
.LASF478:
	.ascii	"GPG_ERR_USER_13\000"
.LASF479:
	.ascii	"GPG_ERR_USER_14\000"
.LASF480:
	.ascii	"GPG_ERR_USER_15\000"
.LASF481:
	.ascii	"GPG_ERR_USER_16\000"
.LASF334:
	.ascii	"GPG_ERR_ASS_INCOMPLETE_LINE\000"
.LASF830:
	.ascii	"STATUS_PLAINTEXT_FOLLOWS\000"
.LASF820:
	.ascii	"STATUS_TOFU_STATS\000"
.LASF707:
	.ascii	"GCRY_CIPHER_MODE_OFB\000"
.LASF423:
	.ascii	"GPG_ERR_LDAP_UNAVAIL_CRIT_EXTN\000"
.LASF608:
	.ascii	"GPG_ERR_ENOSR\000"
.LASF123:
	.ascii	"GPG_ERR_NETWORK\000"
.LASF290:
	.ascii	"GPG_ERR_DB_CORRUPTED\000"
.LASF263:
	.ascii	"GPG_ERR_UNKNOWN_CURVE\000"
.LASF575:
	.ascii	"GPG_ERR_ELIBEXEC\000"
.LASF497:
	.ascii	"GPG_ERR_SQL_PROTOCOL\000"
.LASF665:
	.ascii	"IOBUFCTRL_CANCEL\000"
.LASF742:
	.ascii	"STATUS_TRUST_UNDEFINED\000"
.LASF374:
	.ascii	"GPG_ERR_NO_RESET_CODE\000"
.LASF666:
	.ascii	"IOBUFCTRL_PEEK\000"
.LASF767:
	.ascii	"STATUS_IMPORT_PROBLEM\000"
.LASF789:
	.ascii	"STATUS_NOTATION_FLAGS\000"
.LASF561:
	.ascii	"GPG_ERR_EILSEQ\000"
.LASF454:
	.ascii	"GPG_ERR_LDAP_OTHER\000"
.LASF557:
	.ascii	"GPG_ERR_EHOSTDOWN\000"
.LASF225:
	.ascii	"GPG_ERR_INV_ENGINE\000"
.LASF798:
	.ascii	"STATUS_NO_SGNR\000"
.LASF639:
	.ascii	"GPG_ERR_ERPCMISMATCH\000"
.LASF514:
	.ascii	"GPG_ERR_UNKNOWN_ERRNO\000"
.LASF529:
	.ascii	"GPG_ERR_EBADMSG\000"
.LASF125:
	.ascii	"GPG_ERR_SELFTEST_FAILED\000"
.LASF838:
	.ascii	"cipher_hd\000"
.LASF59:
	.ascii	"GPG_ERR_SOURCE_DIRMNGR\000"
.LASF10:
	.ascii	"unsigned int\000"
.LASF494:
	.ascii	"GPG_ERR_SQL_NOTFOUND\000"
.LASF427:
	.ascii	"GPG_ERR_LDAP_UNDEFINED_TYPE\000"
.LASF853:
	.ascii	"stream\000"
.LASF700:
	.ascii	"iobuf_use\000"
.LASF442:
	.ascii	"GPG_ERR_LDAP_UNAVAILABLE\000"
.LASF880:
	.ascii	"_gcry_cipher_setiv\000"
.LASF319:
	.ascii	"GPG_ERR_BAD_HS_FINISHED\000"
.LASF731:
	.ascii	"cipher_algo\000"
.LASF285:
	.ascii	"GPG_ERR_SEXP_UNEXPECTED_PUNC\000"
.LASF339:
	.ascii	"GPG_ERR_ASS_NOT_A_SERVER\000"
.LASF683:
	.ascii	"real_fname\000"
.LASF2:
	.ascii	"short int\000"
.LASF406:
	.ascii	"GPG_ERR_LDAP_TIMEOUT\000"
.LASF813:
	.ascii	"STATUS_CARDCTRL\000"
.LASF741:
	.ascii	"STATUS_BADARMOR\000"
.LASF759:
	.ascii	"STATUS_DECRYPTION_OKAY\000"
.LASF149:
	.ascii	"GPG_ERR_TRUNCATED\000"
.LASF495:
	.ascii	"GPG_ERR_SQL_FULL\000"
.LASF403:
	.ascii	"GPG_ERR_LDAP_USER_CANCELLED\000"
.LASF162:
	.ascii	"GPG_ERR_BAD_PIN\000"
.LASF577:
	.ascii	"GPG_ERR_ELIBSCN\000"
.LASF438:
	.ascii	"GPG_ERR_LDAP_BAD_AUTH\000"
.LASF796:
	.ascii	"STATUS_INV_SGNR\000"
.LASF626:
	.ascii	"GPG_ERR_EPROCLIM\000"
.LASF54:
	.ascii	"GPG_ERR_SOURCE_PINENTRY\000"
.LASF41:
	.ascii	"dirmngr_local\000"
.LASF834:
	.ascii	"STATUS_FAILURE\000"
.LASF309:
	.ascii	"GPG_ERR_TICKET_EXPIRED\000"
	.ident	"GCC: (15:10.3-2021.07-4) 10.3.1 20210621 (release)"
