	.cpu cortex-a7
	.eabi_attribute 20, 1	@ Tag_ABI_FP_denormal
	.eabi_attribute 21, 1	@ Tag_ABI_FP_exceptions
	.eabi_attribute 23, 3	@ Tag_ABI_FP_number_model
	.eabi_attribute 24, 1	@ Tag_ABI_align8_needed
	.eabi_attribute 25, 1	@ Tag_ABI_align8_preserved
	.eabi_attribute 26, 1	@ Tag_ABI_enum_size
	.eabi_attribute 30, 2	@ Tag_ABI_optimization_goals
	.eabi_attribute 34, 1	@ Tag_CPU_unaligned_access
	.eabi_attribute 18, 4	@ Tag_ABI_PCS_wchar_t
	.file	"free-packet.c"
@ GNU C17 (15:10.3-2021.07-4) version 10.3.1 20210621 (release) (arm-none-eabi)
@	compiled by GNU C version 11.2.0, GMP version 6.2.1, MPFR version 4.1.0, MPC version 1.2.1, isl version isl-0.24-GMP

@ GGC heuristics: --param ggc-min-expand=100 --param ggc-min-heapsize=131072
@ options passed:  -I src -I src/common -imultilib thumb/v7-a/nofp
@ -D__USES_INITFINI__ src/free-packet.c -mcpu=cortex-a7 -mfloat-abi=soft
@ -marm -mlibarch=armv7ve -march=armv7ve
@ -auxbase-strip build/asm_output/free-packet.s -g -O2 -Wall -Wextra -fpic
@ -ffreestanding -ffunction-sections -fdata-sections -fno-common
@ -fverbose-asm
@ options enabled:  -faggressive-loop-optimizations -falign-functions
@ -falign-jumps -falign-labels -falign-loops -fallocation-dce
@ -fauto-inc-dec -fbranch-count-reg -fcaller-saves
@ -fcombine-stack-adjustments -fcompare-elim -fcprop-registers
@ -fcrossjumping -fcse-follow-jumps -fdata-sections -fdefer-pop
@ -fdelete-null-pointer-checks -fdevirtualize -fdevirtualize-speculatively
@ -fdwarf2-cfi-asm -fearly-inlining -feliminate-unused-debug-symbols
@ -feliminate-unused-debug-types -fexpensive-optimizations
@ -fforward-propagate -ffp-int-builtin-inexact -ffunction-cse
@ -ffunction-sections -fgcse -fgcse-lm -fgnu-unique
@ -fguess-branch-probability -fhoist-adjacent-loads -fident -fif-conversion
@ -fif-conversion2 -findirect-inlining -finline -finline-atomics
@ -finline-functions -finline-functions-called-once
@ -finline-small-functions -fipa-bit-cp -fipa-cp -fipa-icf
@ -fipa-icf-functions -fipa-icf-variables -fipa-profile -fipa-pure-const
@ -fipa-ra -fipa-reference -fipa-reference-addressable -fipa-sra
@ -fipa-stack-alignment -fipa-vrp -fira-hoist-pressure
@ -fira-share-save-slots -fira-share-spill-slots
@ -fisolate-erroneous-paths-dereference -fivopts -fkeep-static-consts
@ -fleading-underscore -flifetime-dse -flra-remat -fmath-errno
@ -fmerge-constants -fmerge-debug-strings -fmove-loop-invariants
@ -fomit-frame-pointer -foptimize-sibling-calls -foptimize-strlen
@ -fpartial-inlining -fpeephole -fpeephole2 -fpic -fplt
@ -fprefetch-loop-arrays -freg-struct-return -freorder-blocks
@ -freorder-functions -frerun-cse-after-loop
@ -fsched-critical-path-heuristic -fsched-dep-count-heuristic
@ -fsched-group-heuristic -fsched-interblock -fsched-last-insn-heuristic
@ -fsched-pressure -fsched-rank-heuristic -fsched-spec
@ -fsched-spec-insn-heuristic -fsched-stalled-insns-dep -fschedule-insns
@ -fschedule-insns2 -fsection-anchors -fsemantic-interposition
@ -fshow-column -fshrink-wrap -fshrink-wrap-separate -fsigned-zeros
@ -fsplit-ivs-in-unroller -fsplit-wide-types -fssa-backprop -fssa-phiopt
@ -fstdarg-opt -fstore-merging -fstrict-aliasing
@ -fstrict-volatile-bitfields -fsync-libcalls -fthread-jumps
@ -ftoplevel-reorder -ftrapping-math -ftree-bit-ccp -ftree-builtin-call-dce
@ -ftree-ccp -ftree-ch -ftree-coalesce-vars -ftree-copy-prop -ftree-cselim
@ -ftree-dce -ftree-dominator-opts -ftree-dse -ftree-forwprop -ftree-fre
@ -ftree-loop-if-convert -ftree-loop-im -ftree-loop-ivcanon
@ -ftree-loop-optimize -ftree-parallelize-loops= -ftree-phiprop -ftree-pre
@ -ftree-pta -ftree-reassoc -ftree-scev-cprop -ftree-sink -ftree-slsr
@ -ftree-sra -ftree-switch-conversion -ftree-tail-merge -ftree-ter
@ -ftree-vrp -funit-at-a-time -fvar-tracking -fvar-tracking-assignments
@ -fverbose-asm -fzero-initialized-in-bss -marm -mbe32 -mlittle-endian
@ -mpic-data-is-text-relative -msched-prolog -munaligned-access
@ -mvectorize-with-neon-quad -mword-relocations

	.text
.Ltext0:
	.cfi_sections	.debug_frame
	.section	.text.free_symkey_enc,"ax",%progbits
	.align	2
	.global	free_symkey_enc
	.arch armv7ve
	.syntax unified
	.arm
	.fpu softvfp
	.type	free_symkey_enc, %function
free_symkey_enc:
.LVL0:
.LFB19:
	.file 1 "src/free-packet.c"
	.loc 1 50 1 view -0
	.cfi_startproc
	@ args = 0, pretend = 0, frame = 0
	@ frame_needed = 0, uses_anonymous_args = 0
	@ link register save eliminated.
	.loc 1 51 5 view .LVU1
	b	xfree(PLT)	@
.LVL1:
	.loc 1 51 5 is_stmt 0 view .LVU2
	.cfi_endproc
.LFE19:
	.size	free_symkey_enc, .-free_symkey_enc
	.section	.text.free_encrypted,"ax",%progbits
	.align	2
	.global	free_encrypted
	.syntax unified
	.arm
	.fpu softvfp
	.type	free_encrypted, %function
free_encrypted:
.LVL2:
.LFB20:
	.loc 1 353 1 is_stmt 1 view -0
	.cfi_startproc
	@ args = 0, pretend = 0, frame = 0
	@ frame_needed = 0, uses_anonymous_args = 0
	.loc 1 354 3 view .LVU4
@ src/free-packet.c:353: {
	.loc 1 353 1 is_stmt 0 view .LVU5
	push	{r4, lr}	@
	.cfi_def_cfa_offset 8
	.cfi_offset 4, -8
	.cfi_offset 14, -4
@ src/free-packet.c:354:   if (!ed)
	.loc 1 354 6 view .LVU6
	subs	r4, r0, #0	@ ed, tmp127
	popeq	{r4, pc}	@
	.loc 1 357 3 is_stmt 1 view .LVU7
@ src/free-packet.c:357:   if (ed->buf)
	.loc 1 357 9 is_stmt 0 view .LVU8
	ldr	r0, [r4, #16]	@ prephitmp_25, ed_15(D)->buf
.LVL3:
@ src/free-packet.c:357:   if (ed->buf)
	.loc 1 357 6 view .LVU9
	cmp	r0, #0	@ prephitmp_25,
	beq	.L9		@,
	.loc 1 360 7 is_stmt 1 view .LVU10
@ src/free-packet.c:360:       if (ed->is_partial)
	.loc 1 360 10 is_stmt 0 view .LVU11
	ldrb	r3, [r4, #9]	@ zero_extendqisi2	@ ed_15(D)->is_partial, ed_15(D)->is_partial
	cmp	r3, #0	@ ed_15(D)->is_partial,
	bne	.L6		@,
	.loc 1 367 17 is_stmt 1 view .LVU12
@ src/free-packet.c:367:           while (ed->len)
	.loc 1 367 20 is_stmt 0 view .LVU13
	ldr	r2, [r4]	@ _9, ed_15(D)->len
@ src/free-packet.c:367:           while (ed->len)
	.loc 1 367 17 view .LVU14
	cmp	r2, #0	@ _9,
	bne	.L7		@,
	b	.L9		@
.LVL4:
.L23:
.LBB2:
@ src/free-packet.c:374:                 ed->len -= n;
	.loc 1 374 25 view .LVU15
	ldr	r2, [r4]	@ ed_15(D)->len, ed_15(D)->len
	sub	r2, r2, r0	@ _9, ed_15(D)->len, n
	str	r2, [r4]	@ _9, ed_15(D)->len
.LBE2:
	.loc 1 367 17 is_stmt 1 view .LVU16
	cmp	r2, #0	@ _9,
	beq	.L9		@,
.LBB3:
@ src/free-packet.c:370:               int n = iobuf_read( ed->buf, NULL, ed->len );
	.loc 1 370 23 is_stmt 0 view .LVU17
	ldr	r0, [r4, #16]	@ prephitmp_25, ed_15(D)->buf
.LVL5:
.L7:
	.loc 1 370 15 is_stmt 1 view .LVU18
@ src/free-packet.c:370:               int n = iobuf_read( ed->buf, NULL, ed->len );
	.loc 1 370 23 is_stmt 0 view .LVU19
	mov	r1, #0	@,
	bl	iobuf_read(PLT)	@
.LVL6:
	.loc 1 374 17 is_stmt 1 view .LVU20
	.loc 1 371 15 view .LVU21
@ src/free-packet.c:371:               if (n == -1)
	.loc 1 371 18 is_stmt 0 view .LVU22
	cmn	r0, #1	@ n,
	bne	.L23		@,
	mov	r3, #0	@ tmp123,
	str	r3, [r4]	@ tmp123, ed_15(D)->len
.LBE3:
	.loc 1 367 17 is_stmt 1 view .LVU23
.LVL7:
.L9:
	.loc 1 378 3 view .LVU24
	mov	r0, r4	@, ed
@ src/free-packet.c:379: }
	.loc 1 379 1 is_stmt 0 view .LVU25
	pop	{r4, lr}	@
	.cfi_remember_state
	.cfi_restore 14
	.cfi_restore 4
	.cfi_def_cfa_offset 0
.LVL8:
@ src/free-packet.c:378:   xfree (ed);
	.loc 1 378 3 view .LVU26
	b	xfree(PLT)	@
.LVL9:
.L24:
	.cfi_restore_state
@ src/free-packet.c:362:           while (iobuf_read( ed->buf, NULL, 1<<30 ) != -1)
	.loc 1 362 18 view .LVU27
	ldr	r0, [r4, #16]	@ prephitmp_25, ed_15(D)->buf
.L6:
	.loc 1 363 13 is_stmt 1 discriminator 1 view .LVU28
	.loc 1 362 17 discriminator 1 view .LVU29
@ src/free-packet.c:362:           while (iobuf_read( ed->buf, NULL, 1<<30 ) != -1)
	.loc 1 362 18 is_stmt 0 discriminator 1 view .LVU30
	mov	r2, #1073741824	@,
	mov	r1, #0	@,
	bl	iobuf_read(PLT)	@
.LVL10:
@ src/free-packet.c:362:           while (iobuf_read( ed->buf, NULL, 1<<30 ) != -1)
	.loc 1 362 17 discriminator 1 view .LVU31
	cmn	r0, #1	@ tmp128,
	bne	.L24		@,
	.loc 1 378 3 is_stmt 1 view .LVU32
	mov	r0, r4	@, ed
@ src/free-packet.c:379: }
	.loc 1 379 1 is_stmt 0 view .LVU33
	pop	{r4, lr}	@
	.cfi_restore 14
	.cfi_restore 4
	.cfi_def_cfa_offset 0
.LVL11:
@ src/free-packet.c:378:   xfree (ed);
	.loc 1 378 3 view .LVU34
	b	xfree(PLT)	@
.LVL12:
	.loc 1 378 3 view .LVU35
	.cfi_endproc
.LFE20:
	.size	free_encrypted, .-free_encrypted
	.section	.text.free_plaintext,"ax",%progbits
	.align	2
	.global	free_plaintext
	.syntax unified
	.arm
	.fpu softvfp
	.type	free_plaintext, %function
free_plaintext:
.LVL13:
.LFB21:
	.loc 1 384 1 is_stmt 1 view -0
	.cfi_startproc
	@ args = 0, pretend = 0, frame = 0
	@ frame_needed = 0, uses_anonymous_args = 0
	.loc 1 385 3 view .LVU37
@ src/free-packet.c:384: {
	.loc 1 384 1 is_stmt 0 view .LVU38
	push	{r4, lr}	@
	.cfi_def_cfa_offset 8
	.cfi_offset 4, -8
	.cfi_offset 14, -4
@ src/free-packet.c:385:   if (!pt)
	.loc 1 385 6 view .LVU39
	subs	r4, r0, #0	@ pt, tmp127
	popeq	{r4, pc}	@
	.loc 1 388 3 is_stmt 1 view .LVU40
@ src/free-packet.c:388:   if (pt->buf)
	.loc 1 388 9 is_stmt 0 view .LVU41
	ldr	r0, [r4, #4]	@ prephitmp_25, pt_15(D)->buf
.LVL14:
@ src/free-packet.c:388:   if (pt->buf)
	.loc 1 388 6 view .LVU42
	cmp	r0, #0	@ prephitmp_25,
	beq	.L31		@,
	.loc 1 390 7 is_stmt 1 view .LVU43
@ src/free-packet.c:390:       if (pt->is_partial)
	.loc 1 390 10 is_stmt 0 view .LVU44
	ldrb	r3, [r4, #9]	@ zero_extendqisi2	@ pt_15(D)->is_partial, pt_15(D)->is_partial
	cmp	r3, #0	@ pt_15(D)->is_partial,
	bne	.L28		@,
	.loc 1 397 16 is_stmt 1 view .LVU45
@ src/free-packet.c:397:           while( pt->len )
	.loc 1 397 20 is_stmt 0 view .LVU46
	ldr	r2, [r4]	@ _9, pt_15(D)->len
@ src/free-packet.c:397:           while( pt->len )
	.loc 1 397 16 view .LVU47
	cmp	r2, #0	@ _9,
	bne	.L29		@,
	b	.L31		@
.LVL15:
.L45:
.LBB4:
@ src/free-packet.c:403:                 pt->len -= n;
	.loc 1 403 25 view .LVU48
	ldr	r2, [r4]	@ pt_15(D)->len, pt_15(D)->len
	sub	r2, r2, r0	@ _9, pt_15(D)->len, n
	str	r2, [r4]	@ _9, pt_15(D)->len
.LBE4:
	.loc 1 397 16 is_stmt 1 view .LVU49
	cmp	r2, #0	@ _9,
	beq	.L31		@,
.LBB5:
@ src/free-packet.c:399:               int n = iobuf_read( pt->buf, NULL, pt->len );
	.loc 1 399 23 is_stmt 0 view .LVU50
	ldr	r0, [r4, #4]	@ prephitmp_25, pt_15(D)->buf
.LVL16:
.L29:
	.loc 1 399 15 is_stmt 1 view .LVU51
@ src/free-packet.c:399:               int n = iobuf_read( pt->buf, NULL, pt->len );
	.loc 1 399 23 is_stmt 0 view .LVU52
	mov	r1, #0	@,
	bl	iobuf_read(PLT)	@
.LVL17:
	.loc 1 403 17 is_stmt 1 view .LVU53
	.loc 1 400 15 view .LVU54
@ src/free-packet.c:400:               if (n == -1)
	.loc 1 400 18 is_stmt 0 view .LVU55
	cmn	r0, #1	@ n,
	bne	.L45		@,
	mov	r3, #0	@ tmp123,
	str	r3, [r4]	@ tmp123, pt_15(D)->len
.LBE5:
	.loc 1 397 16 is_stmt 1 view .LVU56
.LVL18:
.L31:
	.loc 1 407 3 view .LVU57
	mov	r0, r4	@, pt
@ src/free-packet.c:408: }
	.loc 1 408 1 is_stmt 0 view .LVU58
	pop	{r4, lr}	@
	.cfi_remember_state
	.cfi_restore 14
	.cfi_restore 4
	.cfi_def_cfa_offset 0
.LVL19:
@ src/free-packet.c:407:   xfree (pt);
	.loc 1 407 3 view .LVU59
	b	xfree(PLT)	@
.LVL20:
.L46:
	.cfi_restore_state
@ src/free-packet.c:392:           while (iobuf_read( pt->buf, NULL, 1<<30 ) != -1)
	.loc 1 392 18 view .LVU60
	ldr	r0, [r4, #4]	@ prephitmp_25, pt_15(D)->buf
.L28:
	.loc 1 393 13 is_stmt 1 discriminator 1 view .LVU61
	.loc 1 392 17 discriminator 1 view .LVU62
@ src/free-packet.c:392:           while (iobuf_read( pt->buf, NULL, 1<<30 ) != -1)
	.loc 1 392 18 is_stmt 0 discriminator 1 view .LVU63
	mov	r2, #1073741824	@,
	mov	r1, #0	@,
	bl	iobuf_read(PLT)	@
.LVL21:
@ src/free-packet.c:392:           while (iobuf_read( pt->buf, NULL, 1<<30 ) != -1)
	.loc 1 392 17 discriminator 1 view .LVU64
	cmn	r0, #1	@ tmp128,
	bne	.L46		@,
	.loc 1 407 3 is_stmt 1 view .LVU65
	mov	r0, r4	@, pt
@ src/free-packet.c:408: }
	.loc 1 408 1 is_stmt 0 view .LVU66
	pop	{r4, lr}	@
	.cfi_restore 14
	.cfi_restore 4
	.cfi_def_cfa_offset 0
.LVL22:
@ src/free-packet.c:407:   xfree (pt);
	.loc 1 407 3 view .LVU67
	b	xfree(PLT)	@
.LVL23:
	.loc 1 407 3 view .LVU68
	.cfi_endproc
.LFE21:
	.size	free_plaintext, .-free_plaintext
	.section	.rodata.free_packet.str1.4,"aMS",%progbits,1
	.align	2
.LC0:
	.ascii	"free_packet() type=%d\012\000"
	.section	.text.free_packet,"ax",%progbits
	.align	2
	.global	free_packet
	.syntax unified
	.arm
	.fpu softvfp
	.type	free_packet, %function
free_packet:
.LVL24:
.LFB22:
	.loc 1 416 1 is_stmt 1 view -0
	.cfi_startproc
	@ args = 0, pretend = 0, frame = 0
	@ frame_needed = 0, uses_anonymous_args = 0
	.loc 1 417 3 view .LVU70
@ src/free-packet.c:417:   if (!pkt || !pkt->pkt.generic)
	.loc 1 417 6 is_stmt 0 view .LVU71
	cmp	r0, #0	@ pkt
@ src/free-packet.c:416: {
	.loc 1 416 1 view .LVU72
	push	{r4, lr}	@
	.cfi_def_cfa_offset 8
	.cfi_offset 4, -8
	.cfi_offset 14, -4
@ src/free-packet.c:416: {
	.loc 1 416 1 view .LVU73
	mov	r4, r1	@ parsectx, tmp133
@ src/free-packet.c:417:   if (!pkt || !pkt->pkt.generic)
	.loc 1 417 6 view .LVU74
	beq	.L48		@,
@ src/free-packet.c:417:   if (!pkt || !pkt->pkt.generic)
	.loc 1 417 12 discriminator 1 view .LVU75
	ldr	r3, [r0, #4]	@ pkt_14(D)->pkt.generic, pkt_14(D)->pkt.generic
	cmp	r3, #0	@ pkt_14(D)->pkt.generic,
	beq	.L48		@,
	.loc 1 433 5 is_stmt 1 view .LVU76
	ldrb	r1, [r0]	@ zero_extendqisi2	@, pkt_14(D)->pkttype
.LVL25:
	.loc 1 433 5 is_stmt 0 view .LVU77
	ldr	r0, .L66	@,
.LVL26:
@ src/free-packet.c:488: }
	.loc 1 488 1 view .LVU78
	pop	{r4, lr}	@
	.cfi_remember_state
	.cfi_restore 14
	.cfi_restore 4
	.cfi_def_cfa_offset 0
.LVL27:
@ src/free-packet.c:433:     printf ("free_packet() type=%d\n", pkt->pkttype);
	.loc 1 433 5 view .LVU79
.LPIC0:
	add	r0, pc, r0	@,
	b	tfp_printf(PLT)	@
.LVL28:
.L48:
	.cfi_restore_state
	.loc 1 419 7 is_stmt 1 view .LVU80
@ src/free-packet.c:419:       if (parsectx && parsectx->last_pkt.pkt.generic)
	.loc 1 419 10 is_stmt 0 view .LVU81
	cmp	r4, #0	@ parsectx,
	popeq	{r4, pc}	@
@ src/free-packet.c:419:       if (parsectx && parsectx->last_pkt.pkt.generic)
	.loc 1 419 20 discriminator 1 view .LVU82
	ldr	r3, [r4, #8]	@ parsectx_10(D)->last_pkt.pkt.generic, parsectx_10(D)->last_pkt.pkt.generic
	cmp	r3, #0	@ parsectx_10(D)->last_pkt.pkt.generic,
	popeq	{r4, pc}	@
	.loc 1 421 11 is_stmt 1 view .LVU83
@ src/free-packet.c:421:           if (parsectx->free_last_pkt)
	.loc 1 421 14 is_stmt 0 view .LVU84
	ldr	r3, [r4, #12]	@ parsectx_10(D)->free_last_pkt, parsectx_10(D)->free_last_pkt
	cmp	r3, #0	@ parsectx_10(D)->free_last_pkt,
	bne	.L65		@,
.LVL29:
.L51:
	.loc 1 426 11 is_stmt 1 view .LVU85
@ src/free-packet.c:426:           parsectx->last_pkt.pkttype = 0;
	.loc 1 426 38 is_stmt 0 view .LVU86
	mov	r3, #0	@ tmp126,
	strb	r3, [r4, #4]	@ tmp126, parsectx_10(D)->last_pkt.pkttype
	.loc 1 427 11 is_stmt 1 view .LVU87
@ src/free-packet.c:427:           parsectx->last_pkt.pkt.generic = NULL;
	.loc 1 427 42 is_stmt 0 view .LVU88
	str	r3, [r4, #8]	@ tmp126, parsectx_10(D)->last_pkt.pkt.generic
@ src/free-packet.c:488: }
	.loc 1 488 1 view .LVU89
	pop	{r4, pc}	@
.LVL30:
.L65:
	.loc 1 423 15 is_stmt 1 view .LVU90
	mov	r1, #0	@,
.LVL31:
	.loc 1 423 15 is_stmt 0 view .LVU91
	add	r0, r4, #4	@, parsectx,
.LVL32:
	.loc 1 423 15 view .LVU92
	bl	free_packet.localalias(PLT)	@
.LVL33:
	.loc 1 424 15 is_stmt 1 view .LVU93
@ src/free-packet.c:424:               parsectx->free_last_pkt = 0;
	.loc 1 424 39 is_stmt 0 view .LVU94
	mov	r3, #0	@ tmp125,
	str	r3, [r4, #12]	@ tmp125, parsectx_10(D)->free_last_pkt
	b	.L51		@
.L67:
	.align	2
.L66:
	.word	.LC0-(.LPIC0+8)
	.cfi_endproc
.LFE22:
	.size	free_packet, .-free_packet
	.set	free_packet.localalias,free_packet
	.text
.Letext0:
	.file 2 "/usr/lib/gcc/arm-none-eabi/10.3.1/include/stddef.h"
	.file 3 "/usr/include/newlib/sys/_types.h"
	.file 4 "/usr/include/newlib/sys/types.h"
	.file 5 "src/libgcrypt.h"
	.file 6 "src/common/iobuf.h"
	.file 7 "src/common/openpgpdefs.h"
	.file 8 "src/gcrypt.h"
	.file 9 "src/packet.h"
	.file 10 "src/printf.h"
	.file 11 "src/filter.h"