	.cpu cortex-a7
	.eabi_attribute 20, 1	@ Tag_ABI_FP_denormal
	.eabi_attribute 21, 1	@ Tag_ABI_FP_exceptions
	.eabi_attribute 23, 3	@ Tag_ABI_FP_number_model
	.eabi_attribute 24, 1	@ Tag_ABI_align8_needed
	.eabi_attribute 25, 1	@ Tag_ABI_align8_preserved
	.eabi_attribute 26, 1	@ Tag_ABI_enum_size
	.eabi_attribute 30, 2	@ Tag_ABI_optimization_goals
	.eabi_attribute 34, 1	@ Tag_CPU_unaligned_access
	.eabi_attribute 18, 4	@ Tag_ABI_PCS_wchar_t
	.file	"free-packet.c"
@ GNU C17 (15:10.3-2021.07-4) version 10.3.1 20210621 (release) (arm-none-eabi)
@	compiled by GNU C version 11.2.0, GMP version 6.2.1, MPFR version 4.1.0, MPC version 1.2.1, isl version isl-0.24-GMP

@ GGC heuristics: --param ggc-min-expand=100 --param ggc-min-heapsize=131072
@ options passed:  -I src -I src/common -imultilib thumb/v7-a/nofp
@ -D__USES_INITFINI__ src/free-packet.c -mcpu=cortex-a7 -mfloat-abi=soft
@ -marm -mlibarch=armv7ve -march=armv7ve
@ -auxbase-strip build/asm_output/free-packet.s -g -O2 -Wall -Wextra -fpic
@ -ffreestanding -ffunction-sections -fdata-sections -fno-common
@ -fverbose-asm
@ options enabled:  -faggressive-loop-optimizations -falign-functions
@ -falign-jumps -falign-labels -falign-loops -fallocation-dce
@ -fauto-inc-dec -fbranch-count-reg -fcaller-saves
@ -fcombine-stack-adjustments -fcompare-elim -fcprop-registers
@ -fcrossjumping -fcse-follow-jumps -fdata-sections -fdefer-pop
@ -fdelete-null-pointer-checks -fdevirtualize -fdevirtualize-speculatively
@ -fdwarf2-cfi-asm -fearly-inlining -feliminate-unused-debug-symbols
@ -feliminate-unused-debug-types -fexpensive-optimizations
@ -fforward-propagate -ffp-int-builtin-inexact -ffunction-cse
@ -ffunction-sections -fgcse -fgcse-lm -fgnu-unique
@ -fguess-branch-probability -fhoist-adjacent-loads -fident -fif-conversion
@ -fif-conversion2 -findirect-inlining -finline -finline-atomics
@ -finline-functions -finline-functions-called-once
@ -finline-small-functions -fipa-bit-cp -fipa-cp -fipa-icf
@ -fipa-icf-functions -fipa-icf-variables -fipa-profile -fipa-pure-const
@ -fipa-ra -fipa-reference -fipa-reference-addressable -fipa-sra
@ -fipa-stack-alignment -fipa-vrp -fira-hoist-pressure
@ -fira-share-save-slots -fira-share-spill-slots
@ -fisolate-erroneous-paths-dereference -fivopts -fkeep-static-consts
@ -fleading-underscore -flifetime-dse -flra-remat -fmath-errno
@ -fmerge-constants -fmerge-debug-strings -fmove-loop-invariants
@ -fomit-frame-pointer -foptimize-sibling-calls -foptimize-strlen
@ -fpartial-inlining -fpeephole -fpeephole2 -fpic -fplt
@ -fprefetch-loop-arrays -freg-struct-return -freorder-blocks
@ -freorder-functions -frerun-cse-after-loop
@ -fsched-critical-path-heuristic -fsched-dep-count-heuristic
@ -fsched-group-heuristic -fsched-interblock -fsched-last-insn-heuristic
@ -fsched-pressure -fsched-rank-heuristic -fsched-spec
@ -fsched-spec-insn-heuristic -fsched-stalled-insns-dep -fschedule-insns
@ -fschedule-insns2 -fsection-anchors -fsemantic-interposition
@ -fshow-column -fshrink-wrap -fshrink-wrap-separate -fsigned-zeros
@ -fsplit-ivs-in-unroller -fsplit-wide-types -fssa-backprop -fssa-phiopt
@ -fstdarg-opt -fstore-merging -fstrict-aliasing
@ -fstrict-volatile-bitfields -fsync-libcalls -fthread-jumps
@ -ftoplevel-reorder -ftrapping-math -ftree-bit-ccp -ftree-builtin-call-dce
@ -ftree-ccp -ftree-ch -ftree-coalesce-vars -ftree-copy-prop -ftree-cselim
@ -ftree-dce -ftree-dominator-opts -ftree-dse -ftree-forwprop -ftree-fre
@ -ftree-loop-if-convert -ftree-loop-im -ftree-loop-ivcanon
@ -ftree-loop-optimize -ftree-parallelize-loops= -ftree-phiprop -ftree-pre
@ -ftree-pta -ftree-reassoc -ftree-scev-cprop -ftree-sink -ftree-slsr
@ -ftree-sra -ftree-switch-conversion -ftree-tail-merge -ftree-ter
@ -ftree-vrp -funit-at-a-time -fvar-tracking -fvar-tracking-assignments
@ -fverbose-asm -fzero-initialized-in-bss -marm -mbe32 -mlittle-endian
@ -mpic-data-is-text-relative -msched-prolog -munaligned-access
@ -mvectorize-with-neon-quad -mword-relocations

	.text
.Ltext0:
	.cfi_sections	.debug_frame
	.section	.text.free_symkey_enc,"ax",%progbits
	.align	2
	.global	free_symkey_enc
	.arch armv7ve
	.syntax unified
	.arm
	.fpu softvfp
	.type	free_symkey_enc, %function
free_symkey_enc:
.LVL0:
.LFB19:
	.file 1 "src/free-packet.c"
	.loc 1 50 1 view -0
	.cfi_startproc
	@ args = 0, pretend = 0, frame = 0
	@ frame_needed = 0, uses_anonymous_args = 0
	@ link register save eliminated.
	.loc 1 51 5 view .LVU1
	b	xfree(PLT)	@
.LVL1:
	.loc 1 51 5 is_stmt 0 view .LVU2
	.cfi_endproc
.LFE19:
	.size	free_symkey_enc, .-free_symkey_enc
	.section	.text.free_encrypted,"ax",%progbits
	.align	2
	.global	free_encrypted
	.syntax unified
	.arm
	.fpu softvfp
	.type	free_encrypted, %function
free_encrypted:
.LVL2:
.LFB20:
	.loc 1 353 1 is_stmt 1 view -0
	.cfi_startproc
	@ args = 0, pretend = 0, frame = 0
	@ frame_needed = 0, uses_anonymous_args = 0
	.loc 1 354 3 view .LVU4
@ src/free-packet.c:353: {
	.loc 1 353 1 is_stmt 0 view .LVU5
	push	{r4, lr}	@
	.cfi_def_cfa_offset 8
	.cfi_offset 4, -8
	.cfi_offset 14, -4
@ src/free-packet.c:354:   if (!ed)
	.loc 1 354 6 view .LVU6
	subs	r4, r0, #0	@ ed, tmp127
	popeq	{r4, pc}	@
	.loc 1 357 3 is_stmt 1 view .LVU7
@ src/free-packet.c:357:   if (ed->buf)
	.loc 1 357 9 is_stmt 0 view .LVU8
	ldr	r0, [r4, #16]	@ prephitmp_25, ed_15(D)->buf
.LVL3:
@ src/free-packet.c:357:   if (ed->buf)
	.loc 1 357 6 view .LVU9
	cmp	r0, #0	@ prephitmp_25,
	beq	.L9		@,
	.loc 1 360 7 is_stmt 1 view .LVU10
@ src/free-packet.c:360:       if (ed->is_partial)
	.loc 1 360 10 is_stmt 0 view .LVU11
	ldrb	r3, [r4, #9]	@ zero_extendqisi2	@ ed_15(D)->is_partial, ed_15(D)->is_partial
	cmp	r3, #0	@ ed_15(D)->is_partial,
	bne	.L6		@,
	.loc 1 367 17 is_stmt 1 view .LVU12
@ src/free-packet.c:367:           while (ed->len)
	.loc 1 367 20 is_stmt 0 view .LVU13
	ldr	r2, [r4]	@ _9, ed_15(D)->len
@ src/free-packet.c:367:           while (ed->len)
	.loc 1 367 17 view .LVU14
	cmp	r2, #0	@ _9,
	bne	.L7		@,
	b	.L9		@
.LVL4:
.L23:
.LBB2:
@ src/free-packet.c:374:                 ed->len -= n;
	.loc 1 374 25 view .LVU15
	ldr	r2, [r4]	@ ed_15(D)->len, ed_15(D)->len
	sub	r2, r2, r0	@ _9, ed_15(D)->len, n
	str	r2, [r4]	@ _9, ed_15(D)->len
.LBE2:
	.loc 1 367 17 is_stmt 1 view .LVU16
	cmp	r2, #0	@ _9,
	beq	.L9		@,
.LBB3:
@ src/free-packet.c:370:               int n = iobuf_read( ed->buf, NULL, ed->len );
	.loc 1 370 23 is_stmt 0 view .LVU17
	ldr	r0, [r4, #16]	@ prephitmp_25, ed_15(D)->buf
.LVL5:
.L7:
	.loc 1 370 15 is_stmt 1 view .LVU18
@ src/free-packet.c:370:               int n = iobuf_read( ed->buf, NULL, ed->len );
	.loc 1 370 23 is_stmt 0 view .LVU19
	mov	r1, #0	@,
	bl	iobuf_read(PLT)	@
.LVL6:
	.loc 1 374 17 is_stmt 1 view .LVU20
	.loc 1 371 15 view .LVU21
@ src/free-packet.c:371:               if (n == -1)
	.loc 1 371 18 is_stmt 0 view .LVU22
	cmn	r0, #1	@ n,
	bne	.L23		@,
	mov	r3, #0	@ tmp123,
	str	r3, [r4]	@ tmp123, ed_15(D)->len
.LBE3:
	.loc 1 367 17 is_stmt 1 view .LVU23
.LVL7:
.L9:
	.loc 1 378 3 view .LVU24
	mov	r0, r4	@, ed
@ src/free-packet.c:379: }
	.loc 1 379 1 is_stmt 0 view .LVU25
	pop	{r4, lr}	@
	.cfi_remember_state
	.cfi_restore 14
	.cfi_restore 4
	.cfi_def_cfa_offset 0
.LVL8:
@ src/free-packet.c:378:   xfree (ed);
	.loc 1 378 3 view .LVU26
	b	xfree(PLT)	@
.LVL9:
.L24:
	.cfi_restore_state
@ src/free-packet.c:362:           while (iobuf_read( ed->buf, NULL, 1<<30 ) != -1)
	.loc 1 362 18 view .LVU27
	ldr	r0, [r4, #16]	@ prephitmp_25, ed_15(D)->buf
.L6:
	.loc 1 363 13 is_stmt 1 discriminator 1 view .LVU28
	.loc 1 362 17 discriminator 1 view .LVU29
@ src/free-packet.c:362:           while (iobuf_read( ed->buf, NULL, 1<<30 ) != -1)
	.loc 1 362 18 is_stmt 0 discriminator 1 view .LVU30
	mov	r2, #1073741824	@,
	mov	r1, #0	@,
	bl	iobuf_read(PLT)	@
.LVL10:
@ src/free-packet.c:362:           while (iobuf_read( ed->buf, NULL, 1<<30 ) != -1)
	.loc 1 362 17 discriminator 1 view .LVU31
	cmn	r0, #1	@ tmp128,
	bne	.L24		@,
	.loc 1 378 3 is_stmt 1 view .LVU32
	mov	r0, r4	@, ed
@ src/free-packet.c:379: }
	.loc 1 379 1 is_stmt 0 view .LVU33
	pop	{r4, lr}	@
	.cfi_restore 14
	.cfi_restore 4
	.cfi_def_cfa_offset 0
.LVL11:
@ src/free-packet.c:378:   xfree (ed);
	.loc 1 378 3 view .LVU34
	b	xfree(PLT)	@
.LVL12:
	.loc 1 378 3 view .LVU35
	.cfi_endproc
.LFE20:
	.size	free_encrypted, .-free_encrypted
	.section	.text.free_plaintext,"ax",%progbits
	.align	2
	.global	free_plaintext
	.syntax unified
	.arm
	.fpu softvfp
	.type	free_plaintext, %function
free_plaintext:
.LVL13:
.LFB21:
	.loc 1 384 1 is_stmt 1 view -0
	.cfi_startproc
	@ args = 0, pretend = 0, frame = 0
	@ frame_needed = 0, uses_anonymous_args = 0
	.loc 1 385 3 view .LVU37
@ src/free-packet.c:384: {
	.loc 1 384 1 is_stmt 0 view .LVU38
	push	{r4, lr}	@
	.cfi_def_cfa_offset 8
	.cfi_offset 4, -8
	.cfi_offset 14, -4
@ src/free-packet.c:385:   if (!pt)
	.loc 1 385 6 view .LVU39
	subs	r4, r0, #0	@ pt, tmp127
	popeq	{r4, pc}	@
	.loc 1 388 3 is_stmt 1 view .LVU40
@ src/free-packet.c:388:   if (pt->buf)
	.loc 1 388 9 is_stmt 0 view .LVU41
	ldr	r0, [r4, #4]	@ prephitmp_25, pt_15(D)->buf
.LVL14:
@ src/free-packet.c:388:   if (pt->buf)
	.loc 1 388 6 view .LVU42
	cmp	r0, #0	@ prephitmp_25,
	beq	.L31		@,
	.loc 1 390 7 is_stmt 1 view .LVU43
@ src/free-packet.c:390:       if (pt->is_partial)
	.loc 1 390 10 is_stmt 0 view .LVU44
	ldrb	r3, [r4, #9]	@ zero_extendqisi2	@ pt_15(D)->is_partial, pt_15(D)->is_partial
	cmp	r3, #0	@ pt_15(D)->is_partial,
	bne	.L28		@,
	.loc 1 397 16 is_stmt 1 view .LVU45
@ src/free-packet.c:397:           while( pt->len )
	.loc 1 397 20 is_stmt 0 view .LVU46
	ldr	r2, [r4]	@ _9, pt_15(D)->len
@ src/free-packet.c:397:           while( pt->len )
	.loc 1 397 16 view .LVU47
	cmp	r2, #0	@ _9,
	bne	.L29		@,
	b	.L31		@
.LVL15:
.L45:
.LBB4:
@ src/free-packet.c:403:                 pt->len -= n;
	.loc 1 403 25 view .LVU48
	ldr	r2, [r4]	@ pt_15(D)->len, pt_15(D)->len
	sub	r2, r2, r0	@ _9, pt_15(D)->len, n
	str	r2, [r4]	@ _9, pt_15(D)->len
.LBE4:
	.loc 1 397 16 is_stmt 1 view .LVU49
	cmp	r2, #0	@ _9,
	beq	.L31		@,
.LBB5:
@ src/free-packet.c:399:               int n = iobuf_read( pt->buf, NULL, pt->len );
	.loc 1 399 23 is_stmt 0 view .LVU50
	ldr	r0, [r4, #4]	@ prephitmp_25, pt_15(D)->buf
.LVL16:
.L29:
	.loc 1 399 15 is_stmt 1 view .LVU51
@ src/free-packet.c:399:               int n = iobuf_read( pt->buf, NULL, pt->len );
	.loc 1 399 23 is_stmt 0 view .LVU52
	mov	r1, #0	@,
	bl	iobuf_read(PLT)	@
.LVL17:
	.loc 1 403 17 is_stmt 1 view .LVU53
	.loc 1 400 15 view .LVU54
@ src/free-packet.c:400:               if (n == -1)
	.loc 1 400 18 is_stmt 0 view .LVU55
	cmn	r0, #1	@ n,
	bne	.L45		@,
	mov	r3, #0	@ tmp123,
	str	r3, [r4]	@ tmp123, pt_15(D)->len
.LBE5:
	.loc 1 397 16 is_stmt 1 view .LVU56
.LVL18:
.L31:
	.loc 1 407 3 view .LVU57
	mov	r0, r4	@, pt
@ src/free-packet.c:408: }
	.loc 1 408 1 is_stmt 0 view .LVU58
	pop	{r4, lr}	@
	.cfi_remember_state
	.cfi_restore 14
	.cfi_restore 4
	.cfi_def_cfa_offset 0
.LVL19:
@ src/free-packet.c:407:   xfree (pt);
	.loc 1 407 3 view .LVU59
	b	xfree(PLT)	@
.LVL20:
.L46:
	.cfi_restore_state
@ src/free-packet.c:392:           while (iobuf_read( pt->buf, NULL, 1<<30 ) != -1)
	.loc 1 392 18 view .LVU60
	ldr	r0, [r4, #4]	@ prephitmp_25, pt_15(D)->buf
.L28:
	.loc 1 393 13 is_stmt 1 discriminator 1 view .LVU61
	.loc 1 392 17 discriminator 1 view .LVU62
@ src/free-packet.c:392:           while (iobuf_read( pt->buf, NULL, 1<<30 ) != -1)
	.loc 1 392 18 is_stmt 0 discriminator 1 view .LVU63
	mov	r2, #1073741824	@,
	mov	r1, #0	@,
	bl	iobuf_read(PLT)	@
.LVL21:
@ src/free-packet.c:392:           while (iobuf_read( pt->buf, NULL, 1<<30 ) != -1)
	.loc 1 392 17 discriminator 1 view .LVU64
	cmn	r0, #1	@ tmp128,
	bne	.L46		@,
	.loc 1 407 3 is_stmt 1 view .LVU65
	mov	r0, r4	@, pt
@ src/free-packet.c:408: }
	.loc 1 408 1 is_stmt 0 view .LVU66
	pop	{r4, lr}	@
	.cfi_restore 14
	.cfi_restore 4
	.cfi_def_cfa_offset 0
.LVL22:
@ src/free-packet.c:407:   xfree (pt);
	.loc 1 407 3 view .LVU67
	b	xfree(PLT)	@
.LVL23:
	.loc 1 407 3 view .LVU68
	.cfi_endproc
.LFE21:
	.size	free_plaintext, .-free_plaintext
	.section	.rodata.free_packet.str1.4,"aMS",%progbits,1
	.align	2
.LC0:
	.ascii	"free_packet() type=%d\012\000"
	.section	.text.free_packet,"ax",%progbits
	.align	2
	.global	free_packet
	.syntax unified
	.arm
	.fpu softvfp
	.type	free_packet, %function
free_packet:
.LVL24:
.LFB22:
	.loc 1 416 1 is_stmt 1 view -0
	.cfi_startproc
	@ args = 0, pretend = 0, frame = 0
	@ frame_needed = 0, uses_anonymous_args = 0
	.loc 1 417 3 view .LVU70
@ src/free-packet.c:417:   if (!pkt || !pkt->pkt.generic)
	.loc 1 417 6 is_stmt 0 view .LVU71
	cmp	r0, #0	@ pkt
@ src/free-packet.c:416: {
	.loc 1 416 1 view .LVU72
	push	{r4, lr}	@
	.cfi_def_cfa_offset 8
	.cfi_offset 4, -8
	.cfi_offset 14, -4
@ src/free-packet.c:416: {
	.loc 1 416 1 view .LVU73
	mov	r4, r1	@ parsectx, tmp133
@ src/free-packet.c:417:   if (!pkt || !pkt->pkt.generic)
	.loc 1 417 6 view .LVU74
	beq	.L48		@,
@ src/free-packet.c:417:   if (!pkt || !pkt->pkt.generic)
	.loc 1 417 12 discriminator 1 view .LVU75
	ldr	r3, [r0, #4]	@ pkt_14(D)->pkt.generic, pkt_14(D)->pkt.generic
	cmp	r3, #0	@ pkt_14(D)->pkt.generic,
	beq	.L48		@,
	.loc 1 433 5 is_stmt 1 view .LVU76
	ldrb	r1, [r0]	@ zero_extendqisi2	@, pkt_14(D)->pkttype
.LVL25:
	.loc 1 433 5 is_stmt 0 view .LVU77
	ldr	r0, .L66	@,
.LVL26:
@ src/free-packet.c:488: }
	.loc 1 488 1 view .LVU78
	pop	{r4, lr}	@
	.cfi_remember_state
	.cfi_restore 14
	.cfi_restore 4
	.cfi_def_cfa_offset 0
.LVL27:
@ src/free-packet.c:433:     printf ("free_packet() type=%d\n", pkt->pkttype);
	.loc 1 433 5 view .LVU79
.LPIC0:
	add	r0, pc, r0	@,
	b	tfp_printf(PLT)	@
.LVL28:
.L48:
	.cfi_restore_state
	.loc 1 419 7 is_stmt 1 view .LVU80
@ src/free-packet.c:419:       if (parsectx && parsectx->last_pkt.pkt.generic)
	.loc 1 419 10 is_stmt 0 view .LVU81
	cmp	r4, #0	@ parsectx,
	popeq	{r4, pc}	@
@ src/free-packet.c:419:       if (parsectx && parsectx->last_pkt.pkt.generic)
	.loc 1 419 20 discriminator 1 view .LVU82
	ldr	r3, [r4, #8]	@ parsectx_10(D)->last_pkt.pkt.generic, parsectx_10(D)->last_pkt.pkt.generic
	cmp	r3, #0	@ parsectx_10(D)->last_pkt.pkt.generic,
	popeq	{r4, pc}	@
	.loc 1 421 11 is_stmt 1 view .LVU83
@ src/free-packet.c:421:           if (parsectx->free_last_pkt)
	.loc 1 421 14 is_stmt 0 view .LVU84
	ldr	r3, [r4, #12]	@ parsectx_10(D)->free_last_pkt, parsectx_10(D)->free_last_pkt
	cmp	r3, #0	@ parsectx_10(D)->free_last_pkt,
	bne	.L65		@,
.LVL29:
.L51:
	.loc 1 426 11 is_stmt 1 view .LVU85
@ src/free-packet.c:426:           parsectx->last_pkt.pkttype = 0;
	.loc 1 426 38 is_stmt 0 view .LVU86
	mov	r3, #0	@ tmp126,
	strb	r3, [r4, #4]	@ tmp126, parsectx_10(D)->last_pkt.pkttype
	.loc 1 427 11 is_stmt 1 view .LVU87
@ src/free-packet.c:427:           parsectx->last_pkt.pkt.generic = NULL;
	.loc 1 427 42 is_stmt 0 view .LVU88
	str	r3, [r4, #8]	@ tmp126, parsectx_10(D)->last_pkt.pkt.generic
@ src/free-packet.c:488: }
	.loc 1 488 1 view .LVU89
	pop	{r4, pc}	@
.LVL30:
.L65:
	.loc 1 423 15 is_stmt 1 view .LVU90
	mov	r1, #0	@,
.LVL31:
	.loc 1 423 15 is_stmt 0 view .LVU91
	add	r0, r4, #4	@, parsectx,
.LVL32:
	.loc 1 423 15 view .LVU92
	bl	free_packet.localalias(PLT)	@
.LVL33:
	.loc 1 424 15 is_stmt 1 view .LVU93
@ src/free-packet.c:424:               parsectx->free_last_pkt = 0;
	.loc 1 424 39 is_stmt 0 view .LVU94
	mov	r3, #0	@ tmp125,
	str	r3, [r4, #12]	@ tmp125, parsectx_10(D)->free_last_pkt
	b	.L51		@
.L67:
	.align	2
.L66:
	.word	.LC0-(.LPIC0+8)
	.cfi_endproc
.LFE22:
	.size	free_packet, .-free_packet
	.set	free_packet.localalias,free_packet
	.text
.Letext0:
	.file 2 "/usr/lib/gcc/arm-none-eabi/10.3.1/include/stddef.h"
	.file 3 "/usr/include/newlib/sys/_types.h"
	.file 4 "/usr/include/newlib/sys/types.h"
	.file 5 "src/libgcrypt.h"
	.file 6 "src/common/iobuf.h"
	.file 7 "src/common/openpgpdefs.h"
	.file 8 "src/gcrypt.h"
	.file 9 "src/packet.h"
	.file 10 "src/printf.h"
	.file 11 "src/filter.h"
	.section	.debug_info,"",%progbits
.Ldebug_info0:
	.4byte	0x132a
	.2byte	0x4
	.4byte	.Ldebug_abbrev0
	.byte	0x4
	.uleb128 0x1
	.4byte	.LASF214
	.byte	0xc
	.4byte	.LASF215
	.4byte	.LASF216
	.4byte	.Ldebug_ranges0+0x30
	.4byte	0
	.4byte	.Ldebug_line0
	.uleb128 0x2
	.byte	0x1
	.byte	0x6
	.4byte	.LASF0
	.uleb128 0x2
	.byte	0x1
	.byte	0x8
	.4byte	.LASF1
	.uleb128 0x2
	.byte	0x2
	.byte	0x5
	.4byte	.LASF2
	.uleb128 0x2
	.byte	0x2
	.byte	0x7
	.4byte	.LASF3
	.uleb128 0x2
	.byte	0x4
	.byte	0x5
	.4byte	.LASF4
	.uleb128 0x2
	.byte	0x4
	.byte	0x7
	.4byte	.LASF5
	.uleb128 0x2
	.byte	0x8
	.byte	0x5
	.4byte	.LASF6
	.uleb128 0x2
	.byte	0x8
	.byte	0x7
	.4byte	.LASF7
	.uleb128 0x3
	.byte	0x4
	.byte	0x5
	.ascii	"int\000"
	.uleb128 0x2
	.byte	0x4
	.byte	0x7
	.4byte	.LASF8
	.uleb128 0x4
	.4byte	.LASF10
	.byte	0x2
	.byte	0xd1
	.byte	0x17
	.4byte	0x64
	.uleb128 0x2
	.byte	0x8
	.byte	0x4
	.4byte	.LASF9
	.uleb128 0x5
	.byte	0x4
	.uleb128 0x4
	.4byte	.LASF11
	.byte	0x3
	.byte	0x2e
	.byte	0xe
	.4byte	0x41
	.uleb128 0x4
	.4byte	.LASF12
	.byte	0x3
	.byte	0x66
	.byte	0x10
	.4byte	0x80
	.uleb128 0x6
	.byte	0x4
	.4byte	0x9e
	.uleb128 0x2
	.byte	0x1
	.byte	0x8
	.4byte	.LASF13
	.uleb128 0x4
	.4byte	.LASF14
	.byte	0x4
	.byte	0x9d
	.byte	0x12
	.4byte	0x8c
	.uleb128 0x7
	.ascii	"u16\000"
	.byte	0x5
	.byte	0xb
	.byte	0x1c
	.4byte	0x3a
	.uleb128 0x7
	.ascii	"u32\000"
	.byte	0x5
	.byte	0xc
	.byte	0x16
	.4byte	0x64
	.uleb128 0x4
	.4byte	.LASF15
	.byte	0x5
	.byte	0xd
	.byte	0x17
	.4byte	0x2c
	.uleb128 0x8
	.4byte	0xc9
	.uleb128 0x9
	.4byte	0x9e
	.4byte	0xea
	.uleb128 0xa
	.4byte	0x64
	.byte	0
	.byte	0
	.uleb128 0x2
	.byte	0x4
	.byte	0x4
	.4byte	.LASF16
	.uleb128 0x2
	.byte	0x8
	.byte	0x4
	.4byte	.LASF17
	.uleb128 0xb
	.4byte	.LASF217
	.byte	0x7
	.byte	0x1
	.4byte	0x2c
	.byte	0x6
	.byte	0x8c
	.byte	0x6
	.4byte	0x123
	.uleb128 0xc
	.4byte	.LASF18
	.byte	0
	.uleb128 0xc
	.4byte	.LASF19
	.byte	0x1
	.uleb128 0xc
	.4byte	.LASF20
	.byte	0x2
	.uleb128 0xc
	.4byte	.LASF21
	.byte	0x3
	.byte	0
	.uleb128 0x4
	.4byte	.LASF22
	.byte	0x6
	.byte	0xa0
	.byte	0x1e
	.4byte	0x12f
	.uleb128 0x6
	.byte	0x4
	.4byte	0x135
	.uleb128 0xd
	.4byte	.LASF62
	.byte	0x48
	.byte	0x6
	.byte	0xa4
	.byte	0x8
	.4byte	0x205
	.uleb128 0xe
	.ascii	"use\000"
	.byte	0x6
	.byte	0xa8
	.byte	0x12
	.4byte	0xf8
	.byte	0
	.uleb128 0xf
	.4byte	.LASF23
	.byte	0x6
	.byte	0xad
	.byte	0x9
	.4byte	0xa5
	.byte	0x4
	.uleb128 0xf
	.4byte	.LASF24
	.byte	0x6
	.byte	0xb1
	.byte	0x9
	.4byte	0xa5
	.byte	0x8
	.uleb128 0xf
	.4byte	.LASF25
	.byte	0x6
	.byte	0xb6
	.byte	0x9
	.4byte	0xa5
	.byte	0xc
	.uleb128 0xf
	.4byte	.LASF26
	.byte	0x6
	.byte	0xbb
	.byte	0x7
	.4byte	0x5d
	.byte	0x10
	.uleb128 0xe
	.ascii	"d\000"
	.byte	0x6
	.byte	0xdd
	.byte	0x5
	.4byte	0x205
	.byte	0x14
	.uleb128 0xf
	.4byte	.LASF27
	.byte	0x6
	.byte	0xe3
	.byte	0x7
	.4byte	0x5d
	.byte	0x24
	.uleb128 0xf
	.4byte	.LASF28
	.byte	0x6
	.byte	0xe9
	.byte	0x7
	.4byte	0x5d
	.byte	0x28
	.uleb128 0xf
	.4byte	.LASF29
	.byte	0x6
	.byte	0xed
	.byte	0x9
	.4byte	0x272
	.byte	0x2c
	.uleb128 0xf
	.4byte	.LASF30
	.byte	0x6
	.byte	0xf1
	.byte	0x9
	.4byte	0x7e
	.byte	0x30
	.uleb128 0xf
	.4byte	.LASF31
	.byte	0x6
	.byte	0xf4
	.byte	0x7
	.4byte	0x5d
	.byte	0x34
	.uleb128 0xf
	.4byte	.LASF32
	.byte	0x6
	.byte	0xfa
	.byte	0x9
	.4byte	0x98
	.byte	0x38
	.uleb128 0xf
	.4byte	.LASF33
	.byte	0x6
	.byte	0xfd
	.byte	0xb
	.4byte	0x123
	.byte	0x3c
	.uleb128 0x10
	.ascii	"no\000"
	.byte	0x6
	.2byte	0x103
	.byte	0x7
	.4byte	0x5d
	.byte	0x40
	.uleb128 0x11
	.4byte	.LASF34
	.byte	0x6
	.2byte	0x10b
	.byte	0x7
	.4byte	0x5d
	.byte	0x44
	.byte	0
	.uleb128 0x12
	.byte	0x10
	.byte	0x6
	.byte	0xcf
	.byte	0x3
	.4byte	0x243
	.uleb128 0xf
	.4byte	.LASF35
	.byte	0x6
	.byte	0xd2
	.byte	0xc
	.4byte	0x6b
	.byte	0
	.uleb128 0xf
	.4byte	.LASF36
	.byte	0x6
	.byte	0xd7
	.byte	0xc
	.4byte	0x6b
	.byte	0x4
	.uleb128 0xe
	.ascii	"len\000"
	.byte	0x6
	.byte	0xda
	.byte	0xc
	.4byte	0x6b
	.byte	0x8
	.uleb128 0xe
	.ascii	"buf\000"
	.byte	0x6
	.byte	0xdc
	.byte	0xb
	.4byte	0x243
	.byte	0xc
	.byte	0
	.uleb128 0x6
	.byte	0x4
	.4byte	0xc9
	.uleb128 0x13
	.4byte	0x5d
	.4byte	0x26c
	.uleb128 0x14
	.4byte	0x7e
	.uleb128 0x14
	.4byte	0x5d
	.uleb128 0x14
	.4byte	0x123
	.uleb128 0x14
	.4byte	0x243
	.uleb128 0x14
	.4byte	0x26c
	.byte	0
	.uleb128 0x6
	.byte	0x4
	.4byte	0x6b
	.uleb128 0x6
	.byte	0x4
	.4byte	0x249
	.uleb128 0x9
	.4byte	0xc9
	.4byte	0x288
	.uleb128 0xa
	.4byte	0x64
	.byte	0xf
	.byte	0
	.uleb128 0x15
	.byte	0x7
	.byte	0x1
	.4byte	0x2c
	.byte	0x7
	.byte	0x22
	.byte	0x3
	.4byte	0x31b
	.uleb128 0xc
	.4byte	.LASF37
	.byte	0
	.uleb128 0xc
	.4byte	.LASF38
	.byte	0x1
	.uleb128 0xc
	.4byte	.LASF39
	.byte	0x2
	.uleb128 0xc
	.4byte	.LASF40
	.byte	0x3
	.uleb128 0xc
	.4byte	.LASF41
	.byte	0x4
	.uleb128 0xc
	.4byte	.LASF42
	.byte	0x5
	.uleb128 0xc
	.4byte	.LASF43
	.byte	0x6
	.uleb128 0xc
	.4byte	.LASF44
	.byte	0x7
	.uleb128 0xc
	.4byte	.LASF45
	.byte	0x8
	.uleb128 0xc
	.4byte	.LASF46
	.byte	0x9
	.uleb128 0xc
	.4byte	.LASF47
	.byte	0xa
	.uleb128 0xc
	.4byte	.LASF48
	.byte	0xb
	.uleb128 0xc
	.4byte	.LASF49
	.byte	0xc
	.uleb128 0xc
	.4byte	.LASF50
	.byte	0xd
	.uleb128 0xc
	.4byte	.LASF51
	.byte	0xe
	.uleb128 0xc
	.4byte	.LASF52
	.byte	0x10
	.uleb128 0xc
	.4byte	.LASF53
	.byte	0x11
	.uleb128 0xc
	.4byte	.LASF54
	.byte	0x12
	.uleb128 0xc
	.4byte	.LASF55
	.byte	0x13
	.uleb128 0xc
	.4byte	.LASF56
	.byte	0x14
	.uleb128 0xc
	.4byte	.LASF57
	.byte	0x3d
	.uleb128 0xc
	.4byte	.LASF58
	.byte	0x3f
	.byte	0
	.uleb128 0x4
	.4byte	.LASF59
	.byte	0x7
	.byte	0x3a
	.byte	0x1
	.4byte	0x288
	.uleb128 0x4
	.4byte	.LASF60
	.byte	0x8
	.byte	0xe4
	.byte	0x1a
	.4byte	0x333
	.uleb128 0x6
	.byte	0x4
	.4byte	0x339
	.uleb128 0x16
	.4byte	.LASF119
	.uleb128 0x4
	.4byte	.LASF61
	.byte	0x9
	.byte	0x46
	.byte	0x1e
	.4byte	0x34a
	.uleb128 0x17
	.4byte	.LASF63
	.byte	0x8
	.byte	0x9
	.2byte	0x22e
	.byte	0x8
	.4byte	0x375
	.uleb128 0x11
	.4byte	.LASF64
	.byte	0x9
	.2byte	0x22f
	.byte	0xf
	.4byte	0x31b
	.byte	0
	.uleb128 0x10
	.ascii	"pkt\000"
	.byte	0x9
	.2byte	0x23f
	.byte	0x7
	.4byte	0xf86
	.byte	0x4
	.byte	0
	.uleb128 0x12
	.byte	0x2
	.byte	0x9
	.byte	0x57
	.byte	0x9
	.4byte	0x399
	.uleb128 0xf
	.4byte	.LASF65
	.byte	0x9
	.byte	0x58
	.byte	0xa
	.4byte	0xc9
	.byte	0
	.uleb128 0xf
	.4byte	.LASF66
	.byte	0x9
	.byte	0x59
	.byte	0xa
	.4byte	0xc9
	.byte	0x1
	.byte	0
	.uleb128 0x4
	.4byte	.LASF67
	.byte	0x9
	.byte	0x5a
	.byte	0x3
	.4byte	0x375
	.uleb128 0x12
	.byte	0x14
	.byte	0x9
	.byte	0x5d
	.byte	0x9
	.4byte	0x3e3
	.uleb128 0xf
	.4byte	.LASF68
	.byte	0x9
	.byte	0x5f
	.byte	0x8
	.4byte	0x5d
	.byte	0
	.uleb128 0xf
	.4byte	.LASF69
	.byte	0x9
	.byte	0x60
	.byte	0x8
	.4byte	0xc9
	.byte	0x4
	.uleb128 0xf
	.4byte	.LASF70
	.byte	0x9
	.byte	0x61
	.byte	0x8
	.4byte	0x3e3
	.byte	0x5
	.uleb128 0xf
	.4byte	.LASF71
	.byte	0x9
	.byte	0x63
	.byte	0x8
	.4byte	0xbd
	.byte	0x10
	.byte	0
	.uleb128 0x9
	.4byte	0xc9
	.4byte	0x3f3
	.uleb128 0xa
	.4byte	0x64
	.byte	0x7
	.byte	0
	.uleb128 0x4
	.4byte	.LASF72
	.byte	0x9
	.byte	0x64
	.byte	0x3
	.4byte	0x3a5
	.uleb128 0x12
	.byte	0x1c
	.byte	0x9
	.byte	0x68
	.byte	0x9
	.4byte	0x457
	.uleb128 0xf
	.4byte	.LASF73
	.byte	0x9
	.byte	0x6a
	.byte	0x8
	.4byte	0xc9
	.byte	0
	.uleb128 0xf
	.4byte	.LASF74
	.byte	0x9
	.byte	0x6e
	.byte	0x8
	.4byte	0xc9
	.byte	0x1
	.uleb128 0xf
	.4byte	.LASF75
	.byte	0x9
	.byte	0x70
	.byte	0x8
	.4byte	0xc9
	.byte	0x2
	.uleb128 0xe
	.ascii	"s2k\000"
	.byte	0x9
	.byte	0x72
	.byte	0xe
	.4byte	0x3f3
	.byte	0x4
	.uleb128 0xf
	.4byte	.LASF76
	.byte	0x9
	.byte	0x77
	.byte	0x8
	.4byte	0xc9
	.byte	0x18
	.uleb128 0xf
	.4byte	.LASF77
	.byte	0x9
	.byte	0x7a
	.byte	0x8
	.4byte	0x457
	.byte	0x19
	.byte	0
	.uleb128 0x9
	.4byte	0xc9
	.4byte	0x467
	.uleb128 0xa
	.4byte	0x64
	.byte	0
	.byte	0
	.uleb128 0x4
	.4byte	.LASF78
	.byte	0x9
	.byte	0x7b
	.byte	0x3
	.4byte	0x3ff
	.uleb128 0x12
	.byte	0x14
	.byte	0x9
	.byte	0x7f
	.byte	0x9
	.4byte	0x4be
	.uleb128 0xf
	.4byte	.LASF79
	.byte	0x9
	.byte	0x81
	.byte	0xb
	.4byte	0x4be
	.byte	0
	.uleb128 0xf
	.4byte	.LASF73
	.byte	0x9
	.byte	0x83
	.byte	0xb
	.4byte	0xc9
	.byte	0x8
	.uleb128 0xf
	.4byte	.LASF80
	.byte	0x9
	.byte	0x85
	.byte	0xb
	.4byte	0xc9
	.byte	0x9
	.uleb128 0xf
	.4byte	.LASF81
	.byte	0x9
	.byte	0x88
	.byte	0xb
	.4byte	0xc9
	.byte	0xa
	.uleb128 0xf
	.4byte	.LASF82
	.byte	0x9
	.byte	0x8a
	.byte	0x12
	.4byte	0x4ce
	.byte	0xc
	.byte	0
	.uleb128 0x9
	.4byte	0xbd
	.4byte	0x4ce
	.uleb128 0xa
	.4byte	0x64
	.byte	0x1
	.byte	0
	.uleb128 0x9
	.4byte	0x327
	.4byte	0x4de
	.uleb128 0xa
	.4byte	0x64
	.byte	0x1
	.byte	0
	.uleb128 0x4
	.4byte	.LASF83
	.byte	0x9
	.byte	0x8b
	.byte	0x3
	.4byte	0x473
	.uleb128 0x12
	.byte	0xc
	.byte	0x9
	.byte	0x90
	.byte	0x9
	.4byte	0x535
	.uleb128 0xf
	.4byte	.LASF79
	.byte	0x9
	.byte	0x91
	.byte	0xd
	.4byte	0x4be
	.byte	0
	.uleb128 0xf
	.4byte	.LASF84
	.byte	0x9
	.byte	0x93
	.byte	0xd
	.4byte	0xc9
	.byte	0x8
	.uleb128 0xf
	.4byte	.LASF85
	.byte	0x9
	.byte	0x94
	.byte	0xd
	.4byte	0xc9
	.byte	0x9
	.uleb128 0xf
	.4byte	.LASF80
	.byte	0x9
	.byte	0x95
	.byte	0xd
	.4byte	0xc9
	.byte	0xa
	.uleb128 0xf
	.4byte	.LASF86
	.byte	0x9
	.byte	0x9e
	.byte	0xd
	.4byte	0xc9
	.byte	0xb
	.byte	0
	.uleb128 0x4
	.4byte	.LASF87
	.byte	0x9
	.byte	0x9f
	.byte	0x3
	.4byte	0x4ea
	.uleb128 0x12
	.byte	0xc
	.byte	0x9
	.byte	0xa6
	.byte	0x9
	.4byte	0x572
	.uleb128 0xf
	.4byte	.LASF35
	.byte	0x9
	.byte	0xa7
	.byte	0xc
	.4byte	0x6b
	.byte	0
	.uleb128 0xe
	.ascii	"len\000"
	.byte	0x9
	.byte	0xa8
	.byte	0xc
	.4byte	0x6b
	.byte	0x4
	.uleb128 0xf
	.4byte	.LASF82
	.byte	0x9
	.byte	0xa9
	.byte	0xa
	.4byte	0x457
	.byte	0x8
	.byte	0
	.uleb128 0x4
	.4byte	.LASF88
	.byte	0x9
	.byte	0xaa
	.byte	0x3
	.4byte	0x541
	.uleb128 0x12
	.byte	0x24
	.byte	0x9
	.byte	0xbb
	.byte	0x9
	.4byte	0x5c9
	.uleb128 0xf
	.4byte	.LASF89
	.byte	0x9
	.byte	0xbd
	.byte	0x7
	.4byte	0x5d
	.byte	0
	.uleb128 0xf
	.4byte	.LASF90
	.byte	0x9
	.byte	0xbe
	.byte	0x7
	.4byte	0x5d
	.byte	0x4
	.uleb128 0xe
	.ascii	"uri\000"
	.byte	0x9
	.byte	0xc0
	.byte	0x9
	.4byte	0x98
	.byte	0x8
	.uleb128 0xe
	.ascii	"fpr\000"
	.byte	0x9
	.byte	0xc2
	.byte	0x11
	.4byte	0x5c9
	.byte	0xc
	.uleb128 0xf
	.4byte	.LASF91
	.byte	0x9
	.byte	0xc3
	.byte	0x8
	.4byte	0xda
	.byte	0x20
	.byte	0
	.uleb128 0x9
	.4byte	0x2c
	.4byte	0x5d9
	.uleb128 0xa
	.4byte	0x64
	.byte	0x13
	.byte	0
	.uleb128 0x4
	.4byte	.LASF92
	.byte	0x9
	.byte	0xc4
	.byte	0x3
	.4byte	0x57e
	.uleb128 0x12
	.byte	0x4
	.byte	0x9
	.byte	0xce
	.byte	0x3
	.4byte	0x6af
	.uleb128 0x18
	.4byte	.LASF90
	.byte	0x9
	.byte	0xd0
	.byte	0xe
	.4byte	0x64
	.byte	0x4
	.byte	0x1
	.byte	0x1f
	.byte	0
	.uleb128 0x18
	.4byte	.LASF89
	.byte	0x9
	.byte	0xd1
	.byte	0xe
	.4byte	0x64
	.byte	0x4
	.byte	0x1
	.byte	0x1e
	.byte	0
	.uleb128 0x18
	.4byte	.LASF93
	.byte	0x9
	.byte	0xd2
	.byte	0xe
	.4byte	0x64
	.byte	0x4
	.byte	0x1
	.byte	0x1d
	.byte	0
	.uleb128 0x18
	.4byte	.LASF94
	.byte	0x9
	.byte	0xd3
	.byte	0xe
	.4byte	0x64
	.byte	0x4
	.byte	0x1
	.byte	0x1c
	.byte	0
	.uleb128 0x18
	.4byte	.LASF95
	.byte	0x9
	.byte	0xd4
	.byte	0xe
	.4byte	0x64
	.byte	0x4
	.byte	0x1
	.byte	0x1b
	.byte	0
	.uleb128 0x18
	.4byte	.LASF96
	.byte	0x9
	.byte	0xd5
	.byte	0xe
	.4byte	0x64
	.byte	0x4
	.byte	0x1
	.byte	0x1a
	.byte	0
	.uleb128 0x18
	.4byte	.LASF97
	.byte	0x9
	.byte	0xd6
	.byte	0xe
	.4byte	0x64
	.byte	0x4
	.byte	0x1
	.byte	0x19
	.byte	0
	.uleb128 0x18
	.4byte	.LASF98
	.byte	0x9
	.byte	0xd7
	.byte	0xe
	.4byte	0x64
	.byte	0x4
	.byte	0x1
	.byte	0x18
	.byte	0
	.uleb128 0x18
	.4byte	.LASF99
	.byte	0x9
	.byte	0xd8
	.byte	0xe
	.4byte	0x64
	.byte	0x4
	.byte	0x1
	.byte	0x17
	.byte	0
	.uleb128 0x18
	.4byte	.LASF100
	.byte	0x9
	.byte	0xd9
	.byte	0xe
	.4byte	0x64
	.byte	0x4
	.byte	0x1
	.byte	0x16
	.byte	0
	.uleb128 0x18
	.4byte	.LASF101
	.byte	0x9
	.byte	0xda
	.byte	0xe
	.4byte	0x64
	.byte	0x4
	.byte	0x1
	.byte	0x15
	.byte	0
	.uleb128 0x18
	.4byte	.LASF102
	.byte	0x9
	.byte	0xdb
	.byte	0xe
	.4byte	0x64
	.byte	0x4
	.byte	0x1
	.byte	0x14
	.byte	0
	.byte	0
	.uleb128 0x12
	.byte	0x8c
	.byte	0x9
	.byte	0xcc
	.byte	0x9
	.4byte	0x7db
	.uleb128 0xf
	.4byte	.LASF103
	.byte	0x9
	.byte	0xdc
	.byte	0x5
	.4byte	0x5e5
	.byte	0
	.uleb128 0xf
	.4byte	.LASF79
	.byte	0x9
	.byte	0xe0
	.byte	0xb
	.4byte	0x4be
	.byte	0x4
	.uleb128 0xf
	.4byte	.LASF104
	.byte	0x9
	.byte	0xe4
	.byte	0xb
	.4byte	0xbd
	.byte	0xc
	.uleb128 0xf
	.4byte	.LASF105
	.byte	0x9
	.byte	0xe5
	.byte	0xb
	.4byte	0xbd
	.byte	0x10
	.uleb128 0xf
	.4byte	.LASF73
	.byte	0x9
	.byte	0xe8
	.byte	0xb
	.4byte	0xc9
	.byte	0x14
	.uleb128 0xf
	.4byte	.LASF84
	.byte	0x9
	.byte	0xea
	.byte	0xb
	.4byte	0xc9
	.byte	0x15
	.uleb128 0xf
	.4byte	.LASF80
	.byte	0x9
	.byte	0xed
	.byte	0xb
	.4byte	0xc9
	.byte	0x16
	.uleb128 0xf
	.4byte	.LASF85
	.byte	0x9
	.byte	0xf0
	.byte	0xb
	.4byte	0xc9
	.byte	0x17
	.uleb128 0xf
	.4byte	.LASF106
	.byte	0x9
	.byte	0xf1
	.byte	0xb
	.4byte	0xc9
	.byte	0x18
	.uleb128 0xf
	.4byte	.LASF107
	.byte	0x9
	.byte	0xf2
	.byte	0xb
	.4byte	0xc9
	.byte	0x19
	.uleb128 0xf
	.4byte	.LASF108
	.byte	0x9
	.byte	0xf3
	.byte	0xf
	.4byte	0x7db
	.byte	0x1c
	.uleb128 0xf
	.4byte	.LASF109
	.byte	0x9
	.byte	0xf4
	.byte	0x1a
	.4byte	0x7e6
	.byte	0x20
	.uleb128 0xf
	.4byte	.LASF110
	.byte	0x9
	.byte	0xf5
	.byte	0x7
	.4byte	0x5d
	.byte	0x24
	.uleb128 0xf
	.4byte	.LASF111
	.byte	0x9
	.byte	0xf6
	.byte	0x7
	.4byte	0x5d
	.byte	0x28
	.uleb128 0xf
	.4byte	.LASF112
	.byte	0x9
	.byte	0xf7
	.byte	0xf
	.4byte	0x7ec
	.byte	0x2c
	.uleb128 0xf
	.4byte	.LASF113
	.byte	0x9
	.byte	0xf9
	.byte	0x9
	.4byte	0x98
	.byte	0x30
	.uleb128 0xf
	.4byte	.LASF114
	.byte	0x9
	.byte	0xfc
	.byte	0x11
	.4byte	0x7f2
	.byte	0x34
	.uleb128 0xf
	.4byte	.LASF115
	.byte	0x9
	.byte	0xfd
	.byte	0x11
	.4byte	0x7f2
	.byte	0x38
	.uleb128 0x11
	.4byte	.LASF116
	.byte	0x9
	.2byte	0x100
	.byte	0x8
	.4byte	0x7f8
	.byte	0x3c
	.uleb128 0x11
	.4byte	.LASF82
	.byte	0x9
	.2byte	0x102
	.byte	0xf
	.4byte	0x4ce
	.byte	0x40
	.uleb128 0x11
	.4byte	.LASF117
	.byte	0x9
	.2byte	0x106
	.byte	0x8
	.4byte	0x808
	.byte	0x48
	.uleb128 0x11
	.4byte	.LASF118
	.byte	0x9
	.2byte	0x107
	.byte	0x7
	.4byte	0x5d
	.byte	0x88
	.byte	0
	.uleb128 0x6
	.byte	0x4
	.4byte	0xd5
	.uleb128 0x16
	.4byte	.LASF120
	.uleb128 0x6
	.byte	0x4
	.4byte	0x7e1
	.uleb128 0x6
	.byte	0x4
	.4byte	0x5d9
	.uleb128 0x6
	.byte	0x4
	.4byte	0x572
	.uleb128 0x9
	.4byte	0xc9
	.4byte	0x808
	.uleb128 0xa
	.4byte	0x64
	.byte	0x1
	.byte	0
	.uleb128 0x9
	.4byte	0xc9
	.4byte	0x818
	.uleb128 0xa
	.4byte	0x64
	.byte	0x3f
	.byte	0
	.uleb128 0x19
	.4byte	.LASF121
	.byte	0x9
	.2byte	0x108
	.byte	0x3
	.4byte	0x6af
	.uleb128 0x17
	.4byte	.LASF122
	.byte	0xc
	.byte	0x9
	.2byte	0x10d
	.byte	0x8
	.4byte	0x85e
	.uleb128 0x11
	.4byte	.LASF65
	.byte	0x9
	.2byte	0x10e
	.byte	0x8
	.4byte	0xc9
	.byte	0
	.uleb128 0x11
	.4byte	.LASF82
	.byte	0x9
	.2byte	0x10f
	.byte	0xf
	.4byte	0x7db
	.byte	0x4
	.uleb128 0x10
	.ascii	"len\000"
	.byte	0x9
	.2byte	0x110
	.byte	0x7
	.4byte	0xbd
	.byte	0x8
	.byte	0
	.uleb128 0x1a
	.byte	0x4
	.byte	0x9
	.2byte	0x130
	.byte	0x3
	.4byte	0x8e0
	.uleb128 0x1b
	.ascii	"mdc\000"
	.byte	0x9
	.2byte	0x132
	.byte	0x12
	.4byte	0x64
	.byte	0x4
	.byte	0x1
	.byte	0x1f
	.byte	0
	.uleb128 0x1c
	.4byte	.LASF123
	.byte	0x9
	.2byte	0x133
	.byte	0x12
	.4byte	0x64
	.byte	0x4
	.byte	0x1
	.byte	0x1e
	.byte	0
	.uleb128 0x1c
	.4byte	.LASF124
	.byte	0x9
	.2byte	0x134
	.byte	0x12
	.4byte	0x64
	.byte	0x4
	.byte	0x1
	.byte	0x1d
	.byte	0
	.uleb128 0x1c
	.4byte	.LASF125
	.byte	0x9
	.2byte	0x135
	.byte	0x12
	.4byte	0x64
	.byte	0x4
	.byte	0x1
	.byte	0x1c
	.byte	0
	.uleb128 0x1c
	.4byte	.LASF126
	.byte	0x9
	.2byte	0x136
	.byte	0x12
	.4byte	0x64
	.byte	0x4
	.byte	0x2
	.byte	0x1a
	.byte	0
	.uleb128 0x1c
	.4byte	.LASF127
	.byte	0x9
	.2byte	0x137
	.byte	0x12
	.4byte	0x64
	.byte	0x4
	.byte	0x1
	.byte	0x19
	.byte	0
	.uleb128 0x1c
	.4byte	.LASF101
	.byte	0x9
	.2byte	0x138
	.byte	0x12
	.4byte	0x64
	.byte	0x4
	.byte	0x1
	.byte	0x18
	.byte	0
	.byte	0
	.uleb128 0x1a
	.byte	0x50
	.byte	0x9
	.2byte	0x118
	.byte	0x9
	.4byte	0xa11
	.uleb128 0x10
	.ascii	"ref\000"
	.byte	0x9
	.2byte	0x11a
	.byte	0x7
	.4byte	0x5d
	.byte	0
	.uleb128 0x10
	.ascii	"len\000"
	.byte	0x9
	.2byte	0x11c
	.byte	0x7
	.4byte	0x5d
	.byte	0x4
	.uleb128 0x11
	.4byte	.LASF128
	.byte	0x9
	.2byte	0x11d
	.byte	0x1a
	.4byte	0xa11
	.byte	0x8
	.uleb128 0x11
	.4byte	.LASF129
	.byte	0x9
	.2byte	0x11e
	.byte	0x7
	.4byte	0x5d
	.byte	0xc
	.uleb128 0x11
	.4byte	.LASF130
	.byte	0x9
	.2byte	0x121
	.byte	0x9
	.4byte	0x243
	.byte	0x10
	.uleb128 0x11
	.4byte	.LASF131
	.byte	0x9
	.2byte	0x123
	.byte	0x11
	.4byte	0x48
	.byte	0x14
	.uleb128 0x11
	.4byte	.LASF132
	.byte	0x9
	.2byte	0x124
	.byte	0x9
	.4byte	0x243
	.byte	0x18
	.uleb128 0x11
	.4byte	.LASF133
	.byte	0x9
	.2byte	0x125
	.byte	0x7
	.4byte	0xb1
	.byte	0x1c
	.uleb128 0x11
	.4byte	.LASF134
	.byte	0x9
	.2byte	0x126
	.byte	0x7
	.4byte	0xbd
	.byte	0x20
	.uleb128 0x11
	.4byte	.LASF135
	.byte	0x9
	.2byte	0x127
	.byte	0x7
	.4byte	0x5d
	.byte	0x24
	.uleb128 0x11
	.4byte	.LASF136
	.byte	0x9
	.2byte	0x128
	.byte	0x7
	.4byte	0x5d
	.byte	0x28
	.uleb128 0x11
	.4byte	.LASF105
	.byte	0x9
	.2byte	0x129
	.byte	0x7
	.4byte	0xbd
	.byte	0x2c
	.uleb128 0x11
	.4byte	.LASF137
	.byte	0x9
	.2byte	0x12a
	.byte	0xf
	.4byte	0xa17
	.byte	0x30
	.uleb128 0x11
	.4byte	.LASF138
	.byte	0x9
	.2byte	0x12b
	.byte	0x7
	.4byte	0xbd
	.byte	0x34
	.uleb128 0x11
	.4byte	.LASF139
	.byte	0x9
	.2byte	0x12c
	.byte	0x7
	.4byte	0xbd
	.byte	0x38
	.uleb128 0x11
	.4byte	.LASF140
	.byte	0x9
	.2byte	0x12d
	.byte	0x9
	.4byte	0x98
	.byte	0x3c
	.uleb128 0x11
	.4byte	.LASF141
	.byte	0x9
	.2byte	0x12e
	.byte	0x8
	.4byte	0xc9
	.byte	0x40
	.uleb128 0x11
	.4byte	.LASF142
	.byte	0x9
	.2byte	0x12f
	.byte	0x8
	.4byte	0xc9
	.byte	0x41
	.uleb128 0x11
	.4byte	.LASF103
	.byte	0x9
	.2byte	0x139
	.byte	0x5
	.4byte	0x85e
	.byte	0x44
	.uleb128 0x11
	.4byte	.LASF143
	.byte	0x9
	.2byte	0x13b
	.byte	0x9
	.4byte	0x98
	.byte	0x48
	.uleb128 0x11
	.4byte	.LASF144
	.byte	0x9
	.2byte	0x140
	.byte	0x8
	.4byte	0xda
	.byte	0x4c
	.byte	0
	.uleb128 0x6
	.byte	0x4
	.4byte	0x825
	.uleb128 0x6
	.byte	0x4
	.4byte	0x399
	.uleb128 0x19
	.4byte	.LASF145
	.byte	0x9
	.2byte	0x141
	.byte	0x3
	.4byte	0x8e0
	.uleb128 0x17
	.4byte	.LASF146
	.byte	0x10
	.byte	0x9
	.2byte	0x145
	.byte	0x8
	.4byte	0xa63
	.uleb128 0x11
	.4byte	.LASF147
	.byte	0x9
	.2byte	0x148
	.byte	0x7
	.4byte	0xbd
	.byte	0
	.uleb128 0x11
	.4byte	.LASF79
	.byte	0x9
	.2byte	0x14a
	.byte	0x7
	.4byte	0x4be
	.byte	0x4
	.uleb128 0x11
	.4byte	.LASF148
	.byte	0x9
	.2byte	0x14c
	.byte	0x8
	.4byte	0xc9
	.byte	0xc
	.byte	0
	.uleb128 0x17
	.4byte	.LASF149
	.byte	0x30
	.byte	0x9
	.2byte	0x151
	.byte	0x8
	.4byte	0xad9
	.uleb128 0x1c
	.4byte	.LASF150
	.byte	0x9
	.2byte	0x153
	.byte	0x7
	.4byte	0x5d
	.byte	0x4
	.byte	0x1
	.byte	0x1f
	.byte	0
	.uleb128 0x1c
	.4byte	.LASF151
	.byte	0x9
	.2byte	0x157
	.byte	0x7
	.4byte	0x5d
	.byte	0x4
	.byte	0x1
	.byte	0x1e
	.byte	0
	.uleb128 0x11
	.4byte	.LASF152
	.byte	0x9
	.2byte	0x158
	.byte	0x7
	.4byte	0xb1
	.byte	0x2
	.uleb128 0x11
	.4byte	.LASF148
	.byte	0x9
	.2byte	0x159
	.byte	0x8
	.4byte	0xc9
	.byte	0x4
	.uleb128 0x10
	.ascii	"s2k\000"
	.byte	0x9
	.2byte	0x15a
	.byte	0xe
	.4byte	0x3f3
	.byte	0x8
	.uleb128 0x11
	.4byte	.LASF153
	.byte	0x9
	.2byte	0x15b
	.byte	0x8
	.4byte	0xc9
	.byte	0x1c
	.uleb128 0x10
	.ascii	"iv\000"
	.byte	0x9
	.2byte	0x15c
	.byte	0x8
	.4byte	0x278
	.byte	0x1d
	.byte	0
	.uleb128 0x1a
	.byte	0x4
	.byte	0x9
	.2byte	0x191
	.byte	0x3
	.4byte	0xbb0
	.uleb128 0x1b
	.ascii	"mdc\000"
	.byte	0x9
	.2byte	0x193
	.byte	0x12
	.4byte	0x64
	.byte	0x4
	.byte	0x1
	.byte	0x1f
	.byte	0
	.uleb128 0x1c
	.4byte	.LASF123
	.byte	0x9
	.2byte	0x194
	.byte	0x12
	.4byte	0x64
	.byte	0x4
	.byte	0x1
	.byte	0x1e
	.byte	0
	.uleb128 0x1c
	.4byte	.LASF154
	.byte	0x9
	.2byte	0x195
	.byte	0x12
	.4byte	0x64
	.byte	0x4
	.byte	0x1
	.byte	0x1d
	.byte	0
	.uleb128 0x1c
	.4byte	.LASF155
	.byte	0x9
	.2byte	0x196
	.byte	0x12
	.4byte	0x64
	.byte	0x4
	.byte	0x1
	.byte	0x1c
	.byte	0
	.uleb128 0x1c
	.4byte	.LASF126
	.byte	0x9
	.2byte	0x197
	.byte	0x12
	.4byte	0x64
	.byte	0x4
	.byte	0x1
	.byte	0x1b
	.byte	0
	.uleb128 0x1c
	.4byte	.LASF127
	.byte	0x9
	.2byte	0x198
	.byte	0x12
	.4byte	0x64
	.byte	0x4
	.byte	0x2
	.byte	0x19
	.byte	0
	.uleb128 0x1c
	.4byte	.LASF156
	.byte	0x9
	.2byte	0x19b
	.byte	0x12
	.4byte	0x64
	.byte	0x4
	.byte	0x1
	.byte	0x18
	.byte	0
	.uleb128 0x1c
	.4byte	.LASF89
	.byte	0x9
	.2byte	0x19e
	.byte	0x12
	.4byte	0x64
	.byte	0x4
	.byte	0x1
	.byte	0x17
	.byte	0
	.uleb128 0x1c
	.4byte	.LASF157
	.byte	0x9
	.2byte	0x19f
	.byte	0x12
	.4byte	0x64
	.byte	0x4
	.byte	0x1
	.byte	0x16
	.byte	0
	.uleb128 0x1c
	.4byte	.LASF158
	.byte	0x9
	.2byte	0x1a0
	.byte	0x12
	.4byte	0x64
	.byte	0x4
	.byte	0x2
	.byte	0x14
	.byte	0
	.uleb128 0x1c
	.4byte	.LASF159
	.byte	0x9
	.2byte	0x1a1
	.byte	0x12
	.4byte	0x64
	.byte	0x4
	.byte	0x1
	.byte	0x13
	.byte	0
	.uleb128 0x1c
	.4byte	.LASF160
	.byte	0x9
	.2byte	0x1a2
	.byte	0x12
	.4byte	0x64
	.byte	0x4
	.byte	0x1
	.byte	0x12
	.byte	0
	.byte	0
	.uleb128 0x1a
	.byte	0x84
	.byte	0x9
	.2byte	0x175
	.byte	0x9
	.4byte	0xd43
	.uleb128 0x11
	.4byte	.LASF104
	.byte	0x9
	.2byte	0x178
	.byte	0xb
	.4byte	0xbd
	.byte	0
	.uleb128 0x11
	.4byte	.LASF105
	.byte	0x9
	.2byte	0x179
	.byte	0xb
	.4byte	0xbd
	.byte	0x4
	.uleb128 0x11
	.4byte	.LASF161
	.byte	0x9
	.2byte	0x17a
	.byte	0xb
	.4byte	0xbd
	.byte	0x8
	.uleb128 0x11
	.4byte	.LASF127
	.byte	0x9
	.2byte	0x17b
	.byte	0x16
	.4byte	0xa2a
	.byte	0xc
	.uleb128 0x11
	.4byte	.LASF162
	.byte	0x9
	.2byte	0x180
	.byte	0xb
	.4byte	0xc9
	.byte	0x1c
	.uleb128 0x11
	.4byte	.LASF73
	.byte	0x9
	.2byte	0x183
	.byte	0xb
	.4byte	0xc9
	.byte	0x1d
	.uleb128 0x11
	.4byte	.LASF142
	.byte	0x9
	.2byte	0x184
	.byte	0xb
	.4byte	0xc9
	.byte	0x1e
	.uleb128 0x11
	.4byte	.LASF80
	.byte	0x9
	.2byte	0x186
	.byte	0xb
	.4byte	0xc9
	.byte	0x1f
	.uleb128 0x11
	.4byte	.LASF163
	.byte	0x9
	.2byte	0x187
	.byte	0xb
	.4byte	0xb1
	.byte	0x20
	.uleb128 0x11
	.4byte	.LASF164
	.byte	0x9
	.2byte	0x188
	.byte	0xb
	.4byte	0xc9
	.byte	0x22
	.uleb128 0x11
	.4byte	.LASF165
	.byte	0x9
	.2byte	0x189
	.byte	0xb
	.4byte	0xbd
	.byte	0x24
	.uleb128 0x11
	.4byte	.LASF166
	.byte	0x9
	.2byte	0x18c
	.byte	0xb
	.4byte	0x4be
	.byte	0x28
	.uleb128 0x11
	.4byte	.LASF79
	.byte	0x9
	.2byte	0x18f
	.byte	0xb
	.4byte	0x4be
	.byte	0x30
	.uleb128 0x11
	.4byte	.LASF137
	.byte	0x9
	.2byte	0x190
	.byte	0xf
	.4byte	0xa17
	.byte	0x38
	.uleb128 0x11
	.4byte	.LASF103
	.byte	0x9
	.2byte	0x1a3
	.byte	0x5
	.4byte	0xad9
	.byte	0x3c
	.uleb128 0x11
	.4byte	.LASF167
	.byte	0x9
	.2byte	0x1a4
	.byte	0x10
	.4byte	0xd43
	.byte	0x40
	.uleb128 0x11
	.4byte	.LASF109
	.byte	0x9
	.2byte	0x1a5
	.byte	0x1a
	.4byte	0x7e6
	.byte	0x44
	.uleb128 0x11
	.4byte	.LASF110
	.byte	0x9
	.2byte	0x1a6
	.byte	0xb
	.4byte	0x5d
	.byte	0x48
	.uleb128 0x11
	.4byte	.LASF168
	.byte	0x9
	.2byte	0x1a7
	.byte	0xb
	.4byte	0xbd
	.byte	0x4c
	.uleb128 0x11
	.4byte	.LASF106
	.byte	0x9
	.2byte	0x1a8
	.byte	0xb
	.4byte	0xc9
	.byte	0x50
	.uleb128 0x11
	.4byte	.LASF107
	.byte	0x9
	.2byte	0x1a9
	.byte	0xb
	.4byte	0xc9
	.byte	0x51
	.uleb128 0x11
	.4byte	.LASF141
	.byte	0x9
	.2byte	0x1aa
	.byte	0xb
	.4byte	0xc9
	.byte	0x52
	.uleb128 0x11
	.4byte	.LASF139
	.byte	0x9
	.2byte	0x1ab
	.byte	0xb
	.4byte	0xbd
	.byte	0x54
	.uleb128 0x11
	.4byte	.LASF140
	.byte	0x9
	.2byte	0x1ac
	.byte	0xc
	.4byte	0x98
	.byte	0x58
	.uleb128 0x11
	.4byte	.LASF108
	.byte	0x9
	.2byte	0x1ad
	.byte	0xf
	.4byte	0x7db
	.byte	0x5c
	.uleb128 0x11
	.4byte	.LASF169
	.byte	0x9
	.2byte	0x1ae
	.byte	0xc
	.4byte	0x98
	.byte	0x60
	.uleb128 0x11
	.4byte	.LASF149
	.byte	0x9
	.2byte	0x1b3
	.byte	0x17
	.4byte	0xd49
	.byte	0x64
	.uleb128 0x11
	.4byte	.LASF170
	.byte	0x9
	.2byte	0x1b8
	.byte	0xf
	.4byte	0xd4f
	.byte	0x68
	.byte	0
	.uleb128 0x6
	.byte	0x4
	.4byte	0xa1d
	.uleb128 0x6
	.byte	0x4
	.4byte	0xa63
	.uleb128 0x9
	.4byte	0x327
	.4byte	0xd5f
	.uleb128 0xa
	.4byte	0x64
	.byte	0x6
	.byte	0
	.uleb128 0x19
	.4byte	.LASF171
	.byte	0x9
	.2byte	0x1b9
	.byte	0x3
	.4byte	0xbb0
	.uleb128 0x1a
	.byte	0x8
	.byte	0x9
	.2byte	0x1c2
	.byte	0x9
	.4byte	0xd93
	.uleb128 0x10
	.ascii	"len\000"
	.byte	0x9
	.2byte	0x1c3
	.byte	0xa
	.4byte	0x5d
	.byte	0
	.uleb128 0x11
	.4byte	.LASF82
	.byte	0x9
	.2byte	0x1c4
	.byte	0xa
	.4byte	0xda
	.byte	0x4
	.byte	0
	.uleb128 0x19
	.4byte	.LASF172
	.byte	0x9
	.2byte	0x1c5
	.byte	0x3
	.4byte	0xd6c
	.uleb128 0x1a
	.byte	0xc
	.byte	0x9
	.2byte	0x1c8
	.byte	0x9
	.4byte	0xde3
	.uleb128 0x10
	.ascii	"len\000"
	.byte	0x9
	.2byte	0x1ca
	.byte	0x7
	.4byte	0xbd
	.byte	0
	.uleb128 0x11
	.4byte	.LASF173
	.byte	0x9
	.2byte	0x1cd
	.byte	0x9
	.4byte	0xc9
	.byte	0x4
	.uleb128 0x11
	.4byte	.LASF174
	.byte	0x9
	.2byte	0x1cf
	.byte	0x9
	.4byte	0xc9
	.byte	0x5
	.uleb128 0x10
	.ascii	"buf\000"
	.byte	0x9
	.2byte	0x1d2
	.byte	0xb
	.4byte	0x123
	.byte	0x8
	.byte	0
	.uleb128 0x19
	.4byte	.LASF175
	.byte	0x9
	.2byte	0x1d3
	.byte	0x3
	.4byte	0xda0
	.uleb128 0x1a
	.byte	0x14
	.byte	0x9
	.2byte	0x1d8
	.byte	0x9
	.4byte	0xe79
	.uleb128 0x10
	.ascii	"len\000"
	.byte	0x9
	.2byte	0x1da
	.byte	0x8
	.4byte	0xbd
	.byte	0
	.uleb128 0x11
	.4byte	.LASF176
	.byte	0x9
	.2byte	0x1e2
	.byte	0x8
	.4byte	0x5d
	.byte	0x4
	.uleb128 0x11
	.4byte	.LASF173
	.byte	0x9
	.2byte	0x1e5
	.byte	0x8
	.4byte	0xc9
	.byte	0x8
	.uleb128 0x11
	.4byte	.LASF177
	.byte	0x9
	.2byte	0x1e9
	.byte	0x8
	.4byte	0xc9
	.byte	0x9
	.uleb128 0x11
	.4byte	.LASF178
	.byte	0x9
	.2byte	0x1ec
	.byte	0x8
	.4byte	0xc9
	.byte	0xa
	.uleb128 0x11
	.4byte	.LASF75
	.byte	0x9
	.2byte	0x1ef
	.byte	0x8
	.4byte	0xc9
	.byte	0xb
	.uleb128 0x11
	.4byte	.LASF74
	.byte	0x9
	.2byte	0x1f2
	.byte	0x8
	.4byte	0xc9
	.byte	0xc
	.uleb128 0x11
	.4byte	.LASF179
	.byte	0x9
	.2byte	0x1f4
	.byte	0x8
	.4byte	0xc9
	.byte	0xd
	.uleb128 0x10
	.ascii	"buf\000"
	.byte	0x9
	.2byte	0x1f8
	.byte	0xb
	.4byte	0x123
	.byte	0x10
	.byte	0
	.uleb128 0x19
	.4byte	.LASF180
	.byte	0x9
	.2byte	0x1f9
	.byte	0x3
	.4byte	0xdf0
	.uleb128 0x1a
	.byte	0x14
	.byte	0x9
	.2byte	0x1fb
	.byte	0x9
	.4byte	0xe9f
	.uleb128 0x11
	.4byte	.LASF181
	.byte	0x9
	.2byte	0x1fc
	.byte	0xa
	.4byte	0xe9f
	.byte	0
	.byte	0
	.uleb128 0x9
	.4byte	0xc9
	.4byte	0xeaf
	.uleb128 0xa
	.4byte	0x64
	.byte	0x13
	.byte	0
	.uleb128 0x19
	.4byte	.LASF182
	.byte	0x9
	.2byte	0x1fd
	.byte	0x3
	.4byte	0xe86
	.uleb128 0x1a
	.byte	0x1c
	.byte	0x9
	.2byte	0x216
	.byte	0x9
	.4byte	0xf37
	.uleb128 0x10
	.ascii	"len\000"
	.byte	0x9
	.2byte	0x218
	.byte	0x8
	.4byte	0xbd
	.byte	0
	.uleb128 0x10
	.ascii	"buf\000"
	.byte	0x9
	.2byte	0x21a
	.byte	0xb
	.4byte	0x123
	.byte	0x4
	.uleb128 0x11
	.4byte	.LASF173
	.byte	0x9
	.2byte	0x21b
	.byte	0x8
	.4byte	0xc9
	.byte	0x8
	.uleb128 0x11
	.4byte	.LASF177
	.byte	0x9
	.2byte	0x21c
	.byte	0x8
	.4byte	0xc9
	.byte	0x9
	.uleb128 0x11
	.4byte	.LASF68
	.byte	0x9
	.2byte	0x21f
	.byte	0x7
	.4byte	0x5d
	.byte	0xc
	.uleb128 0x11
	.4byte	.LASF104
	.byte	0x9
	.2byte	0x220
	.byte	0x7
	.4byte	0xbd
	.byte	0x10
	.uleb128 0x11
	.4byte	.LASF183
	.byte	0x9
	.2byte	0x223
	.byte	0x8
	.4byte	0x5d
	.byte	0x14
	.uleb128 0x11
	.4byte	.LASF144
	.byte	0x9
	.2byte	0x224
	.byte	0x8
	.4byte	0xda
	.byte	0x18
	.byte	0
	.uleb128 0x19
	.4byte	.LASF184
	.byte	0x9
	.2byte	0x225
	.byte	0x3
	.4byte	0xebc
	.uleb128 0x1a
	.byte	0xc
	.byte	0x9
	.2byte	0x227
	.byte	0x9
	.4byte	0xf79
	.uleb128 0x11
	.4byte	.LASF185
	.byte	0x9
	.2byte	0x228
	.byte	0xa
	.4byte	0x5d
	.byte	0
	.uleb128 0x11
	.4byte	.LASF186
	.byte	0x9
	.2byte	0x229
	.byte	0xc
	.4byte	0x6b
	.byte	0x4
	.uleb128 0x11
	.4byte	.LASF82
	.byte	0x9
	.2byte	0x22a
	.byte	0xa
	.4byte	0xda
	.byte	0x8
	.byte	0
	.uleb128 0x19
	.4byte	.LASF187
	.byte	0x9
	.2byte	0x22b
	.byte	0x3
	.4byte	0xf44
	.uleb128 0x1d
	.byte	0x4
	.byte	0x9
	.2byte	0x230
	.byte	0x5
	.4byte	0x1047
	.uleb128 0x1e
	.4byte	.LASF188
	.byte	0x9
	.2byte	0x231
	.byte	0x8
	.4byte	0x7e
	.uleb128 0x1e
	.4byte	.LASF189
	.byte	0x9
	.2byte	0x232
	.byte	0x12
	.4byte	0x1047
	.uleb128 0x1e
	.4byte	.LASF190
	.byte	0x9
	.2byte	0x233
	.byte	0x12
	.4byte	0x104d
	.uleb128 0x1e
	.4byte	.LASF191
	.byte	0x9
	.2byte	0x234
	.byte	0x13
	.4byte	0x1053
	.uleb128 0x1e
	.4byte	.LASF192
	.byte	0x9
	.2byte	0x235
	.byte	0x11
	.4byte	0x1059
	.uleb128 0x1e
	.4byte	.LASF193
	.byte	0x9
	.2byte	0x236
	.byte	0x12
	.4byte	0x105f
	.uleb128 0x1e
	.4byte	.LASF194
	.byte	0x9
	.2byte	0x237
	.byte	0x12
	.4byte	0x105f
	.uleb128 0x1e
	.4byte	.LASF195
	.byte	0x9
	.2byte	0x238
	.byte	0xf
	.4byte	0x1065
	.uleb128 0x1e
	.4byte	.LASF167
	.byte	0x9
	.2byte	0x239
	.byte	0xf
	.4byte	0xd43
	.uleb128 0x1e
	.4byte	.LASF196
	.byte	0x9
	.2byte	0x23a
	.byte	0x12
	.4byte	0x106b
	.uleb128 0x1e
	.4byte	.LASF197
	.byte	0x9
	.2byte	0x23b
	.byte	0x11
	.4byte	0x1071
	.uleb128 0x1f
	.ascii	"mdc\000"
	.byte	0x9
	.2byte	0x23c
	.byte	0xc
	.4byte	0x1077
	.uleb128 0x1e
	.4byte	.LASF198
	.byte	0x9
	.2byte	0x23d
	.byte	0x11
	.4byte	0x107d
	.uleb128 0x1e
	.4byte	.LASF199
	.byte	0x9
	.2byte	0x23e
	.byte	0x1a
	.4byte	0x1083
	.byte	0
	.uleb128 0x6
	.byte	0x4
	.4byte	0x467
	.uleb128 0x6
	.byte	0x4
	.4byte	0x4de
	.uleb128 0x6
	.byte	0x4
	.4byte	0x535
	.uleb128 0x6
	.byte	0x4
	.4byte	0x818
	.uleb128 0x6
	.byte	0x4
	.4byte	0xd5f
	.uleb128 0x6
	.byte	0x4
	.4byte	0xd93
	.uleb128 0x6
	.byte	0x4
	.4byte	0xde3
	.uleb128 0x6
	.byte	0x4
	.4byte	0xe79
	.uleb128 0x6
	.byte	0x4
	.4byte	0xeaf
	.uleb128 0x6
	.byte	0x4
	.4byte	0xf37
	.uleb128 0x6
	.byte	0x4
	.4byte	0xf79
	.uleb128 0x17
	.4byte	.LASF200
	.byte	0x18
	.byte	0x9
	.2byte	0x28d
	.byte	0x8
	.4byte	0x10de
	.uleb128 0x10
	.ascii	"inp\000"
	.byte	0x9
	.2byte	0x28f
	.byte	0xb
	.4byte	0x123
	.byte	0
	.uleb128 0x11
	.4byte	.LASF201
	.byte	0x9
	.2byte	0x290
	.byte	0x18
	.4byte	0x34a
	.byte	0x4
	.uleb128 0x11
	.4byte	.LASF202
	.byte	0x9
	.2byte	0x291
	.byte	0x7
	.4byte	0x5d
	.byte	0xc
	.uleb128 0x11
	.4byte	.LASF203
	.byte	0x9
	.2byte	0x292
	.byte	0x7
	.4byte	0x5d
	.byte	0x10
	.uleb128 0x11
	.4byte	.LASF204
	.byte	0x9
	.2byte	0x293
	.byte	0x10
	.4byte	0x64
	.byte	0x14
	.byte	0
	.uleb128 0x19
	.4byte	.LASF205
	.byte	0x9
	.2byte	0x295
	.byte	0x24
	.4byte	0x10eb
	.uleb128 0x6
	.byte	0x4
	.4byte	0x1089
	.uleb128 0x20
	.4byte	.LASF207
	.byte	0x1
	.2byte	0x19f
	.byte	0x1
	.4byte	.LFB22
	.4byte	.LFE22-.LFB22
	.uleb128 0x1
	.byte	0x9c
	.4byte	0x1161
	.uleb128 0x21
	.ascii	"pkt\000"
	.byte	0x1
	.2byte	0x19f
	.byte	0x16
	.4byte	0x1161
	.4byte	.LLST5
	.4byte	.LVUS5
	.uleb128 0x22
	.4byte	.LASF206
	.byte	0x1
	.2byte	0x19f
	.byte	0x2e
	.4byte	0x10de
	.4byte	.LLST6
	.4byte	.LVUS6
	.uleb128 0x23
	.4byte	0x1146
	.uleb128 0x24
	.4byte	.LASF210
	.byte	0x1
	.byte	0x33
	.byte	0x5
	.4byte	0x5d
	.uleb128 0x25
	.byte	0
	.byte	0
	.uleb128 0x26
	.4byte	.LVL28
	.4byte	0x1309
	.uleb128 0x27
	.4byte	.LVL33
	.uleb128 0x28
	.uleb128 0x1
	.byte	0x50
	.uleb128 0x2
	.byte	0x74
	.sleb128 4
	.uleb128 0x28
	.uleb128 0x1
	.byte	0x51
	.uleb128 0x1
	.byte	0x30
	.byte	0
	.byte	0
	.uleb128 0x6
	.byte	0x4
	.4byte	0x33e
	.uleb128 0x20
	.4byte	.LASF208
	.byte	0x1
	.2byte	0x17f
	.byte	0x1
	.4byte	.LFB21
	.4byte	.LFE21-.LFB21
	.uleb128 0x1
	.byte	0x9c
	.4byte	0x1211
	.uleb128 0x21
	.ascii	"pt\000"
	.byte	0x1
	.2byte	0x17f
	.byte	0x20
	.4byte	0x107d
	.4byte	.LLST3
	.4byte	.LVUS3
	.uleb128 0x29
	.4byte	.LASF210
	.byte	0x1
	.byte	0x33
	.byte	0x5
	.4byte	0x5d
	.4byte	0x11a4
	.uleb128 0x25
	.byte	0
	.uleb128 0x2a
	.4byte	.Ldebug_ranges0+0x18
	.4byte	0x11d0
	.uleb128 0x2b
	.ascii	"n\000"
	.byte	0x1
	.2byte	0x18f
	.byte	0x13
	.4byte	0x5d
	.4byte	.LLST4
	.4byte	.LVUS4
	.uleb128 0x2c
	.4byte	.LVL17
	.4byte	0x1315
	.uleb128 0x28
	.uleb128 0x1
	.byte	0x51
	.uleb128 0x1
	.byte	0x30
	.byte	0
	.byte	0
	.uleb128 0x2d
	.4byte	.LVL20
	.4byte	0x1321
	.4byte	0x11e5
	.uleb128 0x28
	.uleb128 0x1
	.byte	0x50
	.uleb128 0x3
	.byte	0xf3
	.uleb128 0x1
	.byte	0x50
	.byte	0
	.uleb128 0x2e
	.4byte	.LVL21
	.4byte	0x1315
	.4byte	0x11ff
	.uleb128 0x28
	.uleb128 0x1
	.byte	0x51
	.uleb128 0x1
	.byte	0x30
	.uleb128 0x28
	.uleb128 0x1
	.byte	0x52
	.uleb128 0x3
	.byte	0x40
	.byte	0x4a
	.byte	0x24
	.byte	0
	.uleb128 0x2f
	.4byte	.LVL23
	.4byte	0x1321
	.uleb128 0x28
	.uleb128 0x1
	.byte	0x50
	.uleb128 0x3
	.byte	0xf3
	.uleb128 0x1
	.byte	0x50
	.byte	0
	.byte	0
	.uleb128 0x20
	.4byte	.LASF209
	.byte	0x1
	.2byte	0x160
	.byte	0x1
	.4byte	.LFB20
	.4byte	.LFE20-.LFB20
	.uleb128 0x1
	.byte	0x9c
	.4byte	0x12bb
	.uleb128 0x21
	.ascii	"ed\000"
	.byte	0x1
	.2byte	0x160
	.byte	0x20
	.4byte	0x1071
	.4byte	.LLST1
	.4byte	.LVUS1
	.uleb128 0x29
	.4byte	.LASF210
	.byte	0x1
	.byte	0x33
	.byte	0x5
	.4byte	0x5d
	.4byte	0x124e
	.uleb128 0x25
	.byte	0
	.uleb128 0x2a
	.4byte	.Ldebug_ranges0+0
	.4byte	0x127a
	.uleb128 0x2b
	.ascii	"n\000"
	.byte	0x1
	.2byte	0x172
	.byte	0x13
	.4byte	0x5d
	.4byte	.LLST2
	.4byte	.LVUS2
	.uleb128 0x2c
	.4byte	.LVL6
	.4byte	0x1315
	.uleb128 0x28
	.uleb128 0x1
	.byte	0x51
	.uleb128 0x1
	.byte	0x30
	.byte	0
	.byte	0
	.uleb128 0x2d
	.4byte	.LVL9
	.4byte	0x1321
	.4byte	0x128f
	.uleb128 0x28
	.uleb128 0x1
	.byte	0x50
	.uleb128 0x3
	.byte	0xf3
	.uleb128 0x1
	.byte	0x50
	.byte	0
	.uleb128 0x2e
	.4byte	.LVL10
	.4byte	0x1315
	.4byte	0x12a9
	.uleb128 0x28
	.uleb128 0x1
	.byte	0x51
	.uleb128 0x1
	.byte	0x30
	.uleb128 0x28
	.uleb128 0x1
	.byte	0x52
	.uleb128 0x3
	.byte	0x40
	.byte	0x4a
	.byte	0x24
	.byte	0
	.uleb128 0x2f
	.4byte	.LVL12
	.4byte	0x1321
	.uleb128 0x28
	.uleb128 0x1
	.byte	0x50
	.uleb128 0x3
	.byte	0xf3
	.uleb128 0x1
	.byte	0x50
	.byte	0
	.byte	0
	.uleb128 0x30
	.4byte	.LASF211
	.byte	0x1
	.byte	0x31
	.byte	0x1
	.4byte	.LFB19
	.4byte	.LFE19-.LFB19
	.uleb128 0x1
	.byte	0x9c
	.4byte	0x1309
	.uleb128 0x31
	.ascii	"enc\000"
	.byte	0x1
	.byte	0x31
	.byte	0x22
	.4byte	0x1047
	.4byte	.LLST0
	.4byte	.LVUS0
	.uleb128 0x29
	.4byte	.LASF210
	.byte	0x1
	.byte	0x33
	.byte	0x5
	.4byte	0x5d
	.4byte	0x12f7
	.uleb128 0x25
	.byte	0
	.uleb128 0x2f
	.4byte	.LVL1
	.4byte	0x1321
	.uleb128 0x28
	.uleb128 0x1
	.byte	0x50
	.uleb128 0x3
	.byte	0xf3
	.uleb128 0x1
	.byte	0x50
	.byte	0
	.byte	0
	.uleb128 0x32
	.4byte	.LASF212
	.4byte	.LASF212
	.byte	0xa
	.byte	0x4c
	.byte	0x6
	.uleb128 0x32
	.4byte	.LASF213
	.4byte	.LASF213
	.byte	0xb
	.byte	0x45
	.byte	0x5
	.uleb128 0x32
	.4byte	.LASF210
	.4byte	.LASF210
	.byte	0x1
	.byte	0x33
	.byte	0x5
	.byte	0
	.section	.debug_abbrev,"",%progbits
.Ldebug_abbrev0:
	.uleb128 0x1
	.uleb128 0x11
	.byte	0x1
	.uleb128 0x25
	.uleb128 0xe
	.uleb128 0x13
	.uleb128 0xb
	.uleb128 0x3
	.uleb128 0xe
	.uleb128 0x1b
	.uleb128 0xe
	.uleb128 0x55
	.uleb128 0x17
	.uleb128 0x11
	.uleb128 0x1
	.uleb128 0x10
	.uleb128 0x17
	.byte	0
	.byte	0
	.uleb128 0x2
	.uleb128 0x24
	.byte	0
	.uleb128 0xb
	.uleb128 0xb
	.uleb128 0x3e
	.uleb128 0xb
	.uleb128 0x3
	.uleb128 0xe
	.byte	0
	.byte	0
	.uleb128 0x3
	.uleb128 0x24
	.byte	0
	.uleb128 0xb
	.uleb128 0xb
	.uleb128 0x3e
	.uleb128 0xb
	.uleb128 0x3
	.uleb128 0x8
	.byte	0
	.byte	0
	.uleb128 0x4
	.uleb128 0x16
	.byte	0
	.uleb128 0x3
	.uleb128 0xe
	.uleb128 0x3a
	.uleb128 0xb
	.uleb128 0x3b
	.uleb128 0xb
	.uleb128 0x39
	.uleb128 0xb
	.uleb128 0x49
	.uleb128 0x13
	.byte	0
	.byte	0
	.uleb128 0x5
	.uleb128 0xf
	.byte	0
	.uleb128 0xb
	.uleb128 0xb
	.byte	0
	.byte	0
	.uleb128 0x6
	.uleb128 0xf
	.byte	0
	.uleb128 0xb
	.uleb128 0xb
	.uleb128 0x49
	.uleb128 0x13
	.byte	0
	.byte	0
	.uleb128 0x7
	.uleb128 0x16
	.byte	0
	.uleb128 0x3
	.uleb128 0x8
	.uleb128 0x3a
	.uleb128 0xb
	.uleb128 0x3b
	.uleb128 0xb
	.uleb128 0x39
	.uleb128 0xb
	.uleb128 0x49
	.uleb128 0x13
	.byte	0
	.byte	0
	.uleb128 0x8
	.uleb128 0x26
	.byte	0
	.uleb128 0x49
	.uleb128 0x13
	.byte	0
	.byte	0
	.uleb128 0x9
	.uleb128 0x1
	.byte	0x1
	.uleb128 0x49
	.uleb128 0x13
	.uleb128 0x1
	.uleb128 0x13
	.byte	0
	.byte	0
	.uleb128 0xa
	.uleb128 0x21
	.byte	0
	.uleb128 0x49
	.uleb128 0x13
	.uleb128 0x2f
	.uleb128 0xb
	.byte	0
	.byte	0
	.uleb128 0xb
	.uleb128 0x4
	.byte	0x1
	.uleb128 0x3
	.uleb128 0xe
	.uleb128 0x3e
	.uleb128 0xb
	.uleb128 0xb
	.uleb128 0xb
	.uleb128 0x49
	.uleb128 0x13
	.uleb128 0x3a
	.uleb128 0xb
	.uleb128 0x3b
	.uleb128 0xb
	.uleb128 0x39
	.uleb128 0xb
	.uleb128 0x1
	.uleb128 0x13
	.byte	0
	.byte	0
	.uleb128 0xc
	.uleb128 0x28
	.byte	0
	.uleb128 0x3
	.uleb128 0xe
	.uleb128 0x1c
	.uleb128 0xb
	.byte	0
	.byte	0
	.uleb128 0xd
	.uleb128 0x13
	.byte	0x1
	.uleb128 0x3
	.uleb128 0xe
	.uleb128 0xb
	.uleb128 0xb
	.uleb128 0x3a
	.uleb128 0xb
	.uleb128 0x3b
	.uleb128 0xb
	.uleb128 0x39
	.uleb128 0xb
	.uleb128 0x1
	.uleb128 0x13
	.byte	0
	.byte	0
	.uleb128 0xe
	.uleb128 0xd
	.byte	0
	.uleb128 0x3
	.uleb128 0x8
	.uleb128 0x3a
	.uleb128 0xb
	.uleb128 0x3b
	.uleb128 0xb
	.uleb128 0x39
	.uleb128 0xb
	.uleb128 0x49
	.uleb128 0x13
	.uleb128 0x38
	.uleb128 0xb
	.byte	0
	.byte	0
	.uleb128 0xf
	.uleb128 0xd
	.byte	0
	.uleb128 0x3
	.uleb128 0xe
	.uleb128 0x3a
	.uleb128 0xb
	.uleb128 0x3b
	.uleb128 0xb
	.uleb128 0x39
	.uleb128 0xb
	.uleb128 0x49
	.uleb128 0x13
	.uleb128 0x38
	.uleb128 0xb
	.byte	0
	.byte	0
	.uleb128 0x10
	.uleb128 0xd
	.byte	0
	.uleb128 0x3
	.uleb128 0x8
	.uleb128 0x3a
	.uleb128 0xb
	.uleb128 0x3b
	.uleb128 0x5
	.uleb128 0x39
	.uleb128 0xb
	.uleb128 0x49
	.uleb128 0x13
	.uleb128 0x38
	.uleb128 0xb
	.byte	0
	.byte	0
	.uleb128 0x11
	.uleb128 0xd
	.byte	0
	.uleb128 0x3
	.uleb128 0xe
	.uleb128 0x3a
	.uleb128 0xb
	.uleb128 0x3b
	.uleb128 0x5
	.uleb128 0x39
	.uleb128 0xb
	.uleb128 0x49
	.uleb128 0x13
	.uleb128 0x38
	.uleb128 0xb
	.byte	0
	.byte	0
	.uleb128 0x12
	.uleb128 0x13
	.byte	0x1
	.uleb128 0xb
	.uleb128 0xb
	.uleb128 0x3a
	.uleb128 0xb
	.uleb128 0x3b
	.uleb128 0xb
	.uleb128 0x39
	.uleb128 0xb
	.uleb128 0x1
	.uleb128 0x13
	.byte	0
	.byte	0
	.uleb128 0x13
	.uleb128 0x15
	.byte	0x1
	.uleb128 0x27
	.uleb128 0x19
	.uleb128 0x49
	.uleb128 0x13
	.uleb128 0x1
	.uleb128 0x13
	.byte	0
	.byte	0
	.uleb128 0x14
	.uleb128 0x5
	.byte	0
	.uleb128 0x49
	.uleb128 0x13
	.byte	0
	.byte	0
	.uleb128 0x15
	.uleb128 0x4
	.byte	0x1
	.uleb128 0x3e
	.uleb128 0xb
	.uleb128 0xb
	.uleb128 0xb
	.uleb128 0x49
	.uleb128 0x13
	.uleb128 0x3a
	.uleb128 0xb
	.uleb128 0x3b
	.uleb128 0xb
	.uleb128 0x39
	.uleb128 0xb
	.uleb128 0x1
	.uleb128 0x13
	.byte	0
	.byte	0
	.uleb128 0x16
	.uleb128 0x13
	.byte	0
	.uleb128 0x3
	.uleb128 0xe
	.uleb128 0x3c
	.uleb128 0x19
	.byte	0
	.byte	0
	.uleb128 0x17
	.uleb128 0x13
	.byte	0x1
	.uleb128 0x3
	.uleb128 0xe
	.uleb128 0xb
	.uleb128 0xb
	.uleb128 0x3a
	.uleb128 0xb
	.uleb128 0x3b
	.uleb128 0x5
	.uleb128 0x39
	.uleb128 0xb
	.uleb128 0x1
	.uleb128 0x13
	.byte	0
	.byte	0
	.uleb128 0x18
	.uleb128 0xd
	.byte	0
	.uleb128 0x3
	.uleb128 0xe
	.uleb128 0x3a
	.uleb128 0xb
	.uleb128 0x3b
	.uleb128 0xb
	.uleb128 0x39
	.uleb128 0xb
	.uleb128 0x49
	.uleb128 0x13
	.uleb128 0xb
	.uleb128 0xb
	.uleb128 0xd
	.uleb128 0xb
	.uleb128 0xc
	.uleb128 0xb
	.uleb128 0x38
	.uleb128 0xb
	.byte	0
	.byte	0
	.uleb128 0x19
	.uleb128 0x16
	.byte	0
	.uleb128 0x3
	.uleb128 0xe
	.uleb128 0x3a
	.uleb128 0xb
	.uleb128 0x3b
	.uleb128 0x5
	.uleb128 0x39
	.uleb128 0xb
	.uleb128 0x49
	.uleb128 0x13
	.byte	0
	.byte	0
	.uleb128 0x1a
	.uleb128 0x13
	.byte	0x1
	.uleb128 0xb
	.uleb128 0xb
	.uleb128 0x3a
	.uleb128 0xb
	.uleb128 0x3b
	.uleb128 0x5
	.uleb128 0x39
	.uleb128 0xb
	.uleb128 0x1
	.uleb128 0x13
	.byte	0
	.byte	0
	.uleb128 0x1b
	.uleb128 0xd
	.byte	0
	.uleb128 0x3
	.uleb128 0x8
	.uleb128 0x3a
	.uleb128 0xb
	.uleb128 0x3b
	.uleb128 0x5
	.uleb128 0x39
	.uleb128 0xb
	.uleb128 0x49
	.uleb128 0x13
	.uleb128 0xb
	.uleb128 0xb
	.uleb128 0xd
	.uleb128 0xb
	.uleb128 0xc
	.uleb128 0xb
	.uleb128 0x38
	.uleb128 0xb
	.byte	0
	.byte	0
	.uleb128 0x1c
	.uleb128 0xd
	.byte	0
	.uleb128 0x3
	.uleb128 0xe
	.uleb128 0x3a
	.uleb128 0xb
	.uleb128 0x3b
	.uleb128 0x5
	.uleb128 0x39
	.uleb128 0xb
	.uleb128 0x49
	.uleb128 0x13
	.uleb128 0xb
	.uleb128 0xb
	.uleb128 0xd
	.uleb128 0xb
	.uleb128 0xc
	.uleb128 0xb
	.uleb128 0x38
	.uleb128 0xb
	.byte	0
	.byte	0
	.uleb128 0x1d
	.uleb128 0x17
	.byte	0x1
	.uleb128 0xb
	.uleb128 0xb
	.uleb128 0x3a
	.uleb128 0xb
	.uleb128 0x3b
	.uleb128 0x5
	.uleb128 0x39
	.uleb128 0xb
	.uleb128 0x1
	.uleb128 0x13
	.byte	0
	.byte	0
	.uleb128 0x1e
	.uleb128 0xd
	.byte	0
	.uleb128 0x3
	.uleb128 0xe
	.uleb128 0x3a
	.uleb128 0xb
	.uleb128 0x3b
	.uleb128 0x5
	.uleb128 0x39
	.uleb128 0xb
	.uleb128 0x49
	.uleb128 0x13
	.byte	0
	.byte	0
	.uleb128 0x1f
	.uleb128 0xd
	.byte	0
	.uleb128 0x3
	.uleb128 0x8
	.uleb128 0x3a
	.uleb128 0xb
	.uleb128 0x3b
	.uleb128 0x5
	.uleb128 0x39
	.uleb128 0xb
	.uleb128 0x49
	.uleb128 0x13
	.byte	0
	.byte	0
	.uleb128 0x20
	.uleb128 0x2e
	.byte	0x1
	.uleb128 0x3f
	.uleb128 0x19
	.uleb128 0x3
	.uleb128 0xe
	.uleb128 0x3a
	.uleb128 0xb
	.uleb128 0x3b
	.uleb128 0x5
	.uleb128 0x39
	.uleb128 0xb
	.uleb128 0x27
	.uleb128 0x19
	.uleb128 0x11
	.uleb128 0x1
	.uleb128 0x12
	.uleb128 0x6
	.uleb128 0x40
	.uleb128 0x18
	.uleb128 0x2117
	.uleb128 0x19
	.uleb128 0x1
	.uleb128 0x13
	.byte	0
	.byte	0
	.uleb128 0x21
	.uleb128 0x5
	.byte	0
	.uleb128 0x3
	.uleb128 0x8
	.uleb128 0x3a
	.uleb128 0xb
	.uleb128 0x3b
	.uleb128 0x5
	.uleb128 0x39
	.uleb128 0xb
	.uleb128 0x49
	.uleb128 0x13
	.uleb128 0x2
	.uleb128 0x17
	.uleb128 0x2137
	.uleb128 0x17
	.byte	0
	.byte	0
	.uleb128 0x22
	.uleb128 0x5
	.byte	0
	.uleb128 0x3
	.uleb128 0xe
	.uleb128 0x3a
	.uleb128 0xb
	.uleb128 0x3b
	.uleb128 0x5
	.uleb128 0x39
	.uleb128 0xb
	.uleb128 0x49
	.uleb128 0x13
	.uleb128 0x2
	.uleb128 0x17
	.uleb128 0x2137
	.uleb128 0x17
	.byte	0
	.byte	0
	.uleb128 0x23
	.uleb128 0xb
	.byte	0x1
	.uleb128 0x1
	.uleb128 0x13
	.byte	0
	.byte	0
	.uleb128 0x24
	.uleb128 0x2e
	.byte	0x1
	.uleb128 0x3f
	.uleb128 0x19
	.uleb128 0x3
	.uleb128 0xe
	.uleb128 0x3a
	.uleb128 0xb
	.uleb128 0x3b
	.uleb128 0xb
	.uleb128 0x39
	.uleb128 0xb
	.uleb128 0x49
	.uleb128 0x13
	.uleb128 0x3c
	.uleb128 0x19
	.byte	0
	.byte	0
	.uleb128 0x25
	.uleb128 0x18
	.byte	0
	.byte	0
	.byte	0
	.uleb128 0x26
	.uleb128 0x4109
	.byte	0
	.uleb128 0x11
	.uleb128 0x1
	.uleb128 0x2115
	.uleb128 0x19
	.uleb128 0x31
	.uleb128 0x13
	.byte	0
	.byte	0
	.uleb128 0x27
	.uleb128 0x4109
	.byte	0x1
	.uleb128 0x11
	.uleb128 0x1
	.byte	0
	.byte	0
	.uleb128 0x28
	.uleb128 0x410a
	.byte	0
	.uleb128 0x2
	.uleb128 0x18
	.uleb128 0x2111
	.uleb128 0x18
	.byte	0
	.byte	0
	.uleb128 0x29
	.uleb128 0x2e
	.byte	0x1
	.uleb128 0x3f
	.uleb128 0x19
	.uleb128 0x3
	.uleb128 0xe
	.uleb128 0x3a
	.uleb128 0xb
	.uleb128 0x3b
	.uleb128 0xb
	.uleb128 0x39
	.uleb128 0xb
	.uleb128 0x49
	.uleb128 0x13
	.uleb128 0x3c
	.uleb128 0x19
	.uleb128 0x1
	.uleb128 0x13
	.byte	0
	.byte	0
	.uleb128 0x2a
	.uleb128 0xb
	.byte	0x1
	.uleb128 0x55
	.uleb128 0x17
	.uleb128 0x1
	.uleb128 0x13
	.byte	0
	.byte	0
	.uleb128 0x2b
	.uleb128 0x34
	.byte	0
	.uleb128 0x3
	.uleb128 0x8
	.uleb128 0x3a
	.uleb128 0xb
	.uleb128 0x3b
	.uleb128 0x5
	.uleb128 0x39
	.uleb128 0xb
	.uleb128 0x49
	.uleb128 0x13
	.uleb128 0x2
	.uleb128 0x17
	.uleb128 0x2137
	.uleb128 0x17
	.byte	0
	.byte	0
	.uleb128 0x2c
	.uleb128 0x4109
	.byte	0x1
	.uleb128 0x11
	.uleb128 0x1
	.uleb128 0x31
	.uleb128 0x13
	.byte	0
	.byte	0
	.uleb128 0x2d
	.uleb128 0x4109
	.byte	0x1
	.uleb128 0x11
	.uleb128 0x1
	.uleb128 0x2115
	.uleb128 0x19
	.uleb128 0x31
	.uleb128 0x13
	.uleb128 0x1
	.uleb128 0x13
	.byte	0
	.byte	0
	.uleb128 0x2e
	.uleb128 0x4109
	.byte	0x1
	.uleb128 0x11
	.uleb128 0x1
	.uleb128 0x31
	.uleb128 0x13
	.uleb128 0x1
	.uleb128 0x13
	.byte	0
	.byte	0
	.uleb128 0x2f
	.uleb128 0x4109
	.byte	0x1
	.uleb128 0x11
	.uleb128 0x1
	.uleb128 0x2115
	.uleb128 0x19
	.uleb128 0x31
	.uleb128 0x13
	.byte	0
	.byte	0
	.uleb128 0x30
	.uleb128 0x2e
	.byte	0x1
	.uleb128 0x3f
	.uleb128 0x19
	.uleb128 0x3
	.uleb128 0xe
	.uleb128 0x3a
	.uleb128 0xb
	.uleb128 0x3b
	.uleb128 0xb
	.uleb128 0x39
	.uleb128 0xb
	.uleb128 0x27
	.uleb128 0x19
	.uleb128 0x11
	.uleb128 0x1
	.uleb128 0x12
	.uleb128 0x6
	.uleb128 0x40
	.uleb128 0x18
	.uleb128 0x2117
	.uleb128 0x19
	.uleb128 0x1
	.uleb128 0x13
	.byte	0
	.byte	0
	.uleb128 0x31
	.uleb128 0x5
	.byte	0
	.uleb128 0x3
	.uleb128 0x8
	.uleb128 0x3a
	.uleb128 0xb
	.uleb128 0x3b
	.uleb128 0xb
	.uleb128 0x39
	.uleb128 0xb
	.uleb128 0x49
	.uleb128 0x13
	.uleb128 0x2
	.uleb128 0x17
	.uleb128 0x2137
	.uleb128 0x17
	.byte	0
	.byte	0
	.uleb128 0x32
	.uleb128 0x2e
	.byte	0
	.uleb128 0x3f
	.uleb128 0x19
	.uleb128 0x3c
	.uleb128 0x19
	.uleb128 0x6e
	.uleb128 0xe
	.uleb128 0x3
	.uleb128 0xe
	.uleb128 0x3a
	.uleb128 0xb
	.uleb128 0x3b
	.uleb128 0xb
	.uleb128 0x39
	.uleb128 0xb
	.byte	0
	.byte	0
	.byte	0
	.section	.debug_loc,"",%progbits
.Ldebug_loc0:
.LVUS5:
	.uleb128 0
	.uleb128 .LVU78
	.uleb128 .LVU78
	.uleb128 .LVU80
	.uleb128 .LVU80
	.uleb128 .LVU85
	.uleb128 .LVU85
	.uleb128 .LVU90
	.uleb128 .LVU90
	.uleb128 .LVU92
	.uleb128 .LVU92
	.uleb128 0
.LLST5:
	.4byte	.LVL24
	.4byte	.LVL26
	.2byte	0x1
	.byte	0x50
	.4byte	.LVL26
	.4byte	.LVL28
	.2byte	0x4
	.byte	0xf3
	.uleb128 0x1
	.byte	0x50
	.byte	0x9f
	.4byte	.LVL28
	.4byte	.LVL29
	.2byte	0x1
	.byte	0x50
	.4byte	.LVL29
	.4byte	.LVL30
	.2byte	0x4
	.byte	0xf3
	.uleb128 0x1
	.byte	0x50
	.byte	0x9f
	.4byte	.LVL30
	.4byte	.LVL32
	.2byte	0x1
	.byte	0x50
	.4byte	.LVL32
	.4byte	.LFE22
	.2byte	0x4
	.byte	0xf3
	.uleb128 0x1
	.byte	0x50
	.byte	0x9f
	.4byte	0
	.4byte	0
.LVUS6:
	.uleb128 0
	.uleb128 .LVU77
	.uleb128 .LVU77
	.uleb128 .LVU79
	.uleb128 .LVU79
	.uleb128 .LVU80
	.uleb128 .LVU80
	.uleb128 .LVU85
	.uleb128 .LVU85
	.uleb128 .LVU90
	.uleb128 .LVU90
	.uleb128 .LVU91
	.uleb128 .LVU91
	.uleb128 0
.LLST6:
	.4byte	.LVL24
	.4byte	.LVL25
	.2byte	0x1
	.byte	0x51
	.4byte	.LVL25
	.4byte	.LVL27
	.2byte	0x1
	.byte	0x54
	.4byte	.LVL27
	.4byte	.LVL28
	.2byte	0x4
	.byte	0xf3
	.uleb128 0x1
	.byte	0x51
	.byte	0x9f
	.4byte	.LVL28
	.4byte	.LVL29
	.2byte	0x1
	.byte	0x51
	.4byte	.LVL29
	.4byte	.LVL30
	.2byte	0x1
	.byte	0x54
	.4byte	.LVL30
	.4byte	.LVL31
	.2byte	0x1
	.byte	0x51
	.4byte	.LVL31
	.4byte	.LFE22
	.2byte	0x1
	.byte	0x54
	.4byte	0
	.4byte	0
.LVUS3:
	.uleb128 0
	.uleb128 .LVU42
	.uleb128 .LVU42
	.uleb128 .LVU59
	.uleb128 .LVU59
	.uleb128 .LVU60
	.uleb128 .LVU60
	.uleb128 .LVU60
	.uleb128 .LVU60
	.uleb128 .LVU67
	.uleb128 .LVU67
	.uleb128 .LVU68
	.uleb128 .LVU68
	.uleb128 0
.LLST3:
	.4byte	.LVL13
	.4byte	.LVL14
	.2byte	0x1
	.byte	0x50
	.4byte	.LVL14
	.4byte	.LVL19
	.2byte	0x1
	.byte	0x54
	.4byte	.LVL19
	.4byte	.LVL20-1
	.2byte	0x1
	.byte	0x50
	.4byte	.LVL20-1
	.4byte	.LVL20
	.2byte	0x4
	.byte	0xf3
	.uleb128 0x1
	.byte	0x50
	.byte	0x9f
	.4byte	.LVL20
	.4byte	.LVL22
	.2byte	0x1
	.byte	0x54
	.4byte	.LVL22
	.4byte	.LVL23-1
	.2byte	0x1
	.byte	0x50
	.4byte	.LVL23-1
	.4byte	.LFE21
	.2byte	0x4
	.byte	0xf3
	.uleb128 0x1
	.byte	0x50
	.byte	0x9f
	.4byte	0
	.4byte	0
.LVUS4:
	.uleb128 .LVU48
	.uleb128 .LVU51
	.uleb128 .LVU54
	.uleb128 .LVU57
.LLST4:
	.4byte	.LVL15
	.4byte	.LVL16
	.2byte	0x1
	.byte	0x50
	.4byte	.LVL17
	.4byte	.LVL18
	.2byte	0x1
	.byte	0x50
	.4byte	0
	.4byte	0
.LVUS1:
	.uleb128 0
	.uleb128 .LVU9
	.uleb128 .LVU9
	.uleb128 .LVU26
	.uleb128 .LVU26
	.uleb128 .LVU27
	.uleb128 .LVU27
	.uleb128 .LVU27
	.uleb128 .LVU27
	.uleb128 .LVU34
	.uleb128 .LVU34
	.uleb128 .LVU35
	.uleb128 .LVU35
	.uleb128 0
.LLST1:
	.4byte	.LVL2
	.4byte	.LVL3
	.2byte	0x1
	.byte	0x50
	.4byte	.LVL3
	.4byte	.LVL8
	.2byte	0x1
	.byte	0x54
	.4byte	.LVL8
	.4byte	.LVL9-1
	.2byte	0x1
	.byte	0x50
	.4byte	.LVL9-1
	.4byte	.LVL9
	.2byte	0x4
	.byte	0xf3
	.uleb128 0x1
	.byte	0x50
	.byte	0x9f
	.4byte	.LVL9
	.4byte	.LVL11
	.2byte	0x1
	.byte	0x54
	.4byte	.LVL11
	.4byte	.LVL12-1
	.2byte	0x1
	.byte	0x50
	.4byte	.LVL12-1
	.4byte	.LFE20
	.2byte	0x4
	.byte	0xf3
	.uleb128 0x1
	.byte	0x50
	.byte	0x9f
	.4byte	0
	.4byte	0
.LVUS2:
	.uleb128 .LVU15
	.uleb128 .LVU18
	.uleb128 .LVU21
	.uleb128 .LVU24
.LLST2:
	.4byte	.LVL4
	.4byte	.LVL5
	.2byte	0x1
	.byte	0x50
	.4byte	.LVL6
	.4byte	.LVL7
	.2byte	0x1
	.byte	0x50
	.4byte	0
	.4byte	0
.LVUS0:
	.uleb128 0
	.uleb128 .LVU2
	.uleb128 .LVU2
	.uleb128 0
.LLST0:
	.4byte	.LVL0
	.4byte	.LVL1-1
	.2byte	0x1
	.byte	0x50
	.4byte	.LVL1-1
	.4byte	.LFE19
	.2byte	0x4
	.byte	0xf3
	.uleb128 0x1
	.byte	0x50
	.byte	0x9f
	.4byte	0
	.4byte	0
	.section	.debug_aranges,"",%progbits
	.4byte	0x34
	.2byte	0x2
	.4byte	.Ldebug_info0
	.byte	0x4
	.byte	0
	.2byte	0
	.2byte	0
	.4byte	.LFB19
	.4byte	.LFE19-.LFB19
	.4byte	.LFB20
	.4byte	.LFE20-.LFB20
	.4byte	.LFB21
	.4byte	.LFE21-.LFB21
	.4byte	.LFB22
	.4byte	.LFE22-.LFB22
	.4byte	0
	.4byte	0
	.section	.debug_ranges,"",%progbits
.Ldebug_ranges0:
	.4byte	.LBB2
	.4byte	.LBE2
	.4byte	.LBB3
	.4byte	.LBE3
	.4byte	0
	.4byte	0
	.4byte	.LBB4
	.4byte	.LBE4
	.4byte	.LBB5
	.4byte	.LBE5
	.4byte	0
	.4byte	0
	.4byte	.LFB19
	.4byte	.LFE19
	.4byte	.LFB20
	.4byte	.LFE20
	.4byte	.LFB21
	.4byte	.LFE21
	.4byte	.LFB22
	.4byte	.LFE22
	.4byte	0
	.4byte	0
	.section	.debug_line,"",%progbits
.Ldebug_line0:
	.section	.debug_str,"MS",%progbits,1
.LASF77:
	.ascii	"seskey\000"
.LASF12:
	.ascii	"__off_t\000"
.LASF71:
	.ascii	"count\000"
.LASF215:
	.ascii	"src/free-packet.c\000"
.LASF19:
	.ascii	"IOBUF_INPUT_TEMP\000"
.LASF164:
	.ascii	"req_usage\000"
.LASF70:
	.ascii	"salt\000"
.LASF57:
	.ascii	"PKT_COMMENT\000"
.LASF124:
	.ascii	"ks_modify\000"
.LASF10:
	.ascii	"size_t\000"
.LASF98:
	.ascii	"notation\000"
.LASF37:
	.ascii	"PKT_NONE\000"
.LASF148:
	.ascii	"algo\000"
.LASF150:
	.ascii	"is_protected\000"
.LASF140:
	.ascii	"updateurl\000"
.LASF188:
	.ascii	"generic\000"
.LASF31:
	.ascii	"filter_ov_owner\000"
.LASF126:
	.ascii	"primary\000"
.LASF101:
	.ascii	"expired\000"
.LASF65:
	.ascii	"type\000"
.LASF111:
	.ascii	"help_counter\000"
.LASF4:
	.ascii	"long int\000"
.LASF194:
	.ascii	"secret_key\000"
.LASF128:
	.ascii	"attribs\000"
.LASF130:
	.ascii	"attrib_data\000"
.LASF55:
	.ascii	"PKT_MDC\000"
.LASF7:
	.ascii	"long long unsigned int\000"
.LASF72:
	.ascii	"STRING2KEY\000"
.LASF213:
	.ascii	"iobuf_read\000"
.LASF212:
	.ascii	"tfp_printf\000"
.LASF189:
	.ascii	"symkey_enc\000"
.LASF25:
	.ascii	"ntotal\000"
.LASF191:
	.ascii	"onepass_sig\000"
.LASF162:
	.ascii	"hdrbytes\000"
.LASF104:
	.ascii	"timestamp\000"
.LASF34:
	.ascii	"subno\000"
.LASF6:
	.ascii	"long long int\000"
.LASF0:
	.ascii	"signed char\000"
.LASF117:
	.ascii	"digest\000"
.LASF39:
	.ascii	"PKT_SIGNATURE\000"
.LASF24:
	.ascii	"nbytes\000"
.LASF204:
	.ascii	"n_parsed_packets\000"
.LASF153:
	.ascii	"ivlen\000"
.LASF100:
	.ascii	"key_block\000"
.LASF134:
	.ascii	"help_key_expire\000"
.LASF159:
	.ascii	"serialno_valid\000"
.LASF166:
	.ascii	"main_keyid\000"
.LASF185:
	.ascii	"control\000"
.LASF67:
	.ascii	"prefitem_t\000"
.LASF121:
	.ascii	"PKT_signature\000"
.LASF83:
	.ascii	"PKT_pubkey_enc\000"
.LASF92:
	.ascii	"pka_info_t\000"
.LASF176:
	.ascii	"extralen\000"
.LASF2:
	.ascii	"short int\000"
.LASF199:
	.ascii	"gpg_control\000"
.LASF17:
	.ascii	"double\000"
.LASF62:
	.ascii	"iobuf_struct\000"
.LASF54:
	.ascii	"PKT_ENCRYPTED_MDC\000"
.LASF38:
	.ascii	"PKT_PUBKEY_ENC\000"
.LASF46:
	.ascii	"PKT_ENCRYPTED\000"
.LASF116:
	.ascii	"digest_start\000"
.LASF15:
	.ascii	"byte\000"
.LASF14:
	.ascii	"off_t\000"
.LASF168:
	.ascii	"trust_timestamp\000"
.LASF95:
	.ascii	"exportable\000"
.LASF192:
	.ascii	"signature\000"
.LASF66:
	.ascii	"value\000"
.LASF154:
	.ascii	"disabled_valid\000"
.LASF8:
	.ascii	"unsigned int\000"
.LASF170:
	.ascii	"pkey\000"
.LASF75:
	.ascii	"aead_algo\000"
.LASF151:
	.ascii	"sha1chk\000"
.LASF155:
	.ascii	"disabled\000"
.LASF18:
	.ascii	"IOBUF_INPUT\000"
.LASF74:
	.ascii	"cipher_algo\000"
.LASF41:
	.ascii	"PKT_ONEPASS_SIG\000"
.LASF5:
	.ascii	"long unsigned int\000"
.LASF20:
	.ascii	"IOBUF_OUTPUT\000"
.LASF214:
	.ascii	"GNU C17 10.3.1 20210621 (release) -mcpu=cortex-a7 -"
	.ascii	"mfloat-abi=soft -marm -march=armv7ve -g -O2 -fpic -"
	.ascii	"ffreestanding -ffunction-sections -fdata-sections -"
	.ascii	"fno-common\000"
.LASF125:
	.ascii	"compacted\000"
.LASF187:
	.ascii	"PKT_gpg_control\000"
.LASF144:
	.ascii	"name\000"
.LASF82:
	.ascii	"data\000"
.LASF35:
	.ascii	"size\000"
.LASF3:
	.ascii	"short unsigned int\000"
.LASF147:
	.ascii	"date\000"
.LASF152:
	.ascii	"csum\000"
.LASF51:
	.ascii	"PKT_PUBLIC_SUBKEY\000"
.LASF197:
	.ascii	"encrypted\000"
.LASF207:
	.ascii	"free_packet\000"
.LASF139:
	.ascii	"keyupdate\000"
.LASF86:
	.ascii	"last\000"
.LASF50:
	.ascii	"PKT_USER_ID\000"
.LASF91:
	.ascii	"email\000"
.LASF209:
	.ascii	"free_encrypted\000"
.LASF173:
	.ascii	"new_ctb\000"
.LASF102:
	.ascii	"pka_tried\000"
.LASF211:
	.ascii	"free_symkey_enc\000"
.LASF160:
	.ascii	"exact\000"
.LASF26:
	.ascii	"nofast\000"
.LASF133:
	.ascii	"help_key_usage\000"
.LASF105:
	.ascii	"expiredate\000"
.LASF109:
	.ascii	"revkey\000"
.LASF123:
	.ascii	"aead\000"
.LASF200:
	.ascii	"parse_packet_ctx_s\000"
.LASF205:
	.ascii	"parse_packet_ctx_t\000"
.LASF201:
	.ascii	"last_pkt\000"
.LASF94:
	.ascii	"unknown_critical\000"
.LASF136:
	.ascii	"help_marginal_count\000"
.LASF73:
	.ascii	"version\000"
.LASF107:
	.ascii	"trust_value\000"
.LASF96:
	.ascii	"revocable\000"
.LASF85:
	.ascii	"digest_algo\000"
.LASF146:
	.ascii	"revoke_info\000"
.LASF63:
	.ascii	"packet_struct\000"
.LASF49:
	.ascii	"PKT_RING_TRUST\000"
.LASF43:
	.ascii	"PKT_PUBLIC_KEY\000"
.LASF58:
	.ascii	"PKT_GPG_CONTROL\000"
.LASF59:
	.ascii	"pkttype_t\000"
.LASF190:
	.ascii	"pubkey_enc\000"
.LASF179:
	.ascii	"chunkbyte\000"
.LASF208:
	.ascii	"free_plaintext\000"
.LASF21:
	.ascii	"IOBUF_OUTPUT_TEMP\000"
.LASF169:
	.ascii	"serialno\000"
.LASF61:
	.ascii	"PACKET\000"
.LASF145:
	.ascii	"PKT_user_id\000"
.LASF11:
	.ascii	"_off_t\000"
.LASF182:
	.ascii	"PKT_mdc\000"
.LASF131:
	.ascii	"attrib_len\000"
.LASF16:
	.ascii	"float\000"
.LASF143:
	.ascii	"mbox\000"
.LASF28:
	.ascii	"error\000"
.LASF30:
	.ascii	"filter_ov\000"
.LASF32:
	.ascii	"real_fname\000"
.LASF149:
	.ascii	"seckey_info\000"
.LASF158:
	.ascii	"backsig\000"
.LASF27:
	.ascii	"filter_eof\000"
.LASF171:
	.ascii	"PKT_public_key\000"
.LASF1:
	.ascii	"unsigned char\000"
.LASF64:
	.ascii	"pkttype\000"
.LASF195:
	.ascii	"comment\000"
.LASF60:
	.ascii	"gcry_mpi_t\000"
.LASF113:
	.ascii	"signers_uid\000"
.LASF165:
	.ascii	"has_expired\000"
.LASF163:
	.ascii	"pubkey_usage\000"
.LASF198:
	.ascii	"plaintext\000"
.LASF110:
	.ascii	"numrevkeys\000"
.LASF47:
	.ascii	"PKT_MARKER\000"
.LASF157:
	.ascii	"dont_cache\000"
.LASF138:
	.ascii	"created\000"
.LASF137:
	.ascii	"prefs\000"
.LASF127:
	.ascii	"revoked\000"
.LASF184:
	.ascii	"PKT_plaintext\000"
.LASF141:
	.ascii	"keyorg\000"
.LASF186:
	.ascii	"datalen\000"
.LASF33:
	.ascii	"chain\000"
.LASF93:
	.ascii	"chosen_selfsig\000"
.LASF89:
	.ascii	"valid\000"
.LASF196:
	.ascii	"compressed\000"
.LASF114:
	.ascii	"hashed\000"
.LASF99:
	.ascii	"pref_ks\000"
.LASF45:
	.ascii	"PKT_COMPRESSED\000"
.LASF23:
	.ascii	"nlimit\000"
.LASF108:
	.ascii	"trust_regexp\000"
.LASF9:
	.ascii	"long double\000"
.LASF172:
	.ascii	"PKT_comment\000"
.LASF217:
	.ascii	"iobuf_use\000"
.LASF13:
	.ascii	"char\000"
.LASF68:
	.ascii	"mode\000"
.LASF135:
	.ascii	"help_full_count\000"
.LASF193:
	.ascii	"public_key\000"
.LASF81:
	.ascii	"throw_keyid\000"
.LASF216:
	.ascii	"/home/fred/code/rpi-qemu-gdb/Claude/raspi3b_qemu_\000"
.LASF178:
	.ascii	"mdc_method\000"
.LASF22:
	.ascii	"iobuf_t\000"
.LASF53:
	.ascii	"PKT_ATTRIBUTE\000"
.LASF97:
	.ascii	"policy_url\000"
.LASF183:
	.ascii	"namelen\000"
.LASF122:
	.ascii	"user_attribute\000"
.LASF167:
	.ascii	"user_id\000"
.LASF181:
	.ascii	"hash\000"
.LASF210:
	.ascii	"xfree\000"
.LASF206:
	.ascii	"parsectx\000"
.LASF87:
	.ascii	"PKT_onepass_sig\000"
.LASF40:
	.ascii	"PKT_SYMKEY_ENC\000"
.LASF56:
	.ascii	"PKT_ENCRYPTED_AEAD\000"
.LASF29:
	.ascii	"filter\000"
.LASF132:
	.ascii	"namehash\000"
.LASF84:
	.ascii	"sig_class\000"
.LASF42:
	.ascii	"PKT_SECRET_KEY\000"
.LASF129:
	.ascii	"numattribs\000"
.LASF106:
	.ascii	"trust_depth\000"
.LASF142:
	.ascii	"selfsigversion\000"
.LASF112:
	.ascii	"pka_info\000"
.LASF44:
	.ascii	"PKT_SECRET_SUBKEY\000"
.LASF120:
	.ascii	"revocation_key\000"
.LASF202:
	.ascii	"free_last_pkt\000"
.LASF174:
	.ascii	"algorithm\000"
.LASF103:
	.ascii	"flags\000"
.LASF79:
	.ascii	"keyid\000"
.LASF175:
	.ascii	"PKT_compressed\000"
.LASF76:
	.ascii	"seskeylen\000"
.LASF52:
	.ascii	"PKT_OLD_COMMENT\000"
.LASF203:
	.ascii	"skip_meta\000"
.LASF156:
	.ascii	"maybe_revoked\000"
.LASF69:
	.ascii	"hash_algo\000"
.LASF36:
	.ascii	"start\000"
.LASF177:
	.ascii	"is_partial\000"
.LASF90:
	.ascii	"checked\000"
.LASF80:
	.ascii	"pubkey_algo\000"
.LASF161:
	.ascii	"max_expiredate\000"
.LASF180:
	.ascii	"PKT_encrypted\000"
.LASF78:
	.ascii	"PKT_symkey_enc\000"
.LASF119:
	.ascii	"gcry_mpi\000"
.LASF115:
	.ascii	"unhashed\000"
.LASF48:
	.ascii	"PKT_PLAINTEXT\000"
.LASF88:
	.ascii	"subpktarea_t\000"
.LASF118:
	.ascii	"digest_len\000"
	.ident	"GCC: (15:10.3-2021.07-4) 10.3.1 20210621 (release)"
