	.cpu cortex-a7
	.eabi_attribute 20, 1	@ Tag_ABI_FP_denormal
	.eabi_attribute 21, 1	@ Tag_ABI_FP_exceptions
	.eabi_attribute 23, 3	@ Tag_ABI_FP_number_model
	.eabi_attribute 24, 1	@ Tag_ABI_align8_needed
	.eabi_attribute 25, 1	@ Tag_ABI_align8_preserved
	.eabi_attribute 26, 1	@ Tag_ABI_enum_size
	.eabi_attribute 30, 2	@ Tag_ABI_optimization_goals
	.eabi_attribute 34, 1	@ Tag_CPU_unaligned_access
	.eabi_attribute 18, 4	@ Tag_ABI_PCS_wchar_t
	.file	"libgcrypt.c"
@ GNU C17 (15:10.3-2021.07-4) version 10.3.1 20210621 (release) (arm-none-eabi)
@	compiled by GNU C version 11.2.0, GMP version 6.2.1, MPFR version 4.1.0, MPC version 1.2.1, isl version isl-0.24-GMP

@ GGC heuristics: --param ggc-min-expand=100 --param ggc-min-heapsize=131072
@ options passed:  -I src -I src/common -imultilib thumb/v7-a/nofp
@ -D__USES_INITFINI__ src/libgcrypt.c -mcpu=cortex-a7 -mfloat-abi=soft
@ -marm -mlibarch=armv7ve -march=armv7ve
@ -auxbase-strip build/asm_output/libgcrypt.s -g -O2 -Wall -Wextra -fpic
@ -ffreestanding -ffunction-sections -fdata-sections -fno-common
@ -fverbose-asm
@ options enabled:  -faggressive-loop-optimizations -falign-functions
@ -falign-jumps -falign-labels -falign-loops -fallocation-dce
@ -fauto-inc-dec -fbranch-count-reg -fcaller-saves
@ -fcombine-stack-adjustments -fcompare-elim -fcprop-registers
@ -fcrossjumping -fcse-follow-jumps -fdata-sections -fdefer-pop
@ -fdelete-null-pointer-checks -fdevirtualize -fdevirtualize-speculatively
@ -fdwarf2-cfi-asm -fearly-inlining -feliminate-unused-debug-symbols
@ -feliminate-unused-debug-types -fexpensive-optimizations
@ -fforward-propagate -ffp-int-builtin-inexact -ffunction-cse
@ -ffunction-sections -fgcse -fgcse-lm -fgnu-unique
@ -fguess-branch-probability -fhoist-adjacent-loads -fident -fif-conversion
@ -fif-conversion2 -findirect-inlining -finline -finline-atomics
@ -finline-functions -finline-functions-called-once
@ -finline-small-functions -fipa-bit-cp -fipa-cp -fipa-icf
@ -fipa-icf-functions -fipa-icf-variables -fipa-profile -fipa-pure-const
@ -fipa-ra -fipa-reference -fipa-reference-addressable -fipa-sra
@ -fipa-stack-alignment -fipa-vrp -fira-hoist-pressure
@ -fira-share-save-slots -fira-share-spill-slots
@ -fisolate-erroneous-paths-dereference -fivopts -fkeep-static-consts
@ -fleading-underscore -flifetime-dse -flra-remat -fmath-errno
@ -fmerge-constants -fmerge-debug-strings -fmove-loop-invariants
@ -fomit-frame-pointer -foptimize-sibling-calls -foptimize-strlen
@ -fpartial-inlining -fpeephole -fpeephole2 -fpic -fplt
@ -fprefetch-loop-arrays -freg-struct-return -freorder-blocks
@ -freorder-functions -frerun-cse-after-loop
@ -fsched-critical-path-heuristic -fsched-dep-count-heuristic
@ -fsched-group-heuristic -fsched-interblock -fsched-last-insn-heuristic
@ -fsched-pressure -fsched-rank-heuristic -fsched-spec
@ -fsched-spec-insn-heuristic -fsched-stalled-insns-dep -fschedule-insns
@ -fschedule-insns2 -fsection-anchors -fsemantic-interposition
@ -fshow-column -fshrink-wrap -fshrink-wrap-separate -fsigned-zeros
@ -fsplit-ivs-in-unroller -fsplit-wide-types -fssa-backprop -fssa-phiopt
@ -fstdarg-opt -fstore-merging -fstrict-aliasing
@ -fstrict-volatile-bitfields -fsync-libcalls -fthread-jumps
@ -ftoplevel-reorder -ftrapping-math -ftree-bit-ccp -ftree-builtin-call-dce
@ -ftree-ccp -ftree-ch -ftree-coalesce-vars -ftree-copy-prop -ftree-cselim
@ -ftree-dce -ftree-dominator-opts -ftree-dse -ftree-forwprop -ftree-fre
@ -ftree-loop-if-convert -ftree-loop-im -ftree-loop-ivcanon
@ -ftree-loop-optimize -ftree-parallelize-loops= -ftree-phiprop -ftree-pre
@ -ftree-pta -ftree-reassoc -ftree-scev-cprop -ftree-sink -ftree-slsr
@ -ftree-sra -ftree-switch-conversion -ftree-tail-merge -ftree-ter
@ -ftree-vrp -funit-at-a-time -fvar-tracking -fvar-tracking-assignments
@ -fverbose-asm -fzero-initialized-in-bss -marm -mbe32 -mlittle-endian
@ -mpic-data-is-text-relative -msched-prolog -munaligned-access
@ -mvectorize-with-neon-quad -mword-relocations

	.text
.Ltext0:
	.cfi_sections	.debug_frame
	.section	.rodata.run.str1.4,"aMS",%progbits,1
	.align	2
.LC0:
	.ascii	"\012=== Starting run() ===\012\000"
	.align	2
.LC1:
	.ascii	"Input Key: \000"
	.align	2
.LC2:
	.ascii	"%08X\000"
	.align	2
.LC3:
	.ascii	"\012Input Block - MSB: %08X LSB: %08X\012\000"
	.align	2
.LC4:
	.ascii	"Reverse mode: %d\012\000"
	.align	2
.LC5:
	.ascii	"\012-- Key Schedule Round %d --\012\000"
	.align	2
.LC6:
	.ascii	"Pre-transform x: \000"
	.align	2
.LC7:
	.ascii	"%08X \000"
	.align	2
.LC8:
	.ascii	"\012\000"
	.align	2
.LC9:
	.ascii	"g(x) values: \000"
	.align	2
.LC10:
	.ascii	"%02X \000"
	.align	2
.LC11:
	.ascii	"Post z-transform: \000"
	.align	2
.LC12:
	.ascii	"K[%d-%d]: \000"
	.align	2
.LC13:
	.ascii	"Pre-second-x g(z) values: \000"
	.align	2
.LC14:
	.ascii	"Second x-transform: \000"
	.align	2
.LC15:
	.ascii	"Third z-transform: \000"
	.align	2
.LC16:
	.ascii	"Fourth x-transform: \000"
	.align	2
.LC17:
	.ascii	"\012=== Starting Rounds ===\012\000"
	.align	2
.LC18:
	.ascii	"\012Round %2d:\012\000"
	.align	2
.LC19:
	.ascii	"Using K[%2d] = %08X, K[%2d] = %08X (shift: %d)\012\000"
	.align	2
.LC20:
	.ascii	"Input L: %08X R: %08X\012\000"
	.align	2
.LC21:
	.ascii	"Case 2: I = cyclicShift(subtractMod2_32b(%08X, %08X"
	.ascii	"), %d) = %08X\012\000"
	.align	2
.LC22:
	.ascii	"Split I: %02X %02X %02X %02X\012\000"
	.align	2
.LC23:
	.ascii	"S-box lookups: S1[%02X]=%08X S2[%02X]=%08X S3[%02X]"
	.ascii	"=%08X S4[%02X]=%08X\012\000"
	.align	2
.LC24:
	.ascii	"f calculation: %08X\012\000"
	.align	2
.LC25:
	.ascii	"\012=== Final Output ===\012\000"
	.align	2
.LC26:
	.ascii	"MSB: %08X LSB: %08X\012\000"
	.align	2
.LC27:
	.ascii	"Round %2d output:\012\000"
	.align	2
.LC28:
	.ascii	"L[%2d] = R[%2d] = %08X\012\000"
	.align	2
.LC29:
	.ascii	"R[%2d] = L[%2d] ^ f = %08X ^ %08X = %08X\012\000"
	.align	2
.LC30:
	.ascii	"Case 0: I = cyclicShift(sumMod2_32b(%08X, %08X), %d"
	.ascii	") = %08X\012\000"
	.align	2
.LC31:
	.ascii	"Case 1: I = cyclicShift(%08X ^ %08X, %d) = %08X\012"
	.ascii	"\000"
	.section	.text.run,"ax",%progbits
	.align	2
	.arch armv7ve
	.syntax unified
	.arm
	.fpu softvfp
	.type	run, %function
run:
.LVL0:
.LFB31:
	.file 1 "src/libgcrypt.c"
	.loc 1 768 1 view -0
	.cfi_startproc
	@ args = 8, pretend = 0, frame = 440
	@ frame_needed = 0, uses_anonymous_args = 0
	.loc 1 768 1 is_stmt 0 view .LVU1
	push	{r4, r5, r6, r7, r8, r9, r10, fp, lr}	@
	.cfi_def_cfa_offset 36
	.cfi_offset 4, -36
	.cfi_offset 5, -32
	.cfi_offset 6, -28
	.cfi_offset 7, -24
	.cfi_offset 8, -20
	.cfi_offset 9, -16
	.cfi_offset 10, -12
	.cfi_offset 11, -8
	.cfi_offset 14, -4
	sub	sp, sp, #468	@,,
	.cfi_def_cfa_offset 504
@ src/libgcrypt.c:768: {
	.loc 1 768 1 view .LVU2
	ldr	ip, .L117	@ tmp860,
@ src/libgcrypt.c:769:     Key x = {0};
	.loc 1 769 9 view .LVU3
	mov	r5, #0	@ tmp820,
@ src/libgcrypt.c:768: {
	.loc 1 768 1 view .LVU4
	str	r0, [sp, #96]	@ tmp1585, %sfp
	add	r0, sp, #160	@ tmp816,,
.LPIC14:
	add	ip, pc, ip	@ tmp860, tmp860
	mov	r4, r1	@ tmp1586, key
	stm	r0, {r2, r3}	@ tmp816,,
	ldr	r3, [sp, #164]	@ data$lsb, data.lsb
@ src/libgcrypt.c:769:     Key x = {0};
	.loc 1 769 9 view .LVU5
	add	r0, sp, #168	@ ivtmp.180,,
	str	r2, [sp, #108]	@ data$msb, %sfp
.LVL1:
@ src/libgcrypt.c:770:     memcpy(x, key, sizeof(Key));
	.loc 1 770 5 view .LVU6
	mov	r2, #16	@,
.LVL2:
	.loc 1 770 5 view .LVU7
	str	r3, [sp, #112]	@ data$lsb, %sfp
.LVL3:
	.loc 1 769 5 is_stmt 1 view .LVU8
	.loc 1 770 5 view .LVU9
@ src/libgcrypt.c:768: {
	.loc 1 768 1 is_stmt 0 view .LVU10
	str	ip, [sp, #100]	@ tmp860, %sfp
@ src/libgcrypt.c:769:     Key x = {0};
	.loc 1 769 9 view .LVU11
	str	r0, [sp, #116]	@ ivtmp.180, %sfp
	str	r5, [sp, #168]	@ tmp820, x
	str	r5, [r0, #4]	@ tmp820, x
	str	r5, [r0, #8]	@ tmp820, x
	str	r5, [r0, #12]	@ tmp820, x
@ src/libgcrypt.c:770:     memcpy(x, key, sizeof(Key));
	.loc 1 770 5 view .LVU12
	bl	memcpy(PLT)	@
.LVL4:
	.loc 1 771 5 is_stmt 1 view .LVU13
@ src/libgcrypt.c:773:     if(debug) {
	.loc 1 773 7 is_stmt 0 view .LVU14
	ldr	r3, [sp, #508]	@ tmp1717, debug
@ src/libgcrypt.c:771:     Key z = {0};
	.loc 1 771 9 view .LVU15
	str	r5, [sp, #184]	@ tmp820, z
@ src/libgcrypt.c:773:     if(debug) {
	.loc 1 773 7 view .LVU16
	cmp	r3, r5	@ tmp1717,
@ src/libgcrypt.c:771:     Key z = {0};
	.loc 1 771 9 view .LVU17
	add	r3, sp, #184	@ _1778,,
	str	r5, [sp, #188]	@ tmp820, z
	str	r5, [sp, #192]	@ tmp820, z
	str	r5, [sp, #196]	@ tmp820, z
	.loc 1 773 5 is_stmt 1 view .LVU18
@ src/libgcrypt.c:771:     Key z = {0};
	.loc 1 771 9 is_stmt 0 view .LVU19
	str	r3, [sp, #120]	@ _1778, %sfp
@ src/libgcrypt.c:773:     if(debug) {
	.loc 1 773 7 view .LVU20
	bne	.L98		@,
.LVL5:
.L2:
	.loc 1 783 5 is_stmt 1 view .LVU21
	ldr	r4, .L117+4	@ tmp1583,
@ src/libgcrypt.c:783:     uint32_t K[32] = {0};
	.loc 1 783 14 is_stmt 0 view .LVU22
	mov	r2, #128	@,
.LBB419:
@ src/libgcrypt.c:786:         if(debug) printf("\n-- Key Schedule Round %d --\n", i);
	.loc 1 786 19 view .LVU23
	ldr	r3, .L117+8	@ tmp1582,
.LBE419:
@ src/libgcrypt.c:783:     uint32_t K[32] = {0};
	.loc 1 783 14 view .LVU24
	mov	r1, #0	@,
.LPIC10:
	add	r4, pc, r4	@ tmp1583, tmp1583
	add	r0, sp, #336	@,,
.LBB569:
@ src/libgcrypt.c:786:         if(debug) printf("\n-- Key Schedule Round %d --\n", i);
	.loc 1 786 19 view .LVU25
.LPIC5:
	add	r3, pc, r3	@ tmp1582, tmp1582
	str	r3, [sp, #124]	@ tmp1582, %sfp
	str	r4, [sp, #128]	@ tmp1583, %sfp
.LBE569:
@ src/libgcrypt.c:783:     uint32_t K[32] = {0};
	.loc 1 783 14 view .LVU26
	bl	memset(PLT)	@
.LVL6:
	.loc 1 785 5 is_stmt 1 view .LVU27
.LBB570:
	.loc 1 785 10 view .LVU28
	.loc 1 785 21 view .LVU29
	ldr	r2, [sp, #100]	@ tmp860, %sfp
	ldr	r3, .L117+12	@ tmp1591,
	ldr	r9, [r2, r3]	@ tmp1570,
	ldr	r3, .L117+16	@ tmp1592,
	ldr	r10, [r2, r3]	@ tmp1571,
	ldr	r3, .L117+20	@ tmp1593,
	ldr	r8, [r2, r3]	@ tmp1572,
	ldr	r3, .L117+24	@ tmp1594,
	ldr	fp, [r2, r3]	@ tmp1573,
.LBE570:
@ src/libgcrypt.c:783:     uint32_t K[32] = {0};
	.loc 1 783 14 is_stmt 0 view .LVU30
	mov	r3, #0	@ ivtmp.301,
	str	r3, [sp, #28]	@ ivtmp.301, %sfp
	add	r2, sp, #352	@ ivtmp.302,,
.LBB571:
@ src/libgcrypt.c:785:     for (int i = 0; i < 2; ++i) {
	.loc 1 785 14 view .LVU31
	str	r3, [sp, #56]	@ ivtmp.301, %sfp
	add	r3, sp, #200	@ ivtmp.150,,
	str	r3, [sp, #104]	@ ivtmp.150, %sfp
	add	r3, r4, #15	@ _1705, tmp1583,
	str	r3, [sp, #132]	@ _1705, %sfp
	mov	r3, r10	@ tmp1571, tmp1571
	str	r2, [sp, #24]	@ ivtmp.302, %sfp
	mov	r10, r9	@ tmp1570, tmp1570
	mov	r9, r3	@ tmp1571, tmp1571
.LVL7:
	.loc 1 786 9 is_stmt 1 view .LVU32
@ src/libgcrypt.c:786:         if(debug) printf("\n-- Key Schedule Round %d --\n", i);
	.loc 1 786 11 is_stmt 0 view .LVU33
	ldr	r3, [sp, #508]	@ tmp1732, debug
	cmp	r3, #0	@ tmp1732,
	bne	.L99		@,
.LVL8:
.L4:
	.loc 1 799 9 is_stmt 1 view .LVU34
.LBB420:
.LBI420:
	.loc 1 724 16 view .LVU35
.LBB421:
	.loc 1 726 5 view .LVU36
	.loc 1 726 5 is_stmt 0 view .LVU37
.LBE421:
.LBE420:
.LBB422:
.LBI422:
	.loc 1 724 16 is_stmt 1 view .LVU38
.LBB423:
	.loc 1 726 5 view .LVU39
	.loc 1 726 5 is_stmt 0 view .LVU40
.LBE423:
.LBE422:
.LBB424:
.LBI424:
	.loc 1 724 16 is_stmt 1 view .LVU41
.LBB425:
	.loc 1 726 5 view .LVU42
	.loc 1 726 5 is_stmt 0 view .LVU43
.LBE425:
.LBE424:
.LBB426:
.LBI426:
	.loc 1 724 16 is_stmt 1 view .LVU44
.LBB427:
	.loc 1 726 5 view .LVU45
	.loc 1 726 5 is_stmt 0 view .LVU46
.LBE427:
.LBE426:
.LBB428:
.LBI428:
	.loc 1 724 16 is_stmt 1 view .LVU47
.LBB429:
	.loc 1 726 5 view .LVU48
	.loc 1 726 5 is_stmt 0 view .LVU49
.LBE429:
.LBE428:
@ src/libgcrypt.c:804:         if(debug) {
	.loc 1 804 11 view .LVU50
	ldr	r2, [sp, #508]	@ tmp1735, debug
@ src/libgcrypt.c:799:         z[0] = x[0] ^ S5[g(x, 0xD)] ^ S6[g(x, 0xF)] ^ S7[g(x, 0xC)] ^ S8[g(x, 0xE)] ^ S7[g(x, 0x8)];
	.loc 1 799 26 view .LVU51
	ldrb	r3, [sp, #182]	@ zero_extendqisi2	@ MEM[(uint8_t *)&x + 14B], MEM[(uint8_t *)&x + 14B]
@ src/libgcrypt.c:799:         z[0] = x[0] ^ S5[g(x, 0xD)] ^ S6[g(x, 0xF)] ^ S7[g(x, 0xC)] ^ S8[g(x, 0xE)] ^ S7[g(x, 0x8)];
	.loc 1 799 37 view .LVU52
	ldr	r1, [sp, #168]	@ x[0], x[0]
@ src/libgcrypt.c:804:         if(debug) {
	.loc 1 804 11 view .LVU53
	cmp	r2, #0	@ tmp1735,
@ src/libgcrypt.c:799:         z[0] = x[0] ^ S5[g(x, 0xD)] ^ S6[g(x, 0xF)] ^ S7[g(x, 0xC)] ^ S8[g(x, 0xE)] ^ S7[g(x, 0x8)];
	.loc 1 799 42 view .LVU54
	ldrb	r2, [sp, #180]	@ zero_extendqisi2	@ MEM[(uint8_t *)&x + 12B], MEM[(uint8_t *)&x + 12B]
@ src/libgcrypt.c:799:         z[0] = x[0] ^ S5[g(x, 0xD)] ^ S6[g(x, 0xF)] ^ S7[g(x, 0xC)] ^ S8[g(x, 0xE)] ^ S7[g(x, 0x8)];
	.loc 1 799 37 view .LVU55
	ldr	r3, [r10, r3, lsl #2]	@ S5[_10], S5[_10]
	ldr	r2, [r9, r2, lsl #2]	@ S6[_14], S6[_14]
	eor	r3, r3, r2	@ tmp864, S5[_10], S6[_14]
@ src/libgcrypt.c:799:         z[0] = x[0] ^ S5[g(x, 0xD)] ^ S6[g(x, 0xF)] ^ S7[g(x, 0xC)] ^ S8[g(x, 0xE)] ^ S7[g(x, 0x8)];
	.loc 1 799 58 view .LVU56
	ldrb	r2, [sp, #183]	@ zero_extendqisi2	@ MEM[(uint8_t *)&x + 15B], MEM[(uint8_t *)&x + 15B]
@ src/libgcrypt.c:799:         z[0] = x[0] ^ S5[g(x, 0xD)] ^ S6[g(x, 0xF)] ^ S7[g(x, 0xC)] ^ S8[g(x, 0xE)] ^ S7[g(x, 0x8)];
	.loc 1 799 37 view .LVU57
	eor	r3, r3, r1	@ tmp867, tmp864, x[0]
@ src/libgcrypt.c:799:         z[0] = x[0] ^ S5[g(x, 0xD)] ^ S6[g(x, 0xF)] ^ S7[g(x, 0xC)] ^ S8[g(x, 0xE)] ^ S7[g(x, 0x8)];
	.loc 1 799 53 view .LVU58
	ldr	r2, [r8, r2, lsl #2]	@ S7[_18], S7[_18]
	eor	r3, r3, r2	@ tmp871, tmp867, S7[_18]
@ src/libgcrypt.c:799:         z[0] = x[0] ^ S5[g(x, 0xD)] ^ S6[g(x, 0xF)] ^ S7[g(x, 0xC)] ^ S8[g(x, 0xE)] ^ S7[g(x, 0x8)];
	.loc 1 799 74 view .LVU59
	ldrb	r2, [sp, #181]	@ zero_extendqisi2	@ MEM[(uint8_t *)&x + 13B], MEM[(uint8_t *)&x + 13B]
@ src/libgcrypt.c:799:         z[0] = x[0] ^ S5[g(x, 0xD)] ^ S6[g(x, 0xF)] ^ S7[g(x, 0xC)] ^ S8[g(x, 0xE)] ^ S7[g(x, 0x8)];
	.loc 1 799 69 view .LVU60
	ldr	r2, [fp, r2, lsl #2]	@ S8[_22], S8[_22]
	eor	r3, r3, r2	@ tmp875, tmp871, S8[_22]
@ src/libgcrypt.c:799:         z[0] = x[0] ^ S5[g(x, 0xD)] ^ S6[g(x, 0xF)] ^ S7[g(x, 0xC)] ^ S8[g(x, 0xE)] ^ S7[g(x, 0x8)];
	.loc 1 799 90 view .LVU61
	ldrb	r2, [sp, #179]	@ zero_extendqisi2	@ MEM[(uint8_t *)&x + 11B], MEM[(uint8_t *)&x + 11B]
@ src/libgcrypt.c:799:         z[0] = x[0] ^ S5[g(x, 0xD)] ^ S6[g(x, 0xF)] ^ S7[g(x, 0xC)] ^ S8[g(x, 0xE)] ^ S7[g(x, 0x8)];
	.loc 1 799 85 view .LVU62
	ldr	r2, [r8, r2, lsl #2]	@ S7[_26], S7[_26]
	eor	r6, r3, r2	@ _28, tmp875, S7[_26]
@ src/libgcrypt.c:800:         z[1] = x[2] ^ S5[g(z, 0x0)] ^ S6[g(z, 0x2)] ^ S7[g(z, 0x1)] ^ S8[g(z, 0x3)] ^ S8[g(x, 0xA)];
	.loc 1 800 90 view .LVU63
	ldrb	r3, [sp, #177]	@ zero_extendqisi2	@ MEM[(uint8_t *)&x + 9B], MEM[(uint8_t *)&x + 9B]
@ src/libgcrypt.c:800:         z[1] = x[2] ^ S5[g(z, 0x0)] ^ S6[g(z, 0x2)] ^ S7[g(z, 0x1)] ^ S8[g(z, 0x3)] ^ S8[g(x, 0xA)];
	.loc 1 800 26 view .LVU64
	lsr	r1, r6, #24	@ _31, _28,
@ src/libgcrypt.c:800:         z[1] = x[2] ^ S5[g(z, 0x0)] ^ S6[g(z, 0x2)] ^ S7[g(z, 0x1)] ^ S8[g(z, 0x3)] ^ S8[g(x, 0xA)];
	.loc 1 800 85 view .LVU65
	ldr	r2, [sp, #176]	@ x[2], x[2]
	ldr	r3, [fp, r3, lsl #2]	@ S8[_44], S8[_44]
@ src/libgcrypt.c:800:         z[1] = x[2] ^ S5[g(z, 0x0)] ^ S6[g(z, 0x2)] ^ S7[g(z, 0x1)] ^ S8[g(z, 0x3)] ^ S8[g(x, 0xA)];
	.loc 1 800 42 view .LVU66
	ubfx	r5, r6, #8, #8	@ _35, _28,,
@ src/libgcrypt.c:800:         z[1] = x[2] ^ S5[g(z, 0x0)] ^ S6[g(z, 0x2)] ^ S7[g(z, 0x1)] ^ S8[g(z, 0x3)] ^ S8[g(x, 0xA)];
	.loc 1 800 85 view .LVU67
	eor	r3, r3, r2	@ tmp886, S8[_44], x[2]
	ldr	r2, [r10, r1, lsl #2]	@ S5[_31], S5[_31]
@ src/libgcrypt.c:800:         z[1] = x[2] ^ S5[g(z, 0x0)] ^ S6[g(z, 0x2)] ^ S7[g(z, 0x1)] ^ S8[g(z, 0x3)] ^ S8[g(x, 0xA)];
	.loc 1 800 26 view .LVU68
	str	r1, [sp, #32]	@ _31, %sfp
@ src/libgcrypt.c:800:         z[1] = x[2] ^ S5[g(z, 0x0)] ^ S6[g(z, 0x2)] ^ S7[g(z, 0x1)] ^ S8[g(z, 0x3)] ^ S8[g(x, 0xA)];
	.loc 1 800 85 view .LVU69
	eor	r3, r3, r2	@ tmp890, tmp886, S5[_31]
	ldr	r2, [r9, r5, lsl #2]	@ S6[_35], S6[_35]
@ src/libgcrypt.c:800:         z[1] = x[2] ^ S5[g(z, 0x0)] ^ S6[g(z, 0x2)] ^ S7[g(z, 0x1)] ^ S8[g(z, 0x3)] ^ S8[g(x, 0xA)];
	.loc 1 800 58 view .LVU70
	ubfx	r1, r6, #16, #8	@ _38, _28,,
@ src/libgcrypt.c:800:         z[1] = x[2] ^ S5[g(z, 0x0)] ^ S6[g(z, 0x2)] ^ S7[g(z, 0x1)] ^ S8[g(z, 0x3)] ^ S8[g(x, 0xA)];
	.loc 1 800 85 view .LVU71
	eor	r3, r3, r2	@ tmp893, tmp890, S6[_35]
@ src/libgcrypt.c:800:         z[1] = x[2] ^ S5[g(z, 0x0)] ^ S6[g(z, 0x2)] ^ S7[g(z, 0x1)] ^ S8[g(z, 0x3)] ^ S8[g(x, 0xA)];
	.loc 1 800 74 view .LVU72
	uxtb	r2, r6	@ _41, _28
@ src/libgcrypt.c:800:         z[1] = x[2] ^ S5[g(z, 0x0)] ^ S6[g(z, 0x2)] ^ S7[g(z, 0x1)] ^ S8[g(z, 0x3)] ^ S8[g(x, 0xA)];
	.loc 1 800 58 view .LVU73
	str	r1, [sp, #48]	@ _38, %sfp
@ src/libgcrypt.c:800:         z[1] = x[2] ^ S5[g(z, 0x0)] ^ S6[g(z, 0x2)] ^ S7[g(z, 0x1)] ^ S8[g(z, 0x3)] ^ S8[g(x, 0xA)];
	.loc 1 800 57 view .LVU74
	ldr	r1, [r8, r1, lsl #2]	@ _39, S7[_38]
@ src/libgcrypt.c:800:         z[1] = x[2] ^ S5[g(z, 0x0)] ^ S6[g(z, 0x2)] ^ S7[g(z, 0x1)] ^ S8[g(z, 0x3)] ^ S8[g(x, 0xA)];
	.loc 1 800 74 view .LVU75
	str	r2, [sp, #36]	@ _41, %sfp
@ src/libgcrypt.c:800:         z[1] = x[2] ^ S5[g(z, 0x0)] ^ S6[g(z, 0x2)] ^ S7[g(z, 0x1)] ^ S8[g(z, 0x3)] ^ S8[g(x, 0xA)];
	.loc 1 800 85 view .LVU76
	ldr	r2, [fp, r2, lsl #2]	@ S8[_41], S8[_41]
	eor	r3, r3, r1	@ tmp895, tmp893, _39
	eor	r2, r3, r2	@ _46, tmp895, S8[_41]
@ src/libgcrypt.c:801:         z[2] = x[3] ^ S5[g(z, 0x7)] ^ S6[g(z, 0x6)] ^ S7[g(z, 0x5)] ^ S8[g(z, 0x4)] ^ S5[g(x, 0x9)];
	.loc 1 801 90 view .LVU77
	ldrb	r3, [sp, #178]	@ zero_extendqisi2	@ MEM[(uint8_t *)&x + 10B], MEM[(uint8_t *)&x + 10B]
@ src/libgcrypt.c:801:         z[2] = x[3] ^ S5[g(z, 0x7)] ^ S6[g(z, 0x6)] ^ S7[g(z, 0x5)] ^ S8[g(z, 0x4)] ^ S5[g(x, 0x9)];
	.loc 1 801 26 view .LVU78
	uxtb	r0, r2	@ _48, _46
@ src/libgcrypt.c:800:         z[1] = x[2] ^ S5[g(z, 0x0)] ^ S6[g(z, 0x2)] ^ S7[g(z, 0x1)] ^ S8[g(z, 0x3)] ^ S8[g(x, 0xA)];
	.loc 1 800 57 view .LVU79
	str	r1, [sp, #52]	@ _39, %sfp
@ src/libgcrypt.c:801:         z[2] = x[3] ^ S5[g(z, 0x7)] ^ S6[g(z, 0x6)] ^ S7[g(z, 0x5)] ^ S8[g(z, 0x4)] ^ S5[g(x, 0x9)];
	.loc 1 801 85 view .LVU80
	ldr	r1, [r10, r3, lsl #2]	@ S5[_60], S5[_60]
	ldr	r3, [sp, #180]	@ x[3], x[3]
@ src/libgcrypt.c:801:         z[2] = x[3] ^ S5[g(z, 0x7)] ^ S6[g(z, 0x6)] ^ S7[g(z, 0x5)] ^ S8[g(z, 0x4)] ^ S5[g(x, 0x9)];
	.loc 1 801 42 view .LVU81
	ubfx	ip, r2, #8, #8	@ _51, _46,,
@ src/libgcrypt.c:801:         z[2] = x[3] ^ S5[g(z, 0x7)] ^ S6[g(z, 0x6)] ^ S7[g(z, 0x5)] ^ S8[g(z, 0x4)] ^ S5[g(x, 0x9)];
	.loc 1 801 85 view .LVU82
	eor	r1, r1, r3	@ tmp906, S5[_60], x[3]
	ldr	r3, [r10, r0, lsl #2]	@ S5[_48], S5[_48]
@ src/libgcrypt.c:800:         z[1] = x[2] ^ S5[g(z, 0x0)] ^ S6[g(z, 0x2)] ^ S7[g(z, 0x1)] ^ S8[g(z, 0x3)] ^ S8[g(x, 0xA)];
	.loc 1 800 85 view .LVU83
	str	r2, [sp, #60]	@ _46, %sfp
@ src/libgcrypt.c:801:         z[2] = x[3] ^ S5[g(z, 0x7)] ^ S6[g(z, 0x6)] ^ S7[g(z, 0x5)] ^ S8[g(z, 0x4)] ^ S5[g(x, 0x9)];
	.loc 1 801 85 view .LVU84
	eor	r1, r1, r3	@ tmp910, tmp906, S5[_48]
@ src/libgcrypt.c:801:         z[2] = x[3] ^ S5[g(z, 0x7)] ^ S6[g(z, 0x6)] ^ S7[g(z, 0x5)] ^ S8[g(z, 0x4)] ^ S5[g(x, 0x9)];
	.loc 1 801 58 view .LVU85
	mov	r3, r2	@ _46, _46
@ src/libgcrypt.c:800:         z[1] = x[2] ^ S5[g(z, 0x0)] ^ S6[g(z, 0x2)] ^ S7[g(z, 0x1)] ^ S8[g(z, 0x3)] ^ S8[g(x, 0xA)];
	.loc 1 800 14 view .LVU86
	str	r2, [sp, #188]	@ _46, z[1]
@ src/libgcrypt.c:801:         z[2] = x[3] ^ S5[g(z, 0x7)] ^ S6[g(z, 0x6)] ^ S7[g(z, 0x5)] ^ S8[g(z, 0x4)] ^ S5[g(x, 0x9)];
	.loc 1 801 58 view .LVU87
	ubfx	r2, r2, #16, #8	@ _54, _46,,
@ src/libgcrypt.c:801:         z[2] = x[3] ^ S5[g(z, 0x7)] ^ S6[g(z, 0x6)] ^ S7[g(z, 0x5)] ^ S8[g(z, 0x4)] ^ S5[g(x, 0x9)];
	.loc 1 801 26 view .LVU88
	str	r0, [sp, #40]	@ _48, %sfp
@ src/libgcrypt.c:801:         z[2] = x[3] ^ S5[g(z, 0x7)] ^ S6[g(z, 0x6)] ^ S7[g(z, 0x5)] ^ S8[g(z, 0x4)] ^ S5[g(x, 0x9)];
	.loc 1 801 42 view .LVU89
	str	ip, [sp, #44]	@ _51, %sfp
@ src/libgcrypt.c:799:         z[0] = x[0] ^ S5[g(x, 0xD)] ^ S6[g(x, 0xF)] ^ S7[g(x, 0xC)] ^ S8[g(x, 0xE)] ^ S7[g(x, 0x8)];
	.loc 1 799 14 view .LVU90
	str	r6, [sp, #184]	@ _28, z[0]
	.loc 1 800 9 is_stmt 1 view .LVU91
.LVL9:
	.loc 1 800 9 is_stmt 0 view .LVU92
.LBE571:
	.loc 1 726 5 is_stmt 1 view .LVU93
	.loc 1 726 5 view .LVU94
	.loc 1 726 5 view .LVU95
	.loc 1 726 5 view .LVU96
.LBB572:
.LBB430:
.LBI430:
	.loc 1 724 16 view .LVU97
.LBB431:
	.loc 1 726 5 view .LVU98
	.loc 1 726 5 is_stmt 0 view .LVU99
.LBE431:
.LBE430:
	.loc 1 801 9 is_stmt 1 view .LVU100
	.loc 1 801 9 is_stmt 0 view .LVU101
.LBE572:
	.loc 1 726 5 is_stmt 1 view .LVU102
	.loc 1 726 5 view .LVU103
.LBB573:
@ src/libgcrypt.c:801:         z[2] = x[3] ^ S5[g(z, 0x7)] ^ S6[g(z, 0x6)] ^ S7[g(z, 0x5)] ^ S8[g(z, 0x4)] ^ S5[g(x, 0x9)];
	.loc 1 801 58 is_stmt 0 view .LVU104
	str	r2, [sp, #68]	@ _54, %sfp
@ src/libgcrypt.c:801:         z[2] = x[3] ^ S5[g(z, 0x7)] ^ S6[g(z, 0x6)] ^ S7[g(z, 0x5)] ^ S8[g(z, 0x4)] ^ S5[g(x, 0x9)];
	.loc 1 801 41 view .LVU105
	ldr	r0, [r9, ip, lsl #2]	@ _52, S6[_51]
@ src/libgcrypt.c:801:         z[2] = x[3] ^ S5[g(z, 0x7)] ^ S6[g(z, 0x6)] ^ S7[g(z, 0x5)] ^ S8[g(z, 0x4)] ^ S5[g(x, 0x9)];
	.loc 1 801 85 view .LVU106
	eor	r1, r1, r0	@ tmp912, tmp910, _52
@ src/libgcrypt.c:801:         z[2] = x[3] ^ S5[g(z, 0x7)] ^ S6[g(z, 0x6)] ^ S7[g(z, 0x5)] ^ S8[g(z, 0x4)] ^ S5[g(x, 0x9)];
	.loc 1 801 41 view .LVU107
	str	r0, [sp, #64]	@ _52, %sfp
.LVL10:
	.loc 1 801 41 view .LVU108
.LBE573:
	.loc 1 726 5 is_stmt 1 view .LVU109
.LBB574:
@ src/libgcrypt.c:801:         z[2] = x[3] ^ S5[g(z, 0x7)] ^ S6[g(z, 0x6)] ^ S7[g(z, 0x5)] ^ S8[g(z, 0x4)] ^ S5[g(x, 0x9)];
	.loc 1 801 74 is_stmt 0 view .LVU110
	lsr	r0, r3, #24	@ _57, _46,
@ src/libgcrypt.c:801:         z[2] = x[3] ^ S5[g(z, 0x7)] ^ S6[g(z, 0x6)] ^ S7[g(z, 0x5)] ^ S8[g(z, 0x4)] ^ S5[g(x, 0x9)];
	.loc 1 801 57 view .LVU111
	ldr	r3, [r8, r2, lsl #2]	@ _55, S7[_54]
.LVL11:
	.loc 1 801 57 view .LVU112
.LBE574:
	.loc 1 726 5 is_stmt 1 view .LVU113
.LBB575:
@ src/libgcrypt.c:801:         z[2] = x[3] ^ S5[g(z, 0x7)] ^ S6[g(z, 0x6)] ^ S7[g(z, 0x5)] ^ S8[g(z, 0x4)] ^ S5[g(x, 0x9)];
	.loc 1 801 73 is_stmt 0 view .LVU114
	ldr	r2, [fp, r0, lsl #2]	@ _58, S8[_57]
@ src/libgcrypt.c:801:         z[2] = x[3] ^ S5[g(z, 0x7)] ^ S6[g(z, 0x6)] ^ S7[g(z, 0x5)] ^ S8[g(z, 0x4)] ^ S5[g(x, 0x9)];
	.loc 1 801 85 view .LVU115
	eor	r1, r1, r3	@ tmp913, tmp912, _55
@ src/libgcrypt.c:801:         z[2] = x[3] ^ S5[g(z, 0x7)] ^ S6[g(z, 0x6)] ^ S7[g(z, 0x5)] ^ S8[g(z, 0x4)] ^ S5[g(x, 0x9)];
	.loc 1 801 73 view .LVU116
	str	r2, [sp, #76]	@ _58, %sfp
.LVL12:
.LBB432:
.LBI432:
	.loc 1 724 16 is_stmt 1 view .LVU117
.LBB433:
	.loc 1 726 5 view .LVU118
	.loc 1 726 5 is_stmt 0 view .LVU119
.LBE433:
.LBE432:
@ src/libgcrypt.c:801:         z[2] = x[3] ^ S5[g(z, 0x7)] ^ S6[g(z, 0x6)] ^ S7[g(z, 0x5)] ^ S8[g(z, 0x4)] ^ S5[g(x, 0x9)];
	.loc 1 801 85 view .LVU120
	eor	r2, r1, r2	@ _62, tmp913, _58
@ src/libgcrypt.c:801:         z[2] = x[3] ^ S5[g(z, 0x7)] ^ S6[g(z, 0x6)] ^ S7[g(z, 0x5)] ^ S8[g(z, 0x4)] ^ S5[g(x, 0x9)];
	.loc 1 801 74 view .LVU121
	str	r0, [sp, #72]	@ _57, %sfp
@ src/libgcrypt.c:802:         z[3] = x[1] ^ S5[g(z, 0xA)] ^ S6[g(z, 0x9)] ^ S7[g(z, 0xB)] ^ S8[g(z, 0x8)] ^ S6[g(x, 0xB)];
	.loc 1 802 26 view .LVU122
	ubfx	r0, r2, #8, #8	@ tmp916, _62,,
@ src/libgcrypt.c:802:         z[3] = x[1] ^ S5[g(z, 0xA)] ^ S6[g(z, 0x9)] ^ S7[g(z, 0xB)] ^ S8[g(z, 0x8)] ^ S6[g(x, 0xB)];
	.loc 1 802 90 view .LVU123
	ldrb	r1, [sp, #176]	@ zero_extendqisi2	@ MEM[(uint8_t *)&x + 8B], MEM[(uint8_t *)&x + 8B]
@ src/libgcrypt.c:802:         z[3] = x[1] ^ S5[g(z, 0xA)] ^ S6[g(z, 0x9)] ^ S7[g(z, 0xB)] ^ S8[g(z, 0x8)] ^ S6[g(x, 0xB)];
	.loc 1 802 25 view .LVU124
	ldr	r7, [r10, r0, lsl #2]	@ _65, S5[_64]
@ src/libgcrypt.c:802:         z[3] = x[1] ^ S5[g(z, 0xA)] ^ S6[g(z, 0x9)] ^ S7[g(z, 0xB)] ^ S8[g(z, 0x8)] ^ S6[g(x, 0xB)];
	.loc 1 802 42 view .LVU125
	ubfx	r0, r2, #16, #8	@ _67, _62,,
@ src/libgcrypt.c:802:         z[3] = x[1] ^ S5[g(z, 0xA)] ^ S6[g(z, 0x9)] ^ S7[g(z, 0xB)] ^ S8[g(z, 0x8)] ^ S6[g(x, 0xB)];
	.loc 1 802 85 view .LVU126
	ldr	r1, [r9, r1, lsl #2]	@ S6[_76], S6[_76]
@ src/libgcrypt.c:802:         z[3] = x[1] ^ S5[g(z, 0xA)] ^ S6[g(z, 0x9)] ^ S7[g(z, 0xB)] ^ S8[g(z, 0x8)] ^ S6[g(x, 0xB)];
	.loc 1 802 41 view .LVU127
	ldr	ip, [r9, r0, lsl #2]	@ _68, S6[_67]
@ src/libgcrypt.c:802:         z[3] = x[1] ^ S5[g(z, 0xA)] ^ S6[g(z, 0x9)] ^ S7[g(z, 0xB)] ^ S8[g(z, 0x8)] ^ S6[g(x, 0xB)];
	.loc 1 802 42 view .LVU128
	str	r0, [sp, #84]	@ _67, %sfp
@ src/libgcrypt.c:802:         z[3] = x[1] ^ S5[g(z, 0xA)] ^ S6[g(z, 0x9)] ^ S7[g(z, 0xB)] ^ S8[g(z, 0x8)] ^ S6[g(x, 0xB)];
	.loc 1 802 85 view .LVU129
	ldr	r0, [sp, #172]	@ x[1], x[1]
@ src/libgcrypt.c:801:         z[2] = x[3] ^ S5[g(z, 0x7)] ^ S6[g(z, 0x6)] ^ S7[g(z, 0x5)] ^ S8[g(z, 0x4)] ^ S5[g(x, 0x9)];
	.loc 1 801 85 view .LVU130
	str	r2, [sp, #80]	@ _62, %sfp
@ src/libgcrypt.c:802:         z[3] = x[1] ^ S5[g(z, 0xA)] ^ S6[g(z, 0x9)] ^ S7[g(z, 0xB)] ^ S8[g(z, 0x8)] ^ S6[g(x, 0xB)];
	.loc 1 802 85 view .LVU131
	eor	r1, r1, r0	@ tmp922, S6[_76], x[1]
@ src/libgcrypt.c:802:         z[3] = x[1] ^ S5[g(z, 0xA)] ^ S6[g(z, 0x9)] ^ S7[g(z, 0xB)] ^ S8[g(z, 0x8)] ^ S6[g(x, 0xB)];
	.loc 1 802 58 view .LVU132
	mov	r0, r2	@ _62, _62
@ src/libgcrypt.c:801:         z[2] = x[3] ^ S5[g(z, 0x7)] ^ S6[g(z, 0x6)] ^ S7[g(z, 0x5)] ^ S8[g(z, 0x4)] ^ S5[g(x, 0x9)];
	.loc 1 801 14 view .LVU133
	str	r2, [sp, #192]	@ _62, z[2]
	.loc 1 802 9 is_stmt 1 view .LVU134
.LVL13:
	.loc 1 802 9 is_stmt 0 view .LVU135
.LBE575:
	.loc 1 726 5 is_stmt 1 view .LVU136
	.loc 1 726 5 view .LVU137
.LBB576:
@ src/libgcrypt.c:802:         z[3] = x[1] ^ S5[g(z, 0xA)] ^ S6[g(z, 0x9)] ^ S7[g(z, 0xB)] ^ S8[g(z, 0x8)] ^ S6[g(x, 0xB)];
	.loc 1 802 58 is_stmt 0 view .LVU138
	uxtb	r2, r2	@ _70, _62
@ src/libgcrypt.c:802:         z[3] = x[1] ^ S5[g(z, 0xA)] ^ S6[g(z, 0x9)] ^ S7[g(z, 0xB)] ^ S8[g(z, 0x8)] ^ S6[g(x, 0xB)];
	.loc 1 802 85 view .LVU139
	eor	r1, r1, r7	@ tmp925, tmp922, _65
	eor	r1, r1, ip	@ tmp926, tmp925, _68
@ src/libgcrypt.c:802:         z[3] = x[1] ^ S5[g(z, 0xA)] ^ S6[g(z, 0x9)] ^ S7[g(z, 0xB)] ^ S8[g(z, 0x8)] ^ S6[g(x, 0xB)];
	.loc 1 802 41 view .LVU140
	str	ip, [sp, #88]	@ _68, %sfp
.LVL14:
	.loc 1 802 41 view .LVU141
.LBE576:
	.loc 1 726 5 is_stmt 1 view .LVU142
	.loc 1 726 5 view .LVU143
.LBB577:
@ src/libgcrypt.c:802:         z[3] = x[1] ^ S5[g(z, 0xA)] ^ S6[g(z, 0x9)] ^ S7[g(z, 0xB)] ^ S8[g(z, 0x8)] ^ S6[g(x, 0xB)];
	.loc 1 802 74 is_stmt 0 view .LVU144
	lsr	ip, r0, #24	@ _73, _62,
@ src/libgcrypt.c:802:         z[3] = x[1] ^ S5[g(z, 0xA)] ^ S6[g(z, 0x9)] ^ S7[g(z, 0xB)] ^ S8[g(z, 0x8)] ^ S6[g(x, 0xB)];
	.loc 1 802 85 view .LVU145
	ldr	r0, [r8, r2, lsl #2]	@ S7[_70], S7[_70]
@ src/libgcrypt.c:802:         z[3] = x[1] ^ S5[g(z, 0xA)] ^ S6[g(z, 0x9)] ^ S7[g(z, 0xB)] ^ S8[g(z, 0x8)] ^ S6[g(x, 0xB)];
	.loc 1 802 74 view .LVU146
	str	ip, [sp, #92]	@ _73, %sfp
.LVL15:
.LBB434:
.LBI434:
	.loc 1 724 16 is_stmt 1 view .LVU147
.LBB435:
	.loc 1 726 5 view .LVU148
	.loc 1 726 5 is_stmt 0 view .LVU149
.LBE435:
.LBE434:
@ src/libgcrypt.c:802:         z[3] = x[1] ^ S5[g(z, 0xA)] ^ S6[g(z, 0x9)] ^ S7[g(z, 0xB)] ^ S8[g(z, 0x8)] ^ S6[g(x, 0xB)];
	.loc 1 802 85 view .LVU150
	eor	r1, r1, r0	@ tmp928, tmp926, S7[_70]
	ldr	r0, [fp, ip, lsl #2]	@ S8[_73], S8[_73]
	eor	r4, r1, r0	@ _78, tmp928, S8[_73]
@ src/libgcrypt.c:802:         z[3] = x[1] ^ S5[g(z, 0xA)] ^ S6[g(z, 0x9)] ^ S7[g(z, 0xB)] ^ S8[g(z, 0x8)] ^ S6[g(x, 0xB)];
	.loc 1 802 14 view .LVU151
	str	r4, [sp, #196]	@ _78, z[3]
	.loc 1 804 9 is_stmt 1 view .LVU152
@ src/libgcrypt.c:804:         if(debug) {
	.loc 1 804 11 is_stmt 0 view .LVU153
	bne	.L100		@,
.L8:
	.loc 1 811 9 is_stmt 1 view .LVU154
.LVL16:
	.loc 1 811 9 is_stmt 0 view .LVU155
.LBE577:
	.loc 1 726 5 is_stmt 1 view .LVU156
	.loc 1 726 5 view .LVU157
	.loc 1 726 5 view .LVU158
	.loc 1 726 5 view .LVU159
	.loc 1 726 5 view .LVU160
.LBB578:
@ src/libgcrypt.c:812:         K[1 + i * 16] = S5[g(z, 0xA)] ^ S6[g(z, 0xB)] ^ S7[g(z, 0x5)] ^ S8[g(z, 0x4)] ^ S6[g(z, 0x6)];
	.loc 1 812 87 is_stmt 0 view .LVU161
	ldr	r1, [sp, #64]	@ _52, %sfp
@ src/libgcrypt.c:812:         K[1 + i * 16] = S5[g(z, 0xA)] ^ S6[g(z, 0xB)] ^ S7[g(z, 0x5)] ^ S8[g(z, 0x4)] ^ S6[g(z, 0x6)];
	.loc 1 812 23 view .LVU162
	ldr	lr, [sp, #24]	@ ivtmp.302, %sfp
@ src/libgcrypt.c:812:         K[1 + i * 16] = S5[g(z, 0xA)] ^ S6[g(z, 0xB)] ^ S7[g(z, 0x5)] ^ S8[g(z, 0x4)] ^ S6[g(z, 0x6)];
	.loc 1 812 87 view .LVU163
	eor	r1, r1, r3	@ _52, _52, _55
@ src/libgcrypt.c:811:         K[0 + i * 16] = S5[g(z, 0x8)] ^ S6[g(z, 0x9)] ^ S7[g(z, 0x7)] ^ S8[g(z, 0x6)] ^ S5[g(z, 0x2)];
	.loc 1 811 87 view .LVU164
	ldr	r0, [sp, #92]	@ _73, %sfp
@ src/libgcrypt.c:812:         K[1 + i * 16] = S5[g(z, 0xA)] ^ S6[g(z, 0xB)] ^ S7[g(z, 0x5)] ^ S8[g(z, 0x4)] ^ S6[g(z, 0x6)];
	.loc 1 812 87 view .LVU165
	mov	r3, r1	@ tmp951, _52
	ldr	r1, [sp, #76]	@ _58, %sfp
@ src/libgcrypt.c:811:         K[0 + i * 16] = S5[g(z, 0x8)] ^ S6[g(z, 0x9)] ^ S7[g(z, 0x7)] ^ S8[g(z, 0x6)] ^ S5[g(z, 0x2)];
	.loc 1 811 87 view .LVU166
	ldr	r0, [r10, r0, lsl #2]	@ S5[_73], S5[_73]
@ src/libgcrypt.c:812:         K[1 + i * 16] = S5[g(z, 0xA)] ^ S6[g(z, 0xB)] ^ S7[g(z, 0x5)] ^ S8[g(z, 0x4)] ^ S6[g(z, 0x6)];
	.loc 1 812 87 view .LVU167
	eor	r3, r3, r1	@ tmp952, tmp951, _58
	eor	r7, r7, r3	@ tmp953, _65, tmp952
@ src/libgcrypt.c:811:         K[0 + i * 16] = S5[g(z, 0x8)] ^ S6[g(z, 0x9)] ^ S7[g(z, 0x7)] ^ S8[g(z, 0x6)] ^ S5[g(z, 0x2)];
	.loc 1 811 75 view .LVU168
	ldr	r3, [sp, #44]	@ _51, %sfp
@ src/libgcrypt.c:813:         K[2 + i * 16] = S5[g(z, 0xC)] ^ S6[g(z, 0xD)] ^ S7[g(z, 0x3)] ^ S8[g(z, 0x2)] ^ S7[g(z, 0x9)];
	.loc 1 813 87 view .LVU169
	ldr	r1, [sp, #84]	@ _67, %sfp
@ src/libgcrypt.c:811:         K[0 + i * 16] = S5[g(z, 0x8)] ^ S6[g(z, 0x9)] ^ S7[g(z, 0x7)] ^ S8[g(z, 0x6)] ^ S5[g(z, 0x2)];
	.loc 1 811 75 view .LVU170
	ldr	r3, [fp, r3, lsl #2]	@ _84, S8[_51]
@ src/libgcrypt.c:813:         K[2 + i * 16] = S5[g(z, 0xC)] ^ S6[g(z, 0xD)] ^ S7[g(z, 0x3)] ^ S8[g(z, 0x2)] ^ S7[g(z, 0x9)];
	.loc 1 813 87 view .LVU171
	ldr	r1, [r8, r1, lsl #2]	@ S7[_67], S7[_67]
@ src/libgcrypt.c:811:         K[0 + i * 16] = S5[g(z, 0x8)] ^ S6[g(z, 0x9)] ^ S7[g(z, 0x7)] ^ S8[g(z, 0x6)] ^ S5[g(z, 0x2)];
	.loc 1 811 75 view .LVU172
	str	r3, [sp, #44]	@ _84, %sfp
@ src/libgcrypt.c:812:         K[1 + i * 16] = S5[g(z, 0xA)] ^ S6[g(z, 0xB)] ^ S7[g(z, 0x5)] ^ S8[g(z, 0x4)] ^ S6[g(z, 0x6)];
	.loc 1 812 87 view .LVU173
	ldr	r3, [r9, r2, lsl #2]	@ S6[_70], S6[_70]
@ src/libgcrypt.c:816:         if(debug) {
	.loc 1 816 11 view .LVU174
	ldr	r2, [sp, #508]	@ tmp1781, debug
@ src/libgcrypt.c:812:         K[1 + i * 16] = S5[g(z, 0xA)] ^ S6[g(z, 0xB)] ^ S7[g(z, 0x5)] ^ S8[g(z, 0x4)] ^ S6[g(z, 0x6)];
	.loc 1 812 87 view .LVU175
	eor	r7, r7, r3	@ tmp955, tmp953, S6[_70]
@ src/libgcrypt.c:814:         K[3 + i * 16] = S5[g(z, 0xE)] ^ S6[g(z, 0xF)] ^ S7[g(z, 0x1)] ^ S8[g(z, 0x0)] ^ S8[g(z, 0xC)];
	.loc 1 814 28 view .LVU176
	ubfx	r3, r4, #8, #8	@ tmp978, _78,,
@ src/libgcrypt.c:816:         if(debug) {
	.loc 1 816 11 view .LVU177
	cmp	r2, #0	@ tmp1781,
@ src/libgcrypt.c:812:         K[1 + i * 16] = S5[g(z, 0xA)] ^ S6[g(z, 0xB)] ^ S7[g(z, 0x5)] ^ S8[g(z, 0x4)] ^ S6[g(z, 0x6)];
	.loc 1 812 23 view .LVU178
	str	r7, [lr, #-12]	@ tmp955, MEM[base: _1691, offset: 4294967284B]
@ src/libgcrypt.c:814:         K[3 + i * 16] = S5[g(z, 0xE)] ^ S6[g(z, 0xF)] ^ S7[g(z, 0x1)] ^ S8[g(z, 0x0)] ^ S8[g(z, 0xC)];
	.loc 1 814 71 view .LVU179
	ldr	ip, [r10, r3, lsl #2]	@ S5[_107], S5[_107]
@ src/libgcrypt.c:811:         K[0 + i * 16] = S5[g(z, 0x8)] ^ S6[g(z, 0x9)] ^ S7[g(z, 0x7)] ^ S8[g(z, 0x6)] ^ S5[g(z, 0x2)];
	.loc 1 811 87 view .LVU180
	ldr	r3, [sp, #40]	@ _48, %sfp
	ldr	r7, [sp, #44]	@ _84, %sfp
	ldr	r3, [r8, r3, lsl #2]	@ S7[_48], S7[_48]
	ldr	lr, [r10, r5, lsl #2]	@ S5[_35], S5[_35]
	eor	r3, r3, r7	@ tmp942, S7[_48], _84
@ src/libgcrypt.c:813:         K[2 + i * 16] = S5[g(z, 0xC)] ^ S6[g(z, 0xD)] ^ S7[g(z, 0x3)] ^ S8[g(z, 0x2)] ^ S7[g(z, 0x9)];
	.loc 1 813 75 view .LVU181
	ldr	r7, [fp, r5, lsl #2]	@ _102, S8[_35]
@ src/libgcrypt.c:811:         K[0 + i * 16] = S5[g(z, 0x8)] ^ S6[g(z, 0x9)] ^ S7[g(z, 0x7)] ^ S8[g(z, 0x6)] ^ S5[g(z, 0x2)];
	.loc 1 811 87 view .LVU182
	ldr	r5, [sp, #88]	@ _68, %sfp
	eor	r3, r3, lr	@ tmp945, tmp942, S5[_35]
	eor	r3, r3, r5	@ tmp947, tmp945, _68
@ src/libgcrypt.c:811:         K[0 + i * 16] = S5[g(z, 0x8)] ^ S6[g(z, 0x9)] ^ S7[g(z, 0x7)] ^ S8[g(z, 0x6)] ^ S5[g(z, 0x2)];
	.loc 1 811 23 view .LVU183
	ldr	lr, [sp, #24]	@ ivtmp.302, %sfp
@ src/libgcrypt.c:811:         K[0 + i * 16] = S5[g(z, 0x8)] ^ S6[g(z, 0x9)] ^ S7[g(z, 0x7)] ^ S8[g(z, 0x6)] ^ S5[g(z, 0x2)];
	.loc 1 811 87 view .LVU184
	eor	r3, r3, r0	@ tmp949, tmp947, S5[_73]
@ src/libgcrypt.c:811:         K[0 + i * 16] = S5[g(z, 0x8)] ^ S6[g(z, 0x9)] ^ S7[g(z, 0x7)] ^ S8[g(z, 0x6)] ^ S5[g(z, 0x2)];
	.loc 1 811 23 view .LVU185
	str	r3, [lr, #-16]	@ tmp949, MEM[base: _1691, offset: 4294967280B]
	.loc 1 812 9 is_stmt 1 view .LVU186
.LVL17:
	.loc 1 812 9 is_stmt 0 view .LVU187
.LBE578:
	.loc 1 726 5 is_stmt 1 view .LVU188
	.loc 1 726 5 view .LVU189
	.loc 1 726 5 view .LVU190
	.loc 1 726 5 view .LVU191
	.loc 1 726 5 view .LVU192
.LBB579:
	.loc 1 813 9 view .LVU193
	.loc 1 813 9 is_stmt 0 view .LVU194
.LBE579:
	.loc 1 726 5 is_stmt 1 view .LVU195
	.loc 1 726 5 view .LVU196
	.loc 1 726 5 view .LVU197
	.loc 1 726 5 view .LVU198
	.loc 1 726 5 view .LVU199
.LBB580:
@ src/libgcrypt.c:813:         K[2 + i * 16] = S5[g(z, 0xC)] ^ S6[g(z, 0xD)] ^ S7[g(z, 0x3)] ^ S8[g(z, 0x2)] ^ S7[g(z, 0x9)];
	.loc 1 813 87 is_stmt 0 view .LVU200
	ldr	r3, [sp, #36]	@ _41, %sfp
@ src/libgcrypt.c:814:         K[3 + i * 16] = S5[g(z, 0xE)] ^ S6[g(z, 0xF)] ^ S7[g(z, 0x1)] ^ S8[g(z, 0x0)] ^ S8[g(z, 0xC)];
	.loc 1 814 71 view .LVU201
	ldr	r0, [sp, #52]	@ _39, %sfp
@ src/libgcrypt.c:813:         K[2 + i * 16] = S5[g(z, 0xC)] ^ S6[g(z, 0xD)] ^ S7[g(z, 0x3)] ^ S8[g(z, 0x2)] ^ S7[g(z, 0x9)];
	.loc 1 813 87 view .LVU202
	ldr	r3, [r8, r3, lsl #2]	@ S7[_41], S7[_41]
@ src/libgcrypt.c:813:         K[2 + i * 16] = S5[g(z, 0xC)] ^ S6[g(z, 0xD)] ^ S7[g(z, 0x3)] ^ S8[g(z, 0x2)] ^ S7[g(z, 0x9)];
	.loc 1 813 28 view .LVU203
	lsr	r2, r4, #24	@ _95, _78,
@ src/libgcrypt.c:813:         K[2 + i * 16] = S5[g(z, 0xC)] ^ S6[g(z, 0xD)] ^ S7[g(z, 0x3)] ^ S8[g(z, 0x2)] ^ S7[g(z, 0x9)];
	.loc 1 813 87 view .LVU204
	eor	r3, r3, r7	@ tmp960, S7[_41], _102
	eor	r1, r1, r3	@ tmp963, S7[_67], tmp960
@ src/libgcrypt.c:814:         K[3 + i * 16] = S5[g(z, 0xE)] ^ S6[g(z, 0xF)] ^ S7[g(z, 0x1)] ^ S8[g(z, 0x0)] ^ S8[g(z, 0xC)];
	.loc 1 814 71 view .LVU205
	ldr	r3, [sp, #32]	@ _31, %sfp
@ src/libgcrypt.c:813:         K[2 + i * 16] = S5[g(z, 0xC)] ^ S6[g(z, 0xD)] ^ S7[g(z, 0x3)] ^ S8[g(z, 0x2)] ^ S7[g(z, 0x9)];
	.loc 1 813 75 view .LVU206
	str	r7, [sp, #64]	@ _102, %sfp
@ src/libgcrypt.c:814:         K[3 + i * 16] = S5[g(z, 0xE)] ^ S6[g(z, 0xF)] ^ S7[g(z, 0x1)] ^ S8[g(z, 0x0)] ^ S8[g(z, 0xC)];
	.loc 1 814 71 view .LVU207
	ldr	r3, [fp, r3, lsl #2]	@ S8[_31], S8[_31]
	eor	r0, r0, r3	@ _39, _39, S8[_31]
@ src/libgcrypt.c:814:         K[3 + i * 16] = S5[g(z, 0xE)] ^ S6[g(z, 0xF)] ^ S7[g(z, 0x1)] ^ S8[g(z, 0x0)] ^ S8[g(z, 0xC)];
	.loc 1 814 44 view .LVU208
	uxtb	r3, r4	@ _78, _78
@ src/libgcrypt.c:814:         K[3 + i * 16] = S5[g(z, 0xE)] ^ S6[g(z, 0xF)] ^ S7[g(z, 0x1)] ^ S8[g(z, 0x0)] ^ S8[g(z, 0xC)];
	.loc 1 814 71 view .LVU209
	eor	ip, ip, r0	@ tmp979, S5[_107], tmp974
	ldr	r3, [r9, r3, lsl #2]	@ S6[_109], S6[_109]
@ src/libgcrypt.c:813:         K[2 + i * 16] = S5[g(z, 0xC)] ^ S6[g(z, 0xD)] ^ S7[g(z, 0x3)] ^ S8[g(z, 0x2)] ^ S7[g(z, 0x9)];
	.loc 1 813 87 view .LVU210
	ldr	r0, [r10, r2, lsl #2]	@ S5[_95], S5[_95]
@ src/libgcrypt.c:814:         K[3 + i * 16] = S5[g(z, 0xE)] ^ S6[g(z, 0xF)] ^ S7[g(z, 0x1)] ^ S8[g(z, 0x0)] ^ S8[g(z, 0xC)];
	.loc 1 814 71 view .LVU211
	eor	ip, ip, r3	@ tmp983, tmp979, S6[_109]
@ src/libgcrypt.c:813:         K[2 + i * 16] = S5[g(z, 0xC)] ^ S6[g(z, 0xD)] ^ S7[g(z, 0x3)] ^ S8[g(z, 0x2)] ^ S7[g(z, 0x9)];
	.loc 1 813 44 view .LVU212
	ubfx	r3, r4, #16, #8	@ tmp970, _78,,
@ src/libgcrypt.c:813:         K[2 + i * 16] = S5[g(z, 0xC)] ^ S6[g(z, 0xD)] ^ S7[g(z, 0x3)] ^ S8[g(z, 0x2)] ^ S7[g(z, 0x9)];
	.loc 1 813 87 view .LVU213
	eor	r1, r1, r0	@ tmp966, tmp963, S5[_95]
	ldr	r3, [r9, r3, lsl #2]	@ S6[_97], S6[_97]
	eor	r1, r1, r3	@ tmp971, tmp966, S6[_97]
@ src/libgcrypt.c:813:         K[2 + i * 16] = S5[g(z, 0xC)] ^ S6[g(z, 0xD)] ^ S7[g(z, 0x3)] ^ S8[g(z, 0x2)] ^ S7[g(z, 0x9)];
	.loc 1 813 23 view .LVU214
	str	r1, [lr, #-8]	@ tmp971, MEM[base: _1691, offset: 4294967288B]
	.loc 1 814 9 is_stmt 1 view .LVU215
.LVL18:
	.loc 1 814 9 is_stmt 0 view .LVU216
.LBE580:
	.loc 1 726 5 is_stmt 1 view .LVU217
	.loc 1 726 5 view .LVU218
	.loc 1 726 5 view .LVU219
	.loc 1 726 5 view .LVU220
	.loc 1 726 5 view .LVU221
.LBB581:
@ src/libgcrypt.c:814:         K[3 + i * 16] = S5[g(z, 0xE)] ^ S6[g(z, 0xF)] ^ S7[g(z, 0x1)] ^ S8[g(z, 0x0)] ^ S8[g(z, 0xC)];
	.loc 1 814 87 is_stmt 0 view .LVU222
	ldr	r3, [fp, r2, lsl #2]	@ S8[_95], S8[_95]
	eor	ip, ip, r3	@ tmp986, tmp983, S8[_95]
	ldr	r3, [sp, #28]	@ ivtmp.301, %sfp
@ src/libgcrypt.c:814:         K[3 + i * 16] = S5[g(z, 0xE)] ^ S6[g(z, 0xF)] ^ S7[g(z, 0x1)] ^ S8[g(z, 0x0)] ^ S8[g(z, 0xC)];
	.loc 1 814 23 view .LVU223
	str	ip, [lr, #-4]	@ tmp986, MEM[base: _1691, offset: 4294967292B]
	.loc 1 816 9 is_stmt 1 view .LVU224
	add	r2, r3, #3	@ _1673, ivtmp.301,
@ src/libgcrypt.c:816:         if(debug) {
	.loc 1 816 11 is_stmt 0 view .LVU225
	bne	.L101		@,
.L11:
	.loc 1 829 9 is_stmt 1 view .LVU226
.LVL19:
	.loc 1 829 9 is_stmt 0 view .LVU227
.LBE581:
	.loc 1 726 5 is_stmt 1 view .LVU228
	.loc 1 726 5 view .LVU229
	.loc 1 726 5 view .LVU230
	.loc 1 726 5 view .LVU231
	.loc 1 726 5 view .LVU232
.LBB582:
@ src/libgcrypt.c:830:         x[1] = z[0] ^ S5[g(x, 0x0)] ^ S6[g(x, 0x2)] ^ S7[g(x, 0x1)] ^ S8[g(x, 0x3)] ^ S8[g(z, 0x2)];
	.loc 1 830 85 is_stmt 0 view .LVU233
	ldr	r3, [sp, #64]	@ _102, %sfp
@ src/libgcrypt.c:829:         x[0] = z[2] ^ S5[g(z, 0x5)] ^ S6[g(z, 0x7)] ^ S7[g(z, 0x4)] ^ S8[g(z, 0x6)] ^ S7[g(z, 0x0)];
	.loc 1 829 85 view .LVU234
	ldr	r2, [sp, #44]	@ _84, %sfp
@ src/libgcrypt.c:830:         x[1] = z[0] ^ S5[g(x, 0x0)] ^ S6[g(x, 0x2)] ^ S7[g(x, 0x1)] ^ S8[g(x, 0x3)] ^ S8[g(z, 0x2)];
	.loc 1 830 85 view .LVU235
	eor	r6, r6, r3	@ tmp1022, _28, _102
@ src/libgcrypt.c:829:         x[0] = z[2] ^ S5[g(z, 0x5)] ^ S6[g(z, 0x7)] ^ S7[g(z, 0x4)] ^ S8[g(z, 0x6)] ^ S7[g(z, 0x0)];
	.loc 1 829 85 view .LVU236
	ldr	r3, [sp, #68]	@ _54, %sfp
	ldr	r3, [r10, r3, lsl #2]	@ S5[_54], S5[_54]
	eor	r2, r2, r3	@ _84, _84, S5[_54]
	mov	r3, r2	@ tmp1005, _84
	ldr	r2, [sp, #32]	@ _31, %sfp
	ldr	r2, [r8, r2, lsl #2]	@ S7[_31], S7[_31]
	eor	r3, r3, r2	@ tmp1008, tmp1005, S7[_31]
	ldr	r2, [sp, #40]	@ _48, %sfp
	ldr	r2, [r9, r2, lsl #2]	@ S6[_48], S6[_48]
	eor	r3, r3, r2	@ tmp1011, tmp1008, S6[_48]
	ldr	r2, [sp, #72]	@ _57, %sfp
	ldr	r2, [r8, r2, lsl #2]	@ S7[_57], S7[_57]
	eor	r3, r3, r2	@ tmp1014, tmp1011, S7[_57]
	ldr	r2, [sp, #80]	@ _62, %sfp
	eor	r3, r3, r2	@ _129, tmp1014, _62
@ src/libgcrypt.c:831:         x[2] = z[1] ^ S5[g(x, 0x7)] ^ S6[g(x, 0x6)] ^ S7[g(x, 0x5)] ^ S8[g(x, 0x4)] ^ S5[g(z, 0x1)];
	.loc 1 831 85 view .LVU237
	ldr	r2, [sp, #48]	@ _38, %sfp
@ src/libgcrypt.c:830:         x[1] = z[0] ^ S5[g(x, 0x0)] ^ S6[g(x, 0x2)] ^ S7[g(x, 0x1)] ^ S8[g(x, 0x3)] ^ S8[g(z, 0x2)];
	.loc 1 830 26 view .LVU238
	lsr	r0, r3, #24	@ _130, _129,
@ src/libgcrypt.c:831:         x[2] = z[1] ^ S5[g(x, 0x7)] ^ S6[g(x, 0x6)] ^ S7[g(x, 0x5)] ^ S8[g(x, 0x4)] ^ S5[g(z, 0x1)];
	.loc 1 831 85 view .LVU239
	ldr	lr, [r10, r2, lsl #2]	@ S5[_38], S5[_38]
	ldr	r2, [sp, #60]	@ _46, %sfp
@ src/libgcrypt.c:830:         x[1] = z[0] ^ S5[g(x, 0x0)] ^ S6[g(x, 0x2)] ^ S7[g(x, 0x1)] ^ S8[g(x, 0x3)] ^ S8[g(z, 0x2)];
	.loc 1 830 58 view .LVU240
	ubfx	ip, r3, #16, #8	@ _136, _129,,
@ src/libgcrypt.c:831:         x[2] = z[1] ^ S5[g(x, 0x7)] ^ S6[g(x, 0x6)] ^ S7[g(x, 0x5)] ^ S8[g(x, 0x4)] ^ S5[g(z, 0x1)];
	.loc 1 831 85 view .LVU241
	eor	r2, r2, lr	@ _46, _46, S5[_38]
@ src/libgcrypt.c:829:         x[0] = z[2] ^ S5[g(z, 0x5)] ^ S6[g(z, 0x7)] ^ S7[g(z, 0x4)] ^ S8[g(z, 0x6)] ^ S7[g(z, 0x0)];
	.loc 1 829 14 view .LVU242
	str	r3, [sp, #168]	@ _129, x[0]
	.loc 1 830 9 is_stmt 1 view .LVU243
.LVL20:
	.loc 1 830 9 is_stmt 0 view .LVU244
.LBE582:
	.loc 1 726 5 is_stmt 1 view .LVU245
	.loc 1 726 5 view .LVU246
.LBB583:
@ src/libgcrypt.c:831:         x[2] = z[1] ^ S5[g(x, 0x7)] ^ S6[g(x, 0x6)] ^ S7[g(x, 0x5)] ^ S8[g(x, 0x4)] ^ S5[g(z, 0x1)];
	.loc 1 831 85 is_stmt 0 view .LVU247
	mov	lr, r2	@ tmp1040, _46
@ src/libgcrypt.c:832:         x[3] = z[3] ^ S5[g(x, 0xA)] ^ S6[g(x, 0x9)] ^ S7[g(x, 0xB)] ^ S8[g(x, 0x8)] ^ S6[g(z, 0x3)];
	.loc 1 832 85 view .LVU248
	ldr	r2, [sp, #36]	@ _41, %sfp
	ldr	r1, [r9, r2, lsl #2]	@ S6[_41], S6[_41]
@ src/libgcrypt.c:834:         if(debug) {
	.loc 1 834 11 view .LVU249
	ldr	r2, [sp, #508]	@ tmp1807, debug
@ src/libgcrypt.c:832:         x[3] = z[3] ^ S5[g(x, 0xA)] ^ S6[g(x, 0x9)] ^ S7[g(x, 0xB)] ^ S8[g(x, 0x8)] ^ S6[g(z, 0x3)];
	.loc 1 832 85 view .LVU250
	eor	r7, r4, r1	@ tmp1054, _78, S6[_41]
@ src/libgcrypt.c:834:         if(debug) {
	.loc 1 834 11 view .LVU251
	cmp	r2, #0	@ tmp1807,
@ src/libgcrypt.c:830:         x[1] = z[0] ^ S5[g(x, 0x0)] ^ S6[g(x, 0x2)] ^ S7[g(x, 0x1)] ^ S8[g(x, 0x3)] ^ S8[g(z, 0x2)];
	.loc 1 830 42 view .LVU252
	ubfx	r2, r3, #8, #8	@ tmp1019, _129,,
@ src/libgcrypt.c:830:         x[1] = z[0] ^ S5[g(x, 0x0)] ^ S6[g(x, 0x2)] ^ S7[g(x, 0x1)] ^ S8[g(x, 0x3)] ^ S8[g(z, 0x2)];
	.loc 1 830 74 view .LVU253
	uxtb	r3, r3	@ _129, _129
@ src/libgcrypt.c:830:         x[1] = z[0] ^ S5[g(x, 0x0)] ^ S6[g(x, 0x2)] ^ S7[g(x, 0x1)] ^ S8[g(x, 0x3)] ^ S8[g(z, 0x2)];
	.loc 1 830 41 view .LVU254
	ldr	r1, [r9, r2, lsl #2]	@ _134, S6[_133]
@ src/libgcrypt.c:830:         x[1] = z[0] ^ S5[g(x, 0x0)] ^ S6[g(x, 0x2)] ^ S7[g(x, 0x1)] ^ S8[g(x, 0x3)] ^ S8[g(z, 0x2)];
	.loc 1 830 85 view .LVU255
	ldr	r2, [r10, r0, lsl #2]	@ S5[_130], S5[_130]
	ldr	r3, [fp, r3, lsl #2]	@ S8[_139], S8[_139]
	eor	r6, r6, r2	@ tmp1023, tmp1022, S5[_130]
	ldr	r2, [r8, ip, lsl #2]	@ S7[_136], S7[_136]
	eor	r6, r6, r1	@ tmp1025, tmp1023, _134
	eor	r2, r2, r6	@ tmp1027, S7[_136], tmp1025
	eor	r2, r2, r3	@ _142, tmp1027, S8[_139]
@ src/libgcrypt.c:831:         x[2] = z[1] ^ S5[g(x, 0x7)] ^ S6[g(x, 0x6)] ^ S7[g(x, 0x5)] ^ S8[g(x, 0x4)] ^ S5[g(z, 0x1)];
	.loc 1 831 58 view .LVU256
	ubfx	r5, r2, #16, #8	@ _149, _142,,
@ src/libgcrypt.c:831:         x[2] = z[1] ^ S5[g(x, 0x7)] ^ S6[g(x, 0x6)] ^ S7[g(x, 0x5)] ^ S8[g(x, 0x4)] ^ S5[g(z, 0x1)];
	.loc 1 831 26 view .LVU257
	uxtb	r3, r2	@ _142, _142
@ src/libgcrypt.c:830:         x[1] = z[0] ^ S5[g(x, 0x0)] ^ S6[g(x, 0x2)] ^ S7[g(x, 0x1)] ^ S8[g(x, 0x3)] ^ S8[g(z, 0x2)];
	.loc 1 830 14 view .LVU258
	str	r2, [sp, #172]	@ _142, x[1]
@ src/libgcrypt.c:831:         x[2] = z[1] ^ S5[g(x, 0x7)] ^ S6[g(x, 0x6)] ^ S7[g(x, 0x5)] ^ S8[g(x, 0x4)] ^ S5[g(z, 0x1)];
	.loc 1 831 85 view .LVU259
	ldr	r3, [r10, r3, lsl #2]	@ S5[_143], S5[_143]
@ src/libgcrypt.c:830:         x[1] = z[0] ^ S5[g(x, 0x0)] ^ S6[g(x, 0x2)] ^ S7[g(x, 0x1)] ^ S8[g(x, 0x3)] ^ S8[g(z, 0x2)];
	.loc 1 830 41 view .LVU260
	str	r1, [sp, #36]	@ _134, %sfp
.LVL21:
	.loc 1 830 41 view .LVU261
.LBE583:
	.loc 1 726 5 is_stmt 1 view .LVU262
	.loc 1 726 5 view .LVU263
	.loc 1 726 5 view .LVU264
.LBB584:
	.loc 1 831 9 view .LVU265
	.loc 1 831 9 is_stmt 0 view .LVU266
.LBE584:
	.loc 1 726 5 is_stmt 1 view .LVU267
	.loc 1 726 5 view .LVU268
.LBB585:
@ src/libgcrypt.c:831:         x[2] = z[1] ^ S5[g(x, 0x7)] ^ S6[g(x, 0x6)] ^ S7[g(x, 0x5)] ^ S8[g(x, 0x4)] ^ S5[g(z, 0x1)];
	.loc 1 831 85 is_stmt 0 view .LVU269
	eor	lr, lr, r3	@ tmp1042, tmp1040, S5[_143]
@ src/libgcrypt.c:831:         x[2] = z[1] ^ S5[g(x, 0x7)] ^ S6[g(x, 0x6)] ^ S7[g(x, 0x5)] ^ S8[g(x, 0x4)] ^ S5[g(z, 0x1)];
	.loc 1 831 42 view .LVU270
	ubfx	r3, r2, #8, #8	@ tmp1034, _142,,
@ src/libgcrypt.c:831:         x[2] = z[1] ^ S5[g(x, 0x7)] ^ S6[g(x, 0x6)] ^ S7[g(x, 0x5)] ^ S8[g(x, 0x4)] ^ S5[g(z, 0x1)];
	.loc 1 831 74 view .LVU271
	lsr	r2, r2, #24	@ _152, _142,
@ src/libgcrypt.c:831:         x[2] = z[1] ^ S5[g(x, 0x7)] ^ S6[g(x, 0x6)] ^ S7[g(x, 0x5)] ^ S8[g(x, 0x4)] ^ S5[g(z, 0x1)];
	.loc 1 831 41 view .LVU272
	ldr	r3, [r9, r3, lsl #2]	@ _147, S6[_146]
@ src/libgcrypt.c:831:         x[2] = z[1] ^ S5[g(x, 0x7)] ^ S6[g(x, 0x6)] ^ S7[g(x, 0x5)] ^ S8[g(x, 0x4)] ^ S5[g(z, 0x1)];
	.loc 1 831 85 view .LVU273
	ldr	r1, [fp, r2, lsl #2]	@ S8[_152], S8[_152]
	eor	lr, lr, r3	@ tmp1044, tmp1042, _147
@ src/libgcrypt.c:831:         x[2] = z[1] ^ S5[g(x, 0x7)] ^ S6[g(x, 0x6)] ^ S7[g(x, 0x5)] ^ S8[g(x, 0x4)] ^ S5[g(z, 0x1)];
	.loc 1 831 41 view .LVU274
	str	r3, [sp, #40]	@ _147, %sfp
.LVL22:
	.loc 1 831 41 view .LVU275
.LBE585:
	.loc 1 726 5 is_stmt 1 view .LVU276
	.loc 1 726 5 view .LVU277
	.loc 1 726 5 view .LVU278
.LBB586:
@ src/libgcrypt.c:831:         x[2] = z[1] ^ S5[g(x, 0x7)] ^ S6[g(x, 0x6)] ^ S7[g(x, 0x5)] ^ S8[g(x, 0x4)] ^ S5[g(z, 0x1)];
	.loc 1 831 85 is_stmt 0 view .LVU279
	ldr	r3, [r8, r5, lsl #2]	@ S7[_149], S7[_149]
	eor	r3, r3, lr	@ tmp1046, S7[_149], tmp1044
	eor	r3, r3, r1	@ _156, tmp1046, S8[_152]
@ src/libgcrypt.c:832:         x[3] = z[3] ^ S5[g(x, 0xA)] ^ S6[g(x, 0x9)] ^ S7[g(x, 0xB)] ^ S8[g(x, 0x8)] ^ S6[g(z, 0x3)];
	.loc 1 832 26 view .LVU280
	ubfx	r4, r3, #8, #8	@ _157, _156,,
@ src/libgcrypt.c:832:         x[3] = z[3] ^ S5[g(x, 0xA)] ^ S6[g(x, 0x9)] ^ S7[g(x, 0xB)] ^ S8[g(x, 0x8)] ^ S6[g(z, 0x3)];
	.loc 1 832 58 view .LVU281
	uxtb	r1, r3	@ _156, _156
@ src/libgcrypt.c:832:         x[3] = z[3] ^ S5[g(x, 0xA)] ^ S6[g(x, 0x9)] ^ S7[g(x, 0xB)] ^ S8[g(x, 0x8)] ^ S6[g(z, 0x3)];
	.loc 1 832 42 view .LVU282
	ubfx	lr, r3, #16, #8	@ _160, _156,,
@ src/libgcrypt.c:832:         x[3] = z[3] ^ S5[g(x, 0xA)] ^ S6[g(x, 0x9)] ^ S7[g(x, 0xB)] ^ S8[g(x, 0x8)] ^ S6[g(z, 0x3)];
	.loc 1 832 85 view .LVU283
	ldr	r6, [r8, r1, lsl #2]	@ S7[_163], S7[_163]
	ldr	r1, [r10, r4, lsl #2]	@ S5[_157], S5[_157]
@ src/libgcrypt.c:831:         x[2] = z[1] ^ S5[g(x, 0x7)] ^ S6[g(x, 0x6)] ^ S7[g(x, 0x5)] ^ S8[g(x, 0x4)] ^ S5[g(z, 0x1)];
	.loc 1 831 14 view .LVU284
	str	r3, [sp, #176]	@ _156, x[2]
	.loc 1 832 9 is_stmt 1 view .LVU285
.LVL23:
	.loc 1 832 9 is_stmt 0 view .LVU286
.LBE586:
	.loc 1 726 5 is_stmt 1 view .LVU287
	.loc 1 726 5 view .LVU288
	.loc 1 726 5 view .LVU289
	.loc 1 726 5 view .LVU290
.LBB587:
@ src/libgcrypt.c:832:         x[3] = z[3] ^ S5[g(x, 0xA)] ^ S6[g(x, 0x9)] ^ S7[g(x, 0xB)] ^ S8[g(x, 0x8)] ^ S6[g(z, 0x3)];
	.loc 1 832 85 is_stmt 0 view .LVU291
	eor	r1, r1, r7	@ tmp1057, S5[_157], tmp1054
	ldr	r7, [r9, lr, lsl #2]	@ S6[_160], S6[_160]
@ src/libgcrypt.c:832:         x[3] = z[3] ^ S5[g(x, 0xA)] ^ S6[g(x, 0x9)] ^ S7[g(x, 0xB)] ^ S8[g(x, 0x8)] ^ S6[g(z, 0x3)];
	.loc 1 832 74 view .LVU292
	lsr	r3, r3, #24	@ _166, _156,
.LVL24:
	.loc 1 832 74 view .LVU293
.LBE587:
	.loc 1 726 5 is_stmt 1 view .LVU294
.LBB588:
@ src/libgcrypt.c:832:         x[3] = z[3] ^ S5[g(x, 0xA)] ^ S6[g(x, 0x9)] ^ S7[g(x, 0xB)] ^ S8[g(x, 0x8)] ^ S6[g(z, 0x3)];
	.loc 1 832 85 is_stmt 0 view .LVU295
	eor	r1, r1, r7	@ tmp1060, tmp1057, S6[_160]
	eor	r6, r6, r1	@ tmp1064, S7[_163], tmp1060
	ldr	r1, [fp, r3, lsl #2]	@ S8[_166], S8[_166]
	eor	r6, r6, r1	@ tmp1067, tmp1064, S8[_166]
@ src/libgcrypt.c:832:         x[3] = z[3] ^ S5[g(x, 0xA)] ^ S6[g(x, 0x9)] ^ S7[g(x, 0xB)] ^ S8[g(x, 0x8)] ^ S6[g(z, 0x3)];
	.loc 1 832 14 view .LVU296
	str	r6, [sp, #180]	@ tmp1067, x[3]
	.loc 1 834 9 is_stmt 1 view .LVU297
@ src/libgcrypt.c:834:         if(debug) {
	.loc 1 834 11 is_stmt 0 view .LVU298
	bne	.L102		@,
.L15:
	.loc 1 840 9 is_stmt 1 view .LVU299
.LVL25:
.LBB436:
.LBI436:
	.loc 1 724 16 view .LVU300
.LBB437:
	.loc 1 726 5 view .LVU301
	.loc 1 726 5 is_stmt 0 view .LVU302
.LBE437:
.LBE436:
@ src/libgcrypt.c:841:         K[5 + i * 16] = S5[g(x, 0x1)] ^ S6[g(x, 0x0)] ^ S7[g(x, 0xE)] ^ S8[g(x, 0xF)] ^ S6[g(x, 0xD)];
	.loc 1 841 87 view .LVU303
	ldr	r0, [r9, r0, lsl #2]	@ S6[prephitmp_1987], S6[prephitmp_1987]
	ldr	ip, [r10, ip, lsl #2]	@ S5[prephitmp_1985], S5[prephitmp_1985]
	str	r0, [sp, #60]	@ S6[prephitmp_1987], %sfp
@ src/libgcrypt.c:840:         K[4 + i * 16] = S5[g(x, 0x3)] ^ S6[g(x, 0x2)] ^ S7[g(x, 0xC)] ^ S8[g(x, 0xD)] ^ S5[g(x, 0x8)];
	.loc 1 840 60 view .LVU304
	ldrb	r0, [sp, #183]	@ zero_extendqisi2	@ MEM[(uint8_t *)&x + 15B], MEM[(uint8_t *)&x + 15B]
@ src/libgcrypt.c:843:         K[7 + i * 16] = S5[g(x, 0x5)] ^ S6[g(x, 0x4)] ^ S7[g(x, 0xA)] ^ S8[g(x, 0xB)] ^ S8[g(x, 0x7)];
	.loc 1 843 87 view .LVU305
	ldr	r1, [r10, r5, lsl #2]	@ S5[prephitmp_1995], S5[prephitmp_1995]
@ src/libgcrypt.c:841:         K[5 + i * 16] = S5[g(x, 0x1)] ^ S6[g(x, 0x0)] ^ S7[g(x, 0xE)] ^ S8[g(x, 0xF)] ^ S6[g(x, 0xD)];
	.loc 1 841 87 view .LVU306
	str	ip, [sp, #52]	@ S5[prephitmp_1985], %sfp
@ src/libgcrypt.c:840:         K[4 + i * 16] = S5[g(x, 0x3)] ^ S6[g(x, 0x2)] ^ S7[g(x, 0xC)] ^ S8[g(x, 0xD)] ^ S5[g(x, 0x8)];
	.loc 1 840 59 view .LVU307
	ldr	ip, [r8, r0, lsl #2]	@ _178, S7[_177]
@ src/libgcrypt.c:841:         K[5 + i * 16] = S5[g(x, 0x1)] ^ S6[g(x, 0x0)] ^ S7[g(x, 0xE)] ^ S8[g(x, 0xF)] ^ S6[g(x, 0xD)];
	.loc 1 841 76 view .LVU308
	ldrb	r0, [sp, #180]	@ zero_extendqisi2	@ _195, MEM[(uint8_t *)&x + 12B]
@ src/libgcrypt.c:843:         K[7 + i * 16] = S5[g(x, 0x5)] ^ S6[g(x, 0x4)] ^ S7[g(x, 0xA)] ^ S8[g(x, 0xB)] ^ S8[g(x, 0x7)];
	.loc 1 843 87 view .LVU309
	str	r1, [sp, #64]	@ S5[prephitmp_1995], %sfp
@ src/libgcrypt.c:841:         K[5 + i * 16] = S5[g(x, 0x1)] ^ S6[g(x, 0x0)] ^ S7[g(x, 0xE)] ^ S8[g(x, 0xF)] ^ S6[g(x, 0xD)];
	.loc 1 841 76 view .LVU310
	str	r0, [sp, #48]	@ _195, %sfp
	mov	r6, r0	@ _195, _195
@ src/libgcrypt.c:840:         K[4 + i * 16] = S5[g(x, 0x3)] ^ S6[g(x, 0x2)] ^ S7[g(x, 0xC)] ^ S8[g(x, 0xD)] ^ S5[g(x, 0x8)];
	.loc 1 840 28 view .LVU311
	ldrb	r1, [sp, #168]	@ zero_extendqisi2	@ _172, MEM[(uint8_t *)&x]
.LVL26:
.LBB438:
.LBI438:
	.loc 1 724 16 is_stmt 1 view .LVU312
.LBB439:
	.loc 1 726 5 view .LVU313
	.loc 1 726 5 is_stmt 0 view .LVU314
.LBE439:
.LBE438:
.LBB440:
.LBI440:
	.loc 1 724 16 is_stmt 1 view .LVU315
.LBB441:
	.loc 1 726 5 view .LVU316
	.loc 1 726 5 is_stmt 0 view .LVU317
.LBE441:
.LBE440:
@ src/libgcrypt.c:843:         K[7 + i * 16] = S5[g(x, 0x5)] ^ S6[g(x, 0x4)] ^ S7[g(x, 0xA)] ^ S8[g(x, 0xB)] ^ S8[g(x, 0x7)];
	.loc 1 843 76 view .LVU318
	ldrb	r0, [sp, #176]	@ zero_extendqisi2	@ _222, MEM[(uint8_t *)&x + 8B]
@ src/libgcrypt.c:843:         K[7 + i * 16] = S5[g(x, 0x5)] ^ S6[g(x, 0x4)] ^ S7[g(x, 0xA)] ^ S8[g(x, 0xB)] ^ S8[g(x, 0x7)];
	.loc 1 843 87 view .LVU319
	ldr	r2, [r9, r2, lsl #2]	@ S6[prephitmp_1997], S6[prephitmp_1997]
@ src/libgcrypt.c:843:         K[7 + i * 16] = S5[g(x, 0x5)] ^ S6[g(x, 0x4)] ^ S7[g(x, 0xA)] ^ S8[g(x, 0xB)] ^ S8[g(x, 0x7)];
	.loc 1 843 76 view .LVU320
	str	r0, [sp, #32]	@ _222, %sfp
@ src/libgcrypt.c:841:         K[5 + i * 16] = S5[g(x, 0x1)] ^ S6[g(x, 0x0)] ^ S7[g(x, 0xE)] ^ S8[g(x, 0xF)] ^ S6[g(x, 0xD)];
	.loc 1 841 60 view .LVU321
	ldrb	r7, [sp, #181]	@ zero_extendqisi2	@ _192, MEM[(uint8_t *)&x + 13B]
@ src/libgcrypt.c:840:         K[4 + i * 16] = S5[g(x, 0x3)] ^ S6[g(x, 0x2)] ^ S7[g(x, 0xC)] ^ S8[g(x, 0xD)] ^ S5[g(x, 0x8)];
	.loc 1 840 71 view .LVU322
	ldr	r0, [r10, r1, lsl #2]	@ S5[_172], S5[_172]
@ src/libgcrypt.c:841:         K[5 + i * 16] = S5[g(x, 0x1)] ^ S6[g(x, 0x0)] ^ S7[g(x, 0xE)] ^ S8[g(x, 0xF)] ^ S6[g(x, 0xD)];
	.loc 1 841 87 view .LVU323
	ldr	r6, [fp, r6, lsl #2]	@ S8[_195], S8[_195]
@ src/libgcrypt.c:843:         K[7 + i * 16] = S5[g(x, 0x5)] ^ S6[g(x, 0x4)] ^ S7[g(x, 0xA)] ^ S8[g(x, 0xB)] ^ S8[g(x, 0x7)];
	.loc 1 843 87 view .LVU324
	str	r2, [sp, #68]	@ S6[prephitmp_1997], %sfp
@ src/libgcrypt.c:840:         K[4 + i * 16] = S5[g(x, 0x3)] ^ S6[g(x, 0x2)] ^ S7[g(x, 0xC)] ^ S8[g(x, 0xD)] ^ S5[g(x, 0x8)];
	.loc 1 840 71 view .LVU325
	eor	r0, r0, ip	@ tmp1082, S5[_172], _178
@ src/libgcrypt.c:842:         K[6 + i * 16] = S5[g(x, 0x7)] ^ S6[g(x, 0x6)] ^ S7[g(x, 0x8)] ^ S8[g(x, 0x9)] ^ S7[g(x, 0x3)];
	.loc 1 842 28 view .LVU326
	ldrb	r2, [sp, #172]	@ zero_extendqisi2	@ _201, MEM[(uint8_t *)&x + 4B]
@ src/libgcrypt.c:840:         K[4 + i * 16] = S5[g(x, 0x3)] ^ S6[g(x, 0x2)] ^ S7[g(x, 0xC)] ^ S8[g(x, 0xD)] ^ S5[g(x, 0x8)];
	.loc 1 840 59 view .LVU327
	str	ip, [sp, #44]	@ _178, %sfp
.LVL27:
.LBB442:
.LBI442:
	.loc 1 724 16 is_stmt 1 view .LVU328
.LBB443:
	.loc 1 726 5 view .LVU329
	.loc 1 726 5 is_stmt 0 view .LVU330
.LBE443:
.LBE442:
@ src/libgcrypt.c:841:         K[5 + i * 16] = S5[g(x, 0x1)] ^ S6[g(x, 0x0)] ^ S7[g(x, 0xE)] ^ S8[g(x, 0xF)] ^ S6[g(x, 0xD)];
	.loc 1 841 87 view .LVU331
	ldr	ip, [r8, r7, lsl #2]	@ S7[_192], S7[_192]
@ src/libgcrypt.c:842:         K[6 + i * 16] = S5[g(x, 0x7)] ^ S6[g(x, 0x6)] ^ S7[g(x, 0x8)] ^ S8[g(x, 0x9)] ^ S7[g(x, 0x3)];
	.loc 1 842 87 view .LVU332
	ldr	r1, [r8, r1, lsl #2]	@ S7[_172], S7[_172]
@ src/libgcrypt.c:841:         K[5 + i * 16] = S5[g(x, 0x1)] ^ S6[g(x, 0x0)] ^ S7[g(x, 0xE)] ^ S8[g(x, 0xF)] ^ S6[g(x, 0xD)];
	.loc 1 841 87 view .LVU333
	eor	ip, ip, r6	@ tmp1093, S7[_192], S8[_195]
@ src/libgcrypt.c:842:         K[6 + i * 16] = S5[g(x, 0x7)] ^ S6[g(x, 0x6)] ^ S7[g(x, 0x8)] ^ S8[g(x, 0x9)] ^ S7[g(x, 0x3)];
	.loc 1 842 87 view .LVU334
	ldr	r6, [r10, r2, lsl #2]	@ tmp1825, S5[_201]
@ src/libgcrypt.c:843:         K[7 + i * 16] = S5[g(x, 0x5)] ^ S6[g(x, 0x4)] ^ S7[g(x, 0xA)] ^ S8[g(x, 0xB)] ^ S8[g(x, 0x7)];
	.loc 1 843 87 view .LVU335
	ldr	r2, [fp, r2, lsl #2]	@ S8[_201], S8[_201]
@ src/libgcrypt.c:842:         K[6 + i * 16] = S5[g(x, 0x7)] ^ S6[g(x, 0x6)] ^ S7[g(x, 0x8)] ^ S8[g(x, 0x9)] ^ S7[g(x, 0x3)];
	.loc 1 842 87 view .LVU336
	eor	r1, r1, r6	@ tmp1108, S7[_172], tmp1825
	ldr	r6, [sp, #40]	@ _147, %sfp
@ src/libgcrypt.c:845:         if(debug) {
	.loc 1 845 11 view .LVU337
	ldr	r5, [sp, #508]	@ tmp1818, debug
@ src/libgcrypt.c:842:         K[6 + i * 16] = S5[g(x, 0x7)] ^ S6[g(x, 0x6)] ^ S7[g(x, 0x8)] ^ S8[g(x, 0x9)] ^ S7[g(x, 0x3)];
	.loc 1 842 87 view .LVU338
	eor	r1, r1, r6	@ tmp1111, tmp1108, _147
@ src/libgcrypt.c:843:         K[7 + i * 16] = S5[g(x, 0x5)] ^ S6[g(x, 0x4)] ^ S7[g(x, 0xA)] ^ S8[g(x, 0xB)] ^ S8[g(x, 0x7)];
	.loc 1 843 87 view .LVU339
	ldr	r6, [sp, #32]	@ _222, %sfp
@ src/libgcrypt.c:845:         if(debug) {
	.loc 1 845 11 view .LVU340
	cmp	r5, #0	@ tmp1818,
@ src/libgcrypt.c:840:         K[4 + i * 16] = S5[g(x, 0x3)] ^ S6[g(x, 0x2)] ^ S7[g(x, 0xC)] ^ S8[g(x, 0xD)] ^ S5[g(x, 0x8)];
	.loc 1 840 76 view .LVU341
	ldrb	r5, [sp, #182]	@ zero_extendqisi2	@ _180, MEM[(uint8_t *)&x + 14B]
.LVL28:
.LBB444:
.LBI444:
	.loc 1 724 16 is_stmt 1 view .LVU342
.LBB445:
	.loc 1 726 5 view .LVU343
	.loc 1 726 5 is_stmt 0 view .LVU344
.LBE445:
.LBE444:
@ src/libgcrypt.c:843:         K[7 + i * 16] = S5[g(x, 0x5)] ^ S6[g(x, 0x4)] ^ S7[g(x, 0xA)] ^ S8[g(x, 0xB)] ^ S8[g(x, 0x7)];
	.loc 1 843 87 view .LVU345
	ldr	r6, [fp, r6, lsl #2]	@ tmp1827, S8[_222]
	eor	r2, r2, r6	@ tmp1118, S8[_201], tmp1827
	ldr	r6, [sp, #64]	@ S5[prephitmp_1995], %sfp
	eor	r2, r2, r6	@ tmp1122, tmp1118, S5[prephitmp_1995]
	ldr	r6, [sp, #68]	@ S6[prephitmp_1997], %sfp
	eor	r6, r2, r6	@ tmp1125, tmp1122, S6[prephitmp_1997]
@ src/libgcrypt.c:840:         K[4 + i * 16] = S5[g(x, 0x3)] ^ S6[g(x, 0x2)] ^ S7[g(x, 0xC)] ^ S8[g(x, 0xD)] ^ S5[g(x, 0x8)];
	.loc 1 840 71 view .LVU346
	ldr	r2, [fp, r5, lsl #2]	@ S8[_180], S8[_180]
	eor	r0, r0, r2	@ tmp1085, tmp1082, S8[_180]
	ldr	r2, [sp, #36]	@ _134, %sfp
	eor	r0, r0, r2	@ tmp1087, tmp1085, _134
@ src/libgcrypt.c:841:         K[5 + i * 16] = S5[g(x, 0x1)] ^ S6[g(x, 0x0)] ^ S7[g(x, 0xE)] ^ S8[g(x, 0xF)] ^ S6[g(x, 0xD)];
	.loc 1 841 87 view .LVU347
	ldr	r2, [r9, r5, lsl #2]	@ S6[_180], S6[_180]
	eor	r2, r2, ip	@ tmp1097, S6[_180], tmp1093
	ldr	ip, [sp, #52]	@ S5[prephitmp_1985], %sfp
	eor	r2, r2, ip	@ tmp1100, tmp1097, S5[prephitmp_1985]
	ldr	ip, [sp, #60]	@ S6[prephitmp_1987], %sfp
	eor	r2, r2, ip	@ tmp1103, tmp1100, S6[prephitmp_1987]
@ src/libgcrypt.c:841:         K[5 + i * 16] = S5[g(x, 0x1)] ^ S6[g(x, 0x0)] ^ S7[g(x, 0xE)] ^ S8[g(x, 0xF)] ^ S6[g(x, 0xD)];
	.loc 1 841 23 view .LVU348
	ldr	ip, [sp, #24]	@ ivtmp.302, %sfp
	str	r2, [ip, #4]	@ tmp1103, MEM[base: _1691, offset: 4B]
@ src/libgcrypt.c:842:         K[6 + i * 16] = S5[g(x, 0x7)] ^ S6[g(x, 0x6)] ^ S7[g(x, 0x8)] ^ S8[g(x, 0x9)] ^ S7[g(x, 0x3)];
	.loc 1 842 59 view .LVU349
	ldr	ip, [r8, r3, lsl #2]	@ _206, S7[prephitmp_1983]
@ src/libgcrypt.c:840:         K[4 + i * 16] = S5[g(x, 0x3)] ^ S6[g(x, 0x2)] ^ S7[g(x, 0xC)] ^ S8[g(x, 0xD)] ^ S5[g(x, 0x8)];
	.loc 1 840 87 view .LVU350
	ldr	r3, [r10, r3, lsl #2]	@ S5[prephitmp_1983], S5[prephitmp_1983]
@ src/libgcrypt.c:842:         K[6 + i * 16] = S5[g(x, 0x7)] ^ S6[g(x, 0x6)] ^ S7[g(x, 0x8)] ^ S8[g(x, 0x9)] ^ S7[g(x, 0x3)];
	.loc 1 842 87 view .LVU351
	eor	r1, r1, ip	@ tmp1112, tmp1111, _206
@ src/libgcrypt.c:840:         K[4 + i * 16] = S5[g(x, 0x3)] ^ S6[g(x, 0x2)] ^ S7[g(x, 0xC)] ^ S8[g(x, 0xD)] ^ S5[g(x, 0x8)];
	.loc 1 840 87 view .LVU352
	eor	r0, r0, r3	@ tmp1089, tmp1087, S5[prephitmp_1983]
@ src/libgcrypt.c:842:         K[6 + i * 16] = S5[g(x, 0x7)] ^ S6[g(x, 0x6)] ^ S7[g(x, 0x8)] ^ S8[g(x, 0x9)] ^ S7[g(x, 0x3)];
	.loc 1 842 87 view .LVU353
	ldr	r3, [fp, lr, lsl #2]	@ S8[prephitmp_1993], S8[prephitmp_1993]
@ src/libgcrypt.c:840:         K[4 + i * 16] = S5[g(x, 0x3)] ^ S6[g(x, 0x2)] ^ S7[g(x, 0xC)] ^ S8[g(x, 0xD)] ^ S5[g(x, 0x8)];
	.loc 1 840 23 view .LVU354
	ldr	r2, [sp, #24]	@ ivtmp.302, %sfp
@ src/libgcrypt.c:842:         K[6 + i * 16] = S5[g(x, 0x7)] ^ S6[g(x, 0x6)] ^ S7[g(x, 0x8)] ^ S8[g(x, 0x9)] ^ S7[g(x, 0x3)];
	.loc 1 842 87 view .LVU355
	eor	r1, r1, r3	@ tmp1114, tmp1112, S8[prephitmp_1993]
@ src/libgcrypt.c:843:         K[7 + i * 16] = S5[g(x, 0x5)] ^ S6[g(x, 0x4)] ^ S7[g(x, 0xA)] ^ S8[g(x, 0xB)] ^ S8[g(x, 0x7)];
	.loc 1 843 87 view .LVU356
	ldr	r3, [r8, r4, lsl #2]	@ S7[prephitmp_1999], S7[prephitmp_1999]
@ src/libgcrypt.c:842:         K[6 + i * 16] = S5[g(x, 0x7)] ^ S6[g(x, 0x6)] ^ S7[g(x, 0x8)] ^ S8[g(x, 0x9)] ^ S7[g(x, 0x3)];
	.loc 1 842 23 view .LVU357
	str	r1, [r2, #8]	@ tmp1114, MEM[base: _1691, offset: 8B]
@ src/libgcrypt.c:843:         K[7 + i * 16] = S5[g(x, 0x5)] ^ S6[g(x, 0x4)] ^ S7[g(x, 0xA)] ^ S8[g(x, 0xB)] ^ S8[g(x, 0x7)];
	.loc 1 843 87 view .LVU358
	eor	r3, r3, r6	@ tmp1128, S7[prephitmp_1999], tmp1125
@ src/libgcrypt.c:843:         K[7 + i * 16] = S5[g(x, 0x5)] ^ S6[g(x, 0x4)] ^ S7[g(x, 0xA)] ^ S8[g(x, 0xB)] ^ S8[g(x, 0x7)];
	.loc 1 843 23 view .LVU359
	str	r3, [r2, #12]	@ tmp1128, MEM[base: _1691, offset: 12B]
	ldr	r3, [sp, #28]	@ ivtmp.301, %sfp
@ src/libgcrypt.c:840:         K[4 + i * 16] = S5[g(x, 0x3)] ^ S6[g(x, 0x2)] ^ S7[g(x, 0xC)] ^ S8[g(x, 0xD)] ^ S5[g(x, 0x8)];
	.loc 1 840 23 view .LVU360
	str	r0, [r2]	@ tmp1089, MEM[base: _1691, offset: 0B]
	.loc 1 841 9 is_stmt 1 view .LVU361
.LVL29:
.LBB446:
.LBI446:
	.loc 1 724 16 view .LVU362
.LBB447:
	.loc 1 726 5 view .LVU363
	.loc 1 726 5 is_stmt 0 view .LVU364
.LBE447:
.LBE446:
.LBB448:
.LBI448:
	.loc 1 724 16 is_stmt 1 view .LVU365
.LBB449:
	.loc 1 726 5 view .LVU366
	.loc 1 726 5 is_stmt 0 view .LVU367
.LBE449:
.LBE448:
.LBB450:
.LBI450:
	.loc 1 724 16 is_stmt 1 view .LVU368
.LBB451:
	.loc 1 726 5 view .LVU369
	.loc 1 726 5 is_stmt 0 view .LVU370
.LBE451:
.LBE450:
.LBB452:
.LBI452:
	.loc 1 724 16 is_stmt 1 view .LVU371
.LBB453:
	.loc 1 726 5 view .LVU372
	.loc 1 726 5 is_stmt 0 view .LVU373
.LBE453:
.LBE452:
.LBE588:
	.loc 1 726 5 is_stmt 1 view .LVU374
.LBB589:
	.loc 1 842 9 view .LVU375
.LBB454:
.LBI454:
	.loc 1 724 16 view .LVU376
.LBB455:
	.loc 1 726 5 view .LVU377
	.loc 1 726 5 is_stmt 0 view .LVU378
.LBE455:
.LBE454:
.LBB456:
.LBI456:
	.loc 1 724 16 is_stmt 1 view .LVU379
.LBB457:
	.loc 1 726 5 view .LVU380
	.loc 1 726 5 is_stmt 0 view .LVU381
.LBE457:
.LBE456:
.LBE589:
	.loc 1 726 5 is_stmt 1 view .LVU382
.LBB590:
.LBB458:
.LBI458:
	.loc 1 724 16 view .LVU383
.LBB459:
	.loc 1 726 5 view .LVU384
	.loc 1 726 5 is_stmt 0 view .LVU385
.LBE459:
.LBE458:
.LBE590:
	.loc 1 726 5 is_stmt 1 view .LVU386
.LBB591:
	.loc 1 843 9 view .LVU387
.LBB460:
.LBI460:
	.loc 1 724 16 view .LVU388
.LBB461:
	.loc 1 726 5 view .LVU389
	.loc 1 726 5 is_stmt 0 view .LVU390
.LBE461:
.LBE460:
.LBB462:
.LBI462:
	.loc 1 724 16 is_stmt 1 view .LVU391
.LBB463:
	.loc 1 726 5 view .LVU392
	.loc 1 726 5 is_stmt 0 view .LVU393
.LBE463:
.LBE462:
.LBB464:
.LBI464:
	.loc 1 724 16 is_stmt 1 view .LVU394
.LBB465:
	.loc 1 726 5 view .LVU395
	.loc 1 726 5 is_stmt 0 view .LVU396
.LBE465:
.LBE464:
.LBB466:
.LBI466:
	.loc 1 724 16 is_stmt 1 view .LVU397
.LBB467:
	.loc 1 726 5 view .LVU398
	.loc 1 726 5 is_stmt 0 view .LVU399
.LBE467:
.LBE466:
.LBE591:
	.loc 1 726 5 is_stmt 1 view .LVU400
.LBB592:
	.loc 1 845 9 view .LVU401
	add	r1, r3, #4	@ _1670, ivtmp.301,
	add	r2, r3, #7	@ _1668, ivtmp.301,
@ src/libgcrypt.c:845:         if(debug) {
	.loc 1 845 11 is_stmt 0 view .LVU402
	bne	.L103		@,
.L17:
	.loc 1 852 9 is_stmt 1 view .LVU403
.LVL30:
.LBB468:
.LBI468:
	.loc 1 724 16 view .LVU404
.LBB469:
	.loc 1 726 5 view .LVU405
	.loc 1 726 5 is_stmt 0 view .LVU406
.LBE469:
.LBE468:
.LBB470:
.LBI470:
	.loc 1 724 16 is_stmt 1 view .LVU407
.LBB471:
	.loc 1 726 5 view .LVU408
	.loc 1 726 5 is_stmt 0 view .LVU409
.LBE471:
.LBE470:
.LBB472:
.LBI472:
	.loc 1 724 16 is_stmt 1 view .LVU410
.LBB473:
	.loc 1 726 5 view .LVU411
	.loc 1 726 5 is_stmt 0 view .LVU412
.LBE473:
.LBE472:
.LBB474:
.LBI474:
	.loc 1 724 16 is_stmt 1 view .LVU413
.LBB475:
	.loc 1 726 5 view .LVU414
	.loc 1 726 5 is_stmt 0 view .LVU415
.LBE475:
.LBE474:
.LBB476:
.LBI476:
	.loc 1 724 16 is_stmt 1 view .LVU416
.LBB477:
	.loc 1 726 5 view .LVU417
	.loc 1 726 5 is_stmt 0 view .LVU418
.LBE477:
.LBE476:
@ src/libgcrypt.c:852:         z[0] = x[0] ^ S5[g(x, 0xD)] ^ S6[g(x, 0xF)] ^ S7[g(x, 0xC)] ^ S8[g(x, 0xE)] ^ S7[g(x, 0x8)];
	.loc 1 852 85 view .LVU419
	ldr	r3, [sp, #44]	@ _178, %sfp
@ src/libgcrypt.c:854:         z[2] = x[3] ^ S5[g(z, 0x7)] ^ S6[g(z, 0x6)] ^ S7[g(z, 0x5)] ^ S8[g(z, 0x4)] ^ S5[g(x, 0x9)];
	.loc 1 854 85 view .LVU420
	ldr	r2, [r10, lr, lsl #2]	@ S5[prephitmp_2017], S5[prephitmp_2017]
@ src/libgcrypt.c:857:         if(debug) {
	.loc 1 857 11 view .LVU421
	ldr	lr, [sp, #508]	@ tmp1846, debug
@ src/libgcrypt.c:852:         z[0] = x[0] ^ S5[g(x, 0xD)] ^ S6[g(x, 0xF)] ^ S7[g(x, 0xC)] ^ S8[g(x, 0xE)] ^ S7[g(x, 0x8)];
	.loc 1 852 85 view .LVU422
	eor	r3, r3, ip	@ _178, _178, _206
	ldr	r0, [r10, r5, lsl #2]	@ S5[prephitmp_2001], S5[prephitmp_2001]
	mov	ip, r3	@ tmp1141, _178
	ldr	r3, [sp, #48]	@ _195, %sfp
@ src/libgcrypt.c:857:         if(debug) {
	.loc 1 857 11 view .LVU423
	cmp	lr, #0	@ tmp1846,
@ src/libgcrypt.c:852:         z[0] = x[0] ^ S5[g(x, 0xD)] ^ S6[g(x, 0xF)] ^ S7[g(x, 0xC)] ^ S8[g(x, 0xE)] ^ S7[g(x, 0x8)];
	.loc 1 852 85 view .LVU424
	ldr	lr, [sp, #168]	@ x[0], x[0]
	ldr	r5, [r9, r3, lsl #2]	@ S6[prephitmp_2003], S6[prephitmp_2003]
	eor	ip, ip, lr	@ tmp1142, tmp1141, x[0]
	ldr	r7, [fp, r7, lsl #2]	@ S8[prephitmp_2009], S8[prephitmp_2009]
	eor	ip, ip, r0	@ tmp1145, tmp1142, S5[prephitmp_2001]
	eor	ip, ip, r5	@ tmp1148, tmp1145, S6[prephitmp_2003]
	eor	r7, r7, ip	@ _245, S8[prephitmp_2009], tmp1148
@ src/libgcrypt.c:853:         z[1] = x[2] ^ S5[g(z, 0x0)] ^ S6[g(z, 0x2)] ^ S7[g(z, 0x1)] ^ S8[g(z, 0x3)] ^ S8[g(x, 0xA)];
	.loc 1 853 85 view .LVU425
	ldr	r1, [fp, r4, lsl #2]	@ S8[prephitmp_2015], S8[prephitmp_2015]
@ src/libgcrypt.c:853:         z[1] = x[2] ^ S5[g(z, 0x0)] ^ S6[g(z, 0x2)] ^ S7[g(z, 0x1)] ^ S8[g(z, 0x3)] ^ S8[g(x, 0xA)];
	.loc 1 853 26 view .LVU426
	lsr	lr, r7, #24	@ _247, _245,
@ src/libgcrypt.c:853:         z[1] = x[2] ^ S5[g(z, 0x0)] ^ S6[g(z, 0x2)] ^ S7[g(z, 0x1)] ^ S8[g(z, 0x3)] ^ S8[g(x, 0xA)];
	.loc 1 853 85 view .LVU427
	ldr	r0, [sp, #176]	@ x[2], x[2]
@ src/libgcrypt.c:853:         z[1] = x[2] ^ S5[g(z, 0x0)] ^ S6[g(z, 0x2)] ^ S7[g(z, 0x1)] ^ S8[g(z, 0x3)] ^ S8[g(x, 0xA)];
	.loc 1 853 42 view .LVU428
	ubfx	ip, r7, #8, #8	@ _250, _245,,
@ src/libgcrypt.c:853:         z[1] = x[2] ^ S5[g(z, 0x0)] ^ S6[g(z, 0x2)] ^ S7[g(z, 0x1)] ^ S8[g(z, 0x3)] ^ S8[g(x, 0xA)];
	.loc 1 853 85 view .LVU429
	eor	r1, r1, r0	@ tmp1157, S8[prephitmp_2015], x[2]
	ldr	r0, [r10, lr, lsl #2]	@ S5[_247], S5[_247]
@ src/libgcrypt.c:853:         z[1] = x[2] ^ S5[g(z, 0x0)] ^ S6[g(z, 0x2)] ^ S7[g(z, 0x1)] ^ S8[g(z, 0x3)] ^ S8[g(x, 0xA)];
	.loc 1 853 58 view .LVU430
	ubfx	r4, r7, #16, #8	@ _253, _245,,
@ src/libgcrypt.c:853:         z[1] = x[2] ^ S5[g(z, 0x0)] ^ S6[g(z, 0x2)] ^ S7[g(z, 0x1)] ^ S8[g(z, 0x3)] ^ S8[g(x, 0xA)];
	.loc 1 853 85 view .LVU431
	eor	r1, r1, r0	@ tmp1161, tmp1157, S5[_247]
@ src/libgcrypt.c:853:         z[1] = x[2] ^ S5[g(z, 0x0)] ^ S6[g(z, 0x2)] ^ S7[g(z, 0x1)] ^ S8[g(z, 0x3)] ^ S8[g(x, 0xA)];
	.loc 1 853 41 view .LVU432
	ldr	r0, [r9, ip, lsl #2]	@ _251, S6[_250]
@ src/libgcrypt.c:853:         z[1] = x[2] ^ S5[g(z, 0x0)] ^ S6[g(z, 0x2)] ^ S7[g(z, 0x1)] ^ S8[g(z, 0x3)] ^ S8[g(x, 0xA)];
	.loc 1 853 42 view .LVU433
	str	ip, [sp, #36]	@ _250, %sfp
@ src/libgcrypt.c:853:         z[1] = x[2] ^ S5[g(z, 0x0)] ^ S6[g(z, 0x2)] ^ S7[g(z, 0x1)] ^ S8[g(z, 0x3)] ^ S8[g(x, 0xA)];
	.loc 1 853 74 view .LVU434
	uxtb	ip, r7	@ _256, _245
@ src/libgcrypt.c:853:         z[1] = x[2] ^ S5[g(z, 0x0)] ^ S6[g(z, 0x2)] ^ S7[g(z, 0x1)] ^ S8[g(z, 0x3)] ^ S8[g(x, 0xA)];
	.loc 1 853 85 view .LVU435
	eor	r1, r1, r0	@ tmp1163, tmp1161, _251
@ src/libgcrypt.c:853:         z[1] = x[2] ^ S5[g(z, 0x0)] ^ S6[g(z, 0x2)] ^ S7[g(z, 0x1)] ^ S8[g(z, 0x3)] ^ S8[g(x, 0xA)];
	.loc 1 853 41 view .LVU436
	str	r0, [sp, #60]	@ _251, %sfp
@ src/libgcrypt.c:853:         z[1] = x[2] ^ S5[g(z, 0x0)] ^ S6[g(z, 0x2)] ^ S7[g(z, 0x1)] ^ S8[g(z, 0x3)] ^ S8[g(x, 0xA)];
	.loc 1 853 85 view .LVU437
	ldr	r0, [r8, r4, lsl #2]	@ S7[_253], S7[_253]
@ src/libgcrypt.c:853:         z[1] = x[2] ^ S5[g(z, 0x0)] ^ S6[g(z, 0x2)] ^ S7[g(z, 0x1)] ^ S8[g(z, 0x3)] ^ S8[g(x, 0xA)];
	.loc 1 853 74 view .LVU438
	str	ip, [sp, #40]	@ _256, %sfp
@ src/libgcrypt.c:853:         z[1] = x[2] ^ S5[g(z, 0x0)] ^ S6[g(z, 0x2)] ^ S7[g(z, 0x1)] ^ S8[g(z, 0x3)] ^ S8[g(x, 0xA)];
	.loc 1 853 85 view .LVU439
	eor	r1, r1, r0	@ tmp1165, tmp1163, S7[_253]
	ldr	r0, [fp, ip, lsl #2]	@ S8[_256], S8[_256]
@ src/libgcrypt.c:855:         z[3] = x[1] ^ S5[g(z, 0xA)] ^ S6[g(z, 0x9)] ^ S7[g(z, 0xB)] ^ S8[g(z, 0x8)] ^ S6[g(x, 0xB)];
	.loc 1 855 85 view .LVU440
	ldr	r3, [sp, #32]	@ _222, %sfp
@ src/libgcrypt.c:853:         z[1] = x[2] ^ S5[g(z, 0x0)] ^ S6[g(z, 0x2)] ^ S7[g(z, 0x1)] ^ S8[g(z, 0x3)] ^ S8[g(x, 0xA)];
	.loc 1 853 85 view .LVU441
	eor	r0, r1, r0	@ _261, tmp1165, S8[_256]
@ src/libgcrypt.c:854:         z[2] = x[3] ^ S5[g(z, 0x7)] ^ S6[g(z, 0x6)] ^ S7[g(z, 0x5)] ^ S8[g(z, 0x4)] ^ S5[g(x, 0x9)];
	.loc 1 854 85 view .LVU442
	ldr	r1, [sp, #180]	@ x[3], x[3]
@ src/libgcrypt.c:854:         z[2] = x[3] ^ S5[g(z, 0x7)] ^ S6[g(z, 0x6)] ^ S7[g(z, 0x5)] ^ S8[g(z, 0x4)] ^ S5[g(x, 0x9)];
	.loc 1 854 26 view .LVU443
	uxtb	ip, r0	@ _263, _261
@ src/libgcrypt.c:853:         z[1] = x[2] ^ S5[g(z, 0x0)] ^ S6[g(z, 0x2)] ^ S7[g(z, 0x1)] ^ S8[g(z, 0x3)] ^ S8[g(x, 0xA)];
	.loc 1 853 26 view .LVU444
	str	lr, [sp, #32]	@ _247, %sfp
@ src/libgcrypt.c:854:         z[2] = x[3] ^ S5[g(z, 0x7)] ^ S6[g(z, 0x6)] ^ S7[g(z, 0x5)] ^ S8[g(z, 0x4)] ^ S5[g(x, 0x9)];
	.loc 1 854 42 view .LVU445
	ubfx	lr, r0, #8, #8	@ _266, _261,,
@ src/libgcrypt.c:854:         z[2] = x[3] ^ S5[g(z, 0x7)] ^ S6[g(z, 0x6)] ^ S7[g(z, 0x5)] ^ S8[g(z, 0x4)] ^ S5[g(x, 0x9)];
	.loc 1 854 85 view .LVU446
	eor	r1, r1, r2	@ tmp1175, x[3], S5[prephitmp_2017]
@ src/libgcrypt.c:854:         z[2] = x[3] ^ S5[g(z, 0x7)] ^ S6[g(z, 0x6)] ^ S7[g(z, 0x5)] ^ S8[g(z, 0x4)] ^ S5[g(x, 0x9)];
	.loc 1 854 25 view .LVU447
	ldr	r2, [r10, ip, lsl #2]	@ _264, S5[_263]
@ src/libgcrypt.c:854:         z[2] = x[3] ^ S5[g(z, 0x7)] ^ S6[g(z, 0x6)] ^ S7[g(z, 0x5)] ^ S8[g(z, 0x4)] ^ S5[g(x, 0x9)];
	.loc 1 854 26 view .LVU448
	str	ip, [sp, #68]	@ _263, %sfp
@ src/libgcrypt.c:854:         z[2] = x[3] ^ S5[g(z, 0x7)] ^ S6[g(z, 0x6)] ^ S7[g(z, 0x5)] ^ S8[g(z, 0x4)] ^ S5[g(x, 0x9)];
	.loc 1 854 41 view .LVU449
	ldr	ip, [r9, lr, lsl #2]	@ _267, S6[_266]
@ src/libgcrypt.c:854:         z[2] = x[3] ^ S5[g(z, 0x7)] ^ S6[g(z, 0x6)] ^ S7[g(z, 0x5)] ^ S8[g(z, 0x4)] ^ S5[g(x, 0x9)];
	.loc 1 854 85 view .LVU450
	eor	r1, r1, r2	@ tmp1178, tmp1175, _264
@ src/libgcrypt.c:854:         z[2] = x[3] ^ S5[g(z, 0x7)] ^ S6[g(z, 0x6)] ^ S7[g(z, 0x5)] ^ S8[g(z, 0x4)] ^ S5[g(x, 0x9)];
	.loc 1 854 25 view .LVU451
	str	r2, [sp, #52]	@ _264, %sfp
@ src/libgcrypt.c:854:         z[2] = x[3] ^ S5[g(z, 0x7)] ^ S6[g(z, 0x6)] ^ S7[g(z, 0x5)] ^ S8[g(z, 0x4)] ^ S5[g(x, 0x9)];
	.loc 1 854 58 view .LVU452
	ubfx	r2, r0, #16, #8	@ _269, _261,,
@ src/libgcrypt.c:854:         z[2] = x[3] ^ S5[g(z, 0x7)] ^ S6[g(z, 0x6)] ^ S7[g(z, 0x5)] ^ S8[g(z, 0x4)] ^ S5[g(x, 0x9)];
	.loc 1 854 85 view .LVU453
	eor	r1, r1, ip	@ tmp1179, tmp1178, _267
@ src/libgcrypt.c:854:         z[2] = x[3] ^ S5[g(z, 0x7)] ^ S6[g(z, 0x6)] ^ S7[g(z, 0x5)] ^ S8[g(z, 0x4)] ^ S5[g(x, 0x9)];
	.loc 1 854 41 view .LVU454
	str	ip, [sp, #76]	@ _267, %sfp
@ src/libgcrypt.c:854:         z[2] = x[3] ^ S5[g(z, 0x7)] ^ S6[g(z, 0x6)] ^ S7[g(z, 0x5)] ^ S8[g(z, 0x4)] ^ S5[g(x, 0x9)];
	.loc 1 854 74 view .LVU455
	lsr	ip, r0, #24	@ _272, _261,
@ src/libgcrypt.c:855:         z[3] = x[1] ^ S5[g(z, 0xA)] ^ S6[g(z, 0x9)] ^ S7[g(z, 0xB)] ^ S8[g(z, 0x8)] ^ S6[g(x, 0xB)];
	.loc 1 855 85 view .LVU456
	ldr	r3, [r9, r3, lsl #2]	@ S6[prephitmp_2019], S6[prephitmp_2019]
@ src/libgcrypt.c:853:         z[1] = x[2] ^ S5[g(z, 0x0)] ^ S6[g(z, 0x2)] ^ S7[g(z, 0x1)] ^ S8[g(z, 0x3)] ^ S8[g(x, 0xA)];
	.loc 1 853 58 view .LVU457
	str	r4, [sp, #48]	@ _253, %sfp
@ src/libgcrypt.c:853:         z[1] = x[2] ^ S5[g(z, 0x0)] ^ S6[g(z, 0x2)] ^ S7[g(z, 0x1)] ^ S8[g(z, 0x3)] ^ S8[g(x, 0xA)];
	.loc 1 853 85 view .LVU458
	str	r0, [sp, #64]	@ _261, %sfp
@ src/libgcrypt.c:853:         z[1] = x[2] ^ S5[g(z, 0x0)] ^ S6[g(z, 0x2)] ^ S7[g(z, 0x1)] ^ S8[g(z, 0x3)] ^ S8[g(x, 0xA)];
	.loc 1 853 14 view .LVU459
	str	r0, [sp, #188]	@ _261, z[1]
@ src/libgcrypt.c:854:         z[2] = x[3] ^ S5[g(z, 0x7)] ^ S6[g(z, 0x6)] ^ S7[g(z, 0x5)] ^ S8[g(z, 0x4)] ^ S5[g(x, 0x9)];
	.loc 1 854 58 view .LVU460
	str	r2, [sp, #80]	@ _269, %sfp
@ src/libgcrypt.c:852:         z[0] = x[0] ^ S5[g(x, 0xD)] ^ S6[g(x, 0xF)] ^ S7[g(x, 0xC)] ^ S8[g(x, 0xE)] ^ S7[g(x, 0x8)];
	.loc 1 852 14 view .LVU461
	str	r7, [sp, #184]	@ _245, z[0]
	.loc 1 853 9 is_stmt 1 view .LVU462
.LVL31:
	.loc 1 853 9 is_stmt 0 view .LVU463
.LBE592:
	.loc 1 726 5 is_stmt 1 view .LVU464
	.loc 1 726 5 view .LVU465
	.loc 1 726 5 view .LVU466
	.loc 1 726 5 view .LVU467
.LBB593:
.LBB478:
.LBI478:
	.loc 1 724 16 view .LVU468
.LBB479:
	.loc 1 726 5 view .LVU469
	.loc 1 726 5 is_stmt 0 view .LVU470
.LBE479:
.LBE478:
	.loc 1 854 9 is_stmt 1 view .LVU471
	.loc 1 854 9 is_stmt 0 view .LVU472
.LBE593:
	.loc 1 726 5 is_stmt 1 view .LVU473
	.loc 1 726 5 view .LVU474
	.loc 1 726 5 view .LVU475
	.loc 1 726 5 view .LVU476
.LBB594:
@ src/libgcrypt.c:854:         z[2] = x[3] ^ S5[g(z, 0x7)] ^ S6[g(z, 0x6)] ^ S7[g(z, 0x5)] ^ S8[g(z, 0x4)] ^ S5[g(x, 0x9)];
	.loc 1 854 42 is_stmt 0 view .LVU477
	str	lr, [sp, #72]	@ _266, %sfp
@ src/libgcrypt.c:854:         z[2] = x[3] ^ S5[g(z, 0x7)] ^ S6[g(z, 0x6)] ^ S7[g(z, 0x5)] ^ S8[g(z, 0x4)] ^ S5[g(x, 0x9)];
	.loc 1 854 74 view .LVU478
	str	ip, [sp, #44]	@ _272, %sfp
.LVL32:
.LBB480:
.LBI480:
	.loc 1 724 16 is_stmt 1 view .LVU479
.LBB481:
	.loc 1 726 5 view .LVU480
	.loc 1 726 5 is_stmt 0 view .LVU481
.LBE481:
.LBE480:
@ src/libgcrypt.c:854:         z[2] = x[3] ^ S5[g(z, 0x7)] ^ S6[g(z, 0x6)] ^ S7[g(z, 0x5)] ^ S8[g(z, 0x4)] ^ S5[g(x, 0x9)];
	.loc 1 854 85 view .LVU482
	ldr	r0, [r8, r2, lsl #2]	@ S7[_269], S7[_269]
@ src/libgcrypt.c:855:         z[3] = x[1] ^ S5[g(z, 0xA)] ^ S6[g(z, 0x9)] ^ S7[g(z, 0xB)] ^ S8[g(z, 0x8)] ^ S6[g(x, 0xB)];
	.loc 1 855 85 view .LVU483
	ldr	r4, [sp, #172]	@ x[1], x[1]
@ src/libgcrypt.c:854:         z[2] = x[3] ^ S5[g(z, 0x7)] ^ S6[g(z, 0x6)] ^ S7[g(z, 0x5)] ^ S8[g(z, 0x4)] ^ S5[g(x, 0x9)];
	.loc 1 854 85 view .LVU484
	eor	r1, r1, r0	@ tmp1181, tmp1179, S7[_269]
	ldr	r0, [fp, ip, lsl #2]	@ S8[_272], S8[_272]
@ src/libgcrypt.c:855:         z[3] = x[1] ^ S5[g(z, 0xA)] ^ S6[g(z, 0x9)] ^ S7[g(z, 0xB)] ^ S8[g(z, 0x8)] ^ S6[g(x, 0xB)];
	.loc 1 855 85 view .LVU485
	eor	r4, r4, r3	@ tmp1189, x[1], S6[prephitmp_2019]
@ src/libgcrypt.c:854:         z[2] = x[3] ^ S5[g(z, 0x7)] ^ S6[g(z, 0x6)] ^ S7[g(z, 0x5)] ^ S8[g(z, 0x4)] ^ S5[g(x, 0x9)];
	.loc 1 854 85 view .LVU486
	eor	r1, r1, r0	@ _277, tmp1181, S8[_272]
@ src/libgcrypt.c:855:         z[3] = x[1] ^ S5[g(z, 0xA)] ^ S6[g(z, 0x9)] ^ S7[g(z, 0xB)] ^ S8[g(z, 0x8)] ^ S6[g(x, 0xB)];
	.loc 1 855 26 view .LVU487
	ubfx	r2, r1, #8, #8	@ _279, _277,,
@ src/libgcrypt.c:855:         z[3] = x[1] ^ S5[g(z, 0xA)] ^ S6[g(z, 0x9)] ^ S7[g(z, 0xB)] ^ S8[g(z, 0x8)] ^ S6[g(x, 0xB)];
	.loc 1 855 58 view .LVU488
	uxtb	r6, r1	@ _285, _277
@ src/libgcrypt.c:855:         z[3] = x[1] ^ S5[g(z, 0xA)] ^ S6[g(z, 0x9)] ^ S7[g(z, 0xB)] ^ S8[g(z, 0x8)] ^ S6[g(x, 0xB)];
	.loc 1 855 42 view .LVU489
	ubfx	r5, r1, #16, #8	@ _282, _277,,
@ src/libgcrypt.c:855:         z[3] = x[1] ^ S5[g(z, 0xA)] ^ S6[g(z, 0x9)] ^ S7[g(z, 0xB)] ^ S8[g(z, 0x8)] ^ S6[g(x, 0xB)];
	.loc 1 855 85 view .LVU490
	ldr	r3, [r10, r2, lsl #2]	@ S5[_279], S5[_279]
@ src/libgcrypt.c:854:         z[2] = x[3] ^ S5[g(z, 0x7)] ^ S6[g(z, 0x6)] ^ S7[g(z, 0x5)] ^ S8[g(z, 0x4)] ^ S5[g(x, 0x9)];
	.loc 1 854 85 view .LVU491
	str	r1, [sp, #84]	@ _277, %sfp
@ src/libgcrypt.c:855:         z[3] = x[1] ^ S5[g(z, 0xA)] ^ S6[g(z, 0x9)] ^ S7[g(z, 0xB)] ^ S8[g(z, 0x8)] ^ S6[g(x, 0xB)];
	.loc 1 855 85 view .LVU492
	eor	r4, r4, r3	@ tmp1193, tmp1189, S5[_279]
@ src/libgcrypt.c:854:         z[2] = x[3] ^ S5[g(z, 0x7)] ^ S6[g(z, 0x6)] ^ S7[g(z, 0x5)] ^ S8[g(z, 0x4)] ^ S5[g(x, 0x9)];
	.loc 1 854 14 view .LVU493
	str	r1, [sp, #192]	@ _277, z[2]
	.loc 1 855 9 is_stmt 1 view .LVU494
.LVL33:
	.loc 1 855 9 is_stmt 0 view .LVU495
.LBE594:
	.loc 1 726 5 is_stmt 1 view .LVU496
	.loc 1 726 5 view .LVU497
	.loc 1 726 5 view .LVU498
	.loc 1 726 5 view .LVU499
.LBB595:
@ src/libgcrypt.c:855:         z[3] = x[1] ^ S5[g(z, 0xA)] ^ S6[g(z, 0x9)] ^ S7[g(z, 0xB)] ^ S8[g(z, 0x8)] ^ S6[g(x, 0xB)];
	.loc 1 855 74 is_stmt 0 view .LVU500
	lsr	r3, r1, #24	@ _288, _277,
.LVL34:
.LBB482:
.LBI482:
	.loc 1 724 16 is_stmt 1 view .LVU501
.LBB483:
	.loc 1 726 5 view .LVU502
	.loc 1 726 5 is_stmt 0 view .LVU503
.LBE483:
.LBE482:
@ src/libgcrypt.c:855:         z[3] = x[1] ^ S5[g(z, 0xA)] ^ S6[g(z, 0x9)] ^ S7[g(z, 0xB)] ^ S8[g(z, 0x8)] ^ S6[g(x, 0xB)];
	.loc 1 855 85 view .LVU504
	ldr	r1, [r9, r5, lsl #2]	@ S6[_282], S6[_282]
	eor	r4, r4, r1	@ tmp1196, tmp1193, S6[_282]
	ldr	r1, [r8, r6, lsl #2]	@ S7[_285], S7[_285]
	eor	r4, r4, r1	@ tmp1199, tmp1196, S7[_285]
	ldr	r1, [fp, r3, lsl #2]	@ S8[_288], S8[_288]
	eor	r4, r4, r1	@ _293, tmp1199, S8[_288]
@ src/libgcrypt.c:855:         z[3] = x[1] ^ S5[g(z, 0xA)] ^ S6[g(z, 0x9)] ^ S7[g(z, 0xB)] ^ S8[g(z, 0x8)] ^ S6[g(x, 0xB)];
	.loc 1 855 14 view .LVU505
	str	r4, [sp, #196]	@ _293, z[3]
	.loc 1 857 9 is_stmt 1 view .LVU506
@ src/libgcrypt.c:857:         if(debug) {
	.loc 1 857 11 is_stmt 0 view .LVU507
	bne	.L104		@,
.L19:
	.loc 1 863 9 is_stmt 1 view .LVU508
.LVL35:
	.loc 1 863 9 is_stmt 0 view .LVU509
.LBE595:
	.loc 1 726 5 is_stmt 1 view .LVU510
	.loc 1 726 5 view .LVU511
	.loc 1 726 5 view .LVU512
	.loc 1 726 5 view .LVU513
	.loc 1 726 5 view .LVU514
.LBB596:
@ src/libgcrypt.c:866:         K[11 + i * 16] = S5[g(z, 0x5)] ^ S6[g(z, 0x4)] ^ S7[g(z, 0xA)] ^ S8[g(z, 0xB)] ^ S8[g(z, 0x6)];
	.loc 1 866 28 is_stmt 0 view .LVU515
	ldr	ip, [sp, #80]	@ _269, %sfp
@ src/libgcrypt.c:866:         K[11 + i * 16] = S5[g(z, 0x5)] ^ S6[g(z, 0x4)] ^ S7[g(z, 0xA)] ^ S8[g(z, 0xB)] ^ S8[g(z, 0x6)];
	.loc 1 866 92 view .LVU516
	ldr	lr, [sp, #72]	@ _266, %sfp
@ src/libgcrypt.c:865:         K[10 + i * 16] = S5[g(z, 0x7)] ^ S6[g(z, 0x6)] ^ S7[g(z, 0x8)] ^ S8[g(z, 0x9)] ^ S7[g(z, 0x2)];
	.loc 1 865 40 view .LVU517
	ldr	r0, [sp, #76]	@ _267, %sfp
	ldr	r1, [sp, #52]	@ _264, %sfp
@ src/libgcrypt.c:866:         K[11 + i * 16] = S5[g(z, 0x5)] ^ S6[g(z, 0x4)] ^ S7[g(z, 0xA)] ^ S8[g(z, 0xB)] ^ S8[g(z, 0x6)];
	.loc 1 866 28 view .LVU518
	ldr	ip, [r10, ip, lsl #2]	@ _326, S5[_269]
@ src/libgcrypt.c:866:         K[11 + i * 16] = S5[g(z, 0x5)] ^ S6[g(z, 0x4)] ^ S7[g(z, 0xA)] ^ S8[g(z, 0xB)] ^ S8[g(z, 0x6)];
	.loc 1 866 92 view .LVU519
	ldr	lr, [fp, lr, lsl #2]	@ _333, S8[_266]
@ src/libgcrypt.c:865:         K[10 + i * 16] = S5[g(z, 0x7)] ^ S6[g(z, 0x6)] ^ S7[g(z, 0x8)] ^ S8[g(z, 0x9)] ^ S7[g(z, 0x2)];
	.loc 1 865 40 view .LVU520
	eor	r1, r1, r0	@ _264, _264, _267
@ src/libgcrypt.c:866:         K[11 + i * 16] = S5[g(z, 0x5)] ^ S6[g(z, 0x4)] ^ S7[g(z, 0xA)] ^ S8[g(z, 0xB)] ^ S8[g(z, 0x6)];
	.loc 1 866 92 view .LVU521
	str	lr, [sp, #52]	@ _333, %sfp
@ src/libgcrypt.c:864:         K[9 + i * 16] = S5[g(z, 0x1)] ^ S6[g(z, 0x0)] ^ S7[g(z, 0xE)] ^ S8[g(z, 0xF)] ^ S6[g(z, 0xC)];
	.loc 1 864 27 view .LVU522
	ldr	r0, [sp, #48]	@ _253, %sfp
@ src/libgcrypt.c:866:         K[11 + i * 16] = S5[g(z, 0x5)] ^ S6[g(z, 0x4)] ^ S7[g(z, 0xA)] ^ S8[g(z, 0xB)] ^ S8[g(z, 0x6)];
	.loc 1 866 88 view .LVU523
	ldr	lr, [r8, r2, lsl #2]	@ S7[_279], S7[_279]
@ src/libgcrypt.c:866:         K[11 + i * 16] = S5[g(z, 0x5)] ^ S6[g(z, 0x4)] ^ S7[g(z, 0xA)] ^ S8[g(z, 0xB)] ^ S8[g(z, 0x6)];
	.loc 1 866 28 view .LVU524
	str	ip, [sp, #48]	@ _326, %sfp
@ src/libgcrypt.c:868:         if(debug) {
	.loc 1 868 11 view .LVU525
	ldr	r2, [sp, #508]	@ tmp1889, debug
@ src/libgcrypt.c:865:         K[10 + i * 16] = S5[g(z, 0x7)] ^ S6[g(z, 0x6)] ^ S7[g(z, 0x8)] ^ S8[g(z, 0x9)] ^ S7[g(z, 0x2)];
	.loc 1 865 88 view .LVU526
	ldr	ip, [r8, r3, lsl #2]	@ S7[_288], S7[_288]
@ src/libgcrypt.c:864:         K[9 + i * 16] = S5[g(z, 0x1)] ^ S6[g(z, 0x0)] ^ S7[g(z, 0xE)] ^ S8[g(z, 0xF)] ^ S6[g(z, 0xC)];
	.loc 1 864 60 view .LVU527
	ubfx	r3, r4, #8, #8	@ tmp1232, _293,,
@ src/libgcrypt.c:868:         if(debug) {
	.loc 1 868 11 view .LVU528
	cmp	r2, #0	@ tmp1889,
@ src/libgcrypt.c:865:         K[10 + i * 16] = S5[g(z, 0x7)] ^ S6[g(z, 0x6)] ^ S7[g(z, 0x8)] ^ S8[g(z, 0x9)] ^ S7[g(z, 0x2)];
	.loc 1 865 40 view .LVU529
	str	r1, [sp, #88]	@ _264, %sfp
@ src/libgcrypt.c:864:         K[9 + i * 16] = S5[g(z, 0x1)] ^ S6[g(z, 0x0)] ^ S7[g(z, 0xE)] ^ S8[g(z, 0xF)] ^ S6[g(z, 0xC)];
	.loc 1 864 55 view .LVU530
	ldr	r2, [r8, r3, lsl #2]	@ S7[_309], S7[_309]
@ src/libgcrypt.c:863:         K[8 + i * 16] = S5[g(z, 0x3)] ^ S6[g(z, 0x2)] ^ S7[g(z, 0xC)] ^ S8[g(z, 0xD)] ^ S5[g(z, 0x9)];
	.loc 1 863 87 view .LVU531
	ldr	r3, [sp, #40]	@ _256, %sfp
@ src/libgcrypt.c:864:         K[9 + i * 16] = S5[g(z, 0x1)] ^ S6[g(z, 0x0)] ^ S7[g(z, 0xE)] ^ S8[g(z, 0xF)] ^ S6[g(z, 0xC)];
	.loc 1 864 27 view .LVU532
	ldr	r0, [r10, r0, lsl #2]	@ _306, S5[_253]
@ src/libgcrypt.c:863:         K[8 + i * 16] = S5[g(z, 0x3)] ^ S6[g(z, 0x2)] ^ S7[g(z, 0xC)] ^ S8[g(z, 0xD)] ^ S5[g(z, 0x9)];
	.loc 1 863 87 view .LVU533
	ldr	r1, [r10, r3, lsl #2]	@ S5[_256], S5[_256]
	ldr	r3, [sp, #60]	@ _251, %sfp
@ src/libgcrypt.c:864:         K[9 + i * 16] = S5[g(z, 0x1)] ^ S6[g(z, 0x0)] ^ S7[g(z, 0xE)] ^ S8[g(z, 0xF)] ^ S6[g(z, 0xC)];
	.loc 1 864 27 view .LVU534
	str	r0, [sp, #76]	@ _306, %sfp
@ src/libgcrypt.c:863:         K[8 + i * 16] = S5[g(z, 0x3)] ^ S6[g(z, 0x2)] ^ S7[g(z, 0xC)] ^ S8[g(z, 0xD)] ^ S5[g(z, 0x9)];
	.loc 1 863 87 view .LVU535
	eor	r3, r3, r1	@ _251, _251, S5[_256]
@ src/libgcrypt.c:866:         K[11 + i * 16] = S5[g(z, 0x5)] ^ S6[g(z, 0x4)] ^ S7[g(z, 0xA)] ^ S8[g(z, 0xB)] ^ S8[g(z, 0x6)];
	.loc 1 866 88 view .LVU536
	ldr	r6, [fp, r6, lsl #2]	@ S8[_285], S8[_285]
@ src/libgcrypt.c:863:         K[8 + i * 16] = S5[g(z, 0x3)] ^ S6[g(z, 0x2)] ^ S7[g(z, 0xC)] ^ S8[g(z, 0xD)] ^ S5[g(z, 0x9)];
	.loc 1 863 87 view .LVU537
	mov	r1, r3	@ tmp1213, _251
@ src/libgcrypt.c:864:         K[9 + i * 16] = S5[g(z, 0x1)] ^ S6[g(z, 0x0)] ^ S7[g(z, 0xE)] ^ S8[g(z, 0xF)] ^ S6[g(z, 0xC)];
	.loc 1 864 39 view .LVU538
	ldr	r3, [sp, #32]	@ _247, %sfp
	ldr	r3, [r9, r3, lsl #2]	@ S6[_247], S6[_247]
	eor	r3, r3, r0	@ tmp1228, S6[_247], _306
@ src/libgcrypt.c:864:         K[9 + i * 16] = S5[g(z, 0x1)] ^ S6[g(z, 0x0)] ^ S7[g(z, 0xE)] ^ S8[g(z, 0xF)] ^ S6[g(z, 0xC)];
	.loc 1 864 55 view .LVU539
	eor	r3, r3, r2	@ tmp1233, tmp1228, S7[_309]
@ src/libgcrypt.c:864:         K[9 + i * 16] = S5[g(z, 0x1)] ^ S6[g(z, 0x0)] ^ S7[g(z, 0xE)] ^ S8[g(z, 0xF)] ^ S6[g(z, 0xC)];
	.loc 1 864 76 view .LVU540
	uxtb	r2, r4	@ _293, _293
@ src/libgcrypt.c:866:         K[11 + i * 16] = S5[g(z, 0x5)] ^ S6[g(z, 0x4)] ^ S7[g(z, 0xA)] ^ S8[g(z, 0xB)] ^ S8[g(z, 0x6)];
	.loc 1 866 88 view .LVU541
	ldr	r0, [sp, #48]	@ _326, %sfp
@ src/libgcrypt.c:864:         K[9 + i * 16] = S5[g(z, 0x1)] ^ S6[g(z, 0x0)] ^ S7[g(z, 0xE)] ^ S8[g(z, 0xF)] ^ S6[g(z, 0xC)];
	.loc 1 864 71 view .LVU542
	ldr	r2, [fp, r2, lsl #2]	@ S8[_312], S8[_312]
	eor	r3, r3, r2	@ tmp1237, tmp1233, S8[_312]
@ src/libgcrypt.c:866:         K[11 + i * 16] = S5[g(z, 0x5)] ^ S6[g(z, 0x4)] ^ S7[g(z, 0xA)] ^ S8[g(z, 0xB)] ^ S8[g(z, 0x6)];
	.loc 1 866 88 view .LVU543
	ldr	r2, [sp, #44]	@ _272, %sfp
@ src/libgcrypt.c:864:         K[9 + i * 16] = S5[g(z, 0x1)] ^ S6[g(z, 0x0)] ^ S7[g(z, 0xE)] ^ S8[g(z, 0xF)] ^ S6[g(z, 0xC)];
	.loc 1 864 71 view .LVU544
	str	r3, [sp, #60]	@ tmp1237, %sfp
@ src/libgcrypt.c:866:         K[11 + i * 16] = S5[g(z, 0x5)] ^ S6[g(z, 0x4)] ^ S7[g(z, 0xA)] ^ S8[g(z, 0xB)] ^ S8[g(z, 0x6)];
	.loc 1 866 88 view .LVU545
	ldr	r2, [r9, r2, lsl #2]	@ S6[_272], S6[_272]
	eor	r2, r2, r0	@ tmp1255, S6[_272], _326
	ldr	r0, [sp, #52]	@ _333, %sfp
	eor	r2, r2, r0	@ tmp1257, tmp1255, _333
	eor	r2, r2, lr	@ tmp1259, tmp1257, S7[_279]
	eor	r2, r2, r6	@ tmp1262, tmp1259, S8[_285]
@ src/libgcrypt.c:866:         K[11 + i * 16] = S5[g(z, 0x5)] ^ S6[g(z, 0x4)] ^ S7[g(z, 0xA)] ^ S8[g(z, 0xB)] ^ S8[g(z, 0x6)];
	.loc 1 866 24 view .LVU546
	ldr	r6, [sp, #24]	@ ivtmp.302, %sfp
@ src/libgcrypt.c:863:         K[8 + i * 16] = S5[g(z, 0x3)] ^ S6[g(z, 0x2)] ^ S7[g(z, 0xC)] ^ S8[g(z, 0xD)] ^ S5[g(z, 0x9)];
	.loc 1 863 87 view .LVU547
	lsr	r0, r4, #24	@ _297, _293,
@ src/libgcrypt.c:866:         K[11 + i * 16] = S5[g(z, 0x5)] ^ S6[g(z, 0x4)] ^ S7[g(z, 0xA)] ^ S8[g(z, 0xB)] ^ S8[g(z, 0x6)];
	.loc 1 866 24 view .LVU548
	str	r2, [r6, #28]	@ tmp1262, MEM[base: _1691, offset: 28B]
@ src/libgcrypt.c:863:         K[8 + i * 16] = S5[g(z, 0x3)] ^ S6[g(z, 0x2)] ^ S7[g(z, 0xC)] ^ S8[g(z, 0xD)] ^ S5[g(z, 0x9)];
	.loc 1 863 87 view .LVU549
	ldr	r2, [r10, r5, lsl #2]	@ S5[_282], S5[_282]
@ src/libgcrypt.c:865:         K[10 + i * 16] = S5[g(z, 0x7)] ^ S6[g(z, 0x6)] ^ S7[g(z, 0x8)] ^ S8[g(z, 0x9)] ^ S7[g(z, 0x2)];
	.loc 1 865 88 view .LVU550
	ldr	r5, [fp, r5, lsl #2]	@ S8[_282], S8[_282]
@ src/libgcrypt.c:863:         K[8 + i * 16] = S5[g(z, 0x3)] ^ S6[g(z, 0x2)] ^ S7[g(z, 0xC)] ^ S8[g(z, 0xD)] ^ S5[g(z, 0x9)];
	.loc 1 863 87 view .LVU551
	eor	r1, r1, r2	@ tmp1216, tmp1213, S5[_282]
@ src/libgcrypt.c:863:         K[8 + i * 16] = S5[g(z, 0x3)] ^ S6[g(z, 0x2)] ^ S7[g(z, 0xC)] ^ S8[g(z, 0xD)] ^ S5[g(z, 0x9)];
	.loc 1 863 76 view .LVU552
	ubfx	r2, r4, #16, #8	@ tmp1223, _293,,
@ src/libgcrypt.c:863:         K[8 + i * 16] = S5[g(z, 0x3)] ^ S6[g(z, 0x2)] ^ S7[g(z, 0xC)] ^ S8[g(z, 0xD)] ^ S5[g(z, 0x9)];
	.loc 1 863 87 view .LVU553
	ldr	lr, [fp, r2, lsl #2]	@ S8[_300], S8[_300]
@ src/libgcrypt.c:865:         K[10 + i * 16] = S5[g(z, 0x7)] ^ S6[g(z, 0x6)] ^ S7[g(z, 0x8)] ^ S8[g(z, 0x9)] ^ S7[g(z, 0x2)];
	.loc 1 865 88 view .LVU554
	ldr	r2, [sp, #36]	@ _250, %sfp
	ldr	r3, [sp, #88]	@ tmp1242, %sfp
	ldr	r2, [r8, r2, lsl #2]	@ S7[_250], S7[_250]
	eor	r2, r2, r3	@ tmp1244, S7[_250], tmp1242
	eor	r2, r2, ip	@ tmp1247, tmp1244, S7[_288]
	eor	r2, r2, r5	@ tmp1250, tmp1247, S8[_282]
@ src/libgcrypt.c:865:         K[10 + i * 16] = S5[g(z, 0x7)] ^ S6[g(z, 0x6)] ^ S7[g(z, 0x8)] ^ S8[g(z, 0x9)] ^ S7[g(z, 0x2)];
	.loc 1 865 24 view .LVU555
	str	r2, [r6, #24]	@ tmp1250, MEM[base: _1691, offset: 24B]
@ src/libgcrypt.c:863:         K[8 + i * 16] = S5[g(z, 0x3)] ^ S6[g(z, 0x2)] ^ S7[g(z, 0xC)] ^ S8[g(z, 0xD)] ^ S5[g(z, 0x9)];
	.loc 1 863 87 view .LVU556
	ldr	r2, [r8, r0, lsl #2]	@ S7[_297], S7[_297]
@ src/libgcrypt.c:864:         K[9 + i * 16] = S5[g(z, 0x1)] ^ S6[g(z, 0x0)] ^ S7[g(z, 0xE)] ^ S8[g(z, 0xF)] ^ S6[g(z, 0xC)];
	.loc 1 864 87 view .LVU557
	ldr	r3, [sp, #60]	@ tmp1237, %sfp
@ src/libgcrypt.c:863:         K[8 + i * 16] = S5[g(z, 0x3)] ^ S6[g(z, 0x2)] ^ S7[g(z, 0xC)] ^ S8[g(z, 0xD)] ^ S5[g(z, 0x9)];
	.loc 1 863 87 view .LVU558
	eor	r1, r1, r2	@ tmp1219, tmp1216, S7[_297]
@ src/libgcrypt.c:864:         K[9 + i * 16] = S5[g(z, 0x1)] ^ S6[g(z, 0x0)] ^ S7[g(z, 0xE)] ^ S8[g(z, 0xF)] ^ S6[g(z, 0xC)];
	.loc 1 864 87 view .LVU559
	ldr	r2, [r9, r0, lsl #2]	@ S6[_297], S6[_297]
@ src/libgcrypt.c:863:         K[8 + i * 16] = S5[g(z, 0x3)] ^ S6[g(z, 0x2)] ^ S7[g(z, 0xC)] ^ S8[g(z, 0xD)] ^ S5[g(z, 0x9)];
	.loc 1 863 87 view .LVU560
	eor	lr, lr, r1	@ tmp1224, S8[_300], tmp1219
@ src/libgcrypt.c:864:         K[9 + i * 16] = S5[g(z, 0x1)] ^ S6[g(z, 0x0)] ^ S7[g(z, 0xE)] ^ S8[g(z, 0xF)] ^ S6[g(z, 0xC)];
	.loc 1 864 87 view .LVU561
	eor	r3, r3, r2	@ tmp1237, tmp1237, S6[_297]
@ src/libgcrypt.c:864:         K[9 + i * 16] = S5[g(z, 0x1)] ^ S6[g(z, 0x0)] ^ S7[g(z, 0xE)] ^ S8[g(z, 0xF)] ^ S6[g(z, 0xC)];
	.loc 1 864 23 view .LVU562
	str	r3, [r6, #20]	@ tmp1240, MEM[base: _1691, offset: 20B]
	ldr	r3, [sp, #28]	@ ivtmp.301, %sfp
@ src/libgcrypt.c:863:         K[8 + i * 16] = S5[g(z, 0x3)] ^ S6[g(z, 0x2)] ^ S7[g(z, 0xC)] ^ S8[g(z, 0xD)] ^ S5[g(z, 0x9)];
	.loc 1 863 23 view .LVU563
	str	lr, [r6, #16]	@ tmp1224, MEM[base: _1691, offset: 16B]
	.loc 1 864 9 is_stmt 1 view .LVU564
.LVL36:
	.loc 1 864 9 is_stmt 0 view .LVU565
.LBE596:
	.loc 1 726 5 is_stmt 1 view .LVU566
	.loc 1 726 5 view .LVU567
	.loc 1 726 5 view .LVU568
	.loc 1 726 5 view .LVU569
	.loc 1 726 5 view .LVU570
.LBB597:
	.loc 1 865 9 view .LVU571
	.loc 1 865 9 is_stmt 0 view .LVU572
.LBE597:
	.loc 1 726 5 is_stmt 1 view .LVU573
	.loc 1 726 5 view .LVU574
	.loc 1 726 5 view .LVU575
	.loc 1 726 5 view .LVU576
	.loc 1 726 5 view .LVU577
.LBB598:
	.loc 1 866 9 view .LVU578
	.loc 1 866 9 is_stmt 0 view .LVU579
.LBE598:
	.loc 1 726 5 is_stmt 1 view .LVU580
	.loc 1 726 5 view .LVU581
	.loc 1 726 5 view .LVU582
	.loc 1 726 5 view .LVU583
	.loc 1 726 5 view .LVU584
.LBB599:
	.loc 1 868 9 view .LVU585
	add	r1, r3, #8	@ _1664, ivtmp.301,
	add	r2, r3, #11	@ _1662, ivtmp.301,
@ src/libgcrypt.c:868:         if(debug) {
	.loc 1 868 11 is_stmt 0 view .LVU586
	bne	.L105		@,
.L22:
	.loc 1 875 9 is_stmt 1 view .LVU587
.LVL37:
	.loc 1 875 9 is_stmt 0 view .LVU588
.LBE599:
	.loc 1 726 5 is_stmt 1 view .LVU589
	.loc 1 726 5 view .LVU590
	.loc 1 726 5 view .LVU591
	.loc 1 726 5 view .LVU592
	.loc 1 726 5 view .LVU593
.LBB600:
@ src/libgcrypt.c:875:         x[0] = z[2] ^ S5[g(z, 0x5)] ^ S6[g(z, 0x7)] ^ S7[g(z, 0x4)] ^ S8[g(z, 0x6)] ^ S7[g(z, 0x0)];
	.loc 1 875 85 is_stmt 0 view .LVU594
	ldr	r3, [sp, #52]	@ _333, %sfp
	ldr	r1, [sp, #48]	@ _326, %sfp
@ src/libgcrypt.c:877:         x[2] = z[1] ^ S5[g(x, 0x7)] ^ S6[g(x, 0x6)] ^ S7[g(x, 0x5)] ^ S8[g(x, 0x4)] ^ S5[g(z, 0x1)];
	.loc 1 877 85 view .LVU595
	ldr	r2, [sp, #76]	@ _306, %sfp
@ src/libgcrypt.c:875:         x[0] = z[2] ^ S5[g(z, 0x5)] ^ S6[g(z, 0x7)] ^ S7[g(z, 0x4)] ^ S8[g(z, 0x6)] ^ S7[g(z, 0x0)];
	.loc 1 875 85 view .LVU596
	eor	r1, r1, r3	@ _326, _326, _333
@ src/libgcrypt.c:877:         x[2] = z[1] ^ S5[g(x, 0x7)] ^ S6[g(x, 0x6)] ^ S7[g(x, 0x5)] ^ S8[g(x, 0x4)] ^ S5[g(z, 0x1)];
	.loc 1 877 85 view .LVU597
	ldr	r3, [sp, #64]	@ _261, %sfp
	eor	r3, r3, r2	@ _261, _261, _306
@ src/libgcrypt.c:875:         x[0] = z[2] ^ S5[g(z, 0x5)] ^ S6[g(z, 0x7)] ^ S7[g(z, 0x4)] ^ S8[g(z, 0x6)] ^ S7[g(z, 0x0)];
	.loc 1 875 85 view .LVU598
	ldr	r2, [sp, #32]	@ _247, %sfp
	ldr	r2, [r8, r2, lsl #2]	@ S7[_247], S7[_247]
	eor	r1, r1, r2	@ tmp1273, tmp1272, S7[_247]
	ldr	r2, [sp, #68]	@ _263, %sfp
	ldr	r2, [r9, r2, lsl #2]	@ S6[_263], S6[_263]
	eor	r1, r1, r2	@ tmp1276, tmp1273, S6[_263]
	ldr	r2, [sp, #44]	@ _272, %sfp
	ldr	r2, [r8, r2, lsl #2]	@ S7[_272], S7[_272]
	eor	r1, r1, r2	@ tmp1279, tmp1276, S7[_272]
	ldr	r2, [sp, #84]	@ _277, %sfp
	eor	r1, r1, r2	@ _345, tmp1279, _277
@ src/libgcrypt.c:876:         x[1] = z[0] ^ S5[g(x, 0x0)] ^ S6[g(x, 0x2)] ^ S7[g(x, 0x1)] ^ S8[g(x, 0x3)] ^ S8[g(z, 0x2)];
	.loc 1 876 85 view .LVU599
	ldr	r2, [sp, #36]	@ _250, %sfp
@ src/libgcrypt.c:876:         x[1] = z[0] ^ S5[g(x, 0x0)] ^ S6[g(x, 0x2)] ^ S7[g(x, 0x1)] ^ S8[g(x, 0x3)] ^ S8[g(z, 0x2)];
	.loc 1 876 58 view .LVU600
	ubfx	ip, r1, #16, #8	@ tmp1285, _345,,
@ src/libgcrypt.c:876:         x[1] = z[0] ^ S5[g(x, 0x0)] ^ S6[g(x, 0x2)] ^ S7[g(x, 0x1)] ^ S8[g(x, 0x3)] ^ S8[g(z, 0x2)];
	.loc 1 876 85 view .LVU601
	ldr	lr, [fp, r2, lsl #2]	@ S8[_250], S8[_250]
@ src/libgcrypt.c:878:         x[3] = z[3] ^ S5[g(x, 0xA)] ^ S6[g(x, 0x9)] ^ S7[g(x, 0xB)] ^ S8[g(x, 0x8)] ^ S6[g(z, 0x3)];
	.loc 1 878 85 view .LVU602
	ldr	r2, [sp, #40]	@ _256, %sfp
@ src/libgcrypt.c:876:         x[1] = z[0] ^ S5[g(x, 0x0)] ^ S6[g(x, 0x2)] ^ S7[g(x, 0x1)] ^ S8[g(x, 0x3)] ^ S8[g(z, 0x2)];
	.loc 1 876 57 view .LVU603
	ldr	r5, [r8, ip, lsl #2]	@ _353, S7[_352]
@ src/libgcrypt.c:878:         x[3] = z[3] ^ S5[g(x, 0xA)] ^ S6[g(x, 0x9)] ^ S7[g(x, 0xB)] ^ S8[g(x, 0x8)] ^ S6[g(z, 0x3)];
	.loc 1 878 85 view .LVU604
	ldr	r2, [r9, r2, lsl #2]	@ S6[_256], S6[_256]
@ src/libgcrypt.c:876:         x[1] = z[0] ^ S5[g(x, 0x0)] ^ S6[g(x, 0x2)] ^ S7[g(x, 0x1)] ^ S8[g(x, 0x3)] ^ S8[g(z, 0x2)];
	.loc 1 876 42 view .LVU605
	ubfx	r0, r1, #8, #8	@ _349, _345,,
@ src/libgcrypt.c:878:         x[3] = z[3] ^ S5[g(x, 0xA)] ^ S6[g(x, 0x9)] ^ S7[g(x, 0xB)] ^ S8[g(x, 0x8)] ^ S6[g(z, 0x3)];
	.loc 1 878 85 view .LVU606
	eor	r4, r4, r2	@ tmp1323, _293, S6[_256]
@ src/libgcrypt.c:880:         if(debug) {
	.loc 1 880 11 view .LVU607
	ldr	r2, [sp, #508]	@ tmp1918, debug
@ src/libgcrypt.c:876:         x[1] = z[0] ^ S5[g(x, 0x0)] ^ S6[g(x, 0x2)] ^ S7[g(x, 0x1)] ^ S8[g(x, 0x3)] ^ S8[g(z, 0x2)];
	.loc 1 876 85 view .LVU608
	eor	lr, lr, r7	@ tmp1287, S8[_250], _245
@ src/libgcrypt.c:875:         x[0] = z[2] ^ S5[g(z, 0x5)] ^ S6[g(z, 0x7)] ^ S7[g(z, 0x4)] ^ S8[g(z, 0x6)] ^ S7[g(z, 0x0)];
	.loc 1 875 14 view .LVU609
	str	r1, [sp, #168]	@ _345, x[0]
	.loc 1 876 9 is_stmt 1 view .LVU610
.LVL38:
	.loc 1 876 9 is_stmt 0 view .LVU611
.LBE600:
	.loc 1 726 5 is_stmt 1 view .LVU612
.LBB601:
@ src/libgcrypt.c:880:         if(debug) {
	.loc 1 880 11 is_stmt 0 view .LVU613
	cmp	r2, #0	@ tmp1918,
@ src/libgcrypt.c:876:         x[1] = z[0] ^ S5[g(x, 0x0)] ^ S6[g(x, 0x2)] ^ S7[g(x, 0x1)] ^ S8[g(x, 0x3)] ^ S8[g(z, 0x2)];
	.loc 1 876 26 view .LVU614
	lsr	r2, r1, #24	@ _346, _345,
.LVL39:
	.loc 1 876 26 view .LVU615
.LBE601:
	.loc 1 726 5 is_stmt 1 view .LVU616
	.loc 1 726 5 view .LVU617
.LBB602:
@ src/libgcrypt.c:876:         x[1] = z[0] ^ S5[g(x, 0x0)] ^ S6[g(x, 0x2)] ^ S7[g(x, 0x1)] ^ S8[g(x, 0x3)] ^ S8[g(z, 0x2)];
	.loc 1 876 74 is_stmt 0 view .LVU618
	uxtb	r1, r1	@ _345, _345
@ src/libgcrypt.c:876:         x[1] = z[0] ^ S5[g(x, 0x0)] ^ S6[g(x, 0x2)] ^ S7[g(x, 0x1)] ^ S8[g(x, 0x3)] ^ S8[g(z, 0x2)];
	.loc 1 876 57 view .LVU619
	str	r5, [sp, #32]	@ _353, %sfp
.LVL40:
	.loc 1 876 57 view .LVU620
.LBE602:
	.loc 1 726 5 is_stmt 1 view .LVU621
	.loc 1 726 5 view .LVU622
.LBB603:
@ src/libgcrypt.c:876:         x[1] = z[0] ^ S5[g(x, 0x0)] ^ S6[g(x, 0x2)] ^ S7[g(x, 0x1)] ^ S8[g(x, 0x3)] ^ S8[g(z, 0x2)];
	.loc 1 876 85 is_stmt 0 view .LVU623
	ldr	ip, [r10, r2, lsl #2]	@ S5[_346], S5[_346]
	ldr	r1, [fp, r1, lsl #2]	@ S8[_355], S8[_355]
	eor	lr, lr, ip	@ tmp1290, tmp1287, S5[_346]
	ldr	ip, [r9, r0, lsl #2]	@ S6[_349], S6[_349]
	eor	ip, ip, lr	@ tmp1293, S6[_349], tmp1290
	eor	ip, ip, r5	@ tmp1295, tmp1293, _353
	eor	ip, ip, r1	@ _359, tmp1295, S8[_355]
@ src/libgcrypt.c:877:         x[2] = z[1] ^ S5[g(x, 0x7)] ^ S6[g(x, 0x6)] ^ S7[g(x, 0x5)] ^ S8[g(x, 0x4)] ^ S5[g(z, 0x1)];
	.loc 1 877 58 view .LVU624
	ubfx	lr, ip, #16, #8	@ tmp1302, _359,,
@ src/libgcrypt.c:877:         x[2] = z[1] ^ S5[g(x, 0x7)] ^ S6[g(x, 0x6)] ^ S7[g(x, 0x5)] ^ S8[g(x, 0x4)] ^ S5[g(z, 0x1)];
	.loc 1 877 26 view .LVU625
	uxtb	r1, ip	@ _359, _359
@ src/libgcrypt.c:876:         x[1] = z[0] ^ S5[g(x, 0x0)] ^ S6[g(x, 0x2)] ^ S7[g(x, 0x1)] ^ S8[g(x, 0x3)] ^ S8[g(z, 0x2)];
	.loc 1 876 14 view .LVU626
	str	ip, [sp, #172]	@ _359, x[1]
	.loc 1 877 9 is_stmt 1 view .LVU627
.LVL41:
	.loc 1 877 9 is_stmt 0 view .LVU628
.LBE603:
	.loc 1 726 5 is_stmt 1 view .LVU629
	.loc 1 726 5 view .LVU630
.LBB604:
@ src/libgcrypt.c:877:         x[2] = z[1] ^ S5[g(x, 0x7)] ^ S6[g(x, 0x6)] ^ S7[g(x, 0x5)] ^ S8[g(x, 0x4)] ^ S5[g(z, 0x1)];
	.loc 1 877 85 is_stmt 0 view .LVU631
	ldr	r1, [r10, r1, lsl #2]	@ S5[_360], S5[_360]
@ src/libgcrypt.c:877:         x[2] = z[1] ^ S5[g(x, 0x7)] ^ S6[g(x, 0x6)] ^ S7[g(x, 0x5)] ^ S8[g(x, 0x4)] ^ S5[g(z, 0x1)];
	.loc 1 877 57 view .LVU632
	ldr	r5, [r8, lr, lsl #2]	@ _367, S7[_366]
@ src/libgcrypt.c:877:         x[2] = z[1] ^ S5[g(x, 0x7)] ^ S6[g(x, 0x6)] ^ S7[g(x, 0x5)] ^ S8[g(x, 0x4)] ^ S5[g(z, 0x1)];
	.loc 1 877 85 view .LVU633
	eor	r3, r3, r1	@ tmp1309, tmp1308, S5[_360]
@ src/libgcrypt.c:877:         x[2] = z[1] ^ S5[g(x, 0x7)] ^ S6[g(x, 0x6)] ^ S7[g(x, 0x5)] ^ S8[g(x, 0x4)] ^ S5[g(z, 0x1)];
	.loc 1 877 42 view .LVU634
	ubfx	r1, ip, #8, #8	@ _363, _359,,
.LVL42:
	.loc 1 877 42 view .LVU635
.LBE604:
	.loc 1 726 5 is_stmt 1 view .LVU636
.LBB605:
@ src/libgcrypt.c:877:         x[2] = z[1] ^ S5[g(x, 0x7)] ^ S6[g(x, 0x6)] ^ S7[g(x, 0x5)] ^ S8[g(x, 0x4)] ^ S5[g(z, 0x1)];
	.loc 1 877 74 is_stmt 0 view .LVU637
	lsr	ip, ip, #24	@ tmp1305, _359,
@ src/libgcrypt.c:877:         x[2] = z[1] ^ S5[g(x, 0x7)] ^ S6[g(x, 0x6)] ^ S7[g(x, 0x5)] ^ S8[g(x, 0x4)] ^ S5[g(z, 0x1)];
	.loc 1 877 57 view .LVU638
	str	r5, [sp, #36]	@ _367, %sfp
.LVL43:
	.loc 1 877 57 view .LVU639
.LBE605:
	.loc 1 726 5 is_stmt 1 view .LVU640
.LBB606:
@ src/libgcrypt.c:877:         x[2] = z[1] ^ S5[g(x, 0x7)] ^ S6[g(x, 0x6)] ^ S7[g(x, 0x5)] ^ S8[g(x, 0x4)] ^ S5[g(z, 0x1)];
	.loc 1 877 73 is_stmt 0 view .LVU641
	ldr	lr, [fp, ip, lsl #2]	@ _370, S8[_369]
.LVL44:
	.loc 1 877 73 view .LVU642
.LBE606:
	.loc 1 726 5 is_stmt 1 view .LVU643
.LBB607:
@ src/libgcrypt.c:877:         x[2] = z[1] ^ S5[g(x, 0x7)] ^ S6[g(x, 0x6)] ^ S7[g(x, 0x5)] ^ S8[g(x, 0x4)] ^ S5[g(z, 0x1)];
	.loc 1 877 85 is_stmt 0 view .LVU644
	ldr	ip, [r9, r1, lsl #2]	@ S6[_363], S6[_363]
	eor	r3, r3, ip	@ tmp1312, tmp1309, S6[_363]
	eor	r3, r3, r5	@ tmp1314, tmp1312, _367
	eor	r3, r3, lr	@ _372, tmp1314, _370
@ src/libgcrypt.c:878:         x[3] = z[3] ^ S5[g(x, 0xA)] ^ S6[g(x, 0x9)] ^ S7[g(x, 0xB)] ^ S8[g(x, 0x8)] ^ S6[g(z, 0x3)];
	.loc 1 878 26 view .LVU645
	ubfx	ip, r3, #8, #8	@ tmp1317, _372,,
@ src/libgcrypt.c:877:         x[2] = z[1] ^ S5[g(x, 0x7)] ^ S6[g(x, 0x6)] ^ S7[g(x, 0x5)] ^ S8[g(x, 0x4)] ^ S5[g(z, 0x1)];
	.loc 1 877 14 view .LVU646
	str	r3, [sp, #176]	@ _372, x[2]
	.loc 1 878 9 is_stmt 1 view .LVU647
.LVL45:
	.loc 1 878 9 is_stmt 0 view .LVU648
.LBE607:
	.loc 1 726 5 is_stmt 1 view .LVU649
.LBB608:
@ src/libgcrypt.c:878:         x[3] = z[3] ^ S5[g(x, 0xA)] ^ S6[g(x, 0x9)] ^ S7[g(x, 0xB)] ^ S8[g(x, 0x8)] ^ S6[g(z, 0x3)];
	.loc 1 878 25 is_stmt 0 view .LVU650
	ldr	r5, [r10, ip, lsl #2]	@ _374, S5[_373]
.LVL46:
	.loc 1 878 25 view .LVU651
.LBE608:
	.loc 1 726 5 is_stmt 1 view .LVU652
.LBB609:
@ src/libgcrypt.c:878:         x[3] = z[3] ^ S5[g(x, 0xA)] ^ S6[g(x, 0x9)] ^ S7[g(x, 0xB)] ^ S8[g(x, 0x8)] ^ S6[g(z, 0x3)];
	.loc 1 878 42 is_stmt 0 view .LVU653
	ubfx	ip, r3, #16, #8	@ tmp1320, _372,,
@ src/libgcrypt.c:878:         x[3] = z[3] ^ S5[g(x, 0xA)] ^ S6[g(x, 0x9)] ^ S7[g(x, 0xB)] ^ S8[g(x, 0x8)] ^ S6[g(z, 0x3)];
	.loc 1 878 85 view .LVU654
	eor	r4, r4, r5	@ tmp1325, tmp1323, _374
@ src/libgcrypt.c:878:         x[3] = z[3] ^ S5[g(x, 0xA)] ^ S6[g(x, 0x9)] ^ S7[g(x, 0xB)] ^ S8[g(x, 0x8)] ^ S6[g(z, 0x3)];
	.loc 1 878 41 view .LVU655
	ldr	ip, [r9, ip, lsl #2]	@ _377, S6[_376]
@ src/libgcrypt.c:878:         x[3] = z[3] ^ S5[g(x, 0xA)] ^ S6[g(x, 0x9)] ^ S7[g(x, 0xB)] ^ S8[g(x, 0x8)] ^ S6[g(z, 0x3)];
	.loc 1 878 85 view .LVU656
	eor	r4, r4, ip	@ tmp1326, tmp1325, _377
@ src/libgcrypt.c:878:         x[3] = z[3] ^ S5[g(x, 0xA)] ^ S6[g(x, 0x9)] ^ S7[g(x, 0xB)] ^ S8[g(x, 0x8)] ^ S6[g(z, 0x3)];
	.loc 1 878 41 view .LVU657
	str	ip, [sp, #40]	@ _377, %sfp
.LVL47:
	.loc 1 878 41 view .LVU658
.LBE609:
	.loc 1 726 5 is_stmt 1 view .LVU659
	.loc 1 726 5 view .LVU660
.LBB610:
@ src/libgcrypt.c:878:         x[3] = z[3] ^ S5[g(x, 0xA)] ^ S6[g(x, 0x9)] ^ S7[g(x, 0xB)] ^ S8[g(x, 0x8)] ^ S6[g(z, 0x3)];
	.loc 1 878 58 is_stmt 0 view .LVU661
	uxtb	ip, r3	@ _372, _372
@ src/libgcrypt.c:878:         x[3] = z[3] ^ S5[g(x, 0xA)] ^ S6[g(x, 0x9)] ^ S7[g(x, 0xB)] ^ S8[g(x, 0x8)] ^ S6[g(z, 0x3)];
	.loc 1 878 74 view .LVU662
	lsr	r3, r3, #24	@ _382, _372,
.LVL48:
	.loc 1 878 74 view .LVU663
.LBE610:
	.loc 1 726 5 is_stmt 1 view .LVU664
.LBB611:
@ src/libgcrypt.c:878:         x[3] = z[3] ^ S5[g(x, 0xA)] ^ S6[g(x, 0x9)] ^ S7[g(x, 0xB)] ^ S8[g(x, 0x8)] ^ S6[g(z, 0x3)];
	.loc 1 878 85 is_stmt 0 view .LVU665
	ldr	ip, [r8, ip, lsl #2]	@ S7[_379], S7[_379]
	eor	r4, r4, ip	@ tmp1329, tmp1326, S7[_379]
	ldr	ip, [fp, r3, lsl #2]	@ S8[_382], S8[_382]
	eor	r4, r4, ip	@ tmp1332, tmp1329, S8[_382]
@ src/libgcrypt.c:878:         x[3] = z[3] ^ S5[g(x, 0xA)] ^ S6[g(x, 0x9)] ^ S7[g(x, 0xB)] ^ S8[g(x, 0x8)] ^ S6[g(z, 0x3)];
	.loc 1 878 14 view .LVU666
	str	r4, [sp, #180]	@ tmp1332, x[3]
	.loc 1 880 9 is_stmt 1 view .LVU667
@ src/libgcrypt.c:880:         if(debug) {
	.loc 1 880 11 is_stmt 0 view .LVU668
	bne	.L106		@,
.L24:
	.loc 1 886 9 is_stmt 1 view .LVU669
.LVL49:
.LBB484:
.LBI484:
	.loc 1 724 16 view .LVU670
.LBB485:
	.loc 1 726 5 view .LVU671
	.loc 1 726 5 is_stmt 0 view .LVU672
.LBE485:
.LBE484:
.LBB486:
.LBI486:
	.loc 1 724 16 is_stmt 1 view .LVU673
.LBB487:
	.loc 1 726 5 view .LVU674
	.loc 1 726 5 is_stmt 0 view .LVU675
.LBE487:
.LBE486:
.LBB488:
.LBI488:
	.loc 1 724 16 is_stmt 1 view .LVU676
.LBB489:
	.loc 1 726 5 view .LVU677
	.loc 1 726 5 is_stmt 0 view .LVU678
.LBE489:
.LBE488:
@ src/libgcrypt.c:886:         K[12 + i * 16] = S5[g(x, 0x8)] ^ S6[g(x, 0x9)] ^ S7[g(x, 0x7)] ^ S8[g(x, 0x6)] ^ S5[g(x, 0x3)];
	.loc 1 886 88 view .LVU679
	ldr	ip, [fp, r1, lsl #2]	@ S8[prephitmp_2027], S8[prephitmp_2027]
@ src/libgcrypt.c:888:         K[14 + i * 16] = S5[g(x, 0xC)] ^ S6[g(x, 0xD)] ^ S7[g(x, 0x3)] ^ S8[g(x, 0x2)] ^ S7[g(x, 0x8)];
	.loc 1 888 72 view .LVU680
	ldr	r0, [fp, r0, lsl #2]	@ S8[prephitmp_2041], S8[prephitmp_2041]
@ src/libgcrypt.c:889:         K[15 + i * 16] = S5[g(x, 0xE)] ^ S6[g(x, 0xF)] ^ S7[g(x, 0x1)] ^ S8[g(x, 0x0)] ^ S8[g(x, 0xD)];
	.loc 1 889 29 view .LVU681
	ldrb	r1, [sp, #181]	@ zero_extendqisi2	@ MEM[(uint8_t *)&x + 13B], MEM[(uint8_t *)&x + 13B]
@ src/libgcrypt.c:889:         K[15 + i * 16] = S5[g(x, 0xE)] ^ S6[g(x, 0xF)] ^ S7[g(x, 0x1)] ^ S8[g(x, 0x0)] ^ S8[g(x, 0xD)];
	.loc 1 889 88 view .LVU682
	ldr	r2, [fp, r2, lsl #2]	@ S8[prephitmp_2047], S8[prephitmp_2047]
@ src/libgcrypt.c:888:         K[14 + i * 16] = S5[g(x, 0xC)] ^ S6[g(x, 0xD)] ^ S7[g(x, 0x3)] ^ S8[g(x, 0x2)] ^ S7[g(x, 0x8)];
	.loc 1 888 72 view .LVU683
	str	r0, [sp, #48]	@ S8[prephitmp_2041], %sfp
@ src/libgcrypt.c:889:         K[15 + i * 16] = S5[g(x, 0xE)] ^ S6[g(x, 0xF)] ^ S7[g(x, 0x1)] ^ S8[g(x, 0x0)] ^ S8[g(x, 0xD)];
	.loc 1 889 88 view .LVU684
	ldr	r0, [r10, r1, lsl #2]	@ S5[_430], S5[_430]
@ src/libgcrypt.c:889:         K[15 + i * 16] = S5[g(x, 0xE)] ^ S6[g(x, 0xF)] ^ S7[g(x, 0x1)] ^ S8[g(x, 0x0)] ^ S8[g(x, 0xD)];
	.loc 1 889 45 view .LVU685
	ldrb	r1, [sp, #180]	@ zero_extendqisi2	@ MEM[(uint8_t *)&x + 12B], MEM[(uint8_t *)&x + 12B]
@ src/libgcrypt.c:886:         K[12 + i * 16] = S5[g(x, 0x8)] ^ S6[g(x, 0x9)] ^ S7[g(x, 0x7)] ^ S8[g(x, 0x6)] ^ S5[g(x, 0x3)];
	.loc 1 886 61 view .LVU686
	ldrb	r7, [sp, #172]	@ zero_extendqisi2	@ _393, MEM[(uint8_t *)&x + 4B]
.LVL50:
.LBB490:
.LBI490:
	.loc 1 724 16 is_stmt 1 view .LVU687
.LBB491:
	.loc 1 726 5 view .LVU688
	.loc 1 726 5 is_stmt 0 view .LVU689
.LBE491:
.LBE490:
.LBB492:
.LBI492:
	.loc 1 724 16 is_stmt 1 view .LVU690
.LBB493:
	.loc 1 726 5 view .LVU691
	.loc 1 726 5 is_stmt 0 view .LVU692
.LBE493:
.LBE492:
@ src/libgcrypt.c:889:         K[15 + i * 16] = S5[g(x, 0xE)] ^ S6[g(x, 0xF)] ^ S7[g(x, 0x1)] ^ S8[g(x, 0x0)] ^ S8[g(x, 0xD)];
	.loc 1 889 88 view .LVU693
	ldr	r1, [r9, r1, lsl #2]	@ S6[_432], S6[_432]
	str	r2, [sp, #52]	@ S8[prephitmp_2047], %sfp
@ src/libgcrypt.c:887:         K[13 + i * 16] = S5[g(x, 0xA)] ^ S6[g(x, 0xB)] ^ S7[g(x, 0x5)] ^ S8[g(x, 0x4)] ^ S6[g(x, 0x7)];
	.loc 1 887 45 view .LVU694
	ldrb	r2, [sp, #176]	@ zero_extendqisi2	@ MEM[(uint8_t *)&x + 8B], MEM[(uint8_t *)&x + 8B]
@ src/libgcrypt.c:889:         K[15 + i * 16] = S5[g(x, 0xE)] ^ S6[g(x, 0xF)] ^ S7[g(x, 0x1)] ^ S8[g(x, 0x0)] ^ S8[g(x, 0xD)];
	.loc 1 889 88 view .LVU695
	eor	r0, r0, r1	@ tmp1390, S5[_430], S6[_432]
@ src/libgcrypt.c:886:         K[12 + i * 16] = S5[g(x, 0x8)] ^ S6[g(x, 0x9)] ^ S7[g(x, 0x7)] ^ S8[g(x, 0x6)] ^ S5[g(x, 0x3)];
	.loc 1 886 88 view .LVU696
	str	ip, [sp, #44]	@ S8[prephitmp_2027], %sfp
	ldr	r1, [r8, r7, lsl #2]	@ S7[_393], S7[_393]
@ src/libgcrypt.c:887:         K[13 + i * 16] = S5[g(x, 0xA)] ^ S6[g(x, 0xB)] ^ S7[g(x, 0x5)] ^ S8[g(x, 0x4)] ^ S6[g(x, 0x7)];
	.loc 1 887 88 view .LVU697
	ldr	ip, [r9, r2, lsl #2]	@ S6[_405], S6[_405]
	ldr	r7, [r9, r7, lsl #2]	@ S6[_393], S6[_393]
@ src/libgcrypt.c:886:         K[12 + i * 16] = S5[g(x, 0x8)] ^ S6[g(x, 0x9)] ^ S7[g(x, 0x7)] ^ S8[g(x, 0x6)] ^ S5[g(x, 0x3)];
	.loc 1 886 93 view .LVU698
	ldrb	r6, [sp, #168]	@ zero_extendqisi2	@ _399, MEM[(uint8_t *)&x]
@ src/libgcrypt.c:887:         K[13 + i * 16] = S5[g(x, 0xA)] ^ S6[g(x, 0xB)] ^ S7[g(x, 0x5)] ^ S8[g(x, 0x4)] ^ S6[g(x, 0x7)];
	.loc 1 887 88 view .LVU699
	eor	ip, ip, r7	@ tmp1365, S6[_405], S6[_393]
	eor	ip, ip, r5	@ tmp1368, tmp1365, _374
	ldr	r5, [sp, #36]	@ _367, %sfp
@ src/libgcrypt.c:891:         if(debug) {
	.loc 1 891 11 view .LVU700
	ldr	r4, [sp, #508]	@ tmp1931, debug
@ src/libgcrypt.c:887:         K[13 + i * 16] = S5[g(x, 0xA)] ^ S6[g(x, 0xB)] ^ S7[g(x, 0x5)] ^ S8[g(x, 0x4)] ^ S6[g(x, 0x7)];
	.loc 1 887 88 view .LVU701
	eor	ip, ip, r5	@ tmp1369, tmp1368, _367
@ src/libgcrypt.c:887:         K[13 + i * 16] = S5[g(x, 0xA)] ^ S6[g(x, 0xB)] ^ S7[g(x, 0x5)] ^ S8[g(x, 0x4)] ^ S6[g(x, 0x7)];
	.loc 1 887 24 view .LVU702
	ldr	r5, [sp, #24]	@ ivtmp.302, %sfp
@ src/libgcrypt.c:891:         if(debug) {
	.loc 1 891 11 view .LVU703
	cmp	r4, #0	@ tmp1931,
@ src/libgcrypt.c:887:         K[13 + i * 16] = S5[g(x, 0xA)] ^ S6[g(x, 0xB)] ^ S7[g(x, 0x5)] ^ S8[g(x, 0x4)] ^ S6[g(x, 0x7)];
	.loc 1 887 88 view .LVU704
	eor	ip, ip, lr	@ tmp1370, tmp1369, _370
@ src/libgcrypt.c:887:         K[13 + i * 16] = S5[g(x, 0xA)] ^ S6[g(x, 0xB)] ^ S7[g(x, 0x5)] ^ S8[g(x, 0x4)] ^ S6[g(x, 0x7)];
	.loc 1 887 24 view .LVU705
	str	ip, [r5, #36]	@ tmp1370, MEM[base: _1691, offset: 36B]
@ src/libgcrypt.c:886:         K[12 + i * 16] = S5[g(x, 0x8)] ^ S6[g(x, 0x9)] ^ S7[g(x, 0x7)] ^ S8[g(x, 0x6)] ^ S5[g(x, 0x3)];
	.loc 1 886 88 view .LVU706
	ldr	ip, [r10, r6, lsl #2]	@ S5[_399], S5[_399]
@ src/libgcrypt.c:888:         K[14 + i * 16] = S5[g(x, 0xC)] ^ S6[g(x, 0xD)] ^ S7[g(x, 0x3)] ^ S8[g(x, 0x2)] ^ S7[g(x, 0x8)];
	.loc 1 888 45 view .LVU707
	ldrb	r4, [sp, #182]	@ zero_extendqisi2	@ _419, MEM[(uint8_t *)&x + 14B]
@ src/libgcrypt.c:888:         K[14 + i * 16] = S5[g(x, 0xC)] ^ S6[g(x, 0xD)] ^ S7[g(x, 0x3)] ^ S8[g(x, 0x2)] ^ S7[g(x, 0x8)];
	.loc 1 888 29 view .LVU708
	ldrb	r2, [sp, #183]	@ zero_extendqisi2	@ MEM[(uint8_t *)&x + 15B], MEM[(uint8_t *)&x + 15B]
@ src/libgcrypt.c:886:         K[12 + i * 16] = S5[g(x, 0x8)] ^ S6[g(x, 0x9)] ^ S7[g(x, 0x7)] ^ S8[g(x, 0x6)] ^ S5[g(x, 0x3)];
	.loc 1 886 88 view .LVU709
	eor	r1, r1, ip	@ tmp1352, S7[_393], S5[_399]
	ldr	ip, [sp, #40]	@ _377, %sfp
@ src/libgcrypt.c:888:         K[14 + i * 16] = S5[g(x, 0xC)] ^ S6[g(x, 0xD)] ^ S7[g(x, 0x3)] ^ S8[g(x, 0x2)] ^ S7[g(x, 0x8)];
	.loc 1 888 40 view .LVU710
	ldr	lr, [r9, r4, lsl #2]	@ S6[_419], S6[_419]
	ldr	r2, [r10, r2, lsl #2]	@ S5[_417], S5[_417]
@ src/libgcrypt.c:886:         K[12 + i * 16] = S5[g(x, 0x8)] ^ S6[g(x, 0x9)] ^ S7[g(x, 0x7)] ^ S8[g(x, 0x6)] ^ S5[g(x, 0x3)];
	.loc 1 886 88 view .LVU711
	eor	ip, ip, r1	@ _377, _377, tmp1352
@ src/libgcrypt.c:888:         K[14 + i * 16] = S5[g(x, 0xC)] ^ S6[g(x, 0xD)] ^ S7[g(x, 0x3)] ^ S8[g(x, 0x2)] ^ S7[g(x, 0x8)];
	.loc 1 888 56 view .LVU712
	ldr	r1, [r8, r6, lsl #2]	@ S7[_399], S7[_399]
@ src/libgcrypt.c:888:         K[14 + i * 16] = S5[g(x, 0xC)] ^ S6[g(x, 0xD)] ^ S7[g(x, 0x3)] ^ S8[g(x, 0x2)] ^ S7[g(x, 0x8)];
	.loc 1 888 40 view .LVU713
	eor	r2, r2, lr	@ tmp1374, S5[_417], S6[_419]
@ src/libgcrypt.c:888:         K[14 + i * 16] = S5[g(x, 0xC)] ^ S6[g(x, 0xD)] ^ S7[g(x, 0x3)] ^ S8[g(x, 0x2)] ^ S7[g(x, 0x8)];
	.loc 1 888 56 view .LVU714
	eor	r2, r2, r1	@ tmp1378, tmp1374, S7[_399]
@ src/libgcrypt.c:888:         K[14 + i * 16] = S5[g(x, 0xC)] ^ S6[g(x, 0xD)] ^ S7[g(x, 0x3)] ^ S8[g(x, 0x2)] ^ S7[g(x, 0x8)];
	.loc 1 888 72 view .LVU715
	ldr	r1, [sp, #48]	@ S8[prephitmp_2041], %sfp
@ src/libgcrypt.c:889:         K[15 + i * 16] = S5[g(x, 0xE)] ^ S6[g(x, 0xF)] ^ S7[g(x, 0x1)] ^ S8[g(x, 0x0)] ^ S8[g(x, 0xD)];
	.loc 1 889 88 view .LVU716
	ldr	lr, [sp, #32]	@ _353, %sfp
@ src/libgcrypt.c:888:         K[14 + i * 16] = S5[g(x, 0xC)] ^ S6[g(x, 0xD)] ^ S7[g(x, 0x3)] ^ S8[g(x, 0x2)] ^ S7[g(x, 0x8)];
	.loc 1 888 72 view .LVU717
	eor	r2, r2, r1	@ tmp1381, tmp1378, S8[prephitmp_2041]
@ src/libgcrypt.c:889:         K[15 + i * 16] = S5[g(x, 0xE)] ^ S6[g(x, 0xF)] ^ S7[g(x, 0x1)] ^ S8[g(x, 0x0)] ^ S8[g(x, 0xD)];
	.loc 1 889 88 view .LVU718
	ldr	r1, [fp, r4, lsl #2]	@ S8[_419], S8[_419]
	eor	r1, r1, r0	@ tmp1394, S8[_419], tmp1390
	ldr	r0, [sp, #52]	@ S8[prephitmp_2047], %sfp
	eor	r1, r1, lr	@ tmp1396, tmp1394, _353
	eor	r1, r1, r0	@ tmp1398, tmp1396, S8[prephitmp_2047]
@ src/libgcrypt.c:889:         K[15 + i * 16] = S5[g(x, 0xE)] ^ S6[g(x, 0xF)] ^ S7[g(x, 0x1)] ^ S8[g(x, 0x0)] ^ S8[g(x, 0xD)];
	.loc 1 889 24 view .LVU719
	str	r1, [r5, #44]	@ tmp1398, MEM[base: _1691, offset: 44B]
@ src/libgcrypt.c:886:         K[12 + i * 16] = S5[g(x, 0x8)] ^ S6[g(x, 0x9)] ^ S7[g(x, 0x7)] ^ S8[g(x, 0x6)] ^ S5[g(x, 0x3)];
	.loc 1 886 88 view .LVU720
	ldr	r1, [r10, r3, lsl #2]	@ S5[prephitmp_2021], S5[prephitmp_2021]
@ src/libgcrypt.c:888:         K[14 + i * 16] = S5[g(x, 0xC)] ^ S6[g(x, 0xD)] ^ S7[g(x, 0x3)] ^ S8[g(x, 0x2)] ^ S7[g(x, 0x8)];
	.loc 1 888 88 view .LVU721
	ldr	r3, [r8, r3, lsl #2]	@ S7[prephitmp_2021], S7[prephitmp_2021]
@ src/libgcrypt.c:886:         K[12 + i * 16] = S5[g(x, 0x8)] ^ S6[g(x, 0x9)] ^ S7[g(x, 0x7)] ^ S8[g(x, 0x6)] ^ S5[g(x, 0x3)];
	.loc 1 886 88 view .LVU722
	eor	r1, r1, ip	@ tmp1357, S5[prephitmp_2021], tmp1355
	ldr	ip, [sp, #44]	@ S8[prephitmp_2027], %sfp
@ src/libgcrypt.c:888:         K[14 + i * 16] = S5[g(x, 0xC)] ^ S6[g(x, 0xD)] ^ S7[g(x, 0x3)] ^ S8[g(x, 0x2)] ^ S7[g(x, 0x8)];
	.loc 1 888 88 view .LVU723
	eor	r2, r2, r3	@ tmp1384, tmp1381, S7[prephitmp_2021]
	ldr	r3, [sp, #28]	@ ivtmp.301, %sfp
@ src/libgcrypt.c:886:         K[12 + i * 16] = S5[g(x, 0x8)] ^ S6[g(x, 0x9)] ^ S7[g(x, 0x7)] ^ S8[g(x, 0x6)] ^ S5[g(x, 0x3)];
	.loc 1 886 88 view .LVU724
	eor	r1, r1, ip	@ tmp1360, tmp1357, S8[prephitmp_2027]
@ src/libgcrypt.c:886:         K[12 + i * 16] = S5[g(x, 0x8)] ^ S6[g(x, 0x9)] ^ S7[g(x, 0x7)] ^ S8[g(x, 0x6)] ^ S5[g(x, 0x3)];
	.loc 1 886 24 view .LVU725
	str	r1, [r5, #32]	@ tmp1360, MEM[base: _1691, offset: 32B]
	.loc 1 887 9 is_stmt 1 view .LVU726
.LVL51:
.LBB494:
.LBI494:
	.loc 1 724 16 view .LVU727
.LBB495:
	.loc 1 726 5 view .LVU728
	.loc 1 726 5 is_stmt 0 view .LVU729
.LBE495:
.LBE494:
.LBB496:
.LBI496:
	.loc 1 724 16 is_stmt 1 view .LVU730
.LBB497:
	.loc 1 726 5 view .LVU731
	.loc 1 726 5 is_stmt 0 view .LVU732
.LBE497:
.LBE496:
.LBB498:
.LBI498:
	.loc 1 724 16 is_stmt 1 view .LVU733
.LBB499:
	.loc 1 726 5 view .LVU734
	.loc 1 726 5 is_stmt 0 view .LVU735
.LBE499:
.LBE498:
.LBB500:
.LBI500:
	.loc 1 724 16 is_stmt 1 view .LVU736
.LBB501:
	.loc 1 726 5 view .LVU737
	.loc 1 726 5 is_stmt 0 view .LVU738
.LBE501:
.LBE500:
.LBE611:
	.loc 1 726 5 is_stmt 1 view .LVU739
.LBB612:
	.loc 1 888 9 view .LVU740
.LBB502:
.LBI502:
	.loc 1 724 16 view .LVU741
.LBB503:
	.loc 1 726 5 view .LVU742
	.loc 1 726 5 is_stmt 0 view .LVU743
.LBE503:
.LBE502:
.LBB504:
.LBI504:
	.loc 1 724 16 is_stmt 1 view .LVU744
.LBB505:
	.loc 1 726 5 view .LVU745
	.loc 1 726 5 is_stmt 0 view .LVU746
.LBE505:
.LBE504:
.LBE612:
	.loc 1 726 5 is_stmt 1 view .LVU747
.LBB613:
.LBB506:
.LBI506:
	.loc 1 724 16 view .LVU748
.LBB507:
	.loc 1 726 5 view .LVU749
	.loc 1 726 5 is_stmt 0 view .LVU750
.LBE507:
.LBE506:
.LBE613:
	.loc 1 726 5 is_stmt 1 view .LVU751
	.loc 1 726 5 is_stmt 0 view .LVU752
	add	r1, r3, #12	@ _1658, ivtmp.301,
.LBB614:
@ src/libgcrypt.c:888:         K[14 + i * 16] = S5[g(x, 0xC)] ^ S6[g(x, 0xD)] ^ S7[g(x, 0x3)] ^ S8[g(x, 0x2)] ^ S7[g(x, 0x8)];
	.loc 1 888 24 view .LVU753
	str	r2, [r5, #40]	@ tmp1384, MEM[base: _1691, offset: 40B]
	.loc 1 889 9 is_stmt 1 view .LVU754
.LVL52:
.LBB508:
.LBI508:
	.loc 1 724 16 view .LVU755
.LBB509:
	.loc 1 726 5 view .LVU756
	.loc 1 726 5 is_stmt 0 view .LVU757
.LBE509:
.LBE508:
.LBB510:
.LBI510:
	.loc 1 724 16 is_stmt 1 view .LVU758
.LBB511:
	.loc 1 726 5 view .LVU759
	.loc 1 726 5 is_stmt 0 view .LVU760
.LBE511:
.LBE510:
.LBB512:
.LBI512:
	.loc 1 724 16 is_stmt 1 view .LVU761
.LBB513:
	.loc 1 726 5 view .LVU762
	.loc 1 726 5 is_stmt 0 view .LVU763
.LBE513:
.LBE512:
.LBB514:
.LBI514:
	.loc 1 724 16 is_stmt 1 view .LVU764
.LBB515:
	.loc 1 726 5 view .LVU765
	.loc 1 726 5 is_stmt 0 view .LVU766
.LBE515:
.LBE514:
.LBE614:
	.loc 1 726 5 is_stmt 1 view .LVU767
.LBB615:
	.loc 1 891 9 view .LVU768
	add	r2, r3, #15	@ _1656, ivtmp.301,
@ src/libgcrypt.c:891:         if(debug) {
	.loc 1 891 11 is_stmt 0 view .LVU769
	bne	.L107		@,
.L26:
	.loc 1 785 28 is_stmt 1 discriminator 2 view .LVU770
.LVL53:
	.loc 1 785 21 discriminator 2 view .LVU771
@ src/libgcrypt.c:785:     for (int i = 0; i < 2; ++i) {
	.loc 1 785 5 is_stmt 0 discriminator 2 view .LVU772
	ldr	r3, [sp, #56]	@ i, %sfp
	cmp	r3, #1	@ i,
	ldr	r3, [sp, #28]	@ ivtmp.301, %sfp
	add	r3, r3, #16	@ ivtmp.301, ivtmp.301,
	str	r3, [sp, #28]	@ ivtmp.301, %sfp
	ldr	r3, [sp, #24]	@ ivtmp.302, %sfp
	add	r3, r3, #64	@ ivtmp.302, ivtmp.302,
	str	r3, [sp, #24]	@ ivtmp.302, %sfp
	bne	.L47		@,
.LBE615:
	.loc 1 905 5 is_stmt 1 view .LVU773
@ src/libgcrypt.c:905:     uint32_t L[ROUND_COUNT + 1] = {0};
	.loc 1 905 14 is_stmt 0 view .LVU774
	mov	r2, #64	@,
	mov	r1, #0	@,
	add	r0, sp, #204	@,,
	bl	memset(PLT)	@
.LVL54:
	.loc 1 906 5 is_stmt 1 view .LVU775
@ src/libgcrypt.c:906:     L[0] = data.msb;
	.loc 1 906 10 is_stmt 0 view .LVU776
	ldr	r3, [sp, #108]	@ data$msb, %sfp
@ src/libgcrypt.c:907:     uint32_t R[ROUND_COUNT + 1] = {0};
	.loc 1 907 14 view .LVU777
	mov	r2, #64	@,
	mov	r1, #0	@,
	add	r0, sp, #272	@,,
@ src/libgcrypt.c:906:     L[0] = data.msb;
	.loc 1 906 10 view .LVU778
	str	r3, [sp, #200]	@ data$msb, L[0]
	.loc 1 907 5 is_stmt 1 view .LVU779
@ src/libgcrypt.c:907:     uint32_t R[ROUND_COUNT + 1] = {0};
	.loc 1 907 14 is_stmt 0 view .LVU780
	bl	memset(PLT)	@
.LVL55:
	.loc 1 908 5 is_stmt 1 view .LVU781
	.loc 1 910 5 view .LVU782
@ src/libgcrypt.c:910:     if(debug) printf("\n=== Starting Rounds ===\n");
	.loc 1 910 7 is_stmt 0 view .LVU783
	ldr	r3, [sp, #508]	@ tmp1952, debug
	cmp	r3, #0	@ tmp1952,
	bne	.L108		@,
.L29:
	ldr	r2, [sp, #100]	@ tmp860, %sfp
	add	r7, sp, #268	@ ivtmp.154,,
	ldr	r3, .L117+28	@ tmp1587,
.LBB616:
@ src/libgcrypt.c:858:             printf("Third z-transform: ");
	.loc 1 858 13 view .LVU784
	mov	r4, #1	@ ivtmp.148,
	ldr	r5, [sp, #104]	@ ivtmp.150, %sfp
	ldr	r3, [r2, r3]	@ tmp1566,
.LBE616:
.LBB617:
.LBB618:
@ src/libgcrypt.c:977:             printf("L[%2d] = R[%2d] = %08X\n", i+1, i, L[i+1]);
	.loc 1 977 13 view .LVU785
	ldr	r6, [sp, #112]	@ data$lsb, %sfp
	str	r3, [sp, #32]	@ tmp1566, %sfp
	ldr	r3, .L117+32	@ tmp1588,
	ldr	r3, [r2, r3]	@ tmp1567,
	str	r3, [sp, #36]	@ tmp1567, %sfp
	ldr	r3, .L117+36	@ tmp1589,
	ldr	r3, [r2, r3]	@ tmp1568,
	str	r3, [sp, #40]	@ tmp1568, %sfp
	ldr	r3, .L117+40	@ tmp1590,
	ldr	r3, [r2, r3]	@ tmp1569,
	str	r7, [sp, #24]	@ ivtmp.154, %sfp
	str	r3, [sp, #44]	@ tmp1569, %sfp
@ src/libgcrypt.c:928:         switch (rIndex % 3) {
	.loc 1 928 24 view .LVU786
	movw	r3, #43691	@ tmp1579,
	movt	r3, 43690	@ tmp1579,
	str	r3, [sp, #28]	@ tmp1579, %sfp
@ src/libgcrypt.c:976:             printf("Round %2d output:\n", i);
	.loc 1 976 13 view .LVU787
	ldr	r3, .L117+44	@ tmp1580,
.LPIC53:
	add	r3, pc, r3	@ tmp1580, tmp1580
	str	r3, [sp, #52]	@ tmp1580, %sfp
@ src/libgcrypt.c:977:             printf("L[%2d] = R[%2d] = %08X\n", i+1, i, L[i+1]);
	.loc 1 977 13 view .LVU788
	ldr	r3, .L117+48	@ tmp1581,
.LPIC54:
	add	r3, pc, r3	@ tmp1581, tmp1581
	str	r3, [sp, #56]	@ tmp1581, %sfp
.LVL56:
	.loc 1 977 13 view .LVU789
	b	.L39		@
.LVL57:
.L110:
	.loc 1 930 17 is_stmt 1 view .LVU790
.LBB619:
.LBI619:
	.loc 1 746 17 view .LVU791
.LBB620:
	.loc 1 749 5 view .LVU792
	.loc 1 749 5 is_stmt 0 view .LVU793
.LBE620:
.LBE619:
.LBB624:
.LBI624:
	.loc 1 762 17 is_stmt 1 view .LVU794
.LBB625:
	.loc 1 764 5 view .LVU795
	.loc 1 765 5 view .LVU796
.LBE625:
.LBE624:
.LBB631:
.LBB621:
@ src/libgcrypt.c:749:     return ((a) + b); // % MOD_2_32;
	.loc 1 749 17 is_stmt 0 view .LVU797
	add	r9, r9, r6	@ tmp1502, Kmi, data$lsb
.LVL58:
	.loc 1 749 17 view .LVU798
.LBE621:
.LBE631:
.LBB632:
.LBB626:
@ src/libgcrypt.c:765:     return (x << s) | (x >> (32 - s));
	.loc 1 765 21 view .LVU799
	rsb	r10, r10, #32	@ tmp1503, Kri,
.LVL59:
	.loc 1 765 21 view .LVU800
.LBE626:
.LBE632:
@ src/libgcrypt.c:935:                 f = sumMod2_32b(subtractMod2_32b(S1[Ia] ^ S2[Ib], S3[Ic]), S4[Id]);
	.loc 1 935 21 view .LVU801
	ldr	r2, [sp, #36]	@ tmp1567, %sfp
.LBB633:
.LBB627:
@ src/libgcrypt.c:765:     return (x << s) | (x >> (32 - s));
	.loc 1 765 21 view .LVU802
	ror	r9, r9, r10	@ _968, tmp1502, tmp1503
.LVL60:
	.loc 1 765 21 view .LVU803
.LBE627:
.LBE633:
	.loc 1 931 17 is_stmt 1 view .LVU804
	.loc 1 933 17 view .LVU805
.LBB634:
.LBI634:
	.loc 1 729 13 view .LVU806
.LBB635:
	.loc 1 731 5 view .LVU807
	.loc 1 732 5 view .LVU808
	.loc 1 733 5 view .LVU809
	.loc 1 734 5 view .LVU810
	.loc 1 734 5 is_stmt 0 view .LVU811
.LBE635:
.LBE634:
	.loc 1 934 17 is_stmt 1 view .LVU812
	.loc 1 935 17 view .LVU813
.LBB639:
.LBI639:
	.loc 1 752 17 view .LVU814
.LBB640:
	.loc 1 754 5 view .LVU815
	.loc 1 759 5 view .LVU816
	.loc 1 759 5 is_stmt 0 view .LVU817
.LBE640:
.LBE639:
.LBB645:
.LBI645:
	.loc 1 746 17 is_stmt 1 view .LVU818
.LBB646:
	.loc 1 749 5 view .LVU819
.LBE646:
.LBE645:
@ src/libgcrypt.c:934:                 if(debug) printf("Split I: %02X %02X %02X %02X\n", Ia, Ib, Ic, Id);
	.loc 1 934 27 is_stmt 0 view .LVU820
	ubfx	r3, r9, #16, #8	@ tmp1506, _968,,
@ src/libgcrypt.c:935:                 f = sumMod2_32b(subtractMod2_32b(S1[Ia] ^ S2[Ib], S3[Ic]), S4[Id]);
	.loc 1 935 21 view .LVU821
	ldr	r1, [sp, #32]	@ tmp1566, %sfp
	ldr	r3, [r2, r3, lsl #2]	@ S2[_1950], S2[_1950]
.LBB650:
.LBB636:
@ src/libgcrypt.c:731:     *Ia = (I >> 24) & 0xFF;
	.loc 1 731 14 view .LVU822
	lsr	r2, r9, #24	@ tmp1508, _968,
.LBE636:
.LBE650:
@ src/libgcrypt.c:935:                 f = sumMod2_32b(subtractMod2_32b(S1[Ia] ^ S2[Ib], S3[Ic]), S4[Id]);
	.loc 1 935 21 view .LVU823
	ldr	r2, [r1, r2, lsl #2]	@ S1[_1947], S1[_1947]
.LBB651:
.LBB641:
@ src/libgcrypt.c:759:     return (MOD_2_32_MINUS_1 + a) - b + 1;
	.loc 1 759 39 view .LVU824
	ldr	r1, [sp, #40]	@ tmp1568, %sfp
.LBE641:
.LBE651:
@ src/libgcrypt.c:935:                 f = sumMod2_32b(subtractMod2_32b(S1[Ia] ^ S2[Ib], S3[Ic]), S4[Id]);
	.loc 1 935 21 view .LVU825
	eor	r3, r3, r2	@ tmp1509, S2[_1950], S1[_1947]
@ src/libgcrypt.c:934:                 if(debug) printf("Split I: %02X %02X %02X %02X\n", Ia, Ib, Ic, Id);
	.loc 1 934 27 view .LVU826
	ubfx	r2, r9, #8, #8	@ tmp1514, _968,,
	uxtb	r9, r9	@ _968, _968
.LVL61:
.LBB652:
.LBB642:
@ src/libgcrypt.c:759:     return (MOD_2_32_MINUS_1 + a) - b + 1;
	.loc 1 759 39 view .LVU827
	ldr	r2, [r1, r2, lsl #2]	@ S3[_1953], S3[_1953]
	sub	r3, r3, r2	@ tmp1515, tmp1509, S3[_1953]
.LBE642:
.LBE652:
.LBB653:
.LBB647:
@ src/libgcrypt.c:749:     return ((a) + b); // % MOD_2_32;
	.loc 1 749 17 view .LVU828
	ldr	r2, [sp, #44]	@ tmp1569, %sfp
	ldr	r2, [r2, r9, lsl #2]	@ S4[_1956], S4[_1956]
	add	r3, r3, r2	@ f, tmp1515, S4[_1956]
.LVL62:
	.loc 1 749 17 view .LVU829
.LBE647:
.LBE653:
	.loc 1 936 17 is_stmt 1 view .LVU830
.L42:
	.loc 1 972 9 view .LVU831
@ src/libgcrypt.c:973:         R[i + 1] = L[i] ^ f;
	.loc 1 973 25 is_stmt 0 view .LVU832
	ldr	r2, [r5]	@ MEM[base: _1798, offset: 0B], MEM[base: _1798, offset: 0B]
@ src/libgcrypt.c:972:         L[i + 1] = R[i];
	.loc 1 972 18 view .LVU833
	str	r6, [r5, #4]	@ data$lsb, MEM[base: _1798, offset: 4B]
	.loc 1 973 9 is_stmt 1 view .LVU834
@ src/libgcrypt.c:972:         L[i + 1] = R[i];
	.loc 1 972 13 is_stmt 0 view .LVU835
	mov	r6, r4	@ i, ivtmp.148
@ src/libgcrypt.c:973:         R[i + 1] = L[i] ^ f;
	.loc 1 973 25 view .LVU836
	eor	r3, r3, r2	@ tmp1460, f, MEM[base: _1798, offset: 0B]
.LVL63:
@ src/libgcrypt.c:973:         R[i + 1] = L[i] ^ f;
	.loc 1 973 18 view .LVU837
	ldr	r2, [sp, #24]	@ ivtmp.154, %sfp
	str	r3, [r2, #4]	@ tmp1460, MEM[base: _1805, offset: 4B]
	.loc 1 975 9 is_stmt 1 view .LVU838
.LVL64:
.L41:
	.loc 1 975 9 is_stmt 0 view .LVU839
.LBE618:
	.loc 1 912 21 is_stmt 1 discriminator 1 view .LVU840
@ src/libgcrypt.c:912:     for (int i = 0; i < ROUND_COUNT; ++i) {
	.loc 1 912 5 is_stmt 0 discriminator 1 view .LVU841
	ldr	r3, [sp, #24]	@ ivtmp.154, %sfp
	add	r4, r4, #1	@ ivtmp.148, ivtmp.148,
.LVL65:
	.loc 1 912 5 discriminator 1 view .LVU842
	cmp	r4, #17	@ ivtmp.148,
	add	r5, r5, #4	@ ivtmp.150, ivtmp.150,
	add	r3, r3, #4	@ ivtmp.154, ivtmp.154,
	str	r3, [sp, #24]	@ ivtmp.154, %sfp
	beq	.L38		@,
.LBB737:
@ src/libgcrypt.c:944:                 I = cyclicShift(Kmi ^ R[i], Kri);
	.loc 1 944 40 view .LVU843
	add	r3, sp, #464	@ tmp1977,,
	add	r6, r3, r6, lsl #2	@ tmp1454, tmp1977, i,
.LVL66:
	.loc 1 944 40 view .LVU844
	ldr	r6, [r6, #-196]	@ data$lsb, R[i_618]
.LVL67:
.L39:
@ src/libgcrypt.c:913:         int rIndex = reverse ? (ROUND_COUNT - 1 - i) : i;
	.loc 1 913 54 view .LVU845
	ldr	r3, [sp, #504]	@ tmp1965, reverse
	sub	r8, r4, #1	@ _1802, ivtmp.148,
.LVL68:
	.loc 1 913 9 is_stmt 1 view .LVU846
@ src/libgcrypt.c:913:         int rIndex = reverse ? (ROUND_COUNT - 1 - i) : i;
	.loc 1 913 54 is_stmt 0 view .LVU847
	cmp	r3, #0	@ tmp1965,
@ src/libgcrypt.c:917:         if(debug) {
	.loc 1 917 11 view .LVU848
	ldr	r3, [sp, #508]	@ tmp1966, debug
	rsbne	r7, r4, #16	@ iftmp.14_526, ivtmp.148,
	moveq	r7, r8	@ iftmp.14_526, _1802
.LVL69:
	.loc 1 914 9 is_stmt 1 view .LVU849
@ src/libgcrypt.c:917:         if(debug) {
	.loc 1 917 11 is_stmt 0 view .LVU850
	cmp	r3, #0	@ tmp1966,
@ src/libgcrypt.c:914:         uint32_t Kmi = K[rIndex];
	.loc 1 914 18 view .LVU851
	add	r3, sp, #464	@ tmp1967,,
	add	r3, r3, r7, lsl #2	@ tmp1415, tmp1967, iftmp.14_526,
@ src/libgcrypt.c:915:         uint8_t Kri = K[16 + rIndex] & 0x1F;
	.loc 1 915 28 view .LVU852
	add	fp, r7, #16	@ _446, iftmp.14_526,
@ src/libgcrypt.c:914:         uint32_t Kmi = K[rIndex];
	.loc 1 914 18 view .LVU853
	ldr	r9, [r3, #-128]	@ Kmi, K[iftmp.14_526]
.LVL70:
	.loc 1 915 9 is_stmt 1 view .LVU854
@ src/libgcrypt.c:915:         uint8_t Kri = K[16 + rIndex] & 0x1F;
	.loc 1 915 24 is_stmt 0 view .LVU855
	add	r3, sp, #464	@ tmp1968,,
	add	r3, r3, fp, lsl #2	@ tmp1417, tmp1968, _446,
	ldr	r3, [r3, #-128]	@ _447, K[_446]
@ src/libgcrypt.c:915:         uint8_t Kri = K[16 + rIndex] & 0x1F;
	.loc 1 915 17 view .LVU856
	and	r10, r3, #31	@ Kri, _447,
.LVL71:
	.loc 1 917 9 is_stmt 1 view .LVU857
@ src/libgcrypt.c:917:         if(debug) {
	.loc 1 917 11 is_stmt 0 view .LVU858
	bne	.L109		@,
	.loc 1 924 9 is_stmt 1 view .LVU859
.LVL72:
	.loc 1 925 9 view .LVU860
	.loc 1 926 9 view .LVU861
	.loc 1 928 9 view .LVU862
@ src/libgcrypt.c:928:         switch (rIndex % 3) {
	.loc 1 928 24 is_stmt 0 view .LVU863
	ldr	r3, [sp, #28]	@ tmp1579, %sfp
	umull	r2, r3, r3, r7	@ tmp1709, tmp1520, tmp1579, iftmp.14_526
	mov	r2, #3	@ tmp1523,
	lsr	r3, r3, #1	@ _970, tmp1520,
	mls	r3, r2, r3, r7	@ _970, tmp1523, _970, iftmp.14_526
@ src/libgcrypt.c:928:         switch (rIndex % 3) {
	.loc 1 928 9 view .LVU864
	cmp	r3, #1	@ _970,
	beq	.L43		@,
	cmp	r3, #2	@ _970,
	bne	.L110		@,
.L46:
	.loc 1 958 17 is_stmt 1 view .LVU865
.LVL73:
.LBB654:
.LBI654:
	.loc 1 752 17 view .LVU866
.LBB655:
	.loc 1 754 5 view .LVU867
.LBE655:
.LBE654:
@ src/libgcrypt.c:959:                 if(debug) printf("Case 2: I = cyclicShift(subtractMod2_32b(%08X, %08X), %d) = %08X\n", 
	.loc 1 959 19 is_stmt 0 view .LVU868
	ldr	r3, [sp, #508]	@ tmp1970, debug
.LBB657:
.LBB656:
@ src/libgcrypt.c:759:     return (MOD_2_32_MINUS_1 + a) - b + 1;
	.loc 1 759 39 view .LVU869
	sub	r7, r9, r6	@ _810, Kmi, data$lsb
.LVL74:
	.loc 1 759 39 view .LVU870
.LBE656:
.LBE657:
.LBB658:
.LBI658:
	.loc 1 762 17 is_stmt 1 view .LVU871
.LBB659:
	.loc 1 764 5 view .LVU872
	.loc 1 765 5 view .LVU873
.LBE659:
.LBE658:
@ src/libgcrypt.c:959:                 if(debug) printf("Case 2: I = cyclicShift(subtractMod2_32b(%08X, %08X), %d) = %08X\n", 
	.loc 1 959 19 is_stmt 0 view .LVU874
	cmp	r3, #0	@ tmp1970,
.LBB661:
.LBB660:
@ src/libgcrypt.c:765:     return (x << s) | (x >> (32 - s));
	.loc 1 765 21 view .LVU875
	rsb	r3, r10, #32	@ tmp1437, Kri,
	ror	r7, r7, r3	@ _808, _810, tmp1437
.LVL75:
	.loc 1 765 21 view .LVU876
.LBE660:
.LBE661:
	.loc 1 959 17 is_stmt 1 view .LVU877
@ src/libgcrypt.c:959:                 if(debug) printf("Case 2: I = cyclicShift(subtractMod2_32b(%08X, %08X), %d) = %08X\n", 
	.loc 1 959 19 is_stmt 0 view .LVU878
	bne	.L111		@,
	.loc 1 961 17 is_stmt 1 view .LVU879
.LVL76:
.LBB662:
.LBI662:
	.loc 1 729 13 view .LVU880
.LBB663:
	.loc 1 731 5 view .LVU881
	.loc 1 732 5 view .LVU882
	.loc 1 733 5 view .LVU883
	.loc 1 734 5 view .LVU884
	.loc 1 734 5 is_stmt 0 view .LVU885
.LBE663:
.LBE662:
	.loc 1 962 17 is_stmt 1 view .LVU886
	.loc 1 963 17 view .LVU887
.LBB667:
.LBI667:
	.loc 1 746 17 view .LVU888
.LBB668:
	.loc 1 749 5 view .LVU889
	.loc 1 749 5 is_stmt 0 view .LVU890
.LBE668:
.LBE667:
.LBB674:
.LBI674:
	.loc 1 752 17 is_stmt 1 view .LVU891
.LBB675:
	.loc 1 754 5 view .LVU892
	.loc 1 759 5 view .LVU893
.LBE675:
.LBE674:
@ src/libgcrypt.c:962:                 if(debug) printf("Split I: %02X %02X %02X %02X\n", Ia, Ib, Ic, Id);
	.loc 1 962 27 is_stmt 0 view .LVU894
	ubfx	r3, r7, #16, #8	@ tmp1470, _808,,
.LBB679:
.LBB669:
@ src/libgcrypt.c:749:     return ((a) + b); // % MOD_2_32;
	.loc 1 749 17 view .LVU895
	ldr	r2, [sp, #36]	@ tmp1567, %sfp
	ldr	r1, [sp, #32]	@ tmp1566, %sfp
	ldr	r3, [r2, r3, lsl #2]	@ S2[_1966], S2[_1966]
.LBE669:
.LBE679:
.LBB680:
.LBB664:
@ src/libgcrypt.c:731:     *Ia = (I >> 24) & 0xFF;
	.loc 1 731 14 view .LVU896
	lsr	r2, r7, #24	@ tmp1472, _808,
.LBE664:
.LBE680:
.LBB681:
.LBB670:
@ src/libgcrypt.c:749:     return ((a) + b); // % MOD_2_32;
	.loc 1 749 17 view .LVU897
	ldr	r2, [r1, r2, lsl #2]	@ S1[_1963], S1[_1963]
.LBE670:
.LBE681:
@ src/libgcrypt.c:963:                 f = subtractMod2_32b(sumMod2_32b(S1[Ia], S2[Ib]) ^ S3[Ic], S4[Id]);
	.loc 1 963 21 view .LVU898
	ldr	r1, [sp, #40]	@ tmp1568, %sfp
.LBB682:
.LBB671:
@ src/libgcrypt.c:749:     return ((a) + b); // % MOD_2_32;
	.loc 1 749 17 view .LVU899
	add	r3, r3, r2	@ tmp1473, S2[_1966], S1[_1963]
.LBE671:
.LBE682:
@ src/libgcrypt.c:962:                 if(debug) printf("Split I: %02X %02X %02X %02X\n", Ia, Ib, Ic, Id);
	.loc 1 962 27 view .LVU900
	ubfx	r2, r7, #8, #8	@ tmp1478, _808,,
	uxtb	r7, r7	@ _808, _808
.LVL77:
@ src/libgcrypt.c:963:                 f = subtractMod2_32b(sumMod2_32b(S1[Ia], S2[Ib]) ^ S3[Ic], S4[Id]);
	.loc 1 963 21 view .LVU901
	ldr	r2, [r1, r2, lsl #2]	@ S3[_1969], S3[_1969]
	eor	r3, r3, r2	@ tmp1479, tmp1473, S3[_1969]
.LBB683:
.LBB676:
@ src/libgcrypt.c:759:     return (MOD_2_32_MINUS_1 + a) - b + 1;
	.loc 1 759 39 view .LVU902
	ldr	r2, [sp, #44]	@ tmp1569, %sfp
	ldr	r2, [r2, r7, lsl #2]	@ S4[_1972], S4[_1972]
	sub	r3, r3, r2	@ f, tmp1479, S4[_1972]
.LVL78:
	.loc 1 759 39 view .LVU903
.LBE676:
.LBE683:
	.loc 1 964 17 is_stmt 1 view .LVU904
	b	.L42		@
.LVL79:
.L109:
	.loc 1 918 13 view .LVU905
	ldr	r0, .L117+52	@,
	mov	r1, r8	@, _1802
	str	r3, [sp, #48]	@ _447, %sfp
.LPIC44:
	add	r0, pc, r0	@,
	bl	tfp_printf(PLT)	@
.LVL80:
	.loc 1 919 13 view .LVU906
	ldr	r3, [sp, #48]	@ _447, %sfp
	mov	r1, r7	@, iftmp.14_526
	ldr	r0, .L117+56	@,
	mov	r2, r9	@, Kmi
	stm	sp, {r3, r10}	@,,
.LPIC45:
	add	r0, pc, r0	@,
	mov	r3, fp	@, _446
	bl	tfp_printf(PLT)	@
.LVL81:
	.loc 1 921 13 view .LVU907
	ldr	r0, .L117+60	@,
	mov	r2, r6	@, data$lsb
	ldr	r1, [r5]	@, MEM[base: _1806, offset: 0B]
.LPIC46:
	add	r0, pc, r0	@,
	bl	tfp_printf(PLT)	@
.LVL82:
	.loc 1 924 9 view .LVU908
	.loc 1 925 9 view .LVU909
	.loc 1 926 9 view .LVU910
	.loc 1 928 9 view .LVU911
@ src/libgcrypt.c:928:         switch (rIndex % 3) {
	.loc 1 928 24 is_stmt 0 view .LVU912
	ldr	r3, [sp, #28]	@ tmp1579, %sfp
	umull	r2, r3, r3, r7	@ tmp1708, tmp1428, tmp1579, iftmp.14_526
	mov	r2, #3	@ tmp1431,
	lsr	r3, r3, #1	@ _964, tmp1428,
	mls	r3, r2, r3, r7	@ _964, tmp1431, _964, iftmp.14_526
@ src/libgcrypt.c:928:         switch (rIndex % 3) {
	.loc 1 928 9 view .LVU913
	cmp	r3, #1	@ _964,
	beq	.L32		@,
	cmp	r3, #2	@ _964,
	beq	.L46		@,
	.loc 1 930 17 is_stmt 1 view .LVU914
.LVL83:
.LBB684:
	.loc 1 746 17 view .LVU915
.LBB622:
	.loc 1 749 5 view .LVU916
	.loc 1 749 5 is_stmt 0 view .LVU917
.LBE622:
.LBE684:
.LBB685:
	.loc 1 762 17 is_stmt 1 view .LVU918
.LBB628:
	.loc 1 764 5 view .LVU919
	.loc 1 765 5 view .LVU920
.LBE628:
.LBE685:
.LBB686:
.LBB623:
@ src/libgcrypt.c:749:     return ((a) + b); // % MOD_2_32;
	.loc 1 749 17 is_stmt 0 view .LVU921
	add	r7, r9, r6	@ tmp1484, Kmi, data$lsb
.LVL84:
	.loc 1 749 17 view .LVU922
.LBE623:
.LBE686:
.LBB687:
.LBB629:
@ src/libgcrypt.c:765:     return (x << s) | (x >> (32 - s));
	.loc 1 765 21 view .LVU923
	rsb	r3, r10, #32	@ tmp1485, Kri,
.LBE629:
.LBE687:
@ src/libgcrypt.c:931:                 if(debug) printf("Case 0: I = cyclicShift(sumMod2_32b(%08X, %08X), %d) = %08X\n", 
	.loc 1 931 27 view .LVU924
	ldr	r0, .L117+64	@,
	mov	r1, r9	@, Kmi
.LBB688:
.LBB630:
@ src/libgcrypt.c:765:     return (x << s) | (x >> (32 - s));
	.loc 1 765 21 view .LVU925
	ror	r7, r7, r3	@ _962, tmp1484, tmp1485
.LVL85:
	.loc 1 765 21 view .LVU926
.LBE630:
.LBE688:
	.loc 1 931 17 is_stmt 1 view .LVU927
	.loc 1 931 27 view .LVU928
	mov	r2, r6	@, data$lsb
.LPIC56:
	add	r0, pc, r0	@,
	mov	r3, r10	@, Kri
	str	r7, [sp]	@ _962,
@ src/libgcrypt.c:934:                 if(debug) printf("Split I: %02X %02X %02X %02X\n", Ia, Ib, Ic, Id);
	.loc 1 934 27 is_stmt 0 view .LVU929
	ubfx	r10, r7, #16, #8	@ _455, _962,,
.LVL86:
@ src/libgcrypt.c:931:                 if(debug) printf("Case 0: I = cyclicShift(sumMod2_32b(%08X, %08X), %d) = %08X\n", 
	.loc 1 931 27 view .LVU930
	bl	tfp_printf(PLT)	@
.LVL87:
@ src/libgcrypt.c:934:                 if(debug) printf("Split I: %02X %02X %02X %02X\n", Ia, Ib, Ic, Id);
	.loc 1 934 27 view .LVU931
	ldr	r0, .L117+68	@,
	mov	r2, r10	@, _455
.LBB689:
.LBB637:
@ src/libgcrypt.c:731:     *Ia = (I >> 24) & 0xFF;
	.loc 1 731 14 view .LVU932
	lsr	r9, r7, #24	@ _454, _962,
.LVL88:
	.loc 1 731 14 view .LVU933
.LBE637:
.LBE689:
@ src/libgcrypt.c:934:                 if(debug) printf("Split I: %02X %02X %02X %02X\n", Ia, Ib, Ic, Id);
	.loc 1 934 27 view .LVU934
	ubfx	fp, r7, #8, #8	@ _456, _962,,
.LVL89:
	.loc 1 933 17 is_stmt 1 view .LVU935
.LBB690:
	.loc 1 729 13 view .LVU936
.LBB638:
	.loc 1 731 5 view .LVU937
	.loc 1 732 5 view .LVU938
	.loc 1 733 5 view .LVU939
	.loc 1 734 5 view .LVU940
	.loc 1 734 5 is_stmt 0 view .LVU941
.LBE638:
.LBE690:
	.loc 1 934 17 is_stmt 1 view .LVU942
	.loc 1 934 27 view .LVU943
	uxtb	r7, r7	@ _457, _962
.LVL90:
	.loc 1 934 27 is_stmt 0 view .LVU944
.LPIC57:
	add	r0, pc, r0	@,
	mov	r3, fp	@, _456
	str	r7, [sp]	@ _457,
	mov	r1, r9	@, _454
	bl	tfp_printf(PLT)	@
.LVL91:
	.loc 1 935 17 is_stmt 1 view .LVU945
@ src/libgcrypt.c:935:                 f = sumMod2_32b(subtractMod2_32b(S1[Ia] ^ S2[Ib], S3[Ic]), S4[Id]);
	.loc 1 935 21 is_stmt 0 view .LVU946
	ldr	r3, [sp, #44]	@ tmp1569, %sfp
@ src/libgcrypt.c:937:                     printf("S-box lookups: S1[%02X]=%08X S2[%02X]=%08X S3[%02X]=%08X S4[%02X]=%08X\n",
	.loc 1 937 21 view .LVU947
	str	r7, [sp, #12]	@ _457,
@ src/libgcrypt.c:935:                 f = sumMod2_32b(subtractMod2_32b(S1[Ia] ^ S2[Ib], S3[Ic]), S4[Id]);
	.loc 1 935 21 view .LVU948
	ldr	r0, [r3, r7, lsl #2]	@ _1683, S4[_457]
	ldr	r3, [sp, #40]	@ tmp1568, %sfp
@ src/libgcrypt.c:937:                     printf("S-box lookups: S1[%02X]=%08X S2[%02X]=%08X S3[%02X]=%08X S4[%02X]=%08X\n",
	.loc 1 937 21 view .LVU949
	str	r0, [sp, #16]	@ _1683,
@ src/libgcrypt.c:935:                 f = sumMod2_32b(subtractMod2_32b(S1[Ia] ^ S2[Ib], S3[Ic]), S4[Id]);
	.loc 1 935 21 view .LVU950
	ldr	ip, [r3, fp, lsl #2]	@ _1749, S3[_456]
@ src/libgcrypt.c:935:                 f = sumMod2_32b(subtractMod2_32b(S1[Ia] ^ S2[Ib], S3[Ic]), S4[Id]);
	.loc 1 935 52 view .LVU951
	ldr	r3, [sp, #32]	@ tmp1566, %sfp
@ src/libgcrypt.c:937:                     printf("S-box lookups: S1[%02X]=%08X S2[%02X]=%08X S3[%02X]=%08X S4[%02X]=%08X\n",
	.loc 1 937 21 view .LVU952
	str	fp, [sp, #4]	@ _456,
@ src/libgcrypt.c:935:                 f = sumMod2_32b(subtractMod2_32b(S1[Ia] ^ S2[Ib], S3[Ic]), S4[Id]);
	.loc 1 935 52 view .LVU953
	ldr	r2, [r3, r9, lsl #2]	@ _226, S1[_454]
@ src/libgcrypt.c:935:                 f = sumMod2_32b(subtractMod2_32b(S1[Ia] ^ S2[Ib], S3[Ic]), S4[Id]);
	.loc 1 935 61 view .LVU954
	ldr	r3, [sp, #36]	@ tmp1567, %sfp
@ src/libgcrypt.c:937:                     printf("S-box lookups: S1[%02X]=%08X S2[%02X]=%08X S3[%02X]=%08X S4[%02X]=%08X\n",
	.loc 1 937 21 view .LVU955
	str	ip, [sp, #8]	@ _1749,
@ src/libgcrypt.c:935:                 f = sumMod2_32b(subtractMod2_32b(S1[Ia] ^ S2[Ib], S3[Ic]), S4[Id]);
	.loc 1 935 61 view .LVU956
	ldr	r1, [r3, r10, lsl #2]	@ _1684, S2[_455]
.LVL92:
.LBB691:
	.loc 1 752 17 is_stmt 1 view .LVU957
.LBB643:
	.loc 1 754 5 view .LVU958
	.loc 1 759 5 view .LVU959
	.loc 1 759 5 is_stmt 0 view .LVU960
.LBE643:
.LBE691:
.LBB692:
	.loc 1 746 17 is_stmt 1 view .LVU961
.LBB648:
	.loc 1 749 5 view .LVU962
.LBE648:
.LBE692:
@ src/libgcrypt.c:937:                     printf("S-box lookups: S1[%02X]=%08X S2[%02X]=%08X S3[%02X]=%08X S4[%02X]=%08X\n",
	.loc 1 937 21 is_stmt 0 view .LVU963
	mov	r3, r10	@, _455
@ src/libgcrypt.c:935:                 f = sumMod2_32b(subtractMod2_32b(S1[Ia] ^ S2[Ib], S3[Ic]), S4[Id]);
	.loc 1 935 21 view .LVU964
	eor	r7, r2, r1	@ tmp1496, _226, _1684
.LBB693:
.LBB644:
@ src/libgcrypt.c:759:     return (MOD_2_32_MINUS_1 + a) - b + 1;
	.loc 1 759 39 view .LVU965
	sub	r7, r7, ip	@ tmp1497, tmp1496, _1749
.LVL93:
	.loc 1 759 39 view .LVU966
.LBE644:
.LBE693:
.LBB694:
.LBB649:
@ src/libgcrypt.c:749:     return ((a) + b); // % MOD_2_32;
	.loc 1 749 17 view .LVU967
	add	r7, r7, r0	@ _205, tmp1497, _1683
.LVL94:
	.loc 1 749 17 view .LVU968
.LBE649:
.LBE694:
	.loc 1 936 17 is_stmt 1 view .LVU969
	.loc 1 937 21 view .LVU970
	ldr	r0, .L117+72	@,
	str	r1, [sp]	@ _1684,
	mov	r1, r9	@, _454
.LPIC58:
	add	r0, pc, r0	@,
	bl	tfp_printf(PLT)	@
.LVL95:
	.loc 1 939 21 view .LVU971
	ldr	r0, .L117+76	@,
	mov	r1, r7	@, _205
.LPIC59:
	add	r0, pc, r0	@,
	bl	tfp_printf(PLT)	@
.LVL96:
.L37:
	.loc 1 972 9 view .LVU972
@ src/libgcrypt.c:973:         R[i + 1] = L[i] ^ f;
	.loc 1 973 21 is_stmt 0 view .LVU973
	ldr	r9, [r5]	@ _932, MEM[base: _1797, offset: 0B]
@ src/libgcrypt.c:976:             printf("Round %2d output:\n", i);
	.loc 1 976 13 view .LVU974
	mov	r1, r8	@, _1802
@ src/libgcrypt.c:973:         R[i + 1] = L[i] ^ f;
	.loc 1 973 18 view .LVU975
	ldr	r3, [sp, #24]	@ ivtmp.154, %sfp
@ src/libgcrypt.c:973:         R[i + 1] = L[i] ^ f;
	.loc 1 973 25 view .LVU976
	eor	r10, r7, r9	@ _933, _205, _932
@ src/libgcrypt.c:976:             printf("Round %2d output:\n", i);
	.loc 1 976 13 view .LVU977
	ldr	r0, [sp, #52]	@, %sfp
@ src/libgcrypt.c:972:         L[i + 1] = R[i];
	.loc 1 972 18 view .LVU978
	str	r6, [r5, #4]	@ data$lsb, MEM[base: _1797, offset: 4B]
	.loc 1 973 9 is_stmt 1 view .LVU979
@ src/libgcrypt.c:973:         R[i + 1] = L[i] ^ f;
	.loc 1 973 18 is_stmt 0 view .LVU980
	str	r10, [r3, #4]	@ _933, MEM[base: _1804, offset: 4B]
	.loc 1 975 9 is_stmt 1 view .LVU981
	.loc 1 976 13 view .LVU982
	bl	tfp_printf(PLT)	@
.LVL97:
	.loc 1 977 13 view .LVU983
	ldr	r0, [sp, #56]	@, %sfp
	mov	r3, r6	@, data$lsb
	mov	r2, r8	@, _1802
	mov	r1, r4	@, ivtmp.148
@ src/libgcrypt.c:972:         L[i + 1] = R[i];
	.loc 1 972 13 is_stmt 0 view .LVU984
	mov	r6, r4	@ i, ivtmp.148
@ src/libgcrypt.c:977:             printf("L[%2d] = R[%2d] = %08X\n", i+1, i, L[i+1]);
	.loc 1 977 13 view .LVU985
	bl	tfp_printf(PLT)	@
.LVL98:
	.loc 1 978 13 is_stmt 1 view .LVU986
	ldr	r0, .L117+80	@,
	mov	r3, r9	@, _932
	mov	r2, r8	@, _1802
	mov	r1, r4	@, ivtmp.148
.LPIC55:
	add	r0, pc, r0	@,
	stm	sp, {r7, r10}	@,,
	bl	tfp_printf(PLT)	@
.LVL99:
	b	.L41		@
.LVL100:
.L43:
	.loc 1 944 17 view .LVU987
.LBB695:
.LBI695:
	.loc 1 762 17 view .LVU988
.LBB696:
	.loc 1 764 5 view .LVU989
	.loc 1 765 5 view .LVU990
.LBE696:
.LBE695:
@ src/libgcrypt.c:944:                 I = cyclicShift(Kmi ^ R[i], Kri);
	.loc 1 944 21 is_stmt 0 view .LVU991
	eor	r9, r9, r6	@ tmp1529, Kmi, data$lsb
.LVL101:
.LBB702:
.LBB697:
@ src/libgcrypt.c:765:     return (x << s) | (x >> (32 - s));
	.loc 1 765 21 view .LVU992
	rsb	r10, r10, #32	@ tmp1530, Kri,
.LVL102:
	.loc 1 765 21 view .LVU993
.LBE697:
.LBE702:
.LBB703:
.LBB704:
@ src/libgcrypt.c:749:     return ((a) + b); // % MOD_2_32;
	.loc 1 749 17 view .LVU994
	ldr	r2, [sp, #40]	@ tmp1568, %sfp
.LBE704:
.LBE703:
.LBB712:
.LBB698:
@ src/libgcrypt.c:765:     return (x << s) | (x >> (32 - s));
	.loc 1 765 21 view .LVU995
	ror	r9, r9, r10	@ _1820, tmp1529, tmp1530
.LVL103:
	.loc 1 765 21 view .LVU996
.LBE698:
.LBE712:
	.loc 1 945 17 is_stmt 1 view .LVU997
	.loc 1 947 17 view .LVU998
.LBB713:
.LBI713:
	.loc 1 729 13 view .LVU999
.LBB714:
	.loc 1 731 5 view .LVU1000
	.loc 1 732 5 view .LVU1001
	.loc 1 733 5 view .LVU1002
	.loc 1 734 5 view .LVU1003
	.loc 1 734 5 is_stmt 0 view .LVU1004
.LBE714:
.LBE713:
	.loc 1 948 17 is_stmt 1 view .LVU1005
	.loc 1 949 17 view .LVU1006
	.loc 1 949 17 is_stmt 0 view .LVU1007
.LBE737:
.LBE617:
	.loc 1 754 5 is_stmt 1 view .LVU1008
	.loc 1 759 5 view .LVU1009
.LBB740:
.LBB738:
.LBB718:
.LBI703:
	.loc 1 746 17 view .LVU1010
.LBB705:
	.loc 1 749 5 view .LVU1011
	.loc 1 749 5 is_stmt 0 view .LVU1012
.LBE705:
.LBE718:
@ src/libgcrypt.c:948:                 if(debug) printf("Split I: %02X %02X %02X %02X\n", Ia, Ib, Ic, Id);
	.loc 1 948 27 view .LVU1013
	ubfx	r3, r9, #8, #8	@ tmp1533, _1820,,
.LBB719:
.LBB706:
@ src/libgcrypt.c:749:     return ((a) + b); // % MOD_2_32;
	.loc 1 749 17 view .LVU1014
	ldr	r1, [sp, #32]	@ tmp1566, %sfp
	ldr	r3, [r2, r3, lsl #2]	@ S3[_1939], S3[_1939]
.LBE706:
.LBE719:
.LBB720:
.LBB715:
@ src/libgcrypt.c:731:     *Ia = (I >> 24) & 0xFF;
	.loc 1 731 14 view .LVU1015
	lsr	r2, r9, #24	@ tmp1535, _1820,
.LBE715:
.LBE720:
.LBB721:
.LBB707:
@ src/libgcrypt.c:749:     return ((a) + b); // % MOD_2_32;
	.loc 1 749 17 view .LVU1016
	ldr	r2, [r1, r2, lsl #2]	@ S1[_1933], S1[_1933]
	ldr	r1, [sp, #36]	@ tmp1567, %sfp
	add	r3, r3, r2	@ tmp1536, S3[_1939], S1[_1933]
.LBE707:
.LBE721:
@ src/libgcrypt.c:948:                 if(debug) printf("Split I: %02X %02X %02X %02X\n", Ia, Ib, Ic, Id);
	.loc 1 948 27 view .LVU1017
	ubfx	r2, r9, #16, #8	@ tmp1541, _1820,,
	uxtb	r9, r9	@ _1820, _1820
.LVL104:
.LBB722:
.LBB708:
@ src/libgcrypt.c:749:     return ((a) + b); // % MOD_2_32;
	.loc 1 749 17 view .LVU1018
	ldr	r2, [r1, r2, lsl #2]	@ S2[_1936], S2[_1936]
	sub	r3, r3, r2	@ tmp1542, tmp1536, S2[_1936]
.LBE708:
.LBE722:
@ src/libgcrypt.c:949:                 f = sumMod2_32b(subtractMod2_32b(S1[Ia], S2[Ib]), S3[Ic]) ^ S4[Id];
	.loc 1 949 19 view .LVU1019
	ldr	r2, [sp, #44]	@ tmp1569, %sfp
	ldr	r2, [r2, r9, lsl #2]	@ S4[_1942], S4[_1942]
	eor	r3, r3, r2	@ f, tmp1542, S4[_1942]
.LVL105:
	.loc 1 950 17 is_stmt 1 view .LVU1020
	b	.L42		@
.LVL106:
.L32:
	.loc 1 944 17 view .LVU1021
.LBB723:
	.loc 1 762 17 view .LVU1022
.LBB699:
	.loc 1 764 5 view .LVU1023
	.loc 1 765 5 view .LVU1024
.LBE699:
.LBE723:
@ src/libgcrypt.c:944:                 I = cyclicShift(Kmi ^ R[i], Kri);
	.loc 1 944 21 is_stmt 0 view .LVU1025
	eor	r7, r9, r6	@ tmp1547, Kmi, data$lsb
.LVL107:
.LBB724:
.LBB700:
@ src/libgcrypt.c:765:     return (x << s) | (x >> (32 - s));
	.loc 1 765 21 view .LVU1026
	rsb	r3, r10, #32	@ tmp1548, Kri,
.LBE700:
.LBE724:
@ src/libgcrypt.c:945:                 if(debug) printf("Case 1: I = cyclicShift(%08X ^ %08X, %d) = %08X\n", 
	.loc 1 945 27 view .LVU1027
	ldr	r0, .L117+84	@,
	mov	r1, r9	@, Kmi
.LBB725:
.LBB701:
@ src/libgcrypt.c:765:     return (x << s) | (x >> (32 - s));
	.loc 1 765 21 view .LVU1028
	ror	r7, r7, r3	@ _1772, tmp1547, tmp1548
.LVL108:
	.loc 1 765 21 view .LVU1029
.LBE701:
.LBE725:
	.loc 1 945 17 is_stmt 1 view .LVU1030
	.loc 1 945 27 view .LVU1031
	mov	r2, r6	@, data$lsb
	str	r7, [sp]	@ _1772,
	mov	r3, r10	@, Kri
.LPIC60:
	add	r0, pc, r0	@,
@ src/libgcrypt.c:948:                 if(debug) printf("Split I: %02X %02X %02X %02X\n", Ia, Ib, Ic, Id);
	.loc 1 948 27 is_stmt 0 view .LVU1032
	ubfx	r10, r7, #16, #8	@ _470, _1772,,
.LVL109:
@ src/libgcrypt.c:945:                 if(debug) printf("Case 1: I = cyclicShift(%08X ^ %08X, %d) = %08X\n", 
	.loc 1 945 27 view .LVU1033
	bl	tfp_printf(PLT)	@
.LVL110:
@ src/libgcrypt.c:948:                 if(debug) printf("Split I: %02X %02X %02X %02X\n", Ia, Ib, Ic, Id);
	.loc 1 948 27 view .LVU1034
	ldr	r0, .L117+88	@,
	mov	r2, r10	@, _470
.LBB726:
.LBB716:
@ src/libgcrypt.c:731:     *Ia = (I >> 24) & 0xFF;
	.loc 1 731 14 view .LVU1035
	lsr	r9, r7, #24	@ _469, _1772,
.LVL111:
	.loc 1 731 14 view .LVU1036
.LBE716:
.LBE726:
@ src/libgcrypt.c:948:                 if(debug) printf("Split I: %02X %02X %02X %02X\n", Ia, Ib, Ic, Id);
	.loc 1 948 27 view .LVU1037
	ubfx	fp, r7, #8, #8	@ _471, _1772,,
.LVL112:
	.loc 1 947 17 is_stmt 1 view .LVU1038
.LBB727:
	.loc 1 729 13 view .LVU1039
.LBB717:
	.loc 1 731 5 view .LVU1040
	.loc 1 732 5 view .LVU1041
	.loc 1 733 5 view .LVU1042
	.loc 1 734 5 view .LVU1043
	.loc 1 734 5 is_stmt 0 view .LVU1044
.LBE717:
.LBE727:
	.loc 1 948 17 is_stmt 1 view .LVU1045
	.loc 1 948 27 view .LVU1046
	uxtb	r7, r7	@ _472, _1772
.LVL113:
	.loc 1 948 27 is_stmt 0 view .LVU1047
	str	r7, [sp]	@ _472,
	mov	r3, fp	@, _471
.LPIC61:
	add	r0, pc, r0	@,
	mov	r1, r9	@, _469
	bl	tfp_printf(PLT)	@
.LVL114:
	.loc 1 949 17 is_stmt 1 view .LVU1048
@ src/libgcrypt.c:949:                 f = sumMod2_32b(subtractMod2_32b(S1[Ia], S2[Ib]), S3[Ic]) ^ S4[Id];
	.loc 1 949 79 is_stmt 0 view .LVU1049
	ldr	r3, [sp, #44]	@ tmp1569, %sfp
@ src/libgcrypt.c:949:                 f = sumMod2_32b(subtractMod2_32b(S1[Ia], S2[Ib]), S3[Ic]) ^ S4[Id];
	.loc 1 949 21 view .LVU1050
	ldr	r2, [sp, #32]	@ tmp1566, %sfp
@ src/libgcrypt.c:949:                 f = sumMod2_32b(subtractMod2_32b(S1[Ia], S2[Ib]), S3[Ic]) ^ S4[Id];
	.loc 1 949 79 view .LVU1051
	ldr	r1, [r3, r7, lsl #2]	@ _1720, S4[_472]
@ src/libgcrypt.c:949:                 f = sumMod2_32b(subtractMod2_32b(S1[Ia], S2[Ib]), S3[Ic]) ^ S4[Id];
	.loc 1 949 21 view .LVU1052
	ldr	r3, [sp, #40]	@ tmp1568, %sfp
	ldr	r2, [r2, r9, lsl #2]	@ _805, S1[_469]
	ldr	r3, [r3, fp, lsl #2]	@ _1034, S3[_471]
@ src/libgcrypt.c:951:                     printf("S-box lookups: S1[%02X]=%08X S2[%02X]=%08X S3[%02X]=%08X S4[%02X]=%08X\n",
	.loc 1 951 21 view .LVU1053
	str	r7, [sp, #12]	@ _472,
	str	r3, [sp, #8]	@ _1034,
.LBB728:
.LBB709:
@ src/libgcrypt.c:749:     return ((a) + b); // % MOD_2_32;
	.loc 1 749 17 view .LVU1054
	add	r7, r2, r3	@ tmp1559, _805, _1034
.LBE709:
.LBE728:
@ src/libgcrypt.c:949:                 f = sumMod2_32b(subtractMod2_32b(S1[Ia], S2[Ib]), S3[Ic]) ^ S4[Id];
	.loc 1 949 21 view .LVU1055
	ldr	r3, [sp, #36]	@ tmp1567, %sfp
@ src/libgcrypt.c:951:                     printf("S-box lookups: S1[%02X]=%08X S2[%02X]=%08X S3[%02X]=%08X S4[%02X]=%08X\n",
	.loc 1 951 21 view .LVU1056
	str	r1, [sp, #16]	@ _1720,
@ src/libgcrypt.c:949:                 f = sumMod2_32b(subtractMod2_32b(S1[Ia], S2[Ib]), S3[Ic]) ^ S4[Id];
	.loc 1 949 21 view .LVU1057
	ldr	r0, [r3, r10, lsl #2]	@ _1011, S2[_470]
.LVL115:
	.loc 1 949 21 view .LVU1058
.LBE738:
.LBE740:
	.loc 1 754 5 is_stmt 1 view .LVU1059
	.loc 1 759 5 view .LVU1060
.LBB741:
.LBB739:
.LBB729:
	.loc 1 746 17 view .LVU1061
.LBB710:
	.loc 1 749 5 view .LVU1062
	.loc 1 749 5 is_stmt 0 view .LVU1063
.LBE710:
.LBE729:
@ src/libgcrypt.c:951:                     printf("S-box lookups: S1[%02X]=%08X S2[%02X]=%08X S3[%02X]=%08X S4[%02X]=%08X\n",
	.loc 1 951 21 view .LVU1064
	mov	r3, r10	@, _470
	str	fp, [sp, #4]	@ _471,
	str	r0, [sp]	@ _1011,
.LBB730:
.LBB711:
@ src/libgcrypt.c:749:     return ((a) + b); // % MOD_2_32;
	.loc 1 749 17 view .LVU1065
	sub	r7, r7, r0	@ tmp1560, tmp1559, _1011
.LBE711:
.LBE730:
@ src/libgcrypt.c:951:                     printf("S-box lookups: S1[%02X]=%08X S2[%02X]=%08X S3[%02X]=%08X S4[%02X]=%08X\n",
	.loc 1 951 21 view .LVU1066
	ldr	r0, .L117+92	@,
@ src/libgcrypt.c:949:                 f = sumMod2_32b(subtractMod2_32b(S1[Ia], S2[Ib]), S3[Ic]) ^ S4[Id];
	.loc 1 949 19 view .LVU1067
	eor	r7, r7, r1	@ _205, tmp1560, _1720
.LVL116:
	.loc 1 950 17 is_stmt 1 view .LVU1068
	.loc 1 951 21 view .LVU1069
	mov	r1, r9	@, _469
.LPIC62:
	add	r0, pc, r0	@,
	bl	tfp_printf(PLT)	@
.LVL117:
	.loc 1 953 21 view .LVU1070
	ldr	r0, .L117+96	@,
	mov	r1, r7	@, _205
.LPIC63:
	add	r0, pc, r0	@,
	bl	tfp_printf(PLT)	@
.LVL118:
	b	.L37		@
.LVL119:
.L111:
	.loc 1 959 27 discriminator 1 view .LVU1071
	ldr	r0, .L117+100	@,
	mov	r3, r10	@, Kri
	str	r7, [sp]	@ _808,
	mov	r1, r9	@, Kmi
.LPIC47:
	add	r0, pc, r0	@,
	mov	r2, r6	@, data$lsb
@ src/libgcrypt.c:962:                 if(debug) printf("Split I: %02X %02X %02X %02X\n", Ia, Ib, Ic, Id);
	.loc 1 962 27 is_stmt 0 discriminator 1 view .LVU1072
	ubfx	r10, r7, #16, #8	@ _485, _808,,
.LVL120:
@ src/libgcrypt.c:959:                 if(debug) printf("Case 2: I = cyclicShift(subtractMod2_32b(%08X, %08X), %d) = %08X\n", 
	.loc 1 959 27 discriminator 1 view .LVU1073
	bl	tfp_printf(PLT)	@
.LVL121:
	.loc 1 961 17 is_stmt 1 discriminator 1 view .LVU1074
.LBB731:
	.loc 1 729 13 discriminator 1 view .LVU1075
.LBB665:
	.loc 1 731 5 discriminator 1 view .LVU1076
	.loc 1 732 5 discriminator 1 view .LVU1077
	.loc 1 733 5 discriminator 1 view .LVU1078
	.loc 1 734 5 discriminator 1 view .LVU1079
	.loc 1 734 5 is_stmt 0 discriminator 1 view .LVU1080
.LBE665:
.LBE731:
	.loc 1 962 17 is_stmt 1 discriminator 1 view .LVU1081
	.loc 1 962 27 discriminator 1 view .LVU1082
	ldr	r0, .L117+104	@,
	mov	r2, r10	@, _485
.LBB732:
.LBB666:
@ src/libgcrypt.c:731:     *Ia = (I >> 24) & 0xFF;
	.loc 1 731 14 is_stmt 0 discriminator 1 view .LVU1083
	lsr	r9, r7, #24	@ _483, _808,
.LVL122:
	.loc 1 731 14 discriminator 1 view .LVU1084
.LBE666:
.LBE732:
@ src/libgcrypt.c:962:                 if(debug) printf("Split I: %02X %02X %02X %02X\n", Ia, Ib, Ic, Id);
	.loc 1 962 27 discriminator 1 view .LVU1085
	ubfx	fp, r7, #8, #8	@ _487, _808,,
.LVL123:
	.loc 1 962 27 discriminator 1 view .LVU1086
	uxtb	r7, r7	@ _489, _808
.LVL124:
	.loc 1 962 27 discriminator 1 view .LVU1087
	str	r7, [sp]	@ _489,
	mov	r3, fp	@, _487
.LPIC48:
	add	r0, pc, r0	@,
	mov	r1, r9	@, _483
	bl	tfp_printf(PLT)	@
.LVL125:
	.loc 1 963 17 is_stmt 1 discriminator 1 view .LVU1088
@ src/libgcrypt.c:963:                 f = subtractMod2_32b(sumMod2_32b(S1[Ia], S2[Ib]) ^ S3[Ic], S4[Id]);
	.loc 1 963 21 is_stmt 0 discriminator 1 view .LVU1089
	ldr	r3, [sp, #44]	@ tmp1569, %sfp
@ src/libgcrypt.c:965:                     printf("S-box lookups: S1[%02X]=%08X S2[%02X]=%08X S3[%02X]=%08X S4[%02X]=%08X\n",
	.loc 1 965 21 discriminator 1 view .LVU1090
	str	r7, [sp, #12]	@ _489,
@ src/libgcrypt.c:963:                 f = subtractMod2_32b(sumMod2_32b(S1[Ia], S2[Ib]) ^ S3[Ic], S4[Id]);
	.loc 1 963 21 discriminator 1 view .LVU1091
	ldr	r0, [r3, r7, lsl #2]	@ _197, S4[_489]
@ src/libgcrypt.c:963:                 f = subtractMod2_32b(sumMod2_32b(S1[Ia], S2[Ib]) ^ S3[Ic], S4[Id]);
	.loc 1 963 70 discriminator 1 view .LVU1092
	ldr	r3, [sp, #40]	@ tmp1568, %sfp
@ src/libgcrypt.c:965:                     printf("S-box lookups: S1[%02X]=%08X S2[%02X]=%08X S3[%02X]=%08X S4[%02X]=%08X\n",
	.loc 1 965 21 discriminator 1 view .LVU1093
	str	r0, [sp, #16]	@ _197,
@ src/libgcrypt.c:963:                 f = subtractMod2_32b(sumMod2_32b(S1[Ia], S2[Ib]) ^ S3[Ic], S4[Id]);
	.loc 1 963 70 discriminator 1 view .LVU1094
	ldr	ip, [r3, fp, lsl #2]	@ _191, S3[_487]
@ src/libgcrypt.c:963:                 f = subtractMod2_32b(sumMod2_32b(S1[Ia], S2[Ib]) ^ S3[Ic], S4[Id]);
	.loc 1 963 38 discriminator 1 view .LVU1095
	ldr	r3, [sp, #32]	@ tmp1566, %sfp
@ src/libgcrypt.c:965:                     printf("S-box lookups: S1[%02X]=%08X S2[%02X]=%08X S3[%02X]=%08X S4[%02X]=%08X\n",
	.loc 1 965 21 discriminator 1 view .LVU1096
	str	fp, [sp, #4]	@ _487,
@ src/libgcrypt.c:963:                 f = subtractMod2_32b(sumMod2_32b(S1[Ia], S2[Ib]) ^ S3[Ic], S4[Id]);
	.loc 1 963 38 discriminator 1 view .LVU1097
	ldr	r2, [r3, r9, lsl #2]	@ _1807, S1[_483]
	ldr	r3, [sp, #36]	@ tmp1567, %sfp
@ src/libgcrypt.c:965:                     printf("S-box lookups: S1[%02X]=%08X S2[%02X]=%08X S3[%02X]=%08X S4[%02X]=%08X\n",
	.loc 1 965 21 discriminator 1 view .LVU1098
	str	ip, [sp, #8]	@ _191,
@ src/libgcrypt.c:963:                 f = subtractMod2_32b(sumMod2_32b(S1[Ia], S2[Ib]) ^ S3[Ic], S4[Id]);
	.loc 1 963 38 discriminator 1 view .LVU1099
	ldr	r1, [r3, r10, lsl #2]	@ _176, S2[_485]
.LVL126:
.LBB733:
	.loc 1 746 17 is_stmt 1 discriminator 1 view .LVU1100
.LBB672:
	.loc 1 749 5 discriminator 1 view .LVU1101
	.loc 1 749 5 is_stmt 0 discriminator 1 view .LVU1102
.LBE672:
.LBE733:
.LBB734:
	.loc 1 752 17 is_stmt 1 discriminator 1 view .LVU1103
.LBB677:
	.loc 1 754 5 discriminator 1 view .LVU1104
	.loc 1 759 5 discriminator 1 view .LVU1105
.LBE677:
.LBE734:
@ src/libgcrypt.c:965:                     printf("S-box lookups: S1[%02X]=%08X S2[%02X]=%08X S3[%02X]=%08X S4[%02X]=%08X\n",
	.loc 1 965 21 is_stmt 0 discriminator 1 view .LVU1106
	mov	r3, r10	@, _485
.LBB735:
.LBB673:
@ src/libgcrypt.c:749:     return ((a) + b); // % MOD_2_32;
	.loc 1 749 17 discriminator 1 view .LVU1107
	add	r7, r1, r2	@ tmp1448, _176, _1807
.LBE673:
.LBE735:
@ src/libgcrypt.c:963:                 f = subtractMod2_32b(sumMod2_32b(S1[Ia], S2[Ib]) ^ S3[Ic], S4[Id]);
	.loc 1 963 21 discriminator 1 view .LVU1108
	eor	r7, r7, ip	@ tmp1449, tmp1448, _191
.LVL127:
.LBB736:
.LBB678:
@ src/libgcrypt.c:759:     return (MOD_2_32_MINUS_1 + a) - b + 1;
	.loc 1 759 39 discriminator 1 view .LVU1109
	sub	r7, r7, r0	@ _205, tmp1449, _197
.LVL128:
	.loc 1 759 39 discriminator 1 view .LVU1110
.LBE678:
.LBE736:
	.loc 1 964 17 is_stmt 1 discriminator 1 view .LVU1111
	.loc 1 965 21 discriminator 1 view .LVU1112
	ldr	r0, .L117+108	@,
	str	r1, [sp]	@ _176,
	mov	r1, r9	@, _483
.LPIC49:
	add	r0, pc, r0	@,
	bl	tfp_printf(PLT)	@
.LVL129:
	.loc 1 967 21 discriminator 1 view .LVU1113
	ldr	r0, .L117+112	@,
	mov	r1, r7	@, _205
.LPIC50:
	add	r0, pc, r0	@,
	bl	tfp_printf(PLT)	@
.LVL130:
	b	.L37		@
.LVL131:
.L47:
	.loc 1 967 21 is_stmt 0 discriminator 1 view .LVU1114
.LBE739:
.LBE741:
.LBB742:
	mov	r3, #1	@ i,
	str	r3, [sp, #56]	@ i, %sfp
.LVL132:
	.loc 1 786 9 is_stmt 1 view .LVU1115
@ src/libgcrypt.c:786:         if(debug) printf("\n-- Key Schedule Round %d --\n", i);
	.loc 1 786 11 is_stmt 0 view .LVU1116
	ldr	r3, [sp, #508]	@ tmp1732, debug
.LVL133:
	.loc 1 786 11 view .LVU1117
	cmp	r3, #0	@ tmp1732,
	beq	.L4		@,
.L99:
	.loc 1 786 19 is_stmt 1 discriminator 1 view .LVU1118
	ldr	r1, [sp, #56]	@, %sfp
	ldr	r0, [sp, #124]	@, %sfp
.LBB516:
@ src/libgcrypt.c:791:             for(int j = 0; j < 4; j++) printf("%08X ", x[j]);
	.loc 1 791 40 is_stmt 0 discriminator 1 view .LVU1119
	ldr	r4, .L117+116	@ tmp844,
.LBE516:
@ src/libgcrypt.c:786:         if(debug) printf("\n-- Key Schedule Round %d --\n", i);
	.loc 1 786 19 discriminator 1 view .LVU1120
	bl	tfp_printf(PLT)	@
.LVL134:
	.loc 1 789 9 is_stmt 1 discriminator 1 view .LVU1121
	.loc 1 790 13 discriminator 1 view .LVU1122
	ldr	r0, .L117+120	@,
	ldr	r5, [sp, #116]	@ ivtmp.294, %sfp
.LPIC6:
	add	r0, pc, r0	@,
.LBB517:
@ src/libgcrypt.c:791:             for(int j = 0; j < 4; j++) printf("%08X ", x[j]);
	.loc 1 791 40 is_stmt 0 discriminator 1 view .LVU1123
.LPIC7:
	add	r4, pc, r4	@ tmp844, tmp844
.LBE517:
@ src/libgcrypt.c:790:             printf("Pre-transform x: ");
	.loc 1 790 13 discriminator 1 view .LVU1124
	bl	tfp_printf(PLT)	@
.LVL135:
	.loc 1 791 13 is_stmt 1 discriminator 1 view .LVU1125
.LBB518:
	.loc 1 791 17 discriminator 1 view .LVU1126
	.loc 1 791 28 discriminator 1 view .LVU1127
.LBE518:
@ src/libgcrypt.c:790:             printf("Pre-transform x: ");
	.loc 1 790 13 is_stmt 0 discriminator 1 view .LVU1128
	ldr	r6, [sp, #120]	@ _1778, %sfp
.LVL136:
.L5:
.LBB519:
	.loc 1 791 40 is_stmt 1 discriminator 3 view .LVU1129
	ldr	r1, [r5], #4	@, MEM[base: _1700, offset: 0B]
	mov	r0, r4	@, tmp844
	bl	tfp_printf(PLT)	@
.LVL137:
	.loc 1 791 35 discriminator 3 view .LVU1130
	.loc 1 791 28 discriminator 3 view .LVU1131
@ src/libgcrypt.c:791:             for(int j = 0; j < 4; j++) printf("%08X ", x[j]);
	.loc 1 791 13 is_stmt 0 discriminator 3 view .LVU1132
	cmp	r6, r5	@ _1778, ivtmp.294
	bne	.L5		@,
.LBE519:
	.loc 1 792 13 is_stmt 1 view .LVU1133
	ldr	r0, .L117+124	@,
.LBB520:
@ src/libgcrypt.c:795:             for(int j = 0x8; j <= 0xF; j++) printf("%02X ", g(x, j));
	.loc 1 795 45 is_stmt 0 view .LVU1134
	ldr	r4, .L117+128	@ tmp856,
.LBE520:
@ src/libgcrypt.c:792:             printf("\n");
	.loc 1 792 13 view .LVU1135
.LPIC8:
	add	r0, pc, r0	@,
.LBB527:
@ src/libgcrypt.c:795:             for(int j = 0x8; j <= 0xF; j++) printf("%02X ", g(x, j));
	.loc 1 795 45 view .LVU1136
.LPIC12:
	add	r4, pc, r4	@ tmp856, tmp856
.LBE527:
@ src/libgcrypt.c:792:             printf("\n");
	.loc 1 792 13 view .LVU1137
	bl	tfp_printf(PLT)	@
.LVL138:
	.loc 1 794 13 is_stmt 1 view .LVU1138
	ldr	r0, .L117+132	@,
.LPIC9:
	add	r0, pc, r0	@,
	bl	tfp_printf(PLT)	@
.LVL139:
	.loc 1 795 13 view .LVU1139
.LBB528:
	.loc 1 795 17 view .LVU1140
	.loc 1 795 30 view .LVU1141
	ldr	r3, [sp, #128]	@ tmp1583, %sfp
.LBE528:
@ src/libgcrypt.c:794:             printf("g(x) values: ");
	.loc 1 794 13 is_stmt 0 view .LVU1142
	ldr	r6, [sp, #132]	@ _1705, %sfp
	add	r5, r3, #8	@ ivtmp.285, tmp1583,
	mov	r3, #11	@ pretmp_1853,
	b	.L7		@
.LVL140:
.L112:
.LBB529:
.LBB521:
.LBB522:
@ src/libgcrypt.c:726:     return ((uint8_t *)key)[K_MAP[i]];
	.loc 1 726 34 view .LVU1143
	ldrb	r3, [r5, #1]!	@ zero_extendqisi2	@ pretmp_1853, MEM[base: _1704, offset: 0B]
.LVL141:
.L7:
	.loc 1 726 34 view .LVU1144
.LBE522:
.LBE521:
	.loc 1 795 45 is_stmt 1 discriminator 3 view .LVU1145
.LBB525:
.LBI521:
	.loc 1 724 16 discriminator 3 view .LVU1146
.LBB523:
	.loc 1 726 5 discriminator 3 view .LVU1147
@ src/libgcrypt.c:726:     return ((uint8_t *)key)[K_MAP[i]];
	.loc 1 726 28 is_stmt 0 discriminator 3 view .LVU1148
	add	r3, r3, #464	@ tmp2149, pretmp_1853,
.LBE523:
.LBE525:
@ src/libgcrypt.c:795:             for(int j = 0x8; j <= 0xF; j++) printf("%02X ", g(x, j));
	.loc 1 795 45 discriminator 3 view .LVU1149
	mov	r0, r4	@, tmp856
.LBB526:
.LBB524:
@ src/libgcrypt.c:726:     return ((uint8_t *)key)[K_MAP[i]];
	.loc 1 726 28 discriminator 3 view .LVU1150
	add	r3, sp, r3	@ tmp853,, tmp2149
.LBE524:
.LBE526:
@ src/libgcrypt.c:795:             for(int j = 0x8; j <= 0xF; j++) printf("%02X ", g(x, j));
	.loc 1 795 45 discriminator 3 view .LVU1151
	ldrb	r1, [r3, #-296]	@ zero_extendqisi2	@, *_603
	bl	tfp_printf(PLT)	@
.LVL142:
	.loc 1 795 40 is_stmt 1 discriminator 3 view .LVU1152
	.loc 1 795 30 discriminator 3 view .LVU1153
@ src/libgcrypt.c:795:             for(int j = 0x8; j <= 0xF; j++) printf("%02X ", g(x, j));
	.loc 1 795 13 is_stmt 0 discriminator 3 view .LVU1154
	cmp	r6, r5	@ _1705, ivtmp.285
	bne	.L112		@,
.LBE529:
	.loc 1 796 13 is_stmt 1 view .LVU1155
	ldr	r0, .L117+136	@,
.LPIC13:
	add	r0, pc, r0	@,
	bl	tfp_printf(PLT)	@
.LVL143:
	b	.L4		@
.LVL144:
.L38:
	.loc 1 796 13 is_stmt 0 view .LVU1156
.LBE742:
	.loc 1 983 5 is_stmt 1 view .LVU1157
@ src/libgcrypt.c:986:     if(debug) {
	.loc 1 986 7 is_stmt 0 view .LVU1158
	ldr	r3, [sp, #508]	@ tmp1978, debug
@ src/libgcrypt.c:983:     data.msb = R[ROUND_COUNT];
	.loc 1 983 17 view .LVU1159
	ldr	r5, [sp, #332]	@ _509, R[16]
.LVL145:
	.loc 1 984 5 is_stmt 1 view .LVU1160
@ src/libgcrypt.c:984:     data.lsb = L[ROUND_COUNT];
	.loc 1 984 17 is_stmt 0 view .LVU1161
	ldr	r4, [sp, #264]	@ _510, L[16]
.LVL146:
	.loc 1 986 5 is_stmt 1 view .LVU1162
@ src/libgcrypt.c:986:     if(debug) {
	.loc 1 986 7 is_stmt 0 view .LVU1163
	cmp	r3, #0	@ tmp1978,
	bne	.L113		@,
.L40:
	.loc 1 991 5 is_stmt 1 view .LVU1164
@ src/libgcrypt.c:991:     return data;
	.loc 1 991 12 is_stmt 0 view .LVU1165
	ldr	r3, [sp, #96]	@ .result_ptr, %sfp
	str	r5, [r3]	@ _509, <retval>.msb
@ src/libgcrypt.c:992: }
	.loc 1 992 1 view .LVU1166
	mov	r0, r3	@, .result_ptr
@ src/libgcrypt.c:991:     return data;
	.loc 1 991 12 view .LVU1167
	str	r4, [r3, #4]	@ _510, <retval>.lsb
@ src/libgcrypt.c:992: }
	.loc 1 992 1 view .LVU1168
	add	sp, sp, #468	@,,
	.cfi_remember_state
	.cfi_def_cfa_offset 36
	@ sp needed	@
	pop	{r4, r5, r6, r7, r8, r9, r10, fp, pc}	@
.LVL147:
.L113:
	.cfi_restore_state
	.loc 1 987 9 is_stmt 1 view .LVU1169
	ldr	r0, .L117+140	@,
.LPIC51:
	add	r0, pc, r0	@,
	bl	tfp_printf(PLT)	@
.LVL148:
	.loc 1 988 9 view .LVU1170
	ldr	r0, .L117+144	@,
	mov	r2, r4	@, _510
	mov	r1, r5	@, _509
.LPIC52:
	add	r0, pc, r0	@,
	bl	tfp_printf(PLT)	@
.LVL149:
	b	.L40		@
.L118:
	.align	2
.L117:
	.word	_GLOBAL_OFFSET_TABLE_-(.LPIC14+8)
	.word	.LANCHOR0-(.LPIC10+8)
	.word	.LC5-(.LPIC5+8)
	.word	S5(GOT)
	.word	S6(GOT)
	.word	S7(GOT)
	.word	S8(GOT)
	.word	S1(GOT)
	.word	S2(GOT)
	.word	S3(GOT)
	.word	S4(GOT)
	.word	.LC27-(.LPIC53+8)
	.word	.LC28-(.LPIC54+8)
	.word	.LC18-(.LPIC44+8)
	.word	.LC19-(.LPIC45+8)
	.word	.LC20-(.LPIC46+8)
	.word	.LC30-(.LPIC56+8)
	.word	.LC22-(.LPIC57+8)
	.word	.LC23-(.LPIC58+8)
	.word	.LC24-(.LPIC59+8)
	.word	.LC29-(.LPIC55+8)
	.word	.LC31-(.LPIC60+8)
	.word	.LC22-(.LPIC61+8)
	.word	.LC23-(.LPIC62+8)
	.word	.LC24-(.LPIC63+8)
	.word	.LC21-(.LPIC47+8)
	.word	.LC22-(.LPIC48+8)
	.word	.LC23-(.LPIC49+8)
	.word	.LC24-(.LPIC50+8)
	.word	.LC7-(.LPIC7+8)
	.word	.LC6-(.LPIC6+8)
	.word	.LC8-(.LPIC8+8)
	.word	.LC10-(.LPIC12+8)
	.word	.LC9-(.LPIC9+8)
	.word	.LC8-(.LPIC13+8)
	.word	.LC25-(.LPIC51+8)
	.word	.LC26-(.LPIC52+8)
	.word	.LC17-(.LPIC43+8)
	.word	.LC0-(.LPIC0+8)
	.word	.LC2-(.LPIC2+8)
	.word	.LC1-(.LPIC1+8)
	.word	.LC3-(.LPIC3+8)
	.word	.LC4-(.LPIC4+8)
	.word	.LC12-(.LPIC40+8)
	.word	.LC7-(.LPIC41+8)
	.word	.LC8-(.LPIC42+8)
	.word	.LC11-(.LPIC15+8)
	.word	.LC7-(.LPIC16+8)
	.word	.LC8-(.LPIC17+8)
	.word	.LC14-(.LPIC25+8)
	.word	.LC7-(.LPIC26+8)
	.word	.LC8-(.LPIC27+8)
	.word	.LC12-(.LPIC18+8)
	.word	.LC7-(.LPIC19+8)
	.word	.LC8-(.LPIC20+8)
	.word	.LANCHOR0-(.LPIC22+8)
	.word	.LC13-(.LPIC21+8)
	.word	.LC10-(.LPIC23+8)
	.word	.LC8-(.LPIC24+8)
	.word	.LC16-(.LPIC37+8)
	.word	.LC7-(.LPIC38+8)
	.word	.LC8-(.LPIC39+8)
	.word	.LC12-(.LPIC34+8)
	.word	.LC7-(.LPIC35+8)
	.word	.LC8-(.LPIC36+8)
	.word	.LC15-(.LPIC31+8)
	.word	.LC7-(.LPIC32+8)
	.word	.LC8-(.LPIC33+8)
	.word	.LC12-(.LPIC28+8)
	.word	.LC7-(.LPIC29+8)
	.word	.LC8-(.LPIC30+8)
.LVL150:
.L108:
	.loc 1 910 15 discriminator 1 view .LVU1171
	ldr	r0, .L117+148	@,
.LPIC43:
	add	r0, pc, r0	@,
	bl	tfp_printf(PLT)	@
.LVL151:
	b	.L29		@
.LVL152:
.L98:
	.loc 1 774 9 view .LVU1172
	ldr	r0, .L117+152	@,
	sub	r6, r4, #4	@ ivtmp.323, key,
.LBB743:
@ src/libgcrypt.c:777:             printf("%08X", key[i]);
	.loc 1 777 13 is_stmt 0 view .LVU1173
	ldr	r5, .L117+156	@ tmp830,
	add	r4, r4, #12	@ _1649, key,
.LVL153:
	.loc 1 777 13 view .LVU1174
.LBE743:
@ src/libgcrypt.c:774:         printf("\n=== Starting run() ===\n");
	.loc 1 774 9 view .LVU1175
.LPIC0:
	add	r0, pc, r0	@,
.LBB744:
@ src/libgcrypt.c:777:             printf("%08X", key[i]);
	.loc 1 777 13 view .LVU1176
.LPIC2:
	add	r5, pc, r5	@ tmp830, tmp830
.LBE744:
@ src/libgcrypt.c:774:         printf("\n=== Starting run() ===\n");
	.loc 1 774 9 view .LVU1177
	bl	tfp_printf(PLT)	@
.LVL154:
	.loc 1 775 9 is_stmt 1 view .LVU1178
	ldr	r0, .L117+160	@,
.LPIC1:
	add	r0, pc, r0	@,
	bl	tfp_printf(PLT)	@
.LVL155:
	.loc 1 776 9 view .LVU1179
.LBB745:
	.loc 1 776 14 view .LVU1180
	.loc 1 776 25 view .LVU1181
.L3:
	.loc 1 777 13 discriminator 3 view .LVU1182
	ldr	r1, [r6, #4]!	@, MEM[base: _1651, offset: 0B]
	mov	r0, r5	@, tmp830
	bl	tfp_printf(PLT)	@
.LVL156:
	.loc 1 776 32 discriminator 3 view .LVU1183
	.loc 1 776 25 discriminator 3 view .LVU1184
@ src/libgcrypt.c:776:         for (int i = 0; i < 4; i++) {
	.loc 1 776 9 is_stmt 0 discriminator 3 view .LVU1185
	cmp	r4, r6	@ _1649, ivtmp.323
	bne	.L3		@,
.LBE745:
	.loc 1 779 9 is_stmt 1 view .LVU1186
	ldr	r0, .L117+164	@,
	ldr	r1, [sp, #108]	@, %sfp
.LPIC3:
	add	r0, pc, r0	@,
	ldr	r2, [sp, #112]	@, %sfp
	bl	tfp_printf(PLT)	@
.LVL157:
	.loc 1 780 9 view .LVU1187
	ldr	r0, .L117+168	@,
	ldr	r1, [sp, #504]	@, reverse
.LPIC4:
	add	r0, pc, r0	@,
	bl	tfp_printf(PLT)	@
.LVL158:
	b	.L2		@
.LVL159:
.L107:
.LBB746:
	.loc 1 892 13 view .LVU1188
	ldr	r0, .L117+172	@,
.LBB530:
@ src/libgcrypt.c:893:             for(int j = 12; j < 16; j++) printf("%08X ", K[j + i*16]);
	.loc 1 893 42 is_stmt 0 view .LVU1189
	ldr	r5, .L117+176	@ tmp1403,
.LBE530:
@ src/libgcrypt.c:892:             printf("K[%d-%d]: ", i*16+12, i*16+15);
	.loc 1 892 13 view .LVU1190
.LPIC40:
	add	r0, pc, r0	@,
.LBB531:
@ src/libgcrypt.c:893:             for(int j = 12; j < 16; j++) printf("%08X ", K[j + i*16]);
	.loc 1 893 42 view .LVU1191
.LPIC41:
	add	r5, pc, r5	@ tmp1403, tmp1403
.LBE531:
@ src/libgcrypt.c:892:             printf("K[%d-%d]: ", i*16+12, i*16+15);
	.loc 1 892 13 view .LVU1192
	bl	tfp_printf(PLT)	@
.LVL160:
	.loc 1 893 13 is_stmt 1 view .LVU1193
.LBB532:
	.loc 1 893 17 view .LVU1194
	.loc 1 893 29 view .LVU1195
	ldr	r3, [sp, #24]	@ ivtmp.302, %sfp
	add	r6, r3, #32	@ ivtmp.172, ivtmp.302,
	add	r4, r3, #48	@ tmp1578, ivtmp.302,
.LVL161:
.L27:
	.loc 1 893 42 discriminator 3 view .LVU1196
	ldr	r1, [r6], #4	@, MEM[base: _1789, offset: 0B]
	mov	r0, r5	@, tmp1403
	bl	tfp_printf(PLT)	@
.LVL162:
	.loc 1 893 37 discriminator 3 view .LVU1197
	.loc 1 893 29 discriminator 3 view .LVU1198
@ src/libgcrypt.c:893:             for(int j = 12; j < 16; j++) printf("%08X ", K[j + i*16]);
	.loc 1 893 13 is_stmt 0 discriminator 3 view .LVU1199
	cmp	r4, r6	@ tmp1578, ivtmp.172
	bne	.L27		@,
.LBE532:
	.loc 1 894 13 is_stmt 1 view .LVU1200
	ldr	r0, .L117+180	@,
.LPIC42:
	add	r0, pc, r0	@,
	bl	tfp_printf(PLT)	@
.LVL163:
	b	.L26		@
.L100:
	.loc 1 805 13 view .LVU1201
	str	r3, [sp, #148]	@ _55, %sfp
	ldr	r0, .L117+184	@,
.LBB533:
@ src/libgcrypt.c:806:             for(int j = 0; j < 4; j++) printf("%08X ", z[j]);
	.loc 1 806 40 is_stmt 0 view .LVU1202
	ldr	r3, .L117+188	@ tmp937,
.LBE533:
@ src/libgcrypt.c:805:             printf("Post z-transform: ");
	.loc 1 805 13 view .LVU1203
.LPIC15:
	add	r0, pc, r0	@,
.LBB534:
@ src/libgcrypt.c:806:             for(int j = 0; j < 4; j++) printf("%08X ", z[j]);
	.loc 1 806 40 view .LVU1204
.LPIC16:
	add	r3, pc, r3	@ tmp937, tmp937
	str	r2, [sp, #152]	@ _70, %sfp
	str	r3, [sp, #136]	@ tmp937, %sfp
.LBE534:
@ src/libgcrypt.c:805:             printf("Post z-transform: ");
	.loc 1 805 13 view .LVU1205
	bl	tfp_printf(PLT)	@
.LVL164:
	.loc 1 806 13 is_stmt 1 view .LVU1206
.LBB535:
	.loc 1 806 17 view .LVU1207
	.loc 1 806 28 view .LVU1208
.LBE535:
@ src/libgcrypt.c:805:             printf("Post z-transform: ");
	.loc 1 805 13 is_stmt 0 view .LVU1209
	str	r5, [sp, #144]	@ _35, %sfp
	add	r0, sp, #188	@ ivtmp.266,,
	ldr	r5, [sp, #136]	@ tmp937, %sfp
	mov	r1, r6	@ pretmp_1856, _28
	str	r6, [sp, #140]	@ _28, %sfp
	ldr	r6, [sp, #104]	@ ivtmp.150, %sfp
.LVL165:
.LBB536:
	.loc 1 806 40 is_stmt 1 view .LVU1210
.LBE536:
@ src/libgcrypt.c:805:             printf("Post z-transform: ");
	.loc 1 805 13 is_stmt 0 view .LVU1211
	str	r4, [sp, #156]	@ _78, %sfp
	mov	r4, r0	@ ivtmp.266, ivtmp.266
.LBB537:
@ src/libgcrypt.c:806:             for(int j = 0; j < 4; j++) printf("%08X ", z[j]);
	.loc 1 806 40 view .LVU1212
	mov	r0, r5	@, tmp937
	bl	tfp_printf(PLT)	@
.LVL166:
	.loc 1 806 35 is_stmt 1 view .LVU1213
	.loc 1 806 28 view .LVU1214
@ src/libgcrypt.c:806:             for(int j = 0; j < 4; j++) printf("%08X ", z[j]);
	.loc 1 806 13 is_stmt 0 view .LVU1215
	cmp	r6, r4	@ ivtmp.150, ivtmp.266
	beq	.L9		@,
.L114:
@ src/libgcrypt.c:806:             for(int j = 0; j < 4; j++) printf("%08X ", z[j]);
	.loc 1 806 40 view .LVU1216
	ldr	r1, [r4], #4	@ pretmp_1856, MEM[base: _1712, offset: 0B]
	.loc 1 806 40 is_stmt 1 view .LVU1217
	mov	r0, r5	@, tmp937
	bl	tfp_printf(PLT)	@
.LVL167:
	.loc 1 806 35 view .LVU1218
	.loc 1 806 28 view .LVU1219
@ src/libgcrypt.c:806:             for(int j = 0; j < 4; j++) printf("%08X ", z[j]);
	.loc 1 806 13 is_stmt 0 view .LVU1220
	cmp	r6, r4	@ ivtmp.150, ivtmp.266
	bne	.L114		@,
.L9:
.LBE537:
	.loc 1 807 13 is_stmt 1 view .LVU1221
	ldr	r0, .L117+192	@,
	ldr	r3, [sp, #148]	@ _55, %sfp
	ldr	r2, [sp, #152]	@ _70, %sfp
.LPIC17:
	add	r0, pc, r0	@,
	ldr	r6, [sp, #140]	@ _28, %sfp
	str	r2, [sp, #136]	@ _70, %sfp
	str	r3, [sp, #140]	@ _55, %sfp
	ldr	r5, [sp, #144]	@ _35, %sfp
	ldr	r4, [sp, #156]	@ _78, %sfp
	bl	tfp_printf(PLT)	@
.LVL168:
	ldrd	r2, [sp, #136]	@,,
	b	.L8		@
.L102:
	.loc 1 835 13 view .LVU1222
	ldr	r0, .L117+196	@,
.LBB538:
@ src/libgcrypt.c:836:             for(int j = 0; j < 4; j++) printf("%08X ", x[j]);
	.loc 1 836 40 is_stmt 0 view .LVU1223
	ldr	r4, .L117+200	@ tmp1072,
.LBE538:
@ src/libgcrypt.c:835:             printf("Second x-transform: ");
	.loc 1 835 13 view .LVU1224
.LPIC25:
	add	r0, pc, r0	@,
.LBB539:
@ src/libgcrypt.c:836:             for(int j = 0; j < 4; j++) printf("%08X ", x[j]);
	.loc 1 836 40 view .LVU1225
.LPIC26:
	add	r4, pc, r4	@ tmp1072, tmp1072
.LBE539:
@ src/libgcrypt.c:835:             printf("Second x-transform: ");
	.loc 1 835 13 view .LVU1226
	bl	tfp_printf(PLT)	@
.LVL169:
	.loc 1 836 13 is_stmt 1 view .LVU1227
.LBB540:
	.loc 1 836 17 view .LVU1228
	.loc 1 836 28 view .LVU1229
	ldr	r5, [sp, #116]	@ ivtmp.226, %sfp
	ldr	r6, [sp, #120]	@ _1778, %sfp
.LVL170:
.L16:
	.loc 1 836 40 discriminator 3 view .LVU1230
	ldr	r1, [r5], #4	@, MEM[base: _1741, offset: 0B]
	mov	r0, r4	@, tmp1072
	bl	tfp_printf(PLT)	@
.LVL171:
	.loc 1 836 35 discriminator 3 view .LVU1231
	.loc 1 836 28 discriminator 3 view .LVU1232
@ src/libgcrypt.c:836:             for(int j = 0; j < 4; j++) printf("%08X ", x[j]);
	.loc 1 836 13 is_stmt 0 discriminator 3 view .LVU1233
	cmp	r6, r5	@ _1778, ivtmp.226
	bne	.L16		@,
.LBE540:
	.loc 1 837 13 is_stmt 1 view .LVU1234
	ldr	r0, .L117+204	@,
.LPIC27:
	add	r0, pc, r0	@,
	bl	tfp_printf(PLT)	@
.LVL172:
@ src/libgcrypt.c:840:         K[4 + i * 16] = S5[g(x, 0x3)] ^ S6[g(x, 0x2)] ^ S7[g(x, 0xC)] ^ S8[g(x, 0xD)] ^ S5[g(x, 0x8)];
	.loc 1 840 44 is_stmt 0 view .LVU1235
	ldrb	r3, [sp, #169]	@ zero_extendqisi2	@ MEM[(uint8_t *)&x + 1B], MEM[(uint8_t *)&x + 1B]
@ src/libgcrypt.c:841:         K[5 + i * 16] = S5[g(x, 0x1)] ^ S6[g(x, 0x0)] ^ S7[g(x, 0xE)] ^ S8[g(x, 0xF)] ^ S6[g(x, 0xD)];
	.loc 1 841 28 view .LVU1236
	ldrb	ip, [sp, #170]	@ zero_extendqisi2	@ _136, MEM[(uint8_t *)&x + 2B]
@ src/libgcrypt.c:840:         K[4 + i * 16] = S5[g(x, 0x3)] ^ S6[g(x, 0x2)] ^ S7[g(x, 0xC)] ^ S8[g(x, 0xD)] ^ S5[g(x, 0x8)];
	.loc 1 840 43 view .LVU1237
	ldr	r3, [r9, r3, lsl #2]	@ _134, S6[_1978]
@ src/libgcrypt.c:841:         K[5 + i * 16] = S5[g(x, 0x1)] ^ S6[g(x, 0x0)] ^ S7[g(x, 0xE)] ^ S8[g(x, 0xF)] ^ S6[g(x, 0xD)];
	.loc 1 841 44 view .LVU1238
	ldrb	r0, [sp, #171]	@ zero_extendqisi2	@ _130, MEM[(uint8_t *)&x + 3B]
@ src/libgcrypt.c:840:         K[4 + i * 16] = S5[g(x, 0x3)] ^ S6[g(x, 0x2)] ^ S7[g(x, 0xC)] ^ S8[g(x, 0xD)] ^ S5[g(x, 0x8)];
	.loc 1 840 43 view .LVU1239
	str	r3, [sp, #36]	@ _134, %sfp
@ src/libgcrypt.c:842:         K[6 + i * 16] = S5[g(x, 0x7)] ^ S6[g(x, 0x6)] ^ S7[g(x, 0x8)] ^ S8[g(x, 0x9)] ^ S7[g(x, 0x3)];
	.loc 1 842 44 view .LVU1240
	ldrb	r3, [sp, #173]	@ zero_extendqisi2	@ MEM[(uint8_t *)&x + 5B], MEM[(uint8_t *)&x + 5B]
@ src/libgcrypt.c:842:         K[6 + i * 16] = S5[g(x, 0x7)] ^ S6[g(x, 0x6)] ^ S7[g(x, 0x8)] ^ S8[g(x, 0x9)] ^ S7[g(x, 0x3)];
	.loc 1 842 76 view .LVU1241
	ldrb	lr, [sp, #178]	@ zero_extendqisi2	@ _160, MEM[(uint8_t *)&x + 10B]
@ src/libgcrypt.c:842:         K[6 + i * 16] = S5[g(x, 0x7)] ^ S6[g(x, 0x6)] ^ S7[g(x, 0x8)] ^ S8[g(x, 0x9)] ^ S7[g(x, 0x3)];
	.loc 1 842 43 view .LVU1242
	ldr	r3, [r9, r3, lsl #2]	@ _147, S6[_1988]
@ src/libgcrypt.c:843:         K[7 + i * 16] = S5[g(x, 0x5)] ^ S6[g(x, 0x4)] ^ S7[g(x, 0xA)] ^ S8[g(x, 0xB)] ^ S8[g(x, 0x7)];
	.loc 1 843 28 view .LVU1243
	ldrb	r5, [sp, #174]	@ zero_extendqisi2	@ _149, MEM[(uint8_t *)&x + 6B]
@ src/libgcrypt.c:842:         K[6 + i * 16] = S5[g(x, 0x7)] ^ S6[g(x, 0x6)] ^ S7[g(x, 0x8)] ^ S8[g(x, 0x9)] ^ S7[g(x, 0x3)];
	.loc 1 842 43 view .LVU1244
	str	r3, [sp, #40]	@ _147, %sfp
@ src/libgcrypt.c:843:         K[7 + i * 16] = S5[g(x, 0x5)] ^ S6[g(x, 0x4)] ^ S7[g(x, 0xA)] ^ S8[g(x, 0xB)] ^ S8[g(x, 0x7)];
	.loc 1 843 44 view .LVU1245
	ldrb	r2, [sp, #175]	@ zero_extendqisi2	@ _152, MEM[(uint8_t *)&x + 7B]
@ src/libgcrypt.c:840:         K[4 + i * 16] = S5[g(x, 0x3)] ^ S6[g(x, 0x2)] ^ S7[g(x, 0xC)] ^ S8[g(x, 0xD)] ^ S5[g(x, 0x8)];
	.loc 1 840 92 view .LVU1246
	ldrb	r3, [sp, #179]	@ zero_extendqisi2	@ _166, MEM[(uint8_t *)&x + 11B]
@ src/libgcrypt.c:843:         K[7 + i * 16] = S5[g(x, 0x5)] ^ S6[g(x, 0x4)] ^ S7[g(x, 0xA)] ^ S8[g(x, 0xB)] ^ S8[g(x, 0x7)];
	.loc 1 843 60 view .LVU1247
	ldrb	r4, [sp, #177]	@ zero_extendqisi2	@ _157, MEM[(uint8_t *)&x + 9B]
	b	.L15		@
.L101:
	.loc 1 817 13 is_stmt 1 view .LVU1248
	ldr	r0, .L117+208	@,
	mov	r1, r3	@, ivtmp.301
.LBB541:
@ src/libgcrypt.c:818:             for(int j = 0; j < 4; j++) printf("%08X ", K[j + i*16]);
	.loc 1 818 40 is_stmt 0 view .LVU1249
	ldr	r7, .L117+212	@ tmp991,
.LBE541:
@ src/libgcrypt.c:817:             printf("K[%d-%d]: ", i*16, i*16+3);
	.loc 1 817 13 view .LVU1250
.LPIC18:
	add	r0, pc, r0	@,
.LBB542:
@ src/libgcrypt.c:818:             for(int j = 0; j < 4; j++) printf("%08X ", K[j + i*16]);
	.loc 1 818 40 view .LVU1251
.LPIC19:
	add	r7, pc, r7	@ tmp991, tmp991
.LBE542:
@ src/libgcrypt.c:817:             printf("K[%d-%d]: ", i*16, i*16+3);
	.loc 1 817 13 view .LVU1252
	bl	tfp_printf(PLT)	@
.LVL173:
	.loc 1 818 13 is_stmt 1 view .LVU1253
.LBB543:
	.loc 1 818 17 view .LVU1254
	.loc 1 818 28 view .LVU1255
	ldr	r3, [sp, #24]	@ ivtmp.302, %sfp
	str	r4, [sp, #52]	@ _78, %sfp
	mov	r4, r7	@ tmp991, tmp991
	sub	r5, r3, #16	@ ivtmp.250, ivtmp.302,
	mov	r7, r3	@ ivtmp.302, ivtmp.302
.LVL174:
.L12:
	.loc 1 818 40 discriminator 3 view .LVU1256
	ldr	r1, [r5], #4	@, MEM[base: _1724, offset: 0B]
	mov	r0, r4	@, tmp991
	bl	tfp_printf(PLT)	@
.LVL175:
	.loc 1 818 35 discriminator 3 view .LVU1257
	.loc 1 818 28 discriminator 3 view .LVU1258
@ src/libgcrypt.c:818:             for(int j = 0; j < 4; j++) printf("%08X ", K[j + i*16]);
	.loc 1 818 13 is_stmt 0 discriminator 3 view .LVU1259
	cmp	r7, r5	@ ivtmp.302, ivtmp.250
	bne	.L12		@,
.LBE543:
	.loc 1 819 13 is_stmt 1 view .LVU1260
	ldr	r0, .L117+216	@,
	ldr	r4, [sp, #52]	@ _78, %sfp
.LPIC20:
	add	r0, pc, r0	@,
	ldr	r7, .L117+220	@ ivtmp.241,
	bl	tfp_printf(PLT)	@
.LVL176:
	.loc 1 823 9 view .LVU1261
	.loc 1 824 13 view .LVU1262
	ldr	r0, .L117+224	@,
.LBB544:
@ src/libgcrypt.c:825:             for(int j = 0x0; j <= 0x7; j++) printf("%02X ", g(z, j));
	.loc 1 825 45 is_stmt 0 view .LVU1263
	ldr	r5, .L117+228	@ tmp1001,
.LPIC22:
	add	r7, pc, r7	@ ivtmp.241, ivtmp.241
.LBE544:
@ src/libgcrypt.c:824:             printf("Pre-second-x g(z) values: ");
	.loc 1 824 13 view .LVU1264
.LPIC21:
	add	r0, pc, r0	@,
.LBB551:
@ src/libgcrypt.c:825:             for(int j = 0x0; j <= 0x7; j++) printf("%02X ", g(z, j));
	.loc 1 825 45 view .LVU1265
.LPIC23:
	add	r5, pc, r5	@ tmp1001, tmp1001
.LBE551:
@ src/libgcrypt.c:824:             printf("Pre-second-x g(z) values: ");
	.loc 1 824 13 view .LVU1266
	bl	tfp_printf(PLT)	@
.LVL177:
	.loc 1 825 13 is_stmt 1 view .LVU1267
.LBB552:
	.loc 1 825 17 view .LVU1268
	.loc 1 825 30 view .LVU1269
.LBE552:
@ src/libgcrypt.c:824:             printf("Pre-second-x g(z) values: ");
	.loc 1 824 13 is_stmt 0 view .LVU1270
	str	r4, [sp, #52]	@ _78, %sfp
	add	r2, r7, #7	@ _1732, ivtmp.241,
	mov	r4, r5	@ tmp1001, tmp1001
	mov	r3, #3	@ pretmp_1862,
	mov	r5, r2	@ _1732, _1732
	b	.L14		@
.LVL178:
.L115:
.LBB553:
.LBB545:
.LBB546:
@ src/libgcrypt.c:726:     return ((uint8_t *)key)[K_MAP[i]];
	.loc 1 726 34 view .LVU1271
	ldrb	r3, [r7, #1]!	@ zero_extendqisi2	@ pretmp_1862, MEM[base: _1731, offset: 0B]
.LVL179:
.L14:
	.loc 1 726 34 view .LVU1272
.LBE546:
.LBE545:
	.loc 1 825 45 is_stmt 1 discriminator 3 view .LVU1273
.LBB549:
.LBI545:
	.loc 1 724 16 discriminator 3 view .LVU1274
.LBB547:
	.loc 1 726 5 discriminator 3 view .LVU1275
@ src/libgcrypt.c:726:     return ((uint8_t *)key)[K_MAP[i]];
	.loc 1 726 28 is_stmt 0 discriminator 3 view .LVU1276
	add	r3, r3, #464	@ tmp2148, pretmp_1862,
.LBE547:
.LBE549:
@ src/libgcrypt.c:825:             for(int j = 0x0; j <= 0x7; j++) printf("%02X ", g(z, j));
	.loc 1 825 45 discriminator 3 view .LVU1277
	mov	r0, r4	@, tmp1001
.LBB550:
.LBB548:
@ src/libgcrypt.c:726:     return ((uint8_t *)key)[K_MAP[i]];
	.loc 1 726 28 discriminator 3 view .LVU1278
	add	r3, sp, r3	@ tmp998,, tmp2148
.LBE548:
.LBE550:
@ src/libgcrypt.c:825:             for(int j = 0x0; j <= 0x7; j++) printf("%02X ", g(z, j));
	.loc 1 825 45 discriminator 3 view .LVU1279
	ldrb	r1, [r3, #-280]	@ zero_extendqisi2	@, *_745
	bl	tfp_printf(PLT)	@
.LVL180:
	.loc 1 825 40 is_stmt 1 discriminator 3 view .LVU1280
	.loc 1 825 30 discriminator 3 view .LVU1281
@ src/libgcrypt.c:825:             for(int j = 0x0; j <= 0x7; j++) printf("%02X ", g(z, j));
	.loc 1 825 13 is_stmt 0 discriminator 3 view .LVU1282
	cmp	r5, r7	@ _1732, ivtmp.241
	bne	.L115		@,
.LBE553:
	.loc 1 826 13 is_stmt 1 view .LVU1283
	ldr	r0, .L117+232	@,
	ldr	r4, [sp, #52]	@ _78, %sfp
.LPIC24:
	add	r0, pc, r0	@,
	bl	tfp_printf(PLT)	@
.LVL181:
	b	.L11		@
.LVL182:
.L106:
	.loc 1 881 13 view .LVU1284
	ldr	r0, .L117+236	@,
.LBB554:
@ src/libgcrypt.c:882:             for(int j = 0; j < 4; j++) printf("%08X ", x[j]);
	.loc 1 882 40 is_stmt 0 view .LVU1285
	ldr	r4, .L117+240	@ tmp1337,
.LBE554:
@ src/libgcrypt.c:881:             printf("Fourth x-transform: ");
	.loc 1 881 13 view .LVU1286
.LPIC37:
	add	r0, pc, r0	@,
.LBB555:
@ src/libgcrypt.c:882:             for(int j = 0; j < 4; j++) printf("%08X ", x[j]);
	.loc 1 882 40 view .LVU1287
.LPIC38:
	add	r4, pc, r4	@ tmp1337, tmp1337
.LBE555:
@ src/libgcrypt.c:881:             printf("Fourth x-transform: ");
	.loc 1 881 13 view .LVU1288
	bl	tfp_printf(PLT)	@
.LVL183:
	.loc 1 882 13 is_stmt 1 view .LVU1289
.LBB556:
	.loc 1 882 17 view .LVU1290
	.loc 1 882 28 view .LVU1291
	ldr	r5, [sp, #116]	@ ivtmp.180, %sfp
	ldr	r6, [sp, #120]	@ _1778, %sfp
.LVL184:
.L25:
	.loc 1 882 40 discriminator 3 view .LVU1292
	ldr	r1, [r5], #4	@, MEM[base: _1780, offset: 0B]
	mov	r0, r4	@, tmp1337
	bl	tfp_printf(PLT)	@
.LVL185:
	.loc 1 882 35 discriminator 3 view .LVU1293
	.loc 1 882 28 discriminator 3 view .LVU1294
@ src/libgcrypt.c:882:             for(int j = 0; j < 4; j++) printf("%08X ", x[j]);
	.loc 1 882 13 is_stmt 0 discriminator 3 view .LVU1295
	cmp	r6, r5	@ _1778, ivtmp.180
	bne	.L25		@,
.LBE556:
	.loc 1 883 13 is_stmt 1 view .LVU1296
	ldr	r0, .L117+244	@,
.LPIC39:
	add	r0, pc, r0	@,
	bl	tfp_printf(PLT)	@
.LVL186:
@ src/libgcrypt.c:886:         K[12 + i * 16] = S5[g(x, 0x8)] ^ S6[g(x, 0x9)] ^ S7[g(x, 0x7)] ^ S8[g(x, 0x6)] ^ S5[g(x, 0x3)];
	.loc 1 886 45 is_stmt 0 view .LVU1297
	ldrb	r3, [sp, #178]	@ zero_extendqisi2	@ MEM[(uint8_t *)&x + 10B], MEM[(uint8_t *)&x + 10B]
@ src/libgcrypt.c:886:         K[12 + i * 16] = S5[g(x, 0x8)] ^ S6[g(x, 0x9)] ^ S7[g(x, 0x7)] ^ S8[g(x, 0x6)] ^ S5[g(x, 0x3)];
	.loc 1 886 77 view .LVU1298
	ldrb	r1, [sp, #173]	@ zero_extendqisi2	@ _363, MEM[(uint8_t *)&x + 5B]
@ src/libgcrypt.c:886:         K[12 + i * 16] = S5[g(x, 0x8)] ^ S6[g(x, 0x9)] ^ S7[g(x, 0x7)] ^ S8[g(x, 0x6)] ^ S5[g(x, 0x3)];
	.loc 1 886 44 view .LVU1299
	ldr	r3, [r9, r3, lsl #2]	@ _377, S6[_2022]
@ src/libgcrypt.c:888:         K[14 + i * 16] = S5[g(x, 0xC)] ^ S6[g(x, 0xD)] ^ S7[g(x, 0x3)] ^ S8[g(x, 0x2)] ^ S7[g(x, 0x8)];
	.loc 1 888 77 view .LVU1300
	ldrb	r0, [sp, #169]	@ zero_extendqisi2	@ _349, MEM[(uint8_t *)&x + 1B]
@ src/libgcrypt.c:886:         K[12 + i * 16] = S5[g(x, 0x8)] ^ S6[g(x, 0x9)] ^ S7[g(x, 0x7)] ^ S8[g(x, 0x6)] ^ S5[g(x, 0x3)];
	.loc 1 886 44 view .LVU1301
	str	r3, [sp, #40]	@ _377, %sfp
@ src/libgcrypt.c:887:         K[13 + i * 16] = S5[g(x, 0xA)] ^ S6[g(x, 0xB)] ^ S7[g(x, 0x5)] ^ S8[g(x, 0x4)] ^ S6[g(x, 0x7)];
	.loc 1 887 29 view .LVU1302
	ldrb	r3, [sp, #177]	@ zero_extendqisi2	@ MEM[(uint8_t *)&x + 9B], MEM[(uint8_t *)&x + 9B]
@ src/libgcrypt.c:889:         K[15 + i * 16] = S5[g(x, 0xE)] ^ S6[g(x, 0xF)] ^ S7[g(x, 0x1)] ^ S8[g(x, 0x0)] ^ S8[g(x, 0xD)];
	.loc 1 889 77 view .LVU1303
	ldrb	r2, [sp, #171]	@ zero_extendqisi2	@ _346, MEM[(uint8_t *)&x + 3B]
@ src/libgcrypt.c:887:         K[13 + i * 16] = S5[g(x, 0xA)] ^ S6[g(x, 0xB)] ^ S7[g(x, 0x5)] ^ S8[g(x, 0x4)] ^ S6[g(x, 0x7)];
	.loc 1 887 28 view .LVU1304
	ldr	r5, [r10, r3, lsl #2]	@ _374, S5[_2028]
@ src/libgcrypt.c:887:         K[13 + i * 16] = S5[g(x, 0xA)] ^ S6[g(x, 0xB)] ^ S7[g(x, 0x5)] ^ S8[g(x, 0x4)] ^ S6[g(x, 0x7)];
	.loc 1 887 61 view .LVU1305
	ldrb	r3, [sp, #174]	@ zero_extendqisi2	@ MEM[(uint8_t *)&x + 6B], MEM[(uint8_t *)&x + 6B]
@ src/libgcrypt.c:887:         K[13 + i * 16] = S5[g(x, 0xA)] ^ S6[g(x, 0xB)] ^ S7[g(x, 0x5)] ^ S8[g(x, 0x4)] ^ S6[g(x, 0x7)];
	.loc 1 887 60 view .LVU1306
	ldr	r3, [r8, r3, lsl #2]	@ _367, S7[_2032]
	str	r3, [sp, #36]	@ _367, %sfp
@ src/libgcrypt.c:887:         K[13 + i * 16] = S5[g(x, 0xA)] ^ S6[g(x, 0xB)] ^ S7[g(x, 0x5)] ^ S8[g(x, 0x4)] ^ S6[g(x, 0x7)];
	.loc 1 887 77 view .LVU1307
	ldrb	r3, [sp, #175]	@ zero_extendqisi2	@ MEM[(uint8_t *)&x + 7B], MEM[(uint8_t *)&x + 7B]
@ src/libgcrypt.c:887:         K[13 + i * 16] = S5[g(x, 0xA)] ^ S6[g(x, 0xB)] ^ S7[g(x, 0x5)] ^ S8[g(x, 0x4)] ^ S6[g(x, 0x7)];
	.loc 1 887 76 view .LVU1308
	ldr	lr, [fp, r3, lsl #2]	@ _370, S8[_2036]
@ src/libgcrypt.c:889:         K[15 + i * 16] = S5[g(x, 0xE)] ^ S6[g(x, 0xF)] ^ S7[g(x, 0x1)] ^ S8[g(x, 0x0)] ^ S8[g(x, 0xD)];
	.loc 1 889 61 view .LVU1309
	ldrb	r3, [sp, #170]	@ zero_extendqisi2	@ MEM[(uint8_t *)&x + 2B], MEM[(uint8_t *)&x + 2B]
@ src/libgcrypt.c:889:         K[15 + i * 16] = S5[g(x, 0xE)] ^ S6[g(x, 0xF)] ^ S7[g(x, 0x1)] ^ S8[g(x, 0x0)] ^ S8[g(x, 0xD)];
	.loc 1 889 60 view .LVU1310
	ldr	r3, [r8, r3, lsl #2]	@ _353, S7[_2042]
	str	r3, [sp, #32]	@ _353, %sfp
@ src/libgcrypt.c:886:         K[12 + i * 16] = S5[g(x, 0x8)] ^ S6[g(x, 0x9)] ^ S7[g(x, 0x7)] ^ S8[g(x, 0x6)] ^ S5[g(x, 0x3)];
	.loc 1 886 29 view .LVU1311
	ldrb	r3, [sp, #179]	@ zero_extendqisi2	@ _382, MEM[(uint8_t *)&x + 11B]
	b	.L24		@
.L105:
	.loc 1 869 13 is_stmt 1 view .LVU1312
	ldr	r0, .L117+248	@,
.LBB557:
@ src/libgcrypt.c:870:             for(int j = 8; j < 12; j++) printf("%08X ", K[j + i*16]);
	.loc 1 870 41 is_stmt 0 view .LVU1313
	ldr	r6, .L117+252	@ tmp1267,
.LBE557:
@ src/libgcrypt.c:869:             printf("K[%d-%d]: ", i*16+8, i*16+11);
	.loc 1 869 13 view .LVU1314
.LPIC34:
	add	r0, pc, r0	@,
.LBB558:
@ src/libgcrypt.c:870:             for(int j = 8; j < 12; j++) printf("%08X ", K[j + i*16]);
	.loc 1 870 41 view .LVU1315
.LPIC35:
	add	r6, pc, r6	@ tmp1267, tmp1267
.LBE558:
@ src/libgcrypt.c:869:             printf("K[%d-%d]: ", i*16+8, i*16+11);
	.loc 1 869 13 view .LVU1316
	bl	tfp_printf(PLT)	@
.LVL187:
	.loc 1 870 13 is_stmt 1 view .LVU1317
.LBB559:
	.loc 1 870 17 view .LVU1318
	.loc 1 870 28 view .LVU1319
	ldr	r3, [sp, #24]	@ ivtmp.302, %sfp
	str	r4, [sp, #60]	@ _293, %sfp
	mov	r4, r6	@ tmp1267, tmp1267
	add	r5, r3, #16	@ ivtmp.190, ivtmp.302,
	add	r3, r3, #32	@ tmp1577, ivtmp.302,
	mov	r6, r3	@ tmp1577, tmp1577
.LVL188:
.L23:
	.loc 1 870 41 discriminator 3 view .LVU1320
	ldr	r1, [r5], #4	@, MEM[base: _1770, offset: 0B]
	mov	r0, r4	@, tmp1267
	bl	tfp_printf(PLT)	@
.LVL189:
	.loc 1 870 36 discriminator 3 view .LVU1321
	.loc 1 870 28 discriminator 3 view .LVU1322
@ src/libgcrypt.c:870:             for(int j = 8; j < 12; j++) printf("%08X ", K[j + i*16]);
	.loc 1 870 13 is_stmt 0 discriminator 3 view .LVU1323
	cmp	r6, r5	@ tmp1577, ivtmp.190
	bne	.L23		@,
.LBE559:
	.loc 1 871 13 is_stmt 1 view .LVU1324
	ldr	r0, .L117+256	@,
	ldr	r4, [sp, #60]	@ _293, %sfp
.LPIC36:
	add	r0, pc, r0	@,
	bl	tfp_printf(PLT)	@
.LVL190:
	b	.L22		@
.L104:
	.loc 1 858 13 view .LVU1325
	str	r3, [sp, #144]	@ _288, %sfp
	ldr	r0, .L117+260	@,
.LBB560:
@ src/libgcrypt.c:859:             for(int j = 0; j < 4; j++) printf("%08X ", z[j]);
	.loc 1 859 40 is_stmt 0 view .LVU1326
	ldr	r3, .L117+264	@ tmp1208,
.LBE560:
@ src/libgcrypt.c:858:             printf("Third z-transform: ");
	.loc 1 858 13 view .LVU1327
.LPIC31:
	add	r0, pc, r0	@,
.LBB561:
@ src/libgcrypt.c:859:             for(int j = 0; j < 4; j++) printf("%08X ", z[j]);
	.loc 1 859 40 view .LVU1328
.LPIC32:
	add	r3, pc, r3	@ tmp1208, tmp1208
	str	r2, [sp, #136]	@ _279, %sfp
	str	r3, [sp, #88]	@ tmp1208, %sfp
.LBE561:
@ src/libgcrypt.c:858:             printf("Third z-transform: ");
	.loc 1 858 13 view .LVU1329
	bl	tfp_printf(PLT)	@
.LVL191:
	.loc 1 859 13 is_stmt 1 view .LVU1330
.LBB562:
	.loc 1 859 17 view .LVU1331
	.loc 1 859 28 view .LVU1332
.LBE562:
@ src/libgcrypt.c:858:             printf("Third z-transform: ");
	.loc 1 858 13 is_stmt 0 view .LVU1333
	str	r5, [sp, #140]	@ _282, %sfp
	add	r0, sp, #188	@ ivtmp.206,,
	ldr	r5, [sp, #88]	@ tmp1208, %sfp
	mov	r1, r7	@ pretmp_1902, _245
	str	r7, [sp, #92]	@ _245, %sfp
	ldr	r7, [sp, #104]	@ ivtmp.150, %sfp
.LVL192:
.LBB563:
	.loc 1 859 40 is_stmt 1 view .LVU1334
.LBE563:
@ src/libgcrypt.c:858:             printf("Third z-transform: ");
	.loc 1 858 13 is_stmt 0 view .LVU1335
	str	r4, [sp, #148]	@ _293, %sfp
	mov	r4, r0	@ ivtmp.206, ivtmp.206
.LBB564:
@ src/libgcrypt.c:859:             for(int j = 0; j < 4; j++) printf("%08X ", z[j]);
	.loc 1 859 40 view .LVU1336
	mov	r0, r5	@, tmp1208
	bl	tfp_printf(PLT)	@
.LVL193:
	.loc 1 859 35 is_stmt 1 view .LVU1337
	.loc 1 859 28 view .LVU1338
@ src/libgcrypt.c:859:             for(int j = 0; j < 4; j++) printf("%08X ", z[j]);
	.loc 1 859 13 is_stmt 0 view .LVU1339
	cmp	r7, r4	@ ivtmp.150, ivtmp.206
	beq	.L20		@,
.L116:
@ src/libgcrypt.c:859:             for(int j = 0; j < 4; j++) printf("%08X ", z[j]);
	.loc 1 859 40 view .LVU1340
	ldr	r1, [r4], #4	@ pretmp_1902, MEM[base: _1758, offset: 0B]
	.loc 1 859 40 is_stmt 1 view .LVU1341
	mov	r0, r5	@, tmp1208
	bl	tfp_printf(PLT)	@
.LVL194:
	.loc 1 859 35 view .LVU1342
	.loc 1 859 28 view .LVU1343
@ src/libgcrypt.c:859:             for(int j = 0; j < 4; j++) printf("%08X ", z[j]);
	.loc 1 859 13 is_stmt 0 view .LVU1344
	cmp	r7, r4	@ ivtmp.150, ivtmp.206
	bne	.L116		@,
.L20:
.LBE564:
	.loc 1 860 13 is_stmt 1 view .LVU1345
	ldr	r0, .L117+268	@,
	ldr	r2, [sp, #136]	@ _279, %sfp
	ldr	r3, [sp, #144]	@ _288, %sfp
.LPIC33:
	add	r0, pc, r0	@,
	ldr	r7, [sp, #92]	@ _245, %sfp
	str	r3, [sp, #88]	@ _288, %sfp
	str	r2, [sp, #92]	@ _279, %sfp
	ldr	r5, [sp, #140]	@ _282, %sfp
	ldr	r4, [sp, #148]	@ _293, %sfp
	bl	tfp_printf(PLT)	@
.LVL195:
	ldr	r2, [sp, #92]	@ _279, %sfp
	ldr	r3, [sp, #88]	@ _288, %sfp
	b	.L19		@
.L103:
	.loc 1 846 13 view .LVU1346
	ldr	r0, .L117+272	@,
.LBB565:
@ src/libgcrypt.c:847:             for(int j = 4; j < 8; j++) printf("%08X ", K[j + i*16]);
	.loc 1 847 40 is_stmt 0 view .LVU1347
	ldr	r4, .L117+276	@ tmp1133,
.LBE565:
@ src/libgcrypt.c:846:             printf("K[%d-%d]: ", i*16+4, i*16+7);
	.loc 1 846 13 view .LVU1348
.LPIC28:
	add	r0, pc, r0	@,
.LBB566:
@ src/libgcrypt.c:847:             for(int j = 4; j < 8; j++) printf("%08X ", K[j + i*16]);
	.loc 1 847 40 view .LVU1349
.LPIC29:
	add	r4, pc, r4	@ tmp1133, tmp1133
.LBE566:
@ src/libgcrypt.c:846:             printf("K[%d-%d]: ", i*16+4, i*16+7);
	.loc 1 846 13 view .LVU1350
	bl	tfp_printf(PLT)	@
.LVL196:
	.loc 1 847 13 is_stmt 1 view .LVU1351
.LBB567:
	.loc 1 847 17 view .LVU1352
	.loc 1 847 28 view .LVU1353
.LBE567:
@ src/libgcrypt.c:846:             printf("K[%d-%d]: ", i*16+4, i*16+7);
	.loc 1 846 13 is_stmt 0 view .LVU1354
	ldr	r3, [sp, #24]	@ ivtmp.302, %sfp
	mov	r6, r3	@ ivtmp.218, ivtmp.302
	add	r5, r3, #16	@ tmp1576, ivtmp.302,
.LVL197:
.L18:
.LBB568:
	.loc 1 847 40 is_stmt 1 discriminator 3 view .LVU1355
	ldr	r1, [r6], #4	@, MEM[base: _1750, offset: 0B]
	mov	r0, r4	@, tmp1133
	bl	tfp_printf(PLT)	@
.LVL198:
	.loc 1 847 35 discriminator 3 view .LVU1356
	.loc 1 847 28 discriminator 3 view .LVU1357
@ src/libgcrypt.c:847:             for(int j = 4; j < 8; j++) printf("%08X ", K[j + i*16]);
	.loc 1 847 13 is_stmt 0 discriminator 3 view .LVU1358
	cmp	r5, r6	@ tmp1576, ivtmp.218
	bne	.L18		@,
.LBE568:
	.loc 1 848 13 is_stmt 1 view .LVU1359
	ldr	r0, .L117+280	@,
.LPIC30:
	add	r0, pc, r0	@,
	bl	tfp_printf(PLT)	@
.LVL199:
@ src/libgcrypt.c:852:         z[0] = x[0] ^ S5[g(x, 0xD)] ^ S6[g(x, 0xF)] ^ S7[g(x, 0xC)] ^ S8[g(x, 0xE)] ^ S7[g(x, 0x8)];
	.loc 1 852 58 is_stmt 0 view .LVU1360
	ldrb	r3, [sp, #183]	@ zero_extendqisi2	@ MEM[(uint8_t *)&x + 15B], MEM[(uint8_t *)&x + 15B]
@ src/libgcrypt.c:852:         z[0] = x[0] ^ S5[g(x, 0xD)] ^ S6[g(x, 0xF)] ^ S7[g(x, 0xC)] ^ S8[g(x, 0xE)] ^ S7[g(x, 0x8)];
	.loc 1 852 26 view .LVU1361
	ldrb	r5, [sp, #182]	@ zero_extendqisi2	@ _180, MEM[(uint8_t *)&x + 14B]
@ src/libgcrypt.c:852:         z[0] = x[0] ^ S5[g(x, 0xD)] ^ S6[g(x, 0xF)] ^ S7[g(x, 0xC)] ^ S8[g(x, 0xE)] ^ S7[g(x, 0x8)];
	.loc 1 852 57 view .LVU1362
	ldr	r3, [r8, r3, lsl #2]	@ _178, S7[_2004]
@ src/libgcrypt.c:852:         z[0] = x[0] ^ S5[g(x, 0xD)] ^ S6[g(x, 0xF)] ^ S7[g(x, 0xC)] ^ S8[g(x, 0xE)] ^ S7[g(x, 0x8)];
	.loc 1 852 74 view .LVU1363
	ldrb	r7, [sp, #181]	@ zero_extendqisi2	@ _192, MEM[(uint8_t *)&x + 13B]
@ src/libgcrypt.c:852:         z[0] = x[0] ^ S5[g(x, 0xD)] ^ S6[g(x, 0xF)] ^ S7[g(x, 0xC)] ^ S8[g(x, 0xE)] ^ S7[g(x, 0x8)];
	.loc 1 852 57 view .LVU1364
	str	r3, [sp, #44]	@ _178, %sfp
@ src/libgcrypt.c:852:         z[0] = x[0] ^ S5[g(x, 0xD)] ^ S6[g(x, 0xF)] ^ S7[g(x, 0xC)] ^ S8[g(x, 0xE)] ^ S7[g(x, 0x8)];
	.loc 1 852 90 view .LVU1365
	ldrb	r3, [sp, #179]	@ zero_extendqisi2	@ MEM[(uint8_t *)&x + 11B], MEM[(uint8_t *)&x + 11B]
@ src/libgcrypt.c:853:         z[1] = x[2] ^ S5[g(z, 0x0)] ^ S6[g(z, 0x2)] ^ S7[g(z, 0x1)] ^ S8[g(z, 0x3)] ^ S8[g(x, 0xA)];
	.loc 1 853 90 view .LVU1366
	ldrb	r4, [sp, #177]	@ zero_extendqisi2	@ _157, MEM[(uint8_t *)&x + 9B]
@ src/libgcrypt.c:852:         z[0] = x[0] ^ S5[g(x, 0xD)] ^ S6[g(x, 0xF)] ^ S7[g(x, 0xC)] ^ S8[g(x, 0xE)] ^ S7[g(x, 0x8)];
	.loc 1 852 89 view .LVU1367
	ldr	ip, [r8, r3, lsl #2]	@ _206, S7[_2010]
@ src/libgcrypt.c:852:         z[0] = x[0] ^ S5[g(x, 0xD)] ^ S6[g(x, 0xF)] ^ S7[g(x, 0xC)] ^ S8[g(x, 0xE)] ^ S7[g(x, 0x8)];
	.loc 1 852 42 view .LVU1368
	ldrb	r3, [sp, #180]	@ zero_extendqisi2	@ _195, MEM[(uint8_t *)&x + 12B]
@ src/libgcrypt.c:854:         z[2] = x[3] ^ S5[g(z, 0x7)] ^ S6[g(z, 0x6)] ^ S7[g(z, 0x5)] ^ S8[g(z, 0x4)] ^ S5[g(x, 0x9)];
	.loc 1 854 90 view .LVU1369
	ldrb	lr, [sp, #178]	@ zero_extendqisi2	@ _160, MEM[(uint8_t *)&x + 10B]
@ src/libgcrypt.c:852:         z[0] = x[0] ^ S5[g(x, 0xD)] ^ S6[g(x, 0xF)] ^ S7[g(x, 0xC)] ^ S8[g(x, 0xE)] ^ S7[g(x, 0x8)];
	.loc 1 852 42 view .LVU1370
	str	r3, [sp, #48]	@ _195, %sfp
@ src/libgcrypt.c:855:         z[3] = x[1] ^ S5[g(z, 0xA)] ^ S6[g(z, 0x9)] ^ S7[g(z, 0xB)] ^ S8[g(z, 0x8)] ^ S6[g(x, 0xB)];
	.loc 1 855 90 view .LVU1371
	ldrb	r3, [sp, #176]	@ zero_extendqisi2	@ _222, MEM[(uint8_t *)&x + 8B]
	str	r3, [sp, #32]	@ _222, %sfp
	b	.L17		@
.LBE746:
	.cfi_endproc
.LFE31:
	.size	run, .-run
	.section	.text.buf_get_le32,"ax",%progbits
	.align	2
	.global	buf_get_le32
	.syntax unified
	.arm
	.fpu softvfp
	.type	buf_get_le32, %function
buf_get_le32:
.LVL200:
.LFB1:
	.loc 1 6 36 is_stmt 1 view -0
	.cfi_startproc
	@ args = 0, pretend = 0, frame = 0
	@ frame_needed = 0, uses_anonymous_args = 0
	@ link register save eliminated.
	.loc 1 7 5 view .LVU1373
@ src/libgcrypt.c:7:     if (!_buf) {
	.loc 1 7 8 is_stmt 0 view .LVU1374
	cmp	r0, #0	@ _buf
	.loc 1 7 8 view .LVU1375
	bxeq	lr	@
	.loc 1 11 5 is_stmt 1 view .LVU1376
.LVL201:
	.loc 1 13 5 view .LVU1377
	.loc 1 15 5 view .LVU1378
@ src/libgcrypt.c:15:     u32 b0 = (u32)vin[0];
	.loc 1 15 22 is_stmt 0 view .LVU1379
	ldrb	r1, [r0]	@ zero_extendqisi2	@ MEM[(const byte *)_buf_11(D)], MEM[(const byte *)_buf_11(D)]
.LVL202:
	.loc 1 16 5 is_stmt 1 view .LVU1380
@ src/libgcrypt.c:16:     u32 b1 = (u32)vin[1]; 
	.loc 1 16 22 is_stmt 0 view .LVU1381
	ldrb	r2, [r0, #1]	@ zero_extendqisi2	@ MEM[(const byte *)_buf_11(D) + 1B], MEM[(const byte *)_buf_11(D) + 1B]
.LVL203:
	.loc 1 17 5 is_stmt 1 view .LVU1382
@ src/libgcrypt.c:17:     u32 b2 = (u32)vin[2];
	.loc 1 17 22 is_stmt 0 view .LVU1383
	ldrb	r3, [r0, #2]	@ zero_extendqisi2	@ MEM[(const byte *)_buf_11(D) + 2B], MEM[(const byte *)_buf_11(D) + 2B]
.LVL204:
	.loc 1 18 5 is_stmt 1 view .LVU1384
@ src/libgcrypt.c:18:     u32 b3 = (u32)vin[3];
	.loc 1 18 22 is_stmt 0 view .LVU1385
	ldrb	ip, [r0, #3]	@ zero_extendqisi2	@ MEM[(const byte *)_buf_11(D) + 3B], MEM[(const byte *)_buf_11(D) + 3B]
.LVL205:
	.loc 1 20 5 is_stmt 1 view .LVU1386
@ src/libgcrypt.c:20:     return (b3 << 24) | (b2 << 16) | (b1 << 8) | b0;
	.loc 1 20 29 is_stmt 0 view .LVU1387
	lsl	r0, r3, #16	@ tmp140, MEM[(const byte *)_buf_11(D) + 2B],
.LVL206:
@ src/libgcrypt.c:20:     return (b3 << 24) | (b2 << 16) | (b1 << 8) | b0;
	.loc 1 20 23 view .LVU1388
	orr	r0, r0, ip, lsl #24	@ tmp141, tmp140, MEM[(const byte *)_buf_11(D) + 3B],
@ src/libgcrypt.c:20:     return (b3 << 24) | (b2 << 16) | (b1 << 8) | b0;
	.loc 1 20 48 view .LVU1389
	orr	r0, r0, r1	@ tmp142, tmp141, MEM[(const byte *)_buf_11(D)]
	orr	r0, r0, r2, lsl #8	@ <retval>, tmp142, MEM[(const byte *)_buf_11(D) + 1B],
@ src/libgcrypt.c:21: }
	.loc 1 21 1 view .LVU1390
	bx	lr	@
	.cfi_endproc
.LFE1:
	.size	buf_get_le32, .-buf_get_le32
	.section	.text.buf_put_le32,"ax",%progbits
	.align	2
	.global	buf_put_le32
	.syntax unified
	.arm
	.fpu softvfp
	.type	buf_put_le32, %function
buf_put_le32:
.LVL207:
.LFB2:
	.loc 1 23 40 is_stmt 1 view -0
	.cfi_startproc
	@ args = 0, pretend = 0, frame = 0
	@ frame_needed = 0, uses_anonymous_args = 0
	@ link register save eliminated.
	.loc 1 24 5 view .LVU1392
	.loc 1 25 5 view .LVU1393
@ src/libgcrypt.c:25:     out[3] = val >> 24;
	.loc 1 25 18 is_stmt 0 view .LVU1394
	lsr	ip, r1, #24	@ tmp122, val,
@ src/libgcrypt.c:26:     out[2] = val >> 16;
	.loc 1 26 18 view .LVU1395
	lsr	r2, r1, #16	@ tmp124, val,
@ src/libgcrypt.c:27:     out[1] = val >> 8;
	.loc 1 27 18 view .LVU1396
	lsr	r3, r1, #8	@ tmp126, val,
@ src/libgcrypt.c:25:     out[3] = val >> 24;
	.loc 1 25 12 view .LVU1397
	strb	ip, [r0, #3]	@ tmp122, MEM[(byte *)_buf_8(D) + 3B]
	.loc 1 26 5 is_stmt 1 view .LVU1398
@ src/libgcrypt.c:26:     out[2] = val >> 16;
	.loc 1 26 12 is_stmt 0 view .LVU1399
	strb	r2, [r0, #2]	@ tmp124, MEM[(byte *)_buf_8(D) + 2B]
	.loc 1 27 5 is_stmt 1 view .LVU1400
@ src/libgcrypt.c:27:     out[1] = val >> 8;
	.loc 1 27 12 is_stmt 0 view .LVU1401
	strb	r3, [r0, #1]	@ tmp126, MEM[(byte *)_buf_8(D) + 1B]
	.loc 1 28 5 is_stmt 1 view .LVU1402
@ src/libgcrypt.c:28:     out[0] = val;
	.loc 1 28 12 is_stmt 0 view .LVU1403
	strb	r1, [r0]	@ val, MEM[(byte *)_buf_8(D)]
@ src/libgcrypt.c:29: }
	.loc 1 29 1 view .LVU1404
	bx	lr	@
	.cfi_endproc
.LFE2:
	.size	buf_put_le32, .-buf_put_le32
	.section	.text.cipher_block_xor_2dst,"ax",%progbits
	.align	2
	.global	cipher_block_xor_2dst
	.syntax unified
	.arm
	.fpu softvfp
	.type	cipher_block_xor_2dst, %function
cipher_block_xor_2dst:
.LVL208:
.LFB3:
	.loc 1 34 90 is_stmt 1 view -0
	.cfi_startproc
	@ args = 0, pretend = 0, frame = 0
	@ frame_needed = 0, uses_anonymous_args = 0
@ src/libgcrypt.c:39:     if (blocksize == 8) {
	.loc 1 39 8 is_stmt 0 view .LVU1406
	cmp	r3, #8	@ tmp164,
	.loc 1 35 5 is_stmt 1 view .LVU1407
	.loc 1 36 5 view .LVU1408
.LVL209:
	.loc 1 37 5 view .LVU1409
	sub	ip, r1, #1	@ ivtmp.340, _dst2,
@ src/libgcrypt.c:34: void cipher_block_xor_2dst(void *_dst1, void *_dst2, const void *_src, size_t blocksize) {
	.loc 1 34 90 is_stmt 0 view .LVU1410
	str	lr, [sp, #-4]!	@,
	.cfi_def_cfa_offset 4
	.cfi_offset 14, -4
	sub	lr, r2, #1	@ ivtmp.343, _src,
	sub	r2, r0, #1	@ ivtmp.346, _dst1,
.LVL210:
	.loc 1 39 5 is_stmt 1 view .LVU1411
	addne	r0, r1, #15	@ _68, _dst2,
.LVL211:
@ src/libgcrypt.c:39:     if (blocksize == 8) {
	.loc 1 39 8 is_stmt 0 view .LVU1412
	beq	.L132		@,
.LVL212:
.L127:
.LBB756:
.LBB757:
	.loc 1 48 13 is_stmt 1 discriminator 3 view .LVU1413
@ src/libgcrypt.c:48:             byte temp = dst2[i] ^ src[i];
	.loc 1 48 18 is_stmt 0 discriminator 3 view .LVU1414
	ldrb	r3, [ip, #1]!	@ zero_extendqisi2	@ MEM[base: _63, offset: 0B], MEM[base: _63, offset: 0B]
.LVL213:
	.loc 1 48 18 discriminator 3 view .LVU1415
	ldrb	r1, [lr, #1]!	@ zero_extendqisi2	@ MEM[base: _65, offset: 0B], MEM[base: _65, offset: 0B]
.LBE757:
@ src/libgcrypt.c:47:         for (size_t i = 0; i < 16; i++) {
	.loc 1 47 9 discriminator 3 view .LVU1416
	cmp	ip, r0	@ ivtmp.354, _68
.LBB758:
@ src/libgcrypt.c:48:             byte temp = dst2[i] ^ src[i];
	.loc 1 48 18 discriminator 3 view .LVU1417
	eor	r3, r3, r1	@ temp, MEM[base: _63, offset: 0B], MEM[base: _65, offset: 0B]
.LVL214:
	.loc 1 49 13 is_stmt 1 discriminator 3 view .LVU1418
@ src/libgcrypt.c:49:             dst2[i] = temp;
	.loc 1 49 21 is_stmt 0 discriminator 3 view .LVU1419
	strb	r3, [ip]	@ temp, MEM[base: _63, offset: 0B]
	.loc 1 50 13 is_stmt 1 discriminator 3 view .LVU1420
@ src/libgcrypt.c:50:             dst1[i] = temp;
	.loc 1 50 21 is_stmt 0 discriminator 3 view .LVU1421
	strb	r3, [r2, #1]!	@ temp, MEM[base: _66, offset: 0B]
.LBE758:
	.loc 1 47 36 is_stmt 1 discriminator 3 view .LVU1422
.LVL215:
	.loc 1 47 28 discriminator 3 view .LVU1423
@ src/libgcrypt.c:47:         for (size_t i = 0; i < 16; i++) {
	.loc 1 47 9 is_stmt 0 discriminator 3 view .LVU1424
	bne	.L127		@,
	ldr	pc, [sp], #4	@
.LVL216:
.L132:
	.loc 1 47 9 discriminator 3 view .LVU1425
	add	r0, r1, #7	@ _50, _dst2,
.LVL217:
.L125:
	.loc 1 47 9 discriminator 3 view .LVU1426
.LBE756:
.LBB759:
.LBB760:
.LBB761:
.LBB762:
	.loc 1 41 13 is_stmt 1 view .LVU1427
@ src/libgcrypt.c:41:             byte temp = dst2[i] ^ src[i];
	.loc 1 41 18 is_stmt 0 view .LVU1428
	ldrb	r3, [ip, #1]!	@ zero_extendqisi2	@ MEM[base: _41, offset: 0B], MEM[base: _41, offset: 0B]
.LVL218:
	.loc 1 41 18 view .LVU1429
	ldrb	r1, [lr, #1]!	@ zero_extendqisi2	@ MEM[base: _1, offset: 0B], MEM[base: _1, offset: 0B]
.LBE762:
@ src/libgcrypt.c:40:         for (size_t i = 0; i < 8; i++) {
	.loc 1 40 9 view .LVU1430
	cmp	ip, r0	@ ivtmp.340, _50
.LBB763:
@ src/libgcrypt.c:41:             byte temp = dst2[i] ^ src[i];
	.loc 1 41 18 view .LVU1431
	eor	r3, r3, r1	@ temp, MEM[base: _41, offset: 0B], MEM[base: _1, offset: 0B]
.LVL219:
	.loc 1 42 13 is_stmt 1 view .LVU1432
@ src/libgcrypt.c:42:             dst2[i] = temp;
	.loc 1 42 21 is_stmt 0 view .LVU1433
	strb	r3, [ip]	@ temp, MEM[base: _41, offset: 0B]
	.loc 1 43 13 is_stmt 1 view .LVU1434
@ src/libgcrypt.c:43:             dst1[i] = temp;
	.loc 1 43 21 is_stmt 0 view .LVU1435
	strb	r3, [r2, #1]!	@ temp, MEM[base: _48, offset: 0B]
.LBE763:
	.loc 1 40 35 is_stmt 1 view .LVU1436
.LVL220:
	.loc 1 40 28 view .LVU1437
@ src/libgcrypt.c:40:         for (size_t i = 0; i < 8; i++) {
	.loc 1 40 9 is_stmt 0 view .LVU1438
	bne	.L125		@,
	ldr	pc, [sp], #4	@
.LBE761:
.LBE760:
.LBE759:
	.cfi_endproc
.LFE3:
	.size	cipher_block_xor_2dst, .-cipher_block_xor_2dst
	.section	.text.buf_xor_2dst,"ax",%progbits
	.align	2
	.global	buf_xor_2dst
	.syntax unified
	.arm
	.fpu softvfp
	.type	buf_xor_2dst, %function
buf_xor_2dst:
.LVL221:
.LFB5:
	.loc 1 67 75 is_stmt 1 view -0
	.cfi_startproc
	@ args = 0, pretend = 0, frame = 0
	@ frame_needed = 0, uses_anonymous_args = 0
.LBB764:
@ src/libgcrypt.c:75:     for (size_t i = 0; i < len; i++) {
	.loc 1 75 5 is_stmt 0 view .LVU1440
	cmp	r3, #0	@ len
	.loc 1 75 5 view .LVU1441
.LBE764:
	.loc 1 68 5 is_stmt 1 view .LVU1442
.LVL222:
	.loc 1 69 5 view .LVU1443
	.loc 1 70 5 view .LVU1444
	.loc 1 75 5 view .LVU1445
.LBB765:
	.loc 1 75 10 view .LVU1446
	.loc 1 75 24 view .LVU1447
@ src/libgcrypt.c:75:     for (size_t i = 0; i < len; i++) {
	.loc 1 75 5 is_stmt 0 view .LVU1448
	bxeq	lr	@
	sub	r3, r3, #1	@ tmp132, len,
.LVL223:
	.loc 1 75 5 view .LVU1449
	sub	ip, r1, #1	@ ivtmp.369, _dst2,
.LBE765:
@ src/libgcrypt.c:67: void buf_xor_2dst(void *_dst1, void *_dst2, const void *_src, size_t len) {
	.loc 1 67 75 view .LVU1450
	str	lr, [sp, #-4]!	@,
	.cfi_def_cfa_offset 4
	.cfi_offset 14, -4
	sub	r2, r2, #1	@ ivtmp.372, _src,
.LVL224:
	.loc 1 67 75 view .LVU1451
	add	lr, r1, r3	@ _36, _dst2, tmp132
	sub	r0, r0, #1	@ ivtmp.375, _dst1,
.LVL225:
.L135:
.LBB766:
	.loc 1 76 9 is_stmt 1 discriminator 3 view .LVU1452
@ src/libgcrypt.c:76:         iv[i] ^= src[i];
	.loc 1 76 15 is_stmt 0 discriminator 3 view .LVU1453
	ldrb	r3, [ip, #1]!	@ zero_extendqisi2	@ MEM[base: _30, offset: 0B], MEM[base: _30, offset: 0B]
.LVL226:
	.loc 1 76 15 discriminator 3 view .LVU1454
	ldrb	r1, [r2, #1]!	@ zero_extendqisi2	@ MEM[base: _32, offset: 0B], MEM[base: _32, offset: 0B]
@ src/libgcrypt.c:75:     for (size_t i = 0; i < len; i++) {
	.loc 1 75 5 discriminator 3 view .LVU1455
	cmp	ip, lr	@ ivtmp.369, _36
@ src/libgcrypt.c:76:         iv[i] ^= src[i];
	.loc 1 76 15 discriminator 3 view .LVU1456
	eor	r3, r3, r1	@ _5, MEM[base: _30, offset: 0B], MEM[base: _32, offset: 0B]
	strb	r3, [ip]	@ _5, MEM[base: _30, offset: 0B]
	.loc 1 77 9 is_stmt 1 discriminator 3 view .LVU1457
@ src/libgcrypt.c:77:         dst1[i] = iv[i];
	.loc 1 77 17 is_stmt 0 discriminator 3 view .LVU1458
	strb	r3, [r0, #1]!	@ _5, MEM[base: _33, offset: 0B]
	.loc 1 75 33 is_stmt 1 discriminator 3 view .LVU1459
.LVL227:
	.loc 1 75 24 discriminator 3 view .LVU1460
@ src/libgcrypt.c:75:     for (size_t i = 0; i < len; i++) {
	.loc 1 75 5 is_stmt 0 discriminator 3 view .LVU1461
	bne	.L135		@,
	ldr	pc, [sp], #4	@
.LBE766:
	.cfi_endproc
.LFE5:
	.size	buf_xor_2dst, .-buf_xor_2dst
	.section	.text.cipher_block_cpy,"ax",%progbits
	.align	2
	.global	cipher_block_cpy
	.syntax unified
	.arm
	.fpu softvfp
	.type	cipher_block_cpy, %function
cipher_block_cpy:
.LVL228:
.LFB6:
	.loc 1 85 71 is_stmt 1 view -0
	.cfi_startproc
	@ args = 0, pretend = 0, frame = 0
	@ frame_needed = 0, uses_anonymous_args = 0
@ src/libgcrypt.c:90:     if (blocksize == 8) {
	.loc 1 90 8 is_stmt 0 view .LVU1463
	cmp	r2, #8	@ tmp140,
@ src/libgcrypt.c:85: void cipher_block_cpy(void *_dst, const void *_src, size_t blocksize) {
	.loc 1 85 71 view .LVU1464
	push	{r4, r5, r6, r7, r8, lr}	@
	.cfi_def_cfa_offset 24
	.cfi_offset 4, -24
	.cfi_offset 5, -20
	.cfi_offset 6, -16
	.cfi_offset 7, -12
	.cfi_offset 8, -8
	.cfi_offset 14, -4
@ src/libgcrypt.c:85: void cipher_block_cpy(void *_dst, const void *_src, size_t blocksize) {
	.loc 1 85 71 view .LVU1465
	mov	r4, r0	@ _dst, tmp138
	mov	r5, r1	@ _src, tmp139
	.loc 1 86 5 is_stmt 1 view .LVU1466
.LVL229:
	.loc 1 87 5 view .LVU1467
	.loc 1 88 5 view .LVU1468
	.loc 1 90 5 view .LVU1469
@ src/libgcrypt.c:91:         s[0] = buf_get_he32(src);
	.loc 1 91 16 is_stmt 0 view .LVU1470
	mov	r0, r1	@, _src
.LVL230:
@ src/libgcrypt.c:90:     if (blocksize == 8) {
	.loc 1 90 8 view .LVU1471
	beq	.L147		@,
.LVL231:
.LBB769:
.LBI769:
	.loc 1 85 6 is_stmt 1 view .LVU1472
.LBB770:
	.loc 1 97 9 view .LVU1473
@ src/libgcrypt.c:97:         s[0] = buf_get_he32(src);
	.loc 1 97 16 is_stmt 0 view .LVU1474
	bl	buf_get_le32(PLT)	@
.LVL232:
	.loc 1 97 16 view .LVU1475
	mov	r8, r0	@ tmp143,
@ src/libgcrypt.c:98:         s[1] = buf_get_he32(src + 4);
	.loc 1 98 16 view .LVU1476
	add	r0, r5, #4	@, _src,
.LVL233:
	.loc 1 98 9 is_stmt 1 view .LVU1477
@ src/libgcrypt.c:98:         s[1] = buf_get_he32(src + 4);
	.loc 1 98 16 is_stmt 0 view .LVU1478
	bl	buf_get_le32(PLT)	@
.LVL234:
	mov	r7, r0	@ tmp144,
@ src/libgcrypt.c:99:         s[2] = buf_get_he32(src + 8);
	.loc 1 99 16 view .LVU1479
	add	r0, r5, #8	@, _src,
.LVL235:
	.loc 1 99 9 is_stmt 1 view .LVU1480
@ src/libgcrypt.c:99:         s[2] = buf_get_he32(src + 8);
	.loc 1 99 16 is_stmt 0 view .LVU1481
	bl	buf_get_le32(PLT)	@
.LVL236:
	mov	r6, r0	@ tmp145,
@ src/libgcrypt.c:100:         s[3] = buf_get_he32(src + 12);
	.loc 1 100 16 view .LVU1482
	add	r0, r5, #12	@, _src,
.LVL237:
	.loc 1 100 9 is_stmt 1 view .LVU1483
@ src/libgcrypt.c:100:         s[3] = buf_get_he32(src + 12);
	.loc 1 100 16 is_stmt 0 view .LVU1484
	bl	buf_get_le32(PLT)	@
.LVL238:
	mov	r5, r0	@ _21, tmp146
.LVL239:
	.loc 1 101 9 is_stmt 1 view .LVU1485
	mov	r1, r8	@, _15
	mov	r0, r4	@, _dst
.LVL240:
	.loc 1 101 9 is_stmt 0 view .LVU1486
	bl	buf_put_le32(PLT)	@
.LVL241:
	.loc 1 102 9 is_stmt 1 view .LVU1487
	mov	r1, r7	@, _17
	add	r0, r4, #4	@, _dst,
	bl	buf_put_le32(PLT)	@
.LVL242:
	.loc 1 103 9 view .LVU1488
	mov	r1, r6	@, _19
	add	r0, r4, #8	@, _dst,
	bl	buf_put_le32(PLT)	@
.LVL243:
	.loc 1 104 9 view .LVU1489
	mov	r1, r5	@, _21
	add	r0, r4, #12	@, _dst,
.LBE770:
.LBE769:
@ src/libgcrypt.c:106: }
	.loc 1 106 1 is_stmt 0 view .LVU1490
	pop	{r4, r5, r6, r7, r8, lr}	@
	.cfi_remember_state
	.cfi_restore 14
	.cfi_restore 8
	.cfi_restore 7
	.cfi_restore 6
	.cfi_restore 5
	.cfi_restore 4
	.cfi_def_cfa_offset 0
.LVL244:
.LBB772:
.LBB771:
@ src/libgcrypt.c:104:         buf_put_he32(dst + 12, s[3]);
	.loc 1 104 9 view .LVU1491
	b	buf_put_le32(PLT)	@
.LVL245:
.L147:
	.cfi_restore_state
	.loc 1 104 9 view .LVU1492
.LBE771:
.LBE772:
	.loc 1 91 9 is_stmt 1 view .LVU1493
@ src/libgcrypt.c:91:         s[0] = buf_get_he32(src);
	.loc 1 91 16 is_stmt 0 view .LVU1494
	bl	buf_get_le32(PLT)	@
.LVL246:
	.loc 1 91 16 view .LVU1495
	mov	r6, r0	@ tmp141,
@ src/libgcrypt.c:92:         s[1] = buf_get_he32(src + 4);
	.loc 1 92 16 view .LVU1496
	add	r0, r5, #4	@, _src,
.LVL247:
	.loc 1 92 9 is_stmt 1 view .LVU1497
@ src/libgcrypt.c:92:         s[1] = buf_get_he32(src + 4);
	.loc 1 92 16 is_stmt 0 view .LVU1498
	bl	buf_get_le32(PLT)	@
.LVL248:
	mov	r5, r0	@ _3, tmp142
.LVL249:
	.loc 1 93 9 is_stmt 1 view .LVU1499
	mov	r1, r6	@, _1
	mov	r0, r4	@, _dst
.LVL250:
	.loc 1 93 9 is_stmt 0 view .LVU1500
	bl	buf_put_le32(PLT)	@
.LVL251:
	.loc 1 94 9 is_stmt 1 view .LVU1501
	mov	r1, r5	@, _3
	add	r0, r4, #4	@, _dst,
@ src/libgcrypt.c:106: }
	.loc 1 106 1 is_stmt 0 view .LVU1502
	pop	{r4, r5, r6, r7, r8, lr}	@
	.cfi_restore 14
	.cfi_restore 8
	.cfi_restore 7
	.cfi_restore 6
	.cfi_restore 5
	.cfi_restore 4
	.cfi_def_cfa_offset 0
.LVL252:
@ src/libgcrypt.c:94:         buf_put_he32(dst + 4, s[1]);
	.loc 1 94 9 view .LVU1503
	b	buf_put_le32(PLT)	@
.LVL253:
	.loc 1 94 9 view .LVU1504
	.cfi_endproc
.LFE6:
	.size	cipher_block_cpy, .-cipher_block_cpy
	.section	.text.cipher_block_xor_n_copy_2,"ax",%progbits
	.align	2
	.global	cipher_block_xor_n_copy_2
	.syntax unified
	.arm
	.fpu softvfp
	.type	cipher_block_xor_n_copy_2, %function
cipher_block_xor_n_copy_2:
.LVL254:
.LFB7:
	.loc 1 110 49 is_stmt 1 view -0
	.cfi_startproc
	@ args = 4, pretend = 0, frame = 0
	@ frame_needed = 0, uses_anonymous_args = 0
	.loc 1 112 5 view .LVU1506
@ src/libgcrypt.c:110:                               size_t blocksize) {
	.loc 1 110 49 is_stmt 0 view .LVU1507
	push	{r3, r4, r5, r6, r7, r8, r9, r10, fp, lr}	@
	.cfi_def_cfa_offset 40
	.cfi_offset 3, -40
	.cfi_offset 4, -36
	.cfi_offset 5, -32
	.cfi_offset 6, -28
	.cfi_offset 7, -24
	.cfi_offset 8, -20
	.cfi_offset 9, -16
	.cfi_offset 10, -12
	.cfi_offset 11, -8
	.cfi_offset 14, -4
@ src/libgcrypt.c:110:                               size_t blocksize) {
	.loc 1 110 49 view .LVU1508
	mov	r8, r0	@ dst_xor, tmp154
.LVL255:
	.loc 1 113 5 is_stmt 1 view .LVU1509
@ src/libgcrypt.c:110:                               size_t blocksize) {
	.loc 1 110 49 is_stmt 0 view .LVU1510
	ldr	ip, [sp, #40]	@ blocksize, blocksize
	mov	r9, r1	@ src_xor, tmp155
	mov	r7, r2	@ srcdst_cpy, tmp156
.LVL256:
	.loc 1 114 5 is_stmt 1 view .LVU1511
	.loc 1 115 5 view .LVU1512
@ src/libgcrypt.c:110:                               size_t blocksize) {
	.loc 1 110 49 is_stmt 0 view .LVU1513
	mov	r10, r3	@ src_cpy, tmp157
.LVL257:
	.loc 1 116 5 is_stmt 1 view .LVU1514
	.loc 1 118 5 view .LVU1515
@ src/libgcrypt.c:118:     if (blocksize == 8) {
	.loc 1 118 8 is_stmt 0 view .LVU1516
	cmp	ip, #8	@ blocksize,
	movne	r4, #0	@ ivtmp.392,
	beq	.L154		@,
.LVL258:
.L149:
.LBB773:
	.loc 1 133 13 is_stmt 1 discriminator 3 view .LVU1517
@ src/libgcrypt.c:133:             sc[i] = buf_get_he32(src_cpy_p + i*4);
	.loc 1 133 21 is_stmt 0 discriminator 3 view .LVU1518
	add	r0, r10, r4	@, src_cpy, ivtmp.392
	add	fp, r7, r4	@ _57, srcdst_cpy, ivtmp.392
	bl	buf_get_le32(PLT)	@
.LVL259:
	mov	r5, r0	@ tmp164,
@ src/libgcrypt.c:134:             sdc[i] = buf_get_he32(srcdst_cpy_p + i*4);
	.loc 1 134 22 discriminator 3 view .LVU1519
	mov	r0, fp	@, _57
	.loc 1 134 13 is_stmt 1 discriminator 3 view .LVU1520
@ src/libgcrypt.c:134:             sdc[i] = buf_get_he32(srcdst_cpy_p + i*4);
	.loc 1 134 22 is_stmt 0 discriminator 3 view .LVU1521
	bl	buf_get_le32(PLT)	@
.LVL260:
	mov	r6, r0	@ tmp165,
@ src/libgcrypt.c:135:             sx[i] = buf_get_he32(src_xor_p + i*4) ^ sdc[i];
	.loc 1 135 21 discriminator 3 view .LVU1522
	add	r0, r9, r4	@, src_xor, ivtmp.392
	.loc 1 135 13 is_stmt 1 discriminator 3 view .LVU1523
@ src/libgcrypt.c:135:             sx[i] = buf_get_he32(src_xor_p + i*4) ^ sdc[i];
	.loc 1 135 21 is_stmt 0 discriminator 3 view .LVU1524
	bl	buf_get_le32(PLT)	@
.LVL261:
	.loc 1 137 13 is_stmt 1 discriminator 3 view .LVU1525
	eor	r1, r6, r0	@, _18, tmp166
	add	r0, r8, r4	@, dst_xor, ivtmp.392
@ src/libgcrypt.c:132:         for(int i = 0; i < 4; i++) {
	.loc 1 132 9 is_stmt 0 discriminator 3 view .LVU1526
	add	r4, r4, #4	@ ivtmp.392, ivtmp.392,
@ src/libgcrypt.c:137:             buf_put_he32(dst_xor_p + i*4, sx[i]);
	.loc 1 137 13 discriminator 3 view .LVU1527
	bl	buf_put_le32(PLT)	@
.LVL262:
	.loc 1 138 13 is_stmt 1 discriminator 3 view .LVU1528
	mov	r1, r5	@, _16
	mov	r0, fp	@, _57
	bl	buf_put_le32(PLT)	@
.LVL263:
	.loc 1 132 31 discriminator 3 view .LVU1529
	.loc 1 132 24 discriminator 3 view .LVU1530
@ src/libgcrypt.c:132:         for(int i = 0; i < 4; i++) {
	.loc 1 132 9 is_stmt 0 discriminator 3 view .LVU1531
	cmp	r4, #16	@ ivtmp.392,
	bne	.L149		@,
	pop	{r3, r4, r5, r6, r7, r8, r9, r10, fp, pc}	@
.LVL264:
.L154:
	.loc 1 132 9 discriminator 3 view .LVU1532
.LBE773:
	.loc 1 119 9 is_stmt 1 view .LVU1533
@ src/libgcrypt.c:119:         sc[0] = buf_get_he32(src_cpy_p + 0);
	.loc 1 119 17 is_stmt 0 view .LVU1534
	mov	r0, r3	@, src_cpy
.LVL265:
@ src/libgcrypt.c:122:         sdc[1] = buf_get_he32(srcdst_cpy_p + 4);
	.loc 1 122 44 view .LVU1535
	add	fp, r7, #4	@ _5, srcdst_cpy,
@ src/libgcrypt.c:119:         sc[0] = buf_get_he32(src_cpy_p + 0);
	.loc 1 119 17 view .LVU1536
	bl	buf_get_le32(PLT)	@
.LVL266:
	.loc 1 119 17 view .LVU1537
	mov	r3, r0	@ tmp158,
@ src/libgcrypt.c:120:         sc[1] = buf_get_he32(src_cpy_p + 4);
	.loc 1 120 17 view .LVU1538
	add	r0, r10, #4	@, src_cpy,
@ src/libgcrypt.c:119:         sc[0] = buf_get_he32(src_cpy_p + 0);
	.loc 1 119 17 view .LVU1539
	mov	r10, r3	@ _1, tmp158
.LVL267:
	.loc 1 120 9 is_stmt 1 view .LVU1540
@ src/libgcrypt.c:120:         sc[1] = buf_get_he32(src_cpy_p + 4);
	.loc 1 120 17 is_stmt 0 view .LVU1541
	bl	buf_get_le32(PLT)	@
.LVL268:
	.loc 1 120 17 view .LVU1542
	mov	r6, r0	@ _3, tmp159
	.loc 1 121 9 is_stmt 1 view .LVU1543
@ src/libgcrypt.c:121:         sdc[0] = buf_get_he32(srcdst_cpy_p);
	.loc 1 121 18 is_stmt 0 view .LVU1544
	mov	r0, r7	@, srcdst_cpy
	bl	buf_get_le32(PLT)	@
.LVL269:
	mov	r5, r0	@ _4, tmp160
	.loc 1 122 9 is_stmt 1 view .LVU1545
@ src/libgcrypt.c:122:         sdc[1] = buf_get_he32(srcdst_cpy_p + 4);
	.loc 1 122 18 is_stmt 0 view .LVU1546
	mov	r0, fp	@, _5
	bl	buf_get_le32(PLT)	@
.LVL270:
	mov	r4, r0	@ _6, tmp161
	.loc 1 123 9 is_stmt 1 view .LVU1547
@ src/libgcrypt.c:123:         sx[0] = buf_get_he32(src_xor_p) ^ sdc[0];
	.loc 1 123 17 is_stmt 0 view .LVU1548
	mov	r0, r9	@, src_xor
	bl	buf_get_le32(PLT)	@
.LVL271:
@ src/libgcrypt.c:123:         sx[0] = buf_get_he32(src_xor_p) ^ sdc[0];
	.loc 1 123 41 view .LVU1549
	eor	r5, r5, r0	@ _8, _4, tmp162
	.loc 1 124 9 is_stmt 1 view .LVU1550
@ src/libgcrypt.c:124:         sx[1] = buf_get_he32(src_xor_p + 4) ^ sdc[1];
	.loc 1 124 17 is_stmt 0 view .LVU1551
	add	r0, r9, #4	@, src_xor,
	bl	buf_get_le32(PLT)	@
.LVL272:
@ src/libgcrypt.c:124:         sx[1] = buf_get_he32(src_xor_p + 4) ^ sdc[1];
	.loc 1 124 45 view .LVU1552
	eor	r4, r4, r0	@ _11, _6, tmp163
	.loc 1 126 9 is_stmt 1 view .LVU1553
	mov	r1, r5	@, _8
	mov	r0, r8	@, dst_xor
	bl	buf_put_le32(PLT)	@
.LVL273:
	.loc 1 127 9 view .LVU1554
	mov	r1, r4	@, _11
	add	r0, r8, #4	@, dst_xor,
	bl	buf_put_le32(PLT)	@
.LVL274:
	.loc 1 128 9 view .LVU1555
	mov	r1, r10	@, _1
	mov	r0, r7	@, srcdst_cpy
	bl	buf_put_le32(PLT)	@
.LVL275:
	.loc 1 129 9 view .LVU1556
	mov	r1, r6	@, _3
	mov	r0, fp	@, _5
@ src/libgcrypt.c:141: }
	.loc 1 141 1 is_stmt 0 view .LVU1557
	pop	{r3, r4, r5, r6, r7, r8, r9, r10, fp, lr}	@
	.cfi_restore 14
	.cfi_restore 11
	.cfi_restore 10
	.cfi_restore 9
	.cfi_restore 8
	.cfi_restore 7
	.cfi_restore 6
	.cfi_restore 5
	.cfi_restore 4
	.cfi_restore 3
	.cfi_def_cfa_offset 0
.LVL276:
@ src/libgcrypt.c:129:         buf_put_he32(srcdst_cpy_p + 4, sc[1]);
	.loc 1 129 9 view .LVU1558
	b	buf_put_le32(PLT)	@
.LVL277:
	.loc 1 129 9 view .LVU1559
	.cfi_endproc
.LFE7:
	.size	cipher_block_xor_n_copy_2, .-cipher_block_xor_n_copy_2
	.section	.text.buf_xor_n_copy_2,"ax",%progbits
	.align	2
	.global	buf_xor_n_copy_2
	.syntax unified
	.arm
	.fpu softvfp
	.type	buf_xor_n_copy_2, %function
buf_xor_n_copy_2:
.LVL278:
.LFB8:
	.loc 1 144 76 is_stmt 1 view -0
	.cfi_startproc
	@ args = 4, pretend = 0, frame = 16
	@ frame_needed = 0, uses_anonymous_args = 0
	.loc 1 144 76 is_stmt 0 view .LVU1561
	push	{r4, r5, r6, r7, r8, r9, r10, fp, lr}	@
	.cfi_def_cfa_offset 36
	.cfi_offset 4, -36
	.cfi_offset 5, -32
	.cfi_offset 6, -28
	.cfi_offset 7, -24
	.cfi_offset 8, -20
	.cfi_offset 9, -16
	.cfi_offset 10, -12
	.cfi_offset 11, -8
	.cfi_offset 14, -4
	sub	sp, sp, #20	@,,
	.cfi_def_cfa_offset 56
@ src/libgcrypt.c:144:                       void *_srcdst_cpy, const void *_src_cpy, size_t len) {
	.loc 1 144 76 view .LVU1562
	mov	r5, r0	@ _dst_xor, tmp174
	mov	r6, r1	@ _src_xor, tmp175
	.loc 1 146 5 is_stmt 1 view .LVU1563
.LVL279:
	.loc 1 147 5 view .LVU1564
	.loc 1 148 5 view .LVU1565
	.loc 1 149 5 view .LVU1566
@ src/libgcrypt.c:151:     while (len >= sizeof(u32)) {
	.loc 1 151 11 is_stmt 0 view .LVU1567
	ldr	ip, [sp, #56]	@ tmp195, len
@ src/libgcrypt.c:144:                       void *_srcdst_cpy, const void *_src_cpy, size_t len) {
	.loc 1 144 76 view .LVU1568
	mov	r7, r3	@ _src_cpy, tmp177
.LVL280:
	.loc 1 151 5 is_stmt 1 view .LVU1569
	.loc 1 151 11 view .LVU1570
@ src/libgcrypt.c:144:                       void *_srcdst_cpy, const void *_src_cpy, size_t len) {
	.loc 1 144 76 is_stmt 0 view .LVU1571
	str	r2, [sp]	@ _srcdst_cpy, %sfp
@ src/libgcrypt.c:151:     while (len >= sizeof(u32)) {
	.loc 1 151 11 view .LVU1572
	cmp	ip, #3	@ tmp195,
	bls	.L160		@,
	add	fp, r2, ip	@ tmp172, _srcdst_cpy, tmp197
	mov	r4, ip	@ len, tmp197
	add	r10, r7, ip	@ tmp173, _src_cpy, tmp199
	add	r9, r1, ip	@ tmp171, _src_xor, tmp201
	add	r8, r0, ip	@ tmp170, _dst_xor, tmp203
	stmib	sp, {r5, r6, r7}	@,,,
.LVL281:
.L157:
.LBB774:
@ src/libgcrypt.c:153:         u32 temp = buf_get_he32(src_cpy);
	.loc 1 153 20 view .LVU1573
	sub	r0, r10, r4	@, tmp173, len
	sub	r5, fp, r4	@ _88, tmp172, len
.LVL282:
	.loc 1 153 9 is_stmt 1 view .LVU1574
@ src/libgcrypt.c:153:         u32 temp = buf_get_he32(src_cpy);
	.loc 1 153 20 is_stmt 0 view .LVU1575
	bl	buf_get_le32(PLT)	@
.LVL283:
	mov	r6, r0	@ tmp178,
@ src/libgcrypt.c:154:         buf_put_he32(dst_xor, buf_get_he32(srcdst_cpy) ^ buf_get_he32(src_xor));
	.loc 1 154 31 view .LVU1576
	mov	r0, r5	@, _88
.LVL284:
	.loc 1 154 9 is_stmt 1 view .LVU1577
@ src/libgcrypt.c:154:         buf_put_he32(dst_xor, buf_get_he32(srcdst_cpy) ^ buf_get_he32(src_xor));
	.loc 1 154 31 is_stmt 0 view .LVU1578
	bl	buf_get_le32(PLT)	@
.LVL285:
	mov	r7, r0	@ tmp179,
@ src/libgcrypt.c:154:         buf_put_he32(dst_xor, buf_get_he32(srcdst_cpy) ^ buf_get_he32(src_xor));
	.loc 1 154 58 view .LVU1579
	sub	r0, r9, r4	@, tmp171, len
	bl	buf_get_le32(PLT)	@
.LVL286:
@ src/libgcrypt.c:154:         buf_put_he32(dst_xor, buf_get_he32(srcdst_cpy) ^ buf_get_he32(src_xor));
	.loc 1 154 9 view .LVU1580
	eor	r1, r7, r0	@, _1, tmp180
	sub	r0, r8, r4	@, tmp170, len
@ src/libgcrypt.c:160:         len -= sizeof(u32);
	.loc 1 160 13 view .LVU1581
	sub	r4, r4, #4	@ len, len,
.LVL287:
@ src/libgcrypt.c:154:         buf_put_he32(dst_xor, buf_get_he32(srcdst_cpy) ^ buf_get_he32(src_xor));
	.loc 1 154 9 view .LVU1582
	bl	buf_put_le32(PLT)	@
.LVL288:
	.loc 1 155 9 is_stmt 1 view .LVU1583
	mov	r1, r6	@, temp
	mov	r0, r5	@, _88
	bl	buf_put_le32(PLT)	@
.LVL289:
	.loc 1 156 9 view .LVU1584
	.loc 1 157 9 view .LVU1585
	.loc 1 158 9 view .LVU1586
	.loc 1 159 9 view .LVU1587
	.loc 1 160 9 view .LVU1588
	.loc 1 160 9 is_stmt 0 view .LVU1589
.LBE774:
	.loc 1 151 11 is_stmt 1 view .LVU1590
	cmp	r4, #3	@ len,
	bhi	.L157		@,
	ldr	r3, [sp, #56]	@ tmp204, len
	ldmib	sp, {r5, r6, r7}	@,,,
.LVL290:
	.loc 1 151 11 is_stmt 0 view .LVU1591
	sub	r2, r3, #4	@ tmp160, tmp204,
	bic	r2, r2, #3	@ tmp162, tmp160,
.LBB775:
@ src/libgcrypt.c:160:         len -= sizeof(u32);
	.loc 1 160 13 view .LVU1592
	and	r3, r3, #3	@ len, tmp205,
@ src/libgcrypt.c:157:         srcdst_cpy += sizeof(u32);
	.loc 1 157 20 view .LVU1593
	ldr	r1, [sp]	@ _srcdst_cpy, %sfp
	add	r2, r2, #4	@ _10, tmp162,
@ src/libgcrypt.c:156:         dst_xor += sizeof(u32);
	.loc 1 156 17 view .LVU1594
	add	r5, r5, r2	@ _dst_xor, _dst_xor, _10
@ src/libgcrypt.c:158:         src_xor += sizeof(u32);
	.loc 1 158 17 view .LVU1595
	add	r6, r6, r2	@ _src_xor, _src_xor, _10
@ src/libgcrypt.c:159:         src_cpy += sizeof(u32);
	.loc 1 159 17 view .LVU1596
	add	r7, r7, r2	@ _src_cpy, _src_cpy, _10
@ src/libgcrypt.c:157:         srcdst_cpy += sizeof(u32);
	.loc 1 157 20 view .LVU1597
	add	r1, r1, r2	@ _srcdst_cpy, _srcdst_cpy, _10
	str	r1, [sp]	@ _srcdst_cpy, %sfp
.LVL291:
.L156:
	.loc 1 157 20 view .LVU1598
.LBE775:
	.loc 1 163 12 is_stmt 1 view .LVU1599
@ src/libgcrypt.c:163:     for (; len; len--) {
	.loc 1 163 5 is_stmt 0 view .LVU1600
	cmp	r3, #0	@ len,
	beq	.L155		@,
	.loc 1 163 5 view .LVU1601
	ldr	r2, [sp]	@ _srcdst_cpy, %sfp
	add	r3, r5, r3	@ _78, _dst_xor, len
.LVL292:
	.loc 1 163 5 view .LVU1602
	sub	r2, r2, #1	@ ivtmp.412, _srcdst_cpy,
.L159:
.LBB776:
	.loc 1 165 9 is_stmt 1 discriminator 2 view .LVU1603
.LVL293:
@ src/libgcrypt.c:166:         *dst_xor++ = *srcdst_cpy ^ *src_xor++;
	.loc 1 166 20 is_stmt 0 discriminator 2 view .LVU1604
	ldrb	r1, [r2, #1]!	@ zero_extendqisi2	@ MEM[base: _76, offset: 0B], MEM[base: _76, offset: 0B]
	ldrb	ip, [r6], #1	@ zero_extendqisi2	@ MEM[base: src_xor_27, offset: 4294967295B], MEM[base: src_xor_27, offset: 4294967295B]
.LVL294:
@ src/libgcrypt.c:165:         byte temp = *src_cpy++;
	.loc 1 165 14 discriminator 2 view .LVU1605
	ldrb	r0, [r7], #1	@ zero_extendqisi2	@ temp, MEM[base: src_cpy_25, offset: 4294967295B]
.LVL295:
	.loc 1 166 9 is_stmt 1 discriminator 2 view .LVU1606
@ src/libgcrypt.c:166:         *dst_xor++ = *srcdst_cpy ^ *src_xor++;
	.loc 1 166 20 is_stmt 0 discriminator 2 view .LVU1607
	eor	r1, r1, ip	@ tmp167, MEM[base: _76, offset: 0B], MEM[base: src_xor_27, offset: 4294967295B]
	strb	r1, [r5], #1	@ tmp167, MEM[base: dst_xor_28, offset: 4294967295B]
.LVL296:
	.loc 1 167 9 is_stmt 1 discriminator 2 view .LVU1608
	.loc 1 167 9 is_stmt 0 discriminator 2 view .LVU1609
.LBE776:
@ src/libgcrypt.c:163:     for (; len; len--) {
	.loc 1 163 5 discriminator 2 view .LVU1610
	cmp	r5, r3	@ _dst_xor, _78
.LBB777:
@ src/libgcrypt.c:167:         *srcdst_cpy++ = temp;
	.loc 1 167 23 discriminator 2 view .LVU1611
	strb	r0, [r2]	@ temp, MEM[base: _76, offset: 0B]
.LBE777:
	.loc 1 163 17 is_stmt 1 discriminator 2 view .LVU1612
.LVL297:
	.loc 1 163 12 discriminator 2 view .LVU1613
@ src/libgcrypt.c:163:     for (; len; len--) {
	.loc 1 163 5 is_stmt 0 discriminator 2 view .LVU1614
	bne	.L159		@,
.LVL298:
.L155:
@ src/libgcrypt.c:170: }
	.loc 1 170 1 view .LVU1615
	add	sp, sp, #20	@,,
	.cfi_remember_state
	.cfi_def_cfa_offset 36
	@ sp needed	@
	pop	{r4, r5, r6, r7, r8, r9, r10, fp, pc}	@
.LVL299:
.L160:
	.cfi_restore_state
@ src/libgcrypt.c:151:     while (len >= sizeof(u32)) {
	.loc 1 151 11 view .LVU1616
	ldr	r3, [sp, #56]	@ len, len
.LVL300:
	.loc 1 151 11 view .LVU1617
	b	.L156		@
	.cfi_endproc
.LFE8:
	.size	buf_xor_n_copy_2, .-buf_xor_n_copy_2
	.section	.text.buf_xor_n_copy,"ax",%progbits
	.align	2
	.global	buf_xor_n_copy
	.syntax unified
	.arm
	.fpu softvfp
	.type	buf_xor_n_copy, %function
buf_xor_n_copy:
.LVL301:
.LFB9:
	.loc 1 173 51 is_stmt 1 view -0
	.cfi_startproc
	@ args = 0, pretend = 0, frame = 0
	@ frame_needed = 0, uses_anonymous_args = 0
	.loc 1 174 5 view .LVU1619
@ src/libgcrypt.c:173:                     const void *_src, size_t len) {
	.loc 1 173 51 is_stmt 0 view .LVU1620
	str	lr, [sp, #-4]!	@,
	.cfi_def_cfa_offset 4
	.cfi_offset 14, -4
	sub	sp, sp, #12	@,,
	.cfi_def_cfa_offset 16
@ src/libgcrypt.c:174:     buf_xor_n_copy_2(_dst_xor, _src, _srcdst_cpy, _src, len);
	.loc 1 174 5 view .LVU1621
	str	r3, [sp]	@ tmp119,
	mov	r3, r2	@, _src
.LVL302:
	.loc 1 174 5 view .LVU1622
	mov	r2, r1	@, tmp117
.LVL303:
	.loc 1 174 5 view .LVU1623
	mov	r1, r3	@,
.LVL304:
	.loc 1 174 5 view .LVU1624
	bl	buf_xor_n_copy_2(PLT)	@
.LVL305:
@ src/libgcrypt.c:175: }
	.loc 1 175 1 view .LVU1625
	add	sp, sp, #12	@,,
	.cfi_def_cfa_offset 4
	@ sp needed	@
	ldr	pc, [sp], #4	@
	.cfi_endproc
.LFE9:
	.size	buf_xor_n_copy, .-buf_xor_n_copy
	.section	.text.cipher_block_xor_n_copy,"ax",%progbits
	.align	2
	.global	cipher_block_xor_n_copy
	.syntax unified
	.arm
	.fpu softvfp
	.type	cipher_block_xor_n_copy, %function
cipher_block_xor_n_copy:
.LVL306:
.LFB10:
	.loc 1 178 65 is_stmt 1 view -0
	.cfi_startproc
	@ args = 0, pretend = 0, frame = 0
	@ frame_needed = 0, uses_anonymous_args = 0
	.loc 1 179 5 view .LVU1627
@ src/libgcrypt.c:178:                             const void *_src, size_t blocksize) {
	.loc 1 178 65 is_stmt 0 view .LVU1628
	str	lr, [sp, #-4]!	@,
	.cfi_def_cfa_offset 4
	.cfi_offset 14, -4
	sub	sp, sp, #12	@,,
	.cfi_def_cfa_offset 16
@ src/libgcrypt.c:179:     cipher_block_xor_n_copy_2(_dst_xor, _src, _srcdst_cpy, _src, blocksize);
	.loc 1 179 5 view .LVU1629
	str	r3, [sp]	@ tmp119,
	mov	r3, r2	@, _src
.LVL307:
	.loc 1 179 5 view .LVU1630
	mov	r2, r1	@, tmp117
.LVL308:
	.loc 1 179 5 view .LVU1631
	mov	r1, r3	@,
.LVL309:
	.loc 1 179 5 view .LVU1632
	bl	cipher_block_xor_n_copy_2(PLT)	@
.LVL310:
@ src/libgcrypt.c:180: }
	.loc 1 180 1 view .LVU1633
	add	sp, sp, #12	@,,
	.cfi_def_cfa_offset 4
	@ sp needed	@
	ldr	pc, [sp], #4	@
	.cfi_endproc
.LFE10:
	.size	cipher_block_xor_n_copy, .-cipher_block_xor_n_copy
	.section	.rodata.buf_xor.str1.4,"aMS",%progbits,1
	.align	2
.LC32:
	.ascii	"%08X =? %08X ^ %08X\012\000"
	.align	2
.LC33:
	.ascii	"%02X =? %02X ^ %02X\012\000"
	.section	.text.buf_xor,"ax",%progbits
	.align	2
	.global	buf_xor
	.syntax unified
	.arm
	.fpu softvfp
	.type	buf_xor, %function
buf_xor:
.LVL311:
.LFB11:
	.loc 1 182 87 is_stmt 1 view -0
	.cfi_startproc
	@ args = 4, pretend = 0, frame = 16
	@ frame_needed = 0, uses_anonymous_args = 0
	.loc 1 182 87 is_stmt 0 view .LVU1635
	push	{r4, r5, r6, r7, r8, r9, r10, fp, lr}	@
	.cfi_def_cfa_offset 36
	.cfi_offset 4, -36
	.cfi_offset 5, -32
	.cfi_offset 6, -28
	.cfi_offset 7, -24
	.cfi_offset 8, -20
	.cfi_offset 9, -16
	.cfi_offset 10, -12
	.cfi_offset 11, -8
	.cfi_offset 14, -4
@ src/libgcrypt.c:187:     while (len >= sizeof(uint32_t)) {
	.loc 1 187 11 view .LVU1636
	cmp	r3, #3	@ len,
@ src/libgcrypt.c:182: void buf_xor(void *_dst, const void *_src1, const void *_src2, size_t len, int debug) {
	.loc 1 182 87 view .LVU1637
	sub	sp, sp, #20	@,,
	.cfi_def_cfa_offset 56
@ src/libgcrypt.c:182: void buf_xor(void *_dst, const void *_src1, const void *_src2, size_t len, int debug) {
	.loc 1 182 87 view .LVU1638
	mov	r4, r0	@ _dst, tmp161
	mov	r8, r1	@ _src1, tmp162
	mov	r9, r2	@ _src2, tmp163
	ldr	fp, [sp, #56]	@ debug, debug
	.loc 1 183 5 is_stmt 1 view .LVU1639
.LVL312:
	.loc 1 184 5 view .LVU1640
	.loc 1 185 5 view .LVU1641
	.loc 1 187 5 view .LVU1642
	.loc 1 187 11 view .LVU1643
@ src/libgcrypt.c:182: void buf_xor(void *_dst, const void *_src1, const void *_src2, size_t len, int debug) {
	.loc 1 182 87 is_stmt 0 view .LVU1644
	str	r3, [sp]	@ len, %sfp
@ src/libgcrypt.c:187:     while (len >= sizeof(uint32_t)) {
	.loc 1 187 11 view .LVU1645
	bls	.L178		@,
@ src/libgcrypt.c:188:         if(debug) printf("%08X =? %08X ^ %08X\n", buf_get_he32(src1) ^ buf_get_he32(src2),  buf_get_he32(src1), buf_get_he32(src2));
	.loc 1 188 19 view .LVU1646
	ldr	r10, .L193	@ tmp160,
	sub	r3, r3, #4	@ tmp143, len,
.LVL313:
	.loc 1 188 19 view .LVU1647
	bic	r3, r3, #3	@ tmp145, tmp143,
@ src/libgcrypt.c:185:     const unsigned char *src2 = (const unsigned char *)_src2;
	.loc 1 185 26 view .LVU1648
	mov	r6, r2	@ src2, _src2
@ src/libgcrypt.c:188:         if(debug) printf("%08X =? %08X ^ %08X\n", buf_get_he32(src1) ^ buf_get_he32(src2),  buf_get_he32(src1), buf_get_he32(src2));
	.loc 1 188 19 view .LVU1649
.LPIC64:
	add	r10, pc, r10	@ tmp160, tmp160
	add	r3, r3, #4	@ _80, tmp145,
	add	r7, r0, r3	@ dst, _dst, _80
@ src/libgcrypt.c:184:     const unsigned char *src1 = (const unsigned char *)_src1;
	.loc 1 184 26 view .LVU1650
	mov	r5, r1	@ src1, _src1
	str	r3, [sp, #4]	@ _80, %sfp
	strd	r8, [sp, #8]	@,,
	b	.L174		@
.LVL314:
.L173:
	.loc 1 189 9 is_stmt 1 view .LVU1651
@ src/libgcrypt.c:189:         buf_put_he32(dst, buf_get_he32(src1) ^ buf_get_he32(src2));
	.loc 1 189 27 is_stmt 0 view .LVU1652
	mov	r0, r5	@, src1
@ src/libgcrypt.c:191:         src1 += sizeof(uint32_t);
	.loc 1 191 14 view .LVU1653
	add	r5, r5, #4	@ src1, src1,
.LVL315:
@ src/libgcrypt.c:189:         buf_put_he32(dst, buf_get_he32(src1) ^ buf_get_he32(src2));
	.loc 1 189 27 view .LVU1654
	bl	buf_get_le32(PLT)	@
.LVL316:
	.loc 1 189 27 view .LVU1655
	mov	r8, r0	@ tmp169,
@ src/libgcrypt.c:189:         buf_put_he32(dst, buf_get_he32(src1) ^ buf_get_he32(src2));
	.loc 1 189 48 view .LVU1656
	mov	r0, r6	@, src2
@ src/libgcrypt.c:192:         src2 += sizeof(uint32_t);
	.loc 1 192 14 view .LVU1657
	add	r6, r6, #4	@ src2, src2,
.LVL317:
@ src/libgcrypt.c:189:         buf_put_he32(dst, buf_get_he32(src1) ^ buf_get_he32(src2));
	.loc 1 189 48 view .LVU1658
	bl	buf_get_le32(PLT)	@
.LVL318:
@ src/libgcrypt.c:189:         buf_put_he32(dst, buf_get_he32(src1) ^ buf_get_he32(src2));
	.loc 1 189 9 view .LVU1659
	eor	r1, r8, r0	@, _6, tmp170
	mov	r0, r4	@, _dst
@ src/libgcrypt.c:190:         dst += sizeof(uint32_t);
	.loc 1 190 13 view .LVU1660
	add	r4, r4, #4	@ _dst, _dst,
.LVL319:
@ src/libgcrypt.c:189:         buf_put_he32(dst, buf_get_he32(src1) ^ buf_get_he32(src2));
	.loc 1 189 9 view .LVU1661
	bl	buf_put_le32(PLT)	@
.LVL320:
	.loc 1 190 9 is_stmt 1 view .LVU1662
	.loc 1 191 9 view .LVU1663
	.loc 1 192 9 view .LVU1664
	.loc 1 193 9 view .LVU1665
	.loc 1 187 11 view .LVU1666
	cmp	r4, r7	@ _dst, dst
	beq	.L191		@,
.L174:
	.loc 1 188 9 view .LVU1667
@ src/libgcrypt.c:188:         if(debug) printf("%08X =? %08X ^ %08X\n", buf_get_he32(src1) ^ buf_get_he32(src2),  buf_get_he32(src1), buf_get_he32(src2));
	.loc 1 188 11 is_stmt 0 view .LVU1668
	cmp	fp, #0	@ debug,
	beq	.L173		@,
	.loc 1 188 19 is_stmt 1 discriminator 1 view .LVU1669
@ src/libgcrypt.c:188:         if(debug) printf("%08X =? %08X ^ %08X\n", buf_get_he32(src1) ^ buf_get_he32(src2),  buf_get_he32(src1), buf_get_he32(src2));
	.loc 1 188 51 is_stmt 0 discriminator 1 view .LVU1670
	mov	r0, r5	@, src1
	bl	buf_get_le32(PLT)	@
.LVL321:
	mov	r8, r0	@ tmp165,
@ src/libgcrypt.c:188:         if(debug) printf("%08X =? %08X ^ %08X\n", buf_get_he32(src1) ^ buf_get_he32(src2),  buf_get_he32(src1), buf_get_he32(src2));
	.loc 1 188 72 discriminator 1 view .LVU1671
	mov	r0, r6	@, src2
	bl	buf_get_le32(PLT)	@
.LVL322:
@ src/libgcrypt.c:188:         if(debug) printf("%08X =? %08X ^ %08X\n", buf_get_he32(src1) ^ buf_get_he32(src2),  buf_get_he32(src1), buf_get_he32(src2));
	.loc 1 188 19 discriminator 1 view .LVU1672
	eor	r8, r8, r0	@ _3, _1, tmp166
	mov	r0, r5	@, src1
	bl	buf_get_le32(PLT)	@
.LVL323:
	mov	r9, r0	@ _4, tmp167
	mov	r0, r6	@, src2
	bl	buf_get_le32(PLT)	@
.LVL324:
	mov	r3, r0	@ tmp168,
	mov	r2, r9	@, _4
	mov	r1, r8	@, _3
	mov	r0, r10	@, tmp160
	bl	tfp_printf(PLT)	@
.LVL325:
	b	.L173		@
.L191:
@ src/libgcrypt.c:191:         src1 += sizeof(uint32_t);
	.loc 1 191 14 view .LVU1673
	ldr	r3, [sp, #4]	@ _80, %sfp
	ldrd	r8, [sp, #8]	@,,
	add	r8, r8, r3	@ _src1, _src1, _80
@ src/libgcrypt.c:192:         src2 += sizeof(uint32_t);
	.loc 1 192 14 view .LVU1674
	add	r9, r9, r3	@ _src2, _src2, _80
@ src/libgcrypt.c:193:         len -= sizeof(uint32_t);
	.loc 1 193 13 view .LVU1675
	ldr	r3, [sp]	@ len, %sfp
	and	r3, r3, #3	@ len, len,
	str	r3, [sp]	@ len, %sfp
.LVL326:
.L172:
	.loc 1 196 12 is_stmt 1 view .LVU1676
@ src/libgcrypt.c:196:     for (; len; len--){
	.loc 1 196 5 is_stmt 0 view .LVU1677
	ldr	r3, [sp]	@ len, %sfp
	cmp	r3, #0	@ len,
	beq	.L171		@,
@ src/libgcrypt.c:197:         if(debug) printf("%02X =? %02X ^ %02X\n", *src1 ^ *src2,  *src1,*src2);
	.loc 1 197 19 view .LVU1678
	ldr	r4, .L193+4	@ tmp159,
	add	r10, r7, r3	@ _54, dst, len
.LPIC65:
	add	r4, pc, r4	@ tmp159, tmp159
.L177:
	.loc 1 197 9 is_stmt 1 view .LVU1679
@ src/libgcrypt.c:197:         if(debug) printf("%02X =? %02X ^ %02X\n", *src1 ^ *src2,  *src1,*src2);
	.loc 1 197 11 is_stmt 0 view .LVU1680
	cmp	fp, #0	@ debug,
	bne	.L192		@,
.L176:
	.loc 1 198 9 is_stmt 1 view .LVU1681
.LVL327:
@ src/libgcrypt.c:198:         *dst++ = *src1++ ^ *src2++;
	.loc 1 198 16 is_stmt 0 view .LVU1682
	ldrb	r3, [r8], #1	@ zero_extendqisi2	@ MEM[base: src1_37, offset: 4294967295B], MEM[base: src1_37, offset: 4294967295B]
.LVL328:
	.loc 1 198 16 view .LVU1683
	ldrb	r2, [r9], #1	@ zero_extendqisi2	@ MEM[base: src2_38, offset: 4294967295B], MEM[base: src2_38, offset: 4294967295B]
.LVL329:
	.loc 1 198 16 view .LVU1684
	eor	r3, r3, r2	@ tmp157, MEM[base: src1_37, offset: 4294967295B], MEM[base: src2_38, offset: 4294967295B]
	strb	r3, [r7], #1	@ tmp157, MEM[base: dst_39, offset: 4294967295B]
.LVL330:
	.loc 1 196 17 is_stmt 1 view .LVU1685
	.loc 1 196 12 view .LVU1686
@ src/libgcrypt.c:196:     for (; len; len--){
	.loc 1 196 5 is_stmt 0 view .LVU1687
	cmp	r7, r10	@ dst, _54
	bne	.L177		@,
.L171:
@ src/libgcrypt.c:200: }
	.loc 1 200 1 view .LVU1688
	add	sp, sp, #20	@,,
	.cfi_remember_state
	.cfi_def_cfa_offset 36
	@ sp needed	@
	pop	{r4, r5, r6, r7, r8, r9, r10, fp, pc}	@
.LVL331:
.L192:
	.cfi_restore_state
	.loc 1 197 19 is_stmt 1 discriminator 1 view .LVU1689
@ src/libgcrypt.c:197:         if(debug) printf("%02X =? %02X ^ %02X\n", *src1 ^ *src2,  *src1,*src2);
	.loc 1 197 51 is_stmt 0 discriminator 1 view .LVU1690
	ldrb	r2, [r8]	@ zero_extendqisi2	@ _9, MEM[base: src1_72, offset: 0B]
@ src/libgcrypt.c:197:         if(debug) printf("%02X =? %02X ^ %02X\n", *src1 ^ *src2,  *src1,*src2);
	.loc 1 197 19 discriminator 1 view .LVU1691
	mov	r0, r4	@, tmp159
@ src/libgcrypt.c:197:         if(debug) printf("%02X =? %02X ^ %02X\n", *src1 ^ *src2,  *src1,*src2);
	.loc 1 197 59 discriminator 1 view .LVU1692
	ldrb	r3, [r9]	@ zero_extendqisi2	@ _10, MEM[base: src2_75, offset: 0B]
@ src/libgcrypt.c:197:         if(debug) printf("%02X =? %02X ^ %02X\n", *src1 ^ *src2,  *src1,*src2);
	.loc 1 197 19 discriminator 1 view .LVU1693
	eor	r1, r2, r3	@, _9, _10
	bl	tfp_printf(PLT)	@
.LVL332:
	b	.L176		@
.LVL333:
.L178:
@ src/libgcrypt.c:183:     unsigned char *dst = (unsigned char *)_dst;
	.loc 1 183 20 view .LVU1694
	mov	r7, r0	@ dst, _dst
	b	.L172		@
.L194:
	.align	2
.L193:
	.word	.LC32-(.LPIC64+8)
	.word	.LC33-(.LPIC65+8)
	.cfi_endproc
.LFE11:
	.size	buf_xor, .-buf_xor
	.section	.rodata.printUint32Hex.str1.4,"aMS",%progbits,1
	.align	2
.LC34:
	.ascii	"%08X\012\000"
	.section	.text.printUint32Hex,"ax",%progbits
	.align	2
	.global	printUint32Hex
	.syntax unified
	.arm
	.fpu softvfp
	.type	printUint32Hex, %function
printUint32Hex:
.LVL334:
.LFB12:
	.loc 1 203 1 is_stmt 1 view -0
	.cfi_startproc
	@ args = 0, pretend = 0, frame = 0
	@ frame_needed = 0, uses_anonymous_args = 0
	@ link register save eliminated.
	.loc 1 204 3 view .LVU1696
@ src/libgcrypt.c:203: {
	.loc 1 203 1 is_stmt 0 view .LVU1697
	mov	r1, r0	@ tmp116, data
@ src/libgcrypt.c:204:   printf("%08X\n", data);
	.loc 1 204 3 view .LVU1698
	ldr	r0, .L196	@,
.LVL335:
	.loc 1 204 3 view .LVU1699
.LPIC66:
	add	r0, pc, r0	@,
	b	tfp_printf(PLT)	@
.LVL336:
.L197:
	.loc 1 204 3 view .LVU1700
	.align	2
.L196:
	.word	.LC34-(.LPIC66+8)
	.cfi_endproc
.LFE12:
	.size	printUint32Hex, .-printUint32Hex
	.section	.text._gcry_cipher_setkey,"ax",%progbits
	.align	2
	.global	_gcry_cipher_setkey
	.syntax unified
	.arm
	.fpu softvfp
	.type	_gcry_cipher_setkey, %function
_gcry_cipher_setkey:
.LVL337:
.LFB13:
	.loc 1 208 1 is_stmt 1 view -0
	.cfi_startproc
	@ args = 0, pretend = 0, frame = 0
	@ frame_needed = 0, uses_anonymous_args = 0
	.loc 1 210 5 view .LVU1702
	.loc 1 211 5 view .LVU1703
	.loc 1 213 5 view .LVU1704
	.loc 1 214 5 view .LVU1705
	.loc 1 215 5 view .LVU1706
.LBB778:
	.loc 1 215 10 view .LVU1707
	.loc 1 215 21 view .LVU1708
	add	r2, r0, #48	@ ivtmp.486, hd,
.LVL338:
	.loc 1 215 21 is_stmt 0 view .LVU1709
	add	r0, r0, #64	@ _56, hd,
.LVL339:
	.loc 1 215 21 view .LVU1710
.LBE778:
@ src/libgcrypt.c:208: {
	.loc 1 208 1 view .LVU1711
	push	{r4, lr}	@
	.cfi_def_cfa_offset 8
	.cfi_offset 4, -8
	.cfi_offset 14, -4
.LVL340:
.L199:
.LBB779:
	.loc 1 217 9 is_stmt 1 discriminator 3 view .LVU1712
@ src/libgcrypt.c:215:     for (int i = 0; i < 4; i++)
	.loc 1 215 5 is_stmt 0 discriminator 3 view .LVU1713
	add	r1, r1, #4	@ ivtmp.482, ivtmp.482,
.LVL341:
@ src/libgcrypt.c:217:         hd->key[i] = (key[j] << 24) + (key[j + 1] << 16) + (key[j + 2] << 8) + key[j + 3];
	.loc 1 217 43 discriminator 3 view .LVU1714
	ldrb	r3, [r1, #-3]	@ zero_extendqisi2	@ MEM[base: _62, offset: 1B], MEM[base: _62, offset: 1B]
@ src/libgcrypt.c:217:         hd->key[i] = (key[j] << 24) + (key[j + 1] << 16) + (key[j + 2] << 8) + key[j + 3];
	.loc 1 217 26 discriminator 3 view .LVU1715
	ldrb	r4, [r1, #-4]	@ zero_extendqisi2	@ MEM[base: _62, offset: 0B], MEM[base: _62, offset: 0B]
@ src/libgcrypt.c:217:         hd->key[i] = (key[j] << 24) + (key[j + 1] << 16) + (key[j + 2] << 8) + key[j + 3];
	.loc 1 217 64 discriminator 3 view .LVU1716
	ldrb	lr, [r1, #-2]	@ zero_extendqisi2	@ MEM[base: _62, offset: 2B], MEM[base: _62, offset: 2B]
@ src/libgcrypt.c:217:         hd->key[i] = (key[j] << 24) + (key[j + 1] << 16) + (key[j + 2] << 8) + key[j + 3];
	.loc 1 217 51 discriminator 3 view .LVU1717
	lsl	r3, r3, #16	@ tmp142, MEM[base: _62, offset: 1B],
@ src/libgcrypt.c:217:         hd->key[i] = (key[j] << 24) + (key[j + 1] << 16) + (key[j + 2] << 8) + key[j + 3];
	.loc 1 217 83 discriminator 3 view .LVU1718
	ldrb	ip, [r1, #-1]	@ zero_extendqisi2	@ MEM[base: _62, offset: 3B], MEM[base: _62, offset: 3B]
@ src/libgcrypt.c:217:         hd->key[i] = (key[j] << 24) + (key[j + 1] << 16) + (key[j + 2] << 8) + key[j + 3];
	.loc 1 217 37 discriminator 3 view .LVU1719
	add	r3, r3, r4, lsl #24	@ tmp143, tmp142, MEM[base: _62, offset: 0B],
@ src/libgcrypt.c:217:         hd->key[i] = (key[j] << 24) + (key[j + 1] << 16) + (key[j + 2] << 8) + key[j + 3];
	.loc 1 217 58 discriminator 3 view .LVU1720
	add	r3, r3, lr, lsl #8	@ tmp146, tmp143, MEM[base: _62, offset: 2B],
@ src/libgcrypt.c:217:         hd->key[i] = (key[j] << 24) + (key[j + 1] << 16) + (key[j + 2] << 8) + key[j + 3];
	.loc 1 217 78 discriminator 3 view .LVU1721
	add	r3, r3, ip	@ tmp148, tmp146, MEM[base: _62, offset: 3B]
@ src/libgcrypt.c:217:         hd->key[i] = (key[j] << 24) + (key[j + 1] << 16) + (key[j + 2] << 8) + key[j + 3];
	.loc 1 217 20 discriminator 3 view .LVU1722
	str	r3, [r2], #4	@ tmp148, MEM[base: _58, offset: 0B]
	.loc 1 219 9 is_stmt 1 discriminator 3 view .LVU1723
.LVL342:
	.loc 1 215 28 discriminator 3 view .LVU1724
	.loc 1 215 21 discriminator 3 view .LVU1725
@ src/libgcrypt.c:215:     for (int i = 0; i < 4; i++)
	.loc 1 215 5 is_stmt 0 discriminator 3 view .LVU1726
	cmp	r0, r2	@ _56, ivtmp.486
	bne	.L199		@,
.LBE779:
	.loc 1 222 5 is_stmt 1 view .LVU1727
@ src/libgcrypt.c:223: }
	.loc 1 223 1 is_stmt 0 view .LVU1728
	mov	r0, #0	@,
.LVL343:
	.loc 1 223 1 view .LVU1729
	pop	{r4, pc}	@
	.cfi_endproc
.LFE13:
	.size	_gcry_cipher_setkey, .-_gcry_cipher_setkey
	.section	.text._gcry_cipher_close,"ax",%progbits
	.align	2
	.global	_gcry_cipher_close
	.syntax unified
	.arm
	.fpu softvfp
	.type	_gcry_cipher_close, %function
_gcry_cipher_close:
.LVL344:
.LFB14:
	.loc 1 227 1 is_stmt 1 view -0
	.cfi_startproc
	@ args = 0, pretend = 0, frame = 0
	@ frame_needed = 0, uses_anonymous_args = 0
	@ link register save eliminated.
	.loc 1 228 3 view .LVU1731
	.loc 1 230 3 view .LVU1732
@ src/libgcrypt.c:230:   if (!h)
	.loc 1 230 6 is_stmt 0 view .LVU1733
	cmp	r0, #0	@ h
	.loc 1 230 6 view .LVU1734
	bxeq	lr	@
	.loc 1 249 3 is_stmt 1 view .LVU1735
	b	xfree(PLT)	@
.LVL345:
	.loc 1 249 3 is_stmt 0 view .LVU1736
	.cfi_endproc
.LFE14:
	.size	_gcry_cipher_close, .-_gcry_cipher_close
	.section	.text._gcry_cipher_setiv,"ax",%progbits
	.align	2
	.global	_gcry_cipher_setiv
	.syntax unified
	.arm
	.fpu softvfp
	.type	_gcry_cipher_setiv, %function
_gcry_cipher_setiv:
.LVL346:
.LFB15:
	.loc 1 252 74 is_stmt 1 view -0
	.cfi_startproc
	@ args = 0, pretend = 0, frame = 0
	@ frame_needed = 0, uses_anonymous_args = 0
	.loc 1 254 5 view .LVU1738
@ src/libgcrypt.c:255:     if (iv) {
	.loc 1 255 8 is_stmt 0 view .LVU1739
	cmp	r1, #0	@ tmp122,
@ src/libgcrypt.c:254:     c->unused = 0;
	.loc 1 254 15 view .LVU1740
	mov	ip, #0	@ tmp119,
@ src/libgcrypt.c:252: int _gcry_cipher_setiv(gcry_cipher_hd_t c, const void *iv, size_t ivlen) {
	.loc 1 252 74 view .LVU1741
	push	{r4, lr}	@
	.cfi_def_cfa_offset 8
	.cfi_offset 4, -8
	.cfi_offset 14, -4
@ src/libgcrypt.c:254:     c->unused = 0;
	.loc 1 254 15 view .LVU1742
	str	ip, [r0, #32]	@ tmp119, c_5(D)->unused
	.loc 1 255 5 is_stmt 1 view .LVU1743
@ src/libgcrypt.c:255:     if (iv) {
	.loc 1 255 8 is_stmt 0 view .LVU1744
	beq	.L205		@,
	.loc 1 256 9 is_stmt 1 view .LVU1745
	bl	memcpy(PLT)	@
.LVL347:
	.loc 1 260 5 view .LVU1746
@ src/libgcrypt.c:261: }
	.loc 1 261 1 is_stmt 0 view .LVU1747
	mov	r0, #0	@,
	pop	{r4, pc}	@
.LVL348:
.L205:
	.loc 1 258 9 is_stmt 1 view .LVU1748
	bl	memset(PLT)	@
.LVL349:
	.loc 1 260 5 view .LVU1749
@ src/libgcrypt.c:261: }
	.loc 1 261 1 is_stmt 0 view .LVU1750
	mov	r0, #0	@,
	pop	{r4, pc}	@
	.cfi_endproc
.LFE15:
	.size	_gcry_cipher_setiv, .-_gcry_cipher_setiv
	.section	.text.cipher_sync,"ax",%progbits
	.align	2
	.global	cipher_sync
	.syntax unified
	.arm
	.fpu softvfp
	.type	cipher_sync, %function
cipher_sync:
.LVL350:
.LFB16:
	.loc 1 263 38 is_stmt 1 view -0
	.cfi_startproc
	@ args = 0, pretend = 0, frame = 0
	@ frame_needed = 0, uses_anonymous_args = 0
	.loc 1 265 5 view .LVU1752
@ src/libgcrypt.c:265:     if (c->unused) {
	.loc 1 265 10 is_stmt 0 view .LVU1753
	ldr	r2, [r0, #32]	@ _1, c_14(D)->unused
@ src/libgcrypt.c:265:     if (c->unused) {
	.loc 1 265 8 view .LVU1754
	cmp	r2, #0	@ _1,
	bxeq	lr	@
	.loc 1 266 9 is_stmt 1 view .LVU1755
@ src/libgcrypt.c:263: void cipher_sync(gcry_cipher_hd_t c) {
	.loc 1 263 38 is_stmt 0 view .LVU1756
	push	{r4, lr}	@
	.cfi_def_cfa_offset 8
	.cfi_offset 4, -8
	.cfi_offset 14, -4
	mov	r4, r0	@ c, tmp131
@ src/libgcrypt.c:266:         memmove(c->u_iv.iv + c->unused,
	.loc 1 266 9 view .LVU1757
	add	r0, r0, r2	@, c, _1
.LVL351:
	.loc 1 266 9 view .LVU1758
	mov	r1, r4	@, c
	rsb	r2, r2, #8	@, _1,
	bl	memmove(PLT)	@
.LVL352:
	.loc 1 269 9 is_stmt 1 view .LVU1759
@ src/libgcrypt.c:270:                c->lastiv + 8 - c->unused,
	.loc 1 270 33 is_stmt 0 view .LVU1760
	ldr	r2, [r4, #32]	@ _9, c_14(D)->unused
@ src/libgcrypt.c:269:         memcpy(c->u_iv.iv,
	.loc 1 269 9 view .LVU1761
	mov	r0, r4	@, c
@ src/libgcrypt.c:270:                c->lastiv + 8 - c->unused,
	.loc 1 270 30 view .LVU1762
	sub	r1, r4, r2	@ tmp128, c, _9
@ src/libgcrypt.c:269:         memcpy(c->u_iv.iv,
	.loc 1 269 9 view .LVU1763
	add	r1, r1, #24	@, tmp128,
	bl	memcpy(PLT)	@
.LVL353:
	.loc 1 272 9 is_stmt 1 view .LVU1764
@ src/libgcrypt.c:272:         c->unused = 0;
	.loc 1 272 19 is_stmt 0 view .LVU1765
	mov	r3, #0	@ tmp130,
	str	r3, [r4, #32]	@ tmp130, c_14(D)->unused
@ src/libgcrypt.c:274: }
	.loc 1 274 1 view .LVU1766
	pop	{r4, pc}	@
	.cfi_endproc
.LFE16:
	.size	cipher_sync, .-cipher_sync
	.section	.text.bytesFromBlock,"ax",%progbits
	.align	2
	.global	bytesFromBlock
	.syntax unified
	.arm
	.fpu softvfp
	.type	bytesFromBlock, %function
bytesFromBlock:
.LVL354:
.LFB24:
	.loc 1 705 1 is_stmt 1 view -0
	.cfi_startproc
	@ args = 0, pretend = 0, frame = 8
	@ frame_needed = 0, uses_anonymous_args = 0
	@ link register save eliminated.
@ src/libgcrypt.c:706:     bytes[7] = (block.lsb & 0x000000FF) >> 0;
	.loc 1 706 14 is_stmt 0 view .LVU1768
	strb	r1, [r2, #7]	@ block$lsb, MEM[(uint8_t *)bytes_18(D) + 7B]
@ src/libgcrypt.c:705: {
	.loc 1 705 1 view .LVU1769
	sub	sp, sp, #8	@,,
	.cfi_def_cfa_offset 8
@ src/libgcrypt.c:707:     bytes[6] = (block.lsb & 0x0000FF00) >> 8;
	.loc 1 707 41 view .LVU1770
	lsr	ip, r1, #8	@ tmp132, block$lsb,
@ src/libgcrypt.c:705: {
	.loc 1 705 1 view .LVU1771
	add	r3, sp, #8	@ tmp147,,
@ src/libgcrypt.c:707:     bytes[6] = (block.lsb & 0x0000FF00) >> 8;
	.loc 1 707 14 view .LVU1772
	strb	ip, [r2, #6]	@ tmp132, MEM[(uint8_t *)bytes_18(D) + 6B]
@ src/libgcrypt.c:705: {
	.loc 1 705 1 view .LVU1773
	stmdb	r3, {r0, r1}	@ tmp147,,
	mov	r3, r0	@ block$msb,
.LVL355:
	.loc 1 706 5 is_stmt 1 view .LVU1774
	.loc 1 707 5 view .LVU1775
	.loc 1 708 5 view .LVU1776
@ src/libgcrypt.c:708:     bytes[5] = (block.lsb & 0x00FF0000) >> 16;
	.loc 1 708 41 is_stmt 0 view .LVU1777
	lsr	r0, r1, #16	@ tmp134, block$lsb,
.LVL356:
@ src/libgcrypt.c:711:     bytes[2] = (block.msb & 0x0000FF00) >> 8;
	.loc 1 711 41 view .LVU1778
	lsr	ip, r3, #8	@ tmp139, block$msb,
@ src/libgcrypt.c:709:     bytes[4] = (block.lsb & 0xFF000000) >> 24;
	.loc 1 709 41 view .LVU1779
	lsr	r1, r1, #24	@ tmp136, block$lsb,
.LVL357:
@ src/libgcrypt.c:708:     bytes[5] = (block.lsb & 0x00FF0000) >> 16;
	.loc 1 708 14 view .LVU1780
	strb	r0, [r2, #5]	@ tmp134, MEM[(uint8_t *)bytes_18(D) + 5B]
	.loc 1 709 5 is_stmt 1 view .LVU1781
@ src/libgcrypt.c:710:     bytes[3] = (block.msb & 0x000000FF) >> 0;
	.loc 1 710 14 is_stmt 0 view .LVU1782
	strb	r3, [r2, #3]	@ block$msb, MEM[(uint8_t *)bytes_18(D) + 3B]
@ src/libgcrypt.c:712:     bytes[1] = (block.msb & 0x00FF0000) >> 16;
	.loc 1 712 41 view .LVU1783
	lsr	r0, r3, #16	@ tmp141, block$msb,
@ src/libgcrypt.c:713:     bytes[0] = (block.msb & 0xFF000000) >> 24;
	.loc 1 713 41 view .LVU1784
	lsr	r3, r3, #24	@ tmp143, block$msb,
.LVL358:
@ src/libgcrypt.c:709:     bytes[4] = (block.lsb & 0xFF000000) >> 24;
	.loc 1 709 14 view .LVU1785
	strb	r1, [r2, #4]	@ tmp136, MEM[(uint8_t *)bytes_18(D) + 4B]
	.loc 1 710 5 is_stmt 1 view .LVU1786
	.loc 1 711 5 view .LVU1787
@ src/libgcrypt.c:711:     bytes[2] = (block.msb & 0x0000FF00) >> 8;
	.loc 1 711 14 is_stmt 0 view .LVU1788
	strb	ip, [r2, #2]	@ tmp139, MEM[(uint8_t *)bytes_18(D) + 2B]
	.loc 1 712 5 is_stmt 1 view .LVU1789
@ src/libgcrypt.c:712:     bytes[1] = (block.msb & 0x00FF0000) >> 16;
	.loc 1 712 14 is_stmt 0 view .LVU1790
	strb	r0, [r2, #1]	@ tmp141, MEM[(uint8_t *)bytes_18(D) + 1B]
	.loc 1 713 5 is_stmt 1 view .LVU1791
@ src/libgcrypt.c:713:     bytes[0] = (block.msb & 0xFF000000) >> 24;
	.loc 1 713 14 is_stmt 0 view .LVU1792
	strb	r3, [r2]	@ tmp143, *bytes_18(D)
@ src/libgcrypt.c:714: }
	.loc 1 714 1 view .LVU1793
	add	sp, sp, #8	@,,
	.cfi_def_cfa_offset 0
	@ sp needed	@
	bx	lr	@
	.cfi_endproc
.LFE24:
	.size	bytesFromBlock, .-bytesFromBlock
	.section	.text.encrypt,"ax",%progbits
	.align	2
	.global	encrypt
	.syntax unified
	.arm
	.fpu softvfp
	.type	encrypt, %function
encrypt:
.LVL359:
.LFB32:
	.loc 1 995 1 is_stmt 1 view -0
	.cfi_startproc
	@ args = 4, pretend = 0, frame = 8
	@ frame_needed = 0, uses_anonymous_args = 0
	.loc 1 996 5 view .LVU1795
@ src/libgcrypt.c:995: {
	.loc 1 995 1 is_stmt 0 view .LVU1796
	push	{r4, lr}	@
	.cfi_def_cfa_offset 8
	.cfi_offset 4, -8
	.cfi_offset 14, -4
	sub	sp, sp, #16	@,,
	.cfi_def_cfa_offset 24
@ src/libgcrypt.c:995: {
	.loc 1 995 1 view .LVU1797
	mov	r4, r0	@ .result_ptr, tmp119
	ldr	ip, [sp, #24]	@ debug, debug
@ src/libgcrypt.c:996:     return run(key, data, FALSE, debug);
	.loc 1 996 12 view .LVU1798
	str	ip, [sp, #4]	@ debug,
@ src/libgcrypt.c:995: {
	.loc 1 995 1 view .LVU1799
	add	ip, sp, #8	@ tmp115,,
	stm	ip, {r2, r3}	@ tmp115,,
@ src/libgcrypt.c:996:     return run(key, data, FALSE, debug);
	.loc 1 996 12 view .LVU1800
	mov	r3, #0	@ tmp117,
	str	r3, [sp]	@ tmp117,
	ldm	ip, {r2, r3}	@ tmp115,,
	bl	run(PLT)	@
.LVL360:
@ src/libgcrypt.c:997: }
	.loc 1 997 1 view .LVU1801
	mov	r0, r4	@, .result_ptr
	add	sp, sp, #16	@,,
	.cfi_def_cfa_offset 8
	@ sp needed	@
	pop	{r4, pc}	@
	.loc 1 997 1 view .LVU1802
	.cfi_endproc
.LFE32:
	.size	encrypt, .-encrypt
	.section	.text.decrypt,"ax",%progbits
	.align	2
	.global	decrypt
	.syntax unified
	.arm
	.fpu softvfp
	.type	decrypt, %function
decrypt:
.LVL361:
.LFB33:
	.loc 1 1000 1 is_stmt 1 view -0
	.cfi_startproc
	@ args = 0, pretend = 0, frame = 8
	@ frame_needed = 0, uses_anonymous_args = 0
	.loc 1 1001 5 view .LVU1804
@ src/libgcrypt.c:1000: {
	.loc 1 1000 1 is_stmt 0 view .LVU1805
	push	{r4, lr}	@
	.cfi_def_cfa_offset 8
	.cfi_offset 4, -8
	.cfi_offset 14, -4
	sub	sp, sp, #16	@,,
	.cfi_def_cfa_offset 24
@ src/libgcrypt.c:1000: {
	.loc 1 1000 1 view .LVU1806
	add	ip, sp, #8	@ tmp115,,
	mov	r4, r0	@ .result_ptr, tmp119
	stm	ip, {r2, r3}	@ tmp115,,
@ src/libgcrypt.c:1001:     return run(key, data, TRUE,0);
	.loc 1 1001 12 view .LVU1807
	mov	r2, #1	@,
	mov	r3, #0	@ tmp117,
	strd	r2, [sp]	@,
	ldm	ip, {r2, r3}	@ tmp115,,
	bl	run(PLT)	@
.LVL362:
@ src/libgcrypt.c:1002: }
	.loc 1 1002 1 view .LVU1808
	mov	r0, r4	@, .result_ptr
	add	sp, sp, #16	@,,
	.cfi_def_cfa_offset 8
	@ sp needed	@
	pop	{r4, pc}	@
	.loc 1 1002 1 view .LVU1809
	.cfi_endproc
.LFE33:
	.size	decrypt, .-decrypt
	.section	.text.xorBlock,"ax",%progbits
	.align	2
	.global	xorBlock
	.syntax unified
	.arm
	.fpu softvfp
	.type	xorBlock, %function
xorBlock:
.LVL363:
.LFB34:
	.loc 1 1005 1 is_stmt 1 view -0
	.cfi_startproc
	@ args = 12, pretend = 8, frame = 8
	@ frame_needed = 0, uses_anonymous_args = 0
	@ link register save eliminated.
	.loc 1 1006 5 view .LVU1811
@ src/libgcrypt.c:1005: {
	.loc 1 1005 1 is_stmt 0 view .LVU1812
	sub	sp, sp, #8	@,,
	.cfi_def_cfa_offset 8
	sub	sp, sp, #8	@,,
	.cfi_def_cfa_offset 16
.LVL364:
@ src/libgcrypt.c:1005: {
	.loc 1 1005 1 view .LVU1813
	add	ip, sp, #8	@ tmp129,,
	str	r3, [sp, #12]	@, val
.LVL365:
	.loc 1 1005 1 view .LVU1814
	stmdb	ip, {r1, r2}	@ tmp129,,
@ src/libgcrypt.c:1008:         .lsb = block.lsb ^ val.lsb};
	.loc 1 1008 26 view .LVU1815
	ldr	ip, [sp, #16]	@ val.lsb, val.lsb
	mov	r1, r2	@ block.lsb,
	eor	r1, r1, ip	@ _6, block.lsb, val.lsb
.LVL366:
	.loc 1 1009 5 is_stmt 1 view .LVU1816
@ src/libgcrypt.c:1009:     return result;
	.loc 1 1009 12 is_stmt 0 view .LVU1817
	str	r1, [r0, #4]	@ _6, <retval>.lsb
.LVL367:
@ src/libgcrypt.c:1007:         .msb = block.msb ^ val.msb,
	.loc 1 1007 26 view .LVU1818
	ldr	r1, [sp]	@ block.msb, block.msb
	eor	r1, r1, r3	@ tmp123, block.msb, tmp127
@ src/libgcrypt.c:1009:     return result;
	.loc 1 1009 12 view .LVU1819
	str	r1, [r0]	@ tmp123, <retval>.msb
@ src/libgcrypt.c:1010: }
	.loc 1 1010 1 view .LVU1820
	add	sp, sp, #8	@,,
	.cfi_def_cfa_offset 8
	@ sp needed	@
	add	sp, sp, #8	@,,
	.cfi_def_cfa_offset 0
	bx	lr	@
	.cfi_endproc
.LFE34:
	.size	xorBlock, .-xorBlock
	.section	.text.blockFromBytes,"ax",%progbits
	.align	2
	.global	blockFromBytes
	.syntax unified
	.arm
	.fpu softvfp
	.type	blockFromBytes, %function
blockFromBytes:
.LVL368:
.LFB35:
	.loc 1 1013 1 is_stmt 1 view -0
	.cfi_startproc
	@ args = 0, pretend = 0, frame = 0
	@ frame_needed = 0, uses_anonymous_args = 0
	.loc 1 1014 3 view .LVU1822
	.loc 1 1017 3 view .LVU1823
.LBB780:
	.loc 1 1017 8 view .LVU1824
	.loc 1 1017 19 view .LVU1825
.LBE780:
@ src/libgcrypt.c:1014:   struct Block block = {
	.loc 1 1014 16 is_stmt 0 view .LVU1826
	mov	ip, #0	@ block$lsb,
@ src/libgcrypt.c:1013: {
	.loc 1 1013 1 view .LVU1827
	mov	r3, #1	@ ivtmp.512,
	str	lr, [sp, #-4]!	@,
	.cfi_def_cfa_offset 4
	.cfi_offset 14, -4
@ src/libgcrypt.c:1014:   struct Block block = {
	.loc 1 1014 16 view .LVU1828
	mov	lr, ip	@ block$msb, block$lsb
	b	.L229		@
.LVL369:
.L227:
	.loc 1 1014 16 view .LVU1829
	add	r3, r3, #1	@ ivtmp.512, ivtmp.512,
	add	r1, r1, #1	@ ivtmp.513, ivtmp.513,
.LVL370:
.L229:
.LBB781:
	.loc 1 1019 5 is_stmt 1 view .LVU1830
	.loc 1 1020 7 view .LVU1831
	.loc 1 1022 7 view .LVU1832
@ src/libgcrypt.c:1019:     if (i < 4)
	.loc 1 1019 8 is_stmt 0 view .LVU1833
	sub	r2, r3, #1	@ tmp128, ivtmp.512,
.LVL371:
	.loc 1 1019 8 view .LVU1834
	cmp	r2, #3	@ tmp128,
@ src/libgcrypt.c:1020:       block.msb = (block.msb << 8) | bytes[i];
	.loc 1 1020 43 view .LVU1835
	ldrb	r2, [r1]	@ zero_extendqisi2	@ MEM[base: _39, offset: 0B],* ivtmp.513
.LVL372:
@ src/libgcrypt.c:1020:       block.msb = (block.msb << 8) | bytes[i];
	.loc 1 1020 36 view .LVU1836
	orrls	lr, r2, lr, lsl #8	@ block$msb, MEM[base: _39, offset: 0B], block$msb,
.LVL373:
@ src/libgcrypt.c:1019:     if (i < 4)
	.loc 1 1019 8 view .LVU1837
	bls	.L227		@,
@ src/libgcrypt.c:1022:       block.lsb = (block.lsb << 8) | bytes[i];
	.loc 1 1022 36 view .LVU1838
	orr	ip, r2, ip, lsl #8	@ block$lsb, MEM[base: _30, offset: 0B], block$lsb,
.LVL374:
	.loc 1 1017 26 is_stmt 1 view .LVU1839
	.loc 1 1017 19 view .LVU1840
@ src/libgcrypt.c:1017:   for (int i = 0; i < 8; i++)
	.loc 1 1017 3 is_stmt 0 view .LVU1841
	cmp	r3, #8	@ ivtmp.512,
	bne	.L227		@,
.LBE781:
	.loc 1 1024 3 is_stmt 1 view .LVU1842
@ src/libgcrypt.c:1024:   return block;
	.loc 1 1024 10 is_stmt 0 view .LVU1843
	str	lr, [r0]	@ block$msb, <retval>.msb
	str	ip, [r0, #4]	@ block$lsb, <retval>.lsb
.LVL375:
@ src/libgcrypt.c:1025: }
	.loc 1 1025 1 view .LVU1844
	ldr	pc, [sp], #4	@
	.cfi_endproc
.LFE35:
	.size	blockFromBytes, .-blockFromBytes
	.section	.rodata._gcry_cipher_cfb_decrypt.str1.4,"aMS",%progbits,1
	.align	2
.LC35:
	.ascii	"_gcry_cipher_cfb_decrypt inbuflen %d outbuflen %d c"
	.ascii	"fb_bulk %d\012\000"
	.align	2
.LC36:
	.ascii	"Initial iv contents: \000"
	.align	2
.LC37:
	.ascii	"%02X\000"
	.align	2
.LC38:
	.ascii	"cfb_decrypt 1 %d %d %d\012\000"
	.align	2
.LC39:
	.ascii	"cfb_decrypt 2 %d %d %d\012\000"
	.align	2
.LC40:
	.ascii	"cfb_decrypt 3 %d %d %d\012\000"
	.align	2
.LC41:
	.ascii	"_gcry_cast5_cfb_dec\012\000"
	.align	2
.LC42:
	.ascii	"nblocks: %d\012\000"
	.align	2
.LC43:
	.ascii	"IV\000"
	.align	2
.LC44:
	.ascii	"%s: \000"
	.align	2
.LC45:
	.ascii	"%c\000"
	.align	2
.LC46:
	.ascii	"\012\012_gcry_cast5_cfb_dec END\012\000"
	.align	2
.LC47:
	.ascii	"cfb_decrypt 4 %d %d %d\012\000"
	.align	2
.LC48:
	.ascii	"cfb_decrypt 5 %d %d %d\012\000"
	.align	2
.LC49:
	.ascii	"%08X%08X\012\000"
	.align	2
.LC50:
	.ascii	"cfb_decrypt 6 %d %d %d\012\000"
	.section	.text._gcry_cipher_cfb_decrypt,"ax",%progbits
	.align	2
	.global	_gcry_cipher_cfb_decrypt
	.syntax unified
	.arm
	.fpu softvfp
	.type	_gcry_cipher_cfb_decrypt, %function
_gcry_cipher_cfb_decrypt:
.LVL376:
.LFB22:
	.loc 1 454 72 is_stmt 1 view -0
	.cfi_startproc
	@ args = 4, pretend = 0, frame = 80
	@ frame_needed = 0, uses_anonymous_args = 0
	.loc 1 454 72 is_stmt 0 view .LVU1846
	push	{r4, r5, r6, r7, r8, r9, r10, fp, lr}	@
	.cfi_def_cfa_offset 36
	.cfi_offset 4, -36
	.cfi_offset 5, -32
	.cfi_offset 6, -28
	.cfi_offset 7, -24
	.cfi_offset 8, -20
	.cfi_offset 9, -16
	.cfi_offset 10, -12
	.cfi_offset 11, -8
	.cfi_offset 14, -4
	mov	r8, r0	@ tmp320, c
@ src/libgcrypt.c:456:     printf("_gcry_cipher_cfb_decrypt inbuflen %d outbuflen %d cfb_bulk %d\n", 
	.loc 1 456 5 view .LVU1847
	ldr	r0, .L267	@,
.LVL377:
@ src/libgcrypt.c:454:                           const unsigned char *inbuf, size_t inbuflen) {
	.loc 1 454 72 view .LVU1848
	sub	sp, sp, #92	@,,
	.cfi_def_cfa_offset 128
.LBB809:
@ src/libgcrypt.c:467:     for (int i = 0; i < 8; i++) printf("%02X", c->u_iv.iv[i]);
	.loc 1 467 33 view .LVU1849
	ldr	r6, .L267+4	@ tmp207,
	sub	r5, r8, #1	@ ivtmp.577, c,
.LBE809:
@ src/libgcrypt.c:456:     printf("_gcry_cipher_cfb_decrypt inbuflen %d outbuflen %d cfb_bulk %d\n", 
	.loc 1 456 5 view .LVU1850
.LPIC67:
	add	r0, pc, r0	@,
	add	r4, r8, #7	@ _259, c,
@ src/libgcrypt.c:454:                           const unsigned char *inbuf, size_t inbuflen) {
	.loc 1 454 72 view .LVU1851
	str	r1, [sp, #36]	@ tmp321, %sfp
@ src/libgcrypt.c:466:     printf("Initial iv contents: ");
	.loc 1 466 5 view .LVU1852
	mov	r7, r5	@ ivtmp.585, ivtmp.577
@ src/libgcrypt.c:456:     printf("_gcry_cipher_cfb_decrypt inbuflen %d outbuflen %d cfb_bulk %d\n", 
	.loc 1 456 5 view .LVU1853
	ldr	r1, [sp, #128]	@, inbuflen
.LVL378:
@ src/libgcrypt.c:454:                           const unsigned char *inbuf, size_t inbuflen) {
	.loc 1 454 72 view .LVU1854
	str	r3, [sp, #40]	@ tmp323, %sfp
@ src/libgcrypt.c:456:     printf("_gcry_cipher_cfb_decrypt inbuflen %d outbuflen %d cfb_bulk %d\n", 
	.loc 1 456 5 view .LVU1855
	mov	r3, #1	@,
.LVL379:
@ src/libgcrypt.c:454:                           const unsigned char *inbuf, size_t inbuflen) {
	.loc 1 454 72 view .LVU1856
	str	r2, [sp, #28]	@ tmp322, %sfp
@ src/libgcrypt.c:456:     printf("_gcry_cipher_cfb_decrypt inbuflen %d outbuflen %d cfb_bulk %d\n", 
	.loc 1 456 5 view .LVU1857
	bl	tfp_printf(PLT)	@
.LVL380:
@ src/libgcrypt.c:466:     printf("Initial iv contents: ");
	.loc 1 466 5 view .LVU1858
	ldr	r0, .L267+8	@,
.LBB810:
@ src/libgcrypt.c:467:     for (int i = 0; i < 8; i++) printf("%02X", c->u_iv.iv[i]);
	.loc 1 467 33 view .LVU1859
.LPIC69:
	add	r6, pc, r6	@ tmp207, tmp207
.LBE810:
	.loc 1 456 5 is_stmt 1 view .LVU1860
	.loc 1 466 5 view .LVU1861
.LPIC68:
	add	r0, pc, r0	@,
	bl	tfp_printf(PLT)	@
.LVL381:
	.loc 1 467 5 view .LVU1862
.LBB811:
	.loc 1 467 10 view .LVU1863
	.loc 1 467 21 view .LVU1864
.L232:
	.loc 1 467 33 discriminator 3 view .LVU1865
	ldrb	r1, [r7, #1]!	@ zero_extendqisi2	@, MEM[base: _257, offset: 0B]
	mov	r0, r6	@, tmp207
	bl	tfp_printf(PLT)	@
.LVL382:
	.loc 1 467 28 discriminator 3 view .LVU1866
	.loc 1 467 21 discriminator 3 view .LVU1867
@ src/libgcrypt.c:467:     for (int i = 0; i < 8; i++) printf("%02X", c->u_iv.iv[i]);
	.loc 1 467 5 is_stmt 0 discriminator 3 view .LVU1868
	cmp	r7, r4	@ ivtmp.585, _259
	bne	.L232		@,
.LBE811:
	.loc 1 468 5 is_stmt 1 view .LVU1869
	ldr	r0, .L267+12	@,
.LPIC70:
	add	r0, pc, r0	@,
	bl	tfp_printf(PLT)	@
.LVL383:
	.loc 1 470 5 view .LVU1870
	.loc 1 471 5 view .LVU1871
	.loc 1 448 3 view .LVU1872
	.loc 1 472 5 view .LVU1873
	.loc 1 473 5 view .LVU1874
	.loc 1 474 5 view .LVU1875
	.loc 1 476 5 view .LVU1876
@ src/libgcrypt.c:476:     if (outbuflen < inbuflen)
	.loc 1 476 8 is_stmt 0 view .LVU1877
	ldr	r3, [sp, #128]	@ tmp378, inbuflen
	ldr	r2, [sp, #28]	@ outbuflen, %sfp
	cmp	r3, r2	@ tmp378, outbuflen
@ src/libgcrypt.c:477:         return -1;//GPG_ERR_BUFFER_TOO_SHORT;
	.loc 1 477 16 view .LVU1878
	mvnhi	r4, #0	@ <retval>,
@ src/libgcrypt.c:476:     if (outbuflen < inbuflen)
	.loc 1 476 8 view .LVU1879
	bhi	.L231		@,
	.loc 1 479 5 is_stmt 1 view .LVU1880
@ src/libgcrypt.c:479:     if (inbuflen <= c->unused) {
	.loc 1 479 22 is_stmt 0 view .LVU1881
	ldr	r3, [r8, #32]	@ _3, c_56(D)->unused
@ src/libgcrypt.c:479:     if (inbuflen <= c->unused) {
	.loc 1 479 8 view .LVU1882
	ldr	r2, [sp, #128]	@ tmp380, inbuflen
	cmp	r3, r2	@ _3, tmp380
	bcs	.L263		@,
	.loc 1 488 5 is_stmt 1 view .LVU1883
.LVL384:
	.loc 1 490 5 view .LVU1884
@ src/libgcrypt.c:490:     if (c->unused) {
	.loc 1 490 8 is_stmt 0 view .LVU1885
	cmp	r3, #0	@ _3,
	bne	.L264		@,
.LVL385:
	.loc 1 504 5 is_stmt 1 view .LVU1886
@ src/libgcrypt.c:504:     if (inbuflen >= blocksize_x_2 && 1){//c->bulk.cfb_dec) {
	.loc 1 504 8 is_stmt 0 view .LVU1887
	ldr	r3, [sp, #128]	@ tmp388, inbuflen
	cmp	r3, #15	@ tmp388,
	bhi	.L265		@,
.LVL386:
.L236:
	.loc 1 513 9 is_stmt 1 view .LVU1888
	ldr	r4, [sp, #28]	@ outbuflen, %sfp
	mov	r3, #0	@,
.LVL387:
	.loc 1 513 9 is_stmt 0 view .LVU1889
	ldr	r0, .L267+16	@,
	ldr	r1, [sp, #128]	@, inbuflen
	mov	r2, r4	@, outbuflen
.LPIC83:
	add	r0, pc, r0	@,
	bl	tfp_printf(PLT)	@
.LVL388:
	.loc 1 514 9 is_stmt 1 view .LVU1890
	.loc 1 514 15 view .LVU1891
	.loc 1 532 5 view .LVU1892
@ src/libgcrypt.c:532:     if (inbuflen >= blocksize) {
	.loc 1 532 8 is_stmt 0 view .LVU1893
	ldr	r3, [sp, #128]	@ tmp415, inbuflen
	cmp	r3, #7	@ tmp415,
	bls	.L249		@,
.LBB812:
	.loc 1 533 9 is_stmt 1 view .LVU1894
	ldr	r0, .L267+20	@,
	mov	r2, r4	@, outbuflen
	ldr	r3, [r8, #32]	@, c_56(D)->unused
@ src/libgcrypt.c:537:         struct Block ivBlock = blockFromBytes(c->u_iv.iv);
	.loc 1 537 32 is_stmt 0 view .LVU1895
	add	r5, sp, #56	@ tmp274,,
@ src/libgcrypt.c:533:         printf("cfb_decrypt 5 %d %d %d\n", inbuflen, outbuflen, c->unused);
	.loc 1 533 9 view .LVU1896
.LPIC84:
	add	r0, pc, r0	@,
@ src/libgcrypt.c:540:         ivBlock = encrypt(c->key, ivBlock, 0);
	.loc 1 540 19 view .LVU1897
	add	r6, sp, #48	@ tmp279,,
@ src/libgcrypt.c:533:         printf("cfb_decrypt 5 %d %d %d\n", inbuflen, outbuflen, c->unused);
	.loc 1 533 9 view .LVU1898
	ldr	r1, [sp, #128]	@, inbuflen
.LBB813:
.LBB814:
@ src/libgcrypt.c:743:     printf("%08X%08X\n", block.msb, block.lsb);
	.loc 1 743 5 view .LVU1899
	ldr	r7, .L267+24	@ tmp278,
.LBE814:
.LBE813:
@ src/libgcrypt.c:533:         printf("cfb_decrypt 5 %d %d %d\n", inbuflen, outbuflen, c->unused);
	.loc 1 533 9 view .LVU1900
	bl	tfp_printf(PLT)	@
.LVL389:
	.loc 1 535 9 is_stmt 1 view .LVU1901
@ src/libgcrypt.c:549:         inbuflen -= blocksize;
	.loc 1 549 18 is_stmt 0 view .LVU1902
	ldr	r3, [sp, #128]	@ tmp416, inbuflen
@ src/libgcrypt.c:535:         cipher_block_cpy(c->lastiv, c->u_iv.iv, blocksize);
	.loc 1 535 9 view .LVU1903
	mov	r2, #8	@,
.LBB817:
.LBB815:
@ src/libgcrypt.c:743:     printf("%08X%08X\n", block.msb, block.lsb);
	.loc 1 743 5 view .LVU1904
.LPIC85:
	add	r7, pc, r7	@ tmp278, tmp278
.LBE815:
.LBE817:
@ src/libgcrypt.c:535:         cipher_block_cpy(c->lastiv, c->u_iv.iv, blocksize);
	.loc 1 535 9 view .LVU1905
	mov	r1, r8	@, c
	add	r0, r8, #16	@, c,
@ src/libgcrypt.c:549:         inbuflen -= blocksize;
	.loc 1 549 18 view .LVU1906
	sub	r4, r3, #8	@ <retval>, tmp416,
@ src/libgcrypt.c:535:         cipher_block_cpy(c->lastiv, c->u_iv.iv, blocksize);
	.loc 1 535 9 view .LVU1907
	bl	cipher_block_cpy(PLT)	@
.LVL390:
	.loc 1 537 9 is_stmt 1 view .LVU1908
@ src/libgcrypt.c:537:         struct Block ivBlock = blockFromBytes(c->u_iv.iv);
	.loc 1 537 32 is_stmt 0 view .LVU1909
	mov	r1, r8	@, c
	mov	r0, r5	@, tmp274
	bl	blockFromBytes(PLT)	@
.LVL391:
	.loc 1 538 9 is_stmt 1 view .LVU1910
.LBB818:
.LBI813:
	.loc 1 741 13 view .LVU1911
.LBB816:
	.loc 1 743 5 view .LVU1912
	ldr	r2, [sp, #60]	@, MEM[(struct Block *)_116].lsb
	mov	r0, r7	@, tmp278
	ldr	r1, [sp, #56]	@, MEM[(struct Block *)_116].msb
	bl	tfp_printf(PLT)	@
.LVL392:
	.loc 1 743 5 is_stmt 0 view .LVU1913
.LBE816:
.LBE818:
	.loc 1 540 9 is_stmt 1 view .LVU1914
@ src/libgcrypt.c:540:         ivBlock = encrypt(c->key, ivBlock, 0);
	.loc 1 540 19 is_stmt 0 view .LVU1915
	mov	r3, #0	@ tmp281,
	mov	r0, r6	@, tmp279
	str	r3, [sp]	@ tmp281,
	add	r1, r8, #48	@, c,
	ldm	r5, {r2, r3}	@ tmp274,,
	bl	encrypt(PLT)	@
.LVL393:
	ldm	r6, {r0, r1}	@ tmp279,,
@ src/libgcrypt.c:541:         bytesFromBlock(ivBlock, c->u_iv.iv);
	.loc 1 541 9 view .LVU1916
	mov	r2, r8	@, c
@ src/libgcrypt.c:540:         ivBlock = encrypt(c->key, ivBlock, 0);
	.loc 1 540 19 view .LVU1917
	mov	r6, r0	@ ivBlock$msb,
.LVL394:
	.loc 1 540 19 view .LVU1918
	mov	r9, r1	@ ivBlock$lsb,
.LVL395:
	.loc 1 541 9 is_stmt 1 view .LVU1919
@ src/libgcrypt.c:540:         ivBlock = encrypt(c->key, ivBlock, 0);
	.loc 1 540 19 is_stmt 0 view .LVU1920
	stm	r5, {r0, r1}	@ tmp274,,
@ src/libgcrypt.c:541:         bytesFromBlock(ivBlock, c->u_iv.iv);
	.loc 1 541 9 view .LVU1921
	bl	bytesFromBlock(PLT)	@
.LVL396:
	.loc 1 542 9 is_stmt 1 view .LVU1922
.LBB819:
.LBI819:
	.loc 1 741 13 view .LVU1923
.LBB820:
	.loc 1 743 5 view .LVU1924
	mov	r2, r9	@, ivBlock$lsb
	mov	r1, r6	@, ivBlock$msb
	mov	r0, r7	@, tmp278
	bl	tfp_printf(PLT)	@
.LVL397:
	.loc 1 743 5 is_stmt 0 view .LVU1925
.LBE820:
.LBE819:
	.loc 1 545 9 is_stmt 1 view .LVU1926
	ldr	r3, [sp, #40]	@ inbuf, %sfp
	mov	r1, r8	@, c
	mov	r2, r3	@, inbuf
@ src/libgcrypt.c:548:         inbuf += blocksize;
	.loc 1 548 15 is_stmt 0 view .LVU1927
	add	r3, r3, #8	@ inbuf, inbuf,
	str	r3, [sp, #40]	@ inbuf, %sfp
@ src/libgcrypt.c:545:         cipher_block_xor_n_copy(outbuf, c->u_iv.iv, inbuf, blocksize);
	.loc 1 545 9 view .LVU1928
	ldr	r3, [sp, #36]	@ outbuf, %sfp
	mov	r0, r3	@, outbuf
@ src/libgcrypt.c:547:         outbuf += blocksize;
	.loc 1 547 16 view .LVU1929
	add	r3, r3, #8	@ outbuf, outbuf,
	str	r3, [sp, #36]	@ outbuf, %sfp
.LVL398:
@ src/libgcrypt.c:545:         cipher_block_xor_n_copy(outbuf, c->u_iv.iv, inbuf, blocksize);
	.loc 1 545 9 view .LVU1930
	mov	r3, #8	@,
	bl	cipher_block_xor_n_copy(PLT)	@
.LVL399:
	.loc 1 547 9 is_stmt 1 view .LVU1931
	.loc 1 548 9 view .LVU1932
	.loc 1 549 9 view .LVU1933
.L243:
	.loc 1 549 9 is_stmt 0 view .LVU1934
.LBE812:
	.loc 1 552 5 is_stmt 1 view .LVU1935
@ src/libgcrypt.c:552:     if (inbuflen) {
	.loc 1 552 8 is_stmt 0 view .LVU1936
	cmp	r4, #0	@ <retval>,
	beq	.L231		@,
.LBB821:
	.loc 1 553 9 is_stmt 1 view .LVU1937
	ldr	r0, .L267+28	@,
	mov	r1, r4	@, <retval>
	ldr	r3, [r8, #32]	@, c_56(D)->unused
@ src/libgcrypt.c:557:         struct Block ivBlock = blockFromBytes(c->u_iv.iv);
	.loc 1 557 32 is_stmt 0 view .LVU1938
	add	r5, sp, #64	@ tmp292,,
@ src/libgcrypt.c:553:         printf("cfb_decrypt 6 %d %d %d\n", inbuflen, outbuflen, c->unused);
	.loc 1 553 9 view .LVU1939
	ldr	r2, [sp, #28]	@, %sfp
@ src/libgcrypt.c:560:         ivBlock = encrypt(c->key, ivBlock, 0);
	.loc 1 560 19 view .LVU1940
	add	r7, sp, #48	@ tmp297,,
@ src/libgcrypt.c:553:         printf("cfb_decrypt 6 %d %d %d\n", inbuflen, outbuflen, c->unused);
	.loc 1 553 9 view .LVU1941
.LPIC87:
	add	r0, pc, r0	@,
@ src/libgcrypt.c:560:         ivBlock = encrypt(c->key, ivBlock, 0);
	.loc 1 560 19 view .LVU1942
	mov	r9, #0	@ tmp299,
.LBB822:
.LBB823:
@ src/libgcrypt.c:743:     printf("%08X%08X\n", block.msb, block.lsb);
	.loc 1 743 5 view .LVU1943
	ldr	r6, .L267+32	@ tmp296,
.LBE823:
.LBE822:
@ src/libgcrypt.c:553:         printf("cfb_decrypt 6 %d %d %d\n", inbuflen, outbuflen, c->unused);
	.loc 1 553 9 view .LVU1944
	bl	tfp_printf(PLT)	@
.LVL400:
	.loc 1 555 9 is_stmt 1 view .LVU1945
	mov	r2, #8	@,
	mov	r1, r8	@, c
.LBB826:
.LBB824:
@ src/libgcrypt.c:743:     printf("%08X%08X\n", block.msb, block.lsb);
	.loc 1 743 5 is_stmt 0 view .LVU1946
.LPIC88:
	add	r6, pc, r6	@ tmp296, tmp296
.LBE824:
.LBE826:
@ src/libgcrypt.c:555:         cipher_block_cpy(c->lastiv, c->u_iv.iv, blocksize);
	.loc 1 555 9 view .LVU1947
	add	r0, r8, #16	@, c,
	bl	cipher_block_cpy(PLT)	@
.LVL401:
	.loc 1 557 9 is_stmt 1 view .LVU1948
@ src/libgcrypt.c:557:         struct Block ivBlock = blockFromBytes(c->u_iv.iv);
	.loc 1 557 32 is_stmt 0 view .LVU1949
	mov	r1, r8	@, c
	mov	r0, r5	@, tmp292
	bl	blockFromBytes(PLT)	@
.LVL402:
	.loc 1 558 9 is_stmt 1 view .LVU1950
.LBB827:
.LBI822:
	.loc 1 741 13 view .LVU1951
.LBB825:
	.loc 1 743 5 view .LVU1952
	ldr	r2, [sp, #68]	@, MEM[(struct Block *)_117].lsb
	mov	r0, r6	@, tmp296
	ldr	r1, [sp, #64]	@, MEM[(struct Block *)_117].msb
	bl	tfp_printf(PLT)	@
.LVL403:
	.loc 1 743 5 is_stmt 0 view .LVU1953
.LBE825:
.LBE827:
	.loc 1 560 9 is_stmt 1 view .LVU1954
@ src/libgcrypt.c:560:         ivBlock = encrypt(c->key, ivBlock, 0);
	.loc 1 560 19 is_stmt 0 view .LVU1955
	str	r9, [sp]	@ tmp299,
	mov	r0, r7	@, tmp297
	ldm	r5, {r2, r3}	@ tmp292,,
	add	r1, r8, #48	@, c,
	bl	encrypt(PLT)	@
.LVL404:
	ldm	r7, {r0, r1}	@ tmp297,,
@ src/libgcrypt.c:561:         bytesFromBlock(ivBlock, c->u_iv.iv);
	.loc 1 561 9 view .LVU1956
	mov	r2, r8	@, c
@ src/libgcrypt.c:560:         ivBlock = encrypt(c->key, ivBlock, 0);
	.loc 1 560 19 view .LVU1957
	mov	r7, r0	@ ivBlock$msb,
.LVL405:
	.loc 1 560 19 view .LVU1958
	mov	r10, r1	@ ivBlock$lsb,
.LVL406:
	.loc 1 561 9 is_stmt 1 view .LVU1959
@ src/libgcrypt.c:560:         ivBlock = encrypt(c->key, ivBlock, 0);
	.loc 1 560 19 is_stmt 0 view .LVU1960
	stm	r5, {r0, r1}	@ tmp292,,
@ src/libgcrypt.c:561:         bytesFromBlock(ivBlock, c->u_iv.iv);
	.loc 1 561 9 view .LVU1961
	bl	bytesFromBlock(PLT)	@
.LVL407:
	.loc 1 562 9 is_stmt 1 view .LVU1962
.LBB828:
.LBI828:
	.loc 1 741 13 view .LVU1963
.LBB829:
	.loc 1 743 5 view .LVU1964
	mov	r2, r10	@, ivBlock$lsb
	mov	r1, r7	@, ivBlock$msb
	mov	r0, r6	@, tmp296
	bl	tfp_printf(PLT)	@
.LVL408:
	.loc 1 743 5 is_stmt 0 view .LVU1965
.LBE829:
.LBE828:
	.loc 1 564 9 is_stmt 1 view .LVU1966
	.loc 1 566 9 view .LVU1967
@ src/libgcrypt.c:567:         buf_xor_n_copy(outbuf, c->u_iv.iv, inbuf, inbuflen);
	.loc 1 567 9 is_stmt 0 view .LVU1968
	ldr	r2, [sp, #40]	@, %sfp
@ src/libgcrypt.c:566:         c->unused -= inbuflen;
	.loc 1 566 19 view .LVU1969
	rsb	r3, r4, #8	@ tmp306, <retval>,
@ src/libgcrypt.c:567:         buf_xor_n_copy(outbuf, c->u_iv.iv, inbuf, inbuflen);
	.loc 1 567 9 view .LVU1970
	ldr	r0, [sp, #36]	@, %sfp
	mov	r1, r8	@, c
@ src/libgcrypt.c:566:         c->unused -= inbuflen;
	.loc 1 566 19 view .LVU1971
	str	r3, [r8, #32]	@ tmp306, c_56(D)->unused
	.loc 1 567 9 is_stmt 1 view .LVU1972
	mov	r3, r4	@, <retval>
.LBE821:
@ src/libgcrypt.c:579:     return 0;
	.loc 1 579 12 is_stmt 0 view .LVU1973
	mov	r4, r9	@ <retval>, tmp299
.LBB832:
@ src/libgcrypt.c:567:         buf_xor_n_copy(outbuf, c->u_iv.iv, inbuf, inbuflen);
	.loc 1 567 9 view .LVU1974
	bl	buf_xor_n_copy(PLT)	@
.LVL409:
	.loc 1 568 9 is_stmt 1 view .LVU1975
	.loc 1 569 9 view .LVU1976
	.loc 1 570 9 view .LVU1977
	.loc 1 572 9 view .LVU1978
@ src/libgcrypt.c:572:         ivBlock = blockFromBytes(c->u_iv.iv);
	.loc 1 572 19 is_stmt 0 view .LVU1979
	mov	r1, r8	@, c
	mov	r0, r5	@, tmp292
	bl	blockFromBytes(PLT)	@
.LVL410:
	.loc 1 573 9 is_stmt 1 view .LVU1980
.LBB830:
.LBI830:
	.loc 1 741 13 view .LVU1981
.LBB831:
	.loc 1 743 5 view .LVU1982
	ldr	r2, [sp, #68]	@, MEM[(struct Block *)_117].lsb
	mov	r0, r6	@, tmp296
	ldr	r1, [sp, #64]	@, MEM[(struct Block *)_117].msb
	bl	tfp_printf(PLT)	@
.LVL411:
.L231:
	.loc 1 743 5 is_stmt 0 view .LVU1983
.LBE831:
.LBE830:
.LBE832:
@ src/libgcrypt.c:580: }
	.loc 1 580 1 view .LVU1984
	mov	r0, r4	@, <retval>
	add	sp, sp, #92	@,,
	.cfi_remember_state
	.cfi_def_cfa_offset 36
	@ sp needed	@
	pop	{r4, r5, r6, r7, r8, r9, r10, fp, pc}	@
.LVL412:
.L265:
	.cfi_restore_state
.LBB833:
	.loc 1 505 9 is_stmt 1 view .LVU1985
	ldr	r0, .L267+36	@,
	mov	r3, #0	@,
.LVL413:
	.loc 1 505 9 is_stmt 0 view .LVU1986
	ldr	r2, [sp, #28]	@, %sfp
	ldr	r1, [sp, #128]	@, inbuflen
.LPIC73:
	add	r0, pc, r0	@,
.LBB834:
.LBB835:
.LBB836:
.LBB837:
.LBB838:
@ src/libgcrypt.c:328:         printf("%02X", buf[i]);
	.loc 1 328 9 view .LVU1987
	ldr	r6, .L267+40	@ tmp234,
.LBE838:
.LBE837:
.LBE836:
.LBE835:
.LBE834:
@ src/libgcrypt.c:505:         printf("cfb_decrypt 3 %d %d %d\n", inbuflen, outbuflen, c->unused);
	.loc 1 505 9 view .LVU1988
	bl	tfp_printf(PLT)	@
.LVL414:
	.loc 1 506 9 is_stmt 1 view .LVU1989
@ src/libgcrypt.c:506:         size_t nblocks = inbuflen >> blocksize_shift;
	.loc 1 506 16 is_stmt 0 view .LVU1990
	ldr	r3, [sp, #128]	@ tmp390, inbuflen
.LBB869:
.LBB862:
@ src/libgcrypt.c:344:     printf("_gcry_cast5_cfb_dec\n");
	.loc 1 344 5 view .LVU1991
	ldr	r0, .L267+44	@,
.LBE862:
.LBE869:
@ src/libgcrypt.c:506:         size_t nblocks = inbuflen >> blocksize_shift;
	.loc 1 506 16 view .LVU1992
	lsr	r3, r3, #3	@ nblocks, tmp390,
.LBB870:
.LBB863:
@ src/libgcrypt.c:344:     printf("_gcry_cast5_cfb_dec\n");
	.loc 1 344 5 view .LVU1993
.LPIC74:
	add	r0, pc, r0	@,
.LBE863:
.LBE870:
@ src/libgcrypt.c:506:         size_t nblocks = inbuflen >> blocksize_shift;
	.loc 1 506 16 view .LVU1994
	mov	r7, r3	@ nblocks, nblocks
	str	r3, [sp, #12]	@ nblocks, %sfp
.LVL415:
	.loc 1 507 9 is_stmt 1 view .LVU1995
.LBB871:
.LBI834:
	.loc 1 340 13 view .LVU1996
.LBB864:
	.loc 1 344 5 view .LVU1997
	bl	tfp_printf(PLT)	@
.LVL416:
	.loc 1 345 5 view .LVU1998
	.loc 1 346 5 view .LVU1999
	.loc 1 347 5 view .LVU2000
	.loc 1 348 5 view .LVU2001
	.loc 1 353 5 view .LVU2002
	ldr	r0, .L267+48	@,
	mov	r1, r7	@, nblocks
.LBB843:
.LBB841:
.LBB839:
@ src/libgcrypt.c:328:         printf("%02X", buf[i]);
	.loc 1 328 9 is_stmt 0 view .LVU2003
.LPIC78:
	add	r6, pc, r6	@ tmp234, tmp234
.LBE839:
.LBE841:
.LBE843:
@ src/libgcrypt.c:353:     printf("nblocks: %d\n", nblocks);
	.loc 1 353 5 view .LVU2004
.LPIC75:
	add	r0, pc, r0	@,
	bl	tfp_printf(PLT)	@
.LVL417:
	.loc 1 355 5 is_stmt 1 view .LVU2005
.LBB844:
.LBI836:
	.loc 1 324 13 view .LVU2006
.LBB842:
	.loc 1 325 5 view .LVU2007
	.loc 1 326 5 view .LVU2008
	ldr	r1, .L267+52	@,
	ldr	r0, .L267+56	@,
.LPIC76:
	add	r1, pc, r1	@,
.LPIC77:
	add	r0, pc, r0	@,
	bl	tfp_printf(PLT)	@
.LVL418:
	.loc 1 327 5 view .LVU2009
.LBB840:
	.loc 1 327 10 view .LVU2010
	.loc 1 327 24 view .LVU2011
.L237:
	.loc 1 328 9 view .LVU2012
	ldrb	r1, [r5, #1]!	@ zero_extendqisi2	@, MEM[base: _250, offset: 0B]
	mov	r0, r6	@, tmp234
	bl	tfp_printf(PLT)	@
.LVL419:
	.loc 1 327 33 view .LVU2013
	.loc 1 327 24 view .LVU2014
@ src/libgcrypt.c:327:     for (size_t i = 0; i < len; i++) {
	.loc 1 327 5 is_stmt 0 view .LVU2015
	cmp	r5, r4	@ ivtmp.577, _259
	bne	.L237		@,
.LBE840:
	.loc 1 330 5 is_stmt 1 view .LVU2016
	ldr	r0, .L267+60	@,
.LPIC79:
	add	r0, pc, r0	@,
	bl	tfp_printf(PLT)	@
.LVL420:
	.loc 1 330 5 is_stmt 0 view .LVU2017
.LBE842:
.LBE844:
	.loc 1 379 12 is_stmt 1 view .LVU2018
@ src/libgcrypt.c:379:     for (; nblocks >= 3; nblocks -= 3) {
	.loc 1 379 5 is_stmt 0 view .LVU2019
	ldr	r3, [sp, #12]	@ nblocks, %sfp
	cmp	r3, #2	@ nblocks,
	beq	.L266		@,
	ldr	r3, [sp, #36]	@ outbuf, %sfp
@ src/libgcrypt.c:418:         ivBlock = encrypt(context->key, ivBlock, debugCount>0);
	.loc 1 418 34 view .LVU2020
	add	fp, r8, #48	@ pretmp_193, c,
.LBB845:
.LBB846:
@ src/libgcrypt.c:336:         printf("%c", data[i]);
	.loc 1 336 9 view .LVU2021
	ldr	r7, .L267+64	@ tmp252,
.LVL421:
	.loc 1 336 9 view .LVU2022
	add	r4, sp, #56	@ tmp314,,
.LBE846:
.LBE845:
@ src/libgcrypt.c:346:     const unsigned char *inbuf = inbuf_arg;
	.loc 1 346 26 view .LVU2023
	ldr	r10, [sp, #40]	@ inbuf, %sfp
	add	r6, r3, #23	@ ivtmp.569, outbuf,
.LBB849:
.LBB847:
@ src/libgcrypt.c:336:         printf("%c", data[i]);
	.loc 1 336 9 view .LVU2024
.LPIC80:
	add	r7, pc, r7	@ tmp252, tmp252
.LBE847:
.LBE849:
@ src/libgcrypt.c:377:     int debugCount = 1;
	.loc 1 377 9 view .LVU2025
	mov	r3, #1	@ debugCount,
	str	r3, [sp, #20]	@ debugCount, %sfp
	add	r9, sp, #48	@ tmp313,,
	str	r8, [sp, #32]	@ c, %sfp
	add	r3, sp, #64	@ tmp315,,
	str	r3, [sp, #16]	@ tmp315, %sfp
	add	r3, sp, #72	@ tmp316,,
	str	r3, [sp, #44]	@ tmp316, %sfp
.LVL422:
.L242:
@ src/libgcrypt.c:382:         cipher_block_cpy(tmpbuf + 0, iv, CAST5_BLOCKSIZE);
	.loc 1 382 9 view .LVU2026
	ldr	r8, [sp, #32]	@ c, %sfp
	mov	r2, #8	@,
	ldr	r5, [sp, #16]	@ tmp315, %sfp
	mov	r1, r8	@, c
	mov	r0, r5	@, tmp315
	bl	cipher_block_cpy(PLT)	@
.LVL423:
@ src/libgcrypt.c:383:         cipher_block_cpy(tmpbuf + 8, inbuf + 0, CAST5_BLOCKSIZE * 2);
	.loc 1 383 9 view .LVU2027
	ldr	r0, [sp, #44]	@, %sfp
	mov	r2, #16	@,
	mov	r1, r10	@, inbuf
	bl	cipher_block_cpy(PLT)	@
.LVL424:
	sub	r3, r6, #23	@ _202, ivtmp.569,
@ src/libgcrypt.c:386:         cipher_block_cpy(iv, inbuf + 16, CAST5_BLOCKSIZE);
	.loc 1 386 9 view .LVU2028
	mov	r0, r8	@, c
	str	r3, [sp, #24]	@ _202, %sfp
.LVL425:
	.loc 1 382 9 is_stmt 1 view .LVU2029
	.loc 1 383 9 view .LVU2030
	.loc 1 386 9 view .LVU2031
	mov	r2, #8	@,
	add	r1, r10, #16	@, inbuf,
.LBB850:
.LBB851:
@ src/libgcrypt.c:392:             block = encrypt(context->key, block, 0);//debugCount>0 && i==0);
	.loc 1 392 21 is_stmt 0 view .LVU2032
	mov	r8, #0	@ tmp243,
.LBE851:
.LBE850:
@ src/libgcrypt.c:386:         cipher_block_cpy(iv, inbuf + 16, CAST5_BLOCKSIZE);
	.loc 1 386 9 view .LVU2033
	bl	cipher_block_cpy(PLT)	@
.LVL426:
	.loc 1 389 9 is_stmt 1 view .LVU2034
.LBB854:
	.loc 1 389 14 view .LVU2035
	.loc 1 389 25 view .LVU2036
	add	r3, sp, #88	@ _114,,
	str	r3, [sp, #8]	@ _114, %sfp
.LVL427:
.L240:
.LBB852:
	.loc 1 390 13 view .LVU2037
@ src/libgcrypt.c:390:             struct Block block = blockFromBytes(tmpbuf + (i * CAST5_BLOCKSIZE));
	.loc 1 390 34 is_stmt 0 view .LVU2038
	mov	r1, r5	@, ivtmp.555
	mov	r0, r4	@, tmp314
	bl	blockFromBytes(PLT)	@
.LVL428:
	.loc 1 392 13 is_stmt 1 view .LVU2039
@ src/libgcrypt.c:392:             block = encrypt(context->key, block, 0);//debugCount>0 && i==0);
	.loc 1 392 21 is_stmt 0 view .LVU2040
	str	r8, [sp]	@ tmp243,
	mov	r1, fp	@, pretmp_193
	ldm	r4, {r2, r3}	@ tmp314,,
	mov	r0, r9	@, tmp313
	bl	encrypt(PLT)	@
.LVL429:
	ldm	r9, {r0, r1}	@ tmp313,,
@ src/libgcrypt.c:394:             bytesFromBlock(block, tmpbuf + (i * CAST5_BLOCKSIZE));
	.loc 1 394 13 view .LVU2041
	mov	r2, r5	@, ivtmp.555
.LBE852:
@ src/libgcrypt.c:389:         for (int i = 0; i < 3; i++) {
	.loc 1 389 9 view .LVU2042
	add	r5, r5, #8	@ ivtmp.555, ivtmp.555,
.LBB853:
@ src/libgcrypt.c:392:             block = encrypt(context->key, block, 0);//debugCount>0 && i==0);
	.loc 1 392 21 view .LVU2043
	stm	r4, {r0, r1}	@ tmp314,,
	.loc 1 394 13 is_stmt 1 view .LVU2044
	bl	bytesFromBlock(PLT)	@
.LVL430:
.LBE853:
	.loc 1 389 32 view .LVU2045
	.loc 1 389 25 view .LVU2046
@ src/libgcrypt.c:389:         for (int i = 0; i < 3; i++) {
	.loc 1 389 9 is_stmt 0 view .LVU2047
	ldr	r3, [sp, #8]	@ _114, %sfp
	cmp	r3, r5	@ _114, ivtmp.555
	bne	.L240		@,
.LBE854:
	.loc 1 398 9 is_stmt 1 view .LVU2048
	ldr	r0, [sp, #24]	@, %sfp
	mov	r3, #24	@,
	ldr	r2, [sp, #16]	@, %sfp
	mov	r1, r10	@, inbuf
	str	r8, [sp]	@ tmp243,
	sub	r5, r6, #24	@ ivtmp.548, ivtmp.569,
	bl	buf_xor(PLT)	@
.LVL431:
	.loc 1 401 9 view .LVU2049
	.loc 1 404 8 view .LVU2050
	.loc 1 405 9 view .LVU2051
.LBB855:
.LBI845:
	.loc 1 333 13 view .LVU2052
.LBE855:
.LBE864:
.LBE871:
.LBE833:
	.loc 1 335 5 view .LVU2053
.LBB876:
.LBB872:
.LBB865:
.LBB856:
.LBB848:
	.loc 1 335 10 view .LVU2054
	.loc 1 335 24 view .LVU2055
.L241:
	.loc 1 336 9 view .LVU2056
	ldrb	r1, [r5, #1]!	@ zero_extendqisi2	@, MEM[base: _197, offset: 0B]
.LVL432:
	.loc 1 336 9 is_stmt 0 view .LVU2057
	mov	r0, r7	@, tmp252
	bl	tfp_printf(PLT)	@
.LVL433:
	.loc 1 335 33 is_stmt 1 view .LVU2058
	.loc 1 335 24 view .LVU2059
@ src/libgcrypt.c:335:     for (size_t i = 0; i < len; i++) {
	.loc 1 335 5 is_stmt 0 view .LVU2060
	cmp	r6, r5	@ ivtmp.569, ivtmp.548
	bne	.L241		@,
.LVL434:
	.loc 1 335 5 view .LVU2061
.LBE848:
.LBE856:
	.loc 1 407 9 is_stmt 1 view .LVU2062
@ src/libgcrypt.c:379:     for (; nblocks >= 3; nblocks -= 3) {
	.loc 1 379 34 is_stmt 0 view .LVU2063
	ldr	r3, [sp, #12]	@ nblocks, %sfp
@ src/libgcrypt.c:408:         inbuf += CAST5_BLOCKSIZE * 3;
	.loc 1 408 15 view .LVU2064
	add	r10, r10, #24	@ inbuf, inbuf,
.LVL435:
@ src/libgcrypt.c:379:     for (; nblocks >= 3; nblocks -= 3) {
	.loc 1 379 34 view .LVU2065
	sub	r3, r3, #3	@ nblocks, nblocks,
	str	r3, [sp, #12]	@ nblocks, %sfp
.LVL436:
@ src/libgcrypt.c:379:     for (; nblocks >= 3; nblocks -= 3) {
	.loc 1 379 5 view .LVU2066
	cmp	r3, #2	@ nblocks,
@ src/libgcrypt.c:409:         debugCount--;
	.loc 1 409 19 view .LVU2067
	ldr	r3, [sp, #20]	@ debugCount, %sfp
	sub	r3, r3, #1	@ debugCount, debugCount,
	str	r3, [sp, #20]	@ debugCount, %sfp
.LVL437:
	.loc 1 409 19 view .LVU2068
	add	r3, r6, #1	@ outbuf, ivtmp.569,
.LVL438:
	.loc 1 408 9 is_stmt 1 view .LVU2069
	.loc 1 409 9 view .LVU2070
	.loc 1 379 26 view .LVU2071
	.loc 1 379 12 view .LVU2072
@ src/libgcrypt.c:379:     for (; nblocks >= 3; nblocks -= 3) {
	.loc 1 379 5 is_stmt 0 view .LVU2073
	add	r6, r6, #24	@ ivtmp.569, ivtmp.569,
	bhi	.L242		@,
@ src/libgcrypt.c:414:     for (; nblocks; nblocks--) {
	.loc 1 414 5 view .LVU2074
	ldr	r2, [sp, #12]	@ nblocks, %sfp
	ldr	r8, [sp, #32]	@ c, %sfp
	.loc 1 414 12 is_stmt 1 view .LVU2075
@ src/libgcrypt.c:414:     for (; nblocks; nblocks--) {
	.loc 1 414 5 is_stmt 0 view .LVU2076
	cmp	r2, #0	@ nblocks,
	beq	.L246		@,
.LVL439:
.L239:
.LBB857:
.LBB858:
@ src/libgcrypt.c:336:         printf("%c", data[i]);
	.loc 1 336 9 view .LVU2077
	ldr	r7, .L267+68	@ tmp267,
	add	r6, r3, #7	@ ivtmp.541, outbuf,
	str	fp, [sp, #8]	@ pretmp_193, %sfp
.LPIC82:
	add	r7, pc, r7	@ tmp267, tmp267
	ldr	fp, [sp, #20]	@ debugCount, %sfp
.L245:
.LVL440:
	.loc 1 336 9 view .LVU2078
.LBE858:
.LBE857:
	.loc 1 417 9 is_stmt 1 view .LVU2079
@ src/libgcrypt.c:417:         ivBlock = blockFromBytes(iv);
	.loc 1 417 19 is_stmt 0 view .LVU2080
	mov	r1, r8	@, c
	mov	r0, r4	@, tmp314
	sub	r5, r6, #8	@ ivtmp.529, ivtmp.541,
	bl	blockFromBytes(PLT)	@
.LVL441:
	.loc 1 418 9 is_stmt 1 view .LVU2081
@ src/libgcrypt.c:418:         ivBlock = encrypt(context->key, ivBlock, debugCount>0);
	.loc 1 418 19 is_stmt 0 view .LVU2082
	ldr	r1, [sp, #8]	@, %sfp
	cmp	fp, #0	@ debugCount,
	movgt	r3, #1	@ tmp259,
	movle	r3, #0	@ tmp259,
	str	r3, [sp]	@ tmp259,
	mov	r0, r9	@, tmp313
	ldm	r4, {r2, r3}	@ tmp314,,
	bl	encrypt(PLT)	@
.LVL442:
	ldm	r9, {r0, r1}	@ tmp313,,
@ src/libgcrypt.c:419:         bytesFromBlock(ivBlock, iv);
	.loc 1 419 9 view .LVU2083
	mov	r2, r8	@, c
@ src/libgcrypt.c:418:         ivBlock = encrypt(context->key, ivBlock, debugCount>0);
	.loc 1 418 19 view .LVU2084
	stm	r4, {r0, r1}	@ tmp314,,
	.loc 1 419 9 is_stmt 1 view .LVU2085
	bl	bytesFromBlock(PLT)	@
.LVL443:
	.loc 1 422 9 view .LVU2086
	mov	r3, #8	@,
	mov	r2, r10	@, inbuf
	mov	r1, r8	@, c
	sub	r0, r6, #7	@, ivtmp.541,
.LVL444:
	.loc 1 422 9 is_stmt 0 view .LVU2087
	bl	cipher_block_xor_n_copy(PLT)	@
.LVL445:
	.loc 1 428 21 is_stmt 1 view .LVU2088
.LBB860:
.LBI857:
	.loc 1 333 13 view .LVU2089
.LBE860:
.LBE865:
.LBE872:
.LBE876:
	.loc 1 335 5 view .LVU2090
.LBB877:
.LBB873:
.LBB866:
.LBB861:
.LBB859:
	.loc 1 335 10 view .LVU2091
	.loc 1 335 24 view .LVU2092
.L244:
	.loc 1 336 9 view .LVU2093
	ldrb	r1, [r5, #1]!	@ zero_extendqisi2	@, MEM[base: _235, offset: 0B]
.LVL446:
	.loc 1 336 9 is_stmt 0 view .LVU2094
	mov	r0, r7	@, tmp267
	bl	tfp_printf(PLT)	@
.LVL447:
	.loc 1 335 33 is_stmt 1 view .LVU2095
	.loc 1 335 24 view .LVU2096
@ src/libgcrypt.c:335:     for (size_t i = 0; i < len; i++) {
	.loc 1 335 5 is_stmt 0 view .LVU2097
	cmp	r5, r6	@ ivtmp.529, ivtmp.541
	bne	.L244		@,
.LVL448:
	.loc 1 335 5 view .LVU2098
.LBE859:
.LBE861:
	.loc 1 430 9 is_stmt 1 view .LVU2099
	.loc 1 431 9 view .LVU2100
@ src/libgcrypt.c:414:     for (; nblocks; nblocks--) {
	.loc 1 414 5 is_stmt 0 view .LVU2101
	ldr	r3, [sp, #12]	@ nblocks, %sfp
@ src/libgcrypt.c:431:         inbuf += CAST5_BLOCKSIZE;
	.loc 1 431 15 view .LVU2102
	add	r10, r10, #8	@ inbuf, inbuf,
.LVL449:
	.loc 1 432 9 is_stmt 1 view .LVU2103
@ src/libgcrypt.c:432:         debugCount--;
	.loc 1 432 19 is_stmt 0 view .LVU2104
	sub	fp, fp, #1	@ debugCount, debugCount,
.LVL450:
	.loc 1 414 21 is_stmt 1 view .LVU2105
	.loc 1 414 12 view .LVU2106
@ src/libgcrypt.c:414:     for (; nblocks; nblocks--) {
	.loc 1 414 5 is_stmt 0 view .LVU2107
	add	r6, r6, #8	@ ivtmp.541, ivtmp.541,
.LVL451:
	.loc 1 414 5 view .LVU2108
	cmp	r3, #1	@ nblocks,
	beq	.L246		@,
@ src/libgcrypt.c:414:     for (; nblocks; nblocks--) {
	.loc 1 414 28 view .LVU2109
	mov	r3, #1	@ nblocks,
.LVL452:
	.loc 1 414 28 view .LVU2110
	str	r3, [sp, #12]	@ nblocks, %sfp
.LVL453:
	.loc 1 414 28 view .LVU2111
	b	.L245		@
.LVL454:
.L264:
	.loc 1 414 28 view .LVU2112
.LBE866:
.LBE873:
.LBE877:
	.loc 1 491 9 is_stmt 1 view .LVU2113
	ldr	r0, .L267+72	@,
	ldr	r1, [sp, #128]	@, inbuflen
.LPIC72:
	add	r0, pc, r0	@,
	ldr	r2, [sp, #28]	@, %sfp
	bl	tfp_printf(PLT)	@
.LVL455:
	.loc 1 493 9 view .LVU2114
@ src/libgcrypt.c:493:         inbuflen -= c->unused;
	.loc 1 493 22 is_stmt 0 view .LVU2115
	ldr	r3, [r8, #32]	@ _14, c_56(D)->unused
@ src/libgcrypt.c:493:         inbuflen -= c->unused;
	.loc 1 493 18 view .LVU2116
	ldr	r2, [sp, #128]	@ tmp383, inbuflen
@ src/libgcrypt.c:495:         buf_xor_n_copy(outbuf, ivp, inbuf, c->unused);
	.loc 1 495 9 view .LVU2117
	ldr	r7, [sp, #40]	@ inbuf, %sfp
@ src/libgcrypt.c:494:         ivp = c->u_iv.iv + blocksize - c->unused;
	.loc 1 494 38 view .LVU2118
	rsb	r1, r3, #8	@ tmp219, _14,
@ src/libgcrypt.c:495:         buf_xor_n_copy(outbuf, ivp, inbuf, c->unused);
	.loc 1 495 9 view .LVU2119
	ldr	r6, [sp, #36]	@ outbuf, %sfp
@ src/libgcrypt.c:493:         inbuflen -= c->unused;
	.loc 1 493 18 view .LVU2120
	sub	r2, r2, r3	@ tmp382, tmp383, _14
	str	r2, [sp, #128]	@ tmp382, inbuflen
.LVL456:
	.loc 1 494 9 is_stmt 1 view .LVU2121
	.loc 1 495 9 view .LVU2122
	mov	r0, r6	@, outbuf
	add	r1, r8, r1	@, c, tmp219
	mov	r2, r7	@, inbuf
.LVL457:
	.loc 1 495 9 is_stmt 0 view .LVU2123
	bl	buf_xor_n_copy(PLT)	@
.LVL458:
	.loc 1 496 9 is_stmt 1 view .LVU2124
@ src/libgcrypt.c:496:         outbuf += c->unused;
	.loc 1 496 20 is_stmt 0 view .LVU2125
	ldr	r3, [r8, #32]	@ _18, c_56(D)->unused
@ src/libgcrypt.c:496:         outbuf += c->unused;
	.loc 1 496 16 view .LVU2126
	add	r2, r6, r3	@ outbuf, outbuf, _18
@ src/libgcrypt.c:497:         inbuf += c->unused;
	.loc 1 497 15 view .LVU2127
	add	r3, r7, r3	@ inbuf, inbuf, _18
	str	r3, [sp, #40]	@ inbuf, %sfp
.LVL459:
@ src/libgcrypt.c:498:         c->unused = 0;
	.loc 1 498 19 view .LVU2128
	mov	r3, #0	@ tmp221,
	str	r3, [r8, #32]	@ tmp221, c_56(D)->unused
@ src/libgcrypt.c:504:     if (inbuflen >= blocksize_x_2 && 1){//c->bulk.cfb_dec) {
	.loc 1 504 8 view .LVU2129
	ldr	r3, [sp, #128]	@ tmp388, inbuflen
@ src/libgcrypt.c:496:         outbuf += c->unused;
	.loc 1 496 16 view .LVU2130
	str	r2, [sp, #36]	@ outbuf, %sfp
.LVL460:
	.loc 1 497 9 is_stmt 1 view .LVU2131
	.loc 1 498 9 view .LVU2132
	.loc 1 504 5 view .LVU2133
@ src/libgcrypt.c:504:     if (inbuflen >= blocksize_x_2 && 1){//c->bulk.cfb_dec) {
	.loc 1 504 8 is_stmt 0 view .LVU2134
	cmp	r3, #15	@ tmp388,
	bls	.L236		@,
	b	.L265		@
.LVL461:
.L246:
.LBB878:
.LBB874:
.LBB867:
	.loc 1 435 5 is_stmt 1 view .LVU2135
	ldr	r0, .L267+76	@,
.LPIC81:
	add	r0, pc, r0	@,
	bl	tfp_printf(PLT)	@
.LVL462:
	.loc 1 437 5 view .LVU2136
	ldr	r0, [sp, #16]	@, %sfp
	mov	r1, #24	@,
	bl	wipememory(PLT)	@
.LVL463:
	.loc 1 438 5 view .LVU2137
	.loc 1 438 5 is_stmt 0 view .LVU2138
.LBE867:
.LBE874:
	.loc 1 509 9 is_stmt 1 view .LVU2139
@ src/libgcrypt.c:509:         outbuf += nblocks << blocksize_shift;
	.loc 1 509 27 is_stmt 0 view .LVU2140
	ldr	r3, [sp, #128]	@ tmp407, inbuflen
@ src/libgcrypt.c:509:         outbuf += nblocks << blocksize_shift;
	.loc 1 509 16 view .LVU2141
	ldr	r2, [sp, #36]	@ outbuf, %sfp
@ src/libgcrypt.c:509:         outbuf += nblocks << blocksize_shift;
	.loc 1 509 27 view .LVU2142
	bic	r3, r3, #7	@ _21, tmp407,
.LVL464:
@ src/libgcrypt.c:509:         outbuf += nblocks << blocksize_shift;
	.loc 1 509 16 view .LVU2143
	add	r2, r2, r3	@ outbuf, outbuf, _21
.LVL465:
	.loc 1 509 16 view .LVU2144
	str	r2, [sp, #36]	@ outbuf, %sfp
	.loc 1 510 9 is_stmt 1 view .LVU2145
.LVL466:
@ src/libgcrypt.c:510:         inbuf  += nblocks << blocksize_shift;
	.loc 1 510 16 is_stmt 0 view .LVU2146
	ldr	r2, [sp, #40]	@ inbuf, %sfp
.LVL467:
	.loc 1 510 16 view .LVU2147
	add	r3, r2, r3	@ inbuf, inbuf, _21
.LVL468:
	.loc 1 510 16 view .LVU2148
	str	r3, [sp, #40]	@ inbuf, %sfp
	.loc 1 511 9 is_stmt 1 view .LVU2149
	ldr	r3, [sp, #128]	@ tmp412, inbuflen
.LVL469:
	.loc 1 511 9 is_stmt 0 view .LVU2150
	and	r4, r3, #7	@ <retval>, tmp412,
.LVL470:
	.loc 1 511 9 view .LVU2151
.LBE878:
	.loc 1 532 5 is_stmt 1 view .LVU2152
	b	.L243		@
.LVL471:
.L263:
	.loc 1 480 9 view .LVU2153
	ldr	r0, .L267+80	@,
@ src/libgcrypt.c:485:         return 0;
	.loc 1 485 16 is_stmt 0 view .LVU2154
	mov	r4, #0	@ <retval>,
@ src/libgcrypt.c:480:         printf("cfb_decrypt 1 %d %d %d\n", inbuflen, outbuflen, c->unused);
	.loc 1 480 9 view .LVU2155
	ldr	r2, [sp, #28]	@, %sfp
	ldr	r1, [sp, #128]	@, inbuflen
.LPIC71:
	add	r0, pc, r0	@,
	bl	tfp_printf(PLT)	@
.LVL472:
	.loc 1 482 9 is_stmt 1 view .LVU2156
	.loc 1 483 9 view .LVU2157
@ src/libgcrypt.c:482:         ivp = c->u_iv.iv + blocksize - c->unused;
	.loc 1 482 38 is_stmt 0 view .LVU2158
	ldr	r1, [r8, #32]	@ c_56(D)->unused, c_56(D)->unused
@ src/libgcrypt.c:483:         buf_xor_n_copy(outbuf, ivp, inbuf, inbuflen);
	.loc 1 483 9 view .LVU2159
	ldr	r2, [sp, #40]	@, %sfp
	ldr	r0, [sp, #36]	@, %sfp
@ src/libgcrypt.c:482:         ivp = c->u_iv.iv + blocksize - c->unused;
	.loc 1 482 38 view .LVU2160
	rsb	r1, r1, #8	@ tmp212, c_56(D)->unused,
@ src/libgcrypt.c:483:         buf_xor_n_copy(outbuf, ivp, inbuf, inbuflen);
	.loc 1 483 9 view .LVU2161
	ldr	r3, [sp, #128]	@, inbuflen
	add	r1, r8, r1	@, c, tmp212
	bl	buf_xor_n_copy(PLT)	@
.LVL473:
	.loc 1 484 9 is_stmt 1 view .LVU2162
@ src/libgcrypt.c:484:         c->unused -= inbuflen;
	.loc 1 484 19 is_stmt 0 view .LVU2163
	ldr	r3, [r8, #32]	@ c_56(D)->unused, c_56(D)->unused
@ src/libgcrypt.c:580: }
	.loc 1 580 1 view .LVU2164
	mov	r0, r4	@, <retval>
@ src/libgcrypt.c:484:         c->unused -= inbuflen;
	.loc 1 484 19 view .LVU2165
	ldr	r2, [sp, #128]	@ tmp381, inbuflen
	sub	r3, r3, r2	@ tmp215, c_56(D)->unused, tmp381
	str	r3, [r8, #32]	@ tmp215, c_56(D)->unused
	.loc 1 485 9 is_stmt 1 view .LVU2166
@ src/libgcrypt.c:580: }
	.loc 1 580 1 is_stmt 0 view .LVU2167
	add	sp, sp, #92	@,,
	.cfi_remember_state
	.cfi_def_cfa_offset 36
	@ sp needed	@
	pop	{r4, r5, r6, r7, r8, r9, r10, fp, pc}	@
.LVL474:
.L249:
	.cfi_restore_state
	.loc 1 580 1 view .LVU2168
	ldr	r4, [sp, #128]	@ <retval>, inbuflen
	b	.L243		@
.LVL475:
.L266:
.LBB879:
.LBB875:
.LBB868:
@ src/libgcrypt.c:346:     const unsigned char *inbuf = inbuf_arg;
	.loc 1 346 26 view .LVU2169
	ldr	r10, [sp, #40]	@ inbuf, %sfp
@ src/libgcrypt.c:377:     int debugCount = 1;
	.loc 1 377 9 view .LVU2170
	mov	r2, #1	@ debugCount,
	str	r2, [sp, #20]	@ debugCount, %sfp
	add	r2, sp, #64	@ tmp315,,
@ src/libgcrypt.c:345:     unsigned char *outbuf = outbuf_arg;
	.loc 1 345 20 view .LVU2171
	ldr	r3, [sp, #36]	@ outbuf, %sfp
.LVL476:
@ src/libgcrypt.c:418:         ivBlock = encrypt(context->key, ivBlock, debugCount>0);
	.loc 1 418 34 view .LVU2172
	add	fp, r8, #48	@ pretmp_193, c,
	str	r2, [sp, #16]	@ tmp315, %sfp
	add	r4, sp, #56	@ tmp314,,
	add	r9, sp, #48	@ tmp313,,
	b	.L239		@
.L268:
	.align	2
.L267:
	.word	.LC35-(.LPIC67+8)
	.word	.LC37-(.LPIC69+8)
	.word	.LC36-(.LPIC68+8)
	.word	.LC8-(.LPIC70+8)
	.word	.LC47-(.LPIC83+8)
	.word	.LC48-(.LPIC84+8)
	.word	.LC49-(.LPIC85+8)
	.word	.LC50-(.LPIC87+8)
	.word	.LC49-(.LPIC88+8)
	.word	.LC40-(.LPIC73+8)
	.word	.LC37-(.LPIC78+8)
	.word	.LC41-(.LPIC74+8)
	.word	.LC42-(.LPIC75+8)
	.word	.LC43-(.LPIC76+8)
	.word	.LC44-(.LPIC77+8)
	.word	.LC8-(.LPIC79+8)
	.word	.LC45-(.LPIC80+8)
	.word	.LC45-(.LPIC82+8)
	.word	.LC39-(.LPIC72+8)
	.word	.LC46-(.LPIC81+8)
	.word	.LC38-(.LPIC71+8)
.LBE868:
.LBE875:
.LBE879:
	.cfi_endproc
.LFE22:
	.size	_gcry_cipher_cfb_decrypt, .-_gcry_cipher_cfb_decrypt
	.section	.rodata._gcry_cipher_decrypt.str1.4,"aMS",%progbits,1
	.align	2
.LC51:
	.ascii	"Caller params - in: %p, inlen: %zu\012\000"
	.align	2
.LC52:
	.ascii	"_gcry_cipher_decrypt inlen: %d, outSize: %d, unused"
	.ascii	": %d\012\000"
	.align	2
.LC53:
	.ascii	"Caller requested in-place encryption.\012\000"
	.align	2
.LC54:
	.ascii	"Warning: inlen (%zu) != outsize (%zu)\012\000"
	.section	.text._gcry_cipher_decrypt,"ax",%progbits
	.align	2
	.global	_gcry_cipher_decrypt
	.syntax unified
	.arm
	.fpu softvfp
	.type	_gcry_cipher_decrypt, %function
_gcry_cipher_decrypt:
.LVL477:
.LFB17:
	.loc 1 285 1 is_stmt 1 view -0
	.cfi_startproc
	@ args = 4, pretend = 0, frame = 0
	@ frame_needed = 0, uses_anonymous_args = 0
	.loc 1 286 5 view .LVU2174
@ src/libgcrypt.c:285: {
	.loc 1 285 1 is_stmt 0 view .LVU2175
	push	{r4, r5, r6, r7, r8, lr}	@
	.cfi_def_cfa_offset 24
	.cfi_offset 4, -24
	.cfi_offset 5, -20
	.cfi_offset 6, -16
	.cfi_offset 7, -12
	.cfi_offset 8, -8
	.cfi_offset 14, -4
@ src/libgcrypt.c:285: {
	.loc 1 285 1 view .LVU2176
	mov	r7, r0	@ tmp130, h
	ldr	r6, [sp, #24]	@ inlen, inlen
	mov	r4, r2	@ outsize, tmp132
@ src/libgcrypt.c:286:     printf("Caller params - in: %p, inlen: %zu\n", in, inlen);
	.loc 1 286 5 view .LVU2177
	ldr	r0, .L274	@,
.LVL478:
@ src/libgcrypt.c:285: {
	.loc 1 285 1 view .LVU2178
	mov	r8, r1	@ out, tmp131
@ src/libgcrypt.c:286:     printf("Caller params - in: %p, inlen: %zu\n", in, inlen);
	.loc 1 286 5 view .LVU2179
	mov	r2, r6	@, inlen
.LVL479:
	.loc 1 286 5 view .LVU2180
	mov	r1, r3	@, in
.LVL480:
	.loc 1 286 5 view .LVU2181
.LPIC91:
	add	r0, pc, r0	@,
@ src/libgcrypt.c:285: {
	.loc 1 285 1 view .LVU2182
	mov	r5, r3	@ in, tmp133
@ src/libgcrypt.c:286:     printf("Caller params - in: %p, inlen: %zu\n", in, inlen);
	.loc 1 286 5 view .LVU2183
	bl	tfp_printf(PLT)	@
.LVL481:
	.loc 1 287 5 is_stmt 1 view .LVU2184
	ldr	r0, .L274+4	@,
	mov	r2, r4	@, outsize
	ldr	r3, [r7, #32]	@, h_11(D)->unused
	mov	r1, r6	@, inlen
.LPIC92:
	add	r0, pc, r0	@,
	bl	tfp_printf(PLT)	@
.LVL482:
	.loc 1 288 3 view .LVU2185
@ src/libgcrypt.c:288:   if (!in) /* Caller requested in-place encryption. */
	.loc 1 288 6 is_stmt 0 view .LVU2186
	cmp	r5, #0	@ in,
	beq	.L273		@,
.LVL483:
	.loc 1 311 1 is_stmt 1 view .LVU2187
@ src/libgcrypt.c:311: if (inlen != outsize) {
	.loc 1 311 4 is_stmt 0 view .LVU2188
	cmp	r6, r4	@ inlen, outsize
	beq	.L271		@,
	.loc 1 312 5 is_stmt 1 view .LVU2189
	ldr	r0, .L274+8	@,
	mov	r2, r4	@, outsize
	mov	r1, r6	@, inlen
.LPIC94:
	add	r0, pc, r0	@,
	bl	tfp_printf(PLT)	@
.LVL484:
.L271:
	.loc 1 320 3 view .LVU2190
@ src/libgcrypt.c:320:   return _gcry_cipher_cfb_decrypt (h, out, outsize, in, inlen);
	.loc 1 320 10 is_stmt 0 view .LVU2191
	str	r6, [sp, #24]	@ inlen,
	mov	r3, r5	@, in
	mov	r2, r4	@, outsize
	mov	r1, r8	@, out
	mov	r0, r7	@, h
@ src/libgcrypt.c:321: }
	.loc 1 321 1 view .LVU2192
	pop	{r4, r5, r6, r7, r8, lr}	@
	.cfi_remember_state
	.cfi_restore 14
	.cfi_restore 8
	.cfi_restore 7
	.cfi_restore 6
	.cfi_restore 5
	.cfi_restore 4
	.cfi_def_cfa_offset 0
.LVL485:
@ src/libgcrypt.c:320:   return _gcry_cipher_cfb_decrypt (h, out, outsize, in, inlen);
	.loc 1 320 10 view .LVU2193
	b	_gcry_cipher_cfb_decrypt(PLT)	@
.LVL486:
.L273:
	.cfi_restore_state
	.loc 1 290 7 is_stmt 1 view .LVU2194
	ldr	r0, .L274+12	@,
	mov	r6, r4	@ inlen, outsize
@ src/libgcrypt.c:291:       in = out;
	.loc 1 291 10 is_stmt 0 view .LVU2195
	mov	r5, r8	@ in, out
.LVL487:
@ src/libgcrypt.c:290:       printf("Caller requested in-place encryption.\n");
	.loc 1 290 7 view .LVU2196
.LPIC93:
	add	r0, pc, r0	@,
	bl	tfp_printf(PLT)	@
.LVL488:
	.loc 1 291 7 is_stmt 1 view .LVU2197
	.loc 1 292 7 view .LVU2198
	.loc 1 311 1 view .LVU2199
	b	.L271		@
.L275:
	.align	2
.L274:
	.word	.LC51-(.LPIC91+8)
	.word	.LC52-(.LPIC92+8)
	.word	.LC54-(.LPIC94+8)
	.word	.LC53-(.LPIC93+8)
	.cfi_endproc
.LFE17:
	.size	_gcry_cipher_decrypt, .-_gcry_cipher_decrypt
	.section	.rodata._gcry_cipher_cfb_encrypt.str1.4,"aMS",%progbits,1
	.align	2
.LC55:
	.ascii	"_gcry_cipher_cfb_encrypt inbuflen %d outbuflen %d\012"
	.ascii	"\000"
	.align	2
.LC56:
	.ascii	"%02x\000"
	.align	2
.LC57:
	.ascii	"cfb_encrypt 1 %d %d %d\012\000"
	.align	2
.LC58:
	.ascii	"cfb_encrypt 2 %d %d %d\012\000"
	.align	2
.LC59:
	.ascii	"cfb_encrypt 4 %d %d %d\012\000"
	.align	2
.LC60:
	.ascii	"cfb_encrypt 5 %d %d %d\012\000"
	.align	2
.LC61:
	.ascii	"cfb_encrypt 6 %d %d %d\012\000"
	.section	.text._gcry_cipher_cfb_encrypt,"ax",%progbits
	.align	2
	.global	_gcry_cipher_cfb_encrypt
	.syntax unified
	.arm
	.fpu softvfp
	.type	_gcry_cipher_cfb_encrypt, %function
_gcry_cipher_cfb_encrypt:
.LVL489:
.LFB23:
	.loc 1 584 72 view -0
	.cfi_startproc
	@ args = 4, pretend = 0, frame = 48
	@ frame_needed = 0, uses_anonymous_args = 0
	.loc 1 584 72 is_stmt 0 view .LVU2201
	push	{r4, r5, r6, r7, r8, r9, r10, fp, lr}	@
	.cfi_def_cfa_offset 36
	.cfi_offset 4, -36
	.cfi_offset 5, -32
	.cfi_offset 6, -28
	.cfi_offset 7, -24
	.cfi_offset 8, -20
	.cfi_offset 9, -16
	.cfi_offset 10, -12
	.cfi_offset 11, -8
	.cfi_offset 14, -4
	sub	sp, sp, #60	@,,
	.cfi_def_cfa_offset 96
.LBB880:
@ src/libgcrypt.c:595:     for (int i = 0; i < 8; i++) printf("%02x", c->u_iv.iv[i]);
	.loc 1 595 33 view .LVU2202
	ldr	r7, .L308	@ tmp205,
.LBE880:
@ src/libgcrypt.c:584:                           const unsigned char *inbuf, size_t inbuflen) {
	.loc 1 584 72 view .LVU2203
	mov	r5, r0	@ c, tmp297
	ldr	r9, [sp, #96]	@ inbuflen, inbuflen
	sub	r4, r5, #1	@ ivtmp.637, c,
@ src/libgcrypt.c:585:     printf("_gcry_cipher_cfb_encrypt inbuflen %d outbuflen %d\n", inbuflen, outbuflen);
	.loc 1 585 5 view .LVU2204
	ldr	r0, .L308+4	@,
.LVL490:
	.loc 1 585 5 view .LVU2205
	add	r6, r5, #7	@ _226, c,
@ src/libgcrypt.c:584:                           const unsigned char *inbuf, size_t inbuflen) {
	.loc 1 584 72 view .LVU2206
	str	r1, [sp, #12]	@ tmp298, %sfp
@ src/libgcrypt.c:585:     printf("_gcry_cipher_cfb_encrypt inbuflen %d outbuflen %d\n", inbuflen, outbuflen);
	.loc 1 585 5 view .LVU2207
	mov	r1, r9	@, inbuflen
.LVL491:
	.loc 1 585 5 view .LVU2208
.LPIC95:
	add	r0, pc, r0	@,
.LBB881:
@ src/libgcrypt.c:595:     for (int i = 0; i < 8; i++) printf("%02x", c->u_iv.iv[i]);
	.loc 1 595 33 view .LVU2209
.LPIC96:
	add	r7, pc, r7	@ tmp205, tmp205
.LBE881:
@ src/libgcrypt.c:584:                           const unsigned char *inbuf, size_t inbuflen) {
	.loc 1 584 72 view .LVU2210
	str	r2, [sp, #20]	@ tmp299, %sfp
	str	r3, [sp, #16]	@ tmp300, %sfp
	.loc 1 585 5 is_stmt 1 view .LVU2211
	bl	tfp_printf(PLT)	@
.LVL492:
	.loc 1 595 5 view .LVU2212
.LBB882:
	.loc 1 595 10 view .LVU2213
	.loc 1 595 21 view .LVU2214
.L277:
	.loc 1 595 33 discriminator 3 view .LVU2215
	ldrb	r1, [r4, #1]!	@ zero_extendqisi2	@, MEM[base: _224, offset: 0B]
	mov	r0, r7	@, tmp205
	bl	tfp_printf(PLT)	@
.LVL493:
	.loc 1 595 28 discriminator 3 view .LVU2216
	.loc 1 595 21 discriminator 3 view .LVU2217
@ src/libgcrypt.c:595:     for (int i = 0; i < 8; i++) printf("%02x", c->u_iv.iv[i]);
	.loc 1 595 5 is_stmt 0 discriminator 3 view .LVU2218
	cmp	r4, r6	@ ivtmp.637, _226
	bne	.L277		@,
.LBE882:
	.loc 1 596 5 is_stmt 1 view .LVU2219
	ldr	r0, .L308+8	@,
.LPIC97:
	add	r0, pc, r0	@,
	bl	tfp_printf(PLT)	@
.LVL494:
	.loc 1 597 5 view .LVU2220
	.loc 1 598 5 view .LVU2221
	.loc 1 599 5 view .LVU2222
	.loc 1 600 5 view .LVU2223
	.loc 1 601 5 view .LVU2224
	.loc 1 603 5 view .LVU2225
@ src/libgcrypt.c:603:     if (outbuflen < inbuflen)
	.loc 1 603 8 is_stmt 0 view .LVU2226
	ldr	r3, [sp, #20]	@ outbuflen, %sfp
	cmp	r9, r3	@ inbuflen, outbuflen
	bhi	.L289		@,
	.loc 1 606 5 is_stmt 1 view .LVU2227
@ src/libgcrypt.c:606:     if (inbuflen <= c->unused) {
	.loc 1 606 22 is_stmt 0 view .LVU2228
	ldr	r3, [r5, #32]	@ _3, c_61(D)->unused
@ src/libgcrypt.c:606:     if (inbuflen <= c->unused) {
	.loc 1 606 8 view .LVU2229
	cmp	r3, r9	@ _3, inbuflen
	bcs	.L305		@,
	.loc 1 615 5 is_stmt 1 view .LVU2230
	.loc 1 617 5 view .LVU2231
@ src/libgcrypt.c:617:     if (c->unused) {
	.loc 1 617 8 is_stmt 0 view .LVU2232
	cmp	r3, #0	@ _3,
	bne	.L306		@,
.LVL495:
.L282:
	.loc 1 629 5 is_stmt 1 view .LVU2233
	ldr	r0, .L308+12	@,
	mov	r3, #0	@,
	ldr	r2, [sp, #20]	@, %sfp
	mov	r1, r9	@, inbuflen
.LPIC100:
	add	r0, pc, r0	@,
	bl	tfp_printf(PLT)	@
.LVL496:
	.loc 1 630 5 view .LVU2234
	.loc 1 630 11 view .LVU2235
	cmp	r9, #15	@ inbuflen,
	bls	.L285		@,
.LBB883:
@ src/libgcrypt.c:652:         ivBlock = encrypt(c->key, ivBlock, 0);
	.loc 1 652 28 is_stmt 0 view .LVU2236
	ldr	r2, [sp, #16]	@ inbuf, %sfp
	sub	r3, r9, #16	@ _191, inbuflen,
	str	r3, [sp, #28]	@ _191, %sfp
	add	fp, r5, #48	@ pretmp_197, c,
	lsr	r3, r3, #3	@ _189, _191,
	mov	r6, r2	@ inbuf, inbuf
	str	r3, [sp, #24]	@ _189, %sfp
	add	r3, r3, #1	@ tmp234, _189,
.LBE883:
.LBB892:
.LBB893:
.LBB894:
@ src/libgcrypt.c:743:     printf("%08X%08X\n", block.msb, block.lsb);
	.loc 1 743 5 view .LVU2237
	ldr	r10, .L308+16	@ tmp246,
	add	r4, sp, #48	@ tmp292,,
	add	r3, r2, r3, lsl #3	@ _186, inbuf, tmp234,
	add	r7, sp, #32	@ tmp293,,
.LBE894:
.LBE893:
@ src/libgcrypt.c:633:         ivBlock = encrypt(c->key, ivBlock, 0);
	.loc 1 633 19 view .LVU2238
	str	r9, [sp, #96]	@ inbuflen, inbuflen
	mov	r9, r3	@ _186, _186
.LVL497:
.LBB897:
.LBB895:
@ src/libgcrypt.c:743:     printf("%08X%08X\n", block.msb, block.lsb);
	.loc 1 743 5 view .LVU2239
.LPIC101:
	add	r10, pc, r10	@ tmp246, tmp246
.LBE895:
.LBE897:
.LBE892:
.LBB899:
@ src/libgcrypt.c:652:         ivBlock = encrypt(c->key, ivBlock, 0);
	.loc 1 652 28 view .LVU2240
	ldr	r8, [sp, #12]	@ outbuf, %sfp
.LVL498:
.L286:
	.loc 1 652 28 view .LVU2241
.LBE899:
.LBB900:
	.loc 1 632 9 is_stmt 1 view .LVU2242
@ src/libgcrypt.c:632:         struct Block ivBlock = blockFromBytes(c->u_iv.iv);
	.loc 1 632 32 is_stmt 0 view .LVU2243
	mov	r1, r5	@, c
	mov	r0, r4	@, tmp292
	bl	blockFromBytes(PLT)	@
.LVL499:
	.loc 1 633 9 is_stmt 1 view .LVU2244
@ src/libgcrypt.c:633:         ivBlock = encrypt(c->key, ivBlock, 0);
	.loc 1 633 19 is_stmt 0 view .LVU2245
	mov	r3, #0	@ tmp348,
	mov	r1, fp	@, pretmp_197
	str	r3, [sp]	@ tmp348,
	mov	r0, r7	@, tmp293
	ldm	r4, {r2, r3}	@ tmp292,,
	bl	encrypt(PLT)	@
.LVL500:
	ldm	r7, {r0, r1}	@ tmp293,,
@ src/libgcrypt.c:634:         bytesFromBlock(ivBlock, c->u_iv.iv);
	.loc 1 634 9 view .LVU2246
	mov	r2, r5	@, c
@ src/libgcrypt.c:633:         ivBlock = encrypt(c->key, ivBlock, 0);
	.loc 1 633 19 view .LVU2247
	stm	r4, {r0, r1}	@ tmp292,,
	.loc 1 634 9 is_stmt 1 view .LVU2248
	bl	bytesFromBlock(PLT)	@
.LVL501:
	.loc 1 635 9 view .LVU2249
.LBB898:
.LBI893:
	.loc 1 741 13 view .LVU2250
.LBB896:
	.loc 1 743 5 view .LVU2251
	ldr	r2, [sp, #52]	@, MEM[(struct Block *)_95].lsb
	mov	r0, r10	@, tmp246
	ldr	r1, [sp, #48]	@, MEM[(struct Block *)_95].msb
	bl	tfp_printf(PLT)	@
.LVL502:
	.loc 1 743 5 is_stmt 0 view .LVU2252
.LBE896:
.LBE898:
	.loc 1 637 9 is_stmt 1 view .LVU2253
	mov	r2, r6	@, inbuf
	mov	r0, r8	@, outbuf
@ src/libgcrypt.c:640:         inbuf += blocksize;
	.loc 1 640 15 is_stmt 0 view .LVU2254
	add	r6, r6, #8	@ inbuf, inbuf,
.LVL503:
@ src/libgcrypt.c:637:         cipher_block_xor_2dst(outbuf, c->u_iv.iv, inbuf, blocksize);
	.loc 1 637 9 view .LVU2255
	mov	r3, #8	@,
	mov	r1, r5	@, c
@ src/libgcrypt.c:639:         outbuf += blocksize;
	.loc 1 639 16 view .LVU2256
	add	r8, r8, #8	@ outbuf, outbuf,
.LVL504:
@ src/libgcrypt.c:637:         cipher_block_xor_2dst(outbuf, c->u_iv.iv, inbuf, blocksize);
	.loc 1 637 9 view .LVU2257
	bl	cipher_block_xor_2dst(PLT)	@
.LVL505:
	.loc 1 639 9 is_stmt 1 view .LVU2258
	.loc 1 640 9 view .LVU2259
	.loc 1 641 9 view .LVU2260
	.loc 1 641 9 is_stmt 0 view .LVU2261
.LBE900:
	.loc 1 630 11 is_stmt 1 view .LVU2262
	cmp	r6, r9	@ inbuf, _186
	bne	.L286		@,
	ldr	r3, [sp, #28]	@ _191, %sfp
.LBB901:
@ src/libgcrypt.c:641:         inbuflen -= blocksize;
	.loc 1 641 18 is_stmt 0 view .LVU2263
	mvn	r0, #7	@ tmp249,
@ src/libgcrypt.c:639:         outbuf += blocksize;
	.loc 1 639 16 view .LVU2264
	ldr	r2, [sp, #12]	@ outbuf, %sfp
	bic	r3, r3, #7	@ tmp247, _191,
	ldr	r9, [sp, #96]	@ inbuflen, inbuflen
	add	r3, r3, #8	@ _175, tmp247,
.LVL506:
	.loc 1 639 16 view .LVU2265
	add	r2, r2, r3	@ outbuf, outbuf, _175
.LVL507:
	.loc 1 639 16 view .LVU2266
	str	r2, [sp, #12]	@ outbuf, %sfp
	sub	r9, r9, #8	@ _153, inbuflen,
.LVL508:
@ src/libgcrypt.c:640:         inbuf += blocksize;
	.loc 1 640 15 view .LVU2267
	ldr	r2, [sp, #16]	@ inbuf, %sfp
.LVL509:
	.loc 1 640 15 view .LVU2268
	add	r3, r2, r3	@ inbuf, inbuf, _175
	str	r3, [sp, #16]	@ inbuf, %sfp
@ src/libgcrypt.c:641:         inbuflen -= blocksize;
	.loc 1 641 18 view .LVU2269
	ldr	r3, [sp, #24]	@ _189, %sfp
	mla	r9, r0, r3, r9	@ inbuflen, tmp249, _189, _153
.LVL510:
.L287:
	.loc 1 641 18 view .LVU2270
.LBE901:
.LBB902:
	.loc 1 645 9 is_stmt 1 view .LVU2271
	ldr	r0, .L308+20	@,
	mov	r1, r9	@, inbuflen
	ldr	r3, [r5, #32]	@, c_61(D)->unused
@ src/libgcrypt.c:649:         struct Block ivBlock = blockFromBytes(c->u_iv.iv);
	.loc 1 649 32 is_stmt 0 view .LVU2272
	add	r4, sp, #40	@ tmp254,,
@ src/libgcrypt.c:645:         printf("cfb_encrypt 5 %d %d %d\n", inbuflen, outbuflen, c->unused);
	.loc 1 645 9 view .LVU2273
.LPIC102:
	add	r0, pc, r0	@,
@ src/libgcrypt.c:661:         inbuflen -= blocksize;
	.loc 1 661 18 view .LVU2274
	sub	r9, r9, #8	@ inbuflen, inbuflen,
@ src/libgcrypt.c:645:         printf("cfb_encrypt 5 %d %d %d\n", inbuflen, outbuflen, c->unused);
	.loc 1 645 9 view .LVU2275
	ldr	r2, [sp, #20]	@, %sfp
.LBB884:
.LBB885:
@ src/libgcrypt.c:743:     printf("%08X%08X\n", block.msb, block.lsb);
	.loc 1 743 5 view .LVU2276
	ldr	r6, .L308+24	@ tmp258,
.LBE885:
.LBE884:
@ src/libgcrypt.c:645:         printf("cfb_encrypt 5 %d %d %d\n", inbuflen, outbuflen, c->unused);
	.loc 1 645 9 view .LVU2277
	bl	tfp_printf(PLT)	@
.LVL511:
	.loc 1 647 9 is_stmt 1 view .LVU2278
	mov	r2, #8	@,
	mov	r1, r5	@, c
.LBB888:
.LBB886:
@ src/libgcrypt.c:743:     printf("%08X%08X\n", block.msb, block.lsb);
	.loc 1 743 5 is_stmt 0 view .LVU2279
.LPIC103:
	add	r6, pc, r6	@ tmp258, tmp258
.LBE886:
.LBE888:
@ src/libgcrypt.c:647:         cipher_block_cpy(c->lastiv, c->u_iv.iv, blocksize);
	.loc 1 647 9 view .LVU2280
	add	r0, r5, #16	@, c,
	bl	cipher_block_cpy(PLT)	@
.LVL512:
	.loc 1 649 9 is_stmt 1 view .LVU2281
@ src/libgcrypt.c:649:         struct Block ivBlock = blockFromBytes(c->u_iv.iv);
	.loc 1 649 32 is_stmt 0 view .LVU2282
	mov	r1, r5	@, c
	mov	r0, r4	@, tmp254
	bl	blockFromBytes(PLT)	@
.LVL513:
	.loc 1 650 17 is_stmt 1 view .LVU2283
.LBB889:
.LBI884:
	.loc 1 741 13 view .LVU2284
.LBB887:
	.loc 1 743 5 view .LVU2285
	ldr	r2, [sp, #44]	@, ivBlock.lsb
	mov	r0, r6	@, tmp258
	ldr	r1, [sp, #40]	@, ivBlock.msb
	bl	tfp_printf(PLT)	@
.LVL514:
	.loc 1 743 5 is_stmt 0 view .LVU2286
.LBE887:
.LBE889:
	.loc 1 652 9 is_stmt 1 view .LVU2287
@ src/libgcrypt.c:652:         ivBlock = encrypt(c->key, ivBlock, 0);
	.loc 1 652 19 is_stmt 0 view .LVU2288
	mov	r3, #0	@ tmp260,
	mov	r0, r7	@, tmp293
	str	r3, [sp]	@ tmp260,
	mov	r1, fp	@, pretmp_197
	ldm	r4, {r2, r3}	@ tmp254,,
	bl	encrypt(PLT)	@
.LVL515:
	ldm	r7, {r0, r1}	@ tmp293,,
@ src/libgcrypt.c:653:         bytesFromBlock(ivBlock, c->u_iv.iv);
	.loc 1 653 9 view .LVU2289
	mov	r2, r5	@, c
@ src/libgcrypt.c:652:         ivBlock = encrypt(c->key, ivBlock, 0);
	.loc 1 652 19 view .LVU2290
	mov	r7, r0	@ ivBlock$msb,
.LVL516:
	.loc 1 652 19 view .LVU2291
	mov	r8, r1	@ ivBlock$lsb,
.LVL517:
	.loc 1 653 9 is_stmt 1 view .LVU2292
@ src/libgcrypt.c:652:         ivBlock = encrypt(c->key, ivBlock, 0);
	.loc 1 652 19 is_stmt 0 view .LVU2293
	stm	r4, {r0, r1}	@ tmp254,,
@ src/libgcrypt.c:653:         bytesFromBlock(ivBlock, c->u_iv.iv);
	.loc 1 653 9 view .LVU2294
	bl	bytesFromBlock(PLT)	@
.LVL518:
	.loc 1 654 9 is_stmt 1 view .LVU2295
.LBB890:
.LBI890:
	.loc 1 741 13 view .LVU2296
.LBB891:
	.loc 1 743 5 view .LVU2297
	mov	r2, r8	@, ivBlock$lsb
	mov	r1, r7	@, ivBlock$msb
	mov	r0, r6	@, tmp258
	bl	tfp_printf(PLT)	@
.LVL519:
	.loc 1 743 5 is_stmt 0 view .LVU2298
.LBE891:
.LBE890:
	.loc 1 657 9 is_stmt 1 view .LVU2299
	ldr	r3, [sp, #16]	@ inbuf, %sfp
	mov	r1, r5	@, c
	mov	r2, r3	@, inbuf
@ src/libgcrypt.c:660:         inbuf += blocksize;
	.loc 1 660 15 is_stmt 0 view .LVU2300
	add	r3, r3, #8	@ inbuf, inbuf,
	str	r3, [sp, #16]	@ inbuf, %sfp
@ src/libgcrypt.c:657:         cipher_block_xor_2dst(outbuf, c->u_iv.iv, inbuf, blocksize);
	.loc 1 657 9 view .LVU2301
	ldr	r3, [sp, #12]	@ outbuf, %sfp
	mov	r0, r3	@, outbuf
@ src/libgcrypt.c:659:         outbuf += blocksize;
	.loc 1 659 16 view .LVU2302
	add	r3, r3, #8	@ outbuf, outbuf,
	str	r3, [sp, #12]	@ outbuf, %sfp
@ src/libgcrypt.c:657:         cipher_block_xor_2dst(outbuf, c->u_iv.iv, inbuf, blocksize);
	.loc 1 657 9 view .LVU2303
	mov	r3, #8	@,
	bl	cipher_block_xor_2dst(PLT)	@
.LVL520:
	.loc 1 659 9 is_stmt 1 view .LVU2304
	.loc 1 660 9 view .LVU2305
	.loc 1 661 9 view .LVU2306
.L288:
	.loc 1 661 9 is_stmt 0 view .LVU2307
.LBE902:
	.loc 1 664 5 is_stmt 1 view .LVU2308
@ src/libgcrypt.c:664:     if (inbuflen) {
	.loc 1 664 8 is_stmt 0 view .LVU2309
	cmp	r9, #0	@ inbuflen,
@ src/libgcrypt.c:701:     return 0;
	.loc 1 701 12 view .LVU2310
	moveq	r0, r9	@ <retval>, inbuflen
@ src/libgcrypt.c:664:     if (inbuflen) {
	.loc 1 664 8 view .LVU2311
	bne	.L307		@,
.L276:
@ src/libgcrypt.c:702: }
	.loc 1 702 1 view .LVU2312
	add	sp, sp, #60	@,,
	.cfi_remember_state
	.cfi_def_cfa_offset 36
	@ sp needed	@
	pop	{r4, r5, r6, r7, r8, r9, r10, fp, pc}	@
.LVL521:
.L285:
	.cfi_restore_state
	.loc 1 644 5 is_stmt 1 view .LVU2313
@ src/libgcrypt.c:644:     if (inbuflen >= blocksize) {
	.loc 1 644 8 is_stmt 0 view .LVU2314
	cmp	r9, #7	@ inbuflen,
	bls	.L288		@,
.LBB903:
@ src/libgcrypt.c:652:         ivBlock = encrypt(c->key, ivBlock, 0);
	.loc 1 652 28 view .LVU2315
	add	fp, r5, #48	@ pretmp_197, c,
	add	r7, sp, #32	@ tmp293,,
	b	.L287		@
.LVL522:
.L306:
	.loc 1 652 28 view .LVU2316
.LBE903:
	.loc 1 618 9 is_stmt 1 view .LVU2317
	ldr	r0, .L308+28	@,
	mov	r1, r9	@, inbuflen
	ldr	r2, [sp, #20]	@, %sfp
.LPIC99:
	add	r0, pc, r0	@,
	bl	tfp_printf(PLT)	@
.LVL523:
	.loc 1 620 9 view .LVU2318
@ src/libgcrypt.c:620:         inbuflen -= c->unused;
	.loc 1 620 22 is_stmt 0 view .LVU2319
	ldr	ip, [r5, #32]	@ _192, c_61(D)->unused
@ src/libgcrypt.c:620:         inbuflen -= c->unused;
	.loc 1 620 18 view .LVU2320
	sub	r9, r9, ip	@ inbuflen, inbuflen, _192
.LVL524:
	.loc 1 621 9 is_stmt 1 view .LVU2321
	.loc 1 622 9 view .LVU2322
.LBB904:
.LBI904:
	.loc 1 55 13 view .LVU2323
.LBB905:
	.loc 1 56 5 view .LVU2324
	.loc 1 57 5 view .LVU2325
	.loc 1 58 5 view .LVU2326
	.loc 1 60 5 view .LVU2327
.LBB906:
	.loc 1 60 10 view .LVU2328
	.loc 1 60 24 view .LVU2329
@ src/libgcrypt.c:60:     for (size_t i = 0; i < len; i++) {
	.loc 1 60 5 is_stmt 0 view .LVU2330
	cmp	ip, #0	@ _192,
	beq	.L283		@,
	ldr	r3, [sp, #16]	@ inbuf, %sfp
	rsb	r2, ip, #7	@ tmp222, _192,
	add	r2, r5, r2	@ ivtmp.623, c, tmp222
	sub	r1, r3, #1	@ ivtmp.626, inbuf,
	ldr	r3, [sp, #12]	@ outbuf, %sfp
	add	ip, r1, ip	@ _219, ivtmp.626, _192
.LVL525:
	.loc 1 60 5 view .LVU2331
	sub	r0, r3, #1	@ ivtmp.629, outbuf,
.LVL526:
.L284:
.LBB907:
	.loc 1 61 9 is_stmt 1 view .LVU2332
@ src/libgcrypt.c:61:         byte temp = dst2[i] ^ src[i];
	.loc 1 61 14 is_stmt 0 view .LVU2333
	ldrb	lr, [r1, #1]!	@ zero_extendqisi2	@ MEM[base: _214, offset: 0B], MEM[base: _214, offset: 0B]
	ldrb	r3, [r2, #1]!	@ zero_extendqisi2	@ MEM[base: _212, offset: 0B], MEM[base: _212, offset: 0B]
.LBE907:
@ src/libgcrypt.c:60:     for (size_t i = 0; i < len; i++) {
	.loc 1 60 5 view .LVU2334
	cmp	r1, ip	@ ivtmp.626, _219
.LBB908:
@ src/libgcrypt.c:61:         byte temp = dst2[i] ^ src[i];
	.loc 1 61 14 view .LVU2335
	eor	r3, r3, lr	@ temp, MEM[base: _212, offset: 0B], MEM[base: _214, offset: 0B]
.LVL527:
	.loc 1 62 9 is_stmt 1 view .LVU2336
@ src/libgcrypt.c:62:         dst2[i] = temp;
	.loc 1 62 17 is_stmt 0 view .LVU2337
	strb	r3, [r2]	@ temp, MEM[base: _212, offset: 0B]
	.loc 1 63 9 is_stmt 1 view .LVU2338
@ src/libgcrypt.c:63:         dst1[i] = temp;
	.loc 1 63 17 is_stmt 0 view .LVU2339
	strb	r3, [r0, #1]!	@ temp, MEM[base: _215, offset: 0B]
.LBE908:
	.loc 1 60 33 is_stmt 1 view .LVU2340
	.loc 1 60 24 view .LVU2341
@ src/libgcrypt.c:60:     for (size_t i = 0; i < len; i++) {
	.loc 1 60 5 is_stmt 0 view .LVU2342
	bne	.L284		@,
.LBE906:
.LBE905:
.LBE904:
@ src/libgcrypt.c:623:         outbuf += c->unused;
	.loc 1 623 20 view .LVU2343
	ldr	ip, [r5, #32]	@ _192, c_61(D)->unused
.LVL528:
.L283:
	.loc 1 623 9 is_stmt 1 view .LVU2344
@ src/libgcrypt.c:623:         outbuf += c->unused;
	.loc 1 623 16 is_stmt 0 view .LVU2345
	ldr	r3, [sp, #12]	@ outbuf, %sfp
	add	r3, r3, ip	@ outbuf, outbuf, _192
.LVL529:
	.loc 1 623 16 view .LVU2346
	str	r3, [sp, #12]	@ outbuf, %sfp
.LVL530:
	.loc 1 624 9 is_stmt 1 view .LVU2347
@ src/libgcrypt.c:624:         inbuf += c->unused;
	.loc 1 624 15 is_stmt 0 view .LVU2348
	ldr	r3, [sp, #16]	@ inbuf, %sfp
.LVL531:
	.loc 1 624 15 view .LVU2349
	add	r3, r3, ip	@ inbuf, inbuf, _192
.LVL532:
	.loc 1 624 15 view .LVU2350
	str	r3, [sp, #16]	@ inbuf, %sfp
.LVL533:
	.loc 1 625 9 is_stmt 1 view .LVU2351
@ src/libgcrypt.c:625:         c->unused = 0;
	.loc 1 625 19 is_stmt 0 view .LVU2352
	mov	r3, #0	@ tmp231,
.LVL534:
	.loc 1 625 19 view .LVU2353
	str	r3, [r5, #32]	@ tmp231, c_61(D)->unused
	b	.L282		@
.LVL535:
.L307:
.LBB909:
	.loc 1 665 9 is_stmt 1 view .LVU2354
	ldr	r0, .L308+32	@,
	mov	r1, r9	@, inbuflen
	ldr	r3, [r5, #32]	@, c_61(D)->unused
@ src/libgcrypt.c:669:         struct Block ivBlock = blockFromBytes(c->u_iv.iv);
	.loc 1 669 32 is_stmt 0 view .LVU2355
	add	r4, sp, #48	@ tmp271,,
@ src/libgcrypt.c:665:         printf("cfb_encrypt 6 %d %d %d\n", inbuflen, outbuflen, c->unused);
	.loc 1 665 9 view .LVU2356
	ldr	r2, [sp, #20]	@, %sfp
@ src/libgcrypt.c:672:         ivBlock = encrypt(c->key, ivBlock, 0);
	.loc 1 672 19 view .LVU2357
	add	r7, sp, #32	@ tmp276,,
@ src/libgcrypt.c:665:         printf("cfb_encrypt 6 %d %d %d\n", inbuflen, outbuflen, c->unused);
	.loc 1 665 9 view .LVU2358
.LPIC105:
	add	r0, pc, r0	@,
@ src/libgcrypt.c:672:         ivBlock = encrypt(c->key, ivBlock, 0);
	.loc 1 672 19 view .LVU2359
	mov	r8, #0	@ tmp278,
.LBB910:
.LBB911:
@ src/libgcrypt.c:743:     printf("%08X%08X\n", block.msb, block.lsb);
	.loc 1 743 5 view .LVU2360
	ldr	r6, .L308+36	@ tmp275,
.LBE911:
.LBE910:
@ src/libgcrypt.c:665:         printf("cfb_encrypt 6 %d %d %d\n", inbuflen, outbuflen, c->unused);
	.loc 1 665 9 view .LVU2361
	bl	tfp_printf(PLT)	@
.LVL536:
	.loc 1 667 9 is_stmt 1 view .LVU2362
	mov	r2, #8	@,
	mov	r1, r5	@, c
.LBB914:
.LBB912:
@ src/libgcrypt.c:743:     printf("%08X%08X\n", block.msb, block.lsb);
	.loc 1 743 5 is_stmt 0 view .LVU2363
.LPIC106:
	add	r6, pc, r6	@ tmp275, tmp275
.LBE912:
.LBE914:
@ src/libgcrypt.c:667:         cipher_block_cpy(c->lastiv, c->u_iv.iv, blocksize);
	.loc 1 667 9 view .LVU2364
	add	r0, r5, #16	@, c,
	bl	cipher_block_cpy(PLT)	@
.LVL537:
	.loc 1 669 9 is_stmt 1 view .LVU2365
@ src/libgcrypt.c:669:         struct Block ivBlock = blockFromBytes(c->u_iv.iv);
	.loc 1 669 32 is_stmt 0 view .LVU2366
	mov	r1, r5	@, c
	mov	r0, r4	@, tmp271
	bl	blockFromBytes(PLT)	@
.LVL538:
	.loc 1 670 17 is_stmt 1 view .LVU2367
.LBB915:
.LBI910:
	.loc 1 741 13 view .LVU2368
.LBB913:
	.loc 1 743 5 view .LVU2369
	ldr	r2, [sp, #52]	@, MEM[(struct Block *)_95].lsb
	mov	r0, r6	@, tmp275
	ldr	r1, [sp, #48]	@, MEM[(struct Block *)_95].msb
	bl	tfp_printf(PLT)	@
.LVL539:
	.loc 1 743 5 is_stmt 0 view .LVU2370
.LBE913:
.LBE915:
	.loc 1 672 9 is_stmt 1 view .LVU2371
@ src/libgcrypt.c:672:         ivBlock = encrypt(c->key, ivBlock, 0);
	.loc 1 672 19 is_stmt 0 view .LVU2372
	str	r8, [sp]	@ tmp278,
	add	r1, r5, #48	@, c,
	ldm	r4, {r2, r3}	@ tmp271,,
	mov	r0, r7	@, tmp276
	bl	encrypt(PLT)	@
.LVL540:
	ldm	r7, {r0, r1}	@ tmp276,,
@ src/libgcrypt.c:673:         bytesFromBlock(ivBlock, c->u_iv.iv);
	.loc 1 673 9 view .LVU2373
	mov	r2, r5	@, c
@ src/libgcrypt.c:672:         ivBlock = encrypt(c->key, ivBlock, 0);
	.loc 1 672 19 view .LVU2374
	mov	r7, r0	@ ivBlock$msb,
.LVL541:
	.loc 1 672 19 view .LVU2375
	mov	r10, r1	@ ivBlock$lsb,
.LVL542:
	.loc 1 673 9 is_stmt 1 view .LVU2376
@ src/libgcrypt.c:672:         ivBlock = encrypt(c->key, ivBlock, 0);
	.loc 1 672 19 is_stmt 0 view .LVU2377
	stm	r4, {r0, r1}	@ tmp271,,
@ src/libgcrypt.c:673:         bytesFromBlock(ivBlock, c->u_iv.iv);
	.loc 1 673 9 view .LVU2378
	bl	bytesFromBlock(PLT)	@
.LVL543:
	.loc 1 674 9 is_stmt 1 view .LVU2379
.LBB916:
.LBI916:
	.loc 1 741 13 view .LVU2380
.LBB917:
	.loc 1 743 5 view .LVU2381
	mov	r2, r10	@, ivBlock$lsb
	mov	r1, r7	@, ivBlock$msb
	mov	r0, r6	@, tmp275
	bl	tfp_printf(PLT)	@
.LVL544:
	.loc 1 743 5 is_stmt 0 view .LVU2382
.LBE917:
.LBE916:
	.loc 1 676 9 is_stmt 1 view .LVU2383
	.loc 1 683 9 view .LVU2384
@ src/libgcrypt.c:684:         buf_xor_2dst(outbuf, c->u_iv.iv, inbuf, inbuflen);
	.loc 1 684 9 is_stmt 0 view .LVU2385
	ldr	r2, [sp, #16]	@, %sfp
@ src/libgcrypt.c:683:         c->unused -= inbuflen;
	.loc 1 683 19 view .LVU2386
	rsb	r3, r9, #8	@ tmp285, inbuflen,
@ src/libgcrypt.c:684:         buf_xor_2dst(outbuf, c->u_iv.iv, inbuf, inbuflen);
	.loc 1 684 9 view .LVU2387
	ldr	r0, [sp, #12]	@, %sfp
	mov	r1, r5	@, c
@ src/libgcrypt.c:683:         c->unused -= inbuflen;
	.loc 1 683 19 view .LVU2388
	str	r3, [r5, #32]	@ tmp285, c_61(D)->unused
	.loc 1 684 9 is_stmt 1 view .LVU2389
	mov	r3, r9	@, inbuflen
	bl	buf_xor_2dst(PLT)	@
.LVL545:
	.loc 1 685 9 view .LVU2390
	.loc 1 686 9 view .LVU2391
	.loc 1 687 9 view .LVU2392
	.loc 1 697 9 view .LVU2393
@ src/libgcrypt.c:697:         ivBlock = blockFromBytes(c->u_iv.iv);
	.loc 1 697 19 is_stmt 0 view .LVU2394
	mov	r1, r5	@, c
	mov	r0, r4	@, tmp271
	bl	blockFromBytes(PLT)	@
.LVL546:
	.loc 1 698 9 is_stmt 1 view .LVU2395
.LBB918:
.LBI918:
	.loc 1 741 13 view .LVU2396
.LBB919:
	.loc 1 743 5 view .LVU2397
	ldr	r2, [sp, #52]	@, MEM[(struct Block *)_95].lsb
	mov	r0, r6	@, tmp275
	ldr	r1, [sp, #48]	@, MEM[(struct Block *)_95].msb
	bl	tfp_printf(PLT)	@
.LVL547:
	.loc 1 743 5 is_stmt 0 view .LVU2398
.LBE919:
.LBE918:
.LBE909:
@ src/libgcrypt.c:701:     return 0;
	.loc 1 701 12 view .LVU2399
	mov	r0, r8	@ <retval>, tmp278
@ src/libgcrypt.c:702: }
	.loc 1 702 1 view .LVU2400
	add	sp, sp, #60	@,,
	.cfi_remember_state
	.cfi_def_cfa_offset 36
	@ sp needed	@
	pop	{r4, r5, r6, r7, r8, r9, r10, fp, pc}	@
.LVL548:
.L305:
	.cfi_restore_state
	.loc 1 607 9 is_stmt 1 view .LVU2401
	ldr	r0, .L308+40	@,
	mov	r1, r9	@, inbuflen
	ldr	r2, [sp, #20]	@, %sfp
.LPIC98:
	add	r0, pc, r0	@,
	bl	tfp_printf(PLT)	@
.LVL549:
	.loc 1 609 9 view .LVU2402
@ src/libgcrypt.c:609:         ivp = c->u_iv.iv + blocksize - c->unused;
	.loc 1 609 41 is_stmt 0 view .LVU2403
	ldr	r2, [r5, #32]	@ _209, c_61(D)->unused
.LVL550:
	.loc 1 610 9 is_stmt 1 view .LVU2404
.LBB920:
.LBI920:
	.loc 1 55 13 view .LVU2405
.LBB921:
	.loc 1 56 5 view .LVU2406
	.loc 1 57 5 view .LVU2407
	.loc 1 58 5 view .LVU2408
	.loc 1 60 5 view .LVU2409
.LBB922:
	.loc 1 60 10 view .LVU2410
	.loc 1 60 24 view .LVU2411
@ src/libgcrypt.c:60:     for (size_t i = 0; i < len; i++) {
	.loc 1 60 5 is_stmt 0 view .LVU2412
	cmp	r9, #0	@ inbuflen,
	beq	.L280		@,
	ldr	r3, [sp, #16]	@ inbuf, %sfp
	rsb	r2, r2, #7	@ tmp210, _209,
.LVL551:
	.loc 1 60 5 view .LVU2413
	add	r2, r5, r2	@ ivtmp.603, c, tmp210
	sub	r1, r3, #1	@ ivtmp.606, inbuf,
	ldr	r3, [sp, #12]	@ outbuf, %sfp
	add	lr, r1, r9	@ _203, ivtmp.606, inbuflen
	sub	r0, r3, #1	@ ivtmp.609, outbuf,
.LVL552:
.L281:
.LBB923:
	.loc 1 61 9 is_stmt 1 view .LVU2414
@ src/libgcrypt.c:61:         byte temp = dst2[i] ^ src[i];
	.loc 1 61 14 is_stmt 0 view .LVU2415
	ldrb	ip, [r1, #1]!	@ zero_extendqisi2	@ MEM[base: _208, offset: 0B], MEM[base: _208, offset: 0B]
	ldrb	r3, [r2, #1]!	@ zero_extendqisi2	@ MEM[base: _18, offset: 0B], MEM[base: _18, offset: 0B]
.LBE923:
@ src/libgcrypt.c:60:     for (size_t i = 0; i < len; i++) {
	.loc 1 60 5 view .LVU2416
	cmp	r1, lr	@ ivtmp.606, _203
.LBB924:
@ src/libgcrypt.c:61:         byte temp = dst2[i] ^ src[i];
	.loc 1 61 14 view .LVU2417
	eor	r3, r3, ip	@ temp, MEM[base: _18, offset: 0B], MEM[base: _208, offset: 0B]
.LVL553:
	.loc 1 62 9 is_stmt 1 view .LVU2418
@ src/libgcrypt.c:62:         dst2[i] = temp;
	.loc 1 62 17 is_stmt 0 view .LVU2419
	strb	r3, [r2]	@ temp, MEM[base: _18, offset: 0B]
	.loc 1 63 9 is_stmt 1 view .LVU2420
@ src/libgcrypt.c:63:         dst1[i] = temp;
	.loc 1 63 17 is_stmt 0 view .LVU2421
	strb	r3, [r0, #1]!	@ temp, MEM[base: _206, offset: 0B]
.LBE924:
	.loc 1 60 33 is_stmt 1 view .LVU2422
	.loc 1 60 24 view .LVU2423
@ src/libgcrypt.c:60:     for (size_t i = 0; i < len; i++) {
	.loc 1 60 5 is_stmt 0 view .LVU2424
	bne	.L281		@,
.LBE922:
.LBE921:
.LBE920:
@ src/libgcrypt.c:611:         c->unused -= inbuflen;
	.loc 1 611 19 view .LVU2425
	ldr	r2, [r5, #32]	@ _209, c_61(D)->unused
.LVL554:
.L280:
	.loc 1 611 9 is_stmt 1 view .LVU2426
@ src/libgcrypt.c:611:         c->unused -= inbuflen;
	.loc 1 611 19 is_stmt 0 view .LVU2427
	sub	r2, r2, r9	@ tmp219, _209, inbuflen
@ src/libgcrypt.c:612:         return 0;
	.loc 1 612 16 view .LVU2428
	mov	r0, #0	@ <retval>,
@ src/libgcrypt.c:611:         c->unused -= inbuflen;
	.loc 1 611 19 view .LVU2429
	str	r2, [r5, #32]	@ tmp219, c_61(D)->unused
	.loc 1 612 9 is_stmt 1 view .LVU2430
@ src/libgcrypt.c:702: }
	.loc 1 702 1 is_stmt 0 view .LVU2431
	add	sp, sp, #60	@,,
	.cfi_remember_state
	.cfi_def_cfa_offset 36
	@ sp needed	@
	pop	{r4, r5, r6, r7, r8, r9, r10, fp, pc}	@
.LVL555:
.L289:
	.cfi_restore_state
@ src/libgcrypt.c:604:         return -1; /* Buffer too short */
	.loc 1 604 16 view .LVU2432
	mvn	r0, #0	@ <retval>,
	b	.L276		@
.L309:
	.align	2
.L308:
	.word	.LC56-(.LPIC96+8)
	.word	.LC55-(.LPIC95+8)
	.word	.LC8-(.LPIC97+8)
	.word	.LC59-(.LPIC100+8)
	.word	.LC49-(.LPIC101+8)
	.word	.LC60-(.LPIC102+8)
	.word	.LC49-(.LPIC103+8)
	.word	.LC58-(.LPIC99+8)
	.word	.LC61-(.LPIC105+8)
	.word	.LC49-(.LPIC106+8)
	.word	.LC57-(.LPIC98+8)
	.cfi_endproc
.LFE23:
	.size	_gcry_cipher_cfb_encrypt, .-_gcry_cipher_cfb_encrypt
	.global	S8
	.global	S7
	.global	S6
	.global	S5
	.global	S4
	.global	S3
	.global	S2
	.global	S1
	.section	.rodata.K_MAP,"a"
	.align	2
	.set	.LANCHOR0,. + 0
	.type	K_MAP, %object
	.size	K_MAP, 16
K_MAP:
	.ascii	"\003\002\001\000\007\006\005\004\013\012\011\010\017"
	.ascii	"\016\015\014"
	.section	.rodata.S1,"a"
	.align	2
	.type	S1, %object
	.size	S1, 1024
S1:
	.word	821772500
	.word	-1616838901
	.word	1810681135
	.word	1059425402
	.word	505495343
	.word	-1677701677
	.word	1610868032
	.word	-811611831
	.word	-1076580569
	.word	-2000962123
	.word	-503103344
	.word	-1731160459
	.word	1852023008
	.word	365126098
	.word	-1025022435
	.word	584384398
	.word	677919599
	.word	-1065365415
	.word	-14452280
	.word	2002735330
	.word	1136869587
	.word	-550533546
	.word	-2005097446
	.word	-1563247315
	.word	-1580605226
	.word	879511577
	.word	1639411079
	.word	575934255
	.word	717107937
	.word	-1437329813
	.word	576097850
	.word	-1563213360
	.word	1725645000
	.word	-1484506833
	.word	5111599
	.word	767152862
	.word	-1751892052
	.word	1251459544
	.word	1383482551
	.word	-1242286169
	.word	-1205028113
	.word	-682503847
	.word	1878520045
	.word	1510570527
	.word	-2105841456
	.word	-1863518930
	.word	582008916
	.word	-1131521739
	.word	1265446783
	.word	1354458274
	.word	-765048560
	.word	-1092255443
	.word	-1221385584
	.word	-382003809
	.word	-1265703919
	.word	1275016285
	.word	-45759936
	.word	-1389258945
	.word	-990457810
	.word	1442611557
	.word	-709768531
	.word	-1582551634
	.word	-1563117715
	.word	-1046803376
	.word	-2011021070
	.word	208555832
	.word	-1528512553
	.word	1331405426
	.word	1447828783
	.word	-979610855
	.word	-1186340012
	.word	-1337562626
	.word	-1313428598
	.word	-955033379
	.word	1669711173
	.word	286233437
	.word	1465092821
	.word	1782121619
	.word	-432195616
	.word	710211251
	.word	980974943
	.word	1651941557
	.word	430374111
	.word	2051154026
	.word	704238805
	.word	-165996399
	.word	-1150146722
	.word	-1437564569
	.word	948965521
	.word	-961214997
	.word	-2067281012
	.word	718756367
	.word	-2025188313
	.word	-1563323541
	.word	718440111
	.word	-1437150575
	.word	-678870176
	.word	1113355533
	.word	-1816945114
	.word	410092745
	.word	1811985197
	.word	1944238868
	.word	-1598112708
	.word	1415722873
	.word	1682284203
	.word	1060277122
	.word	1998114690
	.word	1503841958
	.word	82706478
	.word	-1979811610
	.word	1068173648
	.word	845149890
	.word	-2127020283
	.word	1768146376
	.word	1993038550
	.word	-728140599
	.word	-904393265
	.word	940016341
	.word	-939893514
	.word	-1966926575
	.word	904371731
	.word	1205506512
	.word	-200306554
	.word	-1478344290
	.word	825647681
	.word	85914773
	.word	-1437123836
	.word	1249926541
	.word	1417871568
	.word	3287612
	.word	-1083912737
	.word	-1168660850
	.word	1975924523
	.word	1353700161
	.word	-1480510859
	.word	-1856369675
	.word	1800716203
	.word	722146342
	.word	-1421030953
	.word	1151126914
	.word	-134483355
	.word	-1417296397
	.word	458611604
	.word	-1428888796
	.word	-811287233
	.word	770352098
	.word	-1642050302
	.word	-927128148
	.word	-354462285
	.word	-708993384
	.word	-485346894
	.word	718646636
	.word	-1790760482
	.word	-1380039384
	.word	-663679127
	.word	-1437480689
	.word	-1434948618
	.word	575749918
	.word	-1437489253
	.word	718488780
	.word	2069512688
	.word	-746783827
	.word	453416197
	.word	1106044049
	.word	-1262275866
	.word	52586708
	.word	-916452660
	.word	-835158419
	.word	-1083461268
	.word	1785789304
	.word	218356169
	.word	-723568162
	.word	-535796774
	.word	1194783844
	.word	1523787992
	.word	-1287140202
	.word	1975193539
	.word	-1739514885
	.word	1341901877
	.word	-1249128598
	.word	-518059332
	.word	-1077543350
	.word	-1492456432
	.word	-1405528310
	.word	1057244207
	.word	1636348243
	.word	-533104082
	.word	1462225785
	.word	-1662303857
	.word	481089165
	.word	718503062
	.word	24497053
	.word	-962724087
	.word	-950311440
	.word	-639942440
	.word	-334596231
	.word	1195698900
	.word	-1323552140
	.word	-584791138
	.word	2115785917
	.word	-267303687
	.word	-769388879
	.word	-1770671107
	.word	-1548994731
	.word	-730060881
	.word	1372086093
	.word	1452307862
	.word	-1514465818
	.word	1476592880
	.word	-905696015
	.word	18495466
	.word	-1916818725
	.word	901398090
	.word	891748256
	.word	-1015329527
	.word	-1137676583
	.word	-1734007194
	.word	1447622437
	.word	-10594659
	.word	216884176
	.word	2086908623
	.word	1879786977
	.word	-706064143
	.word	-2052511630
	.word	-1356874329
	.word	-735885200
	.word	-1484321805
	.word	758861177
	.word	1121993112
	.word	215018983
	.word	642190776
	.word	-125730484
	.word	1196255959
	.word	2081185372
	.word	-786228903
	.word	941322904
	.word	-170724133
	.word	-1417443757
	.word	1848581667
	.word	-2089706338
	.word	-1114513338
	.word	-1705622162
	.word	-600236020
	.word	550028657
	.word	-1775511012
	.word	-504981761
	.word	-1321096440
	.word	2093648313
	.word	443148163
	.word	46942275
	.word	-1560820359
	.word	1117713533
	.word	1115362972
	.word	1523183689
	.word	-577827072
	.word	1551984063
	.section	.rodata.S2,"a"
	.align	2
	.type	S2, %object
	.size	S2, 1024
S2:
	.word	522195092
	.word	-284448933
	.word	1776537470
	.word	960447360
	.word	-27144326
	.word	-289070982
	.word	1435016340
	.word	1929119313
	.word	-1381503111
	.word	1310552629
	.word	-715496498
	.word	-570149190
	.word	-1715195665
	.word	1594623892
	.word	417127293
	.word	-1579749389
	.word	-1598738565
	.word	1508390405
	.word	-300568428
	.word	-369108727
	.word	-599523194
	.word	-275495847
	.word	-1165767501
	.word	-524038661
	.word	-774225535
	.word	990456497
	.word	-107482687
	.word	-1511600261
	.word	21106139
	.word	-454561957
	.word	631373633
	.word	-511641594
	.word	532942976
	.word	396095098
	.word	-746928471
	.word	-27774812
	.word	-1730245761
	.word	2011709262
	.word	2039648873
	.word	620404603
	.word	-518797221
	.word	-1396440957
	.word	-682609371
	.word	-135634593
	.word	1645490516
	.word	223693667
	.word	1567101217
	.word	-932789415
	.word	1029951347
	.word	-824036160
	.word	-724009337
	.word	1550265121
	.word	119497089
	.word	972513919
	.word	907948164
	.word	-454338757
	.word	1613718692
	.word	-700789348
	.word	465323573
	.word	-1635712211
	.word	654439692
	.word	-1719371084
	.word	-1595678855
	.word	-1167264884
	.word	277098644
	.word	624404830
	.word	-194023426
	.word	-1577108705
	.word	546110314
	.word	-1891267468
	.word	-639589849
	.word	1321679412
	.word	-58175639
	.word	1045293279
	.word	-284295032
	.word	895050893
	.word	-1975175028
	.word	494945126
	.word	1914543101
	.word	-1517910853
	.word	-400202957
	.word	-2075229678
	.word	311263384
	.word	-19710028
	.word	-836236575
	.word	669096869
	.word	-710491566
	.word	-459844419
	.word	-975809059
	.word	-345608092
	.word	2005142349
	.word	-1581864959
	.word	-2066012503
	.word	-524982508
	.word	569394103
	.word	-439330720
	.word	1425027204
	.word	108000370
	.word	-1558535853
	.word	-623098027
	.word	-1251844673
	.word	1750473702
	.word	-2083886188
	.word	762237499
	.word	-321977893
	.word	-1496067910
	.word	-1233109668
	.word	-1351112951
	.word	867476300
	.word	964413654
	.word	1591880597
	.word	1594774276
	.word	-2115145887
	.word	552026980
	.word	-1268903048
	.word	-568826981
	.word	-2011389662
	.word	-1184422191
	.word	-2142656536
	.word	582474363
	.word	1582640421
	.word	1383256631
	.word	2043843868
	.word	-972191412
	.word	1217180674
	.word	463797851
	.word	-1531928725
	.word	480777679
	.word	-1576259579
	.word	-2005803165
	.word	-1176621109
	.word	214354409
	.word	200212307
	.word	-484358889
	.word	-1269553099
	.word	-1620891332
	.word	-297670871
	.word	1847405948
	.word	1342460550
	.word	510035443
	.word	-214695482
	.word	815934613
	.word	833030224
	.word	1620250387
	.word	1945732119
	.word	-1591306151
	.word	-328967100
	.word	1388869545
	.word	-838913114
	.word	-1607788735
	.word	2092620194
	.word	562037615
	.word	1356438536
	.word	-885045151
	.word	-1033119899
	.word	1688467115
	.word	-2144065930
	.word	631725691
	.word	-454635012
	.word	549916902
	.word	-839862656
	.word	394546491
	.word	837744717
	.word	2114462948
	.word	751520235
	.word	-2073412690
	.word	-1879607160
	.word	-295870218
	.word	2063029875
	.word	803036379
	.word	-1592380991
	.word	821456707
	.word	-1275401132
	.word	360699898
	.word	-276465204
	.word	-783098280
	.word	-617611938
	.word	-1892495847
	.word	812317050
	.word	49299192
	.word	-1724802347
	.word	-1035798001
	.word	-1478235216
	.word	-963753722
	.word	-1193663732
	.word	-2138951640
	.word	-589368376
	.word	-748703375
	.word	143268808
	.word	-1094662816
	.word	1638124008
	.word	-1129777843
	.word	-953159686
	.word	578956953
	.word	-2100989772
	.word	-656847223
	.word	-1961085764
	.word	807278310
	.word	658237817
	.word	-1325405530
	.word	1641658566
	.word	11683945
	.word	-1207972289
	.word	148645947
	.word	1138423386
	.word	-136210536
	.word	1981396783
	.word	-1893950556
	.word	-595183712
	.word	380097457
	.word	-1614572617
	.word	-1491898645
	.word	-960707010
	.word	441530178
	.word	-278386500
	.word	1375954390
	.word	761952171
	.word	891809099
	.word	-2111843818
	.word	157052462
	.word	-611126533
	.word	1592404427
	.word	341349109
	.word	-1856483457
	.word	1417898363
	.word	644327628
	.word	-2061934520
	.word	-1941197590
	.word	-2093457196
	.word	220455161
	.word	1815641738
	.word	182899273
	.word	-1299947508
	.word	-667585763
	.word	-592329145
	.word	-1404283158
	.word	1052606899
	.word	588164016
	.word	1681439879
	.word	-256527878
	.word	-1889623373
	.word	-65518014
	.word	167996282
	.word	1336969661
	.word	1688053129
	.word	-1555742370
	.word	1543734051
	.word	1046297529
	.word	1138201970
	.word	2121126012
	.word	115334942
	.word	1819067631
	.word	1902159161
	.word	1941945968
	.word	-2088274427
	.word	1159982321
	.section	.rodata.S3,"a"
	.align	2
	.type	S3, %object
	.size	S3, 1024
S3:
	.word	-1913667008
	.word	637164959
	.word	-342868545
	.word	-401553145
	.word	1197506559
	.word	916448331
	.word	-1944074684
	.word	-1362179440
	.word	-1095632449
	.word	-285488406
	.word	-389080752
	.word	1373570990
	.word	-1844541434
	.word	-257096376
	.word	-516125309
	.word	-1838149419
	.word	286293407
	.word	124026297
	.word	-1293687596
	.word	1028597854
	.word	-1179670496
	.word	-86080800
	.word	-1603852661
	.word	-2106427090
	.word	1430237888
	.word	1218109995
	.word	-722495596
	.word	308166588
	.word	570424558
	.word	-2107958275
	.word	-1839872531
	.word	307733056
	.word	1310360322
	.word	-1159692289
	.word	1384269543
	.word	-1906895858
	.word	863238079
	.word	-1935703672
	.word	-1493414168
	.word	-914180699
	.word	-1463804489
	.word	1470087780
	.word	1728663345
	.word	-222478497
	.word	1090516929
	.word	532123132
	.word	-1905536319
	.word	1132193179
	.word	-1716503105
	.word	-1243888053
	.word	1670234342
	.word	1434557849
	.word	-1583888356
	.word	1241591150
	.word	-980923864
	.word	-859607183
	.word	-1203518957
	.word	1812415473
	.word	-2096527044
	.word	267246943
	.word	796911696
	.word	-675250306
	.word	38830015
	.word	1526438404
	.word	-1488465200
	.word	374413614
	.word	-1351565506
	.word	1489179520
	.word	1603809326
	.word	1920779204
	.word	168801282
	.word	260042626
	.word	-1936261715
	.word	1563175598
	.word	-1897293239
	.word	1356499128
	.word	-2077756256
	.word	514611088
	.word	2037363785
	.word	-2108498923
	.word	-272794213
	.word	-1502455427
	.word	-1381482280
	.word	1173701892
	.word	-94538749
	.word	-398540027
	.word	1334932762
	.word	-1839830590
	.word	602925377
	.word	-1459359442
	.word	1613172210
	.word	41346230
	.word	-1795332748
	.word	-1837529678
	.word	-2106139701
	.word	41386358
	.word	-122711667
	.word	1313404830
	.word	-1889440289
	.word	-492993522
	.word	-2077262461
	.word	873260488
	.word	-1766082942
	.word	-1816874680
	.word	-282051413
	.word	-1739608280
	.word	2006953883
	.word	-1831053811
	.word	575479328
	.word	-2076726648
	.word	2099895446
	.word	660001756
	.word	-1953465106
	.word	-1256205760
	.word	-406815517
	.word	-446253919
	.word	-1008115362
	.word	1022894237
	.word	1620365795
	.word	-845372607
	.word	1551255054
	.word	15374395
	.word	-724141951
	.word	-45656276
	.word	-143856167
	.word	-1113054564
	.word	310226346
	.word	1133119310
	.word	530038928
	.word	136043402
	.word	-1818198338
	.word	-1187460587
	.word	-1750057729
	.word	1036173560
	.word	-1927630100
	.word	1681395281
	.word	1758231547
	.word	-653318264
	.word	306774401
	.word	1575354324
	.word	-578881430
	.word	1990386196
	.word	-1180433560
	.word	-1839360625
	.word	1262092282
	.word	-1170624791
	.word	-1526738165
	.word	-84438213
	.word	1833535011
	.word	423410938
	.word	660763973
	.word	-2107837318
	.word	1639812000
	.word	-786545967
	.word	-827521804
	.word	310289298
	.word	272797111
	.word	-2106414734
	.word	-1838103384
	.word	310240523
	.word	677093832
	.word	1013118031
	.word	901835429
	.word	-402271695
	.word	1116285435
	.word	-1258496126
	.word	1337354835
	.word	243122523
	.word	520626091
	.word	277223598
	.word	-50526099
	.word	-100718455
	.word	1766575121
	.word	594173102
	.word	316590669
	.word	742362309
	.word	-758108674
	.word	-118531946
	.word	-456174886
	.word	-1793762457
	.word	1229605004
	.word	-1179211764
	.word	1552908988
	.word	-1982633147
	.word	979407927
	.word	-335492695
	.word	1148277331
	.word	176638793
	.word	-680281024
	.word	2083809052
	.word	40992502
	.word	1340822838
	.word	-1563414529
	.word	-759209788
	.word	-734067776
	.word	1354035053
	.word	122129617
	.word	7215240
	.word	-1562034347
	.word	-1176054596
	.word	-1576763370
	.word	-1755891661
	.word	-685736601
	.word	-569405635
	.word	1928887091
	.word	-1412673741
	.word	1988674909
	.word	2063640240
	.word	-1803878399
	.word	1459647954
	.word	-105150216
	.word	-1992162914
	.word	1113892351
	.word	-2057108768
	.word	1927010603
	.word	-292086935
	.word	1856122846
	.word	1594404395
	.word	-1350934163
	.word	-439777433
	.word	-819991598
	.word	1643104450
	.word	-240376463
	.word	-863880766
	.word	1730235576
	.word	-1310358575
	.word	-1210302878
	.word	2131803598
	.word	-116761544
	.word	267404349
	.word	1617849798
	.word	1616132681
	.word	1462223176
	.word	736725533
	.word	-1967909064
	.word	551665188
	.word	-1349068273
	.word	1749386277
	.word	-1719452699
	.word	1611482493
	.word	674206544
	.word	-2093698206
	.word	-652406496
	.word	728599968
	.word	1680547377
	.word	-1674552832
	.word	1388111496
	.word	453204106
	.word	-138743851
	.word	1094905244
	.word	-1540269039
	.word	-2093859131
	.word	-537967050
	.word	-1590442751
	.word	-372026596
	.word	-298502269
	.section	.rodata.S4,"a"
	.align	2
	.type	S4, %object
	.size	S4, 1024
S4:
	.word	-1649212384
	.word	532081118
	.word	-1480688657
	.word	-764173672
	.word	1246723035
	.word	1689095255
	.word	-2058288061
	.word	-100528431
	.word	2116582143
	.word	-435177885
	.word	157234593
	.word	2045505824
	.word	-49963709
	.word	1687664561
	.word	-211542173
	.word	605965023
	.word	672431967
	.word	1336064205
	.word	-918355904
	.word	214114848
	.word	-36500688
	.word	-1062914225
	.word	489488601
	.word	605322005
	.word	-296939238
	.word	264917351
	.word	1912574028
	.word	756637694
	.word	436560991
	.word	202637054
	.word	135989450
	.word	85393697
	.word	-2142043904
	.word	-398565634
	.word	-1399130888
	.word	2145855233
	.word	-759632289
	.word	115294817
	.word	-1147233398
	.word	1922296357
	.word	-830144545
	.word	-177108991
	.word	1037454084
	.word	-1569774021
	.word	2127856640
	.word	1417604070
	.word	1148013728
	.word	1827919605
	.word	642362335
	.word	-1365194763
	.word	909348033
	.word	1346338451
	.word	-747167647
	.word	297154785
	.word	1917849091
	.word	-133254469
	.word	-1411362770
	.word	-326273058
	.word	1469521537
	.word	-514889914
	.word	-919383040
	.word	1763717519
	.word	136166297
	.word	-3996507
	.word	1295325189
	.word	2134727907
	.word	-1496815930
	.word	1566297257
	.word	-622039062
	.word	-1617793135
	.word	-1622793681
	.word	965822077
	.word	-1514181234
	.word	289653839
	.word	1133871874
	.word	-803123477
	.word	35685304
	.word	1068898316
	.word	418943774
	.word	672553190
	.word	642281022
	.word	-1948808592
	.word	1954014401
	.word	-1257840516
	.word	-215152091
	.word	2030668546
	.word	-454378623
	.word	672283427
	.word	1776201016
	.word	359975446
	.word	-544793758
	.word	555499703
	.word	-1524982023
	.word	1324923
	.word	69110472
	.word	152125443
	.word	-1118182190
	.word	-472820011
	.word	1340634837
	.word	798073664
	.word	1434183902
	.word	15393959
	.word	216384236
	.word	1303690150
	.word	-413745665
	.word	-583833172
	.word	-333991883
	.word	106373927
	.word	-1716533072
	.word	1455997841
	.word	1801814300
	.word	1578393881
	.word	1854262133
	.word	-1106788350
	.word	-1036888713
	.word	-1992297236
	.word	1539295533
	.word	-789824731
	.word	-1216341321
	.word	-1922221276
	.word	549938159
	.word	-1016683012
	.word	-1674041216
	.word	181285381
	.word	-1429646198
	.word	-324937785
	.word	68876850
	.word	488006234
	.word	1728155692
	.word	-1686799788
	.word	836007927
	.word	-1859735503
	.word	919367643
	.word	-955544762
	.word	-639210936
	.word	1457871481
	.word	40520939
	.word	1380155135
	.word	797931188
	.word	234455205
	.word	-2039165469
	.word	-304478997
	.word	397000196
	.word	739833055
	.word	-1217101923
	.word	-1423247436
	.word	-272413408
	.word	772369276
	.word	390177364
	.word	-441016267
	.word	557662966
	.word	740064294
	.word	1640166671
	.word	1699928825
	.word	-759025160
	.word	622006121
	.word	-669614174
	.word	68743880
	.word	1742502
	.word	219489963
	.word	1664179233
	.word	1577743084
	.word	1236991741
	.word	410585305
	.word	-1928479354
	.word	823226535
	.word	1050371084
	.word	-868347689
	.word	-708127818
	.word	212779912
	.word	-147848735
	.word	1819446015
	.word	1911218849
	.word	530248558
	.word	-808726225
	.word	-1042381801
	.word	-1408778645
	.word	-884694568
	.word	-1952772266
	.word	20547779
	.word	-1312477238
	.word	-1262603827
	.word	-663214074
	.word	312714466
	.word	1870521650
	.word	1493008054
	.word	-803280640
	.word	615382978
	.word	-191295547
	.word	-1760449851
	.word	1932181
	.word	-2098862126
	.word	278426614
	.word	6369430
	.word	-1020422879
	.word	-1381948929
	.word	697336853
	.word	2143000447
	.word	-1348553765
	.word	701099306
	.word	1558357093
	.word	-1489964244
	.word	-794148888
	.word	-1973632879
	.word	-727831321
	.word	216290473
	.word	-703935098
	.word	23009561
	.word	1996984579
	.word	-559924490
	.word	2024298078
	.word	-555526433
	.word	569400510
	.word	-1955208313
	.word	-1278933423
	.word	-1197095953
	.word	-655444270
	.word	-450642313
	.word	-1038793431
	.word	795471839
	.word	-1343849733
	.word	-193936206
	.word	-203363493
	.word	-691234698
	.word	971261452
	.word	534414648
	.word	428311343
	.word	-905940121
	.word	-1450097416
	.word	694888862
	.word	1227866773
	.word	-1838760277
	.word	-1251512727
	.word	-1680613926
	.word	-545389265
	.word	-618303460
	.word	459166190
	.word	-162323226
	.word	1794958188
	.word	51825668
	.word	-2042355394
	.word	-1210295856
	.word	2036672799
	.word	-858325693
	.word	1099053433
	.word	-1825845770
	.word	-1235762355
	.word	1323291266
	.word	2061838604
	.word	1018778475
	.word	-2061623042
	.word	-1741466242
	.word	334295216
	.word	-738217102
	.word	1065731521
	.word	183467730
	.section	.rodata.S5,"a"
	.align	2
	.type	S5, %object
	.size	S5, 1024
S5:
	.word	2127105028
	.word	745436345
	.word	-1693554977
	.word	-1506576111
	.word	-1200979969
	.word	500390133
	.word	1155374404
	.word	389092991
	.word	150729210
	.word	-403369524
	.word	-771417344
	.word	1935325696
	.word	716645080
	.word	946045387
	.word	-1393155014
	.word	1774124410
	.word	-425531521
	.word	-255385395
	.word	-1001830378
	.word	-856309376
	.word	948246080
	.word	363898952
	.word	-427091765
	.word	1286266623
	.word	1598556673
	.word	68334250
	.word	630723836
	.word	1104211938
	.word	1312863373
	.word	613332731
	.word	-1917182722
	.word	1101634306
	.word	441780740
	.word	-1165007413
	.word	1917973735
	.word	-1784342747
	.word	-1056510761
	.word	-1750755318
	.word	-986072662
	.word	1299840618
	.word	-218892445
	.word	1756332096
	.word	-317940138
	.word	297047435
	.word	-504669560
	.word	-2029394256
	.word	-673156778
	.word	1311375015
	.word	1667687725
	.word	47300608
	.word	-995324411
	.word	-1820854927
	.word	201668394
	.word	1468347890
	.word	576830978
	.word	-700276535
	.word	-552361344
	.word	1958042578
	.word	1747032512
	.word	-735975956
	.word	1408974056
	.word	-928125517
	.word	682131401
	.word	1033214337
	.word	1545599232
	.word	-29830247
	.word	206503691
	.word	103024618
	.word	-1439739983
	.word	1337551222
	.word	-1865968379
	.word	-1331124364
	.word	-279600641
	.word	-442719550
	.word	-1498010329
	.word	-429243805
	.word	-547028961
	.word	247794022
	.word	-539142724
	.word	702416469
	.word	-1860275302
	.word	397379957
	.word	851939612
	.word	-1980197784
	.word	218229120
	.word	1380406772
	.word	62274761
	.word	214451378
	.word	-1124863830
	.word	-2018756887
	.word	-449154010
	.word	28563499
	.word	446592073
	.word	1693330814
	.word	-841240102
	.word	29968656
	.word	-1201094784
	.word	220656637
	.word	-1824330265
	.word	77972100
	.word	1667708854
	.word	1358280214
	.word	-230201629
	.word	-1899350335
	.word	325977563
	.word	-17726575
	.word	-74941897
	.word	-689440812
	.word	-939819575
	.word	811859167
	.word	-1225422370
	.word	-332840486
	.word	652502677
	.word	-1219075047
	.word	-162205755
	.word	-796043081
	.word	1217549313
	.word	-1044722817
	.word	-436251377
	.word	-1240977335
	.word	1538642152
	.word	-2015941030
	.word	-1419088159
	.word	574252750
	.word	-970198067
	.word	-1643608583
	.word	1758150215
	.word	141295887
	.word	-1575098336
	.word	-779392546
	.word	-201959561
	.word	-100482058
	.word	1082055363
	.word	-877406896
	.word	395511885
	.word	-1328083270
	.word	179534037
	.word	-648938740
	.word	-556279210
	.word	1092926436
	.word	-1798698154
	.word	257381841
	.word	-522066578
	.word	1636087230
	.word	1477059743
	.word	-1795732544
	.word	-483948402
	.word	-1619307167
	.word	-1008991616
	.word	90732309
	.word	1684827095
	.word	1150307763
	.word	1723134115
	.word	-1057921910
	.word	1769919919
	.word	1240018934
	.word	815675215
	.word	750138730
	.word	-2055174797
	.word	1234303040
	.word	1995484674
	.word	138143821
	.word	675421338
	.word	1145607174
	.word	1936608440
	.word	-1056364272
	.word	-1949737018
	.word	2105974004
	.word	323969391
	.word	779555213
	.word	-1290064927
	.word	-1433357198
	.word	1017501463
	.word	2098600890
	.word	-1666346992
	.word	-1354355806
	.word	-1612424750
	.word	1171473753
	.word	-638395885
	.word	-607759225
	.word	-203097778
	.word	393037935
	.word	159126506
	.word	1662887367
	.word	1147106178
	.word	391545844
	.word	-842634601
	.word	1891500680
	.word	-1278357646
	.word	1851642611
	.word	546529401
	.word	1167818917
	.word	-1100946725
	.word	-1446891263
	.word	-341495460
	.word	575554290
	.word	475796850
	.word	-160294100
	.word	450035699
	.word	-1943715762
	.word	844027695
	.word	1080539133
	.word	86184846
	.word	1554234488
	.word	-602941842
	.word	1972511363
	.word	2018339607
	.word	1491841390
	.word	1141460869
	.word	1061690759
	.word	-50418053
	.word	2008416118
	.word	-1943862593
	.word	-1426819754
	.word	1598468138
	.word	722020353
	.word	1027143159
	.word	212344630
	.word	1387219594
	.word	1725294528
	.word	-549779340
	.word	-1794813680
	.word	458938280
	.word	-165751379
	.word	1828119673
	.word	544571780
	.word	-791741851
	.word	-1997029800
	.word	1241802790
	.word	267843827
	.word	-1600356496
	.word	1397140384
	.word	1558801448
	.word	-512299613
	.word	1806446719
	.word	929573330
	.word	-2060054615
	.word	400817706
	.word	616011623
	.word	-173446368
	.word	-691198571
	.word	1761550015
	.word	1968522284
	.word	-241236290
	.word	-102734438
	.word	-289847011
	.word	872482584
	.word	-1154430280
	.word	-400359915
	.word	-2007561853
	.word	1963876937
	.word	-631079339
	.word	1584857000
	.word	-1319942842
	.word	1833426440
	.word	-269883436
	.section	.rodata.S6,"a"
	.align	2
	.type	S6, %object
	.size	S6, 1024
S6:
	.word	-151351395
	.word	749497569
	.word	1285769319
	.word	-499941508
	.word	-1780807449
	.word	23610292
	.word	-319988548
	.word	844452780
	.word	-1080096416
	.word	-543038739
	.word	-2081400931
	.word	1676510905
	.word	448177848
	.word	-564216263
	.word	-208668878
	.word	-1987464904
	.word	871450977
	.word	-1072089155
	.word	-184105254
	.word	-463315330
	.word	-1559696743
	.word	1310974780
	.word	2043402188
	.word	1218528103
	.word	-1558931943
	.word	-20362283
	.word	-1592518838
	.word	-358606746
	.word	-1601905875
	.word	162023535
	.word	-1467457206
	.word	687910808
	.word	23484817
	.word	-510056349
	.word	-923595680
	.word	779677500
	.word	-791340750
	.word	-821040108
	.word	-137754670
	.word	-794288014
	.word	-46065282
	.word	-1828346192
	.word	-395582502
	.word	1958663117
	.word	925738300
	.word	1283408968
	.word	-625617856
	.word	1840910019
	.word	137959847
	.word	-1615139111
	.word	1239142320
	.word	1315376211
	.word	1547541505
	.word	1690155329
	.word	739140458
	.word	-1166157363
	.word	-361794680
	.word	-418658462
	.word	905091803
	.word	1548541325
	.word	-254505588
	.word	-1199483934
	.word	144808038
	.word	451078856
	.word	676114313
	.word	-1433239005
	.word	-1825259949
	.word	993665471
	.word	373509091
	.word	-1695926010
	.word	-269958290
	.word	-124727847
	.word	-2145227346
	.word	-1019173725
	.word	-545350647
	.word	-1500207097
	.word	1534877388
	.word	572371878
	.word	-1704353745
	.word	1753320020
	.word	-827184785
	.word	1405125690
	.word	-24562091
	.word	633333386
	.word	-1268610372
	.word	-819843393
	.word	632057672
	.word	-1448504441
	.word	1404951397
	.word	-412091417
	.word	-379060872
	.word	195638627
	.word	-1909183551
	.word	-392094743
	.word	1233155085
	.word	-938967556
	.word	-1914388583
	.word	-1592720992
	.word	2144565621
	.word	-631626048
	.word	-400582321
	.word	-1792488055
	.word	-46948371
	.word	-1200081729
	.word	1594115437
	.word	572884632
	.word	-909850565
	.word	767645374
	.word	1331858858
	.word	1475698373
	.word	-501085506
	.word	-762220865
	.word	1321687957
	.word	619889600
	.word	1121017241
	.word	-854753376
	.word	2070816767
	.word	-1461941520
	.word	1933951238
	.word	-199351505
	.word	890643334
	.word	-420837082
	.word	859025556
	.word	360630002
	.word	925594799
	.word	1764062180
	.word	-374745016
	.word	-216661367
	.word	979562269
	.word	-1484266952
	.word	-207227274
	.word	1949714515
	.word	546639971
	.word	1165388173
	.word	-1225075705
	.word	1495988560
	.word	922170659
	.word	1291546247
	.word	2107952832
	.word	1813327274
	.word	-888957272
	.word	-988938659
	.word	-53016661
	.word	153207855
	.word	-1981812549
	.word	1608695416
	.word	1150242611
	.word	1967526857
	.word	721801357
	.word	1220138373
	.word	-603679679
	.word	-938897509
	.word	2112743302
	.word	-1013304461
	.word	1111556101
	.word	1778980689
	.word	250857638
	.word	-1996459306
	.word	673216130
	.word	-1448478786
	.word	-1087215715
	.word	-732210315
	.word	-1286341376
	.word	-877599912
	.word	-2096160246
	.word	529510932
	.word	-747450616
	.word	-868464109
	.word	-1930022554
	.word	102533054
	.word	-2000056440
	.word	1617093527
	.word	1204784762
	.word	-1228385661
	.word	1019391227
	.word	1069574518
	.word	1317995090
	.word	1691889997
	.word	-633835293
	.word	510022745
	.word	-1056372496
	.word	1362108837
	.word	1817929911
	.word	-2110813536
	.word	805817662
	.word	1953603311
	.word	-595122559
	.word	120799444
	.word	2118332377
	.word	207536705
	.word	-2012665748
	.word	-174925679
	.word	145305846
	.word	-1786842363
	.word	-1208221763
	.word	-1033442961
	.word	1877257368
	.word	-1317802816
	.word	-1134513110
	.word	-1791715110
	.word	-73290222
	.word	759945014
	.word	254147243
	.word	-1527513877
	.word	-493448925
	.word	629083197
	.word	-1823953079
	.word	907280572
	.word	-394170550
	.word	940896768
	.word	-1543946173
	.word	-1669704510
	.word	-1133490345
	.word	-633214983
	.word	-1034235078
	.word	1425318020
	.word	-1317055227
	.word	1496677566
	.word	-306375224
	.word	2140652971
	.word	-1168455755
	.word	-1225335121
	.word	977771578
	.word	1392695845
	.word	1698528874
	.word	1411812681
	.word	1369733098
	.word	1343739227
	.word	-674079352
	.word	1142123638
	.word	67414216
	.word	-1192910559
	.word	-1206218102
	.word	1626167401
	.word	-1748673642
	.word	-353593061
	.word	697522451
	.word	33404913
	.word	143560186
	.word	-1699285259
	.word	994885535
	.word	1247667115
	.word	-435872459
	.word	-1595811755
	.word	-747942671
	.word	-180032021
	.word	-1326893788
	.word	-1095004227
	.word	-1562942769
	.word	1237921620
	.word	951448369
	.word	1898488916
	.word	1211705605
	.word	-1503978056
	.word	-2061723715
	.word	-696922321
	.section	.rodata.S7,"a"
	.align	2
	.type	S7, %object
	.size	S7, 1024
S7:
	.word	-2048901095
	.word	858518887
	.word	1714274303
	.word	-809085293
	.word	713916271
	.word	-1415853806
	.word	-564131679
	.word	539548191
	.word	36158695
	.word	1298409750
	.word	419087104
	.word	1358007170
	.word	749914897
	.word	-1305286820
	.word	1261868530
	.word	-1299773474
	.word	-1604338442
	.word	-851344919
	.word	-514842356
	.word	-498142787
	.word	-1318534271
	.word	-35330167
	.word	1551479000
	.word	512490819
	.word	1296650241
	.word	951993153
	.word	-1858277859
	.word	-1834509249
	.word	144139966
	.word	-1158763020
	.word	310820559
	.word	-1226126567
	.word	643875328
	.word	1969602020
	.word	1680088954
	.word	-2109154135
	.word	-1011634842
	.word	672358534
	.word	198762408
	.word	896343282
	.word	276269502
	.word	-1280120370
	.word	84060815
	.word	197145886
	.word	376173866
	.word	-351076478
	.word	-481793775
	.word	-749898474
	.word	1316698879
	.word	1598252827
	.word	-1661542345
	.word	1233235075
	.word	859989710
	.word	-1936506441
	.word	-791128896
	.word	-885363576
	.word	1203513385
	.word	1193654839
	.word	-1502948821
	.word	2060853022
	.word	207403770
	.word	1144516871
	.word	-1226335902
	.word	1121114134
	.word	177607304
	.word	-509230994
	.word	326409831
	.word	1929119770
	.word	-1311688201
	.word	-111659195
	.word	-820388008
	.word	-1094453418
	.word	-1066485200
	.word	119610148
	.word	1170376745
	.word	-916573825
	.word	-1131494127
	.word	951863017
	.word	-957941228
	.word	-1159178166
	.word	-1387348922
	.word	1183797387
	.word	2015970143
	.word	-249292741
	.word	-2111980897
	.word	-1342828556
	.word	-366195091
	.word	384012900
	.word	-1839969653
	.word	10178499
	.word	-1415148307
	.word	-1698074760
	.word	111523738
	.word	-1299878290
	.word	451689641
	.word	-1098676600
	.word	235406569
	.word	1441906262
	.word	-404408773
	.word	-1281232291
	.word	-136397947
	.word	1644036924
	.word	376726067
	.word	1006849064
	.word	-630387596
	.word	2041234796
	.word	1021632941
	.word	1374734338
	.word	-1728515238
	.word	371631263
	.word	-287823063
	.word	490221539
	.word	206551450
	.word	-1154328712
	.word	1053219195
	.word	1853335209
	.word	-882537636
	.word	-732811065
	.word	735133835
	.word	1623211703
	.word	-1190752904
	.word	-1556654860
	.word	-198129539
	.word	-928574718
	.word	-1184003022
	.word	-338368578
	.word	-1098146515
	.word	2038037254
	.word	-417180920
	.word	-1955213449
	.word	300912036
	.word	-528234408
	.word	-1922336657
	.word	1516443558
	.word	-94570592
	.word	1574567987
	.word	-225525840
	.word	-172375280
	.word	-1595227520
	.word	146372218
	.word	-1546005840
	.word	2043888151
	.word	35287437
	.word	-1698286742
	.word	655490400
	.word	1132482787
	.word	110692520
	.word	1031794116
	.word	-2106774545
	.word	1324057718
	.word	1217253157
	.word	919197030
	.word	686247489
	.word	-1033827638
	.word	1028237775
	.word	-1159480865
	.word	-1235251738
	.word	-1834045596
	.word	986174950
	.word	-1633155831
	.word	-232062595
	.word	-1541980304
	.word	-585230653
	.word	367056889
	.word	1353824391
	.word	731860949
	.word	1650113154
	.word	1778481506
	.word	784341916
	.word	357075625
	.word	-686364864
	.word	1074092588
	.word	-1814914526
	.word	-483541094
	.word	92751289
	.word	877911070
	.word	-694605458
	.word	1231880047
	.word	480201094
	.word	-538776313
	.word	-1200471343
	.word	434011822
	.word	87971354
	.word	363687820
	.word	1717726236
	.word	1901380172
	.word	-368563414
	.word	-1813305031
	.word	400339184
	.word	1490350766
	.word	-1633512197
	.word	1389319756
	.word	-1736180122
	.word	784598401
	.word	1983468483
	.word	30828846
	.word	-744439544
	.word	-1578691058
	.word	-453845082
	.word	1765724805
	.word	1955612312
	.word	1277890269
	.word	1333098070
	.word	1564029816
	.word	-1590549681
	.word	1026694237
	.word	-1007296108
	.word	1260819201
	.word	-945880529
	.word	1016692350
	.word	1582273796
	.word	1073413053
	.word	1995943182
	.word	694588404
	.word	1025494639
	.word	-971094594
	.word	-743068876
	.word	-148112969
	.word	453260480
	.word	1316140391
	.word	1435673405
	.word	-1256025343
	.word	-808277889
	.word	1622062951
	.word	403978347
	.word	817677117
	.word	950059133
	.word	-48888078
	.word	-1016901221
	.word	1486738320
	.word	1417279718
	.word	481875527
	.word	-1745002071
	.word	-361276940
	.word	760697757
	.word	1452955855
	.word	-397515859
	.word	1177426808
	.word	1702951038
	.word	-209618668
	.word	-1847962124
	.word	1084371187
	.word	-778531019
	.word	-1226630958
	.word	1073369276
	.word	1027665953
	.word	-1010778706
	.word	1230553676
	.word	1368340146
	.word	-2068720784
	.word	267243139
	.word	-2020746534
	.word	-224233017
	.word	-1797252120
	.word	-1871614133
	.word	-1790211421
	.section	.rodata.S8,"a"
	.align	2
	.type	S8, %object
	.size	S8, 1024
S8:
	.word	-501862387
	.word	-1143078916
	.word	-1477715267
	.word	895778965
	.word	2005530807
	.word	-423554533
	.word	237245952
	.word	86829237
	.word	296341424
	.word	-443207919
	.word	-320366326
	.word	-1819881100
	.word	709006108
	.word	1994621201
	.word	-1322389702
	.word	937287164
	.word	-560275791
	.word	168608556
	.word	-1105629143
	.word	-2069886656
	.word	-1155253745
	.word	-1261357105
	.word	-1269925392
	.word	77524477
	.word	185966941
	.word	1208824168
	.word	-1950622118
	.word	1721625922
	.word	-940775375
	.word	1066374631
	.word	1927223579
	.word	1971335949
	.word	-1811463599
	.word	1551748602
	.word	-1413583517
	.word	-1438637724
	.word	-1291725814
	.word	48746954
	.word	1398218158
	.word	2050065058
	.word	313056748
	.word	-39177379
	.word	393167848
	.word	1912293076
	.word	940740642
	.word	-829121836
	.word	-1203279443
	.word	-1772365726
	.word	-2097950635
	.word	1727764327
	.word	364383054
	.word	492521376
	.word	1291706479
	.word	-1030830920
	.word	1474851438
	.word	1685747964
	.word	-1719247548
	.word	1619776915
	.word	1814040067
	.word	970743798
	.word	1561002147
	.word	-1369198606
	.word	2123093554
	.word	1880132620
	.word	-1143779255
	.word	697884420
	.word	-1743981526
	.word	-1687292783
	.word	-1635852973
	.word	110200136
	.word	1489731079
	.word	997519150
	.word	1378877361
	.word	-767096628
	.word	478029773
	.word	-1528094373
	.word	1022481122
	.word	431258168
	.word	1112503832
	.word	897933369
	.word	-1659379993
	.word	669726182
	.word	-911214981
	.word	918222264
	.word	163866573
	.word	-1047981903
	.word	-518144133
	.word	114105080
	.word	1903216136
	.word	761148244
	.word	-723629734
	.word	1690750982
	.word	-1128217044
	.word	1037045171
	.word	1888456500
	.word	2010454850
	.word	642736655
	.word	616092351
	.word	365016990
	.word	1185228132
	.word	-120068786
	.word	1043824992
	.word	2023083429
	.word	-2053368411
	.word	-431646840
	.word	-1015298209
	.word	-620250612
	.word	108438443
	.word	2132974366
	.word	830746235
	.word	606445527
	.word	-121703310
	.word	-2090861384
	.word	1844756978
	.word	-1762283115
	.word	-49614596
	.word	-1325526196
	.word	-498045635
	.word	1335562986
	.word	-233442779
	.word	-1574734993
	.word	-1615543256
	.word	634407289
	.word	885462008
	.word	-1000242809
	.word	-361075048
	.word	2094100220
	.word	339117932
	.word	-246136569
	.word	-1092686316
	.word	1458155303
	.word	-1605721023
	.word	1022871705
	.word	-1829979418
	.word	-580451987
	.word	353796843
	.word	-1472008481
	.word	-38117196
	.word	-242189451
	.word	551748367
	.word	618185374
	.word	-516331717
	.word	-274317384
	.word	1904685140
	.word	-1225601221
	.word	-1624087486
	.word	-887774004
	.word	-1340455676
	.word	-236683891
	.word	-2075517979
	.word	-1159208996
	.word	1120655984
	.word	-847401462
	.word	1474845562
	.word	-717268234
	.word	550456716
	.word	-828058584
	.word	2043752612
	.word	881257467
	.word	869518812
	.word	2005220179
	.word	938474677
	.word	-989427848
	.word	-444550170
	.word	1315485940
	.word	-976702594
	.word	226533026
	.word	965733244
	.word	321539988
	.word	1136104718
	.word	804158748
	.word	573969341
	.word	-586757470
	.word	937399083
	.word	-1004240247
	.word	-1393300541
	.word	1461057207
	.word	-281773859
	.word	-228105873
	.word	-1052193820
	.word	-1873641122
	.word	1581322155
	.word	-1266015131
	.word	786071460
	.word	-394575644
	.word	-376528764
	.word	1485433313
	.word	-271347460
	.word	-586689701
	.word	-616016236
	.word	953673138
	.word	1467089153
	.word	1930354364
	.word	1533292819
	.word	-1802404273
	.word	1346121658
	.word	1685000834
	.word	1965281866
	.word	-529033579
	.word	-104760689
	.word	2052792609
	.word	-779634538
	.word	690371149
	.word	-1169093409
	.word	-2114683745
	.word	-1391369235
	.word	-361014939
	.word	436236910
	.word	289419410
	.word	14314871
	.word	1242357089
	.word	-1390459389
	.word	1616633776
	.word	-1628585116
	.word	585885352
	.word	-823668086
	.word	-1595459936
	.word	1432659641
	.word	277164553
	.word	-940863689
	.word	770115018
	.word	-1991158001
	.word	-553024981
	.word	-1117185428
	.word	-1441602318
	.word	-2025513969
	.word	-520707462
	.word	987383833
	.word	1290892879
	.word	225909803
	.word	1741533526
	.word	890078084
	.word	1496906255
	.word	1111072499
	.word	916028167
	.word	243534141
	.word	1252605537
	.word	-2090805125
	.word	531204876
	.word	290011180
	.word	-378133083
	.word	102027703
	.word	237315147
	.word	209093447
	.word	1486785922
	.word	220223953
	.word	-1536771298
	.word	-119928190
	.word	82940208
	.word	-1167176000
	.word	-1725542044
	.word	518464269
	.word	1353887104
	.word	-353474559
	.word	-1917672829
	.word	-359926370
	.text
.Letext0:
	.file 2 "/usr/lib/gcc/arm-none-eabi/10.3.1/include/stdint.h"
	.file 3 "/usr/lib/gcc/arm-none-eabi/10.3.1/include/stddef.h"
	.file 4 "src/libgcrypt.h"
	.file 5 "src/sboxes.h"
	.file 6 "src/printf.h"
	.file 7 "src/memory.h"
	.file 8 "<built-in>"
	.section	.debug_info,"",%progbits
.Ldebug_info0:
	.4byte	0x3cbb
	.2byte	0x4
	.4byte	.Ldebug_abbrev0
	.byte	0x4
	.uleb128 0x1
	.4byte	.LASF125
	.byte	0xc
	.4byte	.LASF126
	.4byte	.LASF127
	.4byte	.Ldebug_ranges0+0x9d0
	.4byte	0
	.4byte	.Ldebug_line0
	.uleb128 0x2
	.byte	0x1
	.byte	0x6
	.4byte	.LASF0
	.uleb128 0x2
	.byte	0x2
	.byte	0x5
	.4byte	.LASF1
	.uleb128 0x2
	.byte	0x4
	.byte	0x5
	.4byte	.LASF2
	.uleb128 0x2
	.byte	0x8
	.byte	0x5
	.4byte	.LASF3
	.uleb128 0x3
	.4byte	.LASF6
	.byte	0x2
	.byte	0x2e
	.byte	0x18
	.4byte	0x52
	.uleb128 0x4
	.4byte	0x41
	.uleb128 0x2
	.byte	0x1
	.byte	0x8
	.4byte	.LASF4
	.uleb128 0x4
	.4byte	0x52
	.uleb128 0x2
	.byte	0x2
	.byte	0x7
	.4byte	.LASF5
	.uleb128 0x3
	.4byte	.LASF7
	.byte	0x2
	.byte	0x34
	.byte	0x19
	.4byte	0x76
	.uleb128 0x4
	.4byte	0x65
	.uleb128 0x2
	.byte	0x4
	.byte	0x7
	.4byte	.LASF8
	.uleb128 0x2
	.byte	0x8
	.byte	0x7
	.4byte	.LASF9
	.uleb128 0x5
	.byte	0x4
	.byte	0x5
	.ascii	"int\000"
	.uleb128 0x2
	.byte	0x4
	.byte	0x7
	.4byte	.LASF10
	.uleb128 0x3
	.4byte	.LASF11
	.byte	0x3
	.byte	0xd1
	.byte	0x17
	.4byte	0x8b
	.uleb128 0x2
	.byte	0x8
	.byte	0x4
	.4byte	.LASF12
	.uleb128 0x6
	.ascii	"u32\000"
	.byte	0x4
	.byte	0xc
	.byte	0x16
	.4byte	0x8b
	.uleb128 0x3
	.4byte	.LASF13
	.byte	0x4
	.byte	0xd
	.byte	0x17
	.4byte	0x52
	.uleb128 0x4
	.4byte	0xb1
	.uleb128 0x7
	.4byte	0xbd
	.uleb128 0x6
	.ascii	"Key\000"
	.byte	0x4
	.byte	0x10
	.byte	0x12
	.4byte	0xd3
	.uleb128 0x8
	.4byte	0x65
	.4byte	0xe3
	.uleb128 0x9
	.4byte	0x8b
	.byte	0x3
	.byte	0
	.uleb128 0xa
	.4byte	.LASF20
	.byte	0x8
	.byte	0x4
	.byte	0x12
	.byte	0x8
	.4byte	0x10b
	.uleb128 0xb
	.ascii	"msb\000"
	.byte	0x4
	.byte	0x13
	.byte	0xe
	.4byte	0x65
	.byte	0
	.uleb128 0xb
	.ascii	"lsb\000"
	.byte	0x4
	.byte	0x14
	.byte	0xe
	.4byte	0x65
	.byte	0x4
	.byte	0
	.uleb128 0xc
	.byte	0x8
	.byte	0x4
	.byte	0x18
	.byte	0x9
	.4byte	0x151
	.uleb128 0xd
	.ascii	"a\000"
	.byte	0x4
	.byte	0x19
	.byte	0x9
	.4byte	0x84
	.uleb128 0xd
	.ascii	"b\000"
	.byte	0x4
	.byte	0x1a
	.byte	0xb
	.4byte	0x2c
	.uleb128 0xd
	.ascii	"c\000"
	.byte	0x4
	.byte	0x1b
	.byte	0xa
	.4byte	0x151
	.uleb128 0xd
	.ascii	"d\000"
	.byte	0x4
	.byte	0x1c
	.byte	0xa
	.4byte	0x33
	.uleb128 0xd
	.ascii	"f\000"
	.byte	0x4
	.byte	0x1d
	.byte	0xb
	.4byte	0x16d
	.uleb128 0xd
	.ascii	"g\000"
	.byte	0x4
	.byte	0x1e
	.byte	0xc
	.4byte	0x174
	.byte	0
	.uleb128 0x8
	.4byte	0x161
	.4byte	0x161
	.uleb128 0x9
	.4byte	0x8b
	.byte	0
	.byte	0
	.uleb128 0x2
	.byte	0x1
	.byte	0x8
	.4byte	.LASF14
	.uleb128 0x4
	.4byte	0x161
	.uleb128 0x2
	.byte	0x4
	.byte	0x4
	.4byte	.LASF15
	.uleb128 0x2
	.byte	0x8
	.byte	0x4
	.4byte	.LASF16
	.uleb128 0x3
	.4byte	.LASF17
	.byte	0x4
	.byte	0x1f
	.byte	0x3
	.4byte	0x10b
	.uleb128 0xc
	.byte	0x8
	.byte	0x4
	.byte	0x21
	.byte	0x9
	.4byte	0x1a7
	.uleb128 0xd
	.ascii	"foo\000"
	.byte	0x4
	.byte	0x22
	.byte	0x1b
	.4byte	0x17b
	.uleb128 0xd
	.ascii	"c\000"
	.byte	0x4
	.byte	0x26
	.byte	0xa
	.4byte	0x151
	.byte	0
	.uleb128 0x3
	.4byte	.LASF18
	.byte	0x4
	.byte	0x27
	.byte	0x3
	.4byte	0x187
	.uleb128 0xc
	.byte	0x10
	.byte	0x4
	.byte	0x2c
	.byte	0x5
	.4byte	0x1d4
	.uleb128 0xe
	.4byte	.LASF19
	.byte	0x4
	.byte	0x2d
	.byte	0x24
	.4byte	0x1a7
	.uleb128 0xd
	.ascii	"iv\000"
	.byte	0x4
	.byte	0x2e
	.byte	0x17
	.4byte	0x1d4
	.byte	0
	.uleb128 0x8
	.4byte	0x52
	.4byte	0x1e4
	.uleb128 0x9
	.4byte	0x8b
	.byte	0xf
	.byte	0
	.uleb128 0xa
	.4byte	.LASF21
	.byte	0x40
	.byte	0x4
	.byte	0x2a
	.byte	0x8
	.4byte	0x233
	.uleb128 0xf
	.4byte	.LASF22
	.byte	0x4
	.byte	0x2f
	.byte	0x7
	.4byte	0x1b3
	.byte	0
	.uleb128 0xf
	.4byte	.LASF23
	.byte	0x4
	.byte	0x32
	.byte	0x13
	.4byte	0x1d4
	.byte	0x10
	.uleb128 0xf
	.4byte	.LASF24
	.byte	0x4
	.byte	0x33
	.byte	0x9
	.4byte	0x84
	.byte	0x20
	.uleb128 0xf
	.4byte	.LASF25
	.byte	0x4
	.byte	0x36
	.byte	0x20
	.4byte	0x1a7
	.byte	0x28
	.uleb128 0xb
	.ascii	"key\000"
	.byte	0x4
	.byte	0x37
	.byte	0x9
	.4byte	0xc7
	.byte	0x30
	.byte	0
	.uleb128 0x3
	.4byte	.LASF26
	.byte	0x4
	.byte	0x3a
	.byte	0x24
	.4byte	0x23f
	.uleb128 0x10
	.byte	0x4
	.4byte	0x1e4
	.uleb128 0x11
	.byte	0x7
	.byte	0x1
	.4byte	0x52
	.byte	0x4
	.byte	0x5e
	.byte	0x1
	.4byte	0x260
	.uleb128 0x12
	.4byte	.LASF27
	.byte	0x4
	.uleb128 0x12
	.4byte	.LASF28
	.byte	0x2
	.byte	0
	.uleb128 0x13
	.byte	0x4
	.uleb128 0x8
	.4byte	0x65
	.4byte	0x272
	.uleb128 0x9
	.4byte	0x8b
	.byte	0xff
	.byte	0
	.uleb128 0x4
	.4byte	0x262
	.uleb128 0x14
	.ascii	"S1\000"
	.byte	0x5
	.byte	0x4
	.byte	0xd
	.4byte	0x272
	.uleb128 0x5
	.byte	0x3
	.4byte	S1
	.uleb128 0x14
	.ascii	"S2\000"
	.byte	0x5
	.byte	0x27
	.byte	0xd
	.4byte	0x272
	.uleb128 0x5
	.byte	0x3
	.4byte	S2
	.uleb128 0x14
	.ascii	"S3\000"
	.byte	0x5
	.byte	0x4a
	.byte	0xd
	.4byte	0x272
	.uleb128 0x5
	.byte	0x3
	.4byte	S3
	.uleb128 0x14
	.ascii	"S4\000"
	.byte	0x5
	.byte	0x6d
	.byte	0xd
	.4byte	0x272
	.uleb128 0x5
	.byte	0x3
	.4byte	S4
	.uleb128 0x14
	.ascii	"S5\000"
	.byte	0x5
	.byte	0x90
	.byte	0xd
	.4byte	0x272
	.uleb128 0x5
	.byte	0x3
	.4byte	S5
	.uleb128 0x14
	.ascii	"S6\000"
	.byte	0x5
	.byte	0xb3
	.byte	0xd
	.4byte	0x272
	.uleb128 0x5
	.byte	0x3
	.4byte	S6
	.uleb128 0x14
	.ascii	"S7\000"
	.byte	0x5
	.byte	0xd6
	.byte	0xd
	.4byte	0x272
	.uleb128 0x5
	.byte	0x3
	.4byte	S7
	.uleb128 0x14
	.ascii	"S8\000"
	.byte	0x5
	.byte	0xf9
	.byte	0xd
	.4byte	0x272
	.uleb128 0x5
	.byte	0x3
	.4byte	S8
	.uleb128 0x8
	.4byte	0x4d
	.4byte	0x30f
	.uleb128 0x9
	.4byte	0x8b
	.byte	0xf
	.byte	0
	.uleb128 0x4
	.4byte	0x2ff
	.uleb128 0x15
	.4byte	.LASF29
	.byte	0x1
	.2byte	0x2ce
	.byte	0x16
	.4byte	0x30f
	.uleb128 0x5
	.byte	0x3
	.4byte	K_MAP
	.uleb128 0x16
	.4byte	.LASF30
	.byte	0x1
	.2byte	0x2e3
	.byte	0x17
	.4byte	0x71
	.4byte	0xffffffff
	.uleb128 0x17
	.4byte	.LASF32
	.byte	0x1
	.2byte	0x3f4
	.byte	0xe
	.4byte	0xe3
	.4byte	.LFB35
	.4byte	.LFE35-.LFB35
	.uleb128 0x1
	.byte	0x9c
	.4byte	0x397
	.uleb128 0x18
	.4byte	.LASF36
	.byte	0x1
	.2byte	0x3f4
	.byte	0x26
	.4byte	0x397
	.4byte	.LLST248
	.4byte	.LVUS248
	.uleb128 0x19
	.4byte	.LASF31
	.byte	0x1
	.2byte	0x3f6
	.byte	0x10
	.4byte	0xe3
	.4byte	.LLST249
	.4byte	.LVUS249
	.uleb128 0x1a
	.4byte	.Ldebug_ranges0+0x6d8
	.uleb128 0x1b
	.ascii	"i\000"
	.byte	0x1
	.2byte	0x3f9
	.byte	0xc
	.4byte	0x84
	.4byte	.LLST250
	.4byte	.LVUS250
	.byte	0
	.byte	0
	.uleb128 0x10
	.byte	0x4
	.4byte	0x41
	.uleb128 0x17
	.4byte	.LASF33
	.byte	0x1
	.2byte	0x3ec
	.byte	0xe
	.4byte	0xe3
	.4byte	.LFB34
	.4byte	.LFE34-.LFB34
	.uleb128 0x1
	.byte	0x9c
	.4byte	0x3ee
	.uleb128 0x1c
	.4byte	.LASF31
	.byte	0x1
	.2byte	0x3ec
	.byte	0x24
	.4byte	0xe3
	.uleb128 0x2
	.byte	0x91
	.sleb128 -16
	.uleb128 0x1d
	.ascii	"val\000"
	.byte	0x1
	.2byte	0x3ec
	.byte	0x38
	.4byte	0xe3
	.uleb128 0x2
	.byte	0x91
	.sleb128 -4
	.uleb128 0x19
	.4byte	.LASF34
	.byte	0x1
	.2byte	0x3ee
	.byte	0x12
	.4byte	0xe3
	.4byte	.LLST247
	.4byte	.LVUS247
	.byte	0
	.uleb128 0x17
	.4byte	.LASF35
	.byte	0x1
	.2byte	0x3e7
	.byte	0xe
	.4byte	0xe3
	.4byte	.LFB33
	.4byte	.LFE33-.LFB33
	.uleb128 0x1
	.byte	0x9c
	.4byte	0x452
	.uleb128 0x1e
	.ascii	"key\000"
	.byte	0x1
	.2byte	0x3e7
	.byte	0x20
	.4byte	0x452
	.4byte	.LLST246
	.4byte	.LVUS246
	.uleb128 0x1c
	.4byte	.LASF37
	.byte	0x1
	.2byte	0x3e7
	.byte	0x32
	.4byte	0xe3
	.uleb128 0x2
	.byte	0x91
	.sleb128 -16
	.uleb128 0x1f
	.4byte	.LVL362
	.4byte	0x4c6
	.uleb128 0x20
	.uleb128 0x1
	.byte	0x50
	.uleb128 0x2
	.byte	0x74
	.sleb128 0
	.uleb128 0x20
	.uleb128 0x1
	.byte	0x51
	.uleb128 0x3
	.byte	0xf3
	.uleb128 0x1
	.byte	0x51
	.uleb128 0x20
	.uleb128 0x2
	.byte	0x7d
	.sleb128 0
	.uleb128 0x1
	.byte	0x31
	.uleb128 0x20
	.uleb128 0x2
	.byte	0x7d
	.sleb128 4
	.uleb128 0x1
	.byte	0x30
	.byte	0
	.byte	0
	.uleb128 0x10
	.byte	0x4
	.4byte	0x71
	.uleb128 0x17
	.4byte	.LASF38
	.byte	0x1
	.2byte	0x3e2
	.byte	0xe
	.4byte	0xe3
	.4byte	.LFB32
	.4byte	.LFE32-.LFB32
	.uleb128 0x1
	.byte	0x9c
	.4byte	0x4c6
	.uleb128 0x1e
	.ascii	"key\000"
	.byte	0x1
	.2byte	0x3e2
	.byte	0x20
	.4byte	0x452
	.4byte	.LLST245
	.4byte	.LVUS245
	.uleb128 0x1c
	.4byte	.LASF37
	.byte	0x1
	.2byte	0x3e2
	.byte	0x32
	.4byte	0xe3
	.uleb128 0x2
	.byte	0x91
	.sleb128 -16
	.uleb128 0x1c
	.4byte	.LASF39
	.byte	0x1
	.2byte	0x3e2
	.byte	0x3c
	.4byte	0x84
	.uleb128 0x2
	.byte	0x91
	.sleb128 0
	.uleb128 0x1f
	.4byte	.LVL360
	.4byte	0x4c6
	.uleb128 0x20
	.uleb128 0x1
	.byte	0x50
	.uleb128 0x2
	.byte	0x74
	.sleb128 0
	.uleb128 0x20
	.uleb128 0x1
	.byte	0x51
	.uleb128 0x3
	.byte	0xf3
	.uleb128 0x1
	.byte	0x51
	.uleb128 0x20
	.uleb128 0x2
	.byte	0x7d
	.sleb128 0
	.uleb128 0x1
	.byte	0x30
	.byte	0
	.byte	0
	.uleb128 0x21
	.ascii	"run\000"
	.byte	0x1
	.2byte	0x2ff
	.byte	0x15
	.4byte	0xe3
	.4byte	.LFB31
	.4byte	.LFE31-.LFB31
	.uleb128 0x1
	.byte	0x9c
	.4byte	0x1b29
	.uleb128 0x1e
	.ascii	"key\000"
	.byte	0x1
	.2byte	0x2ff
	.byte	0x23
	.4byte	0x452
	.4byte	.LLST0
	.4byte	.LVUS0
	.uleb128 0x18
	.4byte	.LASF37
	.byte	0x1
	.2byte	0x2ff
	.byte	0x35
	.4byte	0xe3
	.4byte	.LLST1
	.4byte	.LVUS1
	.uleb128 0x1c
	.4byte	.LASF40
	.byte	0x1
	.2byte	0x2ff
	.byte	0x3f
	.4byte	0x84
	.uleb128 0x2
	.byte	0x91
	.sleb128 0
	.uleb128 0x1c
	.4byte	.LASF39
	.byte	0x1
	.2byte	0x2ff
	.byte	0x4c
	.4byte	0x84
	.uleb128 0x2
	.byte	0x91
	.sleb128 4
	.uleb128 0x22
	.ascii	"x\000"
	.byte	0x1
	.2byte	0x301
	.byte	0x9
	.4byte	0xc7
	.uleb128 0x3
	.byte	0x91
	.sleb128 -336
	.uleb128 0x22
	.ascii	"z\000"
	.byte	0x1
	.2byte	0x303
	.byte	0x9
	.4byte	0xc7
	.uleb128 0x3
	.byte	0x91
	.sleb128 -320
	.uleb128 0x22
	.ascii	"K\000"
	.byte	0x1
	.2byte	0x30f
	.byte	0xe
	.4byte	0x1b29
	.uleb128 0x3
	.byte	0x91
	.sleb128 -168
	.uleb128 0x22
	.ascii	"L\000"
	.byte	0x1
	.2byte	0x389
	.byte	0xe
	.4byte	0x1b39
	.uleb128 0x3
	.byte	0x91
	.sleb128 -304
	.uleb128 0x22
	.ascii	"R\000"
	.byte	0x1
	.2byte	0x38b
	.byte	0xe
	.4byte	0x1b39
	.uleb128 0x3
	.byte	0x91
	.sleb128 -236
	.uleb128 0x23
	.4byte	.Ldebug_ranges0+0x608
	.4byte	0x5a3
	.uleb128 0x1b
	.ascii	"i\000"
	.byte	0x1
	.2byte	0x308
	.byte	0x12
	.4byte	0x84
	.4byte	.LLST162
	.4byte	.LVUS162
	.uleb128 0x1f
	.4byte	.LVL156
	.4byte	0x3c6b
	.uleb128 0x20
	.uleb128 0x1
	.byte	0x50
	.uleb128 0x2
	.byte	0x75
	.sleb128 0
	.byte	0
	.byte	0
	.uleb128 0x23
	.4byte	.Ldebug_ranges0+0
	.4byte	0x135c
	.uleb128 0x1b
	.ascii	"i\000"
	.byte	0x1
	.2byte	0x311
	.byte	0xe
	.4byte	0x84
	.4byte	.LLST2
	.4byte	.LVUS2
	.uleb128 0x23
	.4byte	.Ldebug_ranges0+0x1a0
	.4byte	0x5ec
	.uleb128 0x1b
	.ascii	"j\000"
	.byte	0x1
	.2byte	0x317
	.byte	0x15
	.4byte	0x84
	.4byte	.LLST99
	.4byte	.LVUS99
	.uleb128 0x1f
	.4byte	.LVL137
	.4byte	0x3c6b
	.uleb128 0x20
	.uleb128 0x1
	.byte	0x50
	.uleb128 0x2
	.byte	0x74
	.sleb128 0
	.byte	0
	.byte	0
	.uleb128 0x23
	.4byte	.Ldebug_ranges0+0x1c8
	.4byte	0x64b
	.uleb128 0x1b
	.ascii	"j\000"
	.byte	0x1
	.2byte	0x31b
	.byte	0x15
	.4byte	0x84
	.4byte	.LLST100
	.4byte	.LVUS100
	.uleb128 0x24
	.4byte	0x1c37
	.4byte	.LBI521
	.2byte	.LVU1146
	.4byte	.Ldebug_ranges0+0x1f0
	.byte	0x1
	.2byte	0x31b
	.byte	0x3d
	.4byte	0x63a
	.uleb128 0x25
	.4byte	0x1c54
	.4byte	.LLST101
	.4byte	.LVUS101
	.uleb128 0x25
	.4byte	0x1c47
	.4byte	.LLST102
	.4byte	.LVUS102
	.byte	0
	.uleb128 0x1f
	.4byte	.LVL142
	.4byte	0x3c6b
	.uleb128 0x20
	.uleb128 0x1
	.byte	0x50
	.uleb128 0x2
	.byte	0x74
	.sleb128 0
	.byte	0
	.byte	0
	.uleb128 0x23
	.4byte	.Ldebug_ranges0+0x230
	.4byte	0x694
	.uleb128 0x1b
	.ascii	"j\000"
	.byte	0x1
	.2byte	0x326
	.byte	0x15
	.4byte	0x84
	.4byte	.LLST104
	.4byte	.LVUS104
	.uleb128 0x26
	.4byte	.LVL166
	.4byte	0x3c6b
	.4byte	0x683
	.uleb128 0x20
	.uleb128 0x1
	.byte	0x50
	.uleb128 0x2
	.byte	0x75
	.sleb128 0
	.uleb128 0x20
	.uleb128 0x1
	.byte	0x51
	.uleb128 0x4
	.byte	0x91
	.sleb128 -372
	.byte	0x6
	.byte	0
	.uleb128 0x1f
	.4byte	.LVL167
	.4byte	0x3c6b
	.uleb128 0x20
	.uleb128 0x1
	.byte	0x50
	.uleb128 0x2
	.byte	0x75
	.sleb128 0
	.byte	0
	.byte	0
	.uleb128 0x23
	.4byte	.Ldebug_ranges0+0x280
	.4byte	0x6c1
	.uleb128 0x1b
	.ascii	"j\000"
	.byte	0x1
	.2byte	0x332
	.byte	0x15
	.4byte	0x84
	.4byte	.LLST106
	.4byte	.LVUS106
	.uleb128 0x1f
	.4byte	.LVL175
	.4byte	0x3c6b
	.uleb128 0x20
	.uleb128 0x1
	.byte	0x50
	.uleb128 0x2
	.byte	0x74
	.sleb128 0
	.byte	0
	.byte	0
	.uleb128 0x23
	.4byte	.Ldebug_ranges0+0x2a0
	.4byte	0x720
	.uleb128 0x1b
	.ascii	"j\000"
	.byte	0x1
	.2byte	0x339
	.byte	0x15
	.4byte	0x84
	.4byte	.LLST107
	.4byte	.LVUS107
	.uleb128 0x24
	.4byte	0x1c37
	.4byte	.LBI545
	.2byte	.LVU1274
	.4byte	.Ldebug_ranges0+0x2c8
	.byte	0x1
	.2byte	0x339
	.byte	0x3d
	.4byte	0x70f
	.uleb128 0x25
	.4byte	0x1c54
	.4byte	.LLST108
	.4byte	.LVUS108
	.uleb128 0x25
	.4byte	0x1c47
	.4byte	.LLST109
	.4byte	.LVUS109
	.byte	0
	.uleb128 0x1f
	.4byte	.LVL180
	.4byte	0x3c6b
	.uleb128 0x20
	.uleb128 0x1
	.byte	0x50
	.uleb128 0x2
	.byte	0x74
	.sleb128 0
	.byte	0
	.byte	0
	.uleb128 0x23
	.4byte	.Ldebug_ranges0+0x260
	.4byte	0x74d
	.uleb128 0x1b
	.ascii	"j\000"
	.byte	0x1
	.2byte	0x344
	.byte	0x15
	.4byte	0x84
	.4byte	.LLST105
	.4byte	.LVUS105
	.uleb128 0x1f
	.4byte	.LVL171
	.4byte	0x3c6b
	.uleb128 0x20
	.uleb128 0x1
	.byte	0x50
	.uleb128 0x2
	.byte	0x74
	.sleb128 0
	.byte	0
	.byte	0
	.uleb128 0x23
	.4byte	.Ldebug_ranges0+0x358
	.4byte	0x77a
	.uleb128 0x1b
	.ascii	"j\000"
	.byte	0x1
	.2byte	0x34f
	.byte	0x15
	.4byte	0x84
	.4byte	.LLST113
	.4byte	.LVUS113
	.uleb128 0x1f
	.4byte	.LVL198
	.4byte	0x3c6b
	.uleb128 0x20
	.uleb128 0x1
	.byte	0x50
	.uleb128 0x2
	.byte	0x74
	.sleb128 0
	.byte	0
	.byte	0
	.uleb128 0x23
	.4byte	.Ldebug_ranges0+0x328
	.4byte	0x7c3
	.uleb128 0x1b
	.ascii	"j\000"
	.byte	0x1
	.2byte	0x35b
	.byte	0x15
	.4byte	0x84
	.4byte	.LLST112
	.4byte	.LVUS112
	.uleb128 0x26
	.4byte	.LVL193
	.4byte	0x3c6b
	.4byte	0x7b2
	.uleb128 0x20
	.uleb128 0x1
	.byte	0x50
	.uleb128 0x2
	.byte	0x75
	.sleb128 0
	.uleb128 0x20
	.uleb128 0x1
	.byte	0x51
	.uleb128 0x4
	.byte	0x91
	.sleb128 -420
	.byte	0x6
	.byte	0
	.uleb128 0x1f
	.4byte	.LVL194
	.4byte	0x3c6b
	.uleb128 0x20
	.uleb128 0x1
	.byte	0x50
	.uleb128 0x2
	.byte	0x75
	.sleb128 0
	.byte	0
	.byte	0
	.uleb128 0x23
	.4byte	.Ldebug_ranges0+0x308
	.4byte	0x7f0
	.uleb128 0x1b
	.ascii	"j\000"
	.byte	0x1
	.2byte	0x366
	.byte	0x15
	.4byte	0x84
	.4byte	.LLST111
	.4byte	.LVUS111
	.uleb128 0x1f
	.4byte	.LVL189
	.4byte	0x3c6b
	.uleb128 0x20
	.uleb128 0x1
	.byte	0x50
	.uleb128 0x2
	.byte	0x74
	.sleb128 0
	.byte	0
	.byte	0
	.uleb128 0x23
	.4byte	.Ldebug_ranges0+0x2e8
	.4byte	0x81d
	.uleb128 0x1b
	.ascii	"j\000"
	.byte	0x1
	.2byte	0x372
	.byte	0x15
	.4byte	0x84
	.4byte	.LLST110
	.4byte	.LVUS110
	.uleb128 0x1f
	.4byte	.LVL185
	.4byte	0x3c6b
	.uleb128 0x20
	.uleb128 0x1
	.byte	0x50
	.uleb128 0x2
	.byte	0x74
	.sleb128 0
	.byte	0
	.byte	0
	.uleb128 0x23
	.4byte	.Ldebug_ranges0+0x210
	.4byte	0x84a
	.uleb128 0x1b
	.ascii	"j\000"
	.byte	0x1
	.2byte	0x37d
	.byte	0x15
	.4byte	0x84
	.4byte	.LLST103
	.4byte	.LVUS103
	.uleb128 0x1f
	.4byte	.LVL162
	.4byte	0x3c6b
	.uleb128 0x20
	.uleb128 0x1
	.byte	0x50
	.uleb128 0x2
	.byte	0x75
	.sleb128 0
	.byte	0
	.byte	0
	.uleb128 0x27
	.4byte	0x1c37
	.4byte	.LBI420
	.2byte	.LVU35
	.4byte	.LBB420
	.4byte	.LBE420-.LBB420
	.byte	0x1
	.2byte	0x31f
	.byte	0x1a
	.4byte	0x880
	.uleb128 0x25
	.4byte	0x1c54
	.4byte	.LLST3
	.4byte	.LVUS3
	.uleb128 0x25
	.4byte	0x1c47
	.4byte	.LLST4
	.4byte	.LVUS4
	.byte	0
	.uleb128 0x27
	.4byte	0x1c37
	.4byte	.LBI422
	.2byte	.LVU38
	.4byte	.LBB422
	.4byte	.LBE422-.LBB422
	.byte	0x1
	.2byte	0x31f
	.byte	0x2a
	.4byte	0x8b6
	.uleb128 0x25
	.4byte	0x1c54
	.4byte	.LLST5
	.4byte	.LVUS5
	.uleb128 0x25
	.4byte	0x1c47
	.4byte	.LLST6
	.4byte	.LVUS6
	.byte	0
	.uleb128 0x27
	.4byte	0x1c37
	.4byte	.LBI424
	.2byte	.LVU41
	.4byte	.LBB424
	.4byte	.LBE424-.LBB424
	.byte	0x1
	.2byte	0x31f
	.byte	0x3a
	.4byte	0x8ec
	.uleb128 0x25
	.4byte	0x1c54
	.4byte	.LLST7
	.4byte	.LVUS7
	.uleb128 0x25
	.4byte	0x1c47
	.4byte	.LLST8
	.4byte	.LVUS8
	.byte	0
	.uleb128 0x27
	.4byte	0x1c37
	.4byte	.LBI426
	.2byte	.LVU44
	.4byte	.LBB426
	.4byte	.LBE426-.LBB426
	.byte	0x1
	.2byte	0x31f
	.byte	0x4a
	.4byte	0x922
	.uleb128 0x25
	.4byte	0x1c54
	.4byte	.LLST9
	.4byte	.LVUS9
	.uleb128 0x25
	.4byte	0x1c47
	.4byte	.LLST10
	.4byte	.LVUS10
	.byte	0
	.uleb128 0x27
	.4byte	0x1c37
	.4byte	.LBI428
	.2byte	.LVU47
	.4byte	.LBB428
	.4byte	.LBE428-.LBB428
	.byte	0x1
	.2byte	0x31f
	.byte	0x5a
	.4byte	0x958
	.uleb128 0x25
	.4byte	0x1c54
	.4byte	.LLST11
	.4byte	.LVUS11
	.uleb128 0x25
	.4byte	0x1c47
	.4byte	.LLST12
	.4byte	.LVUS12
	.byte	0
	.uleb128 0x27
	.4byte	0x1c37
	.4byte	.LBI430
	.2byte	.LVU97
	.4byte	.LBB430
	.4byte	.LBE430-.LBB430
	.byte	0x1
	.2byte	0x320
	.byte	0x5a
	.4byte	0x98e
	.uleb128 0x25
	.4byte	0x1c54
	.4byte	.LLST13
	.4byte	.LVUS13
	.uleb128 0x25
	.4byte	0x1c47
	.4byte	.LLST14
	.4byte	.LVUS14
	.byte	0
	.uleb128 0x27
	.4byte	0x1c37
	.4byte	.LBI432
	.2byte	.LVU117
	.4byte	.LBB432
	.4byte	.LBE432-.LBB432
	.byte	0x1
	.2byte	0x321
	.byte	0x5a
	.4byte	0x9c4
	.uleb128 0x25
	.4byte	0x1c54
	.4byte	.LLST15
	.4byte	.LVUS15
	.uleb128 0x25
	.4byte	0x1c47
	.4byte	.LLST16
	.4byte	.LVUS16
	.byte	0
	.uleb128 0x27
	.4byte	0x1c37
	.4byte	.LBI434
	.2byte	.LVU147
	.4byte	.LBB434
	.4byte	.LBE434-.LBB434
	.byte	0x1
	.2byte	0x322
	.byte	0x5a
	.4byte	0x9fa
	.uleb128 0x25
	.4byte	0x1c54
	.4byte	.LLST17
	.4byte	.LVUS17
	.uleb128 0x25
	.4byte	0x1c47
	.4byte	.LLST18
	.4byte	.LVUS18
	.byte	0
	.uleb128 0x27
	.4byte	0x1c37
	.4byte	.LBI436
	.2byte	.LVU300
	.4byte	.LBB436
	.4byte	.LBE436-.LBB436
	.byte	0x1
	.2byte	0x348
	.byte	0x1c
	.4byte	0xa30
	.uleb128 0x25
	.4byte	0x1c54
	.4byte	.LLST19
	.4byte	.LVUS19
	.uleb128 0x25
	.4byte	0x1c47
	.4byte	.LLST20
	.4byte	.LVUS20
	.byte	0
	.uleb128 0x27
	.4byte	0x1c37
	.4byte	.LBI438
	.2byte	.LVU312
	.4byte	.LBB438
	.4byte	.LBE438-.LBB438
	.byte	0x1
	.2byte	0x348
	.byte	0x2c
	.4byte	0xa66
	.uleb128 0x25
	.4byte	0x1c54
	.4byte	.LLST21
	.4byte	.LVUS21
	.uleb128 0x25
	.4byte	0x1c47
	.4byte	.LLST22
	.4byte	.LVUS22
	.byte	0
	.uleb128 0x27
	.4byte	0x1c37
	.4byte	.LBI440
	.2byte	.LVU315
	.4byte	.LBB440
	.4byte	.LBE440-.LBB440
	.byte	0x1
	.2byte	0x348
	.byte	0x3c
	.4byte	0xa9c
	.uleb128 0x25
	.4byte	0x1c54
	.4byte	.LLST23
	.4byte	.LVUS23
	.uleb128 0x25
	.4byte	0x1c47
	.4byte	.LLST24
	.4byte	.LVUS24
	.byte	0
	.uleb128 0x27
	.4byte	0x1c37
	.4byte	.LBI442
	.2byte	.LVU328
	.4byte	.LBB442
	.4byte	.LBE442-.LBB442
	.byte	0x1
	.2byte	0x348
	.byte	0x4c
	.4byte	0xad2
	.uleb128 0x25
	.4byte	0x1c54
	.4byte	.LLST25
	.4byte	.LVUS25
	.uleb128 0x25
	.4byte	0x1c47
	.4byte	.LLST26
	.4byte	.LVUS26
	.byte	0
	.uleb128 0x27
	.4byte	0x1c37
	.4byte	.LBI444
	.2byte	.LVU342
	.4byte	.LBB444
	.4byte	.LBE444-.LBB444
	.byte	0x1
	.2byte	0x348
	.byte	0x5c
	.4byte	0xb08
	.uleb128 0x25
	.4byte	0x1c54
	.4byte	.LLST27
	.4byte	.LVUS27
	.uleb128 0x25
	.4byte	0x1c47
	.4byte	.LLST28
	.4byte	.LVUS28
	.byte	0
	.uleb128 0x27
	.4byte	0x1c37
	.4byte	.LBI446
	.2byte	.LVU362
	.4byte	.LBB446
	.4byte	.LBE446-.LBB446
	.byte	0x1
	.2byte	0x349
	.byte	0x1c
	.4byte	0xb3e
	.uleb128 0x25
	.4byte	0x1c54
	.4byte	.LLST29
	.4byte	.LVUS29
	.uleb128 0x25
	.4byte	0x1c47
	.4byte	.LLST30
	.4byte	.LVUS30
	.byte	0
	.uleb128 0x27
	.4byte	0x1c37
	.4byte	.LBI448
	.2byte	.LVU365
	.4byte	.LBB448
	.4byte	.LBE448-.LBB448
	.byte	0x1
	.2byte	0x349
	.byte	0x2c
	.4byte	0xb74
	.uleb128 0x25
	.4byte	0x1c54
	.4byte	.LLST31
	.4byte	.LVUS31
	.uleb128 0x25
	.4byte	0x1c47
	.4byte	.LLST32
	.4byte	.LVUS32
	.byte	0
	.uleb128 0x27
	.4byte	0x1c37
	.4byte	.LBI450
	.2byte	.LVU368
	.4byte	.LBB450
	.4byte	.LBE450-.LBB450
	.byte	0x1
	.2byte	0x349
	.byte	0x3c
	.4byte	0xbaa
	.uleb128 0x25
	.4byte	0x1c54
	.4byte	.LLST33
	.4byte	.LVUS33
	.uleb128 0x25
	.4byte	0x1c47
	.4byte	.LLST34
	.4byte	.LVUS34
	.byte	0
	.uleb128 0x27
	.4byte	0x1c37
	.4byte	.LBI452
	.2byte	.LVU371
	.4byte	.LBB452
	.4byte	.LBE452-.LBB452
	.byte	0x1
	.2byte	0x349
	.byte	0x4c
	.4byte	0xbe0
	.uleb128 0x25
	.4byte	0x1c54
	.4byte	.LLST35
	.4byte	.LVUS35
	.uleb128 0x25
	.4byte	0x1c47
	.4byte	.LLST36
	.4byte	.LVUS36
	.byte	0
	.uleb128 0x27
	.4byte	0x1c37
	.4byte	.LBI454
	.2byte	.LVU376
	.4byte	.LBB454
	.4byte	.LBE454-.LBB454
	.byte	0x1
	.2byte	0x34a
	.byte	0x1c
	.4byte	0xc16
	.uleb128 0x25
	.4byte	0x1c54
	.4byte	.LLST37
	.4byte	.LVUS37
	.uleb128 0x25
	.4byte	0x1c47
	.4byte	.LLST38
	.4byte	.LVUS38
	.byte	0
	.uleb128 0x27
	.4byte	0x1c37
	.4byte	.LBI456
	.2byte	.LVU379
	.4byte	.LBB456
	.4byte	.LBE456-.LBB456
	.byte	0x1
	.2byte	0x34a
	.byte	0x2c
	.4byte	0xc4c
	.uleb128 0x25
	.4byte	0x1c54
	.4byte	.LLST39
	.4byte	.LVUS39
	.uleb128 0x25
	.4byte	0x1c47
	.4byte	.LLST40
	.4byte	.LVUS40
	.byte	0
	.uleb128 0x27
	.4byte	0x1c37
	.4byte	.LBI458
	.2byte	.LVU383
	.4byte	.LBB458
	.4byte	.LBE458-.LBB458
	.byte	0x1
	.2byte	0x34a
	.byte	0x4c
	.4byte	0xc82
	.uleb128 0x25
	.4byte	0x1c54
	.4byte	.LLST41
	.4byte	.LVUS41
	.uleb128 0x25
	.4byte	0x1c47
	.4byte	.LLST42
	.4byte	.LVUS42
	.byte	0
	.uleb128 0x27
	.4byte	0x1c37
	.4byte	.LBI460
	.2byte	.LVU388
	.4byte	.LBB460
	.4byte	.LBE460-.LBB460
	.byte	0x1
	.2byte	0x34b
	.byte	0x1c
	.4byte	0xcb8
	.uleb128 0x25
	.4byte	0x1c54
	.4byte	.LLST43
	.4byte	.LVUS43
	.uleb128 0x25
	.4byte	0x1c47
	.4byte	.LLST44
	.4byte	.LVUS44
	.byte	0
	.uleb128 0x27
	.4byte	0x1c37
	.4byte	.LBI462
	.2byte	.LVU391
	.4byte	.LBB462
	.4byte	.LBE462-.LBB462
	.byte	0x1
	.2byte	0x34b
	.byte	0x2c
	.4byte	0xcee
	.uleb128 0x25
	.4byte	0x1c54
	.4byte	.LLST45
	.4byte	.LVUS45
	.uleb128 0x25
	.4byte	0x1c47
	.4byte	.LLST46
	.4byte	.LVUS46
	.byte	0
	.uleb128 0x27
	.4byte	0x1c37
	.4byte	.LBI464
	.2byte	.LVU394
	.4byte	.LBB464
	.4byte	.LBE464-.LBB464
	.byte	0x1
	.2byte	0x34b
	.byte	0x3c
	.4byte	0xd24
	.uleb128 0x25
	.4byte	0x1c54
	.4byte	.LLST47
	.4byte	.LVUS47
	.uleb128 0x25
	.4byte	0x1c47
	.4byte	.LLST48
	.4byte	.LVUS48
	.byte	0
	.uleb128 0x27
	.4byte	0x1c37
	.4byte	.LBI466
	.2byte	.LVU397
	.4byte	.LBB466
	.4byte	.LBE466-.LBB466
	.byte	0x1
	.2byte	0x34b
	.byte	0x4c
	.4byte	0xd5a
	.uleb128 0x25
	.4byte	0x1c54
	.4byte	.LLST49
	.4byte	.LVUS49
	.uleb128 0x25
	.4byte	0x1c47
	.4byte	.LLST50
	.4byte	.LVUS50
	.byte	0
	.uleb128 0x27
	.4byte	0x1c37
	.4byte	.LBI468
	.2byte	.LVU404
	.4byte	.LBB468
	.4byte	.LBE468-.LBB468
	.byte	0x1
	.2byte	0x354
	.byte	0x1a
	.4byte	0xd90
	.uleb128 0x25
	.4byte	0x1c54
	.4byte	.LLST51
	.4byte	.LVUS51
	.uleb128 0x25
	.4byte	0x1c47
	.4byte	.LLST52
	.4byte	.LVUS52
	.byte	0
	.uleb128 0x27
	.4byte	0x1c37
	.4byte	.LBI470
	.2byte	.LVU407
	.4byte	.LBB470
	.4byte	.LBE470-.LBB470
	.byte	0x1
	.2byte	0x354
	.byte	0x2a
	.4byte	0xdc6
	.uleb128 0x25
	.4byte	0x1c54
	.4byte	.LLST53
	.4byte	.LVUS53
	.uleb128 0x25
	.4byte	0x1c47
	.4byte	.LLST54
	.4byte	.LVUS54
	.byte	0
	.uleb128 0x27
	.4byte	0x1c37
	.4byte	.LBI472
	.2byte	.LVU410
	.4byte	.LBB472
	.4byte	.LBE472-.LBB472
	.byte	0x1
	.2byte	0x354
	.byte	0x3a
	.4byte	0xdfc
	.uleb128 0x25
	.4byte	0x1c54
	.4byte	.LLST55
	.4byte	.LVUS55
	.uleb128 0x25
	.4byte	0x1c47
	.4byte	.LLST56
	.4byte	.LVUS56
	.byte	0
	.uleb128 0x27
	.4byte	0x1c37
	.4byte	.LBI474
	.2byte	.LVU413
	.4byte	.LBB474
	.4byte	.LBE474-.LBB474
	.byte	0x1
	.2byte	0x354
	.byte	0x4a
	.4byte	0xe32
	.uleb128 0x25
	.4byte	0x1c54
	.4byte	.LLST57
	.4byte	.LVUS57
	.uleb128 0x25
	.4byte	0x1c47
	.4byte	.LLST58
	.4byte	.LVUS58
	.byte	0
	.uleb128 0x27
	.4byte	0x1c37
	.4byte	.LBI476
	.2byte	.LVU416
	.4byte	.LBB476
	.4byte	.LBE476-.LBB476
	.byte	0x1
	.2byte	0x354
	.byte	0x5a
	.4byte	0xe68
	.uleb128 0x25
	.4byte	0x1c54
	.4byte	.LLST59
	.4byte	.LVUS59
	.uleb128 0x25
	.4byte	0x1c47
	.4byte	.LLST60
	.4byte	.LVUS60
	.byte	0
	.uleb128 0x27
	.4byte	0x1c37
	.4byte	.LBI478
	.2byte	.LVU468
	.4byte	.LBB478
	.4byte	.LBE478-.LBB478
	.byte	0x1
	.2byte	0x355
	.byte	0x5a
	.4byte	0xe9e
	.uleb128 0x25
	.4byte	0x1c54
	.4byte	.LLST61
	.4byte	.LVUS61
	.uleb128 0x25
	.4byte	0x1c47
	.4byte	.LLST62
	.4byte	.LVUS62
	.byte	0
	.uleb128 0x27
	.4byte	0x1c37
	.4byte	.LBI480
	.2byte	.LVU479
	.4byte	.LBB480
	.4byte	.LBE480-.LBB480
	.byte	0x1
	.2byte	0x356
	.byte	0x5a
	.4byte	0xed4
	.uleb128 0x25
	.4byte	0x1c54
	.4byte	.LLST63
	.4byte	.LVUS63
	.uleb128 0x25
	.4byte	0x1c47
	.4byte	.LLST64
	.4byte	.LVUS64
	.byte	0
	.uleb128 0x27
	.4byte	0x1c37
	.4byte	.LBI482
	.2byte	.LVU501
	.4byte	.LBB482
	.4byte	.LBE482-.LBB482
	.byte	0x1
	.2byte	0x357
	.byte	0x5a
	.4byte	0xf0a
	.uleb128 0x25
	.4byte	0x1c54
	.4byte	.LLST65
	.4byte	.LVUS65
	.uleb128 0x25
	.4byte	0x1c47
	.4byte	.LLST66
	.4byte	.LVUS66
	.byte	0
	.uleb128 0x27
	.4byte	0x1c37
	.4byte	.LBI484
	.2byte	.LVU670
	.4byte	.LBB484
	.4byte	.LBE484-.LBB484
	.byte	0x1
	.2byte	0x376
	.byte	0x1d
	.4byte	0xf40
	.uleb128 0x25
	.4byte	0x1c54
	.4byte	.LLST67
	.4byte	.LVUS67
	.uleb128 0x25
	.4byte	0x1c47
	.4byte	.LLST68
	.4byte	.LVUS68
	.byte	0
	.uleb128 0x27
	.4byte	0x1c37
	.4byte	.LBI486
	.2byte	.LVU673
	.4byte	.LBB486
	.4byte	.LBE486-.LBB486
	.byte	0x1
	.2byte	0x376
	.byte	0x2d
	.4byte	0xf76
	.uleb128 0x25
	.4byte	0x1c54
	.4byte	.LLST69
	.4byte	.LVUS69
	.uleb128 0x25
	.4byte	0x1c47
	.4byte	.LLST70
	.4byte	.LVUS70
	.byte	0
	.uleb128 0x27
	.4byte	0x1c37
	.4byte	.LBI488
	.2byte	.LVU676
	.4byte	.LBB488
	.4byte	.LBE488-.LBB488
	.byte	0x1
	.2byte	0x376
	.byte	0x3d
	.4byte	0xfac
	.uleb128 0x25
	.4byte	0x1c54
	.4byte	.LLST71
	.4byte	.LVUS71
	.uleb128 0x25
	.4byte	0x1c47
	.4byte	.LLST72
	.4byte	.LVUS72
	.byte	0
	.uleb128 0x27
	.4byte	0x1c37
	.4byte	.LBI490
	.2byte	.LVU687
	.4byte	.LBB490
	.4byte	.LBE490-.LBB490
	.byte	0x1
	.2byte	0x376
	.byte	0x4d
	.4byte	0xfe2
	.uleb128 0x25
	.4byte	0x1c54
	.4byte	.LLST73
	.4byte	.LVUS73
	.uleb128 0x25
	.4byte	0x1c47
	.4byte	.LLST74
	.4byte	.LVUS74
	.byte	0
	.uleb128 0x27
	.4byte	0x1c37
	.4byte	.LBI492
	.2byte	.LVU690
	.4byte	.LBB492
	.4byte	.LBE492-.LBB492
	.byte	0x1
	.2byte	0x376
	.byte	0x5d
	.4byte	0x1018
	.uleb128 0x25
	.4byte	0x1c54
	.4byte	.LLST75
	.4byte	.LVUS75
	.uleb128 0x25
	.4byte	0x1c47
	.4byte	.LLST76
	.4byte	.LVUS76
	.byte	0
	.uleb128 0x27
	.4byte	0x1c37
	.4byte	.LBI494
	.2byte	.LVU727
	.4byte	.LBB494
	.4byte	.LBE494-.LBB494
	.byte	0x1
	.2byte	0x377
	.byte	0x1d
	.4byte	0x104e
	.uleb128 0x25
	.4byte	0x1c54
	.4byte	.LLST77
	.4byte	.LVUS77
	.uleb128 0x25
	.4byte	0x1c47
	.4byte	.LLST78
	.4byte	.LVUS78
	.byte	0
	.uleb128 0x27
	.4byte	0x1c37
	.4byte	.LBI496
	.2byte	.LVU730
	.4byte	.LBB496
	.4byte	.LBE496-.LBB496
	.byte	0x1
	.2byte	0x377
	.byte	0x2d
	.4byte	0x1084
	.uleb128 0x25
	.4byte	0x1c54
	.4byte	.LLST79
	.4byte	.LVUS79
	.uleb128 0x25
	.4byte	0x1c47
	.4byte	.LLST80
	.4byte	.LVUS80
	.byte	0
	.uleb128 0x27
	.4byte	0x1c37
	.4byte	.LBI498
	.2byte	.LVU733
	.4byte	.LBB498
	.4byte	.LBE498-.LBB498
	.byte	0x1
	.2byte	0x377
	.byte	0x3d
	.4byte	0x10ba
	.uleb128 0x25
	.4byte	0x1c54
	.4byte	.LLST81
	.4byte	.LVUS81
	.uleb128 0x25
	.4byte	0x1c47
	.4byte	.LLST82
	.4byte	.LVUS82
	.byte	0
	.uleb128 0x27
	.4byte	0x1c37
	.4byte	.LBI500
	.2byte	.LVU736
	.4byte	.LBB500
	.4byte	.LBE500-.LBB500
	.byte	0x1
	.2byte	0x377
	.byte	0x4d
	.4byte	0x10f0
	.uleb128 0x25
	.4byte	0x1c54
	.4byte	.LLST83
	.4byte	.LVUS83
	.uleb128 0x25
	.4byte	0x1c47
	.4byte	.LLST84
	.4byte	.LVUS84
	.byte	0
	.uleb128 0x27
	.4byte	0x1c37
	.4byte	.LBI502
	.2byte	.LVU741
	.4byte	.LBB502
	.4byte	.LBE502-.LBB502
	.byte	0x1
	.2byte	0x378
	.byte	0x1d
	.4byte	0x1126
	.uleb128 0x25
	.4byte	0x1c54
	.4byte	.LLST85
	.4byte	.LVUS85
	.uleb128 0x25
	.4byte	0x1c47
	.4byte	.LLST86
	.4byte	.LVUS86
	.byte	0
	.uleb128 0x27
	.4byte	0x1c37
	.4byte	.LBI504
	.2byte	.LVU744
	.4byte	.LBB504
	.4byte	.LBE504-.LBB504
	.byte	0x1
	.2byte	0x378
	.byte	0x2d
	.4byte	0x115c
	.uleb128 0x25
	.4byte	0x1c54
	.4byte	.LLST87
	.4byte	.LVUS87
	.uleb128 0x25
	.4byte	0x1c47
	.4byte	.LLST88
	.4byte	.LVUS88
	.byte	0
	.uleb128 0x27
	.4byte	0x1c37
	.4byte	.LBI506
	.2byte	.LVU748
	.4byte	.LBB506
	.4byte	.LBE506-.LBB506
	.byte	0x1
	.2byte	0x378
	.byte	0x4d
	.4byte	0x1192
	.uleb128 0x25
	.4byte	0x1c54
	.4byte	.LLST89
	.4byte	.LVUS89
	.uleb128 0x25
	.4byte	0x1c47
	.4byte	.LLST90
	.4byte	.LVUS90
	.byte	0
	.uleb128 0x27
	.4byte	0x1c37
	.4byte	.LBI508
	.2byte	.LVU755
	.4byte	.LBB508
	.4byte	.LBE508-.LBB508
	.byte	0x1
	.2byte	0x379
	.byte	0x1d
	.4byte	0x11c8
	.uleb128 0x25
	.4byte	0x1c54
	.4byte	.LLST91
	.4byte	.LVUS91
	.uleb128 0x25
	.4byte	0x1c47
	.4byte	.LLST92
	.4byte	.LVUS92
	.byte	0
	.uleb128 0x27
	.4byte	0x1c37
	.4byte	.LBI510
	.2byte	.LVU758
	.4byte	.LBB510
	.4byte	.LBE510-.LBB510
	.byte	0x1
	.2byte	0x379
	.byte	0x2d
	.4byte	0x11fe
	.uleb128 0x25
	.4byte	0x1c54
	.4byte	.LLST93
	.4byte	.LVUS93
	.uleb128 0x25
	.4byte	0x1c47
	.4byte	.LLST94
	.4byte	.LVUS94
	.byte	0
	.uleb128 0x27
	.4byte	0x1c37
	.4byte	.LBI512
	.2byte	.LVU761
	.4byte	.LBB512
	.4byte	.LBE512-.LBB512
	.byte	0x1
	.2byte	0x379
	.byte	0x3d
	.4byte	0x1234
	.uleb128 0x25
	.4byte	0x1c54
	.4byte	.LLST95
	.4byte	.LVUS95
	.uleb128 0x25
	.4byte	0x1c47
	.4byte	.LLST96
	.4byte	.LVUS96
	.byte	0
	.uleb128 0x27
	.4byte	0x1c37
	.4byte	.LBI514
	.2byte	.LVU764
	.4byte	.LBB514
	.4byte	.LBE514-.LBB514
	.byte	0x1
	.2byte	0x379
	.byte	0x4d
	.4byte	0x126a
	.uleb128 0x25
	.4byte	0x1c54
	.4byte	.LLST97
	.4byte	.LVUS97
	.uleb128 0x25
	.4byte	0x1c47
	.4byte	.LLST98
	.4byte	.LVUS98
	.byte	0
	.uleb128 0x26
	.4byte	.LVL134
	.4byte	0x3c6b
	.4byte	0x1288
	.uleb128 0x20
	.uleb128 0x1
	.byte	0x50
	.uleb128 0x4
	.byte	0x91
	.sleb128 -388
	.byte	0x6
	.uleb128 0x20
	.uleb128 0x1
	.byte	0x51
	.uleb128 0x4
	.byte	0x91
	.sleb128 -456
	.byte	0x6
	.byte	0
	.uleb128 0x28
	.4byte	.LVL135
	.4byte	0x3c6b
	.uleb128 0x28
	.4byte	.LVL138
	.4byte	0x3c6b
	.uleb128 0x28
	.4byte	.LVL139
	.4byte	0x3c6b
	.uleb128 0x28
	.4byte	.LVL143
	.4byte	0x3c6b
	.uleb128 0x28
	.4byte	.LVL160
	.4byte	0x3c6b
	.uleb128 0x28
	.4byte	.LVL163
	.4byte	0x3c6b
	.uleb128 0x28
	.4byte	.LVL164
	.4byte	0x3c6b
	.uleb128 0x28
	.4byte	.LVL168
	.4byte	0x3c6b
	.uleb128 0x28
	.4byte	.LVL169
	.4byte	0x3c6b
	.uleb128 0x28
	.4byte	.LVL172
	.4byte	0x3c6b
	.uleb128 0x26
	.4byte	.LVL173
	.4byte	0x3c6b
	.4byte	0x12f8
	.uleb128 0x20
	.uleb128 0x1
	.byte	0x51
	.uleb128 0x4
	.byte	0x91
	.sleb128 -484
	.byte	0x6
	.byte	0
	.uleb128 0x28
	.4byte	.LVL176
	.4byte	0x3c6b
	.uleb128 0x28
	.4byte	.LVL177
	.4byte	0x3c6b
	.uleb128 0x28
	.4byte	.LVL181
	.4byte	0x3c6b
	.uleb128 0x28
	.4byte	.LVL183
	.4byte	0x3c6b
	.uleb128 0x28
	.4byte	.LVL186
	.4byte	0x3c6b
	.uleb128 0x28
	.4byte	.LVL187
	.4byte	0x3c6b
	.uleb128 0x28
	.4byte	.LVL190
	.4byte	0x3c6b
	.uleb128 0x28
	.4byte	.LVL191
	.4byte	0x3c6b
	.uleb128 0x28
	.4byte	.LVL195
	.4byte	0x3c6b
	.uleb128 0x28
	.4byte	.LVL196
	.4byte	0x3c6b
	.uleb128 0x28
	.4byte	.LVL199
	.4byte	0x3c6b
	.byte	0
	.uleb128 0x23
	.4byte	.Ldebug_ranges0+0x380
	.4byte	0x1a3b
	.uleb128 0x1b
	.ascii	"i\000"
	.byte	0x1
	.2byte	0x390
	.byte	0xe
	.4byte	0x84
	.4byte	.LLST114
	.4byte	.LVUS114
	.uleb128 0x1a
	.4byte	.Ldebug_ranges0+0x3a0
	.uleb128 0x19
	.4byte	.LASF41
	.byte	0x1
	.2byte	0x391
	.byte	0xd
	.4byte	0x84
	.4byte	.LLST115
	.4byte	.LVUS115
	.uleb128 0x1b
	.ascii	"Kmi\000"
	.byte	0x1
	.2byte	0x392
	.byte	0x12
	.4byte	0x65
	.4byte	.LLST116
	.4byte	.LVUS116
	.uleb128 0x1b
	.ascii	"Kri\000"
	.byte	0x1
	.2byte	0x393
	.byte	0x11
	.4byte	0x41
	.4byte	.LLST117
	.4byte	.LVUS117
	.uleb128 0x1b
	.ascii	"I\000"
	.byte	0x1
	.2byte	0x39c
	.byte	0x12
	.4byte	0x65
	.4byte	.LLST118
	.4byte	.LVUS118
	.uleb128 0x1b
	.ascii	"f\000"
	.byte	0x1
	.2byte	0x39d
	.byte	0x12
	.4byte	0x65
	.4byte	.LLST119
	.4byte	.LVUS119
	.uleb128 0x1b
	.ascii	"Ia\000"
	.byte	0x1
	.2byte	0x39e
	.byte	0x11
	.4byte	0x41
	.4byte	.LLST120
	.4byte	.LVUS120
	.uleb128 0x1b
	.ascii	"Ib\000"
	.byte	0x1
	.2byte	0x39e
	.byte	0x15
	.4byte	0x41
	.4byte	.LLST121
	.4byte	.LVUS121
	.uleb128 0x1b
	.ascii	"Ic\000"
	.byte	0x1
	.2byte	0x39e
	.byte	0x19
	.4byte	0x41
	.4byte	.LLST122
	.4byte	.LVUS122
	.uleb128 0x1b
	.ascii	"Id\000"
	.byte	0x1
	.2byte	0x39e
	.byte	0x1d
	.4byte	0x41
	.4byte	.LLST123
	.4byte	.LVUS123
	.uleb128 0x24
	.4byte	0x1ba8
	.4byte	.LBI619
	.2byte	.LVU791
	.4byte	.Ldebug_ranges0+0x3c8
	.byte	0x1
	.2byte	0x3a2
	.byte	0x15
	.4byte	0x1464
	.uleb128 0x25
	.4byte	0x1bc5
	.4byte	.LLST124
	.4byte	.LVUS124
	.uleb128 0x25
	.4byte	0x1bba
	.4byte	.LLST125
	.4byte	.LVUS125
	.byte	0
	.uleb128 0x24
	.4byte	0x1b49
	.4byte	.LBI624
	.2byte	.LVU794
	.4byte	.Ldebug_ranges0+0x3f0
	.byte	0x1
	.2byte	0x3a2
	.byte	0x15
	.4byte	0x14a9
	.uleb128 0x25
	.4byte	0x1b66
	.4byte	.LLST126
	.4byte	.LVUS126
	.uleb128 0x25
	.4byte	0x1b5b
	.4byte	.LLST127
	.4byte	.LVUS127
	.uleb128 0x1a
	.4byte	.Ldebug_ranges0+0x3f0
	.uleb128 0x29
	.4byte	0x1b73
	.4byte	.LLST128
	.4byte	.LVUS128
	.byte	0
	.byte	0
	.uleb128 0x24
	.4byte	0x1bed
	.4byte	.LBI634
	.2byte	.LVU806
	.4byte	.Ldebug_ranges0+0x428
	.byte	0x1
	.2byte	0x3a5
	.byte	0x11
	.4byte	0x1502
	.uleb128 0x25
	.4byte	0x1c2a
	.4byte	.LLST129
	.4byte	.LVUS129
	.uleb128 0x25
	.4byte	0x1c1e
	.4byte	.LLST130
	.4byte	.LVUS130
	.uleb128 0x25
	.4byte	0x1c12
	.4byte	.LLST131
	.4byte	.LVUS131
	.uleb128 0x25
	.4byte	0x1c06
	.4byte	.LLST132
	.4byte	.LVUS132
	.uleb128 0x25
	.4byte	0x1bfb
	.4byte	.LLST133
	.4byte	.LVUS133
	.byte	0
	.uleb128 0x24
	.4byte	0x1b7f
	.4byte	.LBI639
	.2byte	.LVU814
	.4byte	.Ldebug_ranges0+0x450
	.byte	0x1
	.2byte	0x3a7
	.byte	0x15
	.4byte	0x1534
	.uleb128 0x25
	.4byte	0x1b9c
	.4byte	.LLST134
	.4byte	.LVUS134
	.uleb128 0x25
	.4byte	0x1b91
	.4byte	.LLST135
	.4byte	.LVUS135
	.byte	0
	.uleb128 0x24
	.4byte	0x1ba8
	.4byte	.LBI645
	.2byte	.LVU818
	.4byte	.Ldebug_ranges0+0x480
	.byte	0x1
	.2byte	0x3a7
	.byte	0x15
	.4byte	0x1566
	.uleb128 0x25
	.4byte	0x1bc5
	.4byte	.LLST136
	.4byte	.LVUS136
	.uleb128 0x25
	.4byte	0x1bba
	.4byte	.LLST137
	.4byte	.LVUS137
	.byte	0
	.uleb128 0x24
	.4byte	0x1b7f
	.4byte	.LBI654
	.2byte	.LVU866
	.4byte	.Ldebug_ranges0+0x4a8
	.byte	0x1
	.2byte	0x3be
	.byte	0x15
	.4byte	0x1598
	.uleb128 0x25
	.4byte	0x1b9c
	.4byte	.LLST138
	.4byte	.LVUS138
	.uleb128 0x25
	.4byte	0x1b91
	.4byte	.LLST139
	.4byte	.LVUS139
	.byte	0
	.uleb128 0x24
	.4byte	0x1b49
	.4byte	.LBI658
	.2byte	.LVU871
	.4byte	.Ldebug_ranges0+0x4c0
	.byte	0x1
	.2byte	0x3be
	.byte	0x15
	.4byte	0x15dd
	.uleb128 0x25
	.4byte	0x1b66
	.4byte	.LLST140
	.4byte	.LVUS140
	.uleb128 0x25
	.4byte	0x1b5b
	.4byte	.LLST141
	.4byte	.LVUS141
	.uleb128 0x1a
	.4byte	.Ldebug_ranges0+0x4c0
	.uleb128 0x29
	.4byte	0x1b73
	.4byte	.LLST142
	.4byte	.LVUS142
	.byte	0
	.byte	0
	.uleb128 0x24
	.4byte	0x1bed
	.4byte	.LBI662
	.2byte	.LVU880
	.4byte	.Ldebug_ranges0+0x4d8
	.byte	0x1
	.2byte	0x3c1
	.byte	0x11
	.4byte	0x1636
	.uleb128 0x25
	.4byte	0x1c2a
	.4byte	.LLST143
	.4byte	.LVUS143
	.uleb128 0x25
	.4byte	0x1c1e
	.4byte	.LLST144
	.4byte	.LVUS144
	.uleb128 0x25
	.4byte	0x1c12
	.4byte	.LLST145
	.4byte	.LVUS145
	.uleb128 0x25
	.4byte	0x1c06
	.4byte	.LLST146
	.4byte	.LVUS146
	.uleb128 0x25
	.4byte	0x1bfb
	.4byte	.LLST147
	.4byte	.LVUS147
	.byte	0
	.uleb128 0x24
	.4byte	0x1ba8
	.4byte	.LBI667
	.2byte	.LVU888
	.4byte	.Ldebug_ranges0+0x500
	.byte	0x1
	.2byte	0x3c3
	.byte	0x26
	.4byte	0x1668
	.uleb128 0x25
	.4byte	0x1bc5
	.4byte	.LLST148
	.4byte	.LVUS148
	.uleb128 0x25
	.4byte	0x1bba
	.4byte	.LLST149
	.4byte	.LVUS149
	.byte	0
	.uleb128 0x24
	.4byte	0x1b7f
	.4byte	.LBI674
	.2byte	.LVU891
	.4byte	.Ldebug_ranges0+0x538
	.byte	0x1
	.2byte	0x3c3
	.byte	0x15
	.4byte	0x169a
	.uleb128 0x25
	.4byte	0x1b9c
	.4byte	.LLST150
	.4byte	.LVUS150
	.uleb128 0x25
	.4byte	0x1b91
	.4byte	.LLST151
	.4byte	.LVUS151
	.byte	0
	.uleb128 0x24
	.4byte	0x1b49
	.4byte	.LBI695
	.2byte	.LVU988
	.4byte	.Ldebug_ranges0+0x560
	.byte	0x1
	.2byte	0x3b0
	.byte	0x15
	.4byte	0x16df
	.uleb128 0x25
	.4byte	0x1b66
	.4byte	.LLST152
	.4byte	.LVUS152
	.uleb128 0x25
	.4byte	0x1b5b
	.4byte	.LLST153
	.4byte	.LVUS153
	.uleb128 0x1a
	.4byte	.Ldebug_ranges0+0x560
	.uleb128 0x29
	.4byte	0x1b73
	.4byte	.LLST154
	.4byte	.LVUS154
	.byte	0
	.byte	0
	.uleb128 0x24
	.4byte	0x1ba8
	.4byte	.LBI703
	.2byte	.LVU1010
	.4byte	.Ldebug_ranges0+0x598
	.byte	0x1
	.2byte	0x3b5
	.byte	0x15
	.4byte	0x1711
	.uleb128 0x25
	.4byte	0x1bc5
	.4byte	.LLST155
	.4byte	.LVUS155
	.uleb128 0x25
	.4byte	0x1bba
	.4byte	.LLST156
	.4byte	.LVUS156
	.byte	0
	.uleb128 0x24
	.4byte	0x1bed
	.4byte	.LBI713
	.2byte	.LVU999
	.4byte	.Ldebug_ranges0+0x5e0
	.byte	0x1
	.2byte	0x3b3
	.byte	0x11
	.4byte	0x176a
	.uleb128 0x25
	.4byte	0x1c2a
	.4byte	.LLST157
	.4byte	.LVUS157
	.uleb128 0x25
	.4byte	0x1c1e
	.4byte	.LLST158
	.4byte	.LVUS158
	.uleb128 0x25
	.4byte	0x1c12
	.4byte	.LLST159
	.4byte	.LVUS159
	.uleb128 0x25
	.4byte	0x1c06
	.4byte	.LLST160
	.4byte	.LVUS160
	.uleb128 0x25
	.4byte	0x1bfb
	.4byte	.LLST161
	.4byte	.LVUS161
	.byte	0
	.uleb128 0x26
	.4byte	.LVL80
	.4byte	0x3c6b
	.4byte	0x177e
	.uleb128 0x20
	.uleb128 0x1
	.byte	0x51
	.uleb128 0x2
	.byte	0x78
	.sleb128 0
	.byte	0
	.uleb128 0x26
	.4byte	.LVL81
	.4byte	0x3c6b
	.4byte	0x17ae
	.uleb128 0x20
	.uleb128 0x1
	.byte	0x51
	.uleb128 0x2
	.byte	0x77
	.sleb128 0
	.uleb128 0x20
	.uleb128 0x1
	.byte	0x52
	.uleb128 0x2
	.byte	0x79
	.sleb128 0
	.uleb128 0x20
	.uleb128 0x1
	.byte	0x53
	.uleb128 0x2
	.byte	0x7b
	.sleb128 0
	.uleb128 0x20
	.uleb128 0x2
	.byte	0x7d
	.sleb128 0
	.uleb128 0x4
	.byte	0x91
	.sleb128 -464
	.byte	0x6
	.uleb128 0x20
	.uleb128 0x2
	.byte	0x7d
	.sleb128 4
	.uleb128 0x2
	.byte	0x7a
	.sleb128 0
	.byte	0
	.uleb128 0x26
	.4byte	.LVL82
	.4byte	0x3c6b
	.4byte	0x17c2
	.uleb128 0x20
	.uleb128 0x1
	.byte	0x52
	.uleb128 0x2
	.byte	0x76
	.sleb128 0
	.byte	0
	.uleb128 0x26
	.4byte	.LVL87
	.4byte	0x3c6b
	.4byte	0x17ed
	.uleb128 0x20
	.uleb128 0x1
	.byte	0x51
	.uleb128 0x2
	.byte	0x79
	.sleb128 0
	.uleb128 0x20
	.uleb128 0x1
	.byte	0x52
	.uleb128 0x2
	.byte	0x76
	.sleb128 0
	.uleb128 0x20
	.uleb128 0x1
	.byte	0x53
	.uleb128 0x6
	.byte	0x91
	.sleb128 -464
	.byte	0x6
	.byte	0x4f
	.byte	0x1a
	.uleb128 0x20
	.uleb128 0x2
	.byte	0x7d
	.sleb128 0
	.uleb128 0x2
	.byte	0x77
	.sleb128 0
	.byte	0
	.uleb128 0x26
	.4byte	.LVL91
	.4byte	0x3c6b
	.4byte	0x1814
	.uleb128 0x20
	.uleb128 0x1
	.byte	0x51
	.uleb128 0x2
	.byte	0x79
	.sleb128 0
	.uleb128 0x20
	.uleb128 0x1
	.byte	0x52
	.uleb128 0x2
	.byte	0x7a
	.sleb128 0
	.uleb128 0x20
	.uleb128 0x1
	.byte	0x53
	.uleb128 0x2
	.byte	0x7b
	.sleb128 0
	.uleb128 0x20
	.uleb128 0x2
	.byte	0x7d
	.sleb128 0
	.uleb128 0x2
	.byte	0x77
	.sleb128 0
	.byte	0
	.uleb128 0x26
	.4byte	.LVL95
	.4byte	0x3c6b
	.4byte	0x1861
	.uleb128 0x20
	.uleb128 0x1
	.byte	0x51
	.uleb128 0x2
	.byte	0x79
	.sleb128 0
	.uleb128 0x20
	.uleb128 0x1
	.byte	0x52
	.uleb128 0xa
	.byte	0x79
	.sleb128 0
	.byte	0x32
	.byte	0x24
	.byte	0x91
	.sleb128 -480
	.byte	0x6
	.byte	0x22
	.byte	0x6
	.uleb128 0x20
	.uleb128 0x1
	.byte	0x53
	.uleb128 0x2
	.byte	0x7a
	.sleb128 0
	.uleb128 0x20
	.uleb128 0x2
	.byte	0x7d
	.sleb128 0
	.uleb128 0xa
	.byte	0x7a
	.sleb128 0
	.byte	0x32
	.byte	0x24
	.byte	0x91
	.sleb128 -476
	.byte	0x6
	.byte	0x22
	.byte	0x6
	.uleb128 0x20
	.uleb128 0x2
	.byte	0x7d
	.sleb128 4
	.uleb128 0x2
	.byte	0x7b
	.sleb128 0
	.uleb128 0x20
	.uleb128 0x2
	.byte	0x7d
	.sleb128 8
	.uleb128 0xa
	.byte	0x7b
	.sleb128 0
	.byte	0x32
	.byte	0x24
	.byte	0x91
	.sleb128 -472
	.byte	0x6
	.byte	0x22
	.byte	0x6
	.byte	0
	.uleb128 0x26
	.4byte	.LVL96
	.4byte	0x3c6b
	.4byte	0x1875
	.uleb128 0x20
	.uleb128 0x1
	.byte	0x51
	.uleb128 0x2
	.byte	0x77
	.sleb128 0
	.byte	0
	.uleb128 0x26
	.4byte	.LVL97
	.4byte	0x3c6b
	.4byte	0x1891
	.uleb128 0x20
	.uleb128 0x1
	.byte	0x50
	.uleb128 0x4
	.byte	0x91
	.sleb128 -460
	.byte	0x6
	.uleb128 0x20
	.uleb128 0x1
	.byte	0x51
	.uleb128 0x2
	.byte	0x78
	.sleb128 0
	.byte	0
	.uleb128 0x26
	.4byte	.LVL98
	.4byte	0x3c6b
	.4byte	0x18b3
	.uleb128 0x20
	.uleb128 0x1
	.byte	0x50
	.uleb128 0x4
	.byte	0x91
	.sleb128 -456
	.byte	0x6
	.uleb128 0x20
	.uleb128 0x1
	.byte	0x51
	.uleb128 0x2
	.byte	0x76
	.sleb128 0
	.uleb128 0x20
	.uleb128 0x1
	.byte	0x52
	.uleb128 0x2
	.byte	0x78
	.sleb128 0
	.byte	0
	.uleb128 0x26
	.4byte	.LVL99
	.4byte	0x3c6b
	.4byte	0x18e1
	.uleb128 0x20
	.uleb128 0x1
	.byte	0x51
	.uleb128 0x2
	.byte	0x76
	.sleb128 0
	.uleb128 0x20
	.uleb128 0x1
	.byte	0x52
	.uleb128 0x2
	.byte	0x78
	.sleb128 0
	.uleb128 0x20
	.uleb128 0x1
	.byte	0x53
	.uleb128 0x2
	.byte	0x79
	.sleb128 0
	.uleb128 0x20
	.uleb128 0x2
	.byte	0x7d
	.sleb128 0
	.uleb128 0x2
	.byte	0x77
	.sleb128 0
	.uleb128 0x20
	.uleb128 0x2
	.byte	0x7d
	.sleb128 4
	.uleb128 0x2
	.byte	0x7a
	.sleb128 0
	.byte	0
	.uleb128 0x26
	.4byte	.LVL110
	.4byte	0x3c6b
	.4byte	0x190c
	.uleb128 0x20
	.uleb128 0x1
	.byte	0x51
	.uleb128 0x2
	.byte	0x79
	.sleb128 0
	.uleb128 0x20
	.uleb128 0x1
	.byte	0x52
	.uleb128 0x2
	.byte	0x76
	.sleb128 0
	.uleb128 0x20
	.uleb128 0x1
	.byte	0x53
	.uleb128 0x6
	.byte	0x91
	.sleb128 -464
	.byte	0x6
	.byte	0x4f
	.byte	0x1a
	.uleb128 0x20
	.uleb128 0x2
	.byte	0x7d
	.sleb128 0
	.uleb128 0x2
	.byte	0x77
	.sleb128 0
	.byte	0
	.uleb128 0x26
	.4byte	.LVL114
	.4byte	0x3c6b
	.4byte	0x1933
	.uleb128 0x20
	.uleb128 0x1
	.byte	0x51
	.uleb128 0x2
	.byte	0x79
	.sleb128 0
	.uleb128 0x20
	.uleb128 0x1
	.byte	0x52
	.uleb128 0x2
	.byte	0x7a
	.sleb128 0
	.uleb128 0x20
	.uleb128 0x1
	.byte	0x53
	.uleb128 0x2
	.byte	0x7b
	.sleb128 0
	.uleb128 0x20
	.uleb128 0x2
	.byte	0x7d
	.sleb128 0
	.uleb128 0x2
	.byte	0x77
	.sleb128 0
	.byte	0
	.uleb128 0x26
	.4byte	.LVL117
	.4byte	0x3c6b
	.4byte	0x1980
	.uleb128 0x20
	.uleb128 0x1
	.byte	0x51
	.uleb128 0x2
	.byte	0x79
	.sleb128 0
	.uleb128 0x20
	.uleb128 0x1
	.byte	0x52
	.uleb128 0xa
	.byte	0x79
	.sleb128 0
	.byte	0x32
	.byte	0x24
	.byte	0x91
	.sleb128 -480
	.byte	0x6
	.byte	0x22
	.byte	0x6
	.uleb128 0x20
	.uleb128 0x1
	.byte	0x53
	.uleb128 0x2
	.byte	0x7a
	.sleb128 0
	.uleb128 0x20
	.uleb128 0x2
	.byte	0x7d
	.sleb128 0
	.uleb128 0xa
	.byte	0x7a
	.sleb128 0
	.byte	0x32
	.byte	0x24
	.byte	0x91
	.sleb128 -476
	.byte	0x6
	.byte	0x22
	.byte	0x6
	.uleb128 0x20
	.uleb128 0x2
	.byte	0x7d
	.sleb128 4
	.uleb128 0x2
	.byte	0x7b
	.sleb128 0
	.uleb128 0x20
	.uleb128 0x2
	.byte	0x7d
	.sleb128 8
	.uleb128 0xa
	.byte	0x7b
	.sleb128 0
	.byte	0x32
	.byte	0x24
	.byte	0x91
	.sleb128 -472
	.byte	0x6
	.byte	0x22
	.byte	0x6
	.byte	0
	.uleb128 0x26
	.4byte	.LVL118
	.4byte	0x3c6b
	.4byte	0x1994
	.uleb128 0x20
	.uleb128 0x1
	.byte	0x51
	.uleb128 0x2
	.byte	0x77
	.sleb128 0
	.byte	0
	.uleb128 0x26
	.4byte	.LVL121
	.4byte	0x3c6b
	.4byte	0x19b5
	.uleb128 0x20
	.uleb128 0x1
	.byte	0x51
	.uleb128 0x2
	.byte	0x79
	.sleb128 0
	.uleb128 0x20
	.uleb128 0x1
	.byte	0x52
	.uleb128 0x2
	.byte	0x76
	.sleb128 0
	.uleb128 0x20
	.uleb128 0x2
	.byte	0x7d
	.sleb128 0
	.uleb128 0x2
	.byte	0x77
	.sleb128 0
	.byte	0
	.uleb128 0x26
	.4byte	.LVL125
	.4byte	0x3c6b
	.4byte	0x19dc
	.uleb128 0x20
	.uleb128 0x1
	.byte	0x51
	.uleb128 0x2
	.byte	0x79
	.sleb128 0
	.uleb128 0x20
	.uleb128 0x1
	.byte	0x52
	.uleb128 0x2
	.byte	0x7a
	.sleb128 0
	.uleb128 0x20
	.uleb128 0x1
	.byte	0x53
	.uleb128 0x2
	.byte	0x7b
	.sleb128 0
	.uleb128 0x20
	.uleb128 0x2
	.byte	0x7d
	.sleb128 0
	.uleb128 0x2
	.byte	0x77
	.sleb128 0
	.byte	0
	.uleb128 0x26
	.4byte	.LVL129
	.4byte	0x3c6b
	.4byte	0x1a29
	.uleb128 0x20
	.uleb128 0x1
	.byte	0x51
	.uleb128 0x2
	.byte	0x79
	.sleb128 0
	.uleb128 0x20
	.uleb128 0x1
	.byte	0x52
	.uleb128 0xa
	.byte	0x79
	.sleb128 0
	.byte	0x32
	.byte	0x24
	.byte	0x91
	.sleb128 -480
	.byte	0x6
	.byte	0x22
	.byte	0x6
	.uleb128 0x20
	.uleb128 0x1
	.byte	0x53
	.uleb128 0x2
	.byte	0x7a
	.sleb128 0
	.uleb128 0x20
	.uleb128 0x2
	.byte	0x7d
	.sleb128 0
	.uleb128 0xa
	.byte	0x7a
	.sleb128 0
	.byte	0x32
	.byte	0x24
	.byte	0x91
	.sleb128 -476
	.byte	0x6
	.byte	0x22
	.byte	0x6
	.uleb128 0x20
	.uleb128 0x2
	.byte	0x7d
	.sleb128 4
	.uleb128 0x2
	.byte	0x7b
	.sleb128 0
	.uleb128 0x20
	.uleb128 0x2
	.byte	0x7d
	.sleb128 8
	.uleb128 0xa
	.byte	0x7b
	.sleb128 0
	.byte	0x32
	.byte	0x24
	.byte	0x91
	.sleb128 -472
	.byte	0x6
	.byte	0x22
	.byte	0x6
	.byte	0
	.uleb128 0x1f
	.4byte	.LVL130
	.4byte	0x3c6b
	.uleb128 0x20
	.uleb128 0x1
	.byte	0x51
	.uleb128 0x2
	.byte	0x77
	.sleb128 0
	.byte	0
	.byte	0
	.byte	0
	.uleb128 0x26
	.4byte	.LVL4
	.4byte	0x3c77
	.4byte	0x1a5b
	.uleb128 0x20
	.uleb128 0x1
	.byte	0x50
	.uleb128 0x3
	.byte	0x91
	.sleb128 -344
	.uleb128 0x20
	.uleb128 0x1
	.byte	0x51
	.uleb128 0x2
	.byte	0x74
	.sleb128 0
	.uleb128 0x20
	.uleb128 0x1
	.byte	0x52
	.uleb128 0x1
	.byte	0x40
	.byte	0
	.uleb128 0x26
	.4byte	.LVL6
	.4byte	0x3c83
	.4byte	0x1a7b
	.uleb128 0x20
	.uleb128 0x1
	.byte	0x50
	.uleb128 0x3
	.byte	0x91
	.sleb128 -176
	.uleb128 0x20
	.uleb128 0x1
	.byte	0x51
	.uleb128 0x1
	.byte	0x30
	.uleb128 0x20
	.uleb128 0x1
	.byte	0x52
	.uleb128 0x2
	.byte	0x8
	.byte	0x80
	.byte	0
	.uleb128 0x26
	.4byte	.LVL54
	.4byte	0x3c83
	.4byte	0x1a9b
	.uleb128 0x20
	.uleb128 0x1
	.byte	0x50
	.uleb128 0x3
	.byte	0x91
	.sleb128 -308
	.uleb128 0x20
	.uleb128 0x1
	.byte	0x51
	.uleb128 0x1
	.byte	0x30
	.uleb128 0x20
	.uleb128 0x1
	.byte	0x52
	.uleb128 0x2
	.byte	0x8
	.byte	0x40
	.byte	0
	.uleb128 0x26
	.4byte	.LVL55
	.4byte	0x3c83
	.4byte	0x1abb
	.uleb128 0x20
	.uleb128 0x1
	.byte	0x50
	.uleb128 0x3
	.byte	0x91
	.sleb128 -240
	.uleb128 0x20
	.uleb128 0x1
	.byte	0x51
	.uleb128 0x1
	.byte	0x30
	.uleb128 0x20
	.uleb128 0x1
	.byte	0x52
	.uleb128 0x2
	.byte	0x8
	.byte	0x40
	.byte	0
	.uleb128 0x28
	.4byte	.LVL148
	.4byte	0x3c6b
	.uleb128 0x26
	.4byte	.LVL149
	.4byte	0x3c6b
	.4byte	0x1ade
	.uleb128 0x20
	.uleb128 0x1
	.byte	0x51
	.uleb128 0x2
	.byte	0x75
	.sleb128 0
	.uleb128 0x20
	.uleb128 0x1
	.byte	0x52
	.uleb128 0x2
	.byte	0x74
	.sleb128 0
	.byte	0
	.uleb128 0x28
	.4byte	.LVL151
	.4byte	0x3c6b
	.uleb128 0x28
	.4byte	.LVL154
	.4byte	0x3c6b
	.uleb128 0x28
	.4byte	.LVL155
	.4byte	0x3c6b
	.uleb128 0x26
	.4byte	.LVL157
	.4byte	0x3c6b
	.4byte	0x1b17
	.uleb128 0x20
	.uleb128 0x1
	.byte	0x51
	.uleb128 0x4
	.byte	0x91
	.sleb128 -404
	.byte	0x6
	.uleb128 0x20
	.uleb128 0x1
	.byte	0x52
	.uleb128 0x4
	.byte	0x91
	.sleb128 -400
	.byte	0x6
	.byte	0
	.uleb128 0x1f
	.4byte	.LVL158
	.4byte	0x3c6b
	.uleb128 0x20
	.uleb128 0x1
	.byte	0x51
	.uleb128 0x3
	.byte	0x91
	.sleb128 -8
	.byte	0x6
	.byte	0
	.byte	0
	.uleb128 0x8
	.4byte	0x65
	.4byte	0x1b39
	.uleb128 0x9
	.4byte	0x8b
	.byte	0x1f
	.byte	0
	.uleb128 0x8
	.4byte	0x65
	.4byte	0x1b49
	.uleb128 0x9
	.4byte	0x8b
	.byte	0x10
	.byte	0
	.uleb128 0x2a
	.4byte	.LASF43
	.byte	0x1
	.2byte	0x2fa
	.byte	0x11
	.4byte	0x65
	.byte	0x1
	.4byte	0x1b7f
	.uleb128 0x2b
	.ascii	"x\000"
	.byte	0x1
	.2byte	0x2fa
	.byte	0x26
	.4byte	0x65
	.uleb128 0x2c
	.4byte	.LASF42
	.byte	0x1
	.2byte	0x2fa
	.byte	0x31
	.4byte	0x41
	.uleb128 0x2d
	.ascii	"s\000"
	.byte	0x1
	.2byte	0x2fc
	.byte	0xd
	.4byte	0x41
	.byte	0
	.uleb128 0x2a
	.4byte	.LASF44
	.byte	0x1
	.2byte	0x2f0
	.byte	0x11
	.4byte	0x65
	.byte	0x1
	.4byte	0x1ba8
	.uleb128 0x2b
	.ascii	"a\000"
	.byte	0x1
	.2byte	0x2f0
	.byte	0x2b
	.4byte	0x65
	.uleb128 0x2b
	.ascii	"b\000"
	.byte	0x1
	.2byte	0x2f0
	.byte	0x37
	.4byte	0x65
	.byte	0
	.uleb128 0x2a
	.4byte	.LASF45
	.byte	0x1
	.2byte	0x2ea
	.byte	0x11
	.4byte	0x65
	.byte	0x1
	.4byte	0x1bd1
	.uleb128 0x2b
	.ascii	"a\000"
	.byte	0x1
	.2byte	0x2ea
	.byte	0x26
	.4byte	0x65
	.uleb128 0x2b
	.ascii	"b\000"
	.byte	0x1
	.2byte	0x2ea
	.byte	0x32
	.4byte	0x65
	.byte	0
	.uleb128 0x2e
	.4byte	.LASF46
	.byte	0x1
	.2byte	0x2e5
	.byte	0xd
	.byte	0x1
	.4byte	0x1bed
	.uleb128 0x2c
	.4byte	.LASF31
	.byte	0x1
	.2byte	0x2e5
	.byte	0x25
	.4byte	0xe3
	.byte	0
	.uleb128 0x2e
	.4byte	.LASF47
	.byte	0x1
	.2byte	0x2d9
	.byte	0xd
	.byte	0x1
	.4byte	0x1c37
	.uleb128 0x2b
	.ascii	"I\000"
	.byte	0x1
	.2byte	0x2d9
	.byte	0x1d
	.4byte	0x65
	.uleb128 0x2b
	.ascii	"Ia\000"
	.byte	0x1
	.2byte	0x2d9
	.byte	0x29
	.4byte	0x397
	.uleb128 0x2b
	.ascii	"Ib\000"
	.byte	0x1
	.2byte	0x2d9
	.byte	0x36
	.4byte	0x397
	.uleb128 0x2b
	.ascii	"Ic\000"
	.byte	0x1
	.2byte	0x2d9
	.byte	0x43
	.4byte	0x397
	.uleb128 0x2b
	.ascii	"Id\000"
	.byte	0x1
	.2byte	0x2d9
	.byte	0x50
	.4byte	0x397
	.byte	0
	.uleb128 0x2f
	.ascii	"g\000"
	.byte	0x1
	.2byte	0x2d4
	.byte	0x10
	.4byte	0x41
	.byte	0x1
	.4byte	0x1c60
	.uleb128 0x2b
	.ascii	"key\000"
	.byte	0x1
	.2byte	0x2d4
	.byte	0x1c
	.4byte	0x452
	.uleb128 0x2b
	.ascii	"i\000"
	.byte	0x1
	.2byte	0x2d4
	.byte	0x29
	.4byte	0x41
	.byte	0
	.uleb128 0x30
	.4byte	.LASF74
	.byte	0x1
	.2byte	0x2c0
	.byte	0x6
	.4byte	.LFB24
	.4byte	.LFE24-.LFB24
	.uleb128 0x1
	.byte	0x9c
	.4byte	0x1c9c
	.uleb128 0x18
	.4byte	.LASF31
	.byte	0x1
	.2byte	0x2c0
	.byte	0x22
	.4byte	0xe3
	.4byte	.LLST244
	.4byte	.LVUS244
	.uleb128 0x1c
	.4byte	.LASF36
	.byte	0x1
	.2byte	0x2c0
	.byte	0x32
	.4byte	0x397
	.uleb128 0x1
	.byte	0x52
	.byte	0
	.uleb128 0x17
	.4byte	.LASF48
	.byte	0x1
	.2byte	0x246
	.byte	0x5
	.4byte	0x84
	.4byte	.LFB23
	.4byte	.LFE23-.LFB23
	.uleb128 0x1
	.byte	0x9c
	.4byte	0x230f
	.uleb128 0x1e
	.ascii	"c\000"
	.byte	0x1
	.2byte	0x246
	.byte	0x2f
	.4byte	0x233
	.4byte	.LLST291
	.4byte	.LVUS291
	.uleb128 0x18
	.4byte	.LASF49
	.byte	0x1
	.2byte	0x247
	.byte	0x2a
	.4byte	0x230f
	.4byte	.LLST292
	.4byte	.LVUS292
	.uleb128 0x18
	.4byte	.LASF50
	.byte	0x1
	.2byte	0x247
	.byte	0x39
	.4byte	0x92
	.4byte	.LLST293
	.4byte	.LVUS293
	.uleb128 0x18
	.4byte	.LASF51
	.byte	0x1
	.2byte	0x248
	.byte	0x30
	.4byte	0x2315
	.4byte	.LLST294
	.4byte	.LVUS294
	.uleb128 0x18
	.4byte	.LASF52
	.byte	0x1
	.2byte	0x248
	.byte	0x3e
	.4byte	0x92
	.4byte	.LLST295
	.4byte	.LVUS295
	.uleb128 0x1b
	.ascii	"ivp\000"
	.byte	0x1
	.2byte	0x255
	.byte	0x14
	.4byte	0x230f
	.4byte	.LLST296
	.4byte	.LVUS296
	.uleb128 0x31
	.4byte	.LASF53
	.byte	0x1
	.2byte	0x256
	.byte	0xc
	.4byte	0x92
	.byte	0x8
	.uleb128 0x31
	.4byte	.LASF54
	.byte	0x1
	.2byte	0x257
	.byte	0xc
	.4byte	0x92
	.byte	0x10
	.uleb128 0x31
	.4byte	.LASF55
	.byte	0x1
	.2byte	0x258
	.byte	0x12
	.4byte	0x8b
	.byte	0
	.uleb128 0x23
	.4byte	.Ldebug_ranges0+0x8d8
	.4byte	0x1d8a
	.uleb128 0x1b
	.ascii	"i\000"
	.byte	0x1
	.2byte	0x253
	.byte	0xe
	.4byte	0x84
	.4byte	.LLST297
	.4byte	.LVUS297
	.uleb128 0x1f
	.4byte	.LVL493
	.4byte	0x3c6b
	.uleb128 0x20
	.uleb128 0x1
	.byte	0x50
	.uleb128 0x2
	.byte	0x77
	.sleb128 0
	.byte	0
	.byte	0
	.uleb128 0x23
	.4byte	.Ldebug_ranges0+0x940
	.4byte	0x1e48
	.uleb128 0x15
	.4byte	.LASF56
	.byte	0x1
	.2byte	0x278
	.byte	0x16
	.4byte	0xe3
	.uleb128 0x2
	.byte	0x91
	.sleb128 -48
	.uleb128 0x24
	.4byte	0x1bd1
	.4byte	.LBI893
	.2byte	.LVU2250
	.4byte	.Ldebug_ranges0+0x960
	.byte	0x1
	.2byte	0x27b
	.byte	0x9
	.4byte	0x1dd8
	.uleb128 0x25
	.4byte	0x1bdf
	.4byte	.LLST301
	.4byte	.LVUS301
	.uleb128 0x1f
	.4byte	.LVL502
	.4byte	0x3c6b
	.uleb128 0x20
	.uleb128 0x1
	.byte	0x50
	.uleb128 0x2
	.byte	0x7a
	.sleb128 0
	.byte	0
	.byte	0
	.uleb128 0x26
	.4byte	.LVL499
	.4byte	0x338
	.4byte	0x1df2
	.uleb128 0x20
	.uleb128 0x1
	.byte	0x50
	.uleb128 0x2
	.byte	0x74
	.sleb128 0
	.uleb128 0x20
	.uleb128 0x1
	.byte	0x51
	.uleb128 0x2
	.byte	0x75
	.sleb128 0
	.byte	0
	.uleb128 0x26
	.4byte	.LVL500
	.4byte	0x458
	.4byte	0x1e12
	.uleb128 0x20
	.uleb128 0x1
	.byte	0x50
	.uleb128 0x2
	.byte	0x77
	.sleb128 0
	.uleb128 0x20
	.uleb128 0x1
	.byte	0x51
	.uleb128 0x2
	.byte	0x7b
	.sleb128 0
	.uleb128 0x20
	.uleb128 0x2
	.byte	0x7d
	.sleb128 0
	.uleb128 0x1
	.byte	0x30
	.byte	0
	.uleb128 0x26
	.4byte	.LVL501
	.4byte	0x1c60
	.4byte	0x1e26
	.uleb128 0x20
	.uleb128 0x1
	.byte	0x52
	.uleb128 0x2
	.byte	0x75
	.sleb128 0
	.byte	0
	.uleb128 0x1f
	.4byte	.LVL505
	.4byte	0x3827
	.uleb128 0x20
	.uleb128 0x1
	.byte	0x50
	.uleb128 0x2
	.byte	0x78
	.sleb128 -8
	.uleb128 0x20
	.uleb128 0x1
	.byte	0x51
	.uleb128 0x2
	.byte	0x75
	.sleb128 0
	.uleb128 0x20
	.uleb128 0x1
	.byte	0x52
	.uleb128 0x2
	.byte	0x76
	.sleb128 -8
	.uleb128 0x20
	.uleb128 0x1
	.byte	0x53
	.uleb128 0x1
	.byte	0x38
	.byte	0
	.byte	0
	.uleb128 0x23
	.4byte	.Ldebug_ranges0+0x8f8
	.4byte	0x1fa1
	.uleb128 0x19
	.4byte	.LASF56
	.byte	0x1
	.2byte	0x289
	.byte	0x16
	.4byte	0xe3
	.4byte	.LLST298
	.4byte	.LVUS298
	.uleb128 0x24
	.4byte	0x1bd1
	.4byte	.LBI884
	.2byte	.LVU2284
	.4byte	.Ldebug_ranges0+0x920
	.byte	0x1
	.2byte	0x28a
	.byte	0x11
	.4byte	0x1ea9
	.uleb128 0x25
	.4byte	0x1bdf
	.4byte	.LLST299
	.4byte	.LVUS299
	.uleb128 0x1f
	.4byte	.LVL514
	.4byte	0x3c6b
	.uleb128 0x20
	.uleb128 0x1
	.byte	0x50
	.uleb128 0x2
	.byte	0x76
	.sleb128 0
	.uleb128 0x20
	.uleb128 0x1
	.byte	0x51
	.uleb128 0x3
	.byte	0x91
	.sleb128 -64
	.byte	0x6
	.uleb128 0x20
	.uleb128 0x1
	.byte	0x52
	.uleb128 0x3
	.byte	0x91
	.sleb128 -60
	.byte	0x6
	.byte	0
	.byte	0
	.uleb128 0x27
	.4byte	0x1bd1
	.4byte	.LBI890
	.2byte	.LVU2296
	.4byte	.LBB890
	.4byte	.LBE890-.LBB890
	.byte	0x1
	.2byte	0x28e
	.byte	0x9
	.4byte	0x1eee
	.uleb128 0x25
	.4byte	0x1bdf
	.4byte	.LLST300
	.4byte	.LVUS300
	.uleb128 0x1f
	.4byte	.LVL519
	.4byte	0x3c6b
	.uleb128 0x20
	.uleb128 0x1
	.byte	0x50
	.uleb128 0x2
	.byte	0x76
	.sleb128 0
	.uleb128 0x20
	.uleb128 0x1
	.byte	0x51
	.uleb128 0x2
	.byte	0x77
	.sleb128 0
	.uleb128 0x20
	.uleb128 0x1
	.byte	0x52
	.uleb128 0x2
	.byte	0x78
	.sleb128 0
	.byte	0
	.byte	0
	.uleb128 0x26
	.4byte	.LVL511
	.4byte	0x3c6b
	.4byte	0x1f0a
	.uleb128 0x20
	.uleb128 0x1
	.byte	0x51
	.uleb128 0x2
	.byte	0x79
	.sleb128 8
	.uleb128 0x20
	.uleb128 0x1
	.byte	0x52
	.uleb128 0x4
	.byte	0x91
	.sleb128 -84
	.byte	0x6
	.byte	0
	.uleb128 0x26
	.4byte	.LVL512
	.4byte	0x369d
	.4byte	0x1f29
	.uleb128 0x20
	.uleb128 0x1
	.byte	0x50
	.uleb128 0x2
	.byte	0x75
	.sleb128 16
	.uleb128 0x20
	.uleb128 0x1
	.byte	0x51
	.uleb128 0x2
	.byte	0x75
	.sleb128 0
	.uleb128 0x20
	.uleb128 0x1
	.byte	0x52
	.uleb128 0x1
	.byte	0x38
	.byte	0
	.uleb128 0x26
	.4byte	.LVL513
	.4byte	0x338
	.4byte	0x1f43
	.uleb128 0x20
	.uleb128 0x1
	.byte	0x50
	.uleb128 0x2
	.byte	0x91
	.sleb128 -64
	.uleb128 0x20
	.uleb128 0x1
	.byte	0x51
	.uleb128 0x2
	.byte	0x75
	.sleb128 0
	.byte	0
	.uleb128 0x26
	.4byte	.LVL515
	.4byte	0x458
	.4byte	0x1f63
	.uleb128 0x20
	.uleb128 0x1
	.byte	0x50
	.uleb128 0x2
	.byte	0x77
	.sleb128 0
	.uleb128 0x20
	.uleb128 0x1
	.byte	0x51
	.uleb128 0x2
	.byte	0x7b
	.sleb128 0
	.uleb128 0x20
	.uleb128 0x2
	.byte	0x7d
	.sleb128 0
	.uleb128 0x1
	.byte	0x30
	.byte	0
	.uleb128 0x26
	.4byte	.LVL518
	.4byte	0x1c60
	.4byte	0x1f77
	.uleb128 0x20
	.uleb128 0x1
	.byte	0x52
	.uleb128 0x2
	.byte	0x75
	.sleb128 0
	.byte	0
	.uleb128 0x1f
	.4byte	.LVL520
	.4byte	0x3827
	.uleb128 0x20
	.uleb128 0x1
	.byte	0x50
	.uleb128 0x6
	.byte	0x91
	.sleb128 -92
	.byte	0x6
	.byte	0x38
	.byte	0x1c
	.uleb128 0x20
	.uleb128 0x1
	.byte	0x51
	.uleb128 0x2
	.byte	0x75
	.sleb128 0
	.uleb128 0x20
	.uleb128 0x1
	.byte	0x52
	.uleb128 0x6
	.byte	0x91
	.sleb128 -88
	.byte	0x6
	.byte	0x38
	.byte	0x1c
	.uleb128 0x20
	.uleb128 0x1
	.byte	0x53
	.uleb128 0x1
	.byte	0x38
	.byte	0
	.byte	0
	.uleb128 0x32
	.4byte	.LBB909
	.4byte	.LBE909-.LBB909
	.4byte	0x2142
	.uleb128 0x19
	.4byte	.LASF56
	.byte	0x1
	.2byte	0x29d
	.byte	0x16
	.4byte	0xe3
	.4byte	.LLST311
	.4byte	.LVUS311
	.uleb128 0x24
	.4byte	0x1bd1
	.4byte	.LBI910
	.2byte	.LVU2368
	.4byte	.Ldebug_ranges0+0x998
	.byte	0x1
	.2byte	0x29e
	.byte	0x11
	.4byte	0x1ff8
	.uleb128 0x25
	.4byte	0x1bdf
	.4byte	.LLST312
	.4byte	.LVUS312
	.uleb128 0x1f
	.4byte	.LVL539
	.4byte	0x3c6b
	.uleb128 0x20
	.uleb128 0x1
	.byte	0x50
	.uleb128 0x2
	.byte	0x76
	.sleb128 0
	.byte	0
	.byte	0
	.uleb128 0x27
	.4byte	0x1bd1
	.4byte	.LBI916
	.2byte	.LVU2380
	.4byte	.LBB916
	.4byte	.LBE916-.LBB916
	.byte	0x1
	.2byte	0x2a2
	.byte	0x9
	.4byte	0x203d
	.uleb128 0x25
	.4byte	0x1bdf
	.4byte	.LLST313
	.4byte	.LVUS313
	.uleb128 0x1f
	.4byte	.LVL544
	.4byte	0x3c6b
	.uleb128 0x20
	.uleb128 0x1
	.byte	0x50
	.uleb128 0x2
	.byte	0x76
	.sleb128 0
	.uleb128 0x20
	.uleb128 0x1
	.byte	0x51
	.uleb128 0x2
	.byte	0x77
	.sleb128 0
	.uleb128 0x20
	.uleb128 0x1
	.byte	0x52
	.uleb128 0x2
	.byte	0x7a
	.sleb128 0
	.byte	0
	.byte	0
	.uleb128 0x27
	.4byte	0x1bd1
	.4byte	.LBI918
	.2byte	.LVU2396
	.4byte	.LBB918
	.4byte	.LBE918-.LBB918
	.byte	0x1
	.2byte	0x2ba
	.byte	0x9
	.4byte	0x2076
	.uleb128 0x25
	.4byte	0x1bdf
	.4byte	.LLST314
	.4byte	.LVUS314
	.uleb128 0x1f
	.4byte	.LVL547
	.4byte	0x3c6b
	.uleb128 0x20
	.uleb128 0x1
	.byte	0x50
	.uleb128 0x2
	.byte	0x76
	.sleb128 0
	.byte	0
	.byte	0
	.uleb128 0x26
	.4byte	.LVL536
	.4byte	0x3c6b
	.4byte	0x2092
	.uleb128 0x20
	.uleb128 0x1
	.byte	0x51
	.uleb128 0x2
	.byte	0x79
	.sleb128 0
	.uleb128 0x20
	.uleb128 0x1
	.byte	0x52
	.uleb128 0x4
	.byte	0x91
	.sleb128 -84
	.byte	0x6
	.byte	0
	.uleb128 0x26
	.4byte	.LVL537
	.4byte	0x369d
	.4byte	0x20b1
	.uleb128 0x20
	.uleb128 0x1
	.byte	0x50
	.uleb128 0x2
	.byte	0x75
	.sleb128 16
	.uleb128 0x20
	.uleb128 0x1
	.byte	0x51
	.uleb128 0x2
	.byte	0x75
	.sleb128 0
	.uleb128 0x20
	.uleb128 0x1
	.byte	0x52
	.uleb128 0x1
	.byte	0x38
	.byte	0
	.uleb128 0x26
	.4byte	.LVL538
	.4byte	0x338
	.4byte	0x20cb
	.uleb128 0x20
	.uleb128 0x1
	.byte	0x50
	.uleb128 0x2
	.byte	0x91
	.sleb128 -56
	.uleb128 0x20
	.uleb128 0x1
	.byte	0x51
	.uleb128 0x2
	.byte	0x75
	.sleb128 0
	.byte	0
	.uleb128 0x26
	.4byte	.LVL540
	.4byte	0x458
	.4byte	0x20ed
	.uleb128 0x20
	.uleb128 0x1
	.byte	0x50
	.uleb128 0x3
	.byte	0x91
	.sleb128 -72
	.uleb128 0x20
	.uleb128 0x1
	.byte	0x51
	.uleb128 0x2
	.byte	0x75
	.sleb128 48
	.uleb128 0x20
	.uleb128 0x2
	.byte	0x7d
	.sleb128 0
	.uleb128 0x2
	.byte	0x78
	.sleb128 0
	.byte	0
	.uleb128 0x26
	.4byte	.LVL543
	.4byte	0x1c60
	.4byte	0x2101
	.uleb128 0x20
	.uleb128 0x1
	.byte	0x52
	.uleb128 0x2
	.byte	0x75
	.sleb128 0
	.byte	0
	.uleb128 0x26
	.4byte	.LVL545
	.4byte	0x36f1
	.4byte	0x212b
	.uleb128 0x20
	.uleb128 0x1
	.byte	0x50
	.uleb128 0x4
	.byte	0x91
	.sleb128 -92
	.byte	0x6
	.uleb128 0x20
	.uleb128 0x1
	.byte	0x51
	.uleb128 0x2
	.byte	0x75
	.sleb128 0
	.uleb128 0x20
	.uleb128 0x1
	.byte	0x52
	.uleb128 0x4
	.byte	0x91
	.sleb128 -88
	.byte	0x6
	.uleb128 0x20
	.uleb128 0x1
	.byte	0x53
	.uleb128 0x2
	.byte	0x79
	.sleb128 0
	.byte	0
	.uleb128 0x1f
	.4byte	.LVL546
	.4byte	0x338
	.uleb128 0x20
	.uleb128 0x1
	.byte	0x50
	.uleb128 0x2
	.byte	0x91
	.sleb128 -56
	.uleb128 0x20
	.uleb128 0x1
	.byte	0x51
	.uleb128 0x2
	.byte	0x75
	.sleb128 0
	.byte	0
	.byte	0
	.uleb128 0x27
	.4byte	0x37ab
	.4byte	.LBI904
	.2byte	.LVU2323
	.4byte	.LBB904
	.4byte	.LBE904-.LBB904
	.byte	0x1
	.2byte	0x26e
	.byte	0x9
	.4byte	0x21eb
	.uleb128 0x25
	.4byte	0x37dc
	.4byte	.LLST302
	.4byte	.LVUS302
	.uleb128 0x25
	.4byte	0x37d0
	.4byte	.LLST303
	.4byte	.LVUS303
	.uleb128 0x25
	.4byte	0x37c4
	.4byte	.LLST304
	.4byte	.LVUS304
	.uleb128 0x25
	.4byte	0x37b8
	.4byte	.LLST305
	.4byte	.LVUS305
	.uleb128 0x29
	.4byte	0x37e8
	.4byte	.LLST306
	.4byte	.LVUS306
	.uleb128 0x29
	.4byte	0x37f4
	.4byte	.LLST307
	.4byte	.LVUS307
	.uleb128 0x29
	.4byte	0x3800
	.4byte	.LLST308
	.4byte	.LVUS308
	.uleb128 0x33
	.4byte	0x380c
	.4byte	.LBB906
	.4byte	.LBE906-.LBB906
	.uleb128 0x29
	.4byte	0x380d
	.4byte	.LLST309
	.4byte	.LVUS309
	.uleb128 0x34
	.4byte	0x3817
	.4byte	.Ldebug_ranges0+0x980
	.uleb128 0x29
	.4byte	0x3818
	.4byte	.LLST310
	.4byte	.LVUS310
	.byte	0
	.byte	0
	.byte	0
	.uleb128 0x27
	.4byte	0x37ab
	.4byte	.LBI920
	.2byte	.LVU2405
	.4byte	.LBB920
	.4byte	.LBE920-.LBB920
	.byte	0x1
	.2byte	0x262
	.byte	0x9
	.4byte	0x2294
	.uleb128 0x25
	.4byte	0x37dc
	.4byte	.LLST315
	.4byte	.LVUS315
	.uleb128 0x25
	.4byte	0x37d0
	.4byte	.LLST316
	.4byte	.LVUS316
	.uleb128 0x25
	.4byte	0x37c4
	.4byte	.LLST317
	.4byte	.LVUS317
	.uleb128 0x25
	.4byte	0x37b8
	.4byte	.LLST318
	.4byte	.LVUS318
	.uleb128 0x29
	.4byte	0x37e8
	.4byte	.LLST319
	.4byte	.LVUS319
	.uleb128 0x29
	.4byte	0x37f4
	.4byte	.LLST320
	.4byte	.LVUS320
	.uleb128 0x29
	.4byte	0x3800
	.4byte	.LLST321
	.4byte	.LVUS321
	.uleb128 0x33
	.4byte	0x380c
	.4byte	.LBB922
	.4byte	.LBE922-.LBB922
	.uleb128 0x29
	.4byte	0x380d
	.4byte	.LLST322
	.4byte	.LVUS322
	.uleb128 0x34
	.4byte	0x3817
	.4byte	.Ldebug_ranges0+0x9b8
	.uleb128 0x29
	.4byte	0x3818
	.4byte	.LLST323
	.4byte	.LVUS323
	.byte	0
	.byte	0
	.byte	0
	.uleb128 0x26
	.4byte	.LVL492
	.4byte	0x3c6b
	.4byte	0x22b0
	.uleb128 0x20
	.uleb128 0x1
	.byte	0x51
	.uleb128 0x2
	.byte	0x79
	.sleb128 0
	.uleb128 0x20
	.uleb128 0x1
	.byte	0x52
	.uleb128 0x4
	.byte	0x91
	.sleb128 -84
	.byte	0x6
	.byte	0
	.uleb128 0x28
	.4byte	.LVL494
	.4byte	0x3c6b
	.uleb128 0x26
	.4byte	.LVL496
	.4byte	0x3c6b
	.4byte	0x22da
	.uleb128 0x20
	.uleb128 0x1
	.byte	0x51
	.uleb128 0x2
	.byte	0x79
	.sleb128 0
	.uleb128 0x20
	.uleb128 0x1
	.byte	0x52
	.uleb128 0x4
	.byte	0x91
	.sleb128 -84
	.byte	0x6
	.uleb128 0x20
	.uleb128 0x1
	.byte	0x53
	.uleb128 0x1
	.byte	0x30
	.byte	0
	.uleb128 0x26
	.4byte	.LVL523
	.4byte	0x3c6b
	.4byte	0x22f6
	.uleb128 0x20
	.uleb128 0x1
	.byte	0x51
	.uleb128 0x2
	.byte	0x79
	.sleb128 0
	.uleb128 0x20
	.uleb128 0x1
	.byte	0x52
	.uleb128 0x4
	.byte	0x91
	.sleb128 -84
	.byte	0x6
	.byte	0
	.uleb128 0x1f
	.4byte	.LVL549
	.4byte	0x3c6b
	.uleb128 0x20
	.uleb128 0x1
	.byte	0x51
	.uleb128 0x2
	.byte	0x79
	.sleb128 0
	.uleb128 0x20
	.uleb128 0x1
	.byte	0x52
	.uleb128 0x4
	.byte	0x91
	.sleb128 -84
	.byte	0x6
	.byte	0
	.byte	0
	.uleb128 0x10
	.byte	0x4
	.4byte	0x52
	.uleb128 0x10
	.byte	0x4
	.4byte	0x59
	.uleb128 0x17
	.4byte	.LASF57
	.byte	0x1
	.2byte	0x1c4
	.byte	0x8
	.4byte	0x92
	.4byte	.LFB22
	.4byte	.LFE22-.LFB22
	.uleb128 0x1
	.byte	0x9c
	.4byte	0x2bb9
	.uleb128 0x1e
	.ascii	"c\000"
	.byte	0x1
	.2byte	0x1c4
	.byte	0x32
	.4byte	0x233
	.4byte	.LLST251
	.4byte	.LVUS251
	.uleb128 0x18
	.4byte	.LASF49
	.byte	0x1
	.2byte	0x1c5
	.byte	0x2a
	.4byte	0x230f
	.4byte	.LLST252
	.4byte	.LVUS252
	.uleb128 0x18
	.4byte	.LASF50
	.byte	0x1
	.2byte	0x1c5
	.byte	0x39
	.4byte	0x92
	.4byte	.LLST253
	.4byte	.LVUS253
	.uleb128 0x18
	.4byte	.LASF51
	.byte	0x1
	.2byte	0x1c6
	.byte	0x30
	.4byte	0x2315
	.4byte	.LLST254
	.4byte	.LVUS254
	.uleb128 0x18
	.4byte	.LASF52
	.byte	0x1
	.2byte	0x1c6
	.byte	0x3e
	.4byte	0x92
	.4byte	.LLST255
	.4byte	.LVUS255
	.uleb128 0x1b
	.ascii	"ivp\000"
	.byte	0x1
	.2byte	0x1d6
	.byte	0x14
	.4byte	0x230f
	.4byte	.LLST256
	.4byte	.LVUS256
	.uleb128 0x31
	.4byte	.LASF58
	.byte	0x1
	.2byte	0x1d7
	.byte	0xc
	.4byte	0x92
	.byte	0x3
	.uleb128 0x31
	.4byte	.LASF53
	.byte	0x1
	.2byte	0x1d8
	.byte	0xc
	.4byte	0x92
	.byte	0x8
	.uleb128 0x31
	.4byte	.LASF54
	.byte	0x1
	.2byte	0x1d9
	.byte	0xc
	.4byte	0x92
	.byte	0x10
	.uleb128 0x19
	.4byte	.LASF55
	.byte	0x1
	.2byte	0x1da
	.byte	0x12
	.4byte	0x8b
	.4byte	.LLST257
	.4byte	.LVUS257
	.uleb128 0x35
	.4byte	.LASF59
	.byte	0x1
	.2byte	0x1da
	.byte	0x18
	.4byte	0x8b
	.uleb128 0x23
	.4byte	.Ldebug_ranges0+0x6f0
	.4byte	0x242b
	.uleb128 0x1b
	.ascii	"i\000"
	.byte	0x1
	.2byte	0x1d3
	.byte	0xe
	.4byte	0x84
	.4byte	.LLST258
	.4byte	.LVUS258
	.uleb128 0x1f
	.4byte	.LVL382
	.4byte	0x3c6b
	.uleb128 0x20
	.uleb128 0x1
	.byte	0x50
	.uleb128 0x2
	.byte	0x76
	.sleb128 0
	.byte	0
	.byte	0
	.uleb128 0x23
	.4byte	.Ldebug_ranges0+0x768
	.4byte	0x27f3
	.uleb128 0x19
	.4byte	.LASF60
	.byte	0x1
	.2byte	0x1fa
	.byte	0x10
	.4byte	0x92
	.4byte	.LLST266
	.4byte	.LVUS266
	.uleb128 0x24
	.4byte	0x2bd7
	.4byte	.LBI834
	.2byte	.LVU1996
	.4byte	.Ldebug_ranges0+0x798
	.byte	0x1
	.2byte	0x1fb
	.byte	0x9
	.4byte	0x27d4
	.uleb128 0x25
	.4byte	0x2c18
	.4byte	.LLST267
	.4byte	.LVUS267
	.uleb128 0x36
	.4byte	0x2c0b
	.uleb128 0x25
	.4byte	0x2bfe
	.4byte	.LLST268
	.4byte	.LVUS268
	.uleb128 0x25
	.4byte	0x2bf2
	.4byte	.LLST269
	.4byte	.LVUS269
	.uleb128 0x25
	.4byte	0x2be5
	.4byte	.LLST270
	.4byte	.LVUS270
	.uleb128 0x1a
	.4byte	.Ldebug_ranges0+0x798
	.uleb128 0x29
	.4byte	0x2c25
	.4byte	.LLST271
	.4byte	.LVUS271
	.uleb128 0x29
	.4byte	0x2c32
	.4byte	.LLST272
	.4byte	.LVUS272
	.uleb128 0x37
	.4byte	0x2c3f
	.uleb128 0x2
	.byte	0x91
	.sleb128 -64
	.uleb128 0x37
	.4byte	0x2c4c
	.uleb128 0x3
	.byte	0x91
	.sleb128 -72
	.uleb128 0x38
	.4byte	0x2c59
	.uleb128 0x29
	.4byte	0x2c66
	.4byte	.LLST273
	.4byte	.LVUS273
	.uleb128 0x24
	.4byte	0x2cdd
	.4byte	.LBI836
	.2byte	.LVU2006
	.4byte	.Ldebug_ranges0+0x7e0
	.byte	0x1
	.2byte	0x163
	.byte	0x5
	.4byte	0x256a
	.uleb128 0x25
	.4byte	0x2ceb
	.4byte	.LLST274
	.4byte	.LVUS274
	.uleb128 0x25
	.4byte	0x2d05
	.4byte	.LLST275
	.4byte	.LVUS275
	.uleb128 0x25
	.4byte	0x2cf8
	.4byte	.LLST276
	.4byte	.LVUS276
	.uleb128 0x1a
	.4byte	.Ldebug_ranges0+0x7e0
	.uleb128 0x29
	.4byte	0x2d12
	.4byte	.LLST277
	.4byte	.LVUS277
	.uleb128 0x39
	.4byte	0x2d1f
	.4byte	.Ldebug_ranges0+0x800
	.4byte	0x2556
	.uleb128 0x29
	.4byte	0x2d20
	.4byte	.LLST278
	.4byte	.LVUS278
	.uleb128 0x1f
	.4byte	.LVL419
	.4byte	0x3c6b
	.uleb128 0x20
	.uleb128 0x1
	.byte	0x50
	.uleb128 0x2
	.byte	0x76
	.sleb128 0
	.byte	0
	.byte	0
	.uleb128 0x28
	.4byte	.LVL418
	.4byte	0x3c6b
	.uleb128 0x28
	.4byte	.LVL420
	.4byte	0x3c6b
	.byte	0
	.byte	0
	.uleb128 0x24
	.4byte	0x2ca7
	.4byte	.LBI845
	.2byte	.LVU2052
	.4byte	.Ldebug_ranges0+0x820
	.byte	0x1
	.2byte	0x195
	.byte	0x9
	.4byte	0x25c3
	.uleb128 0x25
	.4byte	0x2cc2
	.4byte	.LLST279
	.4byte	.LVUS279
	.uleb128 0x25
	.4byte	0x2cb5
	.4byte	.LLST280
	.4byte	.LVUS280
	.uleb128 0x34
	.4byte	0x2ccf
	.4byte	.Ldebug_ranges0+0x848
	.uleb128 0x29
	.4byte	0x2cd0
	.4byte	.LLST281
	.4byte	.LVUS281
	.uleb128 0x1f
	.4byte	.LVL433
	.4byte	0x3c6b
	.uleb128 0x20
	.uleb128 0x1
	.byte	0x50
	.uleb128 0x2
	.byte	0x77
	.sleb128 0
	.byte	0
	.byte	0
	.byte	0
	.uleb128 0x39
	.4byte	0x2c73
	.4byte	.Ldebug_ranges0+0x868
	.4byte	0x263c
	.uleb128 0x29
	.4byte	0x2c74
	.4byte	.LLST282
	.4byte	.LVUS282
	.uleb128 0x34
	.4byte	0x2c7f
	.4byte	.Ldebug_ranges0+0x880
	.uleb128 0x37
	.4byte	0x2c80
	.uleb128 0x3
	.byte	0x91
	.sleb128 -72
	.uleb128 0x26
	.4byte	.LVL428
	.4byte	0x338
	.4byte	0x2609
	.uleb128 0x20
	.uleb128 0x1
	.byte	0x50
	.uleb128 0x2
	.byte	0x74
	.sleb128 0
	.uleb128 0x20
	.uleb128 0x1
	.byte	0x51
	.uleb128 0x2
	.byte	0x75
	.sleb128 0
	.byte	0
	.uleb128 0x26
	.4byte	.LVL429
	.4byte	0x458
	.4byte	0x262a
	.uleb128 0x20
	.uleb128 0x1
	.byte	0x50
	.uleb128 0x2
	.byte	0x79
	.sleb128 0
	.uleb128 0x20
	.uleb128 0x1
	.byte	0x51
	.uleb128 0x2
	.byte	0x7b
	.sleb128 0
	.uleb128 0x20
	.uleb128 0x2
	.byte	0x7d
	.sleb128 0
	.uleb128 0x2
	.byte	0x78
	.sleb128 0
	.byte	0
	.uleb128 0x1f
	.4byte	.LVL430
	.4byte	0x1c60
	.uleb128 0x20
	.uleb128 0x1
	.byte	0x52
	.uleb128 0x2
	.byte	0x75
	.sleb128 -8
	.byte	0
	.byte	0
	.byte	0
	.uleb128 0x24
	.4byte	0x2ca7
	.4byte	.LBI857
	.2byte	.LVU2089
	.4byte	.Ldebug_ranges0+0x8a0
	.byte	0x1
	.2byte	0x1ac
	.byte	0x15
	.4byte	0x2695
	.uleb128 0x25
	.4byte	0x2cc2
	.4byte	.LLST283
	.4byte	.LVUS283
	.uleb128 0x25
	.4byte	0x2cb5
	.4byte	.LLST284
	.4byte	.LVUS284
	.uleb128 0x34
	.4byte	0x2ccf
	.4byte	.Ldebug_ranges0+0x8c0
	.uleb128 0x29
	.4byte	0x2cd0
	.4byte	.LLST285
	.4byte	.LVUS285
	.uleb128 0x1f
	.4byte	.LVL447
	.4byte	0x3c6b
	.uleb128 0x20
	.uleb128 0x1
	.byte	0x50
	.uleb128 0x2
	.byte	0x77
	.sleb128 0
	.byte	0
	.byte	0
	.byte	0
	.uleb128 0x28
	.4byte	.LVL416
	.4byte	0x3c6b
	.uleb128 0x26
	.4byte	.LVL417
	.4byte	0x3c6b
	.4byte	0x26b2
	.uleb128 0x20
	.uleb128 0x1
	.byte	0x51
	.uleb128 0x2
	.byte	0x77
	.sleb128 0
	.byte	0
	.uleb128 0x26
	.4byte	.LVL423
	.4byte	0x369d
	.4byte	0x26d1
	.uleb128 0x20
	.uleb128 0x1
	.byte	0x50
	.uleb128 0x2
	.byte	0x75
	.sleb128 0
	.uleb128 0x20
	.uleb128 0x1
	.byte	0x51
	.uleb128 0x2
	.byte	0x78
	.sleb128 0
	.uleb128 0x20
	.uleb128 0x1
	.byte	0x52
	.uleb128 0x1
	.byte	0x38
	.byte	0
	.uleb128 0x26
	.4byte	.LVL424
	.4byte	0x369d
	.4byte	0x26f2
	.uleb128 0x20
	.uleb128 0x1
	.byte	0x50
	.uleb128 0x4
	.byte	0x91
	.sleb128 -92
	.byte	0x6
	.uleb128 0x20
	.uleb128 0x1
	.byte	0x51
	.uleb128 0x2
	.byte	0x7a
	.sleb128 0
	.uleb128 0x20
	.uleb128 0x1
	.byte	0x52
	.uleb128 0x1
	.byte	0x40
	.byte	0
	.uleb128 0x26
	.4byte	.LVL426
	.4byte	0x369d
	.4byte	0x2713
	.uleb128 0x20
	.uleb128 0x1
	.byte	0x50
	.uleb128 0x4
	.byte	0x91
	.sleb128 -104
	.byte	0x6
	.uleb128 0x20
	.uleb128 0x1
	.byte	0x51
	.uleb128 0x2
	.byte	0x7a
	.sleb128 16
	.uleb128 0x20
	.uleb128 0x1
	.byte	0x52
	.uleb128 0x1
	.byte	0x38
	.byte	0
	.uleb128 0x26
	.4byte	.LVL431
	.4byte	0x302e
	.4byte	0x2743
	.uleb128 0x20
	.uleb128 0x1
	.byte	0x50
	.uleb128 0x4
	.byte	0x91
	.sleb128 -112
	.byte	0x6
	.uleb128 0x20
	.uleb128 0x1
	.byte	0x51
	.uleb128 0x2
	.byte	0x7a
	.sleb128 0
	.uleb128 0x20
	.uleb128 0x1
	.byte	0x52
	.uleb128 0x4
	.byte	0x91
	.sleb128 -120
	.byte	0x6
	.uleb128 0x20
	.uleb128 0x1
	.byte	0x53
	.uleb128 0x1
	.byte	0x48
	.uleb128 0x20
	.uleb128 0x2
	.byte	0x7d
	.sleb128 0
	.uleb128 0x2
	.byte	0x78
	.sleb128 0
	.byte	0
	.uleb128 0x26
	.4byte	.LVL441
	.4byte	0x338
	.4byte	0x275d
	.uleb128 0x20
	.uleb128 0x1
	.byte	0x50
	.uleb128 0x2
	.byte	0x74
	.sleb128 0
	.uleb128 0x20
	.uleb128 0x1
	.byte	0x51
	.uleb128 0x2
	.byte	0x78
	.sleb128 0
	.byte	0
	.uleb128 0x26
	.4byte	.LVL442
	.4byte	0x458
	.4byte	0x2779
	.uleb128 0x20
	.uleb128 0x1
	.byte	0x50
	.uleb128 0x2
	.byte	0x79
	.sleb128 0
	.uleb128 0x20
	.uleb128 0x1
	.byte	0x51
	.uleb128 0x4
	.byte	0x91
	.sleb128 -128
	.byte	0x6
	.byte	0
	.uleb128 0x26
	.4byte	.LVL443
	.4byte	0x1c60
	.4byte	0x278d
	.uleb128 0x20
	.uleb128 0x1
	.byte	0x52
	.uleb128 0x2
	.byte	0x78
	.sleb128 0
	.byte	0
	.uleb128 0x26
	.4byte	.LVL445
	.4byte	0x319c
	.4byte	0x27b2
	.uleb128 0x20
	.uleb128 0x1
	.byte	0x50
	.uleb128 0x2
	.byte	0x76
	.sleb128 -7
	.uleb128 0x20
	.uleb128 0x1
	.byte	0x51
	.uleb128 0x2
	.byte	0x78
	.sleb128 0
	.uleb128 0x20
	.uleb128 0x1
	.byte	0x52
	.uleb128 0x2
	.byte	0x7a
	.sleb128 0
	.uleb128 0x20
	.uleb128 0x1
	.byte	0x53
	.uleb128 0x1
	.byte	0x38
	.byte	0
	.uleb128 0x28
	.4byte	.LVL462
	.4byte	0x3c6b
	.uleb128 0x1f
	.4byte	.LVL463
	.4byte	0x3c8e
	.uleb128 0x20
	.uleb128 0x1
	.byte	0x50
	.uleb128 0x4
	.byte	0x91
	.sleb128 -120
	.byte	0x6
	.uleb128 0x20
	.uleb128 0x1
	.byte	0x51
	.uleb128 0x1
	.byte	0x48
	.byte	0
	.byte	0
	.byte	0
	.uleb128 0x1f
	.4byte	.LVL414
	.4byte	0x3c6b
	.uleb128 0x20
	.uleb128 0x1
	.byte	0x51
	.uleb128 0x3
	.byte	0x91
	.sleb128 -8
	.byte	0x6
	.uleb128 0x20
	.uleb128 0x1
	.byte	0x52
	.uleb128 0x4
	.byte	0x91
	.sleb128 -108
	.byte	0x6
	.uleb128 0x20
	.uleb128 0x1
	.byte	0x53
	.uleb128 0x1
	.byte	0x30
	.byte	0
	.byte	0
	.uleb128 0x3a
	.4byte	0x2806
	.uleb128 0x35
	.4byte	.LASF56
	.byte	0x1
	.2byte	0x204
	.byte	0x1a
	.4byte	0xe3
	.byte	0
	.uleb128 0x32
	.4byte	.LBB812
	.4byte	.LBE812-.LBB812
	.4byte	0x2956
	.uleb128 0x19
	.4byte	.LASF56
	.byte	0x1
	.2byte	0x219
	.byte	0x16
	.4byte	0xe3
	.4byte	.LLST259
	.4byte	.LVUS259
	.uleb128 0x24
	.4byte	0x1bd1
	.4byte	.LBI813
	.2byte	.LVU1911
	.4byte	.Ldebug_ranges0+0x710
	.byte	0x1
	.2byte	0x21a
	.byte	0x9
	.4byte	0x285d
	.uleb128 0x25
	.4byte	0x1bdf
	.4byte	.LLST260
	.4byte	.LVUS260
	.uleb128 0x1f
	.4byte	.LVL392
	.4byte	0x3c6b
	.uleb128 0x20
	.uleb128 0x1
	.byte	0x50
	.uleb128 0x2
	.byte	0x77
	.sleb128 0
	.byte	0
	.byte	0
	.uleb128 0x27
	.4byte	0x1bd1
	.4byte	.LBI819
	.2byte	.LVU1923
	.4byte	.LBB819
	.4byte	.LBE819-.LBB819
	.byte	0x1
	.2byte	0x21e
	.byte	0x9
	.4byte	0x28a2
	.uleb128 0x25
	.4byte	0x1bdf
	.4byte	.LLST261
	.4byte	.LVUS261
	.uleb128 0x1f
	.4byte	.LVL397
	.4byte	0x3c6b
	.uleb128 0x20
	.uleb128 0x1
	.byte	0x50
	.uleb128 0x2
	.byte	0x77
	.sleb128 0
	.uleb128 0x20
	.uleb128 0x1
	.byte	0x51
	.uleb128 0x2
	.byte	0x76
	.sleb128 0
	.uleb128 0x20
	.uleb128 0x1
	.byte	0x52
	.uleb128 0x2
	.byte	0x79
	.sleb128 0
	.byte	0
	.byte	0
	.uleb128 0x26
	.4byte	.LVL389
	.4byte	0x3c6b
	.4byte	0x28bd
	.uleb128 0x20
	.uleb128 0x1
	.byte	0x51
	.uleb128 0x3
	.byte	0x91
	.sleb128 -8
	.byte	0x6
	.uleb128 0x20
	.uleb128 0x1
	.byte	0x52
	.uleb128 0x2
	.byte	0x74
	.sleb128 0
	.byte	0
	.uleb128 0x26
	.4byte	.LVL390
	.4byte	0x369d
	.4byte	0x28dc
	.uleb128 0x20
	.uleb128 0x1
	.byte	0x50
	.uleb128 0x2
	.byte	0x78
	.sleb128 16
	.uleb128 0x20
	.uleb128 0x1
	.byte	0x51
	.uleb128 0x2
	.byte	0x78
	.sleb128 0
	.uleb128 0x20
	.uleb128 0x1
	.byte	0x52
	.uleb128 0x1
	.byte	0x38
	.byte	0
	.uleb128 0x26
	.4byte	.LVL391
	.4byte	0x338
	.4byte	0x28f7
	.uleb128 0x20
	.uleb128 0x1
	.byte	0x50
	.uleb128 0x3
	.byte	0x91
	.sleb128 -80
	.uleb128 0x20
	.uleb128 0x1
	.byte	0x51
	.uleb128 0x2
	.byte	0x78
	.sleb128 0
	.byte	0
	.uleb128 0x26
	.4byte	.LVL393
	.4byte	0x458
	.4byte	0x2918
	.uleb128 0x20
	.uleb128 0x1
	.byte	0x50
	.uleb128 0x3
	.byte	0x91
	.sleb128 -88
	.uleb128 0x20
	.uleb128 0x1
	.byte	0x51
	.uleb128 0x2
	.byte	0x78
	.sleb128 48
	.uleb128 0x20
	.uleb128 0x2
	.byte	0x7d
	.sleb128 0
	.uleb128 0x1
	.byte	0x30
	.byte	0
	.uleb128 0x26
	.4byte	.LVL396
	.4byte	0x1c60
	.4byte	0x292c
	.uleb128 0x20
	.uleb128 0x1
	.byte	0x52
	.uleb128 0x2
	.byte	0x78
	.sleb128 0
	.byte	0
	.uleb128 0x1f
	.4byte	.LVL399
	.4byte	0x319c
	.uleb128 0x20
	.uleb128 0x1
	.byte	0x50
	.uleb128 0x6
	.byte	0x91
	.sleb128 -100
	.byte	0x6
	.byte	0x38
	.byte	0x1c
	.uleb128 0x20
	.uleb128 0x1
	.byte	0x51
	.uleb128 0x2
	.byte	0x78
	.sleb128 0
	.uleb128 0x20
	.uleb128 0x1
	.byte	0x52
	.uleb128 0x6
	.byte	0x91
	.sleb128 -96
	.byte	0x6
	.byte	0x38
	.byte	0x1c
	.uleb128 0x20
	.uleb128 0x1
	.byte	0x53
	.uleb128 0x1
	.byte	0x38
	.byte	0
	.byte	0
	.uleb128 0x23
	.4byte	.Ldebug_ranges0+0x730
	.4byte	0x2aef
	.uleb128 0x19
	.4byte	.LASF56
	.byte	0x1
	.2byte	0x22d
	.byte	0x16
	.4byte	0xe3
	.4byte	.LLST262
	.4byte	.LVUS262
	.uleb128 0x24
	.4byte	0x1bd1
	.4byte	.LBI822
	.2byte	.LVU1951
	.4byte	.Ldebug_ranges0+0x748
	.byte	0x1
	.2byte	0x22e
	.byte	0x9
	.4byte	0x29a9
	.uleb128 0x25
	.4byte	0x1bdf
	.4byte	.LLST263
	.4byte	.LVUS263
	.uleb128 0x1f
	.4byte	.LVL403
	.4byte	0x3c6b
	.uleb128 0x20
	.uleb128 0x1
	.byte	0x50
	.uleb128 0x2
	.byte	0x76
	.sleb128 0
	.byte	0
	.byte	0
	.uleb128 0x27
	.4byte	0x1bd1
	.4byte	.LBI828
	.2byte	.LVU1963
	.4byte	.LBB828
	.4byte	.LBE828-.LBB828
	.byte	0x1
	.2byte	0x232
	.byte	0x9
	.4byte	0x29ee
	.uleb128 0x25
	.4byte	0x1bdf
	.4byte	.LLST264
	.4byte	.LVUS264
	.uleb128 0x1f
	.4byte	.LVL408
	.4byte	0x3c6b
	.uleb128 0x20
	.uleb128 0x1
	.byte	0x50
	.uleb128 0x2
	.byte	0x76
	.sleb128 0
	.uleb128 0x20
	.uleb128 0x1
	.byte	0x51
	.uleb128 0x2
	.byte	0x77
	.sleb128 0
	.uleb128 0x20
	.uleb128 0x1
	.byte	0x52
	.uleb128 0x2
	.byte	0x7a
	.sleb128 0
	.byte	0
	.byte	0
	.uleb128 0x27
	.4byte	0x1bd1
	.4byte	.LBI830
	.2byte	.LVU1981
	.4byte	.LBB830
	.4byte	.LBE830-.LBB830
	.byte	0x1
	.2byte	0x23d
	.byte	0x9
	.4byte	0x2a27
	.uleb128 0x25
	.4byte	0x1bdf
	.4byte	.LLST265
	.4byte	.LVUS265
	.uleb128 0x1f
	.4byte	.LVL411
	.4byte	0x3c6b
	.uleb128 0x20
	.uleb128 0x1
	.byte	0x50
	.uleb128 0x2
	.byte	0x76
	.sleb128 0
	.byte	0
	.byte	0
	.uleb128 0x26
	.4byte	.LVL400
	.4byte	0x3c6b
	.4byte	0x2a43
	.uleb128 0x20
	.uleb128 0x1
	.byte	0x51
	.uleb128 0x2
	.byte	0x74
	.sleb128 0
	.uleb128 0x20
	.uleb128 0x1
	.byte	0x52
	.uleb128 0x4
	.byte	0x91
	.sleb128 -108
	.byte	0x6
	.byte	0
	.uleb128 0x26
	.4byte	.LVL401
	.4byte	0x369d
	.4byte	0x2a62
	.uleb128 0x20
	.uleb128 0x1
	.byte	0x50
	.uleb128 0x2
	.byte	0x78
	.sleb128 16
	.uleb128 0x20
	.uleb128 0x1
	.byte	0x51
	.uleb128 0x2
	.byte	0x78
	.sleb128 0
	.uleb128 0x20
	.uleb128 0x1
	.byte	0x52
	.uleb128 0x1
	.byte	0x38
	.byte	0
	.uleb128 0x26
	.4byte	.LVL402
	.4byte	0x338
	.4byte	0x2a7d
	.uleb128 0x20
	.uleb128 0x1
	.byte	0x50
	.uleb128 0x3
	.byte	0x91
	.sleb128 -72
	.uleb128 0x20
	.uleb128 0x1
	.byte	0x51
	.uleb128 0x2
	.byte	0x78
	.sleb128 0
	.byte	0
	.uleb128 0x26
	.4byte	.LVL404
	.4byte	0x458
	.4byte	0x2a9f
	.uleb128 0x20
	.uleb128 0x1
	.byte	0x50
	.uleb128 0x3
	.byte	0x91
	.sleb128 -88
	.uleb128 0x20
	.uleb128 0x1
	.byte	0x51
	.uleb128 0x2
	.byte	0x78
	.sleb128 48
	.uleb128 0x20
	.uleb128 0x2
	.byte	0x7d
	.sleb128 0
	.uleb128 0x2
	.byte	0x79
	.sleb128 0
	.byte	0
	.uleb128 0x26
	.4byte	.LVL407
	.4byte	0x1c60
	.4byte	0x2ab3
	.uleb128 0x20
	.uleb128 0x1
	.byte	0x52
	.uleb128 0x2
	.byte	0x78
	.sleb128 0
	.byte	0
	.uleb128 0x26
	.4byte	.LVL409
	.4byte	0x3231
	.4byte	0x2ad7
	.uleb128 0x20
	.uleb128 0x1
	.byte	0x50
	.uleb128 0x4
	.byte	0x91
	.sleb128 -100
	.byte	0x6
	.uleb128 0x20
	.uleb128 0x1
	.byte	0x51
	.uleb128 0x2
	.byte	0x78
	.sleb128 0
	.uleb128 0x20
	.uleb128 0x1
	.byte	0x52
	.uleb128 0x4
	.byte	0x91
	.sleb128 -96
	.byte	0x6
	.byte	0
	.uleb128 0x1f
	.4byte	.LVL410
	.4byte	0x338
	.uleb128 0x20
	.uleb128 0x1
	.byte	0x50
	.uleb128 0x3
	.byte	0x91
	.sleb128 -72
	.uleb128 0x20
	.uleb128 0x1
	.byte	0x51
	.uleb128 0x2
	.byte	0x78
	.sleb128 0
	.byte	0
	.byte	0
	.uleb128 0x26
	.4byte	.LVL380
	.4byte	0x3c6b
	.4byte	0x2b11
	.uleb128 0x20
	.uleb128 0x1
	.byte	0x51
	.uleb128 0x3
	.byte	0x91
	.sleb128 -8
	.byte	0x6
	.uleb128 0x20
	.uleb128 0x1
	.byte	0x52
	.uleb128 0x4
	.byte	0x91
	.sleb128 -108
	.byte	0x6
	.uleb128 0x20
	.uleb128 0x1
	.byte	0x53
	.uleb128 0x1
	.byte	0x31
	.byte	0
	.uleb128 0x28
	.4byte	.LVL381
	.4byte	0x3c6b
	.uleb128 0x28
	.4byte	.LVL383
	.4byte	0x3c6b
	.uleb128 0x26
	.4byte	.LVL388
	.4byte	0x3c6b
	.4byte	0x2b43
	.uleb128 0x20
	.uleb128 0x1
	.byte	0x51
	.uleb128 0x3
	.byte	0x91
	.sleb128 -8
	.byte	0x6
	.uleb128 0x20
	.uleb128 0x1
	.byte	0x52
	.uleb128 0x2
	.byte	0x74
	.sleb128 0
	.uleb128 0x20
	.uleb128 0x1
	.byte	0x53
	.uleb128 0x1
	.byte	0x30
	.byte	0
	.uleb128 0x26
	.4byte	.LVL455
	.4byte	0x3c6b
	.4byte	0x2b60
	.uleb128 0x20
	.uleb128 0x1
	.byte	0x51
	.uleb128 0x3
	.byte	0x91
	.sleb128 -8
	.byte	0x6
	.uleb128 0x20
	.uleb128 0x1
	.byte	0x52
	.uleb128 0x4
	.byte	0x91
	.sleb128 -108
	.byte	0x6
	.byte	0
	.uleb128 0x26
	.4byte	.LVL458
	.4byte	0x3231
	.4byte	0x2b7a
	.uleb128 0x20
	.uleb128 0x1
	.byte	0x50
	.uleb128 0x2
	.byte	0x76
	.sleb128 0
	.uleb128 0x20
	.uleb128 0x1
	.byte	0x52
	.uleb128 0x2
	.byte	0x77
	.sleb128 0
	.byte	0
	.uleb128 0x26
	.4byte	.LVL472
	.4byte	0x3c6b
	.4byte	0x2b97
	.uleb128 0x20
	.uleb128 0x1
	.byte	0x51
	.uleb128 0x3
	.byte	0x91
	.sleb128 -8
	.byte	0x6
	.uleb128 0x20
	.uleb128 0x1
	.byte	0x52
	.uleb128 0x4
	.byte	0x91
	.sleb128 -108
	.byte	0x6
	.byte	0
	.uleb128 0x1f
	.4byte	.LVL473
	.4byte	0x3231
	.uleb128 0x20
	.uleb128 0x1
	.byte	0x50
	.uleb128 0x4
	.byte	0x91
	.sleb128 -100
	.byte	0x6
	.uleb128 0x20
	.uleb128 0x1
	.byte	0x52
	.uleb128 0x4
	.byte	0x91
	.sleb128 -96
	.byte	0x6
	.uleb128 0x20
	.uleb128 0x1
	.byte	0x53
	.uleb128 0x3
	.byte	0x91
	.sleb128 -8
	.byte	0x6
	.byte	0
	.byte	0
	.uleb128 0x2a
	.4byte	.LASF61
	.byte	0x1
	.2byte	0x1bc
	.byte	0x1c
	.4byte	0x8b
	.byte	0x3
	.4byte	0x2bd7
	.uleb128 0x2b
	.ascii	"c\000"
	.byte	0x1
	.2byte	0x1bc
	.byte	0x43
	.4byte	0x233
	.byte	0
	.uleb128 0x2e
	.4byte	.LASF62
	.byte	0x1
	.2byte	0x154
	.byte	0xd
	.byte	0x1
	.4byte	0x2c90
	.uleb128 0x2c
	.4byte	.LASF25
	.byte	0x1
	.2byte	0x154
	.byte	0x32
	.4byte	0x233
	.uleb128 0x2b
	.ascii	"iv\000"
	.byte	0x1
	.2byte	0x154
	.byte	0x4a
	.4byte	0x230f
	.uleb128 0x2c
	.4byte	.LASF63
	.byte	0x1
	.2byte	0x154
	.byte	0x54
	.4byte	0x260
	.uleb128 0x2c
	.4byte	.LASF64
	.byte	0x1
	.2byte	0x155
	.byte	0x2b
	.4byte	0x2c90
	.uleb128 0x2c
	.4byte	.LASF60
	.byte	0x1
	.2byte	0x155
	.byte	0x3d
	.4byte	0x92
	.uleb128 0x35
	.4byte	.LASF49
	.byte	0x1
	.2byte	0x159
	.byte	0x14
	.4byte	0x230f
	.uleb128 0x35
	.4byte	.LASF51
	.byte	0x1
	.2byte	0x15a
	.byte	0x1a
	.4byte	0x2315
	.uleb128 0x35
	.4byte	.LASF65
	.byte	0x1
	.2byte	0x15b
	.byte	0x13
	.4byte	0x2c97
	.uleb128 0x35
	.4byte	.LASF56
	.byte	0x1
	.2byte	0x15c
	.byte	0x12
	.4byte	0xe3
	.uleb128 0x35
	.4byte	.LASF66
	.byte	0x1
	.2byte	0x15c
	.byte	0x1b
	.4byte	0xe3
	.uleb128 0x35
	.4byte	.LASF67
	.byte	0x1
	.2byte	0x179
	.byte	0x9
	.4byte	0x84
	.uleb128 0x3b
	.uleb128 0x2d
	.ascii	"i\000"
	.byte	0x1
	.2byte	0x185
	.byte	0x12
	.4byte	0x84
	.uleb128 0x3b
	.uleb128 0x35
	.4byte	.LASF31
	.byte	0x1
	.2byte	0x186
	.byte	0x1a
	.4byte	0xe3
	.byte	0
	.byte	0
	.byte	0
	.uleb128 0x10
	.byte	0x4
	.4byte	0x2c96
	.uleb128 0x3c
	.uleb128 0x8
	.4byte	0x52
	.4byte	0x2ca7
	.uleb128 0x9
	.4byte	0x8b
	.byte	0x17
	.byte	0
	.uleb128 0x2e
	.4byte	.LASF68
	.byte	0x1
	.2byte	0x14d
	.byte	0xd
	.byte	0x1
	.4byte	0x2cdd
	.uleb128 0x2c
	.4byte	.LASF37
	.byte	0x1
	.2byte	0x14d
	.byte	0x2d
	.4byte	0x2315
	.uleb128 0x2b
	.ascii	"len\000"
	.byte	0x1
	.2byte	0x14d
	.byte	0x3a
	.4byte	0x92
	.uleb128 0x3b
	.uleb128 0x2d
	.ascii	"i\000"
	.byte	0x1
	.2byte	0x14f
	.byte	0x11
	.4byte	0x92
	.byte	0
	.byte	0
	.uleb128 0x2e
	.4byte	.LASF69
	.byte	0x1
	.2byte	0x144
	.byte	0xd
	.byte	0x1
	.4byte	0x2d2d
	.uleb128 0x2c
	.4byte	.LASF70
	.byte	0x1
	.2byte	0x144
	.byte	0x21
	.4byte	0x2d2d
	.uleb128 0x2c
	.4byte	.LASF37
	.byte	0x1
	.2byte	0x144
	.byte	0x33
	.4byte	0x2c90
	.uleb128 0x2b
	.ascii	"len\000"
	.byte	0x1
	.2byte	0x144
	.byte	0x40
	.4byte	0x92
	.uleb128 0x2d
	.ascii	"buf\000"
	.byte	0x1
	.2byte	0x145
	.byte	0x1a
	.4byte	0x2315
	.uleb128 0x3b
	.uleb128 0x2d
	.ascii	"i\000"
	.byte	0x1
	.2byte	0x147
	.byte	0x11
	.4byte	0x92
	.byte	0
	.byte	0
	.uleb128 0x10
	.byte	0x4
	.4byte	0x168
	.uleb128 0x17
	.4byte	.LASF71
	.byte	0x1
	.2byte	0x11b
	.byte	0x1
	.4byte	0x84
	.4byte	.LFB17
	.4byte	.LFE17-.LFB17
	.uleb128 0x1
	.byte	0x9c
	.4byte	0x2e2f
	.uleb128 0x1e
	.ascii	"h\000"
	.byte	0x1
	.2byte	0x11b
	.byte	0x28
	.4byte	0x233
	.4byte	.LLST286
	.4byte	.LVUS286
	.uleb128 0x1e
	.ascii	"out\000"
	.byte	0x1
	.2byte	0x11b
	.byte	0x31
	.4byte	0x260
	.4byte	.LLST287
	.4byte	.LVUS287
	.uleb128 0x18
	.4byte	.LASF72
	.byte	0x1
	.2byte	0x11b
	.byte	0x3d
	.4byte	0x92
	.4byte	.LLST288
	.4byte	.LVUS288
	.uleb128 0x1e
	.ascii	"in\000"
	.byte	0x1
	.2byte	0x11c
	.byte	0x23
	.4byte	0x2c90
	.4byte	.LLST289
	.4byte	.LVUS289
	.uleb128 0x18
	.4byte	.LASF73
	.byte	0x1
	.2byte	0x11c
	.byte	0x2e
	.4byte	0x92
	.4byte	.LLST290
	.4byte	.LVUS290
	.uleb128 0x26
	.4byte	.LVL481
	.4byte	0x3c6b
	.4byte	0x2dce
	.uleb128 0x20
	.uleb128 0x1
	.byte	0x51
	.uleb128 0x2
	.byte	0x75
	.sleb128 0
	.uleb128 0x20
	.uleb128 0x1
	.byte	0x52
	.uleb128 0x2
	.byte	0x76
	.sleb128 0
	.byte	0
	.uleb128 0x26
	.4byte	.LVL482
	.4byte	0x3c6b
	.4byte	0x2de8
	.uleb128 0x20
	.uleb128 0x1
	.byte	0x51
	.uleb128 0x2
	.byte	0x76
	.sleb128 0
	.uleb128 0x20
	.uleb128 0x1
	.byte	0x52
	.uleb128 0x2
	.byte	0x74
	.sleb128 0
	.byte	0
	.uleb128 0x26
	.4byte	.LVL484
	.4byte	0x3c6b
	.4byte	0x2e02
	.uleb128 0x20
	.uleb128 0x1
	.byte	0x51
	.uleb128 0x2
	.byte	0x76
	.sleb128 0
	.uleb128 0x20
	.uleb128 0x1
	.byte	0x52
	.uleb128 0x2
	.byte	0x74
	.sleb128 0
	.byte	0
	.uleb128 0x3d
	.4byte	.LVL486
	.4byte	0x231b
	.4byte	0x2e25
	.uleb128 0x20
	.uleb128 0x1
	.byte	0x50
	.uleb128 0x3
	.byte	0xf3
	.uleb128 0x1
	.byte	0x50
	.uleb128 0x20
	.uleb128 0x1
	.byte	0x51
	.uleb128 0x3
	.byte	0xf3
	.uleb128 0x1
	.byte	0x51
	.uleb128 0x20
	.uleb128 0x1
	.byte	0x52
	.uleb128 0x3
	.byte	0xf3
	.uleb128 0x1
	.byte	0x52
	.byte	0
	.uleb128 0x28
	.4byte	.LVL488
	.4byte	0x3c6b
	.byte	0
	.uleb128 0x30
	.4byte	.LASF75
	.byte	0x1
	.2byte	0x107
	.byte	0x6
	.4byte	.LFB16
	.4byte	.LFE16-.LFB16
	.uleb128 0x1
	.byte	0x9c
	.4byte	0x2e7e
	.uleb128 0x1e
	.ascii	"c\000"
	.byte	0x1
	.2byte	0x107
	.byte	0x23
	.4byte	0x233
	.4byte	.LLST243
	.4byte	.LVUS243
	.uleb128 0x26
	.4byte	.LVL352
	.4byte	0x3c9a
	.4byte	0x2e6d
	.uleb128 0x20
	.uleb128 0x1
	.byte	0x51
	.uleb128 0x2
	.byte	0x74
	.sleb128 0
	.byte	0
	.uleb128 0x1f
	.4byte	.LVL353
	.4byte	0x3c77
	.uleb128 0x20
	.uleb128 0x1
	.byte	0x50
	.uleb128 0x2
	.byte	0x74
	.sleb128 0
	.byte	0
	.byte	0
	.uleb128 0x3e
	.4byte	.LASF76
	.byte	0x1
	.byte	0xfc
	.byte	0x5
	.4byte	0x84
	.4byte	.LFB15
	.4byte	.LFE15-.LFB15
	.uleb128 0x1
	.byte	0x9c
	.4byte	0x2efe
	.uleb128 0x3f
	.ascii	"c\000"
	.byte	0x1
	.byte	0xfc
	.byte	0x29
	.4byte	0x233
	.4byte	.LLST240
	.4byte	.LVUS240
	.uleb128 0x3f
	.ascii	"iv\000"
	.byte	0x1
	.byte	0xfc
	.byte	0x38
	.4byte	0x2c90
	.4byte	.LLST241
	.4byte	.LVUS241
	.uleb128 0x40
	.4byte	.LASF77
	.byte	0x1
	.byte	0xfc
	.byte	0x43
	.4byte	0x92
	.4byte	.LLST242
	.4byte	.LVUS242
	.uleb128 0x26
	.4byte	.LVL347
	.4byte	0x3c77
	.4byte	0x2ef4
	.uleb128 0x20
	.uleb128 0x1
	.byte	0x50
	.uleb128 0x3
	.byte	0xf3
	.uleb128 0x1
	.byte	0x50
	.uleb128 0x20
	.uleb128 0x1
	.byte	0x51
	.uleb128 0x3
	.byte	0xf3
	.uleb128 0x1
	.byte	0x51
	.uleb128 0x20
	.uleb128 0x1
	.byte	0x52
	.uleb128 0x3
	.byte	0xf3
	.uleb128 0x1
	.byte	0x52
	.byte	0
	.uleb128 0x28
	.4byte	.LVL349
	.4byte	0x3ca6
	.byte	0
	.uleb128 0x41
	.4byte	.LASF78
	.byte	0x1
	.byte	0xe2
	.byte	0x1
	.4byte	.LFB14
	.4byte	.LFE14-.LFB14
	.uleb128 0x1
	.byte	0x9c
	.4byte	0x2f44
	.uleb128 0x3f
	.ascii	"h\000"
	.byte	0x1
	.byte	0xe2
	.byte	0x26
	.4byte	0x233
	.4byte	.LLST239
	.4byte	.LVUS239
	.uleb128 0x42
	.ascii	"off\000"
	.byte	0x1
	.byte	0xe4
	.byte	0xa
	.4byte	0x92
	.uleb128 0x43
	.4byte	.LVL345
	.4byte	0x3cb2
	.uleb128 0x20
	.uleb128 0x1
	.byte	0x50
	.uleb128 0x3
	.byte	0xf3
	.uleb128 0x1
	.byte	0x50
	.byte	0
	.byte	0
	.uleb128 0x3e
	.4byte	.LASF79
	.byte	0x1
	.byte	0xcf
	.byte	0x5
	.4byte	0x84
	.4byte	.LFB13
	.4byte	.LFE13-.LFB13
	.uleb128 0x1
	.byte	0x9c
	.4byte	0x2fe6
	.uleb128 0x3f
	.ascii	"hd\000"
	.byte	0x1
	.byte	0xcf
	.byte	0x2a
	.4byte	0x233
	.4byte	.LLST234
	.4byte	.LVUS234
	.uleb128 0x3f
	.ascii	"key\000"
	.byte	0x1
	.byte	0xcf
	.byte	0x3a
	.4byte	0x2fe6
	.4byte	.LLST235
	.4byte	.LVUS235
	.uleb128 0x40
	.4byte	.LASF80
	.byte	0x1
	.byte	0xcf
	.byte	0x46
	.4byte	0x92
	.4byte	.LLST236
	.4byte	.LVUS236
	.uleb128 0x44
	.4byte	.LASF81
	.byte	0x1
	.byte	0xd2
	.byte	0xf
	.4byte	0x2fec
	.uleb128 0x42
	.ascii	"i\000"
	.byte	0x1
	.byte	0xd3
	.byte	0x9
	.4byte	0x84
	.uleb128 0x44
	.4byte	.LASF82
	.byte	0x1
	.byte	0xd5
	.byte	0x9
	.4byte	0xc7
	.uleb128 0x45
	.ascii	"j\000"
	.byte	0x1
	.byte	0xd6
	.byte	0x9
	.4byte	0x84
	.4byte	.LLST237
	.4byte	.LVUS237
	.uleb128 0x1a
	.4byte	.Ldebug_ranges0+0x6c0
	.uleb128 0x45
	.ascii	"i\000"
	.byte	0x1
	.byte	0xd7
	.byte	0xe
	.4byte	0x84
	.4byte	.LLST238
	.4byte	.LVUS238
	.byte	0
	.byte	0
	.uleb128 0x10
	.byte	0x4
	.4byte	0xbd
	.uleb128 0x10
	.byte	0x4
	.4byte	0x65
	.uleb128 0x41
	.4byte	.LASF83
	.byte	0x1
	.byte	0xca
	.byte	0x6
	.4byte	.LFB12
	.4byte	.LFE12-.LFB12
	.uleb128 0x1
	.byte	0x9c
	.4byte	0x302e
	.uleb128 0x40
	.4byte	.LASF37
	.byte	0x1
	.byte	0xca
	.byte	0x1e
	.4byte	0x65
	.4byte	.LLST233
	.4byte	.LVUS233
	.uleb128 0x43
	.4byte	.LVL336
	.4byte	0x3c6b
	.uleb128 0x20
	.uleb128 0x1
	.byte	0x51
	.uleb128 0x3
	.byte	0xf3
	.uleb128 0x1
	.byte	0x50
	.byte	0
	.byte	0
	.uleb128 0x41
	.4byte	.LASF84
	.byte	0x1
	.byte	0xb6
	.byte	0x6
	.4byte	.LFB11
	.4byte	.LFE11-.LFB11
	.uleb128 0x1
	.byte	0x9c
	.4byte	0x319c
	.uleb128 0x40
	.4byte	.LASF85
	.byte	0x1
	.byte	0xb6
	.byte	0x14
	.4byte	0x260
	.4byte	.LLST226
	.4byte	.LVUS226
	.uleb128 0x40
	.4byte	.LASF86
	.byte	0x1
	.byte	0xb6
	.byte	0x26
	.4byte	0x2c90
	.4byte	.LLST227
	.4byte	.LVUS227
	.uleb128 0x40
	.4byte	.LASF87
	.byte	0x1
	.byte	0xb6
	.byte	0x39
	.4byte	0x2c90
	.4byte	.LLST228
	.4byte	.LVUS228
	.uleb128 0x3f
	.ascii	"len\000"
	.byte	0x1
	.byte	0xb6
	.byte	0x47
	.4byte	0x92
	.4byte	.LLST229
	.4byte	.LVUS229
	.uleb128 0x46
	.4byte	.LASF39
	.byte	0x1
	.byte	0xb6
	.byte	0x50
	.4byte	0x84
	.uleb128 0x2
	.byte	0x91
	.sleb128 0
	.uleb128 0x45
	.ascii	"dst\000"
	.byte	0x1
	.byte	0xb7
	.byte	0x14
	.4byte	0x230f
	.4byte	.LLST230
	.4byte	.LVUS230
	.uleb128 0x47
	.4byte	.LASF88
	.byte	0x1
	.byte	0xb8
	.byte	0x1a
	.4byte	0x2315
	.4byte	.LLST231
	.4byte	.LVUS231
	.uleb128 0x47
	.4byte	.LASF89
	.byte	0x1
	.byte	0xb9
	.byte	0x1a
	.4byte	0x2315
	.4byte	.LLST232
	.4byte	.LVUS232
	.uleb128 0x26
	.4byte	.LVL316
	.4byte	0x3908
	.4byte	0x30f3
	.uleb128 0x20
	.uleb128 0x1
	.byte	0x50
	.uleb128 0x2
	.byte	0x75
	.sleb128 -4
	.byte	0
	.uleb128 0x26
	.4byte	.LVL318
	.4byte	0x3908
	.4byte	0x3107
	.uleb128 0x20
	.uleb128 0x1
	.byte	0x50
	.uleb128 0x2
	.byte	0x76
	.sleb128 -4
	.byte	0
	.uleb128 0x26
	.4byte	.LVL320
	.4byte	0x38c1
	.4byte	0x311b
	.uleb128 0x20
	.uleb128 0x1
	.byte	0x50
	.uleb128 0x2
	.byte	0x74
	.sleb128 -4
	.byte	0
	.uleb128 0x26
	.4byte	.LVL321
	.4byte	0x3908
	.4byte	0x312f
	.uleb128 0x20
	.uleb128 0x1
	.byte	0x50
	.uleb128 0x2
	.byte	0x75
	.sleb128 0
	.byte	0
	.uleb128 0x26
	.4byte	.LVL322
	.4byte	0x3908
	.4byte	0x3143
	.uleb128 0x20
	.uleb128 0x1
	.byte	0x50
	.uleb128 0x2
	.byte	0x76
	.sleb128 0
	.byte	0
	.uleb128 0x26
	.4byte	.LVL323
	.4byte	0x3908
	.4byte	0x3157
	.uleb128 0x20
	.uleb128 0x1
	.byte	0x50
	.uleb128 0x2
	.byte	0x75
	.sleb128 0
	.byte	0
	.uleb128 0x26
	.4byte	.LVL324
	.4byte	0x3908
	.4byte	0x316b
	.uleb128 0x20
	.uleb128 0x1
	.byte	0x50
	.uleb128 0x2
	.byte	0x76
	.sleb128 0
	.byte	0
	.uleb128 0x26
	.4byte	.LVL325
	.4byte	0x3c6b
	.4byte	0x318b
	.uleb128 0x20
	.uleb128 0x1
	.byte	0x50
	.uleb128 0x2
	.byte	0x7a
	.sleb128 0
	.uleb128 0x20
	.uleb128 0x1
	.byte	0x51
	.uleb128 0x2
	.byte	0x78
	.sleb128 0
	.uleb128 0x20
	.uleb128 0x1
	.byte	0x52
	.uleb128 0x2
	.byte	0x79
	.sleb128 0
	.byte	0
	.uleb128 0x1f
	.4byte	.LVL332
	.4byte	0x3c6b
	.uleb128 0x20
	.uleb128 0x1
	.byte	0x50
	.uleb128 0x2
	.byte	0x74
	.sleb128 0
	.byte	0
	.byte	0
	.uleb128 0x41
	.4byte	.LASF90
	.byte	0x1
	.byte	0xb1
	.byte	0x6
	.4byte	.LFB10
	.4byte	.LFE10-.LFB10
	.uleb128 0x1
	.byte	0x9c
	.4byte	0x3231
	.uleb128 0x40
	.4byte	.LASF91
	.byte	0x1
	.byte	0xb1
	.byte	0x24
	.4byte	0x260
	.4byte	.LLST222
	.4byte	.LVUS222
	.uleb128 0x40
	.4byte	.LASF92
	.byte	0x1
	.byte	0xb1
	.byte	0x34
	.4byte	0x260
	.4byte	.LLST223
	.4byte	.LVUS223
	.uleb128 0x40
	.4byte	.LASF93
	.byte	0x1
	.byte	0xb2
	.byte	0x29
	.4byte	0x2c90
	.4byte	.LLST224
	.4byte	.LVUS224
	.uleb128 0x40
	.4byte	.LASF53
	.byte	0x1
	.byte	0xb2
	.byte	0x36
	.4byte	0x92
	.4byte	.LLST225
	.4byte	.LVUS225
	.uleb128 0x1f
	.4byte	.LVL310
	.4byte	0x3440
	.uleb128 0x20
	.uleb128 0x1
	.byte	0x50
	.uleb128 0x3
	.byte	0xf3
	.uleb128 0x1
	.byte	0x50
	.uleb128 0x20
	.uleb128 0x1
	.byte	0x51
	.uleb128 0x3
	.byte	0xf3
	.uleb128 0x1
	.byte	0x52
	.uleb128 0x20
	.uleb128 0x1
	.byte	0x52
	.uleb128 0x3
	.byte	0xf3
	.uleb128 0x1
	.byte	0x51
	.uleb128 0x20
	.uleb128 0x1
	.byte	0x53
	.uleb128 0x3
	.byte	0xf3
	.uleb128 0x1
	.byte	0x52
	.uleb128 0x20
	.uleb128 0x2
	.byte	0x7d
	.sleb128 0
	.uleb128 0x3
	.byte	0xf3
	.uleb128 0x1
	.byte	0x53
	.byte	0
	.byte	0
	.uleb128 0x41
	.4byte	.LASF94
	.byte	0x1
	.byte	0xac
	.byte	0x6
	.4byte	.LFB9
	.4byte	.LFE9-.LFB9
	.uleb128 0x1
	.byte	0x9c
	.4byte	0x32c6
	.uleb128 0x40
	.4byte	.LASF91
	.byte	0x1
	.byte	0xac
	.byte	0x1b
	.4byte	0x260
	.4byte	.LLST218
	.4byte	.LVUS218
	.uleb128 0x40
	.4byte	.LASF92
	.byte	0x1
	.byte	0xac
	.byte	0x2b
	.4byte	0x260
	.4byte	.LLST219
	.4byte	.LVUS219
	.uleb128 0x40
	.4byte	.LASF93
	.byte	0x1
	.byte	0xad
	.byte	0x21
	.4byte	0x2c90
	.4byte	.LLST220
	.4byte	.LVUS220
	.uleb128 0x3f
	.ascii	"len\000"
	.byte	0x1
	.byte	0xad
	.byte	0x2e
	.4byte	0x92
	.4byte	.LLST221
	.4byte	.LVUS221
	.uleb128 0x1f
	.4byte	.LVL305
	.4byte	0x32c6
	.uleb128 0x20
	.uleb128 0x1
	.byte	0x50
	.uleb128 0x3
	.byte	0xf3
	.uleb128 0x1
	.byte	0x50
	.uleb128 0x20
	.uleb128 0x1
	.byte	0x51
	.uleb128 0x3
	.byte	0xf3
	.uleb128 0x1
	.byte	0x52
	.uleb128 0x20
	.uleb128 0x1
	.byte	0x52
	.uleb128 0x3
	.byte	0xf3
	.uleb128 0x1
	.byte	0x51
	.uleb128 0x20
	.uleb128 0x1
	.byte	0x53
	.uleb128 0x3
	.byte	0xf3
	.uleb128 0x1
	.byte	0x52
	.uleb128 0x20
	.uleb128 0x2
	.byte	0x7d
	.sleb128 0
	.uleb128 0x3
	.byte	0xf3
	.uleb128 0x1
	.byte	0x53
	.byte	0
	.byte	0
	.uleb128 0x41
	.4byte	.LASF95
	.byte	0x1
	.byte	0x8f
	.byte	0x6
	.4byte	.LFB8
	.4byte	.LFE8-.LFB8
	.uleb128 0x1
	.byte	0x9c
	.4byte	0x343a
	.uleb128 0x40
	.4byte	.LASF91
	.byte	0x1
	.byte	0x8f
	.byte	0x1d
	.4byte	0x260
	.4byte	.LLST207
	.4byte	.LVUS207
	.uleb128 0x40
	.4byte	.LASF96
	.byte	0x1
	.byte	0x8f
	.byte	0x33
	.4byte	0x2c90
	.4byte	.LLST208
	.4byte	.LVUS208
	.uleb128 0x40
	.4byte	.LASF92
	.byte	0x1
	.byte	0x90
	.byte	0x1d
	.4byte	0x260
	.4byte	.LLST209
	.4byte	.LVUS209
	.uleb128 0x40
	.4byte	.LASF97
	.byte	0x1
	.byte	0x90
	.byte	0x36
	.4byte	0x2c90
	.4byte	.LLST210
	.4byte	.LVUS210
	.uleb128 0x3f
	.ascii	"len\000"
	.byte	0x1
	.byte	0x90
	.byte	0x47
	.4byte	0x92
	.4byte	.LLST211
	.4byte	.LVUS211
	.uleb128 0x47
	.4byte	.LASF98
	.byte	0x1
	.byte	0x92
	.byte	0xb
	.4byte	0x343a
	.4byte	.LLST212
	.4byte	.LVUS212
	.uleb128 0x47
	.4byte	.LASF99
	.byte	0x1
	.byte	0x93
	.byte	0xb
	.4byte	0x343a
	.4byte	.LLST213
	.4byte	.LVUS213
	.uleb128 0x47
	.4byte	.LASF100
	.byte	0x1
	.byte	0x94
	.byte	0x11
	.4byte	0x2fe6
	.4byte	.LLST214
	.4byte	.LVUS214
	.uleb128 0x47
	.4byte	.LASF101
	.byte	0x1
	.byte	0x95
	.byte	0x11
	.4byte	0x2fe6
	.4byte	.LLST215
	.4byte	.LVUS215
	.uleb128 0x23
	.4byte	.Ldebug_ranges0+0x690
	.4byte	0x341f
	.uleb128 0x47
	.4byte	.LASF102
	.byte	0x1
	.byte	0x99
	.byte	0xd
	.4byte	0xa5
	.4byte	.LLST216
	.4byte	.LVUS216
	.uleb128 0x26
	.4byte	.LVL283
	.4byte	0x3908
	.4byte	0x33c4
	.uleb128 0x20
	.uleb128 0x1
	.byte	0x50
	.uleb128 0x5
	.byte	0x7a
	.sleb128 0
	.byte	0x74
	.sleb128 0
	.byte	0x1c
	.byte	0
	.uleb128 0x26
	.4byte	.LVL285
	.4byte	0x3908
	.4byte	0x33d8
	.uleb128 0x20
	.uleb128 0x1
	.byte	0x50
	.uleb128 0x2
	.byte	0x75
	.sleb128 0
	.byte	0
	.uleb128 0x26
	.4byte	.LVL286
	.4byte	0x3908
	.4byte	0x33ef
	.uleb128 0x20
	.uleb128 0x1
	.byte	0x50
	.uleb128 0x5
	.byte	0x79
	.sleb128 0
	.byte	0x74
	.sleb128 0
	.byte	0x1c
	.byte	0
	.uleb128 0x26
	.4byte	.LVL288
	.4byte	0x38c1
	.4byte	0x3408
	.uleb128 0x20
	.uleb128 0x1
	.byte	0x50
	.uleb128 0x7
	.byte	0x78
	.sleb128 0
	.byte	0x74
	.sleb128 0
	.byte	0x1c
	.byte	0x34
	.byte	0x1c
	.byte	0
	.uleb128 0x1f
	.4byte	.LVL289
	.4byte	0x38c1
	.uleb128 0x20
	.uleb128 0x1
	.byte	0x50
	.uleb128 0x2
	.byte	0x75
	.sleb128 0
	.uleb128 0x20
	.uleb128 0x1
	.byte	0x51
	.uleb128 0x2
	.byte	0x76
	.sleb128 0
	.byte	0
	.byte	0
	.uleb128 0x1a
	.4byte	.Ldebug_ranges0+0x6a8
	.uleb128 0x47
	.4byte	.LASF102
	.byte	0x1
	.byte	0xa5
	.byte	0xe
	.4byte	0xb1
	.4byte	.LLST217
	.4byte	.LVUS217
	.byte	0
	.byte	0
	.uleb128 0x10
	.byte	0x4
	.4byte	0xb1
	.uleb128 0x41
	.4byte	.LASF103
	.byte	0x1
	.byte	0x6c
	.byte	0x6
	.4byte	.LFB7
	.4byte	.LFE7-.LFB7
	.uleb128 0x1
	.byte	0x9c
	.4byte	0x368d
	.uleb128 0x40
	.4byte	.LASF98
	.byte	0x1
	.byte	0x6c
	.byte	0x26
	.4byte	0x260
	.4byte	.LLST199
	.4byte	.LVUS199
	.uleb128 0x40
	.4byte	.LASF100
	.byte	0x1
	.byte	0x6c
	.byte	0x3b
	.4byte	0x2c90
	.4byte	.LLST200
	.4byte	.LVUS200
	.uleb128 0x40
	.4byte	.LASF99
	.byte	0x1
	.byte	0x6d
	.byte	0x25
	.4byte	0x260
	.4byte	.LLST201
	.4byte	.LVUS201
	.uleb128 0x40
	.4byte	.LASF101
	.byte	0x1
	.byte	0x6d
	.byte	0x3d
	.4byte	0x2c90
	.4byte	.LLST202
	.4byte	.LVUS202
	.uleb128 0x46
	.4byte	.LASF53
	.byte	0x1
	.byte	0x6e
	.byte	0x26
	.4byte	0x92
	.uleb128 0x2
	.byte	0x91
	.sleb128 0
	.uleb128 0x47
	.4byte	.LASF104
	.byte	0x1
	.byte	0x70
	.byte	0xb
	.4byte	0x343a
	.4byte	.LLST203
	.4byte	.LVUS203
	.uleb128 0x47
	.4byte	.LASF105
	.byte	0x1
	.byte	0x71
	.byte	0xb
	.4byte	0x343a
	.4byte	.LLST204
	.4byte	.LVUS204
	.uleb128 0x47
	.4byte	.LASF106
	.byte	0x1
	.byte	0x72
	.byte	0x11
	.4byte	0x2fe6
	.4byte	.LLST205
	.4byte	.LVUS205
	.uleb128 0x47
	.4byte	.LASF107
	.byte	0x1
	.byte	0x73
	.byte	0x11
	.4byte	0x2fe6
	.4byte	.LLST206
	.4byte	.LVUS206
	.uleb128 0x42
	.ascii	"sc\000"
	.byte	0x1
	.byte	0x74
	.byte	0x9
	.4byte	0x368d
	.uleb128 0x42
	.ascii	"sx\000"
	.byte	0x1
	.byte	0x74
	.byte	0x10
	.4byte	0x368d
	.uleb128 0x42
	.ascii	"sdc\000"
	.byte	0x1
	.byte	0x74
	.byte	0x17
	.4byte	0x368d
	.uleb128 0x32
	.4byte	.LBB773
	.4byte	.LBE773-.LBB773
	.4byte	0x35b0
	.uleb128 0x42
	.ascii	"i\000"
	.byte	0x1
	.byte	0x84
	.byte	0x11
	.4byte	0x84
	.uleb128 0x26
	.4byte	.LVL259
	.4byte	0x3908
	.4byte	0x3555
	.uleb128 0x20
	.uleb128 0x1
	.byte	0x50
	.uleb128 0x5
	.byte	0x7a
	.sleb128 0
	.byte	0x74
	.sleb128 0
	.byte	0x22
	.byte	0
	.uleb128 0x26
	.4byte	.LVL260
	.4byte	0x3908
	.4byte	0x3569
	.uleb128 0x20
	.uleb128 0x1
	.byte	0x50
	.uleb128 0x2
	.byte	0x7b
	.sleb128 0
	.byte	0
	.uleb128 0x26
	.4byte	.LVL261
	.4byte	0x3908
	.4byte	0x3580
	.uleb128 0x20
	.uleb128 0x1
	.byte	0x50
	.uleb128 0x5
	.byte	0x79
	.sleb128 0
	.byte	0x74
	.sleb128 0
	.byte	0x22
	.byte	0
	.uleb128 0x26
	.4byte	.LVL262
	.4byte	0x38c1
	.4byte	0x3599
	.uleb128 0x20
	.uleb128 0x1
	.byte	0x50
	.uleb128 0x7
	.byte	0x78
	.sleb128 0
	.byte	0x74
	.sleb128 0
	.byte	0x22
	.byte	0x34
	.byte	0x1c
	.byte	0
	.uleb128 0x1f
	.4byte	.LVL263
	.4byte	0x38c1
	.uleb128 0x20
	.uleb128 0x1
	.byte	0x50
	.uleb128 0x2
	.byte	0x7b
	.sleb128 0
	.uleb128 0x20
	.uleb128 0x1
	.byte	0x51
	.uleb128 0x2
	.byte	0x75
	.sleb128 0
	.byte	0
	.byte	0
	.uleb128 0x26
	.4byte	.LVL266
	.4byte	0x3908
	.4byte	0x35c4
	.uleb128 0x20
	.uleb128 0x1
	.byte	0x50
	.uleb128 0x2
	.byte	0x7a
	.sleb128 0
	.byte	0
	.uleb128 0x26
	.4byte	.LVL268
	.4byte	0x3908
	.4byte	0x35db
	.uleb128 0x20
	.uleb128 0x1
	.byte	0x50
	.uleb128 0x5
	.byte	0xf3
	.uleb128 0x1
	.byte	0x53
	.byte	0x23
	.uleb128 0x4
	.byte	0
	.uleb128 0x26
	.4byte	.LVL269
	.4byte	0x3908
	.4byte	0x35ef
	.uleb128 0x20
	.uleb128 0x1
	.byte	0x50
	.uleb128 0x2
	.byte	0x77
	.sleb128 0
	.byte	0
	.uleb128 0x26
	.4byte	.LVL270
	.4byte	0x3908
	.4byte	0x3603
	.uleb128 0x20
	.uleb128 0x1
	.byte	0x50
	.uleb128 0x2
	.byte	0x7b
	.sleb128 0
	.byte	0
	.uleb128 0x26
	.4byte	.LVL271
	.4byte	0x3908
	.4byte	0x3617
	.uleb128 0x20
	.uleb128 0x1
	.byte	0x50
	.uleb128 0x2
	.byte	0x79
	.sleb128 0
	.byte	0
	.uleb128 0x26
	.4byte	.LVL272
	.4byte	0x3908
	.4byte	0x362b
	.uleb128 0x20
	.uleb128 0x1
	.byte	0x50
	.uleb128 0x2
	.byte	0x79
	.sleb128 4
	.byte	0
	.uleb128 0x26
	.4byte	.LVL273
	.4byte	0x38c1
	.4byte	0x3645
	.uleb128 0x20
	.uleb128 0x1
	.byte	0x50
	.uleb128 0x2
	.byte	0x78
	.sleb128 0
	.uleb128 0x20
	.uleb128 0x1
	.byte	0x51
	.uleb128 0x2
	.byte	0x75
	.sleb128 0
	.byte	0
	.uleb128 0x26
	.4byte	.LVL274
	.4byte	0x38c1
	.4byte	0x365f
	.uleb128 0x20
	.uleb128 0x1
	.byte	0x50
	.uleb128 0x2
	.byte	0x78
	.sleb128 4
	.uleb128 0x20
	.uleb128 0x1
	.byte	0x51
	.uleb128 0x2
	.byte	0x74
	.sleb128 0
	.byte	0
	.uleb128 0x26
	.4byte	.LVL275
	.4byte	0x38c1
	.4byte	0x3679
	.uleb128 0x20
	.uleb128 0x1
	.byte	0x50
	.uleb128 0x2
	.byte	0x77
	.sleb128 0
	.uleb128 0x20
	.uleb128 0x1
	.byte	0x51
	.uleb128 0x2
	.byte	0x7a
	.sleb128 0
	.byte	0
	.uleb128 0x43
	.4byte	.LVL277
	.4byte	0x38c1
	.uleb128 0x20
	.uleb128 0x1
	.byte	0x50
	.uleb128 0x5
	.byte	0xf3
	.uleb128 0x1
	.byte	0x52
	.byte	0x23
	.uleb128 0x4
	.byte	0
	.byte	0
	.uleb128 0x8
	.4byte	0xa5
	.4byte	0x369d
	.uleb128 0x9
	.4byte	0x8b
	.byte	0x3
	.byte	0
	.uleb128 0x48
	.4byte	.LASF114
	.byte	0x1
	.byte	0x55
	.byte	0x6
	.byte	0x1
	.4byte	0x36f1
	.uleb128 0x49
	.4byte	.LASF85
	.byte	0x1
	.byte	0x55
	.byte	0x1d
	.4byte	0x260
	.uleb128 0x49
	.4byte	.LASF93
	.byte	0x1
	.byte	0x55
	.byte	0x2f
	.4byte	0x2c90
	.uleb128 0x49
	.4byte	.LASF53
	.byte	0x1
	.byte	0x55
	.byte	0x3c
	.4byte	0x92
	.uleb128 0x42
	.ascii	"dst\000"
	.byte	0x1
	.byte	0x56
	.byte	0xb
	.4byte	0x343a
	.uleb128 0x42
	.ascii	"src\000"
	.byte	0x1
	.byte	0x57
	.byte	0x11
	.4byte	0x2fe6
	.uleb128 0x42
	.ascii	"s\000"
	.byte	0x1
	.byte	0x58
	.byte	0x9
	.4byte	0x368d
	.byte	0
	.uleb128 0x41
	.4byte	.LASF108
	.byte	0x1
	.byte	0x43
	.byte	0x6
	.4byte	.LFB5
	.4byte	.LFE5-.LFB5
	.uleb128 0x1
	.byte	0x9c
	.4byte	0x37ab
	.uleb128 0x40
	.4byte	.LASF109
	.byte	0x1
	.byte	0x43
	.byte	0x19
	.4byte	0x260
	.4byte	.LLST181
	.4byte	.LVUS181
	.uleb128 0x40
	.4byte	.LASF110
	.byte	0x1
	.byte	0x43
	.byte	0x26
	.4byte	0x260
	.4byte	.LLST182
	.4byte	.LVUS182
	.uleb128 0x40
	.4byte	.LASF93
	.byte	0x1
	.byte	0x43
	.byte	0x39
	.4byte	0x2c90
	.4byte	.LLST183
	.4byte	.LVUS183
	.uleb128 0x3f
	.ascii	"len\000"
	.byte	0x1
	.byte	0x43
	.byte	0x46
	.4byte	0x92
	.4byte	.LLST184
	.4byte	.LVUS184
	.uleb128 0x47
	.4byte	.LASF111
	.byte	0x1
	.byte	0x44
	.byte	0x14
	.4byte	0x230f
	.4byte	.LLST185
	.4byte	.LVUS185
	.uleb128 0x45
	.ascii	"iv\000"
	.byte	0x1
	.byte	0x45
	.byte	0x14
	.4byte	0x230f
	.4byte	.LLST186
	.4byte	.LVUS186
	.uleb128 0x45
	.ascii	"src\000"
	.byte	0x1
	.byte	0x46
	.byte	0x1a
	.4byte	0x2315
	.4byte	.LLST187
	.4byte	.LVUS187
	.uleb128 0x1a
	.4byte	.Ldebug_ranges0+0x658
	.uleb128 0x45
	.ascii	"i\000"
	.byte	0x1
	.byte	0x4b
	.byte	0x11
	.4byte	0x92
	.4byte	.LLST188
	.4byte	.LVUS188
	.byte	0
	.byte	0
	.uleb128 0x4a
	.4byte	.LASF112
	.byte	0x1
	.byte	0x37
	.byte	0xd
	.byte	0x1
	.4byte	0x3827
	.uleb128 0x49
	.4byte	.LASF109
	.byte	0x1
	.byte	0x37
	.byte	0x23
	.4byte	0x260
	.uleb128 0x49
	.4byte	.LASF110
	.byte	0x1
	.byte	0x37
	.byte	0x30
	.4byte	0x260
	.uleb128 0x49
	.4byte	.LASF93
	.byte	0x1
	.byte	0x37
	.byte	0x43
	.4byte	0x2c90
	.uleb128 0x4b
	.ascii	"len\000"
	.byte	0x1
	.byte	0x37
	.byte	0x50
	.4byte	0x92
	.uleb128 0x44
	.4byte	.LASF111
	.byte	0x1
	.byte	0x38
	.byte	0xb
	.4byte	0x343a
	.uleb128 0x44
	.4byte	.LASF113
	.byte	0x1
	.byte	0x39
	.byte	0xb
	.4byte	0x343a
	.uleb128 0x42
	.ascii	"src\000"
	.byte	0x1
	.byte	0x3a
	.byte	0x11
	.4byte	0x2fe6
	.uleb128 0x3b
	.uleb128 0x42
	.ascii	"i\000"
	.byte	0x1
	.byte	0x3c
	.byte	0x11
	.4byte	0x92
	.uleb128 0x3b
	.uleb128 0x44
	.4byte	.LASF102
	.byte	0x1
	.byte	0x3d
	.byte	0xe
	.4byte	0xb1
	.byte	0
	.byte	0
	.byte	0
	.uleb128 0x48
	.4byte	.LASF115
	.byte	0x1
	.byte	0x22
	.byte	0x6
	.byte	0x1
	.4byte	0x38c1
	.uleb128 0x49
	.4byte	.LASF109
	.byte	0x1
	.byte	0x22
	.byte	0x22
	.4byte	0x260
	.uleb128 0x49
	.4byte	.LASF110
	.byte	0x1
	.byte	0x22
	.byte	0x2f
	.4byte	0x260
	.uleb128 0x49
	.4byte	.LASF93
	.byte	0x1
	.byte	0x22
	.byte	0x42
	.4byte	0x2c90
	.uleb128 0x49
	.4byte	.LASF53
	.byte	0x1
	.byte	0x22
	.byte	0x4f
	.4byte	0x92
	.uleb128 0x44
	.4byte	.LASF111
	.byte	0x1
	.byte	0x23
	.byte	0xb
	.4byte	0x343a
	.uleb128 0x44
	.4byte	.LASF113
	.byte	0x1
	.byte	0x24
	.byte	0xb
	.4byte	0x343a
	.uleb128 0x42
	.ascii	"src\000"
	.byte	0x1
	.byte	0x25
	.byte	0x11
	.4byte	0x2fe6
	.uleb128 0x3a
	.4byte	0x38a6
	.uleb128 0x42
	.ascii	"i\000"
	.byte	0x1
	.byte	0x28
	.byte	0x15
	.4byte	0x92
	.uleb128 0x3b
	.uleb128 0x44
	.4byte	.LASF102
	.byte	0x1
	.byte	0x29
	.byte	0x12
	.4byte	0xb1
	.byte	0
	.byte	0
	.uleb128 0x3b
	.uleb128 0x42
	.ascii	"i\000"
	.byte	0x1
	.byte	0x2f
	.byte	0x15
	.4byte	0x92
	.uleb128 0x3b
	.uleb128 0x44
	.4byte	.LASF102
	.byte	0x1
	.byte	0x30
	.byte	0x12
	.4byte	0xb1
	.byte	0
	.byte	0
	.byte	0
	.uleb128 0x41
	.4byte	.LASF116
	.byte	0x1
	.byte	0x17
	.byte	0x6
	.4byte	.LFB2
	.4byte	.LFE2-.LFB2
	.uleb128 0x1
	.byte	0x9c
	.4byte	0x3908
	.uleb128 0x46
	.4byte	.LASF117
	.byte	0x1
	.byte	0x17
	.byte	0x19
	.4byte	0x260
	.uleb128 0x1
	.byte	0x50
	.uleb128 0x4c
	.ascii	"val\000"
	.byte	0x1
	.byte	0x17
	.byte	0x23
	.4byte	0xa5
	.uleb128 0x1
	.byte	0x51
	.uleb128 0x45
	.ascii	"out\000"
	.byte	0x1
	.byte	0x18
	.byte	0xb
	.4byte	0x343a
	.4byte	.LLST170
	.4byte	.LVUS170
	.byte	0
	.uleb128 0x3e
	.4byte	.LASF118
	.byte	0x1
	.byte	0x6
	.byte	0x5
	.4byte	0xa5
	.4byte	.LFB1
	.4byte	.LFE1-.LFB1
	.uleb128 0x1
	.byte	0x9c
	.4byte	0x39aa
	.uleb128 0x40
	.4byte	.LASF117
	.byte	0x1
	.byte	0x6
	.byte	0x1e
	.4byte	0x2c90
	.4byte	.LLST163
	.4byte	.LVUS163
	.uleb128 0x45
	.ascii	"in\000"
	.byte	0x1
	.byte	0xb
	.byte	0x11
	.4byte	0x2fe6
	.4byte	.LLST164
	.4byte	.LVUS164
	.uleb128 0x45
	.ascii	"vin\000"
	.byte	0x1
	.byte	0xd
	.byte	0x1a
	.4byte	0x39aa
	.4byte	.LLST165
	.4byte	.LVUS165
	.uleb128 0x45
	.ascii	"b0\000"
	.byte	0x1
	.byte	0xf
	.byte	0x9
	.4byte	0xa5
	.4byte	.LLST166
	.4byte	.LVUS166
	.uleb128 0x45
	.ascii	"b1\000"
	.byte	0x1
	.byte	0x10
	.byte	0x9
	.4byte	0xa5
	.4byte	.LLST167
	.4byte	.LVUS167
	.uleb128 0x45
	.ascii	"b2\000"
	.byte	0x1
	.byte	0x11
	.byte	0x9
	.4byte	0xa5
	.4byte	.LLST168
	.4byte	.LVUS168
	.uleb128 0x45
	.ascii	"b3\000"
	.byte	0x1
	.byte	0x12
	.byte	0x9
	.4byte	0xa5
	.4byte	.LLST169
	.4byte	.LVUS169
	.byte	0
	.uleb128 0x10
	.byte	0x4
	.4byte	0xc2
	.uleb128 0x4d
	.4byte	0x3827
	.4byte	.LFB3
	.4byte	.LFE3-.LFB3
	.uleb128 0x1
	.byte	0x9c
	.4byte	0x3ab3
	.uleb128 0x25
	.4byte	0x3834
	.4byte	.LLST171
	.4byte	.LVUS171
	.uleb128 0x25
	.4byte	0x3840
	.4byte	.LLST172
	.4byte	.LVUS172
	.uleb128 0x25
	.4byte	0x384c
	.4byte	.LLST173
	.4byte	.LVUS173
	.uleb128 0x25
	.4byte	0x3858
	.4byte	.LLST174
	.4byte	.LVUS174
	.uleb128 0x38
	.4byte	0x3864
	.uleb128 0x29
	.4byte	0x3870
	.4byte	.LLST175
	.4byte	.LVUS175
	.uleb128 0x29
	.4byte	0x387c
	.4byte	.LLST176
	.4byte	.LVUS176
	.uleb128 0x4e
	.4byte	0x38a6
	.4byte	.LBB756
	.4byte	.LBE756-.LBB756
	.4byte	0x3a4c
	.uleb128 0x29
	.4byte	0x38a7
	.4byte	.LLST177
	.4byte	.LVUS177
	.uleb128 0x34
	.4byte	0x38b1
	.4byte	.Ldebug_ranges0+0x628
	.uleb128 0x29
	.4byte	0x38b2
	.4byte	.LLST178
	.4byte	.LVUS178
	.byte	0
	.byte	0
	.uleb128 0x4f
	.4byte	0x3827
	.4byte	.LBB759
	.4byte	.LBE759-.LBB759
	.byte	0x1
	.byte	0x22
	.byte	0x6
	.uleb128 0x36
	.4byte	0x3858
	.uleb128 0x36
	.4byte	0x384c
	.uleb128 0x36
	.4byte	0x3840
	.uleb128 0x36
	.4byte	0x3834
	.uleb128 0x38
	.4byte	0x3864
	.uleb128 0x38
	.4byte	0x3870
	.uleb128 0x38
	.4byte	0x387c
	.uleb128 0x33
	.4byte	0x3888
	.4byte	.LBB761
	.4byte	.LBE761-.LBB761
	.uleb128 0x29
	.4byte	0x388d
	.4byte	.LLST179
	.4byte	.LVUS179
	.uleb128 0x34
	.4byte	0x3897
	.4byte	.Ldebug_ranges0+0x640
	.uleb128 0x29
	.4byte	0x3898
	.4byte	.LLST180
	.4byte	.LVUS180
	.byte	0
	.byte	0
	.byte	0
	.byte	0
	.uleb128 0x4d
	.4byte	0x369d
	.4byte	.LFB6
	.4byte	.LFE6-.LFB6
	.uleb128 0x1
	.byte	0x9c
	.4byte	0x3c6b
	.uleb128 0x25
	.4byte	0x36aa
	.4byte	.LLST189
	.4byte	.LVUS189
	.uleb128 0x25
	.4byte	0x36b6
	.4byte	.LLST190
	.4byte	.LVUS190
	.uleb128 0x25
	.4byte	0x36c2
	.4byte	.LLST191
	.4byte	.LVUS191
	.uleb128 0x29
	.4byte	0x36ce
	.4byte	.LLST192
	.4byte	.LVUS192
	.uleb128 0x29
	.4byte	0x36da
	.4byte	.LLST193
	.4byte	.LVUS193
	.uleb128 0x29
	.4byte	0x36e6
	.4byte	.LLST194
	.4byte	.LVUS194
	.uleb128 0x50
	.4byte	0x369d
	.4byte	.LBI769
	.2byte	.LVU1472
	.4byte	.Ldebug_ranges0+0x678
	.byte	0x1
	.byte	0x55
	.byte	0x6
	.4byte	0x3c20
	.uleb128 0x25
	.4byte	0x36c2
	.4byte	.LLST195
	.4byte	.LVUS195
	.uleb128 0x25
	.4byte	0x36b6
	.4byte	.LLST196
	.4byte	.LVUS196
	.uleb128 0x25
	.4byte	0x36aa
	.4byte	.LLST197
	.4byte	.LVUS197
	.uleb128 0x1a
	.4byte	.Ldebug_ranges0+0x678
	.uleb128 0x38
	.4byte	0x36ce
	.uleb128 0x38
	.4byte	0x36da
	.uleb128 0x29
	.4byte	0x36e6
	.4byte	.LLST198
	.4byte	.LVUS198
	.uleb128 0x26
	.4byte	.LVL232
	.4byte	0x3908
	.4byte	0x3b81
	.uleb128 0x20
	.uleb128 0x1
	.byte	0x50
	.uleb128 0x2
	.byte	0x75
	.sleb128 0
	.byte	0
	.uleb128 0x26
	.4byte	.LVL234
	.4byte	0x3908
	.4byte	0x3b95
	.uleb128 0x20
	.uleb128 0x1
	.byte	0x50
	.uleb128 0x2
	.byte	0x75
	.sleb128 4
	.byte	0
	.uleb128 0x26
	.4byte	.LVL236
	.4byte	0x3908
	.4byte	0x3ba9
	.uleb128 0x20
	.uleb128 0x1
	.byte	0x50
	.uleb128 0x2
	.byte	0x75
	.sleb128 8
	.byte	0
	.uleb128 0x26
	.4byte	.LVL238
	.4byte	0x3908
	.4byte	0x3bbd
	.uleb128 0x20
	.uleb128 0x1
	.byte	0x50
	.uleb128 0x2
	.byte	0x75
	.sleb128 12
	.byte	0
	.uleb128 0x26
	.4byte	.LVL241
	.4byte	0x38c1
	.4byte	0x3bd7
	.uleb128 0x20
	.uleb128 0x1
	.byte	0x50
	.uleb128 0x2
	.byte	0x74
	.sleb128 0
	.uleb128 0x20
	.uleb128 0x1
	.byte	0x51
	.uleb128 0x2
	.byte	0x78
	.sleb128 0
	.byte	0
	.uleb128 0x26
	.4byte	.LVL242
	.4byte	0x38c1
	.4byte	0x3bf1
	.uleb128 0x20
	.uleb128 0x1
	.byte	0x50
	.uleb128 0x2
	.byte	0x74
	.sleb128 4
	.uleb128 0x20
	.uleb128 0x1
	.byte	0x51
	.uleb128 0x2
	.byte	0x77
	.sleb128 0
	.byte	0
	.uleb128 0x26
	.4byte	.LVL243
	.4byte	0x38c1
	.4byte	0x3c0b
	.uleb128 0x20
	.uleb128 0x1
	.byte	0x50
	.uleb128 0x2
	.byte	0x74
	.sleb128 8
	.uleb128 0x20
	.uleb128 0x1
	.byte	0x51
	.uleb128 0x2
	.byte	0x76
	.sleb128 0
	.byte	0
	.uleb128 0x43
	.4byte	.LVL245
	.4byte	0x38c1
	.uleb128 0x20
	.uleb128 0x1
	.byte	0x50
	.uleb128 0x5
	.byte	0xf3
	.uleb128 0x1
	.byte	0x50
	.byte	0x23
	.uleb128 0xc
	.byte	0
	.byte	0
	.byte	0
	.uleb128 0x28
	.4byte	.LVL246
	.4byte	0x3908
	.uleb128 0x26
	.4byte	.LVL248
	.4byte	0x3908
	.4byte	0x3c3d
	.uleb128 0x20
	.uleb128 0x1
	.byte	0x50
	.uleb128 0x2
	.byte	0x75
	.sleb128 4
	.byte	0
	.uleb128 0x26
	.4byte	.LVL251
	.4byte	0x38c1
	.4byte	0x3c57
	.uleb128 0x20
	.uleb128 0x1
	.byte	0x50
	.uleb128 0x2
	.byte	0x74
	.sleb128 0
	.uleb128 0x20
	.uleb128 0x1
	.byte	0x51
	.uleb128 0x2
	.byte	0x76
	.sleb128 0
	.byte	0
	.uleb128 0x43
	.4byte	.LVL253
	.4byte	0x38c1
	.uleb128 0x20
	.uleb128 0x1
	.byte	0x50
	.uleb128 0x5
	.byte	0xf3
	.uleb128 0x1
	.byte	0x50
	.byte	0x23
	.uleb128 0x4
	.byte	0
	.byte	0
	.uleb128 0x51
	.4byte	.LASF119
	.4byte	.LASF119
	.byte	0x6
	.byte	0x4c
	.byte	0x6
	.uleb128 0x51
	.4byte	.LASF120
	.4byte	.LASF120
	.byte	0x7
	.byte	0x11
	.byte	0x7
	.uleb128 0x52
	.4byte	.LASF123
	.4byte	.LASF128
	.byte	0x8
	.byte	0
	.uleb128 0x51
	.4byte	.LASF121
	.4byte	.LASF121
	.byte	0x7
	.byte	0x16
	.byte	0x6
	.uleb128 0x51
	.4byte	.LASF122
	.4byte	.LASF122
	.byte	0x7
	.byte	0x12
	.byte	0x7
	.uleb128 0x51
	.4byte	.LASF123
	.4byte	.LASF123
	.byte	0x7
	.byte	0x10
	.byte	0x7
	.uleb128 0x51
	.4byte	.LASF124
	.4byte	.LASF124
	.byte	0x7
	.byte	0xe
	.byte	0x6
	.byte	0
	.section	.debug_abbrev,"",%progbits
.Ldebug_abbrev0:
	.uleb128 0x1
	.uleb128 0x11
	.byte	0x1
	.uleb128 0x25
	.uleb128 0xe
	.uleb128 0x13
	.uleb128 0xb
	.uleb128 0x3
	.uleb128 0xe
	.uleb128 0x1b
	.uleb128 0xe
	.uleb128 0x55
	.uleb128 0x17
	.uleb128 0x11
	.uleb128 0x1
	.uleb128 0x10
	.uleb128 0x17
	.byte	0
	.byte	0
	.uleb128 0x2
	.uleb128 0x24
	.byte	0
	.uleb128 0xb
	.uleb128 0xb
	.uleb128 0x3e
	.uleb128 0xb
	.uleb128 0x3
	.uleb128 0xe
	.byte	0
	.byte	0
	.uleb128 0x3
	.uleb128 0x16
	.byte	0
	.uleb128 0x3
	.uleb128 0xe
	.uleb128 0x3a
	.uleb128 0xb
	.uleb128 0x3b
	.uleb128 0xb
	.uleb128 0x39
	.uleb128 0xb
	.uleb128 0x49
	.uleb128 0x13
	.byte	0
	.byte	0
	.uleb128 0x4
	.uleb128 0x26
	.byte	0
	.uleb128 0x49
	.uleb128 0x13
	.byte	0
	.byte	0
	.uleb128 0x5
	.uleb128 0x24
	.byte	0
	.uleb128 0xb
	.uleb128 0xb
	.uleb128 0x3e
	.uleb128 0xb
	.uleb128 0x3
	.uleb128 0x8
	.byte	0
	.byte	0
	.uleb128 0x6
	.uleb128 0x16
	.byte	0
	.uleb128 0x3
	.uleb128 0x8
	.uleb128 0x3a
	.uleb128 0xb
	.uleb128 0x3b
	.uleb128 0xb
	.uleb128 0x39
	.uleb128 0xb
	.uleb128 0x49
	.uleb128 0x13
	.byte	0
	.byte	0
	.uleb128 0x7
	.uleb128 0x35
	.byte	0
	.uleb128 0x49
	.uleb128 0x13
	.byte	0
	.byte	0
	.uleb128 0x8
	.uleb128 0x1
	.byte	0x1
	.uleb128 0x49
	.uleb128 0x13
	.uleb128 0x1
	.uleb128 0x13
	.byte	0
	.byte	0
	.uleb128 0x9
	.uleb128 0x21
	.byte	0
	.uleb128 0x49
	.uleb128 0x13
	.uleb128 0x2f
	.uleb128 0xb
	.byte	0
	.byte	0
	.uleb128 0xa
	.uleb128 0x13
	.byte	0x1
	.uleb128 0x3
	.uleb128 0xe
	.uleb128 0xb
	.uleb128 0xb
	.uleb128 0x3a
	.uleb128 0xb
	.uleb128 0x3b
	.uleb128 0xb
	.uleb128 0x39
	.uleb128 0xb
	.uleb128 0x1
	.uleb128 0x13
	.byte	0
	.byte	0
	.uleb128 0xb
	.uleb128 0xd
	.byte	0
	.uleb128 0x3
	.uleb128 0x8
	.uleb128 0x3a
	.uleb128 0xb
	.uleb128 0x3b
	.uleb128 0xb
	.uleb128 0x39
	.uleb128 0xb
	.uleb128 0x49
	.uleb128 0x13
	.uleb128 0x38
	.uleb128 0xb
	.byte	0
	.byte	0
	.uleb128 0xc
	.uleb128 0x17
	.byte	0x1
	.uleb128 0xb
	.uleb128 0xb
	.uleb128 0x3a
	.uleb128 0xb
	.uleb128 0x3b
	.uleb128 0xb
	.uleb128 0x39
	.uleb128 0xb
	.uleb128 0x1
	.uleb128 0x13
	.byte	0
	.byte	0
	.uleb128 0xd
	.uleb128 0xd
	.byte	0
	.uleb128 0x3
	.uleb128 0x8
	.uleb128 0x3a
	.uleb128 0xb
	.uleb128 0x3b
	.uleb128 0xb
	.uleb128 0x39
	.uleb128 0xb
	.uleb128 0x49
	.uleb128 0x13
	.byte	0
	.byte	0
	.uleb128 0xe
	.uleb128 0xd
	.byte	0
	.uleb128 0x3
	.uleb128 0xe
	.uleb128 0x3a
	.uleb128 0xb
	.uleb128 0x3b
	.uleb128 0xb
	.uleb128 0x39
	.uleb128 0xb
	.uleb128 0x49
	.uleb128 0x13
	.byte	0
	.byte	0
	.uleb128 0xf
	.uleb128 0xd
	.byte	0
	.uleb128 0x3
	.uleb128 0xe
	.uleb128 0x3a
	.uleb128 0xb
	.uleb128 0x3b
	.uleb128 0xb
	.uleb128 0x39
	.uleb128 0xb
	.uleb128 0x49
	.uleb128 0x13
	.uleb128 0x38
	.uleb128 0xb
	.byte	0
	.byte	0
	.uleb128 0x10
	.uleb128 0xf
	.byte	0
	.uleb128 0xb
	.uleb128 0xb
	.uleb128 0x49
	.uleb128 0x13
	.byte	0
	.byte	0
	.uleb128 0x11
	.uleb128 0x4
	.byte	0x1
	.uleb128 0x3e
	.uleb128 0xb
	.uleb128 0xb
	.uleb128 0xb
	.uleb128 0x49
	.uleb128 0x13
	.uleb128 0x3a
	.uleb128 0xb
	.uleb128 0x3b
	.uleb128 0xb
	.uleb128 0x39
	.uleb128 0xb
	.uleb128 0x1
	.uleb128 0x13
	.byte	0
	.byte	0
	.uleb128 0x12
	.uleb128 0x28
	.byte	0
	.uleb128 0x3
	.uleb128 0xe
	.uleb128 0x1c
	.uleb128 0xb
	.byte	0
	.byte	0
	.uleb128 0x13
	.uleb128 0xf
	.byte	0
	.uleb128 0xb
	.uleb128 0xb
	.byte	0
	.byte	0
	.uleb128 0x14
	.uleb128 0x34
	.byte	0
	.uleb128 0x3
	.uleb128 0x8
	.uleb128 0x3a
	.uleb128 0xb
	.uleb128 0x3b
	.uleb128 0xb
	.uleb128 0x39
	.uleb128 0xb
	.uleb128 0x49
	.uleb128 0x13
	.uleb128 0x3f
	.uleb128 0x19
	.uleb128 0x2
	.uleb128 0x18
	.byte	0
	.byte	0
	.uleb128 0x15
	.uleb128 0x34
	.byte	0
	.uleb128 0x3
	.uleb128 0xe
	.uleb128 0x3a
	.uleb128 0xb
	.uleb128 0x3b
	.uleb128 0x5
	.uleb128 0x39
	.uleb128 0xb
	.uleb128 0x49
	.uleb128 0x13
	.uleb128 0x2
	.uleb128 0x18
	.byte	0
	.byte	0
	.uleb128 0x16
	.uleb128 0x34
	.byte	0
	.uleb128 0x3
	.uleb128 0xe
	.uleb128 0x3a
	.uleb128 0xb
	.uleb128 0x3b
	.uleb128 0x5
	.uleb128 0x39
	.uleb128 0xb
	.uleb128 0x49
	.uleb128 0x13
	.uleb128 0x1c
	.uleb128 0x6
	.byte	0
	.byte	0
	.uleb128 0x17
	.uleb128 0x2e
	.byte	0x1
	.uleb128 0x3f
	.uleb128 0x19
	.uleb128 0x3
	.uleb128 0xe
	.uleb128 0x3a
	.uleb128 0xb
	.uleb128 0x3b
	.uleb128 0x5
	.uleb128 0x39
	.uleb128 0xb
	.uleb128 0x27
	.uleb128 0x19
	.uleb128 0x49
	.uleb128 0x13
	.uleb128 0x11
	.uleb128 0x1
	.uleb128 0x12
	.uleb128 0x6
	.uleb128 0x40
	.uleb128 0x18
	.uleb128 0x2117
	.uleb128 0x19
	.uleb128 0x1
	.uleb128 0x13
	.byte	0
	.byte	0
	.uleb128 0x18
	.uleb128 0x5
	.byte	0
	.uleb128 0x3
	.uleb128 0xe
	.uleb128 0x3a
	.uleb128 0xb
	.uleb128 0x3b
	.uleb128 0x5
	.uleb128 0x39
	.uleb128 0xb
	.uleb128 0x49
	.uleb128 0x13
	.uleb128 0x2
	.uleb128 0x17
	.uleb128 0x2137
	.uleb128 0x17
	.byte	0
	.byte	0
	.uleb128 0x19
	.uleb128 0x34
	.byte	0
	.uleb128 0x3
	.uleb128 0xe
	.uleb128 0x3a
	.uleb128 0xb
	.uleb128 0x3b
	.uleb128 0x5
	.uleb128 0x39
	.uleb128 0xb
	.uleb128 0x49
	.uleb128 0x13
	.uleb128 0x2
	.uleb128 0x17
	.uleb128 0x2137
	.uleb128 0x17
	.byte	0
	.byte	0
	.uleb128 0x1a
	.uleb128 0xb
	.byte	0x1
	.uleb128 0x55
	.uleb128 0x17
	.byte	0
	.byte	0
	.uleb128 0x1b
	.uleb128 0x34
	.byte	0
	.uleb128 0x3
	.uleb128 0x8
	.uleb128 0x3a
	.uleb128 0xb
	.uleb128 0x3b
	.uleb128 0x5
	.uleb128 0x39
	.uleb128 0xb
	.uleb128 0x49
	.uleb128 0x13
	.uleb128 0x2
	.uleb128 0x17
	.uleb128 0x2137
	.uleb128 0x17
	.byte	0
	.byte	0
	.uleb128 0x1c
	.uleb128 0x5
	.byte	0
	.uleb128 0x3
	.uleb128 0xe
	.uleb128 0x3a
	.uleb128 0xb
	.uleb128 0x3b
	.uleb128 0x5
	.uleb128 0x39
	.uleb128 0xb
	.uleb128 0x49
	.uleb128 0x13
	.uleb128 0x2
	.uleb128 0x18
	.byte	0
	.byte	0
	.uleb128 0x1d
	.uleb128 0x5
	.byte	0
	.uleb128 0x3
	.uleb128 0x8
	.uleb128 0x3a
	.uleb128 0xb
	.uleb128 0x3b
	.uleb128 0x5
	.uleb128 0x39
	.uleb128 0xb
	.uleb128 0x49
	.uleb128 0x13
	.uleb128 0x2
	.uleb128 0x18
	.byte	0
	.byte	0
	.uleb128 0x1e
	.uleb128 0x5
	.byte	0
	.uleb128 0x3
	.uleb128 0x8
	.uleb128 0x3a
	.uleb128 0xb
	.uleb128 0x3b
	.uleb128 0x5
	.uleb128 0x39
	.uleb128 0xb
	.uleb128 0x49
	.uleb128 0x13
	.uleb128 0x2
	.uleb128 0x17
	.uleb128 0x2137
	.uleb128 0x17
	.byte	0
	.byte	0
	.uleb128 0x1f
	.uleb128 0x4109
	.byte	0x1
	.uleb128 0x11
	.uleb128 0x1
	.uleb128 0x31
	.uleb128 0x13
	.byte	0
	.byte	0
	.uleb128 0x20
	.uleb128 0x410a
	.byte	0
	.uleb128 0x2
	.uleb128 0x18
	.uleb128 0x2111
	.uleb128 0x18
	.byte	0
	.byte	0
	.uleb128 0x21
	.uleb128 0x2e
	.byte	0x1
	.uleb128 0x3
	.uleb128 0x8
	.uleb128 0x3a
	.uleb128 0xb
	.uleb128 0x3b
	.uleb128 0x5
	.uleb128 0x39
	.uleb128 0xb
	.uleb128 0x27
	.uleb128 0x19
	.uleb128 0x49
	.uleb128 0x13
	.uleb128 0x11
	.uleb128 0x1
	.uleb128 0x12
	.uleb128 0x6
	.uleb128 0x40
	.uleb128 0x18
	.uleb128 0x2117
	.uleb128 0x19
	.uleb128 0x1
	.uleb128 0x13
	.byte	0
	.byte	0
	.uleb128 0x22
	.uleb128 0x34
	.byte	0
	.uleb128 0x3
	.uleb128 0x8
	.uleb128 0x3a
	.uleb128 0xb
	.uleb128 0x3b
	.uleb128 0x5
	.uleb128 0x39
	.uleb128 0xb
	.uleb128 0x49
	.uleb128 0x13
	.uleb128 0x2
	.uleb128 0x18
	.byte	0
	.byte	0
	.uleb128 0x23
	.uleb128 0xb
	.byte	0x1
	.uleb128 0x55
	.uleb128 0x17
	.uleb128 0x1
	.uleb128 0x13
	.byte	0
	.byte	0
	.uleb128 0x24
	.uleb128 0x1d
	.byte	0x1
	.uleb128 0x31
	.uleb128 0x13
	.uleb128 0x52
	.uleb128 0x1
	.uleb128 0x2138
	.uleb128 0x5
	.uleb128 0x55
	.uleb128 0x17
	.uleb128 0x58
	.uleb128 0xb
	.uleb128 0x59
	.uleb128 0x5
	.uleb128 0x57
	.uleb128 0xb
	.uleb128 0x1
	.uleb128 0x13
	.byte	0
	.byte	0
	.uleb128 0x25
	.uleb128 0x5
	.byte	0
	.uleb128 0x31
	.uleb128 0x13
	.uleb128 0x2
	.uleb128 0x17
	.uleb128 0x2137
	.uleb128 0x17
	.byte	0
	.byte	0
	.uleb128 0x26
	.uleb128 0x4109
	.byte	0x1
	.uleb128 0x11
	.uleb128 0x1
	.uleb128 0x31
	.uleb128 0x13
	.uleb128 0x1
	.uleb128 0x13
	.byte	0
	.byte	0
	.uleb128 0x27
	.uleb128 0x1d
	.byte	0x1
	.uleb128 0x31
	.uleb128 0x13
	.uleb128 0x52
	.uleb128 0x1
	.uleb128 0x2138
	.uleb128 0x5
	.uleb128 0x11
	.uleb128 0x1
	.uleb128 0x12
	.uleb128 0x6
	.uleb128 0x58
	.uleb128 0xb
	.uleb128 0x59
	.uleb128 0x5
	.uleb128 0x57
	.uleb128 0xb
	.uleb128 0x1
	.uleb128 0x13
	.byte	0
	.byte	0
	.uleb128 0x28
	.uleb128 0x4109
	.byte	0
	.uleb128 0x11
	.uleb128 0x1
	.uleb128 0x31
	.uleb128 0x13
	.byte	0
	.byte	0
	.uleb128 0x29
	.uleb128 0x34
	.byte	0
	.uleb128 0x31
	.uleb128 0x13
	.uleb128 0x2
	.uleb128 0x17
	.uleb128 0x2137
	.uleb128 0x17
	.byte	0
	.byte	0
	.uleb128 0x2a
	.uleb128 0x2e
	.byte	0x1
	.uleb128 0x3
	.uleb128 0xe
	.uleb128 0x3a
	.uleb128 0xb
	.uleb128 0x3b
	.uleb128 0x5
	.uleb128 0x39
	.uleb128 0xb
	.uleb128 0x27
	.uleb128 0x19
	.uleb128 0x49
	.uleb128 0x13
	.uleb128 0x20
	.uleb128 0xb
	.uleb128 0x1
	.uleb128 0x13
	.byte	0
	.byte	0
	.uleb128 0x2b
	.uleb128 0x5
	.byte	0
	.uleb128 0x3
	.uleb128 0x8
	.uleb128 0x3a
	.uleb128 0xb
	.uleb128 0x3b
	.uleb128 0x5
	.uleb128 0x39
	.uleb128 0xb
	.uleb128 0x49
	.uleb128 0x13
	.byte	0
	.byte	0
	.uleb128 0x2c
	.uleb128 0x5
	.byte	0
	.uleb128 0x3
	.uleb128 0xe
	.uleb128 0x3a
	.uleb128 0xb
	.uleb128 0x3b
	.uleb128 0x5
	.uleb128 0x39
	.uleb128 0xb
	.uleb128 0x49
	.uleb128 0x13
	.byte	0
	.byte	0
	.uleb128 0x2d
	.uleb128 0x34
	.byte	0
	.uleb128 0x3
	.uleb128 0x8
	.uleb128 0x3a
	.uleb128 0xb
	.uleb128 0x3b
	.uleb128 0x5
	.uleb128 0x39
	.uleb128 0xb
	.uleb128 0x49
	.uleb128 0x13
	.byte	0
	.byte	0
	.uleb128 0x2e
	.uleb128 0x2e
	.byte	0x1
	.uleb128 0x3
	.uleb128 0xe
	.uleb128 0x3a
	.uleb128 0xb
	.uleb128 0x3b
	.uleb128 0x5
	.uleb128 0x39
	.uleb128 0xb
	.uleb128 0x27
	.uleb128 0x19
	.uleb128 0x20
	.uleb128 0xb
	.uleb128 0x1
	.uleb128 0x13
	.byte	0
	.byte	0
	.uleb128 0x2f
	.uleb128 0x2e
	.byte	0x1
	.uleb128 0x3
	.uleb128 0x8
	.uleb128 0x3a
	.uleb128 0xb
	.uleb128 0x3b
	.uleb128 0x5
	.uleb128 0x39
	.uleb128 0xb
	.uleb128 0x27
	.uleb128 0x19
	.uleb128 0x49
	.uleb128 0x13
	.uleb128 0x20
	.uleb128 0xb
	.uleb128 0x1
	.uleb128 0x13
	.byte	0
	.byte	0
	.uleb128 0x30
	.uleb128 0x2e
	.byte	0x1
	.uleb128 0x3f
	.uleb128 0x19
	.uleb128 0x3
	.uleb128 0xe
	.uleb128 0x3a
	.uleb128 0xb
	.uleb128 0x3b
	.uleb128 0x5
	.uleb128 0x39
	.uleb128 0xb
	.uleb128 0x27
	.uleb128 0x19
	.uleb128 0x11
	.uleb128 0x1
	.uleb128 0x12
	.uleb128 0x6
	.uleb128 0x40
	.uleb128 0x18
	.uleb128 0x2117
	.uleb128 0x19
	.uleb128 0x1
	.uleb128 0x13
	.byte	0
	.byte	0
	.uleb128 0x31
	.uleb128 0x34
	.byte	0
	.uleb128 0x3
	.uleb128 0xe
	.uleb128 0x3a
	.uleb128 0xb
	.uleb128 0x3b
	.uleb128 0x5
	.uleb128 0x39
	.uleb128 0xb
	.uleb128 0x49
	.uleb128 0x13
	.uleb128 0x1c
	.uleb128 0xb
	.byte	0
	.byte	0
	.uleb128 0x32
	.uleb128 0xb
	.byte	0x1
	.uleb128 0x11
	.uleb128 0x1
	.uleb128 0x12
	.uleb128 0x6
	.uleb128 0x1
	.uleb128 0x13
	.byte	0
	.byte	0
	.uleb128 0x33
	.uleb128 0xb
	.byte	0x1
	.uleb128 0x31
	.uleb128 0x13
	.uleb128 0x11
	.uleb128 0x1
	.uleb128 0x12
	.uleb128 0x6
	.byte	0
	.byte	0
	.uleb128 0x34
	.uleb128 0xb
	.byte	0x1
	.uleb128 0x31
	.uleb128 0x13
	.uleb128 0x55
	.uleb128 0x17
	.byte	0
	.byte	0
	.uleb128 0x35
	.uleb128 0x34
	.byte	0
	.uleb128 0x3
	.uleb128 0xe
	.uleb128 0x3a
	.uleb128 0xb
	.uleb128 0x3b
	.uleb128 0x5
	.uleb128 0x39
	.uleb128 0xb
	.uleb128 0x49
	.uleb128 0x13
	.byte	0
	.byte	0
	.uleb128 0x36
	.uleb128 0x5
	.byte	0
	.uleb128 0x31
	.uleb128 0x13
	.byte	0
	.byte	0
	.uleb128 0x37
	.uleb128 0x34
	.byte	0
	.uleb128 0x31
	.uleb128 0x13
	.uleb128 0x2
	.uleb128 0x18
	.byte	0
	.byte	0
	.uleb128 0x38
	.uleb128 0x34
	.byte	0
	.uleb128 0x31
	.uleb128 0x13
	.byte	0
	.byte	0
	.uleb128 0x39
	.uleb128 0xb
	.byte	0x1
	.uleb128 0x31
	.uleb128 0x13
	.uleb128 0x55
	.uleb128 0x17
	.uleb128 0x1
	.uleb128 0x13
	.byte	0
	.byte	0
	.uleb128 0x3a
	.uleb128 0xb
	.byte	0x1
	.uleb128 0x1
	.uleb128 0x13
	.byte	0
	.byte	0
	.uleb128 0x3b
	.uleb128 0xb
	.byte	0x1
	.byte	0
	.byte	0
	.uleb128 0x3c
	.uleb128 0x26
	.byte	0
	.byte	0
	.byte	0
	.uleb128 0x3d
	.uleb128 0x4109
	.byte	0x1
	.uleb128 0x11
	.uleb128 0x1
	.uleb128 0x2115
	.uleb128 0x19
	.uleb128 0x31
	.uleb128 0x13
	.uleb128 0x1
	.uleb128 0x13
	.byte	0
	.byte	0
	.uleb128 0x3e
	.uleb128 0x2e
	.byte	0x1
	.uleb128 0x3f
	.uleb128 0x19
	.uleb128 0x3
	.uleb128 0xe
	.uleb128 0x3a
	.uleb128 0xb
	.uleb128 0x3b
	.uleb128 0xb
	.uleb128 0x39
	.uleb128 0xb
	.uleb128 0x27
	.uleb128 0x19
	.uleb128 0x49
	.uleb128 0x13
	.uleb128 0x11
	.uleb128 0x1
	.uleb128 0x12
	.uleb128 0x6
	.uleb128 0x40
	.uleb128 0x18
	.uleb128 0x2117
	.uleb128 0x19
	.uleb128 0x1
	.uleb128 0x13
	.byte	0
	.byte	0
	.uleb128 0x3f
	.uleb128 0x5
	.byte	0
	.uleb128 0x3
	.uleb128 0x8
	.uleb128 0x3a
	.uleb128 0xb
	.uleb128 0x3b
	.uleb128 0xb
	.uleb128 0x39
	.uleb128 0xb
	.uleb128 0x49
	.uleb128 0x13
	.uleb128 0x2
	.uleb128 0x17
	.uleb128 0x2137
	.uleb128 0x17
	.byte	0
	.byte	0
	.uleb128 0x40
	.uleb128 0x5
	.byte	0
	.uleb128 0x3
	.uleb128 0xe
	.uleb128 0x3a
	.uleb128 0xb
	.uleb128 0x3b
	.uleb128 0xb
	.uleb128 0x39
	.uleb128 0xb
	.uleb128 0x49
	.uleb128 0x13
	.uleb128 0x2
	.uleb128 0x17
	.uleb128 0x2137
	.uleb128 0x17
	.byte	0
	.byte	0
	.uleb128 0x41
	.uleb128 0x2e
	.byte	0x1
	.uleb128 0x3f
	.uleb128 0x19
	.uleb128 0x3
	.uleb128 0xe
	.uleb128 0x3a
	.uleb128 0xb
	.uleb128 0x3b
	.uleb128 0xb
	.uleb128 0x39
	.uleb128 0xb
	.uleb128 0x27
	.uleb128 0x19
	.uleb128 0x11
	.uleb128 0x1
	.uleb128 0x12
	.uleb128 0x6
	.uleb128 0x40
	.uleb128 0x18
	.uleb128 0x2117
	.uleb128 0x19
	.uleb128 0x1
	.uleb128 0x13
	.byte	0
	.byte	0
	.uleb128 0x42
	.uleb128 0x34
	.byte	0
	.uleb128 0x3
	.uleb128 0x8
	.uleb128 0x3a
	.uleb128 0xb
	.uleb128 0x3b
	.uleb128 0xb
	.uleb128 0x39
	.uleb128 0xb
	.uleb128 0x49
	.uleb128 0x13
	.byte	0
	.byte	0
	.uleb128 0x43
	.uleb128 0x4109
	.byte	0x1
	.uleb128 0x11
	.uleb128 0x1
	.uleb128 0x2115
	.uleb128 0x19
	.uleb128 0x31
	.uleb128 0x13
	.byte	0
	.byte	0
	.uleb128 0x44
	.uleb128 0x34
	.byte	0
	.uleb128 0x3
	.uleb128 0xe
	.uleb128 0x3a
	.uleb128 0xb
	.uleb128 0x3b
	.uleb128 0xb
	.uleb128 0x39
	.uleb128 0xb
	.uleb128 0x49
	.uleb128 0x13
	.byte	0
	.byte	0
	.uleb128 0x45
	.uleb128 0x34
	.byte	0
	.uleb128 0x3
	.uleb128 0x8
	.uleb128 0x3a
	.uleb128 0xb
	.uleb128 0x3b
	.uleb128 0xb
	.uleb128 0x39
	.uleb128 0xb
	.uleb128 0x49
	.uleb128 0x13
	.uleb128 0x2
	.uleb128 0x17
	.uleb128 0x2137
	.uleb128 0x17
	.byte	0
	.byte	0
	.uleb128 0x46
	.uleb128 0x5
	.byte	0
	.uleb128 0x3
	.uleb128 0xe
	.uleb128 0x3a
	.uleb128 0xb
	.uleb128 0x3b
	.uleb128 0xb
	.uleb128 0x39
	.uleb128 0xb
	.uleb128 0x49
	.uleb128 0x13
	.uleb128 0x2
	.uleb128 0x18
	.byte	0
	.byte	0
	.uleb128 0x47
	.uleb128 0x34
	.byte	0
	.uleb128 0x3
	.uleb128 0xe
	.uleb128 0x3a
	.uleb128 0xb
	.uleb128 0x3b
	.uleb128 0xb
	.uleb128 0x39
	.uleb128 0xb
	.uleb128 0x49
	.uleb128 0x13
	.uleb128 0x2
	.uleb128 0x17
	.uleb128 0x2137
	.uleb128 0x17
	.byte	0
	.byte	0
	.uleb128 0x48
	.uleb128 0x2e
	.byte	0x1
	.uleb128 0x3f
	.uleb128 0x19
	.uleb128 0x3
	.uleb128 0xe
	.uleb128 0x3a
	.uleb128 0xb
	.uleb128 0x3b
	.uleb128 0xb
	.uleb128 0x39
	.uleb128 0xb
	.uleb128 0x27
	.uleb128 0x19
	.uleb128 0x20
	.uleb128 0xb
	.uleb128 0x1
	.uleb128 0x13
	.byte	0
	.byte	0
	.uleb128 0x49
	.uleb128 0x5
	.byte	0
	.uleb128 0x3
	.uleb128 0xe
	.uleb128 0x3a
	.uleb128 0xb
	.uleb128 0x3b
	.uleb128 0xb
	.uleb128 0x39
	.uleb128 0xb
	.uleb128 0x49
	.uleb128 0x13
	.byte	0
	.byte	0
	.uleb128 0x4a
	.uleb128 0x2e
	.byte	0x1
	.uleb128 0x3
	.uleb128 0xe
	.uleb128 0x3a
	.uleb128 0xb
	.uleb128 0x3b
	.uleb128 0xb
	.uleb128 0x39
	.uleb128 0xb
	.uleb128 0x27
	.uleb128 0x19
	.uleb128 0x20
	.uleb128 0xb
	.uleb128 0x1
	.uleb128 0x13
	.byte	0
	.byte	0
	.uleb128 0x4b
	.uleb128 0x5
	.byte	0
	.uleb128 0x3
	.uleb128 0x8
	.uleb128 0x3a
	.uleb128 0xb
	.uleb128 0x3b
	.uleb128 0xb
	.uleb128 0x39
	.uleb128 0xb
	.uleb128 0x49
	.uleb128 0x13
	.byte	0
	.byte	0
	.uleb128 0x4c
	.uleb128 0x5
	.byte	0
	.uleb128 0x3
	.uleb128 0x8
	.uleb128 0x3a
	.uleb128 0xb
	.uleb128 0x3b
	.uleb128 0xb
	.uleb128 0x39
	.uleb128 0xb
	.uleb128 0x49
	.uleb128 0x13
	.uleb128 0x2
	.uleb128 0x18
	.byte	0
	.byte	0
	.uleb128 0x4d
	.uleb128 0x2e
	.byte	0x1
	.uleb128 0x31
	.uleb128 0x13
	.uleb128 0x11
	.uleb128 0x1
	.uleb128 0x12
	.uleb128 0x6
	.uleb128 0x40
	.uleb128 0x18
	.uleb128 0x2117
	.uleb128 0x19
	.uleb128 0x1
	.uleb128 0x13
	.byte	0
	.byte	0
	.uleb128 0x4e
	.uleb128 0xb
	.byte	0x1
	.uleb128 0x31
	.uleb128 0x13
	.uleb128 0x11
	.uleb128 0x1
	.uleb128 0x12
	.uleb128 0x6
	.uleb128 0x1
	.uleb128 0x13
	.byte	0
	.byte	0
	.uleb128 0x4f
	.uleb128 0x1d
	.byte	0x1
	.uleb128 0x31
	.uleb128 0x13
	.uleb128 0x11
	.uleb128 0x1
	.uleb128 0x12
	.uleb128 0x6
	.uleb128 0x58
	.uleb128 0xb
	.uleb128 0x59
	.uleb128 0xb
	.uleb128 0x57
	.uleb128 0xb
	.byte	0
	.byte	0
	.uleb128 0x50
	.uleb128 0x1d
	.byte	0x1
	.uleb128 0x31
	.uleb128 0x13
	.uleb128 0x52
	.uleb128 0x1
	.uleb128 0x2138
	.uleb128 0x5
	.uleb128 0x55
	.uleb128 0x17
	.uleb128 0x58
	.uleb128 0xb
	.uleb128 0x59
	.uleb128 0xb
	.uleb128 0x57
	.uleb128 0xb
	.uleb128 0x1
	.uleb128 0x13
	.byte	0
	.byte	0
	.uleb128 0x51
	.uleb128 0x2e
	.byte	0
	.uleb128 0x3f
	.uleb128 0x19
	.uleb128 0x3c
	.uleb128 0x19
	.uleb128 0x6e
	.uleb128 0xe
	.uleb128 0x3
	.uleb128 0xe
	.uleb128 0x3a
	.uleb128 0xb
	.uleb128 0x3b
	.uleb128 0xb
	.uleb128 0x39
	.uleb128 0xb
	.byte	0
	.byte	0
	.uleb128 0x52
	.uleb128 0x2e
	.byte	0
	.uleb128 0x3f
	.uleb128 0x19
	.uleb128 0x3c
	.uleb128 0x19
	.uleb128 0x6e
	.uleb128 0xe
	.uleb128 0x3
	.uleb128 0xe
	.uleb128 0x3a
	.uleb128 0xb
	.uleb128 0x3b
	.uleb128 0xb
	.byte	0
	.byte	0
	.byte	0
	.section	.debug_loc,"",%progbits
.Ldebug_loc0:
.LVUS248:
	.uleb128 0
	.uleb128 .LVU1829
	.uleb128 .LVU1829
	.uleb128 0
.LLST248:
	.4byte	.LVL368
	.4byte	.LVL369
	.2byte	0x1
	.byte	0x51
	.4byte	.LVL369
	.4byte	.LFE35
	.2byte	0x4
	.byte	0xf3
	.uleb128 0x1
	.byte	0x51
	.byte	0x9f
	.4byte	0
	.4byte	0
.LVUS249:
	.uleb128 .LVU1823
	.uleb128 .LVU1829
	.uleb128 .LVU1829
	.uleb128 .LVU1830
	.uleb128 .LVU1830
	.uleb128 .LVU1837
	.uleb128 .LVU1837
	.uleb128 .LVU1839
	.uleb128 .LVU1839
	.uleb128 .LVU1844
.LLST249:
	.4byte	.LVL368
	.4byte	.LVL369
	.2byte	0x8
	.byte	0x30
	.byte	0x9f
	.byte	0x93
	.uleb128 0x4
	.byte	0x30
	.byte	0x9f
	.byte	0x93
	.uleb128 0x4
	.4byte	.LVL369
	.4byte	.LVL370
	.2byte	0x6
	.byte	0x5e
	.byte	0x93
	.uleb128 0x4
	.byte	0x5c
	.byte	0x93
	.uleb128 0x4
	.4byte	.LVL370
	.4byte	.LVL373
	.2byte	0x6
	.byte	0x5e
	.byte	0x93
	.uleb128 0x4
	.byte	0x5c
	.byte	0x93
	.uleb128 0x4
	.4byte	.LVL373
	.4byte	.LVL374
	.2byte	0x5
	.byte	0x93
	.uleb128 0x4
	.byte	0x5c
	.byte	0x93
	.uleb128 0x4
	.4byte	.LVL374
	.4byte	.LVL375
	.2byte	0x6
	.byte	0x5e
	.byte	0x93
	.uleb128 0x4
	.byte	0x5c
	.byte	0x93
	.uleb128 0x4
	.4byte	0
	.4byte	0
.LVUS250:
	.uleb128 .LVU1825
	.uleb128 .LVU1829
	.uleb128 .LVU1830
	.uleb128 .LVU1834
	.uleb128 .LVU1834
	.uleb128 .LVU1836
	.uleb128 .LVU1836
	.uleb128 .LVU1840
	.uleb128 .LVU1840
	.uleb128 0
.LLST250:
	.4byte	.LVL368
	.4byte	.LVL369
	.2byte	0x2
	.byte	0x30
	.byte	0x9f
	.4byte	.LVL370
	.4byte	.LVL371
	.2byte	0x3
	.byte	0x73
	.sleb128 -1
	.byte	0x9f
	.4byte	.LVL371
	.4byte	.LVL372
	.2byte	0x1
	.byte	0x52
	.4byte	.LVL372
	.4byte	.LVL374
	.2byte	0x3
	.byte	0x73
	.sleb128 -1
	.byte	0x9f
	.4byte	.LVL374
	.4byte	.LFE35
	.2byte	0x1
	.byte	0x53
	.4byte	0
	.4byte	0
.LVUS247:
	.uleb128 .LVU1813
	.uleb128 .LVU1814
	.uleb128 .LVU1816
	.uleb128 .LVU1818
.LLST247:
	.4byte	.LVL364
	.4byte	.LVL365
	.2byte	0xc
	.byte	0x91
	.sleb128 -40
	.byte	0x6
	.byte	0x91
	.sleb128 -28
	.byte	0x6
	.byte	0x27
	.byte	0x9f
	.byte	0x93
	.uleb128 0x4
	.byte	0x93
	.uleb128 0x4
	.4byte	.LVL366
	.4byte	.LVL367
	.2byte	0x5
	.byte	0x93
	.uleb128 0x4
	.byte	0x51
	.byte	0x93
	.uleb128 0x4
	.4byte	0
	.4byte	0
.LVUS246:
	.uleb128 0
	.uleb128 .LVU1808
	.uleb128 .LVU1808
	.uleb128 0
.LLST246:
	.4byte	.LVL361
	.4byte	.LVL362-1
	.2byte	0x1
	.byte	0x51
	.4byte	.LVL362-1
	.4byte	.LFE33
	.2byte	0x4
	.byte	0xf3
	.uleb128 0x1
	.byte	0x51
	.byte	0x9f
	.4byte	0
	.4byte	0
.LVUS245:
	.uleb128 0
	.uleb128 .LVU1801
	.uleb128 .LVU1801
	.uleb128 0
.LLST245:
	.4byte	.LVL359
	.4byte	.LVL360-1
	.2byte	0x1
	.byte	0x51
	.4byte	.LVL360-1
	.4byte	.LFE32
	.2byte	0x4
	.byte	0xf3
	.uleb128 0x1
	.byte	0x51
	.byte	0x9f
	.4byte	0
	.4byte	0
.LVUS0:
	.uleb128 0
	.uleb128 .LVU13
	.uleb128 .LVU13
	.uleb128 .LVU21
	.uleb128 .LVU21
	.uleb128 .LVU1172
	.uleb128 .LVU1172
	.uleb128 .LVU1174
	.uleb128 .LVU1174
	.uleb128 .LVU1188
	.uleb128 .LVU1188
	.uleb128 0
.LLST0:
	.4byte	.LVL0
	.4byte	.LVL4-1
	.2byte	0x1
	.byte	0x51
	.4byte	.LVL4-1
	.4byte	.LVL5
	.2byte	0x1
	.byte	0x54
	.4byte	.LVL5
	.4byte	.LVL152
	.2byte	0x4
	.byte	0xf3
	.uleb128 0x1
	.byte	0x51
	.byte	0x9f
	.4byte	.LVL152
	.4byte	.LVL153
	.2byte	0x1
	.byte	0x54
	.4byte	.LVL153
	.4byte	.LVL159
	.2byte	0x3
	.byte	0x74
	.sleb128 -12
	.byte	0x9f
	.4byte	.LVL159
	.4byte	.LFE31
	.2byte	0x4
	.byte	0xf3
	.uleb128 0x1
	.byte	0x51
	.byte	0x9f
	.4byte	0
	.4byte	0
.LVUS1:
	.uleb128 .LVU6
	.uleb128 .LVU7
	.uleb128 .LVU7
	.uleb128 .LVU8
	.uleb128 .LVU8
	.uleb128 .LVU13
	.uleb128 .LVU13
	.uleb128 .LVU1160
	.uleb128 .LVU1160
	.uleb128 .LVU1162
	.uleb128 .LVU1162
	.uleb128 .LVU1169
	.uleb128 .LVU1169
	.uleb128 .LVU1171
	.uleb128 .LVU1171
	.uleb128 0
.LLST1:
	.4byte	.LVL1
	.4byte	.LVL2
	.2byte	0x5
	.byte	0x52
	.byte	0x93
	.uleb128 0x4
	.byte	0x93
	.uleb128 0x4
	.4byte	.LVL2
	.4byte	.LVL3
	.2byte	0x7
	.byte	0x91
	.sleb128 -352
	.byte	0x93
	.uleb128 0x4
	.byte	0x93
	.uleb128 0x4
	.4byte	.LVL3
	.4byte	.LVL4-1
	.2byte	0x8
	.byte	0x91
	.sleb128 -352
	.byte	0x93
	.uleb128 0x4
	.byte	0x53
	.byte	0x93
	.uleb128 0x4
	.4byte	.LVL4-1
	.4byte	.LVL145
	.2byte	0xa
	.byte	0x91
	.sleb128 -352
	.byte	0x93
	.uleb128 0x4
	.byte	0x91
	.sleb128 -348
	.byte	0x93
	.uleb128 0x4
	.4byte	.LVL145
	.4byte	.LVL146
	.2byte	0x8
	.byte	0x55
	.byte	0x93
	.uleb128 0x4
	.byte	0x91
	.sleb128 -348
	.byte	0x93
	.uleb128 0x4
	.4byte	.LVL146
	.4byte	.LVL147
	.2byte	0x6
	.byte	0x55
	.byte	0x93
	.uleb128 0x4
	.byte	0x54
	.byte	0x93
	.uleb128 0x4
	.4byte	.LVL147
	.4byte	.LVL150
	.2byte	0x6
	.byte	0x55
	.byte	0x93
	.uleb128 0x4
	.byte	0x54
	.byte	0x93
	.uleb128 0x4
	.4byte	.LVL150
	.4byte	.LFE31
	.2byte	0xa
	.byte	0x91
	.sleb128 -352
	.byte	0x93
	.uleb128 0x4
	.byte	0x91
	.sleb128 -348
	.byte	0x93
	.uleb128 0x4
	.4byte	0
	.4byte	0
.LVUS162:
	.uleb128 .LVU1181
	.uleb128 .LVU1182
.LLST162:
	.4byte	.LVL155
	.4byte	.LVL155
	.2byte	0x2
	.byte	0x30
	.byte	0x9f
	.4byte	0
	.4byte	0
.LVUS2:
	.uleb128 .LVU29
	.uleb128 .LVU32
	.uleb128 .LVU32
	.uleb128 .LVU34
	.uleb128 .LVU34
	.uleb128 .LVU771
	.uleb128 .LVU771
	.uleb128 .LVU789
	.uleb128 .LVU1114
	.uleb128 .LVU1115
	.uleb128 .LVU1115
	.uleb128 .LVU1117
	.uleb128 .LVU1117
	.uleb128 .LVU1156
	.uleb128 .LVU1171
	.uleb128 .LVU1172
	.uleb128 .LVU1188
	.uleb128 0
.LLST2:
	.4byte	.LVL6
	.4byte	.LVL7
	.2byte	0x2
	.byte	0x30
	.byte	0x9f
	.4byte	.LVL7
	.4byte	.LVL8
	.2byte	0x3
	.byte	0x91
	.sleb128 -484
	.4byte	.LVL8
	.4byte	.LVL53
	.2byte	0x3
	.byte	0x91
	.sleb128 -456
	.4byte	.LVL53
	.4byte	.LVL56
	.2byte	0x7
	.byte	0x91
	.sleb128 -456
	.byte	0x6
	.byte	0x23
	.uleb128 0x1
	.byte	0x9f
	.4byte	.LVL131
	.4byte	.LVL132
	.2byte	0x7
	.byte	0x91
	.sleb128 -456
	.byte	0x6
	.byte	0x23
	.uleb128 0x1
	.byte	0x9f
	.4byte	.LVL132
	.4byte	.LVL133
	.2byte	0x1
	.byte	0x53
	.4byte	.LVL133
	.4byte	.LVL144
	.2byte	0x3
	.byte	0x91
	.sleb128 -456
	.4byte	.LVL150
	.4byte	.LVL152
	.2byte	0x7
	.byte	0x91
	.sleb128 -456
	.byte	0x6
	.byte	0x23
	.uleb128 0x1
	.byte	0x9f
	.4byte	.LVL159
	.4byte	.LFE31
	.2byte	0x3
	.byte	0x91
	.sleb128 -456
	.4byte	0
	.4byte	0
.LVUS99:
	.uleb128 .LVU1127
	.uleb128 .LVU1129
.LLST99:
	.4byte	.LVL135
	.4byte	.LVL136
	.2byte	0x2
	.byte	0x30
	.byte	0x9f
	.4byte	0
	.4byte	0
.LVUS100:
	.uleb128 .LVU1141
	.uleb128 .LVU1143
	.uleb128 .LVU1143
	.uleb128 .LVU1144
	.uleb128 .LVU1144
	.uleb128 .LVU1153
	.uleb128 .LVU1153
	.uleb128 .LVU1156
.LLST100:
	.4byte	.LVL139
	.4byte	.LVL140
	.2byte	0x2
	.byte	0x38
	.byte	0x9f
	.4byte	.LVL140
	.4byte	.LVL141
	.2byte	0x9
	.byte	0x75
	.sleb128 0
	.byte	0x3
	.4byte	K_MAP-1
	.byte	0x1c
	.byte	0x9f
	.4byte	.LVL141
	.4byte	.LVL142
	.2byte	0x9
	.byte	0x75
	.sleb128 0
	.byte	0x3
	.4byte	K_MAP
	.byte	0x1c
	.byte	0x9f
	.4byte	.LVL142
	.4byte	.LVL144
	.2byte	0x9
	.byte	0x75
	.sleb128 0
	.byte	0x3
	.4byte	K_MAP-1
	.byte	0x1c
	.byte	0x9f
	.4byte	0
	.4byte	0
.LVUS101:
	.uleb128 .LVU1146
	.uleb128 .LVU1148
.LLST101:
	.4byte	.LVL141
	.4byte	.LVL141
	.2byte	0x9
	.byte	0x75
	.sleb128 0
	.byte	0x3
	.4byte	K_MAP
	.byte	0x1c
	.byte	0x9f
	.4byte	0
	.4byte	0
.LVUS102:
	.uleb128 .LVU1146
	.uleb128 .LVU1148
.LLST102:
	.4byte	.LVL141
	.4byte	.LVL141
	.2byte	0x4
	.byte	0x91
	.sleb128 -344
	.byte	0x9f
	.4byte	0
	.4byte	0
.LVUS104:
	.uleb128 .LVU1208
	.uleb128 .LVU1210
.LLST104:
	.4byte	.LVL164
	.4byte	.LVL165
	.2byte	0x2
	.byte	0x30
	.byte	0x9f
	.4byte	0
	.4byte	0
.LVUS106:
	.uleb128 .LVU1255
	.uleb128 .LVU1256
.LLST106:
	.4byte	.LVL173
	.4byte	.LVL174
	.2byte	0x2
	.byte	0x30
	.byte	0x9f
	.4byte	0
	.4byte	0
.LVUS107:
	.uleb128 .LVU1269
	.uleb128 .LVU1271
	.uleb128 .LVU1271
	.uleb128 .LVU1272
	.uleb128 .LVU1272
	.uleb128 .LVU1281
	.uleb128 .LVU1281
	.uleb128 .LVU1284
.LLST107:
	.4byte	.LVL177
	.4byte	.LVL178
	.2byte	0x2
	.byte	0x30
	.byte	0x9f
	.4byte	.LVL178
	.4byte	.LVL179
	.2byte	0x9
	.byte	0x77
	.sleb128 0
	.byte	0x3
	.4byte	K_MAP-1
	.byte	0x1c
	.byte	0x9f
	.4byte	.LVL179
	.4byte	.LVL180
	.2byte	0x9
	.byte	0x77
	.sleb128 0
	.byte	0x3
	.4byte	K_MAP
	.byte	0x1c
	.byte	0x9f
	.4byte	.LVL180
	.4byte	.LVL182
	.2byte	0x9
	.byte	0x77
	.sleb128 0
	.byte	0x3
	.4byte	K_MAP-1
	.byte	0x1c
	.byte	0x9f
	.4byte	0
	.4byte	0
.LVUS108:
	.uleb128 .LVU1274
	.uleb128 .LVU1276
.LLST108:
	.4byte	.LVL179
	.4byte	.LVL179
	.2byte	0x9
	.byte	0x77
	.sleb128 0
	.byte	0x3
	.4byte	K_MAP
	.byte	0x1c
	.byte	0x9f
	.4byte	0
	.4byte	0
.LVUS109:
	.uleb128 .LVU1274
	.uleb128 .LVU1276
.LLST109:
	.4byte	.LVL179
	.4byte	.LVL179
	.2byte	0x4
	.byte	0x91
	.sleb128 -328
	.byte	0x9f
	.4byte	0
	.4byte	0
.LVUS105:
	.uleb128 .LVU1229
	.uleb128 .LVU1230
.LLST105:
	.4byte	.LVL169
	.4byte	.LVL170
	.2byte	0x2
	.byte	0x30
	.byte	0x9f
	.4byte	0
	.4byte	0
.LVUS113:
	.uleb128 .LVU1353
	.uleb128 .LVU1355
.LLST113:
	.4byte	.LVL196
	.4byte	.LVL197
	.2byte	0x2
	.byte	0x34
	.byte	0x9f
	.4byte	0
	.4byte	0
.LVUS112:
	.uleb128 .LVU1332
	.uleb128 .LVU1334
.LLST112:
	.4byte	.LVL191
	.4byte	.LVL192
	.2byte	0x2
	.byte	0x30
	.byte	0x9f
	.4byte	0
	.4byte	0
.LVUS111:
	.uleb128 .LVU1319
	.uleb128 .LVU1320
.LLST111:
	.4byte	.LVL187
	.4byte	.LVL188
	.2byte	0x2
	.byte	0x38
	.byte	0x9f
	.4byte	0
	.4byte	0
.LVUS110:
	.uleb128 .LVU1291
	.uleb128 .LVU1292
.LLST110:
	.4byte	.LVL183
	.4byte	.LVL184
	.2byte	0x2
	.byte	0x30
	.byte	0x9f
	.4byte	0
	.4byte	0
.LVUS103:
	.uleb128 .LVU1195
	.uleb128 .LVU1196
.LLST103:
	.4byte	.LVL160
	.4byte	.LVL161
	.2byte	0x2
	.byte	0x3c
	.byte	0x9f
	.4byte	0
	.4byte	0
.LVUS3:
	.uleb128 .LVU35
	.uleb128 .LVU37
.LLST3:
	.4byte	.LVL8
	.4byte	.LVL8
	.2byte	0x2
	.byte	0x3d
	.byte	0x9f
	.4byte	0
	.4byte	0
.LVUS4:
	.uleb128 .LVU35
	.uleb128 .LVU37
.LLST4:
	.4byte	.LVL8
	.4byte	.LVL8
	.2byte	0x4
	.byte	0x91
	.sleb128 -344
	.byte	0x9f
	.4byte	0
	.4byte	0
.LVUS5:
	.uleb128 .LVU37
	.uleb128 .LVU40
.LLST5:
	.4byte	.LVL8
	.4byte	.LVL8
	.2byte	0x2
	.byte	0x3f
	.byte	0x9f
	.4byte	0
	.4byte	0
.LVUS6:
	.uleb128 .LVU37
	.uleb128 .LVU40
.LLST6:
	.4byte	.LVL8
	.4byte	.LVL8
	.2byte	0x4
	.byte	0x91
	.sleb128 -344
	.byte	0x9f
	.4byte	0
	.4byte	0
.LVUS7:
	.uleb128 .LVU40
	.uleb128 .LVU43
.LLST7:
	.4byte	.LVL8
	.4byte	.LVL8
	.2byte	0x2
	.byte	0x3c
	.byte	0x9f
	.4byte	0
	.4byte	0
.LVUS8:
	.uleb128 .LVU40
	.uleb128 .LVU43
.LLST8:
	.4byte	.LVL8
	.4byte	.LVL8
	.2byte	0x4
	.byte	0x91
	.sleb128 -344
	.byte	0x9f
	.4byte	0
	.4byte	0
.LVUS9:
	.uleb128 .LVU43
	.uleb128 .LVU46
.LLST9:
	.4byte	.LVL8
	.4byte	.LVL8
	.2byte	0x2
	.byte	0x3e
	.byte	0x9f
	.4byte	0
	.4byte	0
.LVUS10:
	.uleb128 .LVU43
	.uleb128 .LVU46
.LLST10:
	.4byte	.LVL8
	.4byte	.LVL8
	.2byte	0x4
	.byte	0x91
	.sleb128 -344
	.byte	0x9f
	.4byte	0
	.4byte	0
.LVUS11:
	.uleb128 .LVU46
	.uleb128 .LVU49
.LLST11:
	.4byte	.LVL8
	.4byte	.LVL8
	.2byte	0x2
	.byte	0x38
	.byte	0x9f
	.4byte	0
	.4byte	0
.LVUS12:
	.uleb128 .LVU46
	.uleb128 .LVU49
.LLST12:
	.4byte	.LVL8
	.4byte	.LVL8
	.2byte	0x4
	.byte	0x91
	.sleb128 -344
	.byte	0x9f
	.4byte	0
	.4byte	0
.LVUS13:
	.uleb128 .LVU97
	.uleb128 .LVU99
.LLST13:
	.4byte	.LVL9
	.4byte	.LVL9
	.2byte	0x2
	.byte	0x3a
	.byte	0x9f
	.4byte	0
	.4byte	0
.LVUS14:
	.uleb128 .LVU97
	.uleb128 .LVU99
.LLST14:
	.4byte	.LVL9
	.4byte	.LVL9
	.2byte	0x4
	.byte	0x91
	.sleb128 -344
	.byte	0x9f
	.4byte	0
	.4byte	0
.LVUS15:
	.uleb128 .LVU117
	.uleb128 .LVU119
.LLST15:
	.4byte	.LVL12
	.4byte	.LVL12
	.2byte	0x2
	.byte	0x39
	.byte	0x9f
	.4byte	0
	.4byte	0
.LVUS16:
	.uleb128 .LVU117
	.uleb128 .LVU119
.LLST16:
	.4byte	.LVL12
	.4byte	.LVL12
	.2byte	0x4
	.byte	0x91
	.sleb128 -344
	.byte	0x9f
	.4byte	0
	.4byte	0
.LVUS17:
	.uleb128 .LVU147
	.uleb128 .LVU149
.LLST17:
	.4byte	.LVL15
	.4byte	.LVL15
	.2byte	0x2
	.byte	0x3b
	.byte	0x9f
	.4byte	0
	.4byte	0
.LVUS18:
	.uleb128 .LVU147
	.uleb128 .LVU149
.LLST18:
	.4byte	.LVL15
	.4byte	.LVL15
	.2byte	0x4
	.byte	0x91
	.sleb128 -344
	.byte	0x9f
	.4byte	0
	.4byte	0
.LVUS19:
	.uleb128 .LVU300
	.uleb128 .LVU302
.LLST19:
	.4byte	.LVL25
	.4byte	.LVL25
	.2byte	0x2
	.byte	0x33
	.byte	0x9f
	.4byte	0
	.4byte	0
.LVUS20:
	.uleb128 .LVU300
	.uleb128 .LVU302
.LLST20:
	.4byte	.LVL25
	.4byte	.LVL25
	.2byte	0x4
	.byte	0x91
	.sleb128 -344
	.byte	0x9f
	.4byte	0
	.4byte	0
.LVUS21:
	.uleb128 .LVU312
	.uleb128 .LVU314
.LLST21:
	.4byte	.LVL26
	.4byte	.LVL26
	.2byte	0x2
	.byte	0x32
	.byte	0x9f
	.4byte	0
	.4byte	0
.LVUS22:
	.uleb128 .LVU312
	.uleb128 .LVU314
.LLST22:
	.4byte	.LVL26
	.4byte	.LVL26
	.2byte	0x4
	.byte	0x91
	.sleb128 -344
	.byte	0x9f
	.4byte	0
	.4byte	0
.LVUS23:
	.uleb128 .LVU314
	.uleb128 .LVU317
.LLST23:
	.4byte	.LVL26
	.4byte	.LVL26
	.2byte	0x2
	.byte	0x3c
	.byte	0x9f
	.4byte	0
	.4byte	0
.LVUS24:
	.uleb128 .LVU314
	.uleb128 .LVU317
.LLST24:
	.4byte	.LVL26
	.4byte	.LVL26
	.2byte	0x4
	.byte	0x91
	.sleb128 -344
	.byte	0x9f
	.4byte	0
	.4byte	0
.LVUS25:
	.uleb128 .LVU328
	.uleb128 .LVU330
.LLST25:
	.4byte	.LVL27
	.4byte	.LVL27
	.2byte	0x2
	.byte	0x3d
	.byte	0x9f
	.4byte	0
	.4byte	0
.LVUS26:
	.uleb128 .LVU328
	.uleb128 .LVU330
.LLST26:
	.4byte	.LVL27
	.4byte	.LVL27
	.2byte	0x4
	.byte	0x91
	.sleb128 -344
	.byte	0x9f
	.4byte	0
	.4byte	0
.LVUS27:
	.uleb128 .LVU342
	.uleb128 .LVU344
.LLST27:
	.4byte	.LVL28
	.4byte	.LVL28
	.2byte	0x2
	.byte	0x38
	.byte	0x9f
	.4byte	0
	.4byte	0
.LVUS28:
	.uleb128 .LVU342
	.uleb128 .LVU344
.LLST28:
	.4byte	.LVL28
	.4byte	.LVL28
	.2byte	0x4
	.byte	0x91
	.sleb128 -344
	.byte	0x9f
	.4byte	0
	.4byte	0
.LVUS29:
	.uleb128 .LVU362
	.uleb128 .LVU364
.LLST29:
	.4byte	.LVL29
	.4byte	.LVL29
	.2byte	0x2
	.byte	0x31
	.byte	0x9f
	.4byte	0
	.4byte	0
.LVUS30:
	.uleb128 .LVU362
	.uleb128 .LVU364
.LLST30:
	.4byte	.LVL29
	.4byte	.LVL29
	.2byte	0x4
	.byte	0x91
	.sleb128 -344
	.byte	0x9f
	.4byte	0
	.4byte	0
.LVUS31:
	.uleb128 .LVU364
	.uleb128 .LVU367
.LLST31:
	.4byte	.LVL29
	.4byte	.LVL29
	.2byte	0x2
	.byte	0x30
	.byte	0x9f
	.4byte	0
	.4byte	0
.LVUS32:
	.uleb128 .LVU364
	.uleb128 .LVU367
.LLST32:
	.4byte	.LVL29
	.4byte	.LVL29
	.2byte	0x4
	.byte	0x91
	.sleb128 -344
	.byte	0x9f
	.4byte	0
	.4byte	0
.LVUS33:
	.uleb128 .LVU367
	.uleb128 .LVU370
.LLST33:
	.4byte	.LVL29
	.4byte	.LVL29
	.2byte	0x2
	.byte	0x3e
	.byte	0x9f
	.4byte	0
	.4byte	0
.LVUS34:
	.uleb128 .LVU367
	.uleb128 .LVU370
.LLST34:
	.4byte	.LVL29
	.4byte	.LVL29
	.2byte	0x4
	.byte	0x91
	.sleb128 -344
	.byte	0x9f
	.4byte	0
	.4byte	0
.LVUS35:
	.uleb128 .LVU370
	.uleb128 .LVU373
.LLST35:
	.4byte	.LVL29
	.4byte	.LVL29
	.2byte	0x2
	.byte	0x3f
	.byte	0x9f
	.4byte	0
	.4byte	0
.LVUS36:
	.uleb128 .LVU370
	.uleb128 .LVU373
.LLST36:
	.4byte	.LVL29
	.4byte	.LVL29
	.2byte	0x4
	.byte	0x91
	.sleb128 -344
	.byte	0x9f
	.4byte	0
	.4byte	0
.LVUS37:
	.uleb128 .LVU376
	.uleb128 .LVU378
.LLST37:
	.4byte	.LVL29
	.4byte	.LVL29
	.2byte	0x2
	.byte	0x37
	.byte	0x9f
	.4byte	0
	.4byte	0
.LVUS38:
	.uleb128 .LVU376
	.uleb128 .LVU378
.LLST38:
	.4byte	.LVL29
	.4byte	.LVL29
	.2byte	0x4
	.byte	0x91
	.sleb128 -344
	.byte	0x9f
	.4byte	0
	.4byte	0
.LVUS39:
	.uleb128 .LVU378
	.uleb128 .LVU381
.LLST39:
	.4byte	.LVL29
	.4byte	.LVL29
	.2byte	0x2
	.byte	0x36
	.byte	0x9f
	.4byte	0
	.4byte	0
.LVUS40:
	.uleb128 .LVU378
	.uleb128 .LVU381
.LLST40:
	.4byte	.LVL29
	.4byte	.LVL29
	.2byte	0x4
	.byte	0x91
	.sleb128 -344
	.byte	0x9f
	.4byte	0
	.4byte	0
.LVUS41:
	.uleb128 .LVU383
	.uleb128 .LVU385
.LLST41:
	.4byte	.LVL29
	.4byte	.LVL29
	.2byte	0x2
	.byte	0x39
	.byte	0x9f
	.4byte	0
	.4byte	0
.LVUS42:
	.uleb128 .LVU383
	.uleb128 .LVU385
.LLST42:
	.4byte	.LVL29
	.4byte	.LVL29
	.2byte	0x4
	.byte	0x91
	.sleb128 -344
	.byte	0x9f
	.4byte	0
	.4byte	0
.LVUS43:
	.uleb128 .LVU388
	.uleb128 .LVU390
.LLST43:
	.4byte	.LVL29
	.4byte	.LVL29
	.2byte	0x2
	.byte	0x35
	.byte	0x9f
	.4byte	0
	.4byte	0
.LVUS44:
	.uleb128 .LVU388
	.uleb128 .LVU390
.LLST44:
	.4byte	.LVL29
	.4byte	.LVL29
	.2byte	0x4
	.byte	0x91
	.sleb128 -344
	.byte	0x9f
	.4byte	0
	.4byte	0
.LVUS45:
	.uleb128 .LVU390
	.uleb128 .LVU393
.LLST45:
	.4byte	.LVL29
	.4byte	.LVL29
	.2byte	0x2
	.byte	0x34
	.byte	0x9f
	.4byte	0
	.4byte	0
.LVUS46:
	.uleb128 .LVU390
	.uleb128 .LVU393
.LLST46:
	.4byte	.LVL29
	.4byte	.LVL29
	.2byte	0x4
	.byte	0x91
	.sleb128 -344
	.byte	0x9f
	.4byte	0
	.4byte	0
.LVUS47:
	.uleb128 .LVU393
	.uleb128 .LVU396
.LLST47:
	.4byte	.LVL29
	.4byte	.LVL29
	.2byte	0x2
	.byte	0x3a
	.byte	0x9f
	.4byte	0
	.4byte	0
.LVUS48:
	.uleb128 .LVU393
	.uleb128 .LVU396
.LLST48:
	.4byte	.LVL29
	.4byte	.LVL29
	.2byte	0x4
	.byte	0x91
	.sleb128 -344
	.byte	0x9f
	.4byte	0
	.4byte	0
.LVUS49:
	.uleb128 .LVU396
	.uleb128 .LVU399
.LLST49:
	.4byte	.LVL29
	.4byte	.LVL29
	.2byte	0x2
	.byte	0x3b
	.byte	0x9f
	.4byte	0
	.4byte	0
.LVUS50:
	.uleb128 .LVU396
	.uleb128 .LVU399
.LLST50:
	.4byte	.LVL29
	.4byte	.LVL29
	.2byte	0x4
	.byte	0x91
	.sleb128 -344
	.byte	0x9f
	.4byte	0
	.4byte	0
.LVUS51:
	.uleb128 .LVU404
	.uleb128 .LVU406
.LLST51:
	.4byte	.LVL30
	.4byte	.LVL30
	.2byte	0x2
	.byte	0x3d
	.byte	0x9f
	.4byte	0
	.4byte	0
.LVUS52:
	.uleb128 .LVU404
	.uleb128 .LVU406
.LLST52:
	.4byte	.LVL30
	.4byte	.LVL30
	.2byte	0x4
	.byte	0x91
	.sleb128 -344
	.byte	0x9f
	.4byte	0
	.4byte	0
.LVUS53:
	.uleb128 .LVU406
	.uleb128 .LVU409
.LLST53:
	.4byte	.LVL30
	.4byte	.LVL30
	.2byte	0x2
	.byte	0x3f
	.byte	0x9f
	.4byte	0
	.4byte	0
.LVUS54:
	.uleb128 .LVU406
	.uleb128 .LVU409
.LLST54:
	.4byte	.LVL30
	.4byte	.LVL30
	.2byte	0x4
	.byte	0x91
	.sleb128 -344
	.byte	0x9f
	.4byte	0
	.4byte	0
.LVUS55:
	.uleb128 .LVU409
	.uleb128 .LVU412
.LLST55:
	.4byte	.LVL30
	.4byte	.LVL30
	.2byte	0x2
	.byte	0x3c
	.byte	0x9f
	.4byte	0
	.4byte	0
.LVUS56:
	.uleb128 .LVU409
	.uleb128 .LVU412
.LLST56:
	.4byte	.LVL30
	.4byte	.LVL30
	.2byte	0x4
	.byte	0x91
	.sleb128 -344
	.byte	0x9f
	.4byte	0
	.4byte	0
.LVUS57:
	.uleb128 .LVU412
	.uleb128 .LVU415
.LLST57:
	.4byte	.LVL30
	.4byte	.LVL30
	.2byte	0x2
	.byte	0x3e
	.byte	0x9f
	.4byte	0
	.4byte	0
.LVUS58:
	.uleb128 .LVU412
	.uleb128 .LVU415
.LLST58:
	.4byte	.LVL30
	.4byte	.LVL30
	.2byte	0x4
	.byte	0x91
	.sleb128 -344
	.byte	0x9f
	.4byte	0
	.4byte	0
.LVUS59:
	.uleb128 .LVU415
	.uleb128 .LVU418
.LLST59:
	.4byte	.LVL30
	.4byte	.LVL30
	.2byte	0x2
	.byte	0x38
	.byte	0x9f
	.4byte	0
	.4byte	0
.LVUS60:
	.uleb128 .LVU415
	.uleb128 .LVU418
.LLST60:
	.4byte	.LVL30
	.4byte	.LVL30
	.2byte	0x4
	.byte	0x91
	.sleb128 -344
	.byte	0x9f
	.4byte	0
	.4byte	0
.LVUS61:
	.uleb128 .LVU468
	.uleb128 .LVU470
.LLST61:
	.4byte	.LVL31
	.4byte	.LVL31
	.2byte	0x2
	.byte	0x3a
	.byte	0x9f
	.4byte	0
	.4byte	0
.LVUS62:
	.uleb128 .LVU468
	.uleb128 .LVU470
.LLST62:
	.4byte	.LVL31
	.4byte	.LVL31
	.2byte	0x4
	.byte	0x91
	.sleb128 -344
	.byte	0x9f
	.4byte	0
	.4byte	0
.LVUS63:
	.uleb128 .LVU479
	.uleb128 .LVU481
.LLST63:
	.4byte	.LVL32
	.4byte	.LVL32
	.2byte	0x2
	.byte	0x39
	.byte	0x9f
	.4byte	0
	.4byte	0
.LVUS64:
	.uleb128 .LVU479
	.uleb128 .LVU481
.LLST64:
	.4byte	.LVL32
	.4byte	.LVL32
	.2byte	0x4
	.byte	0x91
	.sleb128 -344
	.byte	0x9f
	.4byte	0
	.4byte	0
.LVUS65:
	.uleb128 .LVU501
	.uleb128 .LVU503
.LLST65:
	.4byte	.LVL34
	.4byte	.LVL34
	.2byte	0x2
	.byte	0x3b
	.byte	0x9f
	.4byte	0
	.4byte	0
.LVUS66:
	.uleb128 .LVU501
	.uleb128 .LVU503
.LLST66:
	.4byte	.LVL34
	.4byte	.LVL34
	.2byte	0x4
	.byte	0x91
	.sleb128 -344
	.byte	0x9f
	.4byte	0
	.4byte	0
.LVUS67:
	.uleb128 .LVU670
	.uleb128 .LVU672
.LLST67:
	.4byte	.LVL49
	.4byte	.LVL49
	.2byte	0x2
	.byte	0x38
	.byte	0x9f
	.4byte	0
	.4byte	0
.LVUS68:
	.uleb128 .LVU670
	.uleb128 .LVU672
.LLST68:
	.4byte	.LVL49
	.4byte	.LVL49
	.2byte	0x4
	.byte	0x91
	.sleb128 -344
	.byte	0x9f
	.4byte	0
	.4byte	0
.LVUS69:
	.uleb128 .LVU672
	.uleb128 .LVU675
.LLST69:
	.4byte	.LVL49
	.4byte	.LVL49
	.2byte	0x2
	.byte	0x39
	.byte	0x9f
	.4byte	0
	.4byte	0
.LVUS70:
	.uleb128 .LVU672
	.uleb128 .LVU675
.LLST70:
	.4byte	.LVL49
	.4byte	.LVL49
	.2byte	0x4
	.byte	0x91
	.sleb128 -344
	.byte	0x9f
	.4byte	0
	.4byte	0
.LVUS71:
	.uleb128 .LVU675
	.uleb128 .LVU678
.LLST71:
	.4byte	.LVL49
	.4byte	.LVL49
	.2byte	0x2
	.byte	0x37
	.byte	0x9f
	.4byte	0
	.4byte	0
.LVUS72:
	.uleb128 .LVU675
	.uleb128 .LVU678
.LLST72:
	.4byte	.LVL49
	.4byte	.LVL49
	.2byte	0x4
	.byte	0x91
	.sleb128 -344
	.byte	0x9f
	.4byte	0
	.4byte	0
.LVUS73:
	.uleb128 .LVU687
	.uleb128 .LVU689
.LLST73:
	.4byte	.LVL50
	.4byte	.LVL50
	.2byte	0x2
	.byte	0x36
	.byte	0x9f
	.4byte	0
	.4byte	0
.LVUS74:
	.uleb128 .LVU687
	.uleb128 .LVU689
.LLST74:
	.4byte	.LVL50
	.4byte	.LVL50
	.2byte	0x4
	.byte	0x91
	.sleb128 -344
	.byte	0x9f
	.4byte	0
	.4byte	0
.LVUS75:
	.uleb128 .LVU689
	.uleb128 .LVU692
.LLST75:
	.4byte	.LVL50
	.4byte	.LVL50
	.2byte	0x2
	.byte	0x33
	.byte	0x9f
	.4byte	0
	.4byte	0
.LVUS76:
	.uleb128 .LVU689
	.uleb128 .LVU692
.LLST76:
	.4byte	.LVL50
	.4byte	.LVL50
	.2byte	0x4
	.byte	0x91
	.sleb128 -344
	.byte	0x9f
	.4byte	0
	.4byte	0
.LVUS77:
	.uleb128 .LVU727
	.uleb128 .LVU729
.LLST77:
	.4byte	.LVL51
	.4byte	.LVL51
	.2byte	0x2
	.byte	0x3a
	.byte	0x9f
	.4byte	0
	.4byte	0
.LVUS78:
	.uleb128 .LVU727
	.uleb128 .LVU729
.LLST78:
	.4byte	.LVL51
	.4byte	.LVL51
	.2byte	0x4
	.byte	0x91
	.sleb128 -344
	.byte	0x9f
	.4byte	0
	.4byte	0
.LVUS79:
	.uleb128 .LVU729
	.uleb128 .LVU732
.LLST79:
	.4byte	.LVL51
	.4byte	.LVL51
	.2byte	0x2
	.byte	0x3b
	.byte	0x9f
	.4byte	0
	.4byte	0
.LVUS80:
	.uleb128 .LVU729
	.uleb128 .LVU732
.LLST80:
	.4byte	.LVL51
	.4byte	.LVL51
	.2byte	0x4
	.byte	0x91
	.sleb128 -344
	.byte	0x9f
	.4byte	0
	.4byte	0
.LVUS81:
	.uleb128 .LVU732
	.uleb128 .LVU735
.LLST81:
	.4byte	.LVL51
	.4byte	.LVL51
	.2byte	0x2
	.byte	0x35
	.byte	0x9f
	.4byte	0
	.4byte	0
.LVUS82:
	.uleb128 .LVU732
	.uleb128 .LVU735
.LLST82:
	.4byte	.LVL51
	.4byte	.LVL51
	.2byte	0x4
	.byte	0x91
	.sleb128 -344
	.byte	0x9f
	.4byte	0
	.4byte	0
.LVUS83:
	.uleb128 .LVU735
	.uleb128 .LVU738
.LLST83:
	.4byte	.LVL51
	.4byte	.LVL51
	.2byte	0x2
	.byte	0x34
	.byte	0x9f
	.4byte	0
	.4byte	0
.LVUS84:
	.uleb128 .LVU735
	.uleb128 .LVU738
.LLST84:
	.4byte	.LVL51
	.4byte	.LVL51
	.2byte	0x4
	.byte	0x91
	.sleb128 -344
	.byte	0x9f
	.4byte	0
	.4byte	0
.LVUS85:
	.uleb128 .LVU741
	.uleb128 .LVU743
.LLST85:
	.4byte	.LVL51
	.4byte	.LVL51
	.2byte	0x2
	.byte	0x3c
	.byte	0x9f
	.4byte	0
	.4byte	0
.LVUS86:
	.uleb128 .LVU741
	.uleb128 .LVU743
.LLST86:
	.4byte	.LVL51
	.4byte	.LVL51
	.2byte	0x4
	.byte	0x91
	.sleb128 -344
	.byte	0x9f
	.4byte	0
	.4byte	0
.LVUS87:
	.uleb128 .LVU743
	.uleb128 .LVU746
.LLST87:
	.4byte	.LVL51
	.4byte	.LVL51
	.2byte	0x2
	.byte	0x3d
	.byte	0x9f
	.4byte	0
	.4byte	0
.LVUS88:
	.uleb128 .LVU743
	.uleb128 .LVU746
.LLST88:
	.4byte	.LVL51
	.4byte	.LVL51
	.2byte	0x4
	.byte	0x91
	.sleb128 -344
	.byte	0x9f
	.4byte	0
	.4byte	0
.LVUS89:
	.uleb128 .LVU748
	.uleb128 .LVU750
.LLST89:
	.4byte	.LVL51
	.4byte	.LVL51
	.2byte	0x2
	.byte	0x32
	.byte	0x9f
	.4byte	0
	.4byte	0
.LVUS90:
	.uleb128 .LVU748
	.uleb128 .LVU750
.LLST90:
	.4byte	.LVL51
	.4byte	.LVL51
	.2byte	0x4
	.byte	0x91
	.sleb128 -344
	.byte	0x9f
	.4byte	0
	.4byte	0
.LVUS91:
	.uleb128 .LVU755
	.uleb128 .LVU757
.LLST91:
	.4byte	.LVL52
	.4byte	.LVL52
	.2byte	0x2
	.byte	0x3e
	.byte	0x9f
	.4byte	0
	.4byte	0
.LVUS92:
	.uleb128 .LVU755
	.uleb128 .LVU757
.LLST92:
	.4byte	.LVL52
	.4byte	.LVL52
	.2byte	0x4
	.byte	0x91
	.sleb128 -344
	.byte	0x9f
	.4byte	0
	.4byte	0
.LVUS93:
	.uleb128 .LVU757
	.uleb128 .LVU760
.LLST93:
	.4byte	.LVL52
	.4byte	.LVL52
	.2byte	0x2
	.byte	0x3f
	.byte	0x9f
	.4byte	0
	.4byte	0
.LVUS94:
	.uleb128 .LVU757
	.uleb128 .LVU760
.LLST94:
	.4byte	.LVL52
	.4byte	.LVL52
	.2byte	0x4
	.byte	0x91
	.sleb128 -344
	.byte	0x9f
	.4byte	0
	.4byte	0
.LVUS95:
	.uleb128 .LVU760
	.uleb128 .LVU763
.LLST95:
	.4byte	.LVL52
	.4byte	.LVL52
	.2byte	0x2
	.byte	0x31
	.byte	0x9f
	.4byte	0
	.4byte	0
.LVUS96:
	.uleb128 .LVU760
	.uleb128 .LVU763
.LLST96:
	.4byte	.LVL52
	.4byte	.LVL52
	.2byte	0x4
	.byte	0x91
	.sleb128 -344
	.byte	0x9f
	.4byte	0
	.4byte	0
.LVUS97:
	.uleb128 .LVU763
	.uleb128 .LVU766
.LLST97:
	.4byte	.LVL52
	.4byte	.LVL52
	.2byte	0x2
	.byte	0x30
	.byte	0x9f
	.4byte	0
	.4byte	0
.LVUS98:
	.uleb128 .LVU763
	.uleb128 .LVU766
.LLST98:
	.4byte	.LVL52
	.4byte	.LVL52
	.2byte	0x4
	.byte	0x91
	.sleb128 -344
	.byte	0x9f
	.4byte	0
	.4byte	0
.LVUS114:
	.uleb128 .LVU790
	.uleb128 .LVU839
	.uleb128 .LVU839
	.uleb128 .LVU842
	.uleb128 .LVU842
	.uleb128 .LVU844
	.uleb128 .LVU844
	.uleb128 .LVU845
	.uleb128 .LVU846
	.uleb128 .LVU1114
	.uleb128 .LVU1156
	.uleb128 .LVU1171
.LLST114:
	.4byte	.LVL57
	.4byte	.LVL64
	.2byte	0x1
	.byte	0x58
	.4byte	.LVL64
	.4byte	.LVL65
	.2byte	0x1
	.byte	0x54
	.4byte	.LVL65
	.4byte	.LVL66
	.2byte	0x1
	.byte	0x56
	.4byte	.LVL66
	.4byte	.LVL67
	.2byte	0x3
	.byte	0x78
	.sleb128 1
	.byte	0x9f
	.4byte	.LVL68
	.4byte	.LVL131
	.2byte	0x1
	.byte	0x58
	.4byte	.LVL144
	.4byte	.LVL150
	.2byte	0x1
	.byte	0x56
	.4byte	0
	.4byte	0
.LVUS115:
	.uleb128 .LVU790
	.uleb128 .LVU831
	.uleb128 .LVU831
	.uleb128 .LVU839
	.uleb128 .LVU849
	.uleb128 .LVU870
	.uleb128 .LVU870
	.uleb128 .LVU905
	.uleb128 .LVU905
	.uleb128 .LVU922
	.uleb128 .LVU922
	.uleb128 .LVU935
	.uleb128 .LVU987
	.uleb128 .LVU1026
	.uleb128 .LVU1026
	.uleb128 .LVU1038
	.uleb128 .LVU1071
	.uleb128 .LVU1086
.LLST115:
	.4byte	.LVL57
	.4byte	.LVL62
	.2byte	0x1
	.byte	0x57
	.4byte	.LVL62
	.4byte	.LVL64
	.2byte	0x3
	.byte	0x7b
	.sleb128 -16
	.byte	0x9f
	.4byte	.LVL69
	.4byte	.LVL74
	.2byte	0x1
	.byte	0x57
	.4byte	.LVL74
	.4byte	.LVL79
	.2byte	0x3
	.byte	0x7b
	.sleb128 -16
	.byte	0x9f
	.4byte	.LVL79
	.4byte	.LVL84
	.2byte	0x1
	.byte	0x57
	.4byte	.LVL84
	.4byte	.LVL89
	.2byte	0x3
	.byte	0x7b
	.sleb128 -16
	.byte	0x9f
	.4byte	.LVL100
	.4byte	.LVL107
	.2byte	0x1
	.byte	0x57
	.4byte	.LVL107
	.4byte	.LVL112
	.2byte	0x3
	.byte	0x7b
	.sleb128 -16
	.byte	0x9f
	.4byte	.LVL119
	.4byte	.LVL123
	.2byte	0x3
	.byte	0x7b
	.sleb128 -16
	.byte	0x9f
	.4byte	0
	.4byte	0
.LVUS116:
	.uleb128 .LVU790
	.uleb128 .LVU798
	.uleb128 .LVU798
	.uleb128 .LVU831
	.uleb128 .LVU854
	.uleb128 .LVU933
	.uleb128 .LVU987
	.uleb128 .LVU992
	.uleb128 .LVU992
	.uleb128 .LVU1021
	.uleb128 .LVU1021
	.uleb128 .LVU1036
	.uleb128 .LVU1071
	.uleb128 .LVU1084
.LLST116:
	.4byte	.LVL57
	.4byte	.LVL58
	.2byte	0x1
	.byte	0x59
	.4byte	.LVL58
	.4byte	.LVL62
	.2byte	0xa
	.byte	0x77
	.sleb128 0
	.byte	0x32
	.byte	0x24
	.byte	0x91
	.sleb128 -4
	.byte	0x22
	.byte	0x8
	.byte	0xac
	.byte	0x1c
	.4byte	.LVL70
	.4byte	.LVL88
	.2byte	0x1
	.byte	0x59
	.4byte	.LVL100
	.4byte	.LVL101
	.2byte	0x1
	.byte	0x59
	.4byte	.LVL101
	.4byte	.LVL106
	.2byte	0xa
	.byte	0x77
	.sleb128 0
	.byte	0x32
	.byte	0x24
	.byte	0x91
	.sleb128 -4
	.byte	0x22
	.byte	0x8
	.byte	0xac
	.byte	0x1c
	.4byte	.LVL106
	.4byte	.LVL111
	.2byte	0x1
	.byte	0x59
	.4byte	.LVL119
	.4byte	.LVL122
	.2byte	0x1
	.byte	0x59
	.4byte	0
	.4byte	0
.LVUS117:
	.uleb128 .LVU790
	.uleb128 .LVU800
	.uleb128 .LVU800
	.uleb128 .LVU831
	.uleb128 .LVU857
	.uleb128 .LVU930
	.uleb128 .LVU930
	.uleb128 .LVU931
	.uleb128 .LVU931
	.uleb128 .LVU972
	.uleb128 .LVU987
	.uleb128 .LVU993
	.uleb128 .LVU993
	.uleb128 .LVU1021
	.uleb128 .LVU1021
	.uleb128 .LVU1033
	.uleb128 .LVU1033
	.uleb128 .LVU1034
	.uleb128 .LVU1034
	.uleb128 .LVU1071
	.uleb128 .LVU1071
	.uleb128 .LVU1073
	.uleb128 .LVU1073
	.uleb128 .LVU1074
.LLST117:
	.4byte	.LVL57
	.4byte	.LVL59
	.2byte	0x1
	.byte	0x5a
	.4byte	.LVL59
	.4byte	.LVL62
	.2byte	0xe
	.byte	0x7b
	.sleb128 0
	.byte	0x32
	.byte	0x24
	.byte	0x91
	.sleb128 -4
	.byte	0x22
	.byte	0x8
	.byte	0xac
	.byte	0x1c
	.byte	0x6
	.byte	0x4f
	.byte	0x1a
	.byte	0x9f
	.4byte	.LVL71
	.4byte	.LVL86
	.2byte	0x1
	.byte	0x5a
	.4byte	.LVL86
	.4byte	.LVL87-1
	.2byte	0x1
	.byte	0x53
	.4byte	.LVL87-1
	.4byte	.LVL96
	.2byte	0x7
	.byte	0x91
	.sleb128 -464
	.byte	0x6
	.byte	0x4f
	.byte	0x1a
	.byte	0x9f
	.4byte	.LVL100
	.4byte	.LVL102
	.2byte	0x1
	.byte	0x5a
	.4byte	.LVL102
	.4byte	.LVL106
	.2byte	0xe
	.byte	0x7b
	.sleb128 0
	.byte	0x32
	.byte	0x24
	.byte	0x91
	.sleb128 -4
	.byte	0x22
	.byte	0x8
	.byte	0xac
	.byte	0x1c
	.byte	0x6
	.byte	0x4f
	.byte	0x1a
	.byte	0x9f
	.4byte	.LVL106
	.4byte	.LVL109
	.2byte	0x1
	.byte	0x5a
	.4byte	.LVL109
	.4byte	.LVL110-1
	.2byte	0x1
	.byte	0x53
	.4byte	.LVL110-1
	.4byte	.LVL119
	.2byte	0x7
	.byte	0x91
	.sleb128 -464
	.byte	0x6
	.byte	0x4f
	.byte	0x1a
	.byte	0x9f
	.4byte	.LVL119
	.4byte	.LVL120
	.2byte	0x1
	.byte	0x5a
	.4byte	.LVL120
	.4byte	.LVL121-1
	.2byte	0x1
	.byte	0x53
	.4byte	0
	.4byte	0
.LVUS118:
	.uleb128 .LVU790
	.uleb128 .LVU803
	.uleb128 .LVU803
	.uleb128 .LVU827
	.uleb128 .LVU827
	.uleb128 .LVU831
	.uleb128 .LVU860
	.uleb128 .LVU876
	.uleb128 .LVU876
	.uleb128 .LVU901
	.uleb128 .LVU901
	.uleb128 .LVU905
	.uleb128 .LVU909
	.uleb128 .LVU926
	.uleb128 .LVU926
	.uleb128 .LVU944
	.uleb128 .LVU987
	.uleb128 .LVU996
	.uleb128 .LVU996
	.uleb128 .LVU1018
	.uleb128 .LVU1018
	.uleb128 .LVU1021
	.uleb128 .LVU1021
	.uleb128 .LVU1029
	.uleb128 .LVU1029
	.uleb128 .LVU1047
	.uleb128 .LVU1071
	.uleb128 .LVU1087
.LLST118:
	.4byte	.LVL57
	.4byte	.LVL60
	.2byte	0x2
	.byte	0x30
	.byte	0x9f
	.4byte	.LVL60
	.4byte	.LVL61
	.2byte	0x1
	.byte	0x59
	.4byte	.LVL61
	.4byte	.LVL62
	.2byte	0x1a
	.byte	0x77
	.sleb128 0
	.byte	0x32
	.byte	0x24
	.byte	0x91
	.sleb128 -4
	.byte	0x22
	.byte	0x8
	.byte	0xac
	.byte	0x1c
	.byte	0x6
	.byte	0x76
	.sleb128 0
	.byte	0x22
	.byte	0x7a
	.sleb128 0
	.byte	0x14
	.byte	0x14
	.byte	0x1f
	.byte	0x23
	.uleb128 0x20
	.byte	0x24
	.byte	0x17
	.byte	0x25
	.byte	0x21
	.byte	0x9f
	.4byte	.LVL72
	.4byte	.LVL75
	.2byte	0x2
	.byte	0x30
	.byte	0x9f
	.4byte	.LVL75
	.4byte	.LVL77
	.2byte	0x1
	.byte	0x57
	.4byte	.LVL77
	.4byte	.LVL79
	.2byte	0x14
	.byte	0x79
	.sleb128 0
	.byte	0x76
	.sleb128 0
	.byte	0x1c
	.byte	0x8
	.byte	0x20
	.byte	0x7a
	.sleb128 0
	.byte	0x1c
	.byte	0x14
	.byte	0x14
	.byte	0x1f
	.byte	0x23
	.uleb128 0x20
	.byte	0x24
	.byte	0x17
	.byte	0x25
	.byte	0x21
	.byte	0x9f
	.4byte	.LVL82
	.4byte	.LVL85
	.2byte	0x2
	.byte	0x30
	.byte	0x9f
	.4byte	.LVL85
	.4byte	.LVL90
	.2byte	0x1
	.byte	0x57
	.4byte	.LVL100
	.4byte	.LVL103
	.2byte	0x2
	.byte	0x30
	.byte	0x9f
	.4byte	.LVL103
	.4byte	.LVL104
	.2byte	0x1
	.byte	0x59
	.4byte	.LVL104
	.4byte	.LVL106
	.2byte	0x1a
	.byte	0x77
	.sleb128 0
	.byte	0x32
	.byte	0x24
	.byte	0x91
	.sleb128 -4
	.byte	0x22
	.byte	0x8
	.byte	0xac
	.byte	0x1c
	.byte	0x6
	.byte	0x76
	.sleb128 0
	.byte	0x27
	.byte	0x7a
	.sleb128 0
	.byte	0x14
	.byte	0x14
	.byte	0x1f
	.byte	0x23
	.uleb128 0x20
	.byte	0x24
	.byte	0x17
	.byte	0x25
	.byte	0x21
	.byte	0x9f
	.4byte	.LVL106
	.4byte	.LVL108
	.2byte	0x2
	.byte	0x30
	.byte	0x9f
	.4byte	.LVL108
	.4byte	.LVL113
	.2byte	0x1
	.byte	0x57
	.4byte	.LVL119
	.4byte	.LVL124
	.2byte	0x1
	.byte	0x57
	.4byte	0
	.4byte	0
.LVUS119:
	.uleb128 .LVU790
	.uleb128 .LVU829
	.uleb128 .LVU829
	.uleb128 .LVU837
	.uleb128 .LVU861
	.uleb128 .LVU903
	.uleb128 .LVU903
	.uleb128 .LVU905
	.uleb128 .LVU910
	.uleb128 .LVU968
	.uleb128 .LVU968
	.uleb128 .LVU987
	.uleb128 .LVU987
	.uleb128 .LVU1020
	.uleb128 .LVU1020
	.uleb128 .LVU1021
	.uleb128 .LVU1021
	.uleb128 .LVU1068
	.uleb128 .LVU1068
	.uleb128 .LVU1071
	.uleb128 .LVU1071
	.uleb128 .LVU1110
	.uleb128 .LVU1110
	.uleb128 .LVU1114
.LLST119:
	.4byte	.LVL57
	.4byte	.LVL62
	.2byte	0x2
	.byte	0x30
	.byte	0x9f
	.4byte	.LVL62
	.4byte	.LVL63
	.2byte	0x1
	.byte	0x53
	.4byte	.LVL72
	.4byte	.LVL78
	.2byte	0x2
	.byte	0x30
	.byte	0x9f
	.4byte	.LVL78
	.4byte	.LVL79
	.2byte	0x1
	.byte	0x53
	.4byte	.LVL82
	.4byte	.LVL94
	.2byte	0x2
	.byte	0x30
	.byte	0x9f
	.4byte	.LVL94
	.4byte	.LVL100
	.2byte	0x1
	.byte	0x57
	.4byte	.LVL100
	.4byte	.LVL105
	.2byte	0x2
	.byte	0x30
	.byte	0x9f
	.4byte	.LVL105
	.4byte	.LVL106
	.2byte	0x1
	.byte	0x53
	.4byte	.LVL106
	.4byte	.LVL116
	.2byte	0x2
	.byte	0x30
	.byte	0x9f
	.4byte	.LVL116
	.4byte	.LVL119
	.2byte	0x1
	.byte	0x57
	.4byte	.LVL119
	.4byte	.LVL128
	.2byte	0x2
	.byte	0x30
	.byte	0x9f
	.4byte	.LVL128
	.4byte	.LVL131
	.2byte	0x1
	.byte	0x57
	.4byte	0
	.4byte	0
.LVUS120:
	.uleb128 .LVU808
	.uleb128 .LVU813
	.uleb128 .LVU882
	.uleb128 .LVU887
	.uleb128 .LVU938
	.uleb128 .LVU944
	.uleb128 .LVU1001
	.uleb128 .LVU1006
	.uleb128 .LVU1041
	.uleb128 .LVU1047
	.uleb128 .LVU1077
	.uleb128 .LVU1087
.LLST120:
	.4byte	.LVL60
	.4byte	.LVL60
	.2byte	0x5
	.byte	0x79
	.sleb128 0
	.byte	0x48
	.byte	0x25
	.byte	0x9f
	.4byte	.LVL76
	.4byte	.LVL76
	.2byte	0x5
	.byte	0x77
	.sleb128 0
	.byte	0x48
	.byte	0x25
	.byte	0x9f
	.4byte	.LVL89
	.4byte	.LVL90
	.2byte	0x5
	.byte	0x77
	.sleb128 0
	.byte	0x48
	.byte	0x25
	.byte	0x9f
	.4byte	.LVL103
	.4byte	.LVL103
	.2byte	0x5
	.byte	0x79
	.sleb128 0
	.byte	0x48
	.byte	0x25
	.byte	0x9f
	.4byte	.LVL112
	.4byte	.LVL113
	.2byte	0x5
	.byte	0x77
	.sleb128 0
	.byte	0x48
	.byte	0x25
	.byte	0x9f
	.4byte	.LVL121
	.4byte	.LVL124
	.2byte	0x5
	.byte	0x77
	.sleb128 0
	.byte	0x48
	.byte	0x25
	.byte	0x9f
	.4byte	0
	.4byte	0
.LVUS121:
	.uleb128 .LVU809
	.uleb128 .LVU813
	.uleb128 .LVU883
	.uleb128 .LVU887
	.uleb128 .LVU939
	.uleb128 .LVU944
	.uleb128 .LVU1002
	.uleb128 .LVU1006
	.uleb128 .LVU1042
	.uleb128 .LVU1047
	.uleb128 .LVU1078
	.uleb128 .LVU1087
.LLST121:
	.4byte	.LVL60
	.4byte	.LVL60
	.2byte	0x5
	.byte	0x79
	.sleb128 0
	.byte	0x40
	.byte	0x25
	.byte	0x9f
	.4byte	.LVL76
	.4byte	.LVL76
	.2byte	0x5
	.byte	0x77
	.sleb128 0
	.byte	0x40
	.byte	0x25
	.byte	0x9f
	.4byte	.LVL89
	.4byte	.LVL90
	.2byte	0x5
	.byte	0x77
	.sleb128 0
	.byte	0x40
	.byte	0x25
	.byte	0x9f
	.4byte	.LVL103
	.4byte	.LVL103
	.2byte	0x5
	.byte	0x79
	.sleb128 0
	.byte	0x40
	.byte	0x25
	.byte	0x9f
	.4byte	.LVL112
	.4byte	.LVL113
	.2byte	0x5
	.byte	0x77
	.sleb128 0
	.byte	0x40
	.byte	0x25
	.byte	0x9f
	.4byte	.LVL121
	.4byte	.LVL124
	.2byte	0x5
	.byte	0x77
	.sleb128 0
	.byte	0x40
	.byte	0x25
	.byte	0x9f
	.4byte	0
	.4byte	0
.LVUS122:
	.uleb128 .LVU810
	.uleb128 .LVU813
	.uleb128 .LVU884
	.uleb128 .LVU887
	.uleb128 .LVU940
	.uleb128 .LVU944
	.uleb128 .LVU1003
	.uleb128 .LVU1006
	.uleb128 .LVU1043
	.uleb128 .LVU1047
	.uleb128 .LVU1079
	.uleb128 .LVU1087
.LLST122:
	.4byte	.LVL60
	.4byte	.LVL60
	.2byte	0x5
	.byte	0x79
	.sleb128 0
	.byte	0x38
	.byte	0x25
	.byte	0x9f
	.4byte	.LVL76
	.4byte	.LVL76
	.2byte	0x5
	.byte	0x77
	.sleb128 0
	.byte	0x38
	.byte	0x25
	.byte	0x9f
	.4byte	.LVL89
	.4byte	.LVL90
	.2byte	0x5
	.byte	0x77
	.sleb128 0
	.byte	0x38
	.byte	0x25
	.byte	0x9f
	.4byte	.LVL103
	.4byte	.LVL103
	.2byte	0x5
	.byte	0x79
	.sleb128 0
	.byte	0x38
	.byte	0x25
	.byte	0x9f
	.4byte	.LVL112
	.4byte	.LVL113
	.2byte	0x5
	.byte	0x77
	.sleb128 0
	.byte	0x38
	.byte	0x25
	.byte	0x9f
	.4byte	.LVL121
	.4byte	.LVL124
	.2byte	0x5
	.byte	0x77
	.sleb128 0
	.byte	0x38
	.byte	0x25
	.byte	0x9f
	.4byte	0
	.4byte	0
.LVUS123:
	.uleb128 .LVU811
	.uleb128 .LVU813
	.uleb128 .LVU885
	.uleb128 .LVU887
	.uleb128 .LVU941
	.uleb128 .LVU944
	.uleb128 .LVU1004
	.uleb128 .LVU1006
	.uleb128 .LVU1044
	.uleb128 .LVU1047
	.uleb128 .LVU1080
	.uleb128 .LVU1087
.LLST123:
	.4byte	.LVL60
	.4byte	.LVL60
	.2byte	0x1
	.byte	0x59
	.4byte	.LVL76
	.4byte	.LVL76
	.2byte	0x1
	.byte	0x57
	.4byte	.LVL89
	.4byte	.LVL90
	.2byte	0x1
	.byte	0x57
	.4byte	.LVL103
	.4byte	.LVL103
	.2byte	0x1
	.byte	0x59
	.4byte	.LVL112
	.4byte	.LVL113
	.2byte	0x1
	.byte	0x57
	.4byte	.LVL121
	.4byte	.LVL124
	.2byte	0x1
	.byte	0x57
	.4byte	0
	.4byte	0
.LVUS124:
	.uleb128 .LVU791
	.uleb128 .LVU793
.LLST124:
	.4byte	.LVL57
	.4byte	.LVL57
	.2byte	0xa
	.byte	0x78
	.sleb128 0
	.byte	0x32
	.byte	0x24
	.byte	0x91
	.sleb128 -4
	.byte	0x22
	.byte	0x8
	.byte	0xf0
	.byte	0x1c
	.4byte	0
	.4byte	0
.LVUS125:
	.uleb128 .LVU791
	.uleb128 .LVU793
	.uleb128 .LVU915
	.uleb128 .LVU917
.LLST125:
	.4byte	.LVL57
	.4byte	.LVL57
	.2byte	0x1
	.byte	0x59
	.4byte	.LVL83
	.4byte	.LVL83
	.2byte	0x1
	.byte	0x59
	.4byte	0
	.4byte	0
.LVUS126:
	.uleb128 .LVU793
	.uleb128 .LVU800
	.uleb128 .LVU800
	.uleb128 .LVU803
	.uleb128 .LVU917
	.uleb128 .LVU926
.LLST126:
	.4byte	.LVL57
	.4byte	.LVL59
	.2byte	0x1
	.byte	0x5a
	.4byte	.LVL59
	.4byte	.LVL60
	.2byte	0xe
	.byte	0x7b
	.sleb128 0
	.byte	0x32
	.byte	0x24
	.byte	0x91
	.sleb128 -4
	.byte	0x22
	.byte	0x8
	.byte	0xac
	.byte	0x1c
	.byte	0x6
	.byte	0x4f
	.byte	0x1a
	.byte	0x9f
	.4byte	.LVL83
	.4byte	.LVL85
	.2byte	0x1
	.byte	0x5a
	.4byte	0
	.4byte	0
.LVUS127:
	.uleb128 .LVU793
	.uleb128 .LVU798
	.uleb128 .LVU798
	.uleb128 .LVU803
	.uleb128 .LVU917
	.uleb128 .LVU922
	.uleb128 .LVU922
	.uleb128 .LVU926
.LLST127:
	.4byte	.LVL57
	.4byte	.LVL58
	.2byte	0x6
	.byte	0x79
	.sleb128 0
	.byte	0x76
	.sleb128 0
	.byte	0x22
	.byte	0x9f
	.4byte	.LVL58
	.4byte	.LVL60
	.2byte	0x1
	.byte	0x59
	.4byte	.LVL83
	.4byte	.LVL84
	.2byte	0x6
	.byte	0x79
	.sleb128 0
	.byte	0x76
	.sleb128 0
	.byte	0x22
	.byte	0x9f
	.4byte	.LVL84
	.4byte	.LVL85
	.2byte	0x1
	.byte	0x57
	.4byte	0
	.4byte	0
.LVUS128:
	.uleb128 .LVU796
	.uleb128 .LVU800
	.uleb128 .LVU800
	.uleb128 .LVU803
	.uleb128 .LVU920
	.uleb128 .LVU926
.LLST128:
	.4byte	.LVL57
	.4byte	.LVL59
	.2byte	0x1
	.byte	0x5a
	.4byte	.LVL59
	.4byte	.LVL60
	.2byte	0xe
	.byte	0x7b
	.sleb128 0
	.byte	0x32
	.byte	0x24
	.byte	0x91
	.sleb128 -4
	.byte	0x22
	.byte	0x8
	.byte	0xac
	.byte	0x1c
	.byte	0x6
	.byte	0x4f
	.byte	0x1a
	.byte	0x9f
	.4byte	.LVL83
	.4byte	.LVL85
	.2byte	0x1
	.byte	0x5a
	.4byte	0
	.4byte	0
.LVUS129:
	.uleb128 .LVU806
	.uleb128 .LVU811
	.uleb128 .LVU936
	.uleb128 .LVU941
.LLST129:
	.4byte	.LVL60
	.4byte	.LVL60
	.2byte	0x6
	.byte	0xf2
	.4byte	.Ldebug_info0+5150
	.sleb128 0
	.4byte	.LVL89
	.4byte	.LVL89
	.2byte	0x6
	.byte	0xf2
	.4byte	.Ldebug_info0+5150
	.sleb128 0
	.4byte	0
	.4byte	0
.LVUS130:
	.uleb128 .LVU806
	.uleb128 .LVU811
	.uleb128 .LVU936
	.uleb128 .LVU941
.LLST130:
	.4byte	.LVL60
	.4byte	.LVL60
	.2byte	0x6
	.byte	0xf2
	.4byte	.Ldebug_info0+5130
	.sleb128 0
	.4byte	.LVL89
	.4byte	.LVL89
	.2byte	0x6
	.byte	0xf2
	.4byte	.Ldebug_info0+5130
	.sleb128 0
	.4byte	0
	.4byte	0
.LVUS131:
	.uleb128 .LVU806
	.uleb128 .LVU811
	.uleb128 .LVU936
	.uleb128 .LVU941
.LLST131:
	.4byte	.LVL60
	.4byte	.LVL60
	.2byte	0x6
	.byte	0xf2
	.4byte	.Ldebug_info0+5110
	.sleb128 0
	.4byte	.LVL89
	.4byte	.LVL89
	.2byte	0x6
	.byte	0xf2
	.4byte	.Ldebug_info0+5110
	.sleb128 0
	.4byte	0
	.4byte	0
.LVUS132:
	.uleb128 .LVU806
	.uleb128 .LVU811
	.uleb128 .LVU936
	.uleb128 .LVU941
.LLST132:
	.4byte	.LVL60
	.4byte	.LVL60
	.2byte	0x6
	.byte	0xf2
	.4byte	.Ldebug_info0+5090
	.sleb128 0
	.4byte	.LVL89
	.4byte	.LVL89
	.2byte	0x6
	.byte	0xf2
	.4byte	.Ldebug_info0+5090
	.sleb128 0
	.4byte	0
	.4byte	0
.LVUS133:
	.uleb128 .LVU806
	.uleb128 .LVU811
	.uleb128 .LVU936
	.uleb128 .LVU941
.LLST133:
	.4byte	.LVL60
	.4byte	.LVL60
	.2byte	0x1
	.byte	0x59
	.4byte	.LVL89
	.4byte	.LVL89
	.2byte	0x1
	.byte	0x57
	.4byte	0
	.4byte	0
.LVUS134:
	.uleb128 .LVU814
	.uleb128 .LVU817
	.uleb128 .LVU957
	.uleb128 .LVU960
.LLST134:
	.4byte	.LVL60
	.4byte	.LVL60
	.2byte	0xf
	.byte	0x79
	.sleb128 0
	.byte	0x38
	.byte	0x25
	.byte	0x8
	.byte	0xff
	.byte	0x1a
	.byte	0x32
	.byte	0x24
	.byte	0x3
	.4byte	S3
	.byte	0x22
	.4byte	.LVL92
	.4byte	.LVL92
	.2byte	0x1
	.byte	0x5c
	.4byte	0
	.4byte	0
.LVUS135:
	.uleb128 .LVU814
	.uleb128 .LVU817
	.uleb128 .LVU957
	.uleb128 .LVU960
.LLST135:
	.4byte	.LVL60
	.4byte	.LVL60
	.2byte	0x1f
	.byte	0x79
	.sleb128 0
	.byte	0x40
	.byte	0x25
	.byte	0x8
	.byte	0xff
	.byte	0x1a
	.byte	0x32
	.byte	0x24
	.byte	0x3
	.4byte	S2
	.byte	0x22
	.byte	0x6
	.byte	0x79
	.sleb128 0
	.byte	0x48
	.byte	0x25
	.byte	0x32
	.byte	0x24
	.byte	0x3
	.4byte	S1
	.byte	0x22
	.byte	0x6
	.byte	0x27
	.byte	0x9f
	.4byte	.LVL92
	.4byte	.LVL92
	.2byte	0x6
	.byte	0x72
	.sleb128 0
	.byte	0x71
	.sleb128 0
	.byte	0x27
	.byte	0x9f
	.4byte	0
	.4byte	0
.LVUS136:
	.uleb128 .LVU817
	.uleb128 .LVU827
	.uleb128 .LVU827
	.uleb128 .LVU829
	.uleb128 .LVU960
	.uleb128 .LVU968
.LLST136:
	.4byte	.LVL60
	.4byte	.LVL61
	.2byte	0xd
	.byte	0x79
	.sleb128 0
	.byte	0x8
	.byte	0xff
	.byte	0x1a
	.byte	0x32
	.byte	0x24
	.byte	0x3
	.4byte	S4
	.byte	0x22
	.4byte	.LVL61
	.4byte	.LVL62
	.2byte	0x24
	.byte	0x77
	.sleb128 0
	.byte	0x32
	.byte	0x24
	.byte	0x91
	.sleb128 -4
	.byte	0x22
	.byte	0x8
	.byte	0xac
	.byte	0x1c
	.byte	0x6
	.byte	0x76
	.sleb128 0
	.byte	0x22
	.byte	0x7a
	.sleb128 0
	.byte	0x14
	.byte	0x14
	.byte	0x1f
	.byte	0x23
	.uleb128 0x20
	.byte	0x24
	.byte	0x17
	.byte	0x25
	.byte	0x21
	.byte	0x8
	.byte	0xff
	.byte	0x1a
	.byte	0x32
	.byte	0x24
	.byte	0x3
	.4byte	S4
	.byte	0x22
	.4byte	.LVL92
	.4byte	.LVL94
	.2byte	0x1
	.byte	0x50
	.4byte	0
	.4byte	0
.LVUS137:
	.uleb128 .LVU817
	.uleb128 .LVU827
	.uleb128 .LVU827
	.uleb128 .LVU829
	.uleb128 .LVU960
	.uleb128 .LVU966
	.uleb128 .LVU966
	.uleb128 .LVU968
.LLST137:
	.4byte	.LVL60
	.4byte	.LVL61
	.2byte	0x30
	.byte	0x79
	.sleb128 0
	.byte	0x40
	.byte	0x25
	.byte	0x8
	.byte	0xff
	.byte	0x1a
	.byte	0x32
	.byte	0x24
	.byte	0x3
	.4byte	S2
	.byte	0x22
	.byte	0x6
	.byte	0x79
	.sleb128 0
	.byte	0x48
	.byte	0x25
	.byte	0x32
	.byte	0x24
	.byte	0x3
	.4byte	S1
	.byte	0x22
	.byte	0x6
	.byte	0x27
	.byte	0x79
	.sleb128 0
	.byte	0x38
	.byte	0x25
	.byte	0x8
	.byte	0xff
	.byte	0x1a
	.byte	0x32
	.byte	0x24
	.byte	0x3
	.4byte	S3
	.byte	0x22
	.byte	0x6
	.byte	0x1c
	.byte	0x9f
	.4byte	.LVL61
	.4byte	.LVL62
	.2byte	0x75
	.byte	0x77
	.sleb128 0
	.byte	0x32
	.byte	0x24
	.byte	0x91
	.sleb128 -4
	.byte	0x22
	.byte	0x8
	.byte	0xac
	.byte	0x1c
	.byte	0x6
	.byte	0x76
	.sleb128 0
	.byte	0x22
	.byte	0x7a
	.sleb128 0
	.byte	0x14
	.byte	0x14
	.byte	0x1f
	.byte	0x23
	.uleb128 0x20
	.byte	0x24
	.byte	0x17
	.byte	0x25
	.byte	0x21
	.byte	0x40
	.byte	0x25
	.byte	0x8
	.byte	0xff
	.byte	0x1a
	.byte	0x32
	.byte	0x24
	.byte	0x3
	.4byte	S2
	.byte	0x22
	.byte	0x6
	.byte	0x77
	.sleb128 0
	.byte	0x32
	.byte	0x24
	.byte	0x91
	.sleb128 -4
	.byte	0x22
	.byte	0x8
	.byte	0xac
	.byte	0x1c
	.byte	0x6
	.byte	0x76
	.sleb128 0
	.byte	0x22
	.byte	0x7a
	.sleb128 0
	.byte	0x14
	.byte	0x14
	.byte	0x1f
	.byte	0x23
	.uleb128 0x20
	.byte	0x24
	.byte	0x17
	.byte	0x25
	.byte	0x21
	.byte	0x48
	.byte	0x25
	.byte	0x32
	.byte	0x24
	.byte	0x3
	.4byte	S1
	.byte	0x22
	.byte	0x6
	.byte	0x27
	.byte	0x77
	.sleb128 0
	.byte	0x32
	.byte	0x24
	.byte	0x91
	.sleb128 -4
	.byte	0x22
	.byte	0x8
	.byte	0xac
	.byte	0x1c
	.byte	0x6
	.byte	0x76
	.sleb128 0
	.byte	0x22
	.byte	0x7a
	.sleb128 0
	.byte	0x14
	.byte	0x14
	.byte	0x1f
	.byte	0x23
	.uleb128 0x20
	.byte	0x24
	.byte	0x17
	.byte	0x25
	.byte	0x21
	.byte	0x38
	.byte	0x25
	.byte	0x8
	.byte	0xff
	.byte	0x1a
	.byte	0x32
	.byte	0x24
	.byte	0x3
	.4byte	S3
	.byte	0x22
	.byte	0x6
	.byte	0x1c
	.byte	0x9f
	.4byte	.LVL92
	.4byte	.LVL93
	.2byte	0x9
	.byte	0x72
	.sleb128 0
	.byte	0x71
	.sleb128 0
	.byte	0x27
	.byte	0x7c
	.sleb128 0
	.byte	0x1c
	.byte	0x9f
	.4byte	.LVL93
	.4byte	.LVL94
	.2byte	0x1
	.byte	0x57
	.4byte	0
	.4byte	0
.LVUS138:
	.uleb128 .LVU866
	.uleb128 .LVU870
.LLST138:
	.4byte	.LVL73
	.4byte	.LVL74
	.2byte	0xa
	.byte	0x78
	.sleb128 0
	.byte	0x32
	.byte	0x24
	.byte	0x91
	.sleb128 -4
	.byte	0x22
	.byte	0x8
	.byte	0xf0
	.byte	0x1c
	.4byte	0
	.4byte	0
.LVUS139:
	.uleb128 .LVU866
	.uleb128 .LVU870
.LLST139:
	.4byte	.LVL73
	.4byte	.LVL74
	.2byte	0x1
	.byte	0x59
	.4byte	0
	.4byte	0
.LVUS140:
	.uleb128 .LVU870
	.uleb128 .LVU876
.LLST140:
	.4byte	.LVL74
	.4byte	.LVL75
	.2byte	0x1
	.byte	0x5a
	.4byte	0
	.4byte	0
.LVUS141:
	.uleb128 .LVU870
	.uleb128 .LVU876
.LLST141:
	.4byte	.LVL74
	.4byte	.LVL75
	.2byte	0x1
	.byte	0x57
	.4byte	0
	.4byte	0
.LVUS142:
	.uleb128 .LVU873
	.uleb128 .LVU876
.LLST142:
	.4byte	.LVL74
	.4byte	.LVL75
	.2byte	0x1
	.byte	0x5a
	.4byte	0
	.4byte	0
.LVUS143:
	.uleb128 .LVU880
	.uleb128 .LVU885
	.uleb128 .LVU1075
	.uleb128 .LVU1080
.LLST143:
	.4byte	.LVL76
	.4byte	.LVL76
	.2byte	0x6
	.byte	0xf2
	.4byte	.Ldebug_info0+5150
	.sleb128 0
	.4byte	.LVL121
	.4byte	.LVL121
	.2byte	0x6
	.byte	0xf2
	.4byte	.Ldebug_info0+5150
	.sleb128 0
	.4byte	0
	.4byte	0
.LVUS144:
	.uleb128 .LVU880
	.uleb128 .LVU885
	.uleb128 .LVU1075
	.uleb128 .LVU1080
.LLST144:
	.4byte	.LVL76
	.4byte	.LVL76
	.2byte	0x6
	.byte	0xf2
	.4byte	.Ldebug_info0+5130
	.sleb128 0
	.4byte	.LVL121
	.4byte	.LVL121
	.2byte	0x6
	.byte	0xf2
	.4byte	.Ldebug_info0+5130
	.sleb128 0
	.4byte	0
	.4byte	0
.LVUS145:
	.uleb128 .LVU880
	.uleb128 .LVU885
	.uleb128 .LVU1075
	.uleb128 .LVU1080
.LLST145:
	.4byte	.LVL76
	.4byte	.LVL76
	.2byte	0x6
	.byte	0xf2
	.4byte	.Ldebug_info0+5110
	.sleb128 0
	.4byte	.LVL121
	.4byte	.LVL121
	.2byte	0x6
	.byte	0xf2
	.4byte	.Ldebug_info0+5110
	.sleb128 0
	.4byte	0
	.4byte	0
.LVUS146:
	.uleb128 .LVU880
	.uleb128 .LVU885
	.uleb128 .LVU1075
	.uleb128 .LVU1080
.LLST146:
	.4byte	.LVL76
	.4byte	.LVL76
	.2byte	0x6
	.byte	0xf2
	.4byte	.Ldebug_info0+5090
	.sleb128 0
	.4byte	.LVL121
	.4byte	.LVL121
	.2byte	0x6
	.byte	0xf2
	.4byte	.Ldebug_info0+5090
	.sleb128 0
	.4byte	0
	.4byte	0
.LVUS147:
	.uleb128 .LVU880
	.uleb128 .LVU885
	.uleb128 .LVU1075
	.uleb128 .LVU1080
.LLST147:
	.4byte	.LVL76
	.4byte	.LVL76
	.2byte	0x1
	.byte	0x57
	.4byte	.LVL121
	.4byte	.LVL121
	.2byte	0x1
	.byte	0x57
	.4byte	0
	.4byte	0
.LVUS148:
	.uleb128 .LVU888
	.uleb128 .LVU890
	.uleb128 .LVU1100
	.uleb128 .LVU1102
.LLST148:
	.4byte	.LVL76
	.4byte	.LVL76
	.2byte	0xf
	.byte	0x77
	.sleb128 0
	.byte	0x40
	.byte	0x25
	.byte	0x8
	.byte	0xff
	.byte	0x1a
	.byte	0x32
	.byte	0x24
	.byte	0x3
	.4byte	S2
	.byte	0x22
	.4byte	.LVL126
	.4byte	.LVL126
	.2byte	0x1
	.byte	0x51
	.4byte	0
	.4byte	0
.LVUS149:
	.uleb128 .LVU888
	.uleb128 .LVU890
	.uleb128 .LVU1100
	.uleb128 .LVU1102
.LLST149:
	.4byte	.LVL76
	.4byte	.LVL76
	.2byte	0xc
	.byte	0x77
	.sleb128 0
	.byte	0x48
	.byte	0x25
	.byte	0x32
	.byte	0x24
	.byte	0x3
	.4byte	S1
	.byte	0x22
	.4byte	.LVL126
	.4byte	.LVL126
	.2byte	0x1
	.byte	0x52
	.4byte	0
	.4byte	0
.LVUS150:
	.uleb128 .LVU890
	.uleb128 .LVU901
	.uleb128 .LVU901
	.uleb128 .LVU903
	.uleb128 .LVU1102
	.uleb128 .LVU1110
.LLST150:
	.4byte	.LVL76
	.4byte	.LVL77
	.2byte	0xd
	.byte	0x77
	.sleb128 0
	.byte	0x8
	.byte	0xff
	.byte	0x1a
	.byte	0x32
	.byte	0x24
	.byte	0x3
	.4byte	S4
	.byte	0x22
	.4byte	.LVL77
	.4byte	.LVL78
	.2byte	0x1e
	.byte	0x79
	.sleb128 0
	.byte	0x76
	.sleb128 0
	.byte	0x1c
	.byte	0x8
	.byte	0x20
	.byte	0x7a
	.sleb128 0
	.byte	0x1c
	.byte	0x14
	.byte	0x14
	.byte	0x1f
	.byte	0x23
	.uleb128 0x20
	.byte	0x24
	.byte	0x17
	.byte	0x25
	.byte	0x21
	.byte	0x8
	.byte	0xff
	.byte	0x1a
	.byte	0x32
	.byte	0x24
	.byte	0x3
	.4byte	S4
	.byte	0x22
	.4byte	.LVL126
	.4byte	.LVL128
	.2byte	0x1
	.byte	0x50
	.4byte	0
	.4byte	0
.LVUS151:
	.uleb128 .LVU890
	.uleb128 .LVU901
	.uleb128 .LVU901
	.uleb128 .LVU903
	.uleb128 .LVU1102
	.uleb128 .LVU1109
	.uleb128 .LVU1109
	.uleb128 .LVU1110
.LLST151:
	.4byte	.LVL76
	.4byte	.LVL77
	.2byte	0x30
	.byte	0x77
	.sleb128 0
	.byte	0x40
	.byte	0x25
	.byte	0x8
	.byte	0xff
	.byte	0x1a
	.byte	0x32
	.byte	0x24
	.byte	0x3
	.4byte	S2
	.byte	0x22
	.byte	0x6
	.byte	0x77
	.sleb128 0
	.byte	0x48
	.byte	0x25
	.byte	0x32
	.byte	0x24
	.byte	0x3
	.4byte	S1
	.byte	0x22
	.byte	0x6
	.byte	0x22
	.byte	0x77
	.sleb128 0
	.byte	0x38
	.byte	0x25
	.byte	0x8
	.byte	0xff
	.byte	0x1a
	.byte	0x32
	.byte	0x24
	.byte	0x3
	.4byte	S3
	.byte	0x22
	.byte	0x6
	.byte	0x27
	.byte	0x9f
	.4byte	.LVL77
	.4byte	.LVL78
	.2byte	0x63
	.byte	0x79
	.sleb128 0
	.byte	0x76
	.sleb128 0
	.byte	0x1c
	.byte	0x8
	.byte	0x20
	.byte	0x7a
	.sleb128 0
	.byte	0x1c
	.byte	0x14
	.byte	0x14
	.byte	0x1f
	.byte	0x23
	.uleb128 0x20
	.byte	0x24
	.byte	0x17
	.byte	0x25
	.byte	0x21
	.byte	0x40
	.byte	0x25
	.byte	0x8
	.byte	0xff
	.byte	0x1a
	.byte	0x32
	.byte	0x24
	.byte	0x3
	.4byte	S2
	.byte	0x22
	.byte	0x6
	.byte	0x79
	.sleb128 0
	.byte	0x76
	.sleb128 0
	.byte	0x1c
	.byte	0x8
	.byte	0x20
	.byte	0x7a
	.sleb128 0
	.byte	0x1c
	.byte	0x14
	.byte	0x14
	.byte	0x1f
	.byte	0x23
	.uleb128 0x20
	.byte	0x24
	.byte	0x17
	.byte	0x25
	.byte	0x21
	.byte	0x48
	.byte	0x25
	.byte	0x32
	.byte	0x24
	.byte	0x3
	.4byte	S1
	.byte	0x22
	.byte	0x6
	.byte	0x22
	.byte	0x79
	.sleb128 0
	.byte	0x76
	.sleb128 0
	.byte	0x1c
	.byte	0x8
	.byte	0x20
	.byte	0x7a
	.sleb128 0
	.byte	0x1c
	.byte	0x14
	.byte	0x14
	.byte	0x1f
	.byte	0x23
	.uleb128 0x20
	.byte	0x24
	.byte	0x17
	.byte	0x25
	.byte	0x21
	.byte	0x38
	.byte	0x25
	.byte	0x8
	.byte	0xff
	.byte	0x1a
	.byte	0x32
	.byte	0x24
	.byte	0x3
	.4byte	S3
	.byte	0x22
	.byte	0x6
	.byte	0x27
	.byte	0x9f
	.4byte	.LVL126
	.4byte	.LVL127
	.2byte	0x9
	.byte	0x71
	.sleb128 0
	.byte	0x72
	.sleb128 0
	.byte	0x22
	.byte	0x7c
	.sleb128 0
	.byte	0x27
	.byte	0x9f
	.4byte	.LVL127
	.4byte	.LVL128
	.2byte	0x1
	.byte	0x57
	.4byte	0
	.4byte	0
.LVUS152:
	.uleb128 .LVU988
	.uleb128 .LVU993
	.uleb128 .LVU993
	.uleb128 .LVU996
	.uleb128 .LVU1022
	.uleb128 .LVU1029
.LLST152:
	.4byte	.LVL100
	.4byte	.LVL102
	.2byte	0x1
	.byte	0x5a
	.4byte	.LVL102
	.4byte	.LVL103
	.2byte	0xe
	.byte	0x7b
	.sleb128 0
	.byte	0x32
	.byte	0x24
	.byte	0x91
	.sleb128 -4
	.byte	0x22
	.byte	0x8
	.byte	0xac
	.byte	0x1c
	.byte	0x6
	.byte	0x4f
	.byte	0x1a
	.byte	0x9f
	.4byte	.LVL106
	.4byte	.LVL108
	.2byte	0x1
	.byte	0x5a
	.4byte	0
	.4byte	0
.LVUS153:
	.uleb128 .LVU988
	.uleb128 .LVU992
	.uleb128 .LVU992
	.uleb128 .LVU996
	.uleb128 .LVU1022
	.uleb128 .LVU1026
	.uleb128 .LVU1026
	.uleb128 .LVU1029
.LLST153:
	.4byte	.LVL100
	.4byte	.LVL101
	.2byte	0x6
	.byte	0x79
	.sleb128 0
	.byte	0x76
	.sleb128 0
	.byte	0x27
	.byte	0x9f
	.4byte	.LVL101
	.4byte	.LVL103
	.2byte	0x1
	.byte	0x59
	.4byte	.LVL106
	.4byte	.LVL107
	.2byte	0x6
	.byte	0x79
	.sleb128 0
	.byte	0x76
	.sleb128 0
	.byte	0x27
	.byte	0x9f
	.4byte	.LVL107
	.4byte	.LVL108
	.2byte	0x1
	.byte	0x57
	.4byte	0
	.4byte	0
.LVUS154:
	.uleb128 .LVU990
	.uleb128 .LVU993
	.uleb128 .LVU993
	.uleb128 .LVU996
	.uleb128 .LVU1024
	.uleb128 .LVU1029
.LLST154:
	.4byte	.LVL100
	.4byte	.LVL102
	.2byte	0x1
	.byte	0x5a
	.4byte	.LVL102
	.4byte	.LVL103
	.2byte	0xe
	.byte	0x7b
	.sleb128 0
	.byte	0x32
	.byte	0x24
	.byte	0x91
	.sleb128 -4
	.byte	0x22
	.byte	0x8
	.byte	0xac
	.byte	0x1c
	.byte	0x6
	.byte	0x4f
	.byte	0x1a
	.byte	0x9f
	.4byte	.LVL106
	.4byte	.LVL108
	.2byte	0x1
	.byte	0x5a
	.4byte	0
	.4byte	0
.LVUS155:
	.uleb128 .LVU1010
	.uleb128 .LVU1012
	.uleb128 .LVU1061
	.uleb128 .LVU1063
.LLST155:
	.4byte	.LVL103
	.4byte	.LVL103
	.2byte	0xf
	.byte	0x79
	.sleb128 0
	.byte	0x38
	.byte	0x25
	.byte	0x8
	.byte	0xff
	.byte	0x1a
	.byte	0x32
	.byte	0x24
	.byte	0x3
	.4byte	S3
	.byte	0x22
	.4byte	.LVL115
	.4byte	.LVL115
	.2byte	0x3
	.byte	0x91
	.sleb128 -504
	.4byte	0
	.4byte	0
.LVUS156:
	.uleb128 .LVU1010
	.uleb128 .LVU1012
	.uleb128 .LVU1061
	.uleb128 .LVU1063
.LLST156:
	.4byte	.LVL103
	.4byte	.LVL103
	.2byte	0x1f
	.byte	0x79
	.sleb128 0
	.byte	0x48
	.byte	0x25
	.byte	0x32
	.byte	0x24
	.byte	0x3
	.4byte	S1
	.byte	0x22
	.byte	0x6
	.byte	0x79
	.sleb128 0
	.byte	0x40
	.byte	0x25
	.byte	0x8
	.byte	0xff
	.byte	0x1a
	.byte	0x32
	.byte	0x24
	.byte	0x3
	.4byte	S2
	.byte	0x22
	.byte	0x6
	.byte	0x1c
	.byte	0x9f
	.4byte	.LVL115
	.4byte	.LVL115
	.2byte	0x6
	.byte	0x72
	.sleb128 0
	.byte	0x70
	.sleb128 0
	.byte	0x1c
	.byte	0x9f
	.4byte	0
	.4byte	0
.LVUS157:
	.uleb128 .LVU999
	.uleb128 .LVU1004
	.uleb128 .LVU1039
	.uleb128 .LVU1044
.LLST157:
	.4byte	.LVL103
	.4byte	.LVL103
	.2byte	0x6
	.byte	0xf2
	.4byte	.Ldebug_info0+5150
	.sleb128 0
	.4byte	.LVL112
	.4byte	.LVL112
	.2byte	0x6
	.byte	0xf2
	.4byte	.Ldebug_info0+5150
	.sleb128 0
	.4byte	0
	.4byte	0
.LVUS158:
	.uleb128 .LVU999
	.uleb128 .LVU1004
	.uleb128 .LVU1039
	.uleb128 .LVU1044
.LLST158:
	.4byte	.LVL103
	.4byte	.LVL103
	.2byte	0x6
	.byte	0xf2
	.4byte	.Ldebug_info0+5130
	.sleb128 0
	.4byte	.LVL112
	.4byte	.LVL112
	.2byte	0x6
	.byte	0xf2
	.4byte	.Ldebug_info0+5130
	.sleb128 0
	.4byte	0
	.4byte	0
.LVUS159:
	.uleb128 .LVU999
	.uleb128 .LVU1004
	.uleb128 .LVU1039
	.uleb128 .LVU1044
.LLST159:
	.4byte	.LVL103
	.4byte	.LVL103
	.2byte	0x6
	.byte	0xf2
	.4byte	.Ldebug_info0+5110
	.sleb128 0
	.4byte	.LVL112
	.4byte	.LVL112
	.2byte	0x6
	.byte	0xf2
	.4byte	.Ldebug_info0+5110
	.sleb128 0
	.4byte	0
	.4byte	0
.LVUS160:
	.uleb128 .LVU999
	.uleb128 .LVU1004
	.uleb128 .LVU1039
	.uleb128 .LVU1044
.LLST160:
	.4byte	.LVL103
	.4byte	.LVL103
	.2byte	0x6
	.byte	0xf2
	.4byte	.Ldebug_info0+5090
	.sleb128 0
	.4byte	.LVL112
	.4byte	.LVL112
	.2byte	0x6
	.byte	0xf2
	.4byte	.Ldebug_info0+5090
	.sleb128 0
	.4byte	0
	.4byte	0
.LVUS161:
	.uleb128 .LVU999
	.uleb128 .LVU1004
	.uleb128 .LVU1039
	.uleb128 .LVU1044
.LLST161:
	.4byte	.LVL103
	.4byte	.LVL103
	.2byte	0x1
	.byte	0x59
	.4byte	.LVL112
	.4byte	.LVL112
	.2byte	0x1
	.byte	0x57
	.4byte	0
	.4byte	0
.LVUS244:
	.uleb128 .LVU1774
	.uleb128 .LVU1778
	.uleb128 .LVU1778
	.uleb128 .LVU1780
	.uleb128 .LVU1780
	.uleb128 .LVU1785
	.uleb128 .LVU1785
	.uleb128 0
.LLST244:
	.4byte	.LVL355
	.4byte	.LVL356
	.2byte	0x6
	.byte	0x50
	.byte	0x93
	.uleb128 0x4
	.byte	0x51
	.byte	0x93
	.uleb128 0x4
	.4byte	.LVL356
	.4byte	.LVL357
	.2byte	0x6
	.byte	0x53
	.byte	0x93
	.uleb128 0x4
	.byte	0x51
	.byte	0x93
	.uleb128 0x4
	.4byte	.LVL357
	.4byte	.LVL358
	.2byte	0x7
	.byte	0x53
	.byte	0x93
	.uleb128 0x4
	.byte	0x91
	.sleb128 -12
	.byte	0x93
	.uleb128 0x4
	.4byte	.LVL358
	.4byte	.LFE24
	.2byte	0x8
	.byte	0x91
	.sleb128 -16
	.byte	0x93
	.uleb128 0x4
	.byte	0x91
	.sleb128 -12
	.byte	0x93
	.uleb128 0x4
	.4byte	0
	.4byte	0
.LVUS291:
	.uleb128 0
	.uleb128 .LVU2205
	.uleb128 .LVU2205
	.uleb128 0
.LLST291:
	.4byte	.LVL489
	.4byte	.LVL490
	.2byte	0x1
	.byte	0x50
	.4byte	.LVL490
	.4byte	.LFE23
	.2byte	0x1
	.byte	0x55
	.4byte	0
	.4byte	0
.LVUS292:
	.uleb128 0
	.uleb128 .LVU2208
	.uleb128 .LVU2208
	.uleb128 .LVU2241
	.uleb128 .LVU2241
	.uleb128 .LVU2257
	.uleb128 .LVU2257
	.uleb128 .LVU2258
	.uleb128 .LVU2258
	.uleb128 .LVU2259
	.uleb128 .LVU2259
	.uleb128 .LVU2270
	.uleb128 .LVU2313
	.uleb128 .LVU2347
	.uleb128 .LVU2347
	.uleb128 .LVU2349
	.uleb128 .LVU2349
	.uleb128 .LVU2354
	.uleb128 .LVU2401
	.uleb128 0
.LLST292:
	.4byte	.LVL489
	.4byte	.LVL491
	.2byte	0x1
	.byte	0x51
	.4byte	.LVL491
	.4byte	.LVL498
	.2byte	0x3
	.byte	0x91
	.sleb128 -92
	.4byte	.LVL498
	.4byte	.LVL504
	.2byte	0x1
	.byte	0x58
	.4byte	.LVL504
	.4byte	.LVL505-1
	.2byte	0x1
	.byte	0x50
	.4byte	.LVL505-1
	.4byte	.LVL505
	.2byte	0x3
	.byte	0x78
	.sleb128 -8
	.byte	0x9f
	.4byte	.LVL505
	.4byte	.LVL510
	.2byte	0x1
	.byte	0x58
	.4byte	.LVL521
	.4byte	.LVL530
	.2byte	0x3
	.byte	0x91
	.sleb128 -92
	.4byte	.LVL530
	.4byte	.LVL531
	.2byte	0x1
	.byte	0x53
	.4byte	.LVL531
	.4byte	.LVL535
	.2byte	0x3
	.byte	0x91
	.sleb128 -92
	.4byte	.LVL548
	.4byte	.LFE23
	.2byte	0x3
	.byte	0x91
	.sleb128 -92
	.4byte	0
	.4byte	0
.LVUS293:
	.uleb128 0
	.uleb128 .LVU2212
	.uleb128 .LVU2212
	.uleb128 0
.LLST293:
	.4byte	.LVL489
	.4byte	.LVL492-1
	.2byte	0x1
	.byte	0x52
	.4byte	.LVL492-1
	.4byte	.LFE23
	.2byte	0x3
	.byte	0x91
	.sleb128 -84
	.4byte	0
	.4byte	0
.LVUS294:
	.uleb128 0
	.uleb128 .LVU2212
	.uleb128 .LVU2212
	.uleb128 .LVU2233
	.uleb128 .LVU2241
	.uleb128 .LVU2255
	.uleb128 .LVU2255
	.uleb128 .LVU2258
	.uleb128 .LVU2258
	.uleb128 .LVU2260
	.uleb128 .LVU2260
	.uleb128 .LVU2270
	.uleb128 .LVU2316
	.uleb128 .LVU2351
	.uleb128 .LVU2351
	.uleb128 .LVU2353
	.uleb128 .LVU2353
	.uleb128 .LVU2354
	.uleb128 .LVU2401
	.uleb128 0
.LLST294:
	.4byte	.LVL489
	.4byte	.LVL492-1
	.2byte	0x1
	.byte	0x53
	.4byte	.LVL492-1
	.4byte	.LVL495
	.2byte	0x3
	.byte	0x91
	.sleb128 -88
	.4byte	.LVL498
	.4byte	.LVL503
	.2byte	0x1
	.byte	0x56
	.4byte	.LVL503
	.4byte	.LVL505-1
	.2byte	0x1
	.byte	0x52
	.4byte	.LVL505-1
	.4byte	.LVL505
	.2byte	0x3
	.byte	0x76
	.sleb128 -8
	.byte	0x9f
	.4byte	.LVL505
	.4byte	.LVL510
	.2byte	0x1
	.byte	0x56
	.4byte	.LVL522
	.4byte	.LVL533
	.2byte	0x3
	.byte	0x91
	.sleb128 -88
	.4byte	.LVL533
	.4byte	.LVL534
	.2byte	0x1
	.byte	0x53
	.4byte	.LVL534
	.4byte	.LVL535
	.2byte	0x3
	.byte	0x91
	.sleb128 -88
	.4byte	.LVL548
	.4byte	.LFE23
	.2byte	0x3
	.byte	0x91
	.sleb128 -88
	.4byte	0
	.4byte	0
.LVUS295:
	.uleb128 0
	.uleb128 .LVU2233
	.uleb128 .LVU2233
	.uleb128 .LVU2239
	.uleb128 .LVU2239
	.uleb128 .LVU2241
	.uleb128 .LVU2241
	.uleb128 .LVU2257
	.uleb128 .LVU2257
	.uleb128 .LVU2258
	.uleb128 .LVU2258
	.uleb128 .LVU2261
	.uleb128 .LVU2261
	.uleb128 .LVU2265
	.uleb128 .LVU2265
	.uleb128 .LVU2266
	.uleb128 .LVU2266
	.uleb128 .LVU2267
	.uleb128 .LVU2267
	.uleb128 .LVU2268
	.uleb128 .LVU2268
	.uleb128 .LVU2270
	.uleb128 .LVU2313
	.uleb128 .LVU2316
	.uleb128 .LVU2316
	.uleb128 .LVU2321
	.uleb128 .LVU2321
	.uleb128 .LVU2354
	.uleb128 .LVU2393
	.uleb128 .LVU2401
	.uleb128 .LVU2401
	.uleb128 0
.LLST295:
	.4byte	.LVL489
	.4byte	.LVL495
	.2byte	0x2
	.byte	0x91
	.sleb128 0
	.4byte	.LVL495
	.4byte	.LVL497
	.2byte	0x1
	.byte	0x59
	.4byte	.LVL497
	.4byte	.LVL498
	.2byte	0x2
	.byte	0x91
	.sleb128 -8
	.4byte	.LVL498
	.4byte	.LVL504
	.2byte	0xc
	.byte	0x91
	.sleb128 -92
	.byte	0x6
	.byte	0x78
	.sleb128 0
	.byte	0x1c
	.byte	0x91
	.sleb128 -8
	.byte	0x6
	.byte	0x22
	.byte	0x9f
	.4byte	.LVL504
	.4byte	.LVL505-1
	.2byte	0xc
	.byte	0x91
	.sleb128 -92
	.byte	0x6
	.byte	0x70
	.sleb128 0
	.byte	0x1c
	.byte	0x91
	.sleb128 -8
	.byte	0x6
	.byte	0x22
	.byte	0x9f
	.4byte	.LVL505-1
	.4byte	.LVL505
	.2byte	0xe
	.byte	0x91
	.sleb128 -92
	.byte	0x6
	.byte	0x78
	.sleb128 0
	.byte	0x1c
	.byte	0x91
	.sleb128 -8
	.byte	0x6
	.byte	0x22
	.byte	0x23
	.uleb128 0x8
	.byte	0x9f
	.4byte	.LVL505
	.4byte	.LVL506
	.2byte	0xc
	.byte	0x91
	.sleb128 -92
	.byte	0x6
	.byte	0x78
	.sleb128 0
	.byte	0x1c
	.byte	0x91
	.sleb128 -8
	.byte	0x6
	.byte	0x22
	.byte	0x9f
	.4byte	.LVL506
	.4byte	.LVL507
	.2byte	0xd
	.byte	0x72
	.sleb128 0
	.byte	0x78
	.sleb128 0
	.byte	0x1c
	.byte	0x91
	.sleb128 -8
	.byte	0x6
	.byte	0x22
	.byte	0x73
	.sleb128 0
	.byte	0x22
	.byte	0x9f
	.4byte	.LVL507
	.4byte	.LVL508
	.2byte	0xa
	.byte	0x72
	.sleb128 0
	.byte	0x78
	.sleb128 0
	.byte	0x1c
	.byte	0x91
	.sleb128 -8
	.byte	0x6
	.byte	0x22
	.byte	0x9f
	.4byte	.LVL508
	.4byte	.LVL509
	.2byte	0x11
	.byte	0x70
	.sleb128 0
	.byte	0x91
	.sleb128 -80
	.byte	0x6
	.byte	0x1e
	.byte	0x72
	.sleb128 0
	.byte	0x22
	.byte	0x78
	.sleb128 0
	.byte	0x1c
	.byte	0x79
	.sleb128 0
	.byte	0x22
	.byte	0x9f
	.4byte	.LVL509
	.4byte	.LVL510
	.2byte	0x13
	.byte	0x70
	.sleb128 0
	.byte	0x91
	.sleb128 -80
	.byte	0x6
	.byte	0x1e
	.byte	0x78
	.sleb128 0
	.byte	0x1c
	.byte	0x79
	.sleb128 0
	.byte	0x22
	.byte	0x91
	.sleb128 -92
	.byte	0x6
	.byte	0x22
	.byte	0x9f
	.4byte	.LVL521
	.4byte	.LVL522
	.2byte	0x1
	.byte	0x59
	.4byte	.LVL522
	.4byte	.LVL524
	.2byte	0x2
	.byte	0x91
	.sleb128 0
	.4byte	.LVL524
	.4byte	.LVL535
	.2byte	0x1
	.byte	0x59
	.4byte	.LVL545
	.4byte	.LVL548
	.2byte	0x2
	.byte	0x30
	.byte	0x9f
	.4byte	.LVL548
	.4byte	.LFE23
	.2byte	0x2
	.byte	0x91
	.sleb128 0
	.4byte	0
	.4byte	0
.LVUS296:
	.uleb128 .LVU2322
	.uleb128 .LVU2331
	.uleb128 .LVU2331
	.uleb128 .LVU2332
	.uleb128 .LVU2404
	.uleb128 .LVU2413
	.uleb128 .LVU2413
	.uleb128 .LVU2414
.LLST296:
	.4byte	.LVL524
	.4byte	.LVL525
	.2byte	0x8
	.byte	0x75
	.sleb128 0
	.byte	0x7c
	.sleb128 0
	.byte	0x1c
	.byte	0x23
	.uleb128 0x8
	.byte	0x9f
	.4byte	.LVL525
	.4byte	.LVL526
	.2byte	0x9
	.byte	0x75
	.sleb128 0
	.byte	0x75
	.sleb128 32
	.byte	0x6
	.byte	0x1c
	.byte	0x23
	.uleb128 0x8
	.byte	0x9f
	.4byte	.LVL550
	.4byte	.LVL551
	.2byte	0x8
	.byte	0x75
	.sleb128 0
	.byte	0x72
	.sleb128 0
	.byte	0x1c
	.byte	0x23
	.uleb128 0x8
	.byte	0x9f
	.4byte	.LVL551
	.4byte	.LVL552
	.2byte	0x9
	.byte	0x75
	.sleb128 0
	.byte	0x75
	.sleb128 32
	.byte	0x6
	.byte	0x1c
	.byte	0x23
	.uleb128 0x8
	.byte	0x9f
	.4byte	0
	.4byte	0
.LVUS297:
	.uleb128 .LVU2214
	.uleb128 .LVU2215
.LLST297:
	.4byte	.LVL492
	.4byte	.LVL492
	.2byte	0x2
	.byte	0x30
	.byte	0x9f
	.4byte	0
	.4byte	0
.LVUS301:
	.uleb128 .LVU2250
	.uleb128 .LVU2252
.LLST301:
	.4byte	.LVL501
	.4byte	.LVL502-1
	.2byte	0x8
	.byte	0x91
	.sleb128 -56
	.byte	0x93
	.uleb128 0x4
	.byte	0x91
	.sleb128 -52
	.byte	0x93
	.uleb128 0x4
	.4byte	0
	.4byte	0
.LVUS298:
	.uleb128 .LVU2283
	.uleb128 .LVU2291
	.uleb128 .LVU2291
	.uleb128 .LVU2292
	.uleb128 .LVU2292
	.uleb128 .LVU2295
	.uleb128 .LVU2295
	.uleb128 .LVU2307
.LLST298:
	.4byte	.LVL513
	.4byte	.LVL516
	.2byte	0x8
	.byte	0x91
	.sleb128 -64
	.byte	0x93
	.uleb128 0x4
	.byte	0x91
	.sleb128 -60
	.byte	0x93
	.uleb128 0x4
	.4byte	.LVL516
	.4byte	.LVL517
	.2byte	0x7
	.byte	0x50
	.byte	0x93
	.uleb128 0x4
	.byte	0x91
	.sleb128 -60
	.byte	0x93
	.uleb128 0x4
	.4byte	.LVL517
	.4byte	.LVL518-1
	.2byte	0x6
	.byte	0x50
	.byte	0x93
	.uleb128 0x4
	.byte	0x51
	.byte	0x93
	.uleb128 0x4
	.4byte	.LVL518-1
	.4byte	.LVL520
	.2byte	0x6
	.byte	0x57
	.byte	0x93
	.uleb128 0x4
	.byte	0x58
	.byte	0x93
	.uleb128 0x4
	.4byte	0
	.4byte	0
.LVUS299:
	.uleb128 .LVU2284
	.uleb128 .LVU2286
.LLST299:
	.4byte	.LVL513
	.4byte	.LVL514
	.2byte	0x8
	.byte	0x91
	.sleb128 -64
	.byte	0x93
	.uleb128 0x4
	.byte	0x91
	.sleb128 -60
	.byte	0x93
	.uleb128 0x4
	.4byte	0
	.4byte	0
.LVUS300:
	.uleb128 .LVU2296
	.uleb128 .LVU2298
.LLST300:
	.4byte	.LVL518
	.4byte	.LVL519
	.2byte	0x6
	.byte	0x57
	.byte	0x93
	.uleb128 0x4
	.byte	0x58
	.byte	0x93
	.uleb128 0x4
	.4byte	0
	.4byte	0
.LVUS311:
	.uleb128 .LVU2367
	.uleb128 .LVU2370
	.uleb128 .LVU2375
	.uleb128 .LVU2376
	.uleb128 .LVU2376
	.uleb128 .LVU2379
	.uleb128 .LVU2379
	.uleb128 .LVU2395
	.uleb128 .LVU2395
	.uleb128 .LVU2398
.LLST311:
	.4byte	.LVL538
	.4byte	.LVL539-1
	.2byte	0x8
	.byte	0x91
	.sleb128 -56
	.byte	0x93
	.uleb128 0x4
	.byte	0x91
	.sleb128 -52
	.byte	0x93
	.uleb128 0x4
	.4byte	.LVL541
	.4byte	.LVL542
	.2byte	0x5
	.byte	0x50
	.byte	0x93
	.uleb128 0x4
	.byte	0x93
	.uleb128 0x4
	.4byte	.LVL542
	.4byte	.LVL543-1
	.2byte	0x6
	.byte	0x50
	.byte	0x93
	.uleb128 0x4
	.byte	0x51
	.byte	0x93
	.uleb128 0x4
	.4byte	.LVL543-1
	.4byte	.LVL546
	.2byte	0x6
	.byte	0x57
	.byte	0x93
	.uleb128 0x4
	.byte	0x5a
	.byte	0x93
	.uleb128 0x4
	.4byte	.LVL546
	.4byte	.LVL547-1
	.2byte	0x8
	.byte	0x91
	.sleb128 -56
	.byte	0x93
	.uleb128 0x4
	.byte	0x91
	.sleb128 -52
	.byte	0x93
	.uleb128 0x4
	.4byte	0
	.4byte	0
.LVUS312:
	.uleb128 .LVU2368
	.uleb128 .LVU2370
.LLST312:
	.4byte	.LVL538
	.4byte	.LVL539-1
	.2byte	0x8
	.byte	0x91
	.sleb128 -56
	.byte	0x93
	.uleb128 0x4
	.byte	0x91
	.sleb128 -52
	.byte	0x93
	.uleb128 0x4
	.4byte	0
	.4byte	0
.LVUS313:
	.uleb128 .LVU2380
	.uleb128 .LVU2382
.LLST313:
	.4byte	.LVL543
	.4byte	.LVL544
	.2byte	0x6
	.byte	0x57
	.byte	0x93
	.uleb128 0x4
	.byte	0x5a
	.byte	0x93
	.uleb128 0x4
	.4byte	0
	.4byte	0
.LVUS314:
	.uleb128 .LVU2396
	.uleb128 .LVU2398
.LLST314:
	.4byte	.LVL546
	.4byte	.LVL547-1
	.2byte	0x8
	.byte	0x91
	.sleb128 -56
	.byte	0x93
	.uleb128 0x4
	.byte	0x91
	.sleb128 -52
	.byte	0x93
	.uleb128 0x4
	.4byte	0
	.4byte	0
.LVUS302:
	.uleb128 .LVU2323
	.uleb128 .LVU2331
	.uleb128 .LVU2331
	.uleb128 .LVU2332
.LLST302:
	.4byte	.LVL524
	.4byte	.LVL525
	.2byte	0x1
	.byte	0x5c
	.4byte	.LVL525
	.4byte	.LVL526
	.2byte	0x2
	.byte	0x75
	.sleb128 32
	.4byte	0
	.4byte	0
.LVUS303:
	.uleb128 .LVU2323
	.uleb128 .LVU2344
.LLST303:
	.4byte	.LVL524
	.4byte	.LVL528
	.2byte	0x3
	.byte	0x91
	.sleb128 -88
	.4byte	0
	.4byte	0
.LVUS304:
	.uleb128 .LVU2323
	.uleb128 .LVU2331
	.uleb128 .LVU2331
	.uleb128 .LVU2332
.LLST304:
	.4byte	.LVL524
	.4byte	.LVL525
	.2byte	0x8
	.byte	0x75
	.sleb128 0
	.byte	0x7c
	.sleb128 0
	.byte	0x1c
	.byte	0x23
	.uleb128 0x8
	.byte	0x9f
	.4byte	.LVL525
	.4byte	.LVL526
	.2byte	0x9
	.byte	0x75
	.sleb128 0
	.byte	0x75
	.sleb128 32
	.byte	0x6
	.byte	0x1c
	.byte	0x23
	.uleb128 0x8
	.byte	0x9f
	.4byte	0
	.4byte	0
.LVUS305:
	.uleb128 .LVU2323
	.uleb128 .LVU2344
.LLST305:
	.4byte	.LVL524
	.4byte	.LVL528
	.2byte	0x3
	.byte	0x91
	.sleb128 -92
	.4byte	0
	.4byte	0
.LVUS306:
	.uleb128 .LVU2325
	.uleb128 .LVU2345
	.uleb128 .LVU2345
	.uleb128 .LVU2346
	.uleb128 .LVU2346
	.uleb128 .LVU2349
	.uleb128 .LVU2349
	.uleb128 .LVU2354
.LLST306:
	.4byte	.LVL524
	.4byte	.LVL528
	.2byte	0x3
	.byte	0x91
	.sleb128 -92
	.4byte	.LVL528
	.4byte	.LVL529
	.2byte	0x8
	.byte	0x91
	.sleb128 -92
	.byte	0x6
	.byte	0x7c
	.sleb128 0
	.byte	0x22
	.byte	0x9f
	.4byte	.LVL529
	.4byte	.LVL531
	.2byte	0x1
	.byte	0x53
	.4byte	.LVL531
	.4byte	.LVL535
	.2byte	0x3
	.byte	0x91
	.sleb128 -92
	.4byte	0
	.4byte	0
.LVUS307:
	.uleb128 .LVU2326
	.uleb128 .LVU2331
	.uleb128 .LVU2331
	.uleb128 .LVU2332
.LLST307:
	.4byte	.LVL524
	.4byte	.LVL525
	.2byte	0x8
	.byte	0x75
	.sleb128 0
	.byte	0x7c
	.sleb128 0
	.byte	0x1c
	.byte	0x23
	.uleb128 0x8
	.byte	0x9f
	.4byte	.LVL525
	.4byte	.LVL526
	.2byte	0x9
	.byte	0x75
	.sleb128 0
	.byte	0x75
	.sleb128 32
	.byte	0x6
	.byte	0x1c
	.byte	0x23
	.uleb128 0x8
	.byte	0x9f
	.4byte	0
	.4byte	0
.LVUS308:
	.uleb128 .LVU2327
	.uleb128 .LVU2348
	.uleb128 .LVU2348
	.uleb128 .LVU2350
	.uleb128 .LVU2350
	.uleb128 .LVU2353
	.uleb128 .LVU2353
	.uleb128 .LVU2354
.LLST308:
	.4byte	.LVL524
	.4byte	.LVL530
	.2byte	0x3
	.byte	0x91
	.sleb128 -88
	.4byte	.LVL530
	.4byte	.LVL532
	.2byte	0x8
	.byte	0x91
	.sleb128 -88
	.byte	0x6
	.byte	0x7c
	.sleb128 0
	.byte	0x22
	.byte	0x9f
	.4byte	.LVL532
	.4byte	.LVL534
	.2byte	0x1
	.byte	0x53
	.4byte	.LVL534
	.4byte	.LVL535
	.2byte	0x3
	.byte	0x91
	.sleb128 -88
	.4byte	0
	.4byte	0
.LVUS309:
	.uleb128 .LVU2329
	.uleb128 .LVU2332
.LLST309:
	.4byte	.LVL524
	.4byte	.LVL526
	.2byte	0x2
	.byte	0x30
	.byte	0x9f
	.4byte	0
	.4byte	0
.LVUS310:
	.uleb128 .LVU2336
	.uleb128 .LVU2344
.LLST310:
	.4byte	.LVL527
	.4byte	.LVL528
	.2byte	0x1
	.byte	0x53
	.4byte	0
	.4byte	0
.LVUS315:
	.uleb128 .LVU2405
	.uleb128 .LVU2426
.LLST315:
	.4byte	.LVL550
	.4byte	.LVL554
	.2byte	0x1
	.byte	0x59
	.4byte	0
	.4byte	0
.LVUS316:
	.uleb128 .LVU2405
	.uleb128 .LVU2426
.LLST316:
	.4byte	.LVL550
	.4byte	.LVL554
	.2byte	0x3
	.byte	0x91
	.sleb128 -88
	.4byte	0
	.4byte	0
.LVUS317:
	.uleb128 .LVU2405
	.uleb128 .LVU2413
	.uleb128 .LVU2413
	.uleb128 .LVU2414
.LLST317:
	.4byte	.LVL550
	.4byte	.LVL551
	.2byte	0x8
	.byte	0x75
	.sleb128 0
	.byte	0x72
	.sleb128 0
	.byte	0x1c
	.byte	0x23
	.uleb128 0x8
	.byte	0x9f
	.4byte	.LVL551
	.4byte	.LVL552
	.2byte	0x9
	.byte	0x75
	.sleb128 0
	.byte	0x75
	.sleb128 32
	.byte	0x6
	.byte	0x1c
	.byte	0x23
	.uleb128 0x8
	.byte	0x9f
	.4byte	0
	.4byte	0
.LVUS318:
	.uleb128 .LVU2405
	.uleb128 .LVU2426
.LLST318:
	.4byte	.LVL550
	.4byte	.LVL554
	.2byte	0x3
	.byte	0x91
	.sleb128 -92
	.4byte	0
	.4byte	0
.LVUS319:
	.uleb128 .LVU2407
	.uleb128 .LVU2432
.LLST319:
	.4byte	.LVL550
	.4byte	.LVL555
	.2byte	0x3
	.byte	0x91
	.sleb128 -92
	.4byte	0
	.4byte	0
.LVUS320:
	.uleb128 .LVU2408
	.uleb128 .LVU2413
	.uleb128 .LVU2413
	.uleb128 .LVU2414
.LLST320:
	.4byte	.LVL550
	.4byte	.LVL551
	.2byte	0x8
	.byte	0x75
	.sleb128 0
	.byte	0x72
	.sleb128 0
	.byte	0x1c
	.byte	0x23
	.uleb128 0x8
	.byte	0x9f
	.4byte	.LVL551
	.4byte	.LVL552
	.2byte	0x9
	.byte	0x75
	.sleb128 0
	.byte	0x75
	.sleb128 32
	.byte	0x6
	.byte	0x1c
	.byte	0x23
	.uleb128 0x8
	.byte	0x9f
	.4byte	0
	.4byte	0
.LVUS321:
	.uleb128 .LVU2409
	.uleb128 .LVU2432
.LLST321:
	.4byte	.LVL550
	.4byte	.LVL555
	.2byte	0x3
	.byte	0x91
	.sleb128 -88
	.4byte	0
	.4byte	0
.LVUS322:
	.uleb128 .LVU2411
	.uleb128 .LVU2414
.LLST322:
	.4byte	.LVL550
	.4byte	.LVL552
	.2byte	0x2
	.byte	0x30
	.byte	0x9f
	.4byte	0
	.4byte	0
.LVUS323:
	.uleb128 .LVU2418
	.uleb128 .LVU2426
.LLST323:
	.4byte	.LVL553
	.4byte	.LVL554
	.2byte	0x1
	.byte	0x53
	.4byte	0
	.4byte	0
.LVUS251:
	.uleb128 0
	.uleb128 .LVU1848
	.uleb128 .LVU1848
	.uleb128 .LVU1934
	.uleb128 .LVU1934
	.uleb128 .LVU1985
	.uleb128 .LVU1985
	.uleb128 .LVU2026
	.uleb128 .LVU2026
	.uleb128 .LVU2077
	.uleb128 .LVU2077
	.uleb128 .LVU2112
	.uleb128 .LVU2112
	.uleb128 .LVU2135
	.uleb128 .LVU2135
	.uleb128 .LVU2153
	.uleb128 .LVU2153
	.uleb128 0
.LLST251:
	.4byte	.LVL376
	.4byte	.LVL377
	.2byte	0x1
	.byte	0x50
	.4byte	.LVL377
	.4byte	.LVL399
	.2byte	0x1
	.byte	0x58
	.4byte	.LVL399
	.4byte	.LVL412
	.2byte	0x4
	.byte	0xf3
	.uleb128 0x1
	.byte	0x50
	.byte	0x9f
	.4byte	.LVL412
	.4byte	.LVL422
	.2byte	0x1
	.byte	0x58
	.4byte	.LVL422
	.4byte	.LVL439
	.2byte	0x3
	.byte	0x91
	.sleb128 -104
	.4byte	.LVL439
	.4byte	.LVL454
	.2byte	0x4
	.byte	0xf3
	.uleb128 0x1
	.byte	0x50
	.byte	0x9f
	.4byte	.LVL454
	.4byte	.LVL461
	.2byte	0x1
	.byte	0x58
	.4byte	.LVL461
	.4byte	.LVL471
	.2byte	0x4
	.byte	0xf3
	.uleb128 0x1
	.byte	0x50
	.byte	0x9f
	.4byte	.LVL471
	.4byte	.LFE22
	.2byte	0x1
	.byte	0x58
	.4byte	0
	.4byte	0
.LVUS252:
	.uleb128 0
	.uleb128 .LVU1854
	.uleb128 .LVU1854
	.uleb128 .LVU1930
	.uleb128 .LVU1985
	.uleb128 .LVU2131
	.uleb128 .LVU2131
	.uleb128 .LVU2135
	.uleb128 .LVU2135
	.uleb128 .LVU2143
	.uleb128 .LVU2143
	.uleb128 .LVU2144
	.uleb128 .LVU2144
	.uleb128 .LVU2147
	.uleb128 .LVU2147
	.uleb128 0
.LLST252:
	.4byte	.LVL376
	.4byte	.LVL378
	.2byte	0x1
	.byte	0x51
	.4byte	.LVL378
	.4byte	.LVL398
	.2byte	0x3
	.byte	0x91
	.sleb128 -100
	.4byte	.LVL412
	.4byte	.LVL460
	.2byte	0x3
	.byte	0x91
	.sleb128 -100
	.4byte	.LVL460
	.4byte	.LVL461
	.2byte	0x1
	.byte	0x52
	.4byte	.LVL461
	.4byte	.LVL464
	.2byte	0x3
	.byte	0x91
	.sleb128 -100
	.4byte	.LVL464
	.4byte	.LVL465
	.2byte	0x6
	.byte	0x72
	.sleb128 0
	.byte	0x73
	.sleb128 0
	.byte	0x22
	.byte	0x9f
	.4byte	.LVL465
	.4byte	.LVL467
	.2byte	0x1
	.byte	0x52
	.4byte	.LVL467
	.4byte	.LFE22
	.2byte	0x3
	.byte	0x91
	.sleb128 -100
	.4byte	0
	.4byte	0
.LVUS253:
	.uleb128 0
	.uleb128 .LVU1858
	.uleb128 .LVU1858
	.uleb128 0
.LLST253:
	.4byte	.LVL376
	.4byte	.LVL380-1
	.2byte	0x1
	.byte	0x52
	.4byte	.LVL380-1
	.4byte	.LFE22
	.2byte	0x3
	.byte	0x91
	.sleb128 -108
	.4byte	0
	.4byte	0
.LVUS254:
	.uleb128 0
	.uleb128 .LVU1856
	.uleb128 .LVU1856
	.uleb128 .LVU1886
	.uleb128 .LVU2112
	.uleb128 .LVU2128
	.uleb128 .LVU2128
	.uleb128 .LVU2132
	.uleb128 .LVU2146
	.uleb128 .LVU2148
	.uleb128 .LVU2148
	.uleb128 .LVU2150
	.uleb128 .LVU2150
	.uleb128 .LVU2168
.LLST254:
	.4byte	.LVL376
	.4byte	.LVL379
	.2byte	0x1
	.byte	0x53
	.4byte	.LVL379
	.4byte	.LVL385
	.2byte	0x3
	.byte	0x91
	.sleb128 -96
	.4byte	.LVL454
	.4byte	.LVL459
	.2byte	0x3
	.byte	0x91
	.sleb128 -96
	.4byte	.LVL459
	.4byte	.LVL460
	.2byte	0x4
	.byte	0xf3
	.uleb128 0x1
	.byte	0x53
	.byte	0x9f
	.4byte	.LVL466
	.4byte	.LVL468
	.2byte	0x8
	.byte	0x91
	.sleb128 -96
	.byte	0x6
	.byte	0x73
	.sleb128 0
	.byte	0x22
	.byte	0x9f
	.4byte	.LVL468
	.4byte	.LVL469
	.2byte	0x1
	.byte	0x53
	.4byte	.LVL469
	.4byte	.LVL474
	.2byte	0x3
	.byte	0x91
	.sleb128 -96
	.4byte	0
	.4byte	0
.LVUS255:
	.uleb128 0
	.uleb128 .LVU1886
	.uleb128 .LVU1886
	.uleb128 .LVU1888
	.uleb128 .LVU1888
	.uleb128 .LVU1889
	.uleb128 .LVU1889
	.uleb128 .LVU1934
	.uleb128 .LVU1978
	.uleb128 .LVU1983
	.uleb128 .LVU1985
	.uleb128 .LVU1986
	.uleb128 .LVU1986
	.uleb128 .LVU2112
	.uleb128 .LVU2112
	.uleb128 .LVU2121
	.uleb128 .LVU2121
	.uleb128 .LVU2123
	.uleb128 .LVU2123
	.uleb128 .LVU2133
	.uleb128 .LVU2133
	.uleb128 .LVU2135
	.uleb128 .LVU2135
	.uleb128 .LVU2151
	.uleb128 .LVU2151
	.uleb128 .LVU2153
	.uleb128 .LVU2153
	.uleb128 .LVU2168
	.uleb128 .LVU2168
	.uleb128 .LVU2169
	.uleb128 .LVU2169
	.uleb128 0
.LLST255:
	.4byte	.LVL376
	.4byte	.LVL385
	.2byte	0x2
	.byte	0x91
	.sleb128 0
	.4byte	.LVL385
	.4byte	.LVL386
	.2byte	0x1
	.byte	0x52
	.4byte	.LVL386
	.4byte	.LVL387
	.2byte	0x1
	.byte	0x53
	.4byte	.LVL387
	.4byte	.LVL399
	.2byte	0x2
	.byte	0x91
	.sleb128 -8
	.4byte	.LVL409
	.4byte	.LVL411
	.2byte	0x2
	.byte	0x30
	.byte	0x9f
	.4byte	.LVL412
	.4byte	.LVL413
	.2byte	0x1
	.byte	0x53
	.4byte	.LVL413
	.4byte	.LVL454
	.2byte	0x2
	.byte	0x91
	.sleb128 -8
	.4byte	.LVL454
	.4byte	.LVL456
	.2byte	0x2
	.byte	0x91
	.sleb128 0
	.4byte	.LVL456
	.4byte	.LVL457
	.2byte	0x1
	.byte	0x52
	.4byte	.LVL457
	.4byte	.LVL460
	.2byte	0x2
	.byte	0x91
	.sleb128 -8
	.4byte	.LVL460
	.4byte	.LVL461
	.2byte	0x1
	.byte	0x53
	.4byte	.LVL461
	.4byte	.LVL470
	.2byte	0x2
	.byte	0x91
	.sleb128 -8
	.4byte	.LVL470
	.4byte	.LVL471
	.2byte	0x1
	.byte	0x54
	.4byte	.LVL471
	.4byte	.LVL474
	.2byte	0x2
	.byte	0x91
	.sleb128 0
	.4byte	.LVL474
	.4byte	.LVL475
	.2byte	0x1
	.byte	0x53
	.4byte	.LVL475
	.4byte	.LFE22
	.2byte	0x2
	.byte	0x91
	.sleb128 -8
	.4byte	0
	.4byte	0
.LVUS256:
	.uleb128 .LVU2122
	.uleb128 .LVU2124
	.uleb128 .LVU2157
	.uleb128 .LVU2162
.LLST256:
	.4byte	.LVL456
	.4byte	.LVL458-1
	.2byte	0x8
	.byte	0x78
	.sleb128 0
	.byte	0x73
	.sleb128 0
	.byte	0x1c
	.byte	0x23
	.uleb128 0x8
	.byte	0x9f
	.4byte	.LVL472
	.4byte	.LVL473-1
	.2byte	0x9
	.byte	0x78
	.sleb128 0
	.byte	0x78
	.sleb128 32
	.byte	0x6
	.byte	0x1c
	.byte	0x23
	.uleb128 0x8
	.byte	0x9f
	.4byte	0
	.4byte	0
.LVUS257:
	.uleb128 .LVU1884
	.uleb128 .LVU1983
	.uleb128 .LVU1985
	.uleb128 .LVU2153
	.uleb128 .LVU2168
	.uleb128 0
.LLST257:
	.4byte	.LVL384
	.4byte	.LVL411
	.2byte	0x2
	.byte	0x30
	.byte	0x9f
	.4byte	.LVL412
	.4byte	.LVL471
	.2byte	0x2
	.byte	0x30
	.byte	0x9f
	.4byte	.LVL474
	.4byte	.LFE22
	.2byte	0x2
	.byte	0x30
	.byte	0x9f
	.4byte	0
	.4byte	0
.LVUS258:
	.uleb128 .LVU1864
	.uleb128 .LVU1865
.LLST258:
	.4byte	.LVL381
	.4byte	.LVL381
	.2byte	0x2
	.byte	0x30
	.byte	0x9f
	.4byte	0
	.4byte	0
.LVUS266:
	.uleb128 .LVU1995
	.uleb128 .LVU1998
	.uleb128 .LVU1998
	.uleb128 .LVU2022
	.uleb128 .LVU2022
	.uleb128 .LVU2026
	.uleb128 .LVU2026
	.uleb128 .LVU2112
	.uleb128 .LVU2135
	.uleb128 .LVU2153
	.uleb128 .LVU2169
	.uleb128 0
.LLST266:
	.4byte	.LVL415
	.4byte	.LVL416-1
	.2byte	0x1
	.byte	0x53
	.4byte	.LVL416-1
	.4byte	.LVL421
	.2byte	0x1
	.byte	0x57
	.4byte	.LVL421
	.4byte	.LVL422
	.2byte	0x3
	.byte	0x91
	.sleb128 -124
	.4byte	.LVL422
	.4byte	.LVL454
	.2byte	0x6
	.byte	0x91
	.sleb128 -8
	.byte	0x6
	.byte	0x33
	.byte	0x25
	.byte	0x9f
	.4byte	.LVL461
	.4byte	.LVL471
	.2byte	0x6
	.byte	0x91
	.sleb128 -8
	.byte	0x6
	.byte	0x33
	.byte	0x25
	.byte	0x9f
	.4byte	.LVL475
	.4byte	.LFE22
	.2byte	0x1
	.byte	0x57
	.4byte	0
	.4byte	0
.LVUS267:
	.uleb128 .LVU1996
	.uleb128 .LVU1998
	.uleb128 .LVU1998
	.uleb128 .LVU2017
	.uleb128 .LVU2017
	.uleb128 .LVU2066
	.uleb128 .LVU2072
	.uleb128 .LVU2077
	.uleb128 .LVU2078
	.uleb128 .LVU2106
	.uleb128 .LVU2106
	.uleb128 .LVU2110
	.uleb128 .LVU2110
	.uleb128 .LVU2111
	.uleb128 .LVU2169
	.uleb128 .LVU2172
	.uleb128 .LVU2172
	.uleb128 0
.LLST267:
	.4byte	.LVL415
	.4byte	.LVL416-1
	.2byte	0x1
	.byte	0x53
	.4byte	.LVL416-1
	.4byte	.LVL420
	.2byte	0x1
	.byte	0x57
	.4byte	.LVL420
	.4byte	.LVL436
	.2byte	0x3
	.byte	0x91
	.sleb128 -124
	.4byte	.LVL438
	.4byte	.LVL439
	.2byte	0x3
	.byte	0x91
	.sleb128 -124
	.4byte	.LVL440
	.4byte	.LVL450
	.2byte	0x3
	.byte	0x91
	.sleb128 -124
	.4byte	.LVL450
	.4byte	.LVL452
	.2byte	0x3
	.byte	0x73
	.sleb128 -1
	.byte	0x9f
	.4byte	.LVL452
	.4byte	.LVL453
	.2byte	0x7
	.byte	0x91
	.sleb128 -124
	.byte	0x6
	.byte	0x31
	.byte	0x1c
	.byte	0x9f
	.4byte	.LVL475
	.4byte	.LVL476
	.2byte	0x1
	.byte	0x53
	.4byte	.LVL476
	.4byte	.LFE22
	.2byte	0x3
	.byte	0x91
	.sleb128 -124
	.4byte	0
	.4byte	0
.LVUS268:
	.uleb128 .LVU1996
	.uleb128 .LVU2112
	.uleb128 .LVU2135
	.uleb128 .LVU2138
	.uleb128 .LVU2169
	.uleb128 0
.LLST268:
	.4byte	.LVL415
	.4byte	.LVL454
	.2byte	0x3
	.byte	0x91
	.sleb128 -100
	.4byte	.LVL461
	.4byte	.LVL463
	.2byte	0x3
	.byte	0x91
	.sleb128 -100
	.4byte	.LVL475
	.4byte	.LFE22
	.2byte	0x3
	.byte	0x91
	.sleb128 -100
	.4byte	0
	.4byte	0
.LVUS269:
	.uleb128 .LVU1996
	.uleb128 .LVU2026
	.uleb128 .LVU2026
	.uleb128 .LVU2077
	.uleb128 .LVU2077
	.uleb128 .LVU2112
	.uleb128 .LVU2135
	.uleb128 .LVU2138
	.uleb128 .LVU2169
	.uleb128 0
.LLST269:
	.4byte	.LVL415
	.4byte	.LVL422
	.2byte	0x1
	.byte	0x58
	.4byte	.LVL422
	.4byte	.LVL439
	.2byte	0x3
	.byte	0x91
	.sleb128 -104
	.4byte	.LVL439
	.4byte	.LVL454
	.2byte	0x4
	.byte	0xf3
	.uleb128 0x1
	.byte	0x50
	.byte	0x9f
	.4byte	.LVL461
	.4byte	.LVL463
	.2byte	0x4
	.byte	0xf3
	.uleb128 0x1
	.byte	0x50
	.byte	0x9f
	.4byte	.LVL475
	.4byte	.LFE22
	.2byte	0x1
	.byte	0x58
	.4byte	0
	.4byte	0
.LVUS270:
	.uleb128 .LVU1996
	.uleb128 .LVU2026
	.uleb128 .LVU2026
	.uleb128 .LVU2077
	.uleb128 .LVU2077
	.uleb128 .LVU2112
	.uleb128 .LVU2135
	.uleb128 .LVU2138
	.uleb128 .LVU2169
	.uleb128 0
.LLST270:
	.4byte	.LVL415
	.4byte	.LVL422
	.2byte	0x1
	.byte	0x58
	.4byte	.LVL422
	.4byte	.LVL439
	.2byte	0x3
	.byte	0x91
	.sleb128 -104
	.4byte	.LVL439
	.4byte	.LVL454
	.2byte	0x4
	.byte	0xf3
	.uleb128 0x1
	.byte	0x50
	.byte	0x9f
	.4byte	.LVL461
	.4byte	.LVL463
	.2byte	0x4
	.byte	0xf3
	.uleb128 0x1
	.byte	0x50
	.byte	0x9f
	.4byte	.LVL475
	.4byte	.LFE22
	.2byte	0x1
	.byte	0x58
	.4byte	0
	.4byte	0
.LVUS271:
	.uleb128 .LVU1999
	.uleb128 .LVU2026
	.uleb128 .LVU2029
	.uleb128 .LVU2034
	.uleb128 .LVU2034
	.uleb128 .LVU2069
	.uleb128 .LVU2069
	.uleb128 .LVU2077
	.uleb128 .LVU2078
	.uleb128 .LVU2087
	.uleb128 .LVU2087
	.uleb128 .LVU2088
	.uleb128 .LVU2088
	.uleb128 .LVU2100
	.uleb128 .LVU2100
	.uleb128 .LVU2108
	.uleb128 .LVU2108
	.uleb128 .LVU2112
	.uleb128 .LVU2169
	.uleb128 0
.LLST271:
	.4byte	.LVL416
	.4byte	.LVL422
	.2byte	0x3
	.byte	0x91
	.sleb128 -100
	.4byte	.LVL425
	.4byte	.LVL426-1
	.2byte	0x1
	.byte	0x53
	.4byte	.LVL426-1
	.4byte	.LVL438
	.2byte	0x3
	.byte	0x91
	.sleb128 -112
	.4byte	.LVL438
	.4byte	.LVL439
	.2byte	0x1
	.byte	0x53
	.4byte	.LVL440
	.4byte	.LVL444
	.2byte	0x3
	.byte	0x76
	.sleb128 -7
	.byte	0x9f
	.4byte	.LVL444
	.4byte	.LVL445-1
	.2byte	0x1
	.byte	0x50
	.4byte	.LVL445-1
	.4byte	.LVL448
	.2byte	0x3
	.byte	0x76
	.sleb128 -7
	.byte	0x9f
	.4byte	.LVL448
	.4byte	.LVL451
	.2byte	0x3
	.byte	0x76
	.sleb128 1
	.byte	0x9f
	.4byte	.LVL451
	.4byte	.LVL454
	.2byte	0x3
	.byte	0x76
	.sleb128 -7
	.byte	0x9f
	.4byte	.LVL475
	.4byte	.LFE22
	.2byte	0x3
	.byte	0x91
	.sleb128 -100
	.4byte	0
	.4byte	0
.LVUS272:
	.uleb128 .LVU2029
	.uleb128 .LVU2065
	.uleb128 .LVU2065
	.uleb128 .LVU2070
	.uleb128 .LVU2070
	.uleb128 .LVU2077
	.uleb128 .LVU2078
	.uleb128 .LVU2112
	.uleb128 .LVU2135
	.uleb128 .LVU2138
.LLST272:
	.4byte	.LVL425
	.4byte	.LVL435
	.2byte	0x1
	.byte	0x5a
	.4byte	.LVL435
	.4byte	.LVL438
	.2byte	0x3
	.byte	0x7a
	.sleb128 -24
	.byte	0x9f
	.4byte	.LVL438
	.4byte	.LVL439
	.2byte	0x1
	.byte	0x5a
	.4byte	.LVL440
	.4byte	.LVL454
	.2byte	0x1
	.byte	0x5a
	.4byte	.LVL461
	.4byte	.LVL463
	.2byte	0x1
	.byte	0x5a
	.4byte	0
	.4byte	0
.LVUS273:
	.uleb128 .LVU2017
	.uleb128 .LVU2026
	.uleb128 .LVU2029
	.uleb128 .LVU2068
	.uleb128 .LVU2071
	.uleb128 .LVU2077
	.uleb128 .LVU2078
	.uleb128 .LVU2112
	.uleb128 .LVU2169
	.uleb128 0
.LLST273:
	.4byte	.LVL420
	.4byte	.LVL422
	.2byte	0x2
	.byte	0x31
	.byte	0x9f
	.4byte	.LVL425
	.4byte	.LVL437
	.2byte	0x3
	.byte	0x91
	.sleb128 -116
	.4byte	.LVL438
	.4byte	.LVL439
	.2byte	0x3
	.byte	0x91
	.sleb128 -116
	.4byte	.LVL440
	.4byte	.LVL454
	.2byte	0x1
	.byte	0x5b
	.4byte	.LVL475
	.4byte	.LFE22
	.2byte	0x2
	.byte	0x31
	.byte	0x9f
	.4byte	0
	.4byte	0
.LVUS274:
	.uleb128 .LVU2007
	.uleb128 .LVU2017
.LLST274:
	.4byte	.LVL417
	.4byte	.LVL420
	.2byte	0x6
	.byte	0x3
	.4byte	.LC43
	.byte	0x9f
	.4byte	0
	.4byte	0
.LVUS275:
	.uleb128 .LVU2007
	.uleb128 .LVU2017
.LLST275:
	.4byte	.LVL417
	.4byte	.LVL420
	.2byte	0x2
	.byte	0x38
	.byte	0x9f
	.4byte	0
	.4byte	0
.LVUS276:
	.uleb128 .LVU2006
	.uleb128 .LVU2017
.LLST276:
	.4byte	.LVL417
	.4byte	.LVL420
	.2byte	0x1
	.byte	0x58
	.4byte	0
	.4byte	0
.LVUS277:
	.uleb128 .LVU2008
	.uleb128 .LVU2026
	.uleb128 .LVU2026
	.uleb128 .LVU2077
	.uleb128 .LVU2077
	.uleb128 .LVU2112
	.uleb128 .LVU2135
	.uleb128 .LVU2153
	.uleb128 .LVU2169
	.uleb128 0
.LLST277:
	.4byte	.LVL417
	.4byte	.LVL422
	.2byte	0x1
	.byte	0x58
	.4byte	.LVL422
	.4byte	.LVL439
	.2byte	0x3
	.byte	0x91
	.sleb128 -104
	.4byte	.LVL439
	.4byte	.LVL454
	.2byte	0x4
	.byte	0xf3
	.uleb128 0x1
	.byte	0x50
	.byte	0x9f
	.4byte	.LVL461
	.4byte	.LVL471
	.2byte	0x4
	.byte	0xf3
	.uleb128 0x1
	.byte	0x50
	.byte	0x9f
	.4byte	.LVL475
	.4byte	.LFE22
	.2byte	0x1
	.byte	0x58
	.4byte	0
	.4byte	0
.LVUS278:
	.uleb128 .LVU2011
	.uleb128 .LVU2012
.LLST278:
	.4byte	.LVL418
	.4byte	.LVL418
	.2byte	0x2
	.byte	0x30
	.byte	0x9f
	.4byte	0
	.4byte	0
.LVUS279:
	.uleb128 .LVU2052
	.uleb128 .LVU2061
.LLST279:
	.4byte	.LVL431
	.4byte	.LVL434
	.2byte	0x2
	.byte	0x48
	.byte	0x9f
	.4byte	0
	.4byte	0
.LVUS280:
	.uleb128 .LVU2052
	.uleb128 .LVU2061
.LLST280:
	.4byte	.LVL431
	.4byte	.LVL434
	.2byte	0x3
	.byte	0x91
	.sleb128 -112
	.4byte	0
	.4byte	0
.LVUS281:
	.uleb128 .LVU2055
	.uleb128 .LVU2056
	.uleb128 .LVU2056
	.uleb128 .LVU2057
	.uleb128 .LVU2057
	.uleb128 .LVU2059
	.uleb128 .LVU2059
	.uleb128 .LVU2061
.LLST281:
	.4byte	.LVL431
	.4byte	.LVL431
	.2byte	0x2
	.byte	0x30
	.byte	0x9f
	.4byte	.LVL431
	.4byte	.LVL432
	.2byte	0xa
	.byte	0x75
	.sleb128 0
	.byte	0x91
	.sleb128 -112
	.byte	0x6
	.byte	0x1c
	.byte	0x23
	.uleb128 0x1
	.byte	0x9f
	.4byte	.LVL432
	.4byte	.LVL433
	.2byte	0x8
	.byte	0x75
	.sleb128 0
	.byte	0x91
	.sleb128 -112
	.byte	0x6
	.byte	0x1c
	.byte	0x9f
	.4byte	.LVL433
	.4byte	.LVL434
	.2byte	0xa
	.byte	0x75
	.sleb128 0
	.byte	0x91
	.sleb128 -112
	.byte	0x6
	.byte	0x1c
	.byte	0x23
	.uleb128 0x1
	.byte	0x9f
	.4byte	0
	.4byte	0
.LVUS282:
	.uleb128 .LVU2036
	.uleb128 .LVU2037
.LLST282:
	.4byte	.LVL426
	.4byte	.LVL427
	.2byte	0x2
	.byte	0x30
	.byte	0x9f
	.4byte	0
	.4byte	0
.LVUS283:
	.uleb128 .LVU2089
	.uleb128 .LVU2098
.LLST283:
	.4byte	.LVL445
	.4byte	.LVL448
	.2byte	0x2
	.byte	0x38
	.byte	0x9f
	.4byte	0
	.4byte	0
.LVUS284:
	.uleb128 .LVU2089
	.uleb128 .LVU2098
.LLST284:
	.4byte	.LVL445
	.4byte	.LVL448
	.2byte	0x3
	.byte	0x76
	.sleb128 -7
	.byte	0x9f
	.4byte	0
	.4byte	0
.LVUS285:
	.uleb128 .LVU2092
	.uleb128 .LVU2093
	.uleb128 .LVU2093
	.uleb128 .LVU2094
	.uleb128 .LVU2094
	.uleb128 .LVU2096
	.uleb128 .LVU2096
	.uleb128 .LVU2098
.LLST285:
	.4byte	.LVL445
	.4byte	.LVL445
	.2byte	0x2
	.byte	0x30
	.byte	0x9f
	.4byte	.LVL445
	.4byte	.LVL446
	.2byte	0x8
	.byte	0x75
	.sleb128 0
	.byte	0x76
	.sleb128 0
	.byte	0x1c
	.byte	0x23
	.uleb128 0x8
	.byte	0x9f
	.4byte	.LVL446
	.4byte	.LVL447
	.2byte	0x8
	.byte	0x75
	.sleb128 0
	.byte	0x76
	.sleb128 0
	.byte	0x1c
	.byte	0x23
	.uleb128 0x7
	.byte	0x9f
	.4byte	.LVL447
	.4byte	.LVL448
	.2byte	0x8
	.byte	0x75
	.sleb128 0
	.byte	0x76
	.sleb128 0
	.byte	0x1c
	.byte	0x23
	.uleb128 0x8
	.byte	0x9f
	.4byte	0
	.4byte	0
.LVUS259:
	.uleb128 .LVU1910
	.uleb128 .LVU1913
	.uleb128 .LVU1918
	.uleb128 .LVU1919
	.uleb128 .LVU1919
	.uleb128 .LVU1922
	.uleb128 .LVU1922
	.uleb128 .LVU1934
.LLST259:
	.4byte	.LVL391
	.4byte	.LVL392-1
	.2byte	0xa
	.byte	0x91
	.sleb128 -80
	.byte	0x93
	.uleb128 0x4
	.byte	0x91
	.sleb128 -76
	.byte	0x93
	.uleb128 0x4
	.4byte	.LVL394
	.4byte	.LVL395
	.2byte	0x5
	.byte	0x50
	.byte	0x93
	.uleb128 0x4
	.byte	0x93
	.uleb128 0x4
	.4byte	.LVL395
	.4byte	.LVL396-1
	.2byte	0x6
	.byte	0x50
	.byte	0x93
	.uleb128 0x4
	.byte	0x51
	.byte	0x93
	.uleb128 0x4
	.4byte	.LVL396-1
	.4byte	.LVL399
	.2byte	0x6
	.byte	0x56
	.byte	0x93
	.uleb128 0x4
	.byte	0x59
	.byte	0x93
	.uleb128 0x4
	.4byte	0
	.4byte	0
.LVUS260:
	.uleb128 .LVU1911
	.uleb128 .LVU1913
.LLST260:
	.4byte	.LVL391
	.4byte	.LVL392-1
	.2byte	0xa
	.byte	0x91
	.sleb128 -80
	.byte	0x93
	.uleb128 0x4
	.byte	0x91
	.sleb128 -76
	.byte	0x93
	.uleb128 0x4
	.4byte	0
	.4byte	0
.LVUS261:
	.uleb128 .LVU1923
	.uleb128 .LVU1925
.LLST261:
	.4byte	.LVL396
	.4byte	.LVL397
	.2byte	0x6
	.byte	0x56
	.byte	0x93
	.uleb128 0x4
	.byte	0x59
	.byte	0x93
	.uleb128 0x4
	.4byte	0
	.4byte	0
.LVUS262:
	.uleb128 .LVU1950
	.uleb128 .LVU1953
	.uleb128 .LVU1958
	.uleb128 .LVU1959
	.uleb128 .LVU1959
	.uleb128 .LVU1962
	.uleb128 .LVU1962
	.uleb128 .LVU1980
	.uleb128 .LVU1980
	.uleb128 .LVU1983
.LLST262:
	.4byte	.LVL402
	.4byte	.LVL403-1
	.2byte	0xa
	.byte	0x91
	.sleb128 -72
	.byte	0x93
	.uleb128 0x4
	.byte	0x91
	.sleb128 -68
	.byte	0x93
	.uleb128 0x4
	.4byte	.LVL405
	.4byte	.LVL406
	.2byte	0x5
	.byte	0x50
	.byte	0x93
	.uleb128 0x4
	.byte	0x93
	.uleb128 0x4
	.4byte	.LVL406
	.4byte	.LVL407-1
	.2byte	0x6
	.byte	0x50
	.byte	0x93
	.uleb128 0x4
	.byte	0x51
	.byte	0x93
	.uleb128 0x4
	.4byte	.LVL407-1
	.4byte	.LVL410
	.2byte	0x6
	.byte	0x57
	.byte	0x93
	.uleb128 0x4
	.byte	0x5a
	.byte	0x93
	.uleb128 0x4
	.4byte	.LVL410
	.4byte	.LVL411-1
	.2byte	0xa
	.byte	0x91
	.sleb128 -72
	.byte	0x93
	.uleb128 0x4
	.byte	0x91
	.sleb128 -68
	.byte	0x93
	.uleb128 0x4
	.4byte	0
	.4byte	0
.LVUS263:
	.uleb128 .LVU1951
	.uleb128 .LVU1953
.LLST263:
	.4byte	.LVL402
	.4byte	.LVL403-1
	.2byte	0xa
	.byte	0x91
	.sleb128 -72
	.byte	0x93
	.uleb128 0x4
	.byte	0x91
	.sleb128 -68
	.byte	0x93
	.uleb128 0x4
	.4byte	0
	.4byte	0
.LVUS264:
	.uleb128 .LVU1963
	.uleb128 .LVU1965
.LLST264:
	.4byte	.LVL407
	.4byte	.LVL408
	.2byte	0x6
	.byte	0x57
	.byte	0x93
	.uleb128 0x4
	.byte	0x5a
	.byte	0x93
	.uleb128 0x4
	.4byte	0
	.4byte	0
.LVUS265:
	.uleb128 .LVU1981
	.uleb128 .LVU1983
.LLST265:
	.4byte	.LVL410
	.4byte	.LVL411-1
	.2byte	0xa
	.byte	0x91
	.sleb128 -72
	.byte	0x93
	.uleb128 0x4
	.byte	0x91
	.sleb128 -68
	.byte	0x93
	.uleb128 0x4
	.4byte	0
	.4byte	0
.LVUS286:
	.uleb128 0
	.uleb128 .LVU2178
	.uleb128 .LVU2178
	.uleb128 .LVU2193
	.uleb128 .LVU2193
	.uleb128 .LVU2194
	.uleb128 .LVU2194
	.uleb128 .LVU2194
	.uleb128 .LVU2194
	.uleb128 0
.LLST286:
	.4byte	.LVL477
	.4byte	.LVL478
	.2byte	0x1
	.byte	0x50
	.4byte	.LVL478
	.4byte	.LVL485
	.2byte	0x1
	.byte	0x57
	.4byte	.LVL485
	.4byte	.LVL486-1
	.2byte	0x1
	.byte	0x50
	.4byte	.LVL486-1
	.4byte	.LVL486
	.2byte	0x4
	.byte	0xf3
	.uleb128 0x1
	.byte	0x50
	.byte	0x9f
	.4byte	.LVL486
	.4byte	.LFE17
	.2byte	0x1
	.byte	0x57
	.4byte	0
	.4byte	0
.LVUS287:
	.uleb128 0
	.uleb128 .LVU2181
	.uleb128 .LVU2181
	.uleb128 .LVU2193
	.uleb128 .LVU2193
	.uleb128 .LVU2194
	.uleb128 .LVU2194
	.uleb128 .LVU2194
	.uleb128 .LVU2194
	.uleb128 0
.LLST287:
	.4byte	.LVL477
	.4byte	.LVL480
	.2byte	0x1
	.byte	0x51
	.4byte	.LVL480
	.4byte	.LVL485
	.2byte	0x1
	.byte	0x58
	.4byte	.LVL485
	.4byte	.LVL486-1
	.2byte	0x1
	.byte	0x51
	.4byte	.LVL486-1
	.4byte	.LVL486
	.2byte	0x4
	.byte	0xf3
	.uleb128 0x1
	.byte	0x51
	.byte	0x9f
	.4byte	.LVL486
	.4byte	.LFE17
	.2byte	0x1
	.byte	0x58
	.4byte	0
	.4byte	0
.LVUS288:
	.uleb128 0
	.uleb128 .LVU2180
	.uleb128 .LVU2180
	.uleb128 .LVU2193
	.uleb128 .LVU2193
	.uleb128 .LVU2194
	.uleb128 .LVU2194
	.uleb128 .LVU2194
	.uleb128 .LVU2194
	.uleb128 0
.LLST288:
	.4byte	.LVL477
	.4byte	.LVL479
	.2byte	0x1
	.byte	0x52
	.4byte	.LVL479
	.4byte	.LVL485
	.2byte	0x1
	.byte	0x54
	.4byte	.LVL485
	.4byte	.LVL486-1
	.2byte	0x1
	.byte	0x52
	.4byte	.LVL486-1
	.4byte	.LVL486
	.2byte	0x4
	.byte	0xf3
	.uleb128 0x1
	.byte	0x52
	.byte	0x9f
	.4byte	.LVL486
	.4byte	.LFE17
	.2byte	0x1
	.byte	0x54
	.4byte	0
	.4byte	0
.LVUS289:
	.uleb128 0
	.uleb128 .LVU2184
	.uleb128 .LVU2184
	.uleb128 .LVU2190
	.uleb128 .LVU2194
	.uleb128 .LVU2196
	.uleb128 .LVU2196
	.uleb128 .LVU2198
	.uleb128 .LVU2198
	.uleb128 0
.LLST289:
	.4byte	.LVL477
	.4byte	.LVL481-1
	.2byte	0x1
	.byte	0x53
	.4byte	.LVL481-1
	.4byte	.LVL484
	.2byte	0x1
	.byte	0x55
	.4byte	.LVL486
	.4byte	.LVL487
	.2byte	0x1
	.byte	0x55
	.4byte	.LVL487
	.4byte	.LVL488
	.2byte	0x4
	.byte	0xf3
	.uleb128 0x1
	.byte	0x53
	.byte	0x9f
	.4byte	.LVL488
	.4byte	.LFE17
	.2byte	0x1
	.byte	0x55
	.4byte	0
	.4byte	0
.LVUS290:
	.uleb128 0
	.uleb128 .LVU2187
	.uleb128 .LVU2187
	.uleb128 .LVU2190
	.uleb128 .LVU2194
	.uleb128 .LVU2199
	.uleb128 .LVU2199
	.uleb128 0
.LLST290:
	.4byte	.LVL477
	.4byte	.LVL483
	.2byte	0x2
	.byte	0x91
	.sleb128 0
	.4byte	.LVL483
	.4byte	.LVL484
	.2byte	0x1
	.byte	0x56
	.4byte	.LVL486
	.4byte	.LVL488
	.2byte	0x2
	.byte	0x91
	.sleb128 0
	.4byte	.LVL488
	.4byte	.LFE17
	.2byte	0x1
	.byte	0x56
	.4byte	0
	.4byte	0
.LVUS243:
	.uleb128 0
	.uleb128 .LVU1758
	.uleb128 .LVU1758
	.uleb128 0
.LLST243:
	.4byte	.LVL350
	.4byte	.LVL351
	.2byte	0x1
	.byte	0x50
	.4byte	.LVL351
	.4byte	.LFE16
	.2byte	0x1
	.byte	0x54
	.4byte	0
	.4byte	0
.LVUS240:
	.uleb128 0
	.uleb128 .LVU1746
	.uleb128 .LVU1746
	.uleb128 .LVU1748
	.uleb128 .LVU1748
	.uleb128 .LVU1749
	.uleb128 .LVU1749
	.uleb128 0
.LLST240:
	.4byte	.LVL346
	.4byte	.LVL347-1
	.2byte	0x1
	.byte	0x50
	.4byte	.LVL347-1
	.4byte	.LVL348
	.2byte	0x4
	.byte	0xf3
	.uleb128 0x1
	.byte	0x50
	.byte	0x9f
	.4byte	.LVL348
	.4byte	.LVL349-1
	.2byte	0x1
	.byte	0x50
	.4byte	.LVL349-1
	.4byte	.LFE15
	.2byte	0x4
	.byte	0xf3
	.uleb128 0x1
	.byte	0x50
	.byte	0x9f
	.4byte	0
	.4byte	0
.LVUS241:
	.uleb128 0
	.uleb128 .LVU1746
	.uleb128 .LVU1746
	.uleb128 .LVU1748
	.uleb128 .LVU1748
	.uleb128 .LVU1749
	.uleb128 .LVU1749
	.uleb128 0
.LLST241:
	.4byte	.LVL346
	.4byte	.LVL347-1
	.2byte	0x1
	.byte	0x51
	.4byte	.LVL347-1
	.4byte	.LVL348
	.2byte	0x4
	.byte	0xf3
	.uleb128 0x1
	.byte	0x51
	.byte	0x9f
	.4byte	.LVL348
	.4byte	.LVL349-1
	.2byte	0x1
	.byte	0x51
	.4byte	.LVL349-1
	.4byte	.LFE15
	.2byte	0x4
	.byte	0xf3
	.uleb128 0x1
	.byte	0x51
	.byte	0x9f
	.4byte	0
	.4byte	0
.LVUS242:
	.uleb128 0
	.uleb128 .LVU1746
	.uleb128 .LVU1746
	.uleb128 .LVU1748
	.uleb128 .LVU1748
	.uleb128 .LVU1749
	.uleb128 .LVU1749
	.uleb128 0
.LLST242:
	.4byte	.LVL346
	.4byte	.LVL347-1
	.2byte	0x1
	.byte	0x52
	.4byte	.LVL347-1
	.4byte	.LVL348
	.2byte	0x4
	.byte	0xf3
	.uleb128 0x1
	.byte	0x52
	.byte	0x9f
	.4byte	.LVL348
	.4byte	.LVL349-1
	.2byte	0x1
	.byte	0x52
	.4byte	.LVL349-1
	.4byte	.LFE15
	.2byte	0x4
	.byte	0xf3
	.uleb128 0x1
	.byte	0x52
	.byte	0x9f
	.4byte	0
	.4byte	0
.LVUS239:
	.uleb128 0
	.uleb128 .LVU1736
	.uleb128 .LVU1736
	.uleb128 0
.LLST239:
	.4byte	.LVL344
	.4byte	.LVL345-1
	.2byte	0x1
	.byte	0x50
	.4byte	.LVL345-1
	.4byte	.LFE14
	.2byte	0x4
	.byte	0xf3
	.uleb128 0x1
	.byte	0x50
	.byte	0x9f
	.4byte	0
	.4byte	0
.LVUS234:
	.uleb128 0
	.uleb128 .LVU1710
	.uleb128 .LVU1710
	.uleb128 .LVU1729
	.uleb128 .LVU1729
	.uleb128 0
.LLST234:
	.4byte	.LVL337
	.4byte	.LVL339
	.2byte	0x1
	.byte	0x50
	.4byte	.LVL339
	.4byte	.LVL343
	.2byte	0x3
	.byte	0x70
	.sleb128 -64
	.byte	0x9f
	.4byte	.LVL343
	.4byte	.LFE13
	.2byte	0x4
	.byte	0xf3
	.uleb128 0x1
	.byte	0x50
	.byte	0x9f
	.4byte	0
	.4byte	0
.LVUS235:
	.uleb128 0
	.uleb128 .LVU1712
	.uleb128 .LVU1712
	.uleb128 0
.LLST235:
	.4byte	.LVL337
	.4byte	.LVL340
	.2byte	0x1
	.byte	0x51
	.4byte	.LVL340
	.4byte	.LFE13
	.2byte	0x4
	.byte	0xf3
	.uleb128 0x1
	.byte	0x51
	.byte	0x9f
	.4byte	0
	.4byte	0
.LVUS236:
	.uleb128 0
	.uleb128 .LVU1709
	.uleb128 .LVU1709
	.uleb128 0
.LLST236:
	.4byte	.LVL337
	.4byte	.LVL338
	.2byte	0x1
	.byte	0x52
	.4byte	.LVL338
	.4byte	.LFE13
	.2byte	0x4
	.byte	0xf3
	.uleb128 0x1
	.byte	0x52
	.byte	0x9f
	.4byte	0
	.4byte	0
.LVUS237:
	.uleb128 .LVU1706
	.uleb128 .LVU1712
	.uleb128 .LVU1712
	.uleb128 .LVU1714
	.uleb128 .LVU1714
	.uleb128 .LVU1724
.LLST237:
	.4byte	.LVL337
	.4byte	.LVL340
	.2byte	0x2
	.byte	0x30
	.byte	0x9f
	.4byte	.LVL340
	.4byte	.LVL341
	.2byte	0x7
	.byte	0x71
	.sleb128 0
	.byte	0xf3
	.uleb128 0x1
	.byte	0x51
	.byte	0x1c
	.byte	0x9f
	.4byte	.LVL341
	.4byte	.LVL342
	.2byte	0x9
	.byte	0x71
	.sleb128 0
	.byte	0xf3
	.uleb128 0x1
	.byte	0x51
	.byte	0x1c
	.byte	0x34
	.byte	0x1c
	.byte	0x9f
	.4byte	0
	.4byte	0
.LVUS238:
	.uleb128 .LVU1708
	.uleb128 .LVU1712
.LLST238:
	.4byte	.LVL337
	.4byte	.LVL340
	.2byte	0x2
	.byte	0x30
	.byte	0x9f
	.4byte	0
	.4byte	0
.LVUS233:
	.uleb128 0
	.uleb128 .LVU1699
	.uleb128 .LVU1699
	.uleb128 .LVU1700
	.uleb128 .LVU1700
	.uleb128 0
.LLST233:
	.4byte	.LVL334
	.4byte	.LVL335
	.2byte	0x1
	.byte	0x50
	.4byte	.LVL335
	.4byte	.LVL336-1
	.2byte	0x1
	.byte	0x51
	.4byte	.LVL336-1
	.4byte	.LFE12
	.2byte	0x4
	.byte	0xf3
	.uleb128 0x1
	.byte	0x50
	.byte	0x9f
	.4byte	0
	.4byte	0
.LVUS226:
	.uleb128 0
	.uleb128 .LVU1651
	.uleb128 .LVU1651
	.uleb128 .LVU1694
	.uleb128 .LVU1694
	.uleb128 0
.LLST226:
	.4byte	.LVL311
	.4byte	.LVL314
	.2byte	0x1
	.byte	0x50
	.4byte	.LVL314
	.4byte	.LVL333
	.2byte	0x4
	.byte	0xf3
	.uleb128 0x1
	.byte	0x50
	.byte	0x9f
	.4byte	.LVL333
	.4byte	.LFE11
	.2byte	0x1
	.byte	0x50
	.4byte	0
	.4byte	0
.LVUS227:
	.uleb128 0
	.uleb128 .LVU1651
	.uleb128 .LVU1651
	.uleb128 .LVU1676
	.uleb128 .LVU1676
	.uleb128 .LVU1694
	.uleb128 .LVU1694
	.uleb128 0
.LLST227:
	.4byte	.LVL311
	.4byte	.LVL314
	.2byte	0x1
	.byte	0x51
	.4byte	.LVL314
	.4byte	.LVL326
	.2byte	0x2
	.byte	0x91
	.sleb128 -56
	.4byte	.LVL326
	.4byte	.LVL333
	.2byte	0x4
	.byte	0xf3
	.uleb128 0x1
	.byte	0x51
	.byte	0x9f
	.4byte	.LVL333
	.4byte	.LFE11
	.2byte	0x1
	.byte	0x51
	.4byte	0
	.4byte	0
.LVUS228:
	.uleb128 0
	.uleb128 .LVU1651
	.uleb128 .LVU1651
	.uleb128 .LVU1676
	.uleb128 .LVU1676
	.uleb128 .LVU1694
	.uleb128 .LVU1694
	.uleb128 0
.LLST228:
	.4byte	.LVL311
	.4byte	.LVL314
	.2byte	0x1
	.byte	0x52
	.4byte	.LVL314
	.4byte	.LVL326
	.2byte	0x2
	.byte	0x91
	.sleb128 -52
	.4byte	.LVL326
	.4byte	.LVL333
	.2byte	0x4
	.byte	0xf3
	.uleb128 0x1
	.byte	0x52
	.byte	0x9f
	.4byte	.LVL333
	.4byte	.LFE11
	.2byte	0x1
	.byte	0x52
	.4byte	0
	.4byte	0
.LVUS229:
	.uleb128 0
	.uleb128 .LVU1647
	.uleb128 .LVU1647
	.uleb128 .LVU1651
	.uleb128 .LVU1694
	.uleb128 0
.LLST229:
	.4byte	.LVL311
	.4byte	.LVL313
	.2byte	0x1
	.byte	0x53
	.4byte	.LVL313
	.4byte	.LVL314
	.2byte	0x2
	.byte	0x91
	.sleb128 -64
	.4byte	.LVL333
	.4byte	.LFE11
	.2byte	0x1
	.byte	0x53
	.4byte	0
	.4byte	0
.LVUS230:
	.uleb128 .LVU1640
	.uleb128 .LVU1651
	.uleb128 .LVU1651
	.uleb128 .LVU1661
	.uleb128 .LVU1661
	.uleb128 .LVU1662
	.uleb128 .LVU1662
	.uleb128 .LVU1663
	.uleb128 .LVU1663
	.uleb128 .LVU1676
	.uleb128 .LVU1676
	.uleb128 .LVU1682
	.uleb128 .LVU1682
	.uleb128 .LVU1685
	.uleb128 .LVU1685
	.uleb128 .LVU1694
	.uleb128 .LVU1694
	.uleb128 0
.LLST230:
	.4byte	.LVL312
	.4byte	.LVL314
	.2byte	0x1
	.byte	0x50
	.4byte	.LVL314
	.4byte	.LVL319
	.2byte	0x1
	.byte	0x54
	.4byte	.LVL319
	.4byte	.LVL320-1
	.2byte	0x1
	.byte	0x50
	.4byte	.LVL320-1
	.4byte	.LVL320
	.2byte	0x3
	.byte	0x74
	.sleb128 -4
	.byte	0x9f
	.4byte	.LVL320
	.4byte	.LVL326
	.2byte	0x1
	.byte	0x54
	.4byte	.LVL326
	.4byte	.LVL327
	.2byte	0x1
	.byte	0x57
	.4byte	.LVL327
	.4byte	.LVL330
	.2byte	0x3
	.byte	0x77
	.sleb128 1
	.byte	0x9f
	.4byte	.LVL330
	.4byte	.LVL333
	.2byte	0x1
	.byte	0x57
	.4byte	.LVL333
	.4byte	.LFE11
	.2byte	0x1
	.byte	0x50
	.4byte	0
	.4byte	0
.LVUS231:
	.uleb128 .LVU1641
	.uleb128 .LVU1651
	.uleb128 .LVU1651
	.uleb128 .LVU1654
	.uleb128 .LVU1654
	.uleb128 .LVU1655
	.uleb128 .LVU1655
	.uleb128 .LVU1664
	.uleb128 .LVU1664
	.uleb128 .LVU1676
	.uleb128 .LVU1676
	.uleb128 .LVU1682
	.uleb128 .LVU1682
	.uleb128 .LVU1683
	.uleb128 .LVU1683
	.uleb128 .LVU1694
	.uleb128 .LVU1694
	.uleb128 0
.LLST231:
	.4byte	.LVL312
	.4byte	.LVL314
	.2byte	0x1
	.byte	0x51
	.4byte	.LVL314
	.4byte	.LVL315
	.2byte	0x1
	.byte	0x55
	.4byte	.LVL315
	.4byte	.LVL316-1
	.2byte	0x1
	.byte	0x50
	.4byte	.LVL316-1
	.4byte	.LVL320
	.2byte	0x3
	.byte	0x75
	.sleb128 -4
	.byte	0x9f
	.4byte	.LVL320
	.4byte	.LVL326
	.2byte	0x1
	.byte	0x55
	.4byte	.LVL326
	.4byte	.LVL327
	.2byte	0x1
	.byte	0x58
	.4byte	.LVL327
	.4byte	.LVL328
	.2byte	0x3
	.byte	0x78
	.sleb128 1
	.byte	0x9f
	.4byte	.LVL328
	.4byte	.LVL333
	.2byte	0x1
	.byte	0x58
	.4byte	.LVL333
	.4byte	.LFE11
	.2byte	0x1
	.byte	0x51
	.4byte	0
	.4byte	0
.LVUS232:
	.uleb128 .LVU1642
	.uleb128 .LVU1651
	.uleb128 .LVU1651
	.uleb128 .LVU1658
	.uleb128 .LVU1658
	.uleb128 .LVU1659
	.uleb128 .LVU1659
	.uleb128 .LVU1665
	.uleb128 .LVU1665
	.uleb128 .LVU1676
	.uleb128 .LVU1676
	.uleb128 .LVU1682
	.uleb128 .LVU1682
	.uleb128 .LVU1684
	.uleb128 .LVU1684
	.uleb128 .LVU1694
	.uleb128 .LVU1694
	.uleb128 0
.LLST232:
	.4byte	.LVL312
	.4byte	.LVL314
	.2byte	0x1
	.byte	0x52
	.4byte	.LVL314
	.4byte	.LVL317
	.2byte	0x1
	.byte	0x56
	.4byte	.LVL317
	.4byte	.LVL318-1
	.2byte	0x1
	.byte	0x50
	.4byte	.LVL318-1
	.4byte	.LVL320
	.2byte	0x3
	.byte	0x76
	.sleb128 -4
	.byte	0x9f
	.4byte	.LVL320
	.4byte	.LVL326
	.2byte	0x1
	.byte	0x56
	.4byte	.LVL326
	.4byte	.LVL327
	.2byte	0x1
	.byte	0x59
	.4byte	.LVL327
	.4byte	.LVL329
	.2byte	0x3
	.byte	0x79
	.sleb128 1
	.byte	0x9f
	.4byte	.LVL329
	.4byte	.LVL333
	.2byte	0x1
	.byte	0x59
	.4byte	.LVL333
	.4byte	.LFE11
	.2byte	0x1
	.byte	0x52
	.4byte	0
	.4byte	0
.LVUS222:
	.uleb128 0
	.uleb128 .LVU1633
	.uleb128 .LVU1633
	.uleb128 0
.LLST222:
	.4byte	.LVL306
	.4byte	.LVL310-1
	.2byte	0x1
	.byte	0x50
	.4byte	.LVL310-1
	.4byte	.LFE10
	.2byte	0x4
	.byte	0xf3
	.uleb128 0x1
	.byte	0x50
	.byte	0x9f
	.4byte	0
	.4byte	0
.LVUS223:
	.uleb128 0
	.uleb128 .LVU1632
	.uleb128 .LVU1632
	.uleb128 .LVU1633
	.uleb128 .LVU1633
	.uleb128 0
.LLST223:
	.4byte	.LVL306
	.4byte	.LVL309
	.2byte	0x1
	.byte	0x51
	.4byte	.LVL309
	.4byte	.LVL310-1
	.2byte	0x1
	.byte	0x52
	.4byte	.LVL310-1
	.4byte	.LFE10
	.2byte	0x4
	.byte	0xf3
	.uleb128 0x1
	.byte	0x51
	.byte	0x9f
	.4byte	0
	.4byte	0
.LVUS224:
	.uleb128 0
	.uleb128 .LVU1631
	.uleb128 .LVU1631
	.uleb128 .LVU1633
	.uleb128 .LVU1633
	.uleb128 0
.LLST224:
	.4byte	.LVL306
	.4byte	.LVL308
	.2byte	0x1
	.byte	0x52
	.4byte	.LVL308
	.4byte	.LVL310-1
	.2byte	0x1
	.byte	0x53
	.4byte	.LVL310-1
	.4byte	.LFE10
	.2byte	0x4
	.byte	0xf3
	.uleb128 0x1
	.byte	0x52
	.byte	0x9f
	.4byte	0
	.4byte	0
.LVUS225:
	.uleb128 0
	.uleb128 .LVU1630
	.uleb128 .LVU1630
	.uleb128 .LVU1633
	.uleb128 .LVU1633
	.uleb128 0
.LLST225:
	.4byte	.LVL306
	.4byte	.LVL307
	.2byte	0x1
	.byte	0x53
	.4byte	.LVL307
	.4byte	.LVL310-1
	.2byte	0x2
	.byte	0x91
	.sleb128 -24
	.4byte	.LVL310-1
	.4byte	.LFE10
	.2byte	0x4
	.byte	0xf3
	.uleb128 0x1
	.byte	0x53
	.byte	0x9f
	.4byte	0
	.4byte	0
.LVUS218:
	.uleb128 0
	.uleb128 .LVU1625
	.uleb128 .LVU1625
	.uleb128 0
.LLST218:
	.4byte	.LVL301
	.4byte	.LVL305-1
	.2byte	0x1
	.byte	0x50
	.4byte	.LVL305-1
	.4byte	.LFE9
	.2byte	0x4
	.byte	0xf3
	.uleb128 0x1
	.byte	0x50
	.byte	0x9f
	.4byte	0
	.4byte	0
.LVUS219:
	.uleb128 0
	.uleb128 .LVU1624
	.uleb128 .LVU1624
	.uleb128 .LVU1625
	.uleb128 .LVU1625
	.uleb128 0
.LLST219:
	.4byte	.LVL301
	.4byte	.LVL304
	.2byte	0x1
	.byte	0x51
	.4byte	.LVL304
	.4byte	.LVL305-1
	.2byte	0x1
	.byte	0x52
	.4byte	.LVL305-1
	.4byte	.LFE9
	.2byte	0x4
	.byte	0xf3
	.uleb128 0x1
	.byte	0x51
	.byte	0x9f
	.4byte	0
	.4byte	0
.LVUS220:
	.uleb128 0
	.uleb128 .LVU1623
	.uleb128 .LVU1623
	.uleb128 .LVU1625
	.uleb128 .LVU1625
	.uleb128 0
.LLST220:
	.4byte	.LVL301
	.4byte	.LVL303
	.2byte	0x1
	.byte	0x52
	.4byte	.LVL303
	.4byte	.LVL305-1
	.2byte	0x1
	.byte	0x53
	.4byte	.LVL305-1
	.4byte	.LFE9
	.2byte	0x4
	.byte	0xf3
	.uleb128 0x1
	.byte	0x52
	.byte	0x9f
	.4byte	0
	.4byte	0
.LVUS221:
	.uleb128 0
	.uleb128 .LVU1622
	.uleb128 .LVU1622
	.uleb128 .LVU1625
	.uleb128 .LVU1625
	.uleb128 0
.LLST221:
	.4byte	.LVL301
	.4byte	.LVL302
	.2byte	0x1
	.byte	0x53
	.4byte	.LVL302
	.4byte	.LVL305-1
	.2byte	0x2
	.byte	0x91
	.sleb128 -24
	.4byte	.LVL305-1
	.4byte	.LFE9
	.2byte	0x4
	.byte	0xf3
	.uleb128 0x1
	.byte	0x53
	.byte	0x9f
	.4byte	0
	.4byte	0
.LVUS207:
	.uleb128 0
	.uleb128 .LVU1573
	.uleb128 .LVU1573
	.uleb128 .LVU1598
	.uleb128 .LVU1598
	.uleb128 .LVU1616
	.uleb128 .LVU1616
	.uleb128 0
.LLST207:
	.4byte	.LVL278
	.4byte	.LVL281
	.2byte	0x1
	.byte	0x50
	.4byte	.LVL281
	.4byte	.LVL291
	.2byte	0x2
	.byte	0x91
	.sleb128 -60
	.4byte	.LVL291
	.4byte	.LVL299
	.2byte	0x4
	.byte	0xf3
	.uleb128 0x1
	.byte	0x50
	.byte	0x9f
	.4byte	.LVL299
	.4byte	.LFE8
	.2byte	0x1
	.byte	0x50
	.4byte	0
	.4byte	0
.LVUS208:
	.uleb128 0
	.uleb128 .LVU1573
	.uleb128 .LVU1573
	.uleb128 .LVU1598
	.uleb128 .LVU1598
	.uleb128 .LVU1616
	.uleb128 .LVU1616
	.uleb128 0
.LLST208:
	.4byte	.LVL278
	.4byte	.LVL281
	.2byte	0x1
	.byte	0x51
	.4byte	.LVL281
	.4byte	.LVL291
	.2byte	0x2
	.byte	0x91
	.sleb128 -56
	.4byte	.LVL291
	.4byte	.LVL299
	.2byte	0x4
	.byte	0xf3
	.uleb128 0x1
	.byte	0x51
	.byte	0x9f
	.4byte	.LVL299
	.4byte	.LFE8
	.2byte	0x1
	.byte	0x51
	.4byte	0
	.4byte	0
.LVUS209:
	.uleb128 0
	.uleb128 .LVU1573
	.uleb128 .LVU1573
	.uleb128 .LVU1598
	.uleb128 .LVU1598
	.uleb128 .LVU1616
	.uleb128 .LVU1616
	.uleb128 0
.LLST209:
	.4byte	.LVL278
	.4byte	.LVL281
	.2byte	0x1
	.byte	0x52
	.4byte	.LVL281
	.4byte	.LVL291
	.2byte	0x2
	.byte	0x91
	.sleb128 -64
	.4byte	.LVL291
	.4byte	.LVL299
	.2byte	0x4
	.byte	0xf3
	.uleb128 0x1
	.byte	0x52
	.byte	0x9f
	.4byte	.LVL299
	.4byte	.LFE8
	.2byte	0x1
	.byte	0x52
	.4byte	0
	.4byte	0
.LVUS210:
	.uleb128 0
	.uleb128 .LVU1573
	.uleb128 .LVU1573
	.uleb128 .LVU1598
	.uleb128 .LVU1598
	.uleb128 .LVU1616
	.uleb128 .LVU1616
	.uleb128 .LVU1617
	.uleb128 .LVU1617
	.uleb128 0
.LLST210:
	.4byte	.LVL278
	.4byte	.LVL281
	.2byte	0x1
	.byte	0x53
	.4byte	.LVL281
	.4byte	.LVL291
	.2byte	0x2
	.byte	0x91
	.sleb128 -52
	.4byte	.LVL291
	.4byte	.LVL299
	.2byte	0x4
	.byte	0xf3
	.uleb128 0x1
	.byte	0x53
	.byte	0x9f
	.4byte	.LVL299
	.4byte	.LVL300
	.2byte	0x1
	.byte	0x53
	.4byte	.LVL300
	.4byte	.LFE8
	.2byte	0x1
	.byte	0x57
	.4byte	0
	.4byte	0
.LVUS211:
	.uleb128 0
	.uleb128 .LVU1570
	.uleb128 .LVU1570
	.uleb128 .LVU1573
	.uleb128 .LVU1573
	.uleb128 .LVU1582
	.uleb128 .LVU1582
	.uleb128 .LVU1589
	.uleb128 .LVU1589
	.uleb128 .LVU1598
	.uleb128 .LVU1598
	.uleb128 .LVU1602
	.uleb128 .LVU1616
	.uleb128 0
.LLST211:
	.4byte	.LVL278
	.4byte	.LVL280
	.2byte	0x2
	.byte	0x91
	.sleb128 0
	.4byte	.LVL280
	.4byte	.LVL281
	.2byte	0x1
	.byte	0x5c
	.4byte	.LVL281
	.4byte	.LVL287
	.2byte	0x1
	.byte	0x54
	.4byte	.LVL287
	.4byte	.LVL289
	.2byte	0x3
	.byte	0x74
	.sleb128 4
	.byte	0x9f
	.4byte	.LVL289
	.4byte	.LVL291
	.2byte	0x1
	.byte	0x54
	.4byte	.LVL291
	.4byte	.LVL292
	.2byte	0x1
	.byte	0x53
	.4byte	.LVL299
	.4byte	.LFE8
	.2byte	0x1
	.byte	0x5c
	.4byte	0
	.4byte	0
.LVUS212:
	.uleb128 .LVU1564
	.uleb128 .LVU1573
	.uleb128 .LVU1598
	.uleb128 .LVU1607
	.uleb128 .LVU1607
	.uleb128 .LVU1608
	.uleb128 .LVU1608
	.uleb128 .LVU1616
	.uleb128 .LVU1616
	.uleb128 0
.LLST212:
	.4byte	.LVL279
	.4byte	.LVL281
	.2byte	0x1
	.byte	0x50
	.4byte	.LVL291
	.4byte	.LVL295
	.2byte	0x1
	.byte	0x55
	.4byte	.LVL295
	.4byte	.LVL296
	.2byte	0x3
	.byte	0x75
	.sleb128 1
	.byte	0x9f
	.4byte	.LVL296
	.4byte	.LVL299
	.2byte	0x1
	.byte	0x55
	.4byte	.LVL299
	.4byte	.LFE8
	.2byte	0x1
	.byte	0x50
	.4byte	0
	.4byte	0
.LVUS213:
	.uleb128 .LVU1565
	.uleb128 .LVU1573
	.uleb128 .LVU1574
	.uleb128 .LVU1586
	.uleb128 .LVU1616
	.uleb128 0
.LLST213:
	.4byte	.LVL279
	.4byte	.LVL281
	.2byte	0x1
	.byte	0x52
	.4byte	.LVL282
	.4byte	.LVL289
	.2byte	0x1
	.byte	0x55
	.4byte	.LVL299
	.4byte	.LFE8
	.2byte	0x1
	.byte	0x52
	.4byte	0
	.4byte	0
.LVUS214:
	.uleb128 .LVU1566
	.uleb128 .LVU1573
	.uleb128 .LVU1598
	.uleb128 .LVU1605
	.uleb128 .LVU1605
	.uleb128 .LVU1607
	.uleb128 .LVU1613
	.uleb128 .LVU1616
	.uleb128 .LVU1616
	.uleb128 0
.LLST214:
	.4byte	.LVL279
	.4byte	.LVL281
	.2byte	0x1
	.byte	0x51
	.4byte	.LVL291
	.4byte	.LVL294
	.2byte	0x1
	.byte	0x56
	.4byte	.LVL294
	.4byte	.LVL295
	.2byte	0x3
	.byte	0x76
	.sleb128 -1
	.byte	0x9f
	.4byte	.LVL297
	.4byte	.LVL299
	.2byte	0x1
	.byte	0x56
	.4byte	.LVL299
	.4byte	.LFE8
	.2byte	0x1
	.byte	0x51
	.4byte	0
	.4byte	0
.LVUS215:
	.uleb128 .LVU1569
	.uleb128 .LVU1573
	.uleb128 .LVU1598
	.uleb128 .LVU1604
	.uleb128 .LVU1604
	.uleb128 .LVU1606
	.uleb128 .LVU1606
	.uleb128 .LVU1616
	.uleb128 .LVU1616
	.uleb128 .LVU1617
	.uleb128 .LVU1617
	.uleb128 0
.LLST215:
	.4byte	.LVL280
	.4byte	.LVL281
	.2byte	0x1
	.byte	0x53
	.4byte	.LVL291
	.4byte	.LVL293
	.2byte	0x1
	.byte	0x57
	.4byte	.LVL293
	.4byte	.LVL295
	.2byte	0x3
	.byte	0x77
	.sleb128 1
	.byte	0x9f
	.4byte	.LVL295
	.4byte	.LVL299
	.2byte	0x1
	.byte	0x57
	.4byte	.LVL299
	.4byte	.LVL300
	.2byte	0x1
	.byte	0x53
	.4byte	.LVL300
	.4byte	.LFE8
	.2byte	0x1
	.byte	0x57
	.4byte	0
	.4byte	0
.LVUS216:
	.uleb128 .LVU1577
	.uleb128 .LVU1591
.LLST216:
	.4byte	.LVL284
	.4byte	.LVL290
	.2byte	0x1
	.byte	0x56
	.4byte	0
	.4byte	0
.LVUS217:
	.uleb128 .LVU1606
	.uleb128 .LVU1615
.LLST217:
	.4byte	.LVL295
	.4byte	.LVL298
	.2byte	0x1
	.byte	0x50
	.4byte	0
	.4byte	0
.LVUS199:
	.uleb128 0
	.uleb128 .LVU1517
	.uleb128 .LVU1517
	.uleb128 .LVU1532
	.uleb128 .LVU1532
	.uleb128 .LVU1535
	.uleb128 .LVU1535
	.uleb128 .LVU1558
	.uleb128 .LVU1558
	.uleb128 0
.LLST199:
	.4byte	.LVL254
	.4byte	.LVL258
	.2byte	0x1
	.byte	0x50
	.4byte	.LVL258
	.4byte	.LVL264
	.2byte	0x1
	.byte	0x58
	.4byte	.LVL264
	.4byte	.LVL265
	.2byte	0x1
	.byte	0x50
	.4byte	.LVL265
	.4byte	.LVL276
	.2byte	0x1
	.byte	0x58
	.4byte	.LVL276
	.4byte	.LFE7
	.2byte	0x4
	.byte	0xf3
	.uleb128 0x1
	.byte	0x50
	.byte	0x9f
	.4byte	0
	.4byte	0
.LVUS200:
	.uleb128 0
	.uleb128 .LVU1517
	.uleb128 .LVU1517
	.uleb128 .LVU1532
	.uleb128 .LVU1532
	.uleb128 .LVU1537
	.uleb128 .LVU1537
	.uleb128 .LVU1558
	.uleb128 .LVU1558
	.uleb128 0
.LLST200:
	.4byte	.LVL254
	.4byte	.LVL258
	.2byte	0x1
	.byte	0x51
	.4byte	.LVL258
	.4byte	.LVL264
	.2byte	0x1
	.byte	0x59
	.4byte	.LVL264
	.4byte	.LVL266-1
	.2byte	0x1
	.byte	0x51
	.4byte	.LVL266-1
	.4byte	.LVL276
	.2byte	0x1
	.byte	0x59
	.4byte	.LVL276
	.4byte	.LFE7
	.2byte	0x4
	.byte	0xf3
	.uleb128 0x1
	.byte	0x51
	.byte	0x9f
	.4byte	0
	.4byte	0
.LVUS201:
	.uleb128 0
	.uleb128 .LVU1517
	.uleb128 .LVU1517
	.uleb128 .LVU1532
	.uleb128 .LVU1532
	.uleb128 .LVU1537
	.uleb128 .LVU1537
	.uleb128 .LVU1558
	.uleb128 .LVU1558
	.uleb128 .LVU1559
	.uleb128 .LVU1559
	.uleb128 0
.LLST201:
	.4byte	.LVL254
	.4byte	.LVL258
	.2byte	0x1
	.byte	0x52
	.4byte	.LVL258
	.4byte	.LVL264
	.2byte	0x1
	.byte	0x57
	.4byte	.LVL264
	.4byte	.LVL266-1
	.2byte	0x1
	.byte	0x52
	.4byte	.LVL266-1
	.4byte	.LVL276
	.2byte	0x1
	.byte	0x57
	.4byte	.LVL276
	.4byte	.LVL277-1
	.2byte	0x3
	.byte	0x70
	.sleb128 -4
	.byte	0x9f
	.4byte	.LVL277-1
	.4byte	.LFE7
	.2byte	0x4
	.byte	0xf3
	.uleb128 0x1
	.byte	0x52
	.byte	0x9f
	.4byte	0
	.4byte	0
.LVUS202:
	.uleb128 0
	.uleb128 .LVU1517
	.uleb128 .LVU1517
	.uleb128 .LVU1532
	.uleb128 .LVU1532
	.uleb128 .LVU1537
	.uleb128 .LVU1537
	.uleb128 .LVU1540
	.uleb128 .LVU1540
	.uleb128 .LVU1542
	.uleb128 .LVU1542
	.uleb128 0
.LLST202:
	.4byte	.LVL254
	.4byte	.LVL258
	.2byte	0x1
	.byte	0x53
	.4byte	.LVL258
	.4byte	.LVL264
	.2byte	0x1
	.byte	0x5a
	.4byte	.LVL264
	.4byte	.LVL266-1
	.2byte	0x1
	.byte	0x53
	.4byte	.LVL266-1
	.4byte	.LVL267
	.2byte	0x1
	.byte	0x5a
	.4byte	.LVL267
	.4byte	.LVL268-1
	.2byte	0x3
	.byte	0x70
	.sleb128 -4
	.byte	0x9f
	.4byte	.LVL268-1
	.4byte	.LFE7
	.2byte	0x4
	.byte	0xf3
	.uleb128 0x1
	.byte	0x53
	.byte	0x9f
	.4byte	0
	.4byte	0
.LVUS203:
	.uleb128 .LVU1509
	.uleb128 .LVU1517
	.uleb128 .LVU1517
	.uleb128 .LVU1532
	.uleb128 .LVU1532
	.uleb128 .LVU1535
	.uleb128 .LVU1535
	.uleb128 .LVU1558
	.uleb128 .LVU1558
	.uleb128 0
.LLST203:
	.4byte	.LVL255
	.4byte	.LVL258
	.2byte	0x1
	.byte	0x50
	.4byte	.LVL258
	.4byte	.LVL264
	.2byte	0x1
	.byte	0x58
	.4byte	.LVL264
	.4byte	.LVL265
	.2byte	0x1
	.byte	0x50
	.4byte	.LVL265
	.4byte	.LVL276
	.2byte	0x1
	.byte	0x58
	.4byte	.LVL276
	.4byte	.LFE7
	.2byte	0x4
	.byte	0xf3
	.uleb128 0x1
	.byte	0x50
	.byte	0x9f
	.4byte	0
	.4byte	0
.LVUS204:
	.uleb128 .LVU1511
	.uleb128 .LVU1517
	.uleb128 .LVU1517
	.uleb128 .LVU1532
	.uleb128 .LVU1532
	.uleb128 .LVU1537
	.uleb128 .LVU1537
	.uleb128 .LVU1558
	.uleb128 .LVU1558
	.uleb128 .LVU1559
	.uleb128 .LVU1559
	.uleb128 0
.LLST204:
	.4byte	.LVL256
	.4byte	.LVL258
	.2byte	0x1
	.byte	0x52
	.4byte	.LVL258
	.4byte	.LVL264
	.2byte	0x1
	.byte	0x57
	.4byte	.LVL264
	.4byte	.LVL266-1
	.2byte	0x1
	.byte	0x52
	.4byte	.LVL266-1
	.4byte	.LVL276
	.2byte	0x1
	.byte	0x57
	.4byte	.LVL276
	.4byte	.LVL277-1
	.2byte	0x3
	.byte	0x70
	.sleb128 -4
	.byte	0x9f
	.4byte	.LVL277-1
	.4byte	.LFE7
	.2byte	0x4
	.byte	0xf3
	.uleb128 0x1
	.byte	0x52
	.byte	0x9f
	.4byte	0
	.4byte	0
.LVUS205:
	.uleb128 .LVU1512
	.uleb128 .LVU1517
	.uleb128 .LVU1517
	.uleb128 .LVU1532
	.uleb128 .LVU1532
	.uleb128 .LVU1537
	.uleb128 .LVU1537
	.uleb128 .LVU1558
	.uleb128 .LVU1558
	.uleb128 0
.LLST205:
	.4byte	.LVL256
	.4byte	.LVL258
	.2byte	0x1
	.byte	0x51
	.4byte	.LVL258
	.4byte	.LVL264
	.2byte	0x1
	.byte	0x59
	.4byte	.LVL264
	.4byte	.LVL266-1
	.2byte	0x1
	.byte	0x51
	.4byte	.LVL266-1
	.4byte	.LVL276
	.2byte	0x1
	.byte	0x59
	.4byte	.LVL276
	.4byte	.LFE7
	.2byte	0x4
	.byte	0xf3
	.uleb128 0x1
	.byte	0x51
	.byte	0x9f
	.4byte	0
	.4byte	0
.LVUS206:
	.uleb128 .LVU1514
	.uleb128 .LVU1517
	.uleb128 .LVU1517
	.uleb128 .LVU1532
	.uleb128 .LVU1532
	.uleb128 .LVU1537
	.uleb128 .LVU1537
	.uleb128 .LVU1540
	.uleb128 .LVU1540
	.uleb128 .LVU1542
	.uleb128 .LVU1542
	.uleb128 0
.LLST206:
	.4byte	.LVL257
	.4byte	.LVL258
	.2byte	0x1
	.byte	0x53
	.4byte	.LVL258
	.4byte	.LVL264
	.2byte	0x1
	.byte	0x5a
	.4byte	.LVL264
	.4byte	.LVL266-1
	.2byte	0x1
	.byte	0x53
	.4byte	.LVL266-1
	.4byte	.LVL267
	.2byte	0x1
	.byte	0x5a
	.4byte	.LVL267
	.4byte	.LVL268-1
	.2byte	0x3
	.byte	0x70
	.sleb128 -4
	.byte	0x9f
	.4byte	.LVL268-1
	.4byte	.LFE7
	.2byte	0x4
	.byte	0xf3
	.uleb128 0x1
	.byte	0x53
	.byte	0x9f
	.4byte	0
	.4byte	0
.LVUS181:
	.uleb128 0
	.uleb128 .LVU1452
	.uleb128 .LVU1452
	.uleb128 0
.LLST181:
	.4byte	.LVL221
	.4byte	.LVL225
	.2byte	0x1
	.byte	0x50
	.4byte	.LVL225
	.4byte	.LFE5
	.2byte	0x4
	.byte	0xf3
	.uleb128 0x1
	.byte	0x50
	.byte	0x9f
	.4byte	0
	.4byte	0
.LVUS182:
	.uleb128 0
	.uleb128 .LVU1452
	.uleb128 .LVU1452
	.uleb128 0
.LLST182:
	.4byte	.LVL221
	.4byte	.LVL225
	.2byte	0x1
	.byte	0x51
	.4byte	.LVL225
	.4byte	.LFE5
	.2byte	0x4
	.byte	0xf3
	.uleb128 0x1
	.byte	0x51
	.byte	0x9f
	.4byte	0
	.4byte	0
.LVUS183:
	.uleb128 0
	.uleb128 .LVU1451
	.uleb128 .LVU1451
	.uleb128 .LVU1452
	.uleb128 .LVU1452
	.uleb128 0
.LLST183:
	.4byte	.LVL221
	.4byte	.LVL224
	.2byte	0x1
	.byte	0x52
	.4byte	.LVL224
	.4byte	.LVL225
	.2byte	0x3
	.byte	0x72
	.sleb128 1
	.byte	0x9f
	.4byte	.LVL225
	.4byte	.LFE5
	.2byte	0x4
	.byte	0xf3
	.uleb128 0x1
	.byte	0x52
	.byte	0x9f
	.4byte	0
	.4byte	0
.LVUS184:
	.uleb128 0
	.uleb128 .LVU1449
	.uleb128 .LVU1449
	.uleb128 .LVU1452
	.uleb128 .LVU1452
	.uleb128 0
.LLST184:
	.4byte	.LVL221
	.4byte	.LVL223
	.2byte	0x1
	.byte	0x53
	.4byte	.LVL223
	.4byte	.LVL225
	.2byte	0x3
	.byte	0x73
	.sleb128 1
	.byte	0x9f
	.4byte	.LVL225
	.4byte	.LFE5
	.2byte	0x4
	.byte	0xf3
	.uleb128 0x1
	.byte	0x53
	.byte	0x9f
	.4byte	0
	.4byte	0
.LVUS185:
	.uleb128 .LVU1443
	.uleb128 .LVU1452
	.uleb128 .LVU1452
	.uleb128 0
.LLST185:
	.4byte	.LVL222
	.4byte	.LVL225
	.2byte	0x1
	.byte	0x50
	.4byte	.LVL225
	.4byte	.LFE5
	.2byte	0x4
	.byte	0xf3
	.uleb128 0x1
	.byte	0x50
	.byte	0x9f
	.4byte	0
	.4byte	0
.LVUS186:
	.uleb128 .LVU1444
	.uleb128 .LVU1452
	.uleb128 .LVU1452
	.uleb128 0
.LLST186:
	.4byte	.LVL222
	.4byte	.LVL225
	.2byte	0x1
	.byte	0x51
	.4byte	.LVL225
	.4byte	.LFE5
	.2byte	0x4
	.byte	0xf3
	.uleb128 0x1
	.byte	0x51
	.byte	0x9f
	.4byte	0
	.4byte	0
.LVUS187:
	.uleb128 .LVU1445
	.uleb128 .LVU1451
	.uleb128 .LVU1451
	.uleb128 .LVU1452
	.uleb128 .LVU1452
	.uleb128 0
.LLST187:
	.4byte	.LVL222
	.4byte	.LVL224
	.2byte	0x1
	.byte	0x52
	.4byte	.LVL224
	.4byte	.LVL225
	.2byte	0x3
	.byte	0x72
	.sleb128 1
	.byte	0x9f
	.4byte	.LVL225
	.4byte	.LFE5
	.2byte	0x4
	.byte	0xf3
	.uleb128 0x1
	.byte	0x52
	.byte	0x9f
	.4byte	0
	.4byte	0
.LVUS188:
	.uleb128 .LVU1447
	.uleb128 .LVU1452
	.uleb128 .LVU1452
	.uleb128 .LVU1454
	.uleb128 .LVU1454
	.uleb128 .LVU1460
	.uleb128 .LVU1460
	.uleb128 0
.LLST188:
	.4byte	.LVL222
	.4byte	.LVL225
	.2byte	0x2
	.byte	0x30
	.byte	0x9f
	.4byte	.LVL225
	.4byte	.LVL226
	.2byte	0x9
	.byte	0x7c
	.sleb128 0
	.byte	0xf3
	.uleb128 0x1
	.byte	0x51
	.byte	0x1c
	.byte	0x23
	.uleb128 0x1
	.byte	0x9f
	.4byte	.LVL226
	.4byte	.LVL227
	.2byte	0x7
	.byte	0x7c
	.sleb128 0
	.byte	0xf3
	.uleb128 0x1
	.byte	0x51
	.byte	0x1c
	.byte	0x9f
	.4byte	.LVL227
	.4byte	.LFE5
	.2byte	0x9
	.byte	0x7c
	.sleb128 0
	.byte	0xf3
	.uleb128 0x1
	.byte	0x51
	.byte	0x1c
	.byte	0x23
	.uleb128 0x1
	.byte	0x9f
	.4byte	0
	.4byte	0
.LVUS170:
	.uleb128 .LVU1393
	.uleb128 0
.LLST170:
	.4byte	.LVL207
	.4byte	.LFE2
	.2byte	0x1
	.byte	0x50
	.4byte	0
	.4byte	0
.LVUS163:
	.uleb128 0
	.uleb128 .LVU1388
	.uleb128 .LVU1388
	.uleb128 0
.LLST163:
	.4byte	.LVL200
	.4byte	.LVL206
	.2byte	0x1
	.byte	0x50
	.4byte	.LVL206
	.4byte	.LFE1
	.2byte	0x4
	.byte	0xf3
	.uleb128 0x1
	.byte	0x50
	.byte	0x9f
	.4byte	0
	.4byte	0
.LVUS164:
	.uleb128 .LVU1377
	.uleb128 .LVU1388
	.uleb128 .LVU1388
	.uleb128 0
.LLST164:
	.4byte	.LVL201
	.4byte	.LVL206
	.2byte	0x1
	.byte	0x50
	.4byte	.LVL206
	.4byte	.LFE1
	.2byte	0x4
	.byte	0xf3
	.uleb128 0x1
	.byte	0x50
	.byte	0x9f
	.4byte	0
	.4byte	0
.LVUS165:
	.uleb128 .LVU1378
	.uleb128 .LVU1388
	.uleb128 .LVU1388
	.uleb128 0
.LLST165:
	.4byte	.LVL201
	.4byte	.LVL206
	.2byte	0x1
	.byte	0x50
	.4byte	.LVL206
	.4byte	.LFE1
	.2byte	0x4
	.byte	0xf3
	.uleb128 0x1
	.byte	0x50
	.byte	0x9f
	.4byte	0
	.4byte	0
.LVUS166:
	.uleb128 .LVU1380
	.uleb128 0
.LLST166:
	.4byte	.LVL202
	.4byte	.LFE1
	.2byte	0x1
	.byte	0x51
	.4byte	0
	.4byte	0
.LVUS167:
	.uleb128 .LVU1382
	.uleb128 0
.LLST167:
	.4byte	.LVL203
	.4byte	.LFE1
	.2byte	0x1
	.byte	0x52
	.4byte	0
	.4byte	0
.LVUS168:
	.uleb128 .LVU1384
	.uleb128 0
.LLST168:
	.4byte	.LVL204
	.4byte	.LFE1
	.2byte	0x1
	.byte	0x53
	.4byte	0
	.4byte	0
.LVUS169:
	.uleb128 .LVU1386
	.uleb128 0
.LLST169:
	.4byte	.LVL205
	.4byte	.LFE1
	.2byte	0x1
	.byte	0x5c
	.4byte	0
	.4byte	0
.LVUS171:
	.uleb128 0
	.uleb128 .LVU1412
	.uleb128 .LVU1412
	.uleb128 .LVU1413
	.uleb128 .LVU1413
	.uleb128 0
.LLST171:
	.4byte	.LVL208
	.4byte	.LVL211
	.2byte	0x1
	.byte	0x50
	.4byte	.LVL211
	.4byte	.LVL212
	.2byte	0x3
	.byte	0x72
	.sleb128 1
	.byte	0x9f
	.4byte	.LVL212
	.4byte	.LFE3
	.2byte	0x4
	.byte	0xf3
	.uleb128 0x1
	.byte	0x50
	.byte	0x9f
	.4byte	0
	.4byte	0
.LVUS172:
	.uleb128 0
	.uleb128 .LVU1413
	.uleb128 .LVU1413
	.uleb128 .LVU1425
	.uleb128 .LVU1425
	.uleb128 .LVU1426
	.uleb128 .LVU1426
	.uleb128 0
.LLST172:
	.4byte	.LVL208
	.4byte	.LVL212
	.2byte	0x1
	.byte	0x51
	.4byte	.LVL212
	.4byte	.LVL216
	.2byte	0x4
	.byte	0xf3
	.uleb128 0x1
	.byte	0x51
	.byte	0x9f
	.4byte	.LVL216
	.4byte	.LVL217
	.2byte	0x1
	.byte	0x51
	.4byte	.LVL217
	.4byte	.LFE3
	.2byte	0x3
	.byte	0x70
	.sleb128 -7
	.byte	0x9f
	.4byte	0
	.4byte	0
.LVUS173:
	.uleb128 0
	.uleb128 .LVU1411
	.uleb128 .LVU1411
	.uleb128 .LVU1413
	.uleb128 .LVU1413
	.uleb128 0
.LLST173:
	.4byte	.LVL208
	.4byte	.LVL210
	.2byte	0x1
	.byte	0x52
	.4byte	.LVL210
	.4byte	.LVL212
	.2byte	0x3
	.byte	0x7e
	.sleb128 1
	.byte	0x9f
	.4byte	.LVL212
	.4byte	.LFE3
	.2byte	0x4
	.byte	0xf3
	.uleb128 0x1
	.byte	0x52
	.byte	0x9f
	.4byte	0
	.4byte	0
.LVUS174:
	.uleb128 0
	.uleb128 .LVU1413
	.uleb128 .LVU1413
	.uleb128 .LVU1425
	.uleb128 .LVU1425
	.uleb128 .LVU1426
	.uleb128 .LVU1426
	.uleb128 0
.LLST174:
	.4byte	.LVL208
	.4byte	.LVL212
	.2byte	0x1
	.byte	0x53
	.4byte	.LVL212
	.4byte	.LVL216
	.2byte	0x4
	.byte	0xf3
	.uleb128 0x1
	.byte	0x53
	.byte	0x9f
	.4byte	.LVL216
	.4byte	.LVL217
	.2byte	0x1
	.byte	0x53
	.4byte	.LVL217
	.4byte	.LFE3
	.2byte	0x4
	.byte	0xf3
	.uleb128 0x1
	.byte	0x53
	.byte	0x9f
	.4byte	0
	.4byte	0
.LVUS175:
	.uleb128 .LVU1409
	.uleb128 .LVU1413
	.uleb128 .LVU1413
	.uleb128 .LVU1425
	.uleb128 .LVU1425
	.uleb128 .LVU1426
	.uleb128 .LVU1426
	.uleb128 0
.LLST175:
	.4byte	.LVL209
	.4byte	.LVL212
	.2byte	0x1
	.byte	0x51
	.4byte	.LVL212
	.4byte	.LVL216
	.2byte	0x4
	.byte	0xf3
	.uleb128 0x1
	.byte	0x51
	.byte	0x9f
	.4byte	.LVL216
	.4byte	.LVL217
	.2byte	0x1
	.byte	0x51
	.4byte	.LVL217
	.4byte	.LFE3
	.2byte	0x3
	.byte	0x70
	.sleb128 -7
	.byte	0x9f
	.4byte	0
	.4byte	0
.LVUS176:
	.uleb128 .LVU1411
	.uleb128 .LVU1413
	.uleb128 .LVU1413
	.uleb128 .LVU1425
	.uleb128 .LVU1425
	.uleb128 .LVU1426
	.uleb128 .LVU1426
	.uleb128 0
.LLST176:
	.4byte	.LVL210
	.4byte	.LVL212
	.2byte	0x1
	.byte	0x52
	.4byte	.LVL212
	.4byte	.LVL216
	.2byte	0x6
	.byte	0xf3
	.uleb128 0x1
	.byte	0x50
	.byte	0x31
	.byte	0x1c
	.byte	0x9f
	.4byte	.LVL216
	.4byte	.LVL217
	.2byte	0x1
	.byte	0x52
	.4byte	.LVL217
	.4byte	.LFE3
	.2byte	0x6
	.byte	0xf3
	.uleb128 0x1
	.byte	0x50
	.byte	0x31
	.byte	0x1c
	.byte	0x9f
	.4byte	0
	.4byte	0
.LVUS177:
	.uleb128 .LVU1413
	.uleb128 .LVU1415
	.uleb128 .LVU1415
	.uleb128 .LVU1423
	.uleb128 .LVU1423
	.uleb128 .LVU1425
.LLST177:
	.4byte	.LVL212
	.4byte	.LVL213
	.2byte	0x9
	.byte	0x7c
	.sleb128 0
	.byte	0xf3
	.uleb128 0x1
	.byte	0x51
	.byte	0x1c
	.byte	0x23
	.uleb128 0x1
	.byte	0x9f
	.4byte	.LVL213
	.4byte	.LVL215
	.2byte	0x7
	.byte	0x7c
	.sleb128 0
	.byte	0xf3
	.uleb128 0x1
	.byte	0x51
	.byte	0x1c
	.byte	0x9f
	.4byte	.LVL215
	.4byte	.LVL216
	.2byte	0x9
	.byte	0x7c
	.sleb128 0
	.byte	0xf3
	.uleb128 0x1
	.byte	0x51
	.byte	0x1c
	.byte	0x23
	.uleb128 0x1
	.byte	0x9f
	.4byte	0
	.4byte	0
.LVUS178:
	.uleb128 .LVU1418
	.uleb128 .LVU1425
.LLST178:
	.4byte	.LVL214
	.4byte	.LVL216
	.2byte	0x1
	.byte	0x53
	.4byte	0
	.4byte	0
.LVUS179:
	.uleb128 .LVU1426
	.uleb128 .LVU1429
	.uleb128 .LVU1429
	.uleb128 .LVU1437
	.uleb128 .LVU1437
	.uleb128 0
.LLST179:
	.4byte	.LVL217
	.4byte	.LVL218
	.2byte	0x8
	.byte	0x7c
	.sleb128 0
	.byte	0x70
	.sleb128 0
	.byte	0x1c
	.byte	0x23
	.uleb128 0x8
	.byte	0x9f
	.4byte	.LVL218
	.4byte	.LVL220
	.2byte	0x8
	.byte	0x7c
	.sleb128 0
	.byte	0x70
	.sleb128 0
	.byte	0x1c
	.byte	0x23
	.uleb128 0x7
	.byte	0x9f
	.4byte	.LVL220
	.4byte	.LFE3
	.2byte	0x8
	.byte	0x7c
	.sleb128 0
	.byte	0x70
	.sleb128 0
	.byte	0x1c
	.byte	0x23
	.uleb128 0x8
	.byte	0x9f
	.4byte	0
	.4byte	0
.LVUS180:
	.uleb128 .LVU1432
	.uleb128 0
.LLST180:
	.4byte	.LVL219
	.4byte	.LFE3
	.2byte	0x1
	.byte	0x53
	.4byte	0
	.4byte	0
.LVUS189:
	.uleb128 0
	.uleb128 .LVU1471
	.uleb128 .LVU1471
	.uleb128 .LVU1491
	.uleb128 .LVU1491
	.uleb128 .LVU1492
	.uleb128 .LVU1492
	.uleb128 .LVU1492
	.uleb128 .LVU1492
	.uleb128 .LVU1503
	.uleb128 .LVU1503
	.uleb128 .LVU1504
	.uleb128 .LVU1504
	.uleb128 0
.LLST189:
	.4byte	.LVL228
	.4byte	.LVL230
	.2byte	0x1
	.byte	0x50
	.4byte	.LVL230
	.4byte	.LVL244
	.2byte	0x1
	.byte	0x54
	.4byte	.LVL244
	.4byte	.LVL245-1
	.2byte	0x3
	.byte	0x70
	.sleb128 -12
	.byte	0x9f
	.4byte	.LVL245-1
	.4byte	.LVL245
	.2byte	0x4
	.byte	0xf3
	.uleb128 0x1
	.byte	0x50
	.byte	0x9f
	.4byte	.LVL245
	.4byte	.LVL252
	.2byte	0x1
	.byte	0x54
	.4byte	.LVL252
	.4byte	.LVL253-1
	.2byte	0x3
	.byte	0x70
	.sleb128 -4
	.byte	0x9f
	.4byte	.LVL253-1
	.4byte	.LFE6
	.2byte	0x4
	.byte	0xf3
	.uleb128 0x1
	.byte	0x50
	.byte	0x9f
	.4byte	0
	.4byte	0
.LVUS190:
	.uleb128 0
	.uleb128 .LVU1475
	.uleb128 .LVU1475
	.uleb128 .LVU1485
	.uleb128 .LVU1485
	.uleb128 .LVU1492
	.uleb128 .LVU1492
	.uleb128 .LVU1495
	.uleb128 .LVU1495
	.uleb128 .LVU1499
	.uleb128 .LVU1499
	.uleb128 0
.LLST190:
	.4byte	.LVL228
	.4byte	.LVL232-1
	.2byte	0x1
	.byte	0x51
	.4byte	.LVL232-1
	.4byte	.LVL239
	.2byte	0x1
	.byte	0x55
	.4byte	.LVL239
	.4byte	.LVL245
	.2byte	0x4
	.byte	0xf3
	.uleb128 0x1
	.byte	0x51
	.byte	0x9f
	.4byte	.LVL245
	.4byte	.LVL246-1
	.2byte	0x1
	.byte	0x50
	.4byte	.LVL246-1
	.4byte	.LVL249
	.2byte	0x1
	.byte	0x55
	.4byte	.LVL249
	.4byte	.LFE6
	.2byte	0x4
	.byte	0xf3
	.uleb128 0x1
	.byte	0x51
	.byte	0x9f
	.4byte	0
	.4byte	0
.LVUS191:
	.uleb128 0
	.uleb128 .LVU1475
	.uleb128 .LVU1475
	.uleb128 .LVU1492
	.uleb128 .LVU1492
	.uleb128 .LVU1495
	.uleb128 .LVU1495
	.uleb128 0
.LLST191:
	.4byte	.LVL228
	.4byte	.LVL232-1
	.2byte	0x1
	.byte	0x52
	.4byte	.LVL232-1
	.4byte	.LVL245
	.2byte	0x4
	.byte	0xf3
	.uleb128 0x1
	.byte	0x52
	.byte	0x9f
	.4byte	.LVL245
	.4byte	.LVL246-1
	.2byte	0x1
	.byte	0x52
	.4byte	.LVL246-1
	.4byte	.LFE6
	.2byte	0x4
	.byte	0xf3
	.uleb128 0x1
	.byte	0x52
	.byte	0x9f
	.4byte	0
	.4byte	0
.LVUS192:
	.uleb128 .LVU1467
	.uleb128 .LVU1471
	.uleb128 .LVU1471
	.uleb128 .LVU1491
	.uleb128 .LVU1491
	.uleb128 .LVU1492
	.uleb128 .LVU1492
	.uleb128 .LVU1492
	.uleb128 .LVU1492
	.uleb128 .LVU1503
	.uleb128 .LVU1503
	.uleb128 .LVU1504
	.uleb128 .LVU1504
	.uleb128 0
.LLST192:
	.4byte	.LVL229
	.4byte	.LVL230
	.2byte	0x1
	.byte	0x50
	.4byte	.LVL230
	.4byte	.LVL244
	.2byte	0x1
	.byte	0x54
	.4byte	.LVL244
	.4byte	.LVL245-1
	.2byte	0x3
	.byte	0x70
	.sleb128 -12
	.byte	0x9f
	.4byte	.LVL245-1
	.4byte	.LVL245
	.2byte	0x4
	.byte	0xf3
	.uleb128 0x1
	.byte	0x50
	.byte	0x9f
	.4byte	.LVL245
	.4byte	.LVL252
	.2byte	0x1
	.byte	0x54
	.4byte	.LVL252
	.4byte	.LVL253-1
	.2byte	0x3
	.byte	0x70
	.sleb128 -4
	.byte	0x9f
	.4byte	.LVL253-1
	.4byte	.LFE6
	.2byte	0x4
	.byte	0xf3
	.uleb128 0x1
	.byte	0x50
	.byte	0x9f
	.4byte	0
	.4byte	0
.LVUS193:
	.uleb128 .LVU1468
	.uleb128 .LVU1475
	.uleb128 .LVU1475
	.uleb128 .LVU1485
	.uleb128 .LVU1485
	.uleb128 .LVU1492
	.uleb128 .LVU1492
	.uleb128 .LVU1495
	.uleb128 .LVU1495
	.uleb128 .LVU1499
	.uleb128 .LVU1499
	.uleb128 0
.LLST193:
	.4byte	.LVL229
	.4byte	.LVL232-1
	.2byte	0x1
	.byte	0x51
	.4byte	.LVL232-1
	.4byte	.LVL239
	.2byte	0x1
	.byte	0x55
	.4byte	.LVL239
	.4byte	.LVL245
	.2byte	0x4
	.byte	0xf3
	.uleb128 0x1
	.byte	0x51
	.byte	0x9f
	.4byte	.LVL245
	.4byte	.LVL246-1
	.2byte	0x1
	.byte	0x50
	.4byte	.LVL246-1
	.4byte	.LVL249
	.2byte	0x1
	.byte	0x55
	.4byte	.LVL249
	.4byte	.LFE6
	.2byte	0x4
	.byte	0xf3
	.uleb128 0x1
	.byte	0x51
	.byte	0x9f
	.4byte	0
	.4byte	0
.LVUS194:
	.uleb128 .LVU1497
	.uleb128 .LVU1499
	.uleb128 .LVU1499
	.uleb128 .LVU1500
	.uleb128 .LVU1500
	.uleb128 .LVU1503
	.uleb128 .LVU1503
	.uleb128 .LVU1504
.LLST194:
	.4byte	.LVL247
	.4byte	.LVL249
	.2byte	0x5
	.byte	0x56
	.byte	0x93
	.uleb128 0x4
	.byte	0x93
	.uleb128 0xc
	.4byte	.LVL249
	.4byte	.LVL250
	.2byte	0x8
	.byte	0x56
	.byte	0x93
	.uleb128 0x4
	.byte	0x50
	.byte	0x93
	.uleb128 0x4
	.byte	0x93
	.uleb128 0x8
	.4byte	.LVL250
	.4byte	.LVL252
	.2byte	0x8
	.byte	0x56
	.byte	0x93
	.uleb128 0x4
	.byte	0x55
	.byte	0x93
	.uleb128 0x4
	.byte	0x93
	.uleb128 0x8
	.4byte	.LVL252
	.4byte	.LVL253-1
	.2byte	0x7
	.byte	0x93
	.uleb128 0x4
	.byte	0x51
	.byte	0x93
	.uleb128 0x4
	.byte	0x93
	.uleb128 0x8
	.4byte	0
	.4byte	0
.LVUS195:
	.uleb128 .LVU1473
	.uleb128 .LVU1475
	.uleb128 .LVU1475
	.uleb128 .LVU1492
.LLST195:
	.4byte	.LVL231
	.4byte	.LVL232-1
	.2byte	0x1
	.byte	0x52
	.4byte	.LVL232-1
	.4byte	.LVL245
	.2byte	0x4
	.byte	0xf3
	.uleb128 0x1
	.byte	0x52
	.byte	0x9f
	.4byte	0
	.4byte	0
.LVUS196:
	.uleb128 .LVU1472
	.uleb128 .LVU1475
	.uleb128 .LVU1475
	.uleb128 .LVU1485
	.uleb128 .LVU1485
	.uleb128 .LVU1492
.LLST196:
	.4byte	.LVL231
	.4byte	.LVL232-1
	.2byte	0x1
	.byte	0x51
	.4byte	.LVL232-1
	.4byte	.LVL239
	.2byte	0x1
	.byte	0x55
	.4byte	.LVL239
	.4byte	.LVL245
	.2byte	0x4
	.byte	0xf3
	.uleb128 0x1
	.byte	0x51
	.byte	0x9f
	.4byte	0
	.4byte	0
.LVUS197:
	.uleb128 .LVU1472
	.uleb128 .LVU1491
	.uleb128 .LVU1491
	.uleb128 .LVU1492
	.uleb128 .LVU1492
	.uleb128 .LVU1492
.LLST197:
	.4byte	.LVL231
	.4byte	.LVL244
	.2byte	0x1
	.byte	0x54
	.4byte	.LVL244
	.4byte	.LVL245-1
	.2byte	0x3
	.byte	0x70
	.sleb128 -12
	.byte	0x9f
	.4byte	.LVL245-1
	.4byte	.LVL245
	.2byte	0x4
	.byte	0xf3
	.uleb128 0x1
	.byte	0x50
	.byte	0x9f
	.4byte	0
	.4byte	0
.LVUS198:
	.uleb128 .LVU1477
	.uleb128 .LVU1480
	.uleb128 .LVU1480
	.uleb128 .LVU1483
	.uleb128 .LVU1483
	.uleb128 .LVU1485
	.uleb128 .LVU1485
	.uleb128 .LVU1486
	.uleb128 .LVU1486
	.uleb128 .LVU1491
	.uleb128 .LVU1491
	.uleb128 .LVU1492
.LLST198:
	.4byte	.LVL233
	.4byte	.LVL235
	.2byte	0x5
	.byte	0x58
	.byte	0x93
	.uleb128 0x4
	.byte	0x93
	.uleb128 0xc
	.4byte	.LVL235
	.4byte	.LVL237
	.2byte	0x8
	.byte	0x58
	.byte	0x93
	.uleb128 0x4
	.byte	0x57
	.byte	0x93
	.uleb128 0x4
	.byte	0x93
	.uleb128 0x8
	.4byte	.LVL237
	.4byte	.LVL239
	.2byte	0xb
	.byte	0x58
	.byte	0x93
	.uleb128 0x4
	.byte	0x57
	.byte	0x93
	.uleb128 0x4
	.byte	0x56
	.byte	0x93
	.uleb128 0x4
	.byte	0x93
	.uleb128 0x4
	.4byte	.LVL239
	.4byte	.LVL240
	.2byte	0xc
	.byte	0x58
	.byte	0x93
	.uleb128 0x4
	.byte	0x57
	.byte	0x93
	.uleb128 0x4
	.byte	0x56
	.byte	0x93
	.uleb128 0x4
	.byte	0x50
	.byte	0x93
	.uleb128 0x4
	.4byte	.LVL240
	.4byte	.LVL244
	.2byte	0xc
	.byte	0x58
	.byte	0x93
	.uleb128 0x4
	.byte	0x57
	.byte	0x93
	.uleb128 0x4
	.byte	0x56
	.byte	0x93
	.uleb128 0x4
	.byte	0x55
	.byte	0x93
	.uleb128 0x4
	.4byte	.LVL244
	.4byte	.LVL245-1
	.2byte	0x5
	.byte	0x93
	.uleb128 0xc
	.byte	0x51
	.byte	0x93
	.uleb128 0x4
	.4byte	0
	.4byte	0
	.section	.debug_aranges,"",%progbits
	.4byte	0xd4
	.2byte	0x2
	.4byte	.Ldebug_info0
	.byte	0x4
	.byte	0
	.2byte	0
	.2byte	0
	.4byte	.LFB31
	.4byte	.LFE31-.LFB31
	.4byte	.LFB1
	.4byte	.LFE1-.LFB1
	.4byte	.LFB2
	.4byte	.LFE2-.LFB2
	.4byte	.LFB3
	.4byte	.LFE3-.LFB3
	.4byte	.LFB5
	.4byte	.LFE5-.LFB5
	.4byte	.LFB6
	.4byte	.LFE6-.LFB6
	.4byte	.LFB7
	.4byte	.LFE7-.LFB7
	.4byte	.LFB8
	.4byte	.LFE8-.LFB8
	.4byte	.LFB9
	.4byte	.LFE9-.LFB9
	.4byte	.LFB10
	.4byte	.LFE10-.LFB10
	.4byte	.LFB11
	.4byte	.LFE11-.LFB11
	.4byte	.LFB12
	.4byte	.LFE12-.LFB12
	.4byte	.LFB13
	.4byte	.LFE13-.LFB13
	.4byte	.LFB14
	.4byte	.LFE14-.LFB14
	.4byte	.LFB15
	.4byte	.LFE15-.LFB15
	.4byte	.LFB16
	.4byte	.LFE16-.LFB16
	.4byte	.LFB24
	.4byte	.LFE24-.LFB24
	.4byte	.LFB32
	.4byte	.LFE32-.LFB32
	.4byte	.LFB33
	.4byte	.LFE33-.LFB33
	.4byte	.LFB34
	.4byte	.LFE34-.LFB34
	.4byte	.LFB35
	.4byte	.LFE35-.LFB35
	.4byte	.LFB22
	.4byte	.LFE22-.LFB22
	.4byte	.LFB17
	.4byte	.LFE17-.LFB17
	.4byte	.LFB23
	.4byte	.LFE23-.LFB23
	.4byte	0
	.4byte	0
	.section	.debug_ranges,"",%progbits
.Ldebug_ranges0:
	.4byte	.LBB419
	.4byte	.LBE419
	.4byte	.LBB569
	.4byte	.LBE569
	.4byte	.LBB570
	.4byte	.LBE570
	.4byte	.LBB571
	.4byte	.LBE571
	.4byte	.LBB572
	.4byte	.LBE572
	.4byte	.LBB573
	.4byte	.LBE573
	.4byte	.LBB574
	.4byte	.LBE574
	.4byte	.LBB575
	.4byte	.LBE575
	.4byte	.LBB576
	.4byte	.LBE576
	.4byte	.LBB577
	.4byte	.LBE577
	.4byte	.LBB578
	.4byte	.LBE578
	.4byte	.LBB579
	.4byte	.LBE579
	.4byte	.LBB580
	.4byte	.LBE580
	.4byte	.LBB581
	.4byte	.LBE581
	.4byte	.LBB582
	.4byte	.LBE582
	.4byte	.LBB583
	.4byte	.LBE583
	.4byte	.LBB584
	.4byte	.LBE584
	.4byte	.LBB585
	.4byte	.LBE585
	.4byte	.LBB586
	.4byte	.LBE586
	.4byte	.LBB587
	.4byte	.LBE587
	.4byte	.LBB588
	.4byte	.LBE588
	.4byte	.LBB589
	.4byte	.LBE589
	.4byte	.LBB590
	.4byte	.LBE590
	.4byte	.LBB591
	.4byte	.LBE591
	.4byte	.LBB592
	.4byte	.LBE592
	.4byte	.LBB593
	.4byte	.LBE593
	.4byte	.LBB594
	.4byte	.LBE594
	.4byte	.LBB595
	.4byte	.LBE595
	.4byte	.LBB596
	.4byte	.LBE596
	.4byte	.LBB597
	.4byte	.LBE597
	.4byte	.LBB598
	.4byte	.LBE598
	.4byte	.LBB599
	.4byte	.LBE599
	.4byte	.LBB600
	.4byte	.LBE600
	.4byte	.LBB601
	.4byte	.LBE601
	.4byte	.LBB602
	.4byte	.LBE602
	.4byte	.LBB603
	.4byte	.LBE603
	.4byte	.LBB604
	.4byte	.LBE604
	.4byte	.LBB605
	.4byte	.LBE605
	.4byte	.LBB606
	.4byte	.LBE606
	.4byte	.LBB607
	.4byte	.LBE607
	.4byte	.LBB608
	.4byte	.LBE608
	.4byte	.LBB609
	.4byte	.LBE609
	.4byte	.LBB610
	.4byte	.LBE610
	.4byte	.LBB611
	.4byte	.LBE611
	.4byte	.LBB612
	.4byte	.LBE612
	.4byte	.LBB613
	.4byte	.LBE613
	.4byte	.LBB614
	.4byte	.LBE614
	.4byte	.LBB615
	.4byte	.LBE615
	.4byte	.LBB616
	.4byte	.LBE616
	.4byte	.LBB742
	.4byte	.LBE742
	.4byte	.LBB746
	.4byte	.LBE746
	.4byte	0
	.4byte	0
	.4byte	.LBB516
	.4byte	.LBE516
	.4byte	.LBB517
	.4byte	.LBE517
	.4byte	.LBB518
	.4byte	.LBE518
	.4byte	.LBB519
	.4byte	.LBE519
	.4byte	0
	.4byte	0
	.4byte	.LBB520
	.4byte	.LBE520
	.4byte	.LBB527
	.4byte	.LBE527
	.4byte	.LBB528
	.4byte	.LBE528
	.4byte	.LBB529
	.4byte	.LBE529
	.4byte	0
	.4byte	0
	.4byte	.LBB521
	.4byte	.LBE521
	.4byte	.LBB525
	.4byte	.LBE525
	.4byte	.LBB526
	.4byte	.LBE526
	.4byte	0
	.4byte	0
	.4byte	.LBB530
	.4byte	.LBE530
	.4byte	.LBB531
	.4byte	.LBE531
	.4byte	.LBB532
	.4byte	.LBE532
	.4byte	0
	.4byte	0
	.4byte	.LBB533
	.4byte	.LBE533
	.4byte	.LBB534
	.4byte	.LBE534
	.4byte	.LBB535
	.4byte	.LBE535
	.4byte	.LBB536
	.4byte	.LBE536
	.4byte	.LBB537
	.4byte	.LBE537
	.4byte	0
	.4byte	0
	.4byte	.LBB538
	.4byte	.LBE538
	.4byte	.LBB539
	.4byte	.LBE539
	.4byte	.LBB540
	.4byte	.LBE540
	.4byte	0
	.4byte	0
	.4byte	.LBB541
	.4byte	.LBE541
	.4byte	.LBB542
	.4byte	.LBE542
	.4byte	.LBB543
	.4byte	.LBE543
	.4byte	0
	.4byte	0
	.4byte	.LBB544
	.4byte	.LBE544
	.4byte	.LBB551
	.4byte	.LBE551
	.4byte	.LBB552
	.4byte	.LBE552
	.4byte	.LBB553
	.4byte	.LBE553
	.4byte	0
	.4byte	0
	.4byte	.LBB545
	.4byte	.LBE545
	.4byte	.LBB549
	.4byte	.LBE549
	.4byte	.LBB550
	.4byte	.LBE550
	.4byte	0
	.4byte	0
	.4byte	.LBB554
	.4byte	.LBE554
	.4byte	.LBB555
	.4byte	.LBE555
	.4byte	.LBB556
	.4byte	.LBE556
	.4byte	0
	.4byte	0
	.4byte	.LBB557
	.4byte	.LBE557
	.4byte	.LBB558
	.4byte	.LBE558
	.4byte	.LBB559
	.4byte	.LBE559
	.4byte	0
	.4byte	0
	.4byte	.LBB560
	.4byte	.LBE560
	.4byte	.LBB561
	.4byte	.LBE561
	.4byte	.LBB562
	.4byte	.LBE562
	.4byte	.LBB563
	.4byte	.LBE563
	.4byte	.LBB564
	.4byte	.LBE564
	.4byte	0
	.4byte	0
	.4byte	.LBB565
	.4byte	.LBE565
	.4byte	.LBB566
	.4byte	.LBE566
	.4byte	.LBB567
	.4byte	.LBE567
	.4byte	.LBB568
	.4byte	.LBE568
	.4byte	0
	.4byte	0
	.4byte	.LBB617
	.4byte	.LBE617
	.4byte	.LBB740
	.4byte	.LBE740
	.4byte	.LBB741
	.4byte	.LBE741
	.4byte	0
	.4byte	0
	.4byte	.LBB618
	.4byte	.LBE618
	.4byte	.LBB737
	.4byte	.LBE737
	.4byte	.LBB738
	.4byte	.LBE738
	.4byte	.LBB739
	.4byte	.LBE739
	.4byte	0
	.4byte	0
	.4byte	.LBB619
	.4byte	.LBE619
	.4byte	.LBB631
	.4byte	.LBE631
	.4byte	.LBB684
	.4byte	.LBE684
	.4byte	.LBB686
	.4byte	.LBE686
	.4byte	0
	.4byte	0
	.4byte	.LBB624
	.4byte	.LBE624
	.4byte	.LBB632
	.4byte	.LBE632
	.4byte	.LBB633
	.4byte	.LBE633
	.4byte	.LBB685
	.4byte	.LBE685
	.4byte	.LBB687
	.4byte	.LBE687
	.4byte	.LBB688
	.4byte	.LBE688
	.4byte	0
	.4byte	0
	.4byte	.LBB634
	.4byte	.LBE634
	.4byte	.LBB650
	.4byte	.LBE650
	.4byte	.LBB689
	.4byte	.LBE689
	.4byte	.LBB690
	.4byte	.LBE690
	.4byte	0
	.4byte	0
	.4byte	.LBB639
	.4byte	.LBE639
	.4byte	.LBB651
	.4byte	.LBE651
	.4byte	.LBB652
	.4byte	.LBE652
	.4byte	.LBB691
	.4byte	.LBE691
	.4byte	.LBB693
	.4byte	.LBE693
	.4byte	0
	.4byte	0
	.4byte	.LBB645
	.4byte	.LBE645
	.4byte	.LBB653
	.4byte	.LBE653
	.4byte	.LBB692
	.4byte	.LBE692
	.4byte	.LBB694
	.4byte	.LBE694
	.4byte	0
	.4byte	0
	.4byte	.LBB654
	.4byte	.LBE654
	.4byte	.LBB657
	.4byte	.LBE657
	.4byte	0
	.4byte	0
	.4byte	.LBB658
	.4byte	.LBE658
	.4byte	.LBB661
	.4byte	.LBE661
	.4byte	0
	.4byte	0
	.4byte	.LBB662
	.4byte	.LBE662
	.4byte	.LBB680
	.4byte	.LBE680
	.4byte	.LBB731
	.4byte	.LBE731
	.4byte	.LBB732
	.4byte	.LBE732
	.4byte	0
	.4byte	0
	.4byte	.LBB667
	.4byte	.LBE667
	.4byte	.LBB679
	.4byte	.LBE679
	.4byte	.LBB681
	.4byte	.LBE681
	.4byte	.LBB682
	.4byte	.LBE682
	.4byte	.LBB733
	.4byte	.LBE733
	.4byte	.LBB735
	.4byte	.LBE735
	.4byte	0
	.4byte	0
	.4byte	.LBB674
	.4byte	.LBE674
	.4byte	.LBB683
	.4byte	.LBE683
	.4byte	.LBB734
	.4byte	.LBE734
	.4byte	.LBB736
	.4byte	.LBE736
	.4byte	0
	.4byte	0
	.4byte	.LBB695
	.4byte	.LBE695
	.4byte	.LBB702
	.4byte	.LBE702
	.4byte	.LBB712
	.4byte	.LBE712
	.4byte	.LBB723
	.4byte	.LBE723
	.4byte	.LBB724
	.4byte	.LBE724
	.4byte	.LBB725
	.4byte	.LBE725
	.4byte	0
	.4byte	0
	.4byte	.LBB703
	.4byte	.LBE703
	.4byte	.LBB718
	.4byte	.LBE718
	.4byte	.LBB719
	.4byte	.LBE719
	.4byte	.LBB721
	.4byte	.LBE721
	.4byte	.LBB722
	.4byte	.LBE722
	.4byte	.LBB728
	.4byte	.LBE728
	.4byte	.LBB729
	.4byte	.LBE729
	.4byte	.LBB730
	.4byte	.LBE730
	.4byte	0
	.4byte	0
	.4byte	.LBB713
	.4byte	.LBE713
	.4byte	.LBB720
	.4byte	.LBE720
	.4byte	.LBB726
	.4byte	.LBE726
	.4byte	.LBB727
	.4byte	.LBE727
	.4byte	0
	.4byte	0
	.4byte	.LBB743
	.4byte	.LBE743
	.4byte	.LBB744
	.4byte	.LBE744
	.4byte	.LBB745
	.4byte	.LBE745
	.4byte	0
	.4byte	0
	.4byte	.LBB757
	.4byte	.LBE757
	.4byte	.LBB758
	.4byte	.LBE758
	.4byte	0
	.4byte	0
	.4byte	.LBB762
	.4byte	.LBE762
	.4byte	.LBB763
	.4byte	.LBE763
	.4byte	0
	.4byte	0
	.4byte	.LBB764
	.4byte	.LBE764
	.4byte	.LBB765
	.4byte	.LBE765
	.4byte	.LBB766
	.4byte	.LBE766
	.4byte	0
	.4byte	0
	.4byte	.LBB769
	.4byte	.LBE769
	.4byte	.LBB772
	.4byte	.LBE772
	.4byte	0
	.4byte	0
	.4byte	.LBB774
	.4byte	.LBE774
	.4byte	.LBB775
	.4byte	.LBE775
	.4byte	0
	.4byte	0
	.4byte	.LBB776
	.4byte	.LBE776
	.4byte	.LBB777
	.4byte	.LBE777
	.4byte	0
	.4byte	0
	.4byte	.LBB778
	.4byte	.LBE778
	.4byte	.LBB779
	.4byte	.LBE779
	.4byte	0
	.4byte	0
	.4byte	.LBB780
	.4byte	.LBE780
	.4byte	.LBB781
	.4byte	.LBE781
	.4byte	0
	.4byte	0
	.4byte	.LBB809
	.4byte	.LBE809
	.4byte	.LBB810
	.4byte	.LBE810
	.4byte	.LBB811
	.4byte	.LBE811
	.4byte	0
	.4byte	0
	.4byte	.LBB813
	.4byte	.LBE813
	.4byte	.LBB817
	.4byte	.LBE817
	.4byte	.LBB818
	.4byte	.LBE818
	.4byte	0
	.4byte	0
	.4byte	.LBB821
	.4byte	.LBE821
	.4byte	.LBB832
	.4byte	.LBE832
	.4byte	0
	.4byte	0
	.4byte	.LBB822
	.4byte	.LBE822
	.4byte	.LBB826
	.4byte	.LBE826
	.4byte	.LBB827
	.4byte	.LBE827
	.4byte	0
	.4byte	0
	.4byte	.LBB833
	.4byte	.LBE833
	.4byte	.LBB876
	.4byte	.LBE876
	.4byte	.LBB877
	.4byte	.LBE877
	.4byte	.LBB878
	.4byte	.LBE878
	.4byte	.LBB879
	.4byte	.LBE879
	.4byte	0
	.4byte	0
	.4byte	.LBB834
	.4byte	.LBE834
	.4byte	.LBB869
	.4byte	.LBE869
	.4byte	.LBB870
	.4byte	.LBE870
	.4byte	.LBB871
	.4byte	.LBE871
	.4byte	.LBB872
	.4byte	.LBE872
	.4byte	.LBB873
	.4byte	.LBE873
	.4byte	.LBB874
	.4byte	.LBE874
	.4byte	.LBB875
	.4byte	.LBE875
	.4byte	0
	.4byte	0
	.4byte	.LBB836
	.4byte	.LBE836
	.4byte	.LBB843
	.4byte	.LBE843
	.4byte	.LBB844
	.4byte	.LBE844
	.4byte	0
	.4byte	0
	.4byte	.LBB838
	.4byte	.LBE838
	.4byte	.LBB839
	.4byte	.LBE839
	.4byte	.LBB840
	.4byte	.LBE840
	.4byte	0
	.4byte	0
	.4byte	.LBB845
	.4byte	.LBE845
	.4byte	.LBB849
	.4byte	.LBE849
	.4byte	.LBB855
	.4byte	.LBE855
	.4byte	.LBB856
	.4byte	.LBE856
	.4byte	0
	.4byte	0
	.4byte	.LBB846
	.4byte	.LBE846
	.4byte	.LBB847
	.4byte	.LBE847
	.4byte	.LBB848
	.4byte	.LBE848
	.4byte	0
	.4byte	0
	.4byte	.LBB850
	.4byte	.LBE850
	.4byte	.LBB854
	.4byte	.LBE854
	.4byte	0
	.4byte	0
	.4byte	.LBB851
	.4byte	.LBE851
	.4byte	.LBB852
	.4byte	.LBE852
	.4byte	.LBB853
	.4byte	.LBE853
	.4byte	0
	.4byte	0
	.4byte	.LBB857
	.4byte	.LBE857
	.4byte	.LBB860
	.4byte	.LBE860
	.4byte	.LBB861
	.4byte	.LBE861
	.4byte	0
	.4byte	0
	.4byte	.LBB858
	.4byte	.LBE858
	.4byte	.LBB859
	.4byte	.LBE859
	.4byte	0
	.4byte	0
	.4byte	.LBB880
	.4byte	.LBE880
	.4byte	.LBB881
	.4byte	.LBE881
	.4byte	.LBB882
	.4byte	.LBE882
	.4byte	0
	.4byte	0
	.4byte	.LBB883
	.4byte	.LBE883
	.4byte	.LBB899
	.4byte	.LBE899
	.4byte	.LBB902
	.4byte	.LBE902
	.4byte	.LBB903
	.4byte	.LBE903
	.4byte	0
	.4byte	0
	.4byte	.LBB884
	.4byte	.LBE884
	.4byte	.LBB888
	.4byte	.LBE888
	.4byte	.LBB889
	.4byte	.LBE889
	.4byte	0
	.4byte	0
	.4byte	.LBB892
	.4byte	.LBE892
	.4byte	.LBB900
	.4byte	.LBE900
	.4byte	.LBB901
	.4byte	.LBE901
	.4byte	0
	.4byte	0
	.4byte	.LBB893
	.4byte	.LBE893
	.4byte	.LBB897
	.4byte	.LBE897
	.4byte	.LBB898
	.4byte	.LBE898
	.4byte	0
	.4byte	0
	.4byte	.LBB907
	.4byte	.LBE907
	.4byte	.LBB908
	.4byte	.LBE908
	.4byte	0
	.4byte	0
	.4byte	.LBB910
	.4byte	.LBE910
	.4byte	.LBB914
	.4byte	.LBE914
	.4byte	.LBB915
	.4byte	.LBE915
	.4byte	0
	.4byte	0
	.4byte	.LBB923
	.4byte	.LBE923
	.4byte	.LBB924
	.4byte	.LBE924
	.4byte	0
	.4byte	0
	.4byte	.LFB31
	.4byte	.LFE31
	.4byte	.LFB1
	.4byte	.LFE1
	.4byte	.LFB2
	.4byte	.LFE2
	.4byte	.LFB3
	.4byte	.LFE3
	.4byte	.LFB5
	.4byte	.LFE5
	.4byte	.LFB6
	.4byte	.LFE6
	.4byte	.LFB7
	.4byte	.LFE7
	.4byte	.LFB8
	.4byte	.LFE8
	.4byte	.LFB9
	.4byte	.LFE9
	.4byte	.LFB10
	.4byte	.LFE10
	.4byte	.LFB11
	.4byte	.LFE11
	.4byte	.LFB12
	.4byte	.LFE12
	.4byte	.LFB13
	.4byte	.LFE13
	.4byte	.LFB14
	.4byte	.LFE14
	.4byte	.LFB15
	.4byte	.LFE15
	.4byte	.LFB16
	.4byte	.LFE16
	.4byte	.LFB24
	.4byte	.LFE24
	.4byte	.LFB32
	.4byte	.LFE32
	.4byte	.LFB33
	.4byte	.LFE33
	.4byte	.LFB34
	.4byte	.LFE34
	.4byte	.LFB35
	.4byte	.LFE35
	.4byte	.LFB22
	.4byte	.LFE22
	.4byte	.LFB17
	.4byte	.LFE17
	.4byte	.LFB23
	.4byte	.LFE23
	.4byte	0
	.4byte	0
	.section	.debug_line,"",%progbits
.Ldebug_line0:
	.section	.debug_str,"MS",%progbits,1
.LASF56:
	.ascii	"ivBlock\000"
.LASF111:
	.ascii	"dst1\000"
.LASF86:
	.ascii	"_src1\000"
.LASF81:
	.ascii	"keywords\000"
.LASF11:
	.ascii	"size_t\000"
.LASF68:
	.ascii	"ascii_dump\000"
.LASF72:
	.ascii	"outsize\000"
.LASF96:
	.ascii	"_src_xor\000"
.LASF113:
	.ascii	"dst2\000"
.LASF32:
	.ascii	"blockFromBytes\000"
.LASF104:
	.ascii	"dst_xor_p\000"
.LASF54:
	.ascii	"blocksize_x_2\000"
.LASF39:
	.ascii	"debug\000"
.LASF71:
	.ascii	"_gcry_cipher_decrypt\000"
.LASF128:
	.ascii	"__builtin_memset\000"
.LASF41:
	.ascii	"rIndex\000"
.LASF9:
	.ascii	"long long unsigned int\000"
.LASF119:
	.ascii	"tfp_printf\000"
.LASF115:
	.ascii	"cipher_block_xor_2dst\000"
.LASF66:
	.ascii	"tmpBlock\000"
.LASF118:
	.ascii	"buf_get_le32\000"
.LASF45:
	.ascii	"sumMod2_32b\000"
.LASF98:
	.ascii	"dst_xor\000"
.LASF48:
	.ascii	"_gcry_cipher_cfb_encrypt\000"
.LASF3:
	.ascii	"long long int\000"
.LASF0:
	.ascii	"signed char\000"
.LASF77:
	.ascii	"ivlen\000"
.LASF43:
	.ascii	"cyclicShift\000"
.LASF65:
	.ascii	"tmpbuf\000"
.LASF2:
	.ascii	"long int\000"
.LASF20:
	.ascii	"Block\000"
.LASF51:
	.ascii	"inbuf\000"
.LASF16:
	.ascii	"double\000"
.LASF116:
	.ascii	"buf_put_le32\000"
.LASF46:
	.ascii	"printBlock\000"
.LASF64:
	.ascii	"inbuf_arg\000"
.LASF18:
	.ascii	"cipher_context_alignment_t\000"
.LASF42:
	.ascii	"shift\000"
.LASF126:
	.ascii	"src/libgcrypt.c\000"
.LASF114:
	.ascii	"cipher_block_cpy\000"
.LASF36:
	.ascii	"bytes\000"
.LASF13:
	.ascii	"byte\000"
.LASF52:
	.ascii	"inbuflen\000"
.LASF61:
	.ascii	"_gcry_blocksize_shift\000"
.LASF85:
	.ascii	"_dst\000"
.LASF19:
	.ascii	"iv_align\000"
.LASF84:
	.ascii	"buf_xor\000"
.LASF102:
	.ascii	"temp\000"
.LASF73:
	.ascii	"inlen\000"
.LASF99:
	.ascii	"srcdst_cpy\000"
.LASF31:
	.ascii	"block\000"
.LASF10:
	.ascii	"unsigned int\000"
.LASF17:
	.ascii	"PROPERLY_ALIGNED_TYPE\000"
.LASF53:
	.ascii	"blocksize\000"
.LASF8:
	.ascii	"long unsigned int\000"
.LASF125:
	.ascii	"GNU C17 10.3.1 20210621 (release) -mcpu=cortex-a7 -"
	.ascii	"mfloat-abi=soft -marm -march=armv7ve -g -O2 -fpic -"
	.ascii	"ffreestanding -ffunction-sections -fdata-sections -"
	.ascii	"fno-common\000"
.LASF40:
	.ascii	"reverse\000"
.LASF38:
	.ascii	"encrypt\000"
.LASF76:
	.ascii	"_gcry_cipher_setiv\000"
.LASF37:
	.ascii	"data\000"
.LASF5:
	.ascii	"short unsigned int\000"
.LASF62:
	.ascii	"_gcry_cast5_cfb_dec\000"
.LASF44:
	.ascii	"subtractMod2_32b\000"
.LASF26:
	.ascii	"gcry_cipher_hd_t\000"
.LASF91:
	.ascii	"_dst_xor\000"
.LASF82:
	.ascii	"key2\000"
.LASF33:
	.ascii	"xorBlock\000"
.LASF24:
	.ascii	"unused\000"
.LASF83:
	.ascii	"printUint32Hex\000"
.LASF117:
	.ascii	"_buf\000"
.LASF12:
	.ascii	"long double\000"
.LASF67:
	.ascii	"debugCount\000"
.LASF63:
	.ascii	"outbuf_arg\000"
.LASF112:
	.ascii	"buf_xor_2dst_v2\000"
.LASF95:
	.ascii	"buf_xor_n_copy_2\000"
.LASF58:
	.ascii	"blocksize_shift\000"
.LASF70:
	.ascii	"desc\000"
.LASF106:
	.ascii	"src_xor_p\000"
.LASF80:
	.ascii	"keylen\000"
.LASF79:
	.ascii	"_gcry_cipher_setkey\000"
.LASF97:
	.ascii	"_src_cpy\000"
.LASF28:
	.ascii	"MSG_LEN\000"
.LASF15:
	.ascii	"float\000"
.LASF108:
	.ascii	"buf_xor_2dst\000"
.LASF57:
	.ascii	"_gcry_cipher_cfb_decrypt\000"
.LASF21:
	.ascii	"gcry_cipher_handle\000"
.LASF4:
	.ascii	"unsigned char\000"
.LASF27:
	.ascii	"KEY_LEN\000"
.LASF1:
	.ascii	"short int\000"
.LASF90:
	.ascii	"cipher_block_xor_n_copy\000"
.LASF109:
	.ascii	"_dst1\000"
.LASF110:
	.ascii	"_dst2\000"
.LASF78:
	.ascii	"_gcry_cipher_close\000"
.LASF7:
	.ascii	"uint32_t\000"
.LASF50:
	.ascii	"outbuflen\000"
.LASF92:
	.ascii	"_srcdst_cpy\000"
.LASF101:
	.ascii	"src_cpy\000"
.LASF55:
	.ascii	"burn\000"
.LASF14:
	.ascii	"char\000"
.LASF22:
	.ascii	"u_iv\000"
.LASF127:
	.ascii	"/home/fred/code/rpi-qemu-gdb/Claude/raspi3b_qemu_\000"
.LASF100:
	.ascii	"src_xor\000"
.LASF87:
	.ascii	"_src2\000"
.LASF120:
	.ascii	"memcpy\000"
.LASF25:
	.ascii	"context\000"
.LASF124:
	.ascii	"xfree\000"
.LASF35:
	.ascii	"decrypt\000"
.LASF49:
	.ascii	"outbuf\000"
.LASF59:
	.ascii	"nburn\000"
.LASF94:
	.ascii	"buf_xor_n_copy\000"
.LASF123:
	.ascii	"memset\000"
.LASF93:
	.ascii	"_src\000"
.LASF122:
	.ascii	"memmove\000"
.LASF30:
	.ascii	"MOD_2_32_MINUS_1\000"
.LASF6:
	.ascii	"uint8_t\000"
.LASF105:
	.ascii	"srcdst_cpy_p\000"
.LASF29:
	.ascii	"K_MAP\000"
.LASF23:
	.ascii	"lastiv\000"
.LASF47:
	.ascii	"splitI\000"
.LASF60:
	.ascii	"nblocks\000"
.LASF103:
	.ascii	"cipher_block_xor_n_copy_2\000"
.LASF88:
	.ascii	"src1\000"
.LASF89:
	.ascii	"src2\000"
.LASF121:
	.ascii	"wipememory\000"
.LASF107:
	.ascii	"src_cpy_p\000"
.LASF69:
	.ascii	"hexdump\000"
.LASF74:
	.ascii	"bytesFromBlock\000"
.LASF34:
	.ascii	"result\000"
.LASF75:
	.ascii	"cipher_sync\000"
	.ident	"GCC: (15:10.3-2021.07-4) 10.3.1 20210621 (release)"
