	.cpu cortex-a7
	.eabi_attribute 20, 1	@ Tag_ABI_FP_denormal
	.eabi_attribute 21, 1	@ Tag_ABI_FP_exceptions
	.eabi_attribute 23, 3	@ Tag_ABI_FP_number_model
	.eabi_attribute 24, 1	@ Tag_ABI_align8_needed
	.eabi_attribute 25, 1	@ Tag_ABI_align8_preserved
	.eabi_attribute 26, 1	@ Tag_ABI_enum_size
	.eabi_attribute 30, 2	@ Tag_ABI_optimization_goals
	.eabi_attribute 34, 1	@ Tag_CPU_unaligned_access
	.eabi_attribute 18, 4	@ Tag_ABI_PCS_wchar_t
	.file	"mainproc.c"
@ GNU C17 (15:10.3-2021.07-4) version 10.3.1 20210621 (release) (arm-none-eabi)
@	compiled by GNU C version 11.2.0, GMP version 6.2.1, MPFR version 4.1.0, MPC version 1.2.1, isl version isl-0.24-GMP

@ GGC heuristics: --param ggc-min-expand=100 --param ggc-min-heapsize=131072
@ options passed:  -I src -I src/common -imultilib thumb/v7-a/nofp
@ -D__USES_INITFINI__ src/mainproc.c -mcpu=cortex-a7 -mfloat-abi=soft -marm
@ -mlibarch=armv7ve -march=armv7ve
@ -auxbase-strip build/asm_output/mainproc.s -g -O2 -Wall -Wextra -fpic
@ -ffreestanding -ffunction-sections -fdata-sections -fno-common
@ -fverbose-asm
@ options enabled:  -faggressive-loop-optimizations -falign-functions
@ -falign-jumps -falign-labels -falign-loops -fallocation-dce
@ -fauto-inc-dec -fbranch-count-reg -fcaller-saves
@ -fcombine-stack-adjustments -fcompare-elim -fcprop-registers
@ -fcrossjumping -fcse-follow-jumps -fdata-sections -fdefer-pop
@ -fdelete-null-pointer-checks -fdevirtualize -fdevirtualize-speculatively
@ -fdwarf2-cfi-asm -fearly-inlining -feliminate-unused-debug-symbols
@ -feliminate-unused-debug-types -fexpensive-optimizations
@ -fforward-propagate -ffp-int-builtin-inexact -ffunction-cse
@ -ffunction-sections -fgcse -fgcse-lm -fgnu-unique
@ -fguess-branch-probability -fhoist-adjacent-loads -fident -fif-conversion
@ -fif-conversion2 -findirect-inlining -finline -finline-atomics
@ -finline-functions -finline-functions-called-once
@ -finline-small-functions -fipa-bit-cp -fipa-cp -fipa-icf
@ -fipa-icf-functions -fipa-icf-variables -fipa-profile -fipa-pure-const
@ -fipa-ra -fipa-reference -fipa-reference-addressable -fipa-sra
@ -fipa-stack-alignment -fipa-vrp -fira-hoist-pressure
@ -fira-share-save-slots -fira-share-spill-slots
@ -fisolate-erroneous-paths-dereference -fivopts -fkeep-static-consts
@ -fleading-underscore -flifetime-dse -flra-remat -fmath-errno
@ -fmerge-constants -fmerge-debug-strings -fmove-loop-invariants
@ -fomit-frame-pointer -foptimize-sibling-calls -foptimize-strlen
@ -fpartial-inlining -fpeephole -fpeephole2 -fpic -fplt
@ -fprefetch-loop-arrays -freg-struct-return -freorder-blocks
@ -freorder-functions -frerun-cse-after-loop
@ -fsched-critical-path-heuristic -fsched-dep-count-heuristic
@ -fsched-group-heuristic -fsched-interblock -fsched-last-insn-heuristic
@ -fsched-pressure -fsched-rank-heuristic -fsched-spec
@ -fsched-spec-insn-heuristic -fsched-stalled-insns-dep -fschedule-insns
@ -fschedule-insns2 -fsection-anchors -fsemantic-interposition
@ -fshow-column -fshrink-wrap -fshrink-wrap-separate -fsigned-zeros
@ -fsplit-ivs-in-unroller -fsplit-wide-types -fssa-backprop -fssa-phiopt
@ -fstdarg-opt -fstore-merging -fstrict-aliasing
@ -fstrict-volatile-bitfields -fsync-libcalls -fthread-jumps
@ -ftoplevel-reorder -ftrapping-math -ftree-bit-ccp -ftree-builtin-call-dce
@ -ftree-ccp -ftree-ch -ftree-coalesce-vars -ftree-copy-prop -ftree-cselim
@ -ftree-dce -ftree-dominator-opts -ftree-dse -ftree-forwprop -ftree-fre
@ -ftree-loop-if-convert -ftree-loop-im -ftree-loop-ivcanon
@ -ftree-loop-optimize -ftree-parallelize-loops= -ftree-phiprop -ftree-pre
@ -ftree-pta -ftree-reassoc -ftree-scev-cprop -ftree-sink -ftree-slsr
@ -ftree-sra -ftree-switch-conversion -ftree-tail-merge -ftree-ter
@ -ftree-vrp -funit-at-a-time -fvar-tracking -fvar-tracking-assignments
@ -fverbose-asm -fzero-initialized-in-bss -marm -mbe32 -mlittle-endian
@ -mpic-data-is-text-relative -msched-prolog -munaligned-access
@ -mvectorize-with-neon-quad -mword-relocations

	.text
.Ltext0:
	.cfi_sections	.debug_frame
	.section	.text.reset_literals_seen,"ax",%progbits
	.align	2
	.global	reset_literals_seen
	.arch armv7ve
	.syntax unified
	.arm
	.fpu softvfp
	.type	reset_literals_seen, %function
reset_literals_seen:
.LFB19:
	.file 1 "src/mainproc.c"
	.loc 1 138 1 view -0
	.cfi_startproc
	@ args = 0, pretend = 0, frame = 0
	@ frame_needed = 0, uses_anonymous_args = 0
	@ link register save eliminated.
	.loc 1 139 3 view .LVU1
@ src/mainproc.c:139:   literals_seen = 0;
	.loc 1 139 17 is_stmt 0 view .LVU2
	ldr	r3, .L3	@ tmp114,
	mov	r2, #0	@ tmp115,
.LPIC0:
	add	r3, pc, r3	@ tmp114, tmp114
	str	r2, [r3]	@ tmp115, literals_seen
@ src/mainproc.c:140: }
	.loc 1 140 1 view .LVU3
	bx	lr	@
.L4:
	.align	2
.L3:
	.word	.LANCHOR0-(.LPIC0+8)
	.cfi_endproc
.LFE19:
	.size	reset_literals_seen, .-reset_literals_seen
	.section	.rodata.derive_key.str1.4,"aMS",%progbits,1
	.align	2
.LC0:
	.ascii	"Deriving key...\012\000"
	.align	2
.LC1:
	.ascii	"SHA1 update complete after processing %u bytes\012\000"
	.align	2
.LC2:
	.ascii	"Derived key: \000"
	.align	2
.LC3:
	.ascii	"%02x\000"
	.align	2
.LC4:
	.ascii	"\012\000"
	.section	.text.derive_key,"ax",%progbits
	.align	2
	.global	derive_key
	.syntax unified
	.arm
	.fpu softvfp
	.type	derive_key, %function
derive_key:
.LVL0:
.LFB20:
	.loc 1 378 1 is_stmt 1 view -0
	.cfi_startproc
	@ args = 4, pretend = 0, frame = 104
	@ frame_needed = 0, uses_anonymous_args = 0
	.loc 1 378 1 is_stmt 0 view .LVU5
	push	{r4, r5, r6, r7, r8, r9, r10, fp, lr}	@
	.cfi_def_cfa_offset 36
	.cfi_offset 4, -36
	.cfi_offset 5, -32
	.cfi_offset 6, -28
	.cfi_offset 7, -24
	.cfi_offset 8, -20
	.cfi_offset 9, -16
	.cfi_offset 10, -12
	.cfi_offset 11, -8
	.cfi_offset 14, -4
	mov	r10, r0	@ tmp162, salt
@ src/mainproc.c:379:     printf("Deriving key...\n");
	.loc 1 379 5 view .LVU6
	ldr	r0, .L19	@,
.LVL1:
@ src/mainproc.c:378: {
	.loc 1 378 1 view .LVU7
	sub	sp, sp, #108	@,,
	.cfi_def_cfa_offset 144
@ src/mainproc.c:395:     SHA1Init(&ctx);
	.loc 1 395 5 view .LVU8
	add	r8, sp, #12	@ tmp159,,
@ src/mainproc.c:378: {
	.loc 1 378 1 view .LVU9
	mov	r6, r3	@ iterations, tmp165
	.loc 1 379 5 is_stmt 1 view .LVU10
.LPIC1:
	add	r0, pc, r0	@,
@ src/mainproc.c:378: {
	.loc 1 378 1 is_stmt 0 view .LVU11
	mov	r7, r2	@ pass_len, tmp164
	str	r1, [sp, #4]	@ tmp163, %sfp
@ src/mainproc.c:379:     printf("Deriving key...\n");
	.loc 1 379 5 view .LVU12
	bl	tfp_printf(PLT)	@
.LVL2:
	.loc 1 394 5 is_stmt 1 view .LVU13
	.loc 1 395 5 view .LVU14
	mov	r0, r8	@, tmp159
	bl	SHA1Init(PLT)	@
.LVL3:
	.loc 1 398 5 view .LVU15
	.loc 1 399 5 view .LVU16
	.loc 1 400 5 view .LVU17
	.loc 1 401 5 view .LVU18
	.loc 1 403 5 view .LVU19
	.loc 1 403 11 view .LVU20
	cmp	r6, #0	@ iterations,
	beq	.L13		@,
	add	fp, sp, #11	@ tmp158,,
	mov	r3, r8	@ tmp159, tmp159
@ src/mainproc.c:399:     unsigned int index = 0;
	.loc 1 399 18 is_stmt 0 view .LVU21
	mov	r4, #0	@ index,
	mov	r8, fp	@ tmp158, tmp158
.LBB26:
@ src/mainproc.c:419:         if (index >= 8 + pass_len)
	.loc 1 419 24 view .LVU22
	add	r9, r7, #8	@ _43, pass_len,
.LBE26:
@ src/mainproc.c:398:     unsigned int bytesProcessed = 0;
	.loc 1 398 18 view .LVU23
	mov	r5, r4	@ bytesProcessed, index
	mov	fp, r3	@ tmp159, tmp159
.LVL4:
.L11:
.LBB27:
	.loc 1 405 9 is_stmt 1 view .LVU24
	.loc 1 406 9 view .LVU25
@ src/mainproc.c:406:         if (index < 8)
	.loc 1 406 12 is_stmt 0 view .LVU26
	cmp	r4, #7	@ index,
	bls	.L18		@,
	.loc 1 412 13 is_stmt 1 view .LVU27
@ src/mainproc.c:412:             byte = password[(index - 8) % pass_len];
	.loc 1 412 36 is_stmt 0 view .LVU28
	sub	r3, r4, #8	@ tmp138, index,
@ src/mainproc.c:412:             byte = password[(index - 8) % pass_len];
	.loc 1 412 41 view .LVU29
	add	r4, r4, #1	@ index, index,
.LVL5:
	.loc 1 412 41 view .LVU30
	udiv	r2, r3, r7	@ tmp142, tmp138, pass_len
	mls	r3, r7, r2, r3	@ tmp144, pass_len, tmp142, tmp138
@ src/mainproc.c:412:             byte = password[(index - 8) % pass_len];
	.loc 1 412 28 view .LVU31
	ldr	r2, [sp, #4]	@ password, %sfp
	ldrb	r3, [r2, r3]	@ zero_extendqisi2	@ _2, *_5
.LVL6:
.L8:
	.loc 1 412 28 view .LVU32
	strb	r3, [sp, #11]	@ _2, byte
	.loc 1 415 9 is_stmt 1 view .LVU33
	mov	r2, #1	@,
	mov	r1, r8	@, tmp158
	mov	r0, fp	@, tmp159
@ src/mainproc.c:416:         bytesProcessed++;
	.loc 1 416 23 is_stmt 0 view .LVU34
	add	r5, r5, #1	@ bytesProcessed, bytesProcessed,
.LVL7:
@ src/mainproc.c:415:         SHA1Update(&ctx, &byte, 1);
	.loc 1 415 9 view .LVU35
	bl	SHA1Update(PLT)	@
.LVL8:
	.loc 1 416 9 is_stmt 1 view .LVU36
	.loc 1 417 9 view .LVU37
	.loc 1 419 9 view .LVU38
@ src/mainproc.c:419:         if (index >= 8 + pass_len)
	.loc 1 419 12 is_stmt 0 view .LVU39
	cmp	r9, r4	@ _43, index
	bhi	.L9		@,
	.loc 1 421 13 is_stmt 1 view .LVU40
.LVL9:
	.loc 1 421 13 is_stmt 0 view .LVU41
.LBE27:
	.loc 1 403 11 is_stmt 1 view .LVU42
	cmp	r6, r5	@ iterations, bytesProcessed
.LBB28:
@ src/mainproc.c:421:             index = 0;
	.loc 1 421 19 is_stmt 0 view .LVU43
	mov	r3, #0	@ index,
	mov	r4, #1	@ index,
.LBE28:
@ src/mainproc.c:403:     while (bytesProcessed < iterations)
	.loc 1 403 11 view .LVU44
	bls	.L17		@,
.LVL10:
.L10:
.LBB29:
	.loc 1 408 13 is_stmt 1 view .LVU45
@ src/mainproc.c:408:             byte = salt[index];
	.loc 1 408 24 is_stmt 0 view .LVU46
	ldrb	r3, [r10, r3]	@ zero_extendqisi2	@ _2, *_1
	b	.L8		@
.L9:
	.loc 1 408 24 view .LVU47
.LBE29:
	.loc 1 403 11 is_stmt 1 view .LVU48
	cmp	r6, r5	@ iterations, bytesProcessed
	bhi	.L11		@,
.L17:
	.loc 1 403 11 is_stmt 0 view .LVU49
	mov	r8, fp	@ tmp159, tmp159
.LVL11:
.L6:
	.loc 1 432 5 is_stmt 1 view .LVU50
	ldr	r0, .L19+4	@,
	mov	r1, r5	@, bytesProcessed
.LBB30:
@ src/mainproc.c:439:         printf("%02x", key[i]);
	.loc 1 439 9 is_stmt 0 view .LVU51
	ldr	r6, .L19+8	@ tmp155,
.LVL12:
	.loc 1 439 9 view .LVU52
.LBE30:
@ src/mainproc.c:432:     printf("SHA1 update complete after processing %u bytes\n", bytesProcessed);
	.loc 1 432 5 view .LVU53
.LPIC2:
	add	r0, pc, r0	@,
.LBB31:
@ src/mainproc.c:439:         printf("%02x", key[i]);
	.loc 1 439 9 view .LVU54
.LPIC4:
	add	r6, pc, r6	@ tmp155, tmp155
.LBE31:
@ src/mainproc.c:432:     printf("SHA1 update complete after processing %u bytes\n", bytesProcessed);
	.loc 1 432 5 view .LVU55
	bl	tfp_printf(PLT)	@
.LVL13:
	.loc 1 434 5 is_stmt 1 view .LVU56
	ldr	r0, [sp, #144]	@, key
	mov	r1, r8	@, tmp159
	bl	SHA1Final(PLT)	@
.LVL14:
	.loc 1 437 5 view .LVU57
	ldr	r0, .L19+12	@,
	ldr	r3, [sp, #144]	@ tmp181, key
.LPIC3:
	add	r0, pc, r0	@,
	sub	r4, r3, #1	@ ivtmp.41, tmp181,
	add	r5, r3, #19	@ _64, tmp182,
	bl	tfp_printf(PLT)	@
.LVL15:
	.loc 1 438 5 view .LVU58
.LBB32:
	.loc 1 438 10 view .LVU59
	.loc 1 438 21 view .LVU60
.L12:
	.loc 1 439 9 discriminator 3 view .LVU61
	ldrb	r1, [r4, #1]!	@ zero_extendqisi2	@, MEM[base: _12, offset: 0B]
.LVL16:
	.loc 1 439 9 is_stmt 0 discriminator 3 view .LVU62
	mov	r0, r6	@, tmp155
	bl	tfp_printf(PLT)	@
.LVL17:
	.loc 1 438 29 is_stmt 1 discriminator 3 view .LVU63
	.loc 1 438 21 discriminator 3 view .LVU64
@ src/mainproc.c:438:     for (int i = 0; i < 20; i++) { // SHA1 produces 20-byte output
	.loc 1 438 5 is_stmt 0 discriminator 3 view .LVU65
	cmp	r4, r5	@ ivtmp.41, _64
	bne	.L12		@,
.LBE32:
	.loc 1 441 5 is_stmt 1 view .LVU66
	ldr	r0, .L19+16	@,
.LPIC5:
	add	r0, pc, r0	@,
	bl	tfp_printf(PLT)	@
.LVL18:
@ src/mainproc.c:444: }
	.loc 1 444 1 is_stmt 0 view .LVU67
	add	sp, sp, #108	@,,
	.cfi_remember_state
	.cfi_def_cfa_offset 36
	@ sp needed	@
	pop	{r4, r5, r6, r7, r8, r9, r10, fp, pc}	@
.LVL19:
.L18:
	.cfi_restore_state
.LBB33:
@ src/mainproc.c:417:         index++;
	.loc 1 417 14 view .LVU68
	mov	r3, r4	@ index, index
	add	r4, r4, #1	@ index, index,
.LVL20:
	.loc 1 417 14 view .LVU69
	b	.L10		@
.LVL21:
.L13:
	.loc 1 417 14 view .LVU70
.LBE33:
@ src/mainproc.c:398:     unsigned int bytesProcessed = 0;
	.loc 1 398 18 view .LVU71
	mov	r5, r6	@ bytesProcessed, iterations
	b	.L6		@
.L20:
	.align	2
.L19:
	.word	.LC0-(.LPIC1+8)
	.word	.LC1-(.LPIC2+8)
	.word	.LC3-(.LPIC4+8)
	.word	.LC2-(.LPIC3+8)
	.word	.LC4-(.LPIC5+8)
	.cfi_endproc
.LFE20:
	.size	derive_key, .-derive_key
	.section	.text.hex_to_bytes,"ax",%progbits
	.align	2
	.global	hex_to_bytes
	.syntax unified
	.arm
	.fpu softvfp
	.type	hex_to_bytes, %function
hex_to_bytes:
.LVL22:
.LFB22:
	.loc 1 457 1 is_stmt 1 view -0
	.cfi_startproc
	@ args = 0, pretend = 0, frame = 0
	@ frame_needed = 0, uses_anonymous_args = 0
.LBB43:
@ src/mainproc.c:458:   for (size_t i = 0; i < length; i++)
	.loc 1 458 3 is_stmt 0 view .LVU73
	cmp	r2, #0	@ length
	.loc 1 458 3 view .LVU74
.LBE43:
	.loc 1 458 3 is_stmt 1 view .LVU75
.LBB64:
	.loc 1 458 8 view .LVU76
.LVL23:
	.loc 1 458 22 view .LVU77
@ src/mainproc.c:458:   for (size_t i = 0; i < length; i++)
	.loc 1 458 3 is_stmt 0 view .LVU78
	bxeq	lr	@
	add	ip, r0, r2, lsl #1	@ _47, ivtmp.50, length,
	sub	r1, r1, #1	@ ivtmp.52, bytes,
.LVL24:
	.loc 1 458 3 view .LVU79
.LBE64:
@ src/mainproc.c:457: {
	.loc 1 457 1 view .LVU80
	str	lr, [sp, #-4]!	@,
	.cfi_def_cfa_offset 4
	.cfi_offset 14, -4
	b	.L29		@
.LVL25:
.L25:
.LBB65:
.LBB44:
.LBB45:
.LBB46:
.LBI46:
	.loc 1 445 16 is_stmt 1 view .LVU81
.LBB47:
	.loc 1 451 3 view .LVU82
	.loc 1 452 5 view .LVU83
@ src/mainproc.c:451:   if (h >= 'a' && h <= 'f')
	.loc 1 451 6 is_stmt 0 view .LVU84
	sub	r3, r2, #97	@ tmp161, _3,
	cmp	r3, #5	@ tmp161,
@ src/mainproc.c:452:     return h - 'a' + 10;
	.loc 1 452 20 view .LVU85
	subls	r3, r2, #87	@ tmp162, _3,
	movhi	r3, #0	@ prephitmp_72,
.LBE47:
.LBE46:
.LBE45:
.LBE44:
@ src/mainproc.c:460:     bytes[i] = (hex_digit(hex[i * 2]) << 4) | hex_digit(hex[i * 2 + 1]);
	.loc 1 460 39 view .LVU86
	sbfxls	r3, r3, #0, #4	@ tmp164, tmp162,,
@ src/mainproc.c:460:     bytes[i] = (hex_digit(hex[i * 2]) << 4) | hex_digit(hex[i * 2 + 1]);
	.loc 1 460 45 view .LVU87
	lslls	r3, r3, #4	@ prephitmp_72, tmp164,
.LVL26:
.L24:
@ src/mainproc.c:460:     bytes[i] = (hex_digit(hex[i * 2]) << 4) | hex_digit(hex[i * 2 + 1]);
	.loc 1 460 47 view .LVU88
	ldrb	lr, [r0, #1]	@ zero_extendqisi2	@ _10, MEM[base: _51, offset: 1B]
.LVL27:
.LBB51:
.LBI51:
	.loc 1 445 16 is_stmt 1 view .LVU89
.LBB52:
	.loc 1 447 3 view .LVU90
@ src/mainproc.c:447:   if (h >= '0' && h <= '9')
	.loc 1 447 16 is_stmt 0 view .LVU91
	sub	r2, lr, #48	@ tmp165, _10,
	uxtb	r2, r2	@ _24, tmp165
@ src/mainproc.c:447:   if (h >= '0' && h <= '9')
	.loc 1 447 6 view .LVU92
	cmp	r2, #9	@ _24,
.LBE52:
.LBE51:
@ src/mainproc.c:460:     bytes[i] = (hex_digit(hex[i * 2]) << 4) | hex_digit(hex[i * 2 + 1]);
	.loc 1 460 45 view .LVU93
	orrls	r3, r3, r2	@ tmp169, prephitmp_72, _24
	sxtbls	r3, r3	@ prephitmp_72, tmp169
.LBB58:
.LBB55:
@ src/mainproc.c:447:   if (h >= '0' && h <= '9')
	.loc 1 447 6 view .LVU94
	bls	.L27		@,
	.loc 1 449 3 is_stmt 1 view .LVU95
@ src/mainproc.c:449:   if (h >= 'A' && h <= 'F')
	.loc 1 449 6 is_stmt 0 view .LVU96
	sub	r2, lr, #65	@ tmp173, _10,
	cmp	r2, #5	@ tmp173,
	bls	.L37		@,
.LVL28:
.LBB53:
.LBI53:
	.loc 1 445 16 is_stmt 1 view .LVU97
.LBB54:
	.loc 1 451 3 view .LVU98
@ src/mainproc.c:451:   if (h >= 'a' && h <= 'f')
	.loc 1 451 6 is_stmt 0 view .LVU99
	sub	r2, lr, #97	@ tmp180, _10,
	cmp	r2, #5	@ tmp180,
	.loc 1 452 5 is_stmt 1 view .LVU100
@ src/mainproc.c:452:     return h - 'a' + 10;
	.loc 1 452 20 is_stmt 0 view .LVU101
	subls	lr, lr, #87	@ tmp181, _10,
.LVL29:
	.loc 1 452 20 view .LVU102
.LBE54:
.LBE53:
.LBE55:
.LBE58:
@ src/mainproc.c:460:     bytes[i] = (hex_digit(hex[i * 2]) << 4) | hex_digit(hex[i * 2 + 1]);
	.loc 1 460 45 view .LVU103
	orrls	r3, r3, lr	@ tmp183, prephitmp_72, tmp181
	sxtbls	r3, r3	@ prephitmp_72, tmp183
.LVL30:
.L27:
@ src/mainproc.c:460:     bytes[i] = (hex_digit(hex[i * 2]) << 4) | hex_digit(hex[i * 2 + 1]);
	.loc 1 460 14 view .LVU104
	strb	r3, [r1, #1]!	@ prephitmp_72, MEM[base: _50, offset: 0B]
.LVL31:
	.loc 1 458 34 is_stmt 1 view .LVU105
	.loc 1 458 22 view .LVU106
@ src/mainproc.c:458:   for (size_t i = 0; i < length; i++)
	.loc 1 458 3 is_stmt 0 view .LVU107
	add	r0, r0, #2	@ ivtmp.50, ivtmp.50,
	cmp	r0, ip	@ ivtmp.50, _47
	ldreq	pc, [sp], #4	@
.LVL32:
.L29:
	.loc 1 460 5 is_stmt 1 discriminator 3 view .LVU108
@ src/mainproc.c:460:     bytes[i] = (hex_digit(hex[i * 2]) << 4) | hex_digit(hex[i * 2 + 1]);
	.loc 1 460 17 is_stmt 0 discriminator 3 view .LVU109
	ldrb	r2, [r0]	@ zero_extendqisi2	@ _3, MEM[base: _51, offset: 0B]
.LVL33:
.LBB59:
.LBI44:
	.loc 1 445 16 is_stmt 1 discriminator 3 view .LVU110
.LBB48:
	.loc 1 447 3 discriminator 3 view .LVU111
@ src/mainproc.c:447:   if (h >= '0' && h <= '9')
	.loc 1 447 16 is_stmt 0 discriminator 3 view .LVU112
	sub	r3, r2, #48	@ tmp147, _3,
	uxtb	r3, r3	@ _29, tmp147
@ src/mainproc.c:447:   if (h >= '0' && h <= '9')
	.loc 1 447 6 discriminator 3 view .LVU113
	cmp	r3, #9	@ _29,
.LBE48:
.LBE59:
@ src/mainproc.c:460:     bytes[i] = (hex_digit(hex[i * 2]) << 4) | hex_digit(hex[i * 2 + 1]);
	.loc 1 460 39 discriminator 3 view .LVU114
	lslls	r3, r3, #4	@ tmp150, _29,
@ src/mainproc.c:460:     bytes[i] = (hex_digit(hex[i * 2]) << 4) | hex_digit(hex[i * 2 + 1]);
	.loc 1 460 45 discriminator 3 view .LVU115
	sxtbls	r3, r3	@ prephitmp_72, tmp150
.LBB60:
.LBB49:
@ src/mainproc.c:447:   if (h >= '0' && h <= '9')
	.loc 1 447 6 discriminator 3 view .LVU116
	bls	.L24		@,
	.loc 1 449 3 is_stmt 1 view .LVU117
@ src/mainproc.c:449:   if (h >= 'A' && h <= 'F')
	.loc 1 449 6 is_stmt 0 view .LVU118
	sub	r3, r2, #65	@ tmp154, _3,
	cmp	r3, #5	@ tmp154,
	bhi	.L25		@,
	.loc 1 450 5 is_stmt 1 view .LVU119
@ src/mainproc.c:450:     return h - 'A' + 10;
	.loc 1 450 20 is_stmt 0 view .LVU120
	sub	r3, r2, #55	@ tmp155, _3,
.LBE49:
.LBE60:
@ src/mainproc.c:460:     bytes[i] = (hex_digit(hex[i * 2]) << 4) | hex_digit(hex[i * 2 + 1]);
	.loc 1 460 39 view .LVU121
	sbfx	r3, r3, #0, #4	@ tmp157, tmp155,,
@ src/mainproc.c:460:     bytes[i] = (hex_digit(hex[i * 2]) << 4) | hex_digit(hex[i * 2 + 1]);
	.loc 1 460 45 view .LVU122
	lsl	r3, r3, #4	@ prephitmp_72, tmp157,
.LBB61:
.LBB50:
@ src/mainproc.c:450:     return h - 'A' + 10;
	.loc 1 450 20 view .LVU123
	b	.L24		@
.LVL34:
.L37:
	.loc 1 450 20 view .LVU124
.LBE50:
.LBE61:
.LBB62:
.LBB56:
	.loc 1 450 5 is_stmt 1 view .LVU125
@ src/mainproc.c:450:     return h - 'A' + 10;
	.loc 1 450 20 is_stmt 0 view .LVU126
	sub	lr, lr, #55	@ tmp174, _10,
.LVL35:
	.loc 1 450 20 view .LVU127
.LBE56:
.LBE62:
@ src/mainproc.c:460:     bytes[i] = (hex_digit(hex[i * 2]) << 4) | hex_digit(hex[i * 2 + 1]);
	.loc 1 460 45 view .LVU128
	orr	r3, r3, lr	@ tmp176, prephitmp_72, tmp174
	sxtb	r3, r3	@ prephitmp_72, tmp176
.LBB63:
.LBB57:
@ src/mainproc.c:450:     return h - 'A' + 10;
	.loc 1 450 20 view .LVU129
	b	.L27		@
.LBE57:
.LBE63:
.LBE65:
	.cfi_endproc
.LFE22:
	.size	hex_to_bytes, .-hex_to_bytes
	.section	.rodata.passphrase_to_dek.str1.4,"aMS",%progbits,1
	.align	2
.LC5:
	.ascii	"passphrase_to_dek\012\000"
	.align	2
.LC6:
	.ascii	"FIXING SALT VALUE\012\000"
	.align	2
.LC7:
	.ascii	"OVERRIDDEN: %s\012\000"
	.align	2
.LC8:
	.ascii	"DEK Information:\012\000"
	.align	2
.LC9:
	.ascii	"Algorithm: %d\012\000"
	.align	2
.LC10:
	.ascii	"Key Length: %d bytes\012\000"
	.align	2
.LC11:
	.ascii	"Iterations: %d\012\000"
	.align	2
.LC12:
	.ascii	"Key: \000"
	.align	2
.LC13:
	.ascii	"SALT: \000"
	.section	.text.passphrase_to_dek,"ax",%progbits
	.align	2
	.global	passphrase_to_dek
	.syntax unified
	.arm
	.fpu softvfp
	.type	passphrase_to_dek, %function
passphrase_to_dek:
.LVL36:
.LFB23:
	.loc 1 468 1 is_stmt 1 view -0
	.cfi_startproc
	@ args = 20, pretend = 0, frame = 8
	@ frame_needed = 1, uses_anonymous_args = 0
	.loc 1 468 1 is_stmt 0 view .LVU131
	push	{r4, r5, r6, r7, r8, r9, fp, lr}	@
	.cfi_def_cfa_offset 32
	.cfi_offset 4, -32
	.cfi_offset 5, -28
	.cfi_offset 6, -24
	.cfi_offset 7, -20
	.cfi_offset 8, -16
	.cfi_offset 9, -12
	.cfi_offset 11, -8
	.cfi_offset 14, -4
	add	fp, sp, #28	@,,
	.cfi_def_cfa 11, 4
	mov	r4, r0	@ tmp227, cipher_algo
	sub	sp, sp, #16	@,,
@ src/mainproc.c:469:   printf("passphrase_to_dek\n");
	.loc 1 469 3 view .LVU132
	ldr	r0, .L52	@,
.LVL37:
@ src/mainproc.c:468: {
	.loc 1 468 1 view .LVU133
@ src/mainproc.c:468: {
	.loc 1 468 1 view .LVU134
	ldr	r8, [fp, #12]	@ canceled, canceled
	mov	r5, r2	@ create, tmp229
@ src/mainproc.c:469:   printf("passphrase_to_dek\n");
	.loc 1 469 3 view .LVU135
.LPIC6:
	add	r0, pc, r0	@,
@ src/mainproc.c:468: {
	.loc 1 468 1 view .LVU136
	mov	r7, r1	@ s2k, tmp228
	ldr	r6, [fp, #20]	@ derivedKey, derivedKey
	.loc 1 469 3 is_stmt 1 view .LVU137
	bl	tfp_printf(PLT)	@
.LVL38:
	.loc 1 470 3 view .LVU138
	.loc 1 471 3 view .LVU139
	.loc 1 472 3 view .LVU140
	.loc 1 473 3 view .LVU141
	.loc 1 474 3 view .LVU142
	.loc 1 475 3 view .LVU143
	.loc 1 477 3 view .LVU144
@ src/mainproc.c:477:   if (!canceled)
	.loc 1 477 6 is_stmt 0 view .LVU145
	cmp	r8, #0	@ canceled,
@ src/mainproc.c:479:   *canceled = 0;
	.loc 1 479 13 view .LVU146
	mov	r3, #0	@ tmp166,
@ src/mainproc.c:478:     canceled = &dummy_canceled;
	.loc 1 478 14 view .LVU147
	subeq	r8, fp, #32	@ canceled,,
.LVL39:
	.loc 1 479 3 is_stmt 1 view .LVU148
@ src/mainproc.c:496:   if (create && (s2k->mode == 1 || s2k->mode == 3))
	.loc 1 496 6 is_stmt 0 view .LVU149
	cmp	r5, #0	@ create,
@ src/mainproc.c:479:   *canceled = 0;
	.loc 1 479 13 view .LVU150
	str	r3, [r8]	@ tmp166, *canceled_16
	.loc 1 496 3 is_stmt 1 view .LVU151
@ src/mainproc.c:496:   if (create && (s2k->mode == 1 || s2k->mode == 3))
	.loc 1 496 6 is_stmt 0 view .LVU152
	beq	.L41		@,
@ src/mainproc.c:496:   if (create && (s2k->mode == 1 || s2k->mode == 3))
	.loc 1 496 33 discriminator 1 view .LVU153
	ldr	r3, [r7]	@ s2k_37(D)->mode, s2k_37(D)->mode
	bic	r3, r3, #2	@ tmp167, s2k_37(D)->mode,
@ src/mainproc.c:496:   if (create && (s2k->mode == 1 || s2k->mode == 3))
	.loc 1 496 14 discriminator 1 view .LVU154
	cmp	r3, #1	@ tmp167,
	beq	.L51		@,
.L41:
	.loc 1 580 3 is_stmt 1 view .LVU155
@ src/mainproc.c:580:   dek = xmalloc_clear(sizeof *dek);
	.loc 1 580 9 is_stmt 0 view .LVU156
	mov	r0, #60	@,
	bl	xmalloc_clear(PLT)	@
.LVL40:
@ src/mainproc.c:611:   uint32_t iterations = ((uint32_t)16 + (s2k->count & 15)) << ((s2k->count >> 4) + 6);
	.loc 1 611 45 view .LVU157
	ldr	r3, [r7, #16]	@ _6, s2k_37(D)->count
@ src/mainproc.c:613:   if (derivedKey != NULL)
	.loc 1 613 6 view .LVU158
	cmp	r6, #0	@ derivedKey,
@ src/mainproc.c:581:   dek->algo = cipher_algo;
	.loc 1 581 13 view .LVU159
	str	r4, [r0]	@ cipher_algo, dek_50->algo
@ src/mainproc.c:588:   dek->keylen = 16; // openpgp_cipher_get_algo_keylen (dek->algo);
	.loc 1 588 15 view .LVU160
	mov	r2, #16	@ tmp180,
	str	r2, [r0, #4]	@ tmp180, dek_50->keylen
@ src/mainproc.c:611:   uint32_t iterations = ((uint32_t)16 + (s2k->count & 15)) << ((s2k->count >> 4) + 6);
	.loc 1 611 53 view .LVU161
	and	r4, r3, #15	@ tmp181, _6,
.LVL41:
@ src/mainproc.c:611:   uint32_t iterations = ((uint32_t)16 + (s2k->count & 15)) << ((s2k->count >> 4) + 6);
	.loc 1 611 76 view .LVU162
	lsr	r3, r3, #4	@ tmp183, _6,
@ src/mainproc.c:611:   uint32_t iterations = ((uint32_t)16 + (s2k->count & 15)) << ((s2k->count >> 4) + 6);
	.loc 1 611 39 view .LVU163
	add	r4, r4, #16	@ tmp182, tmp181,
@ src/mainproc.c:611:   uint32_t iterations = ((uint32_t)16 + (s2k->count & 15)) << ((s2k->count >> 4) + 6);
	.loc 1 611 82 view .LVU164
	add	r3, r3, #6	@ tmp184, tmp183,
@ src/mainproc.c:580:   dek = xmalloc_clear(sizeof *dek);
	.loc 1 580 9 view .LVU165
	mov	r5, r0	@ _5, tmp230
.LVL42:
	.loc 1 581 3 is_stmt 1 view .LVU166
	.loc 1 588 3 view .LVU167
	.loc 1 611 3 view .LVU168
@ src/mainproc.c:611:   uint32_t iterations = ((uint32_t)16 + (s2k->count & 15)) << ((s2k->count >> 4) + 6);
	.loc 1 611 12 is_stmt 0 view .LVU169
	lsl	r4, r4, r3	@ iterations, tmp182, tmp184
.LVL43:
	.loc 1 613 3 is_stmt 1 view .LVU170
@ src/mainproc.c:613:   if (derivedKey != NULL)
	.loc 1 613 6 is_stmt 0 view .LVU171
	beq	.L43		@,
.LBB66:
@ src/mainproc.c:615:     printf("OVERRIDDEN: %s\n", derivedKey);
	.loc 1 615 5 view .LVU172
	ldr	r0, .L52+4	@,
.LVL44:
	.loc 1 615 5 view .LVU173
	mov	r1, r6	@, derivedKey
@ src/mainproc.c:614:   {
	.loc 1 614 3 view .LVU174
	mov	r8, sp	@ tmp185,
.LVL45:
@ src/mainproc.c:615:     printf("OVERRIDDEN: %s\n", derivedKey);
	.loc 1 615 5 view .LVU175
.LPIC8:
	add	r0, pc, r0	@,
	bl	tfp_printf(PLT)	@
.LVL46:
	.loc 1 615 5 is_stmt 1 view .LVU176
	.loc 1 617 5 view .LVU177
@ src/mainproc.c:617:     uint8_t key[dek->keylen]; // For SHA1 output
	.loc 1 617 13 is_stmt 0 view .LVU178
	ldr	r2, [r5, #4]	@ _12, dek_50->keylen
@ src/mainproc.c:618:     hex_to_bytes(derivedKey, key, dek->keylen);
	.loc 1 618 5 view .LVU179
	mov	r0, r6	@, derivedKey
	add	r6, r7, #5	@ ivtmp.68, s2k,
@ src/mainproc.c:617:     uint8_t key[dek->keylen]; // For SHA1 output
	.loc 1 617 13 view .LVU180
	add	r3, r2, #7	@ tmp188, _12,
	bic	r3, r3, #7	@ tmp190, tmp188,
	sub	sp, sp, r3	@,, tmp190
	add	r9, sp, #8	@ tmp191,,
.LVL47:
	.loc 1 618 5 is_stmt 1 view .LVU181
	mov	r1, r9	@, tmp191
	bl	hex_to_bytes(PLT)	@
.LVL48:
	.loc 1 619 5 view .LVU182
	ldr	r2, [r5, #4]	@, dek_50->keylen
	mov	r1, r9	@, tmp191
	add	r0, r5, #9	@, _5,
	bl	memcpy(PLT)	@
.LVL49:
	mov	sp, r8	@, tmp185
.LVL50:
.L44:
	.loc 1 619 5 is_stmt 0 view .LVU183
.LBE66:
	.loc 1 624 3 is_stmt 1 view .LVU184
	ldr	r0, .L52+8	@,
.LPIC9:
	add	r0, pc, r0	@,
	bl	tfp_printf(PLT)	@
.LVL51:
	.loc 1 625 3 view .LVU185
	ldr	r0, .L52+12	@,
	ldr	r1, [r5]	@, dek_50->algo
.LPIC10:
	add	r0, pc, r0	@,
	bl	tfp_printf(PLT)	@
.LVL52:
	.loc 1 626 3 view .LVU186
	ldr	r0, .L52+16	@,
	ldr	r1, [r5, #4]	@, dek_50->keylen
.LPIC11:
	add	r0, pc, r0	@,
	bl	tfp_printf(PLT)	@
.LVL53:
	.loc 1 627 3 view .LVU187
	ldr	r0, .L52+20	@,
	mov	r1, r4	@, iterations
.LPIC12:
	add	r0, pc, r0	@,
	bl	tfp_printf(PLT)	@
.LVL54:
	.loc 1 633 3 view .LVU188
	ldr	r0, .L52+24	@,
.LPIC13:
	add	r0, pc, r0	@,
	bl	tfp_printf(PLT)	@
.LVL55:
	.loc 1 634 3 view .LVU189
.LBB67:
	.loc 1 634 8 view .LVU190
	.loc 1 634 19 view .LVU191
@ src/mainproc.c:634:   for (int i = 0; i < dek->keylen; i++)
	.loc 1 634 3 is_stmt 0 view .LVU192
	ldr	r3, [r5, #4]	@ dek_50->keylen, dek_50->keylen
	cmp	r3, #0	@ dek_50->keylen,
	ble	.L45		@,
@ src/mainproc.c:636:     printf("%02x", dek->key[i]);
	.loc 1 636 5 view .LVU193
	ldr	r9, .L52+28	@ tmp212,
	add	r8, r5, #8	@ ivtmp.73, _5,
.LPIC14:
	add	r9, pc, r9	@ tmp212, tmp212
.LVL56:
.L46:
	.loc 1 636 5 is_stmt 1 discriminator 3 view .LVU194
	mov	r4, r8	@ ivtmp.73, ivtmp.73
	mov	r0, r9	@, tmp212
	ldrb	r1, [r8, #1]!	@ zero_extendqisi2	@, MEM[base: _96, offset: 0B]
.LVL57:
@ src/mainproc.c:634:   for (int i = 0; i < dek->keylen; i++)
	.loc 1 634 3 is_stmt 0 discriminator 3 view .LVU195
	sub	r4, r4, #7	@ tmp213, ivtmp.73,
.LVL58:
	.loc 1 634 3 discriminator 3 view .LVU196
	sub	r4, r4, r5	@ i, tmp213, _5
.LVL59:
@ src/mainproc.c:636:     printf("%02x", dek->key[i]);
	.loc 1 636 5 discriminator 3 view .LVU197
	bl	tfp_printf(PLT)	@
.LVL60:
	.loc 1 634 36 is_stmt 1 discriminator 3 view .LVU198
	.loc 1 634 19 discriminator 3 view .LVU199
@ src/mainproc.c:634:   for (int i = 0; i < dek->keylen; i++)
	.loc 1 634 3 is_stmt 0 discriminator 3 view .LVU200
	ldr	r3, [r5, #4]	@ dek_50->keylen, dek_50->keylen
	cmp	r3, r4	@ dek_50->keylen, i
	bgt	.L46		@,
.LVL61:
.L45:
	.loc 1 634 3 discriminator 3 view .LVU201
.LBE67:
	.loc 1 638 3 is_stmt 1 view .LVU202
	ldr	r0, .L52+32	@,
	mov	r4, r6	@ ivtmp.68, ivtmp.68
.LBB68:
@ src/mainproc.c:642:     printf("%02x", s2k->salt[i]);
	.loc 1 642 5 is_stmt 0 view .LVU203
	ldr	r6, .L52+36	@ tmp221,
	add	r7, r7, #13	@ _87, s2k,
.LVL62:
	.loc 1 642 5 view .LVU204
.LBE68:
@ src/mainproc.c:638:   printf("\n");
	.loc 1 638 3 view .LVU205
.LPIC15:
	add	r0, pc, r0	@,
.LBB69:
@ src/mainproc.c:642:     printf("%02x", s2k->salt[i]);
	.loc 1 642 5 view .LVU206
.LPIC17:
	add	r6, pc, r6	@ tmp221, tmp221
.LBE69:
@ src/mainproc.c:638:   printf("\n");
	.loc 1 638 3 view .LVU207
	bl	tfp_printf(PLT)	@
.LVL63:
	.loc 1 639 3 is_stmt 1 view .LVU208
	ldr	r0, .L52+40	@,
.LPIC16:
	add	r0, pc, r0	@,
	bl	tfp_printf(PLT)	@
.LVL64:
	.loc 1 640 3 view .LVU209
.LBB70:
	.loc 1 640 8 view .LVU210
	.loc 1 640 19 view .LVU211
.L47:
	.loc 1 642 5 discriminator 3 view .LVU212
	ldrb	r1, [r4], #1	@ zero_extendqisi2	@, MEM[base: _88, offset: 0B]
.LVL65:
	.loc 1 642 5 is_stmt 0 discriminator 3 view .LVU213
	mov	r0, r6	@, tmp221
	bl	tfp_printf(PLT)	@
.LVL66:
	.loc 1 640 26 is_stmt 1 discriminator 3 view .LVU214
	.loc 1 640 19 discriminator 3 view .LVU215
@ src/mainproc.c:640:   for (int i = 0; i < 8; i++)
	.loc 1 640 3 is_stmt 0 discriminator 3 view .LVU216
	cmp	r4, r7	@ ivtmp.68, _87
	bne	.L47		@,
.LBE70:
	.loc 1 644 3 is_stmt 1 view .LVU217
	ldr	r0, .L52+44	@,
.LPIC18:
	add	r0, pc, r0	@,
	bl	tfp_printf(PLT)	@
.LVL67:
	.loc 1 646 3 view .LVU218
@ src/mainproc.c:647: }
	.loc 1 647 1 is_stmt 0 view .LVU219
	mov	r0, r5	@, _5
	sub	sp, fp, #28	@,,
	.cfi_remember_state
	.cfi_def_cfa 13, 32
	@ sp needed	@
	pop	{r4, r5, r6, r7, r8, r9, fp, pc}	@
.LVL68:
.L43:
	.cfi_restore_state
	.loc 1 622 5 is_stmt 1 view .LVU220
	ldr	r0, [fp, #16]	@, passphrase
.LVL69:
@ src/mainproc.c:622:     derive_key(s2k->salt, passphrase, strlen(passphrase), iterations, dek->key);
	.loc 1 622 19 is_stmt 0 view .LVU221
	add	r6, r7, #5	@ ivtmp.68, s2k,
@ src/mainproc.c:622:     derive_key(s2k->salt, passphrase, strlen(passphrase), iterations, dek->key);
	.loc 1 622 5 view .LVU222
	bl	strlen(PLT)	@
.LVL70:
@ src/mainproc.c:622:     derive_key(s2k->salt, passphrase, strlen(passphrase), iterations, dek->key);
	.loc 1 622 74 view .LVU223
	add	r3, r5, #9	@ tmp196, _5,
@ src/mainproc.c:622:     derive_key(s2k->salt, passphrase, strlen(passphrase), iterations, dek->key);
	.loc 1 622 5 view .LVU224
	mov	r2, r0	@ tmp231,
	str	r3, [sp]	@ tmp196,
	mov	r0, r6	@, ivtmp.68
	ldr	r1, [fp, #16]	@, passphrase
	mov	r3, r4	@, iterations
	bl	derive_key(PLT)	@
.LVL71:
	b	.L44		@
.LVL72:
.L51:
	.loc 1 500 5 is_stmt 1 view .LVU225
	ldr	r0, .L52+48	@,
.LPIC7:
	add	r0, pc, r0	@,
	bl	tfp_printf(PLT)	@
.LVL73:
	.loc 1 501 5 view .LVU226
	.loc 1 502 5 view .LVU227
	.loc 1 503 5 view .LVU228
	.loc 1 504 5 view .LVU229
	.loc 1 505 5 view .LVU230
	.loc 1 506 5 view .LVU231
	.loc 1 507 5 view .LVU232
	.loc 1 508 5 view .LVU233
@ src/mainproc.c:509:     if (s2k->mode == 3)
	.loc 1 509 8 is_stmt 0 view .LVU234
	ldr	r1, [r7]	@ s2k_37(D)->mode, s2k_37(D)->mode
@ src/mainproc.c:501:     s2k->salt[0] = 0x0a;
	.loc 1 501 18 view .LVU235
	mov	r2, #10	@ tmp171,
	strb	r2, [r7, #5]	@ tmp171, s2k_37(D)->salt[0]
@ src/mainproc.c:504:     s2k->salt[3] = 0x0d;
	.loc 1 504 18 view .LVU236
	movw	r3, #3597	@ tmp175,
	movt	r3, 4111	@ tmp175,
@ src/mainproc.c:509:     if (s2k->mode == 3)
	.loc 1 509 8 view .LVU237
	cmp	r1, #3	@ s2k_37(D)->mode,
@ src/mainproc.c:504:     s2k->salt[3] = 0x0d;
	.loc 1 504 18 view .LVU238
	str	r3, [r7, #8]	@ tmp175, MEM <unsigned int> [(unsigned char *)s2k_37(D) + 8B]
@ src/mainproc.c:502:     s2k->salt[1] = 0x0b;
	.loc 1 502 18 view .LVU239
	movw	r2, #3083	@ tmp174,
	strh	r2, [r7, #6]	@ movhi	@ tmp174, MEM <unsigned short> [(unsigned char *)s2k_37(D) + 6B]
@ src/mainproc.c:517:       s2k->count = 0xFF; // opt.s2k_count;
	.loc 1 517 18 view .LVU240
	moveq	r3, #255	@ tmp179,
	streq	r3, [r7, #16]	@ tmp179, s2k_37(D)->count
@ src/mainproc.c:508:     s2k->salt[7] = 0x11;
	.loc 1 508 18 view .LVU241
	mov	r2, #17	@ tmp176,
	strb	r2, [r7, #12]	@ tmp176, s2k_37(D)->salt[7]
	.loc 1 509 5 is_stmt 1 view .LVU242
	.loc 1 517 7 view .LVU243
	b	.L41		@
.L53:
	.align	2
.L52:
	.word	.LC5-(.LPIC6+8)
	.word	.LC7-(.LPIC8+8)
	.word	.LC8-(.LPIC9+8)
	.word	.LC9-(.LPIC10+8)
	.word	.LC10-(.LPIC11+8)
	.word	.LC11-(.LPIC12+8)
	.word	.LC12-(.LPIC13+8)
	.word	.LC3-(.LPIC14+8)
	.word	.LC4-(.LPIC15+8)
	.word	.LC3-(.LPIC17+8)
	.word	.LC13-(.LPIC16+8)
	.word	.LC4-(.LPIC18+8)
	.word	.LC6-(.LPIC7+8)
	.cfi_endproc
.LFE23:
	.size	passphrase_to_dek, .-passphrase_to_dek
	.section	.rodata.do_proc_packets.str1.4,"aMS",%progbits,1
	.align	2
.LC14:
	.ascii	"do_proc_packets %d\012\000"
	.align	2
.LC15:
	.ascii	"Will derive key from passphrase\012\000"
	.align	2
.LC16:
	.ascii	"input data with too deeply nested packets\012\000"
	.align	2
.LC17:
	.ascii	"1\000"
	.align	2
.LC18:
	.ascii	"Encrypt only\012\000"
	.align	2
.LC19:
	.ascii	"proc_symkey_enc\012\000"
	.align	2
.LC20:
	.ascii	"invalid symkey encrypted packet\012\000"
	.align	2
.LC21:
	.ascii	"no DEK\012\000"
	.align	2
.LC22:
	.ascii	"CFB\000"
	.align	2
.LC23:
	.ascii	"CAST5\000"
	.align	2
.LC24:
	.ascii	"%s %s encrypted data\012\000"
	.align	2
.LC25:
	.ascii	"DOING DEK HERE passphrase:%s\012\000"
	.align	2
.LC26:
	.ascii	"session_key: %s\012\000"
	.align	2
.LC27:
	.ascii	"processing encrypted packet\012\000"
	.align	2
.LC28:
	.ascii	"WARNING: multiple plaintexts seen\012\000"
	.align	2
.LC29:
	.ascii	"decryption.early_plaintext\000"
	.align	2
.LC30:
	.ascii	"encrypted with %lu passphrases\012\000"
	.align	2
.LC31:
	.ascii	"encrypted with 1 passphrase\012\000"
	.align	2
.LC32:
	.ascii	"pkt->pkt.encrypted: %p\012\000"
	.align	2
.LC33:
	.ascii	"decrypt_data result: %d\012\000"
	.align	2
.LC34:
	.ascii	"decryption okay\012\000"
	.align	2
.LC35:
	.ascii	"WARNING: message was not integrity protected\012\000"
	.align	2
.LC36:
	.ascii	"WARNING: encrypted message has been manipulated!\012"
	.ascii	"\000"
	.align	2
.LC37:
	.ascii	"symkey_decrypt.maybe_error 11_BAD_PASSPHRASE\000"
	.align	2
.LC38:
	.ascii	"decryption failed: %s\012\000"
	.align	2
.LC39:
	.ascii	"src/mainproc.c\000"
	.align	2
.LC40:
	.ascii	"2\000"
	.section	.text.do_proc_packets,"ax",%progbits
	.align	2
	.syntax unified
	.arm
	.fpu softvfp
	.type	do_proc_packets, %function
do_proc_packets:
.LVL74:
.LFB31:
	.loc 1 1908 1 view -0
	.cfi_startproc
	@ args = 0, pretend = 0, frame = 40
	@ frame_needed = 0, uses_anonymous_args = 0
	.loc 1 1909 3 view .LVU245
@ src/mainproc.c:1908: {
	.loc 1 1908 1 is_stmt 0 view .LVU246
	push	{r4, r5, r6, r7, r8, r9, r10, fp, lr}	@
	.cfi_def_cfa_offset 36
	.cfi_offset 4, -36
	.cfi_offset 5, -32
	.cfi_offset 6, -28
	.cfi_offset 7, -24
	.cfi_offset 8, -20
	.cfi_offset 9, -16
	.cfi_offset 10, -12
	.cfi_offset 11, -8
	.cfi_offset 14, -4
	mov	r5, r0	@ tmp392, ctrl
@ src/mainproc.c:1909:   printf("do_proc_packets %d\n", ctrl->enc_length);// %s\n", ctrl->passphrase);
	.loc 1 1909 3 view .LVU247
	ldr	r0, .L137	@,
.LVL75:
@ src/mainproc.c:1908: {
	.loc 1 1908 1 view .LVU248
	sub	sp, sp, #68	@,,
	.cfi_def_cfa_offset 104
@ src/mainproc.c:1908: {
	.loc 1 1908 1 view .LVU249
	mov	r4, r1	@ tmp393, c
	mov	r10, r2	@ a, tmp394
@ src/mainproc.c:1909:   printf("do_proc_packets %d\n", ctrl->enc_length);// %s\n", ctrl->passphrase);
	.loc 1 1909 3 view .LVU250
.LPIC19:
	add	r0, pc, r0	@,
	ldr	r1, [r5, #32]	@, ctrl_39(D)->enc_length
.LVL76:
	.loc 1 1909 3 view .LVU251
	bl	tfp_printf(PLT)	@
.LVL77:
	.loc 1 1913 3 is_stmt 1 view .LVU252
@ src/mainproc.c:1913:   if (ctrl->passphrase != NULL)
	.loc 1 1913 11 is_stmt 0 view .LVU253
	ldr	r0, [r5, #24]	@ _2, ctrl_39(D)->passphrase
@ src/mainproc.c:1913:   if (ctrl->passphrase != NULL)
	.loc 1 1913 6 view .LVU254
	cmp	r0, #0	@ _2,
	beq	.L59		@,
	.loc 1 1915 5 is_stmt 1 view .LVU255
@ src/mainproc.c:1915:     c->passphrase = malloc(strlen(ctrl->passphrase) + 1);
	.loc 1 1915 28 is_stmt 0 view .LVU256
	bl	strlen(PLT)	@
.LVL78:
@ src/mainproc.c:1915:     c->passphrase = malloc(strlen(ctrl->passphrase) + 1);
	.loc 1 1915 21 view .LVU257
	add	r0, r0, #1	@, tmp395,
	bl	malloc(PLT)	@
.LVL79:
@ src/mainproc.c:1916:     my_strcpy(c->passphrase, ctrl->passphrase);
	.loc 1 1916 34 view .LVU258
	ldr	r1, [r5, #24]	@ src, ctrl_39(D)->passphrase
	sub	r2, r0, #1	@ ivtmp.96, tmp212,
@ src/mainproc.c:1915:     c->passphrase = malloc(strlen(ctrl->passphrase) + 1);
	.loc 1 1915 19 view .LVU259
	str	r0, [r4, #48]	@ tmp212, c_43(D)->passphrase
	.loc 1 1916 5 is_stmt 1 view .LVU260
.LVL80:
.LBB87:
.LBI87:
	.file 2 "src/printf.h"
	.loc 2 84 20 view .LVU261
.LBB88:
	.loc 2 85 4 view .LVU262
.L58:
	.loc 2 85 29 view .LVU263
	.loc 2 85 10 view .LVU264
@ src/printf.h:85:    while ((*dst++ = *src++));
	.loc 2 85 21 is_stmt 0 view .LVU265
	ldrb	r3, [r1], #1	@ zero_extendqisi2	@ _90, MEM[base: src_87, offset: 4294967295B]
.LVL81:
@ src/printf.h:85:    while ((*dst++ = *src++));
	.loc 2 85 19 view .LVU266
	strb	r3, [r2, #1]!	@ _90, MEM[base: _159, offset: 0B]
@ src/printf.h:85:    while ((*dst++ = *src++));
	.loc 2 85 10 view .LVU267
	cmp	r3, #0	@ _90,
	bne	.L58		@,
.LVL82:
.L59:
	.loc 2 85 10 view .LVU268
.LBE88:
.LBE87:
	.loc 1 1919 3 is_stmt 1 view .LVU269
@ src/mainproc.c:1919:   if (ctrl->session_key != NULL)
	.loc 1 1919 11 is_stmt 0 view .LVU270
	ldr	r0, [r5, #28]	@ _9, ctrl_39(D)->session_key
@ src/mainproc.c:1919:   if (ctrl->session_key != NULL)
	.loc 1 1919 6 view .LVU271
	cmp	r0, #0	@ _9,
	beq	.L126		@,
	.loc 1 1921 5 is_stmt 1 view .LVU272
@ src/mainproc.c:1921:     c->session_key = malloc(strlen(ctrl->session_key) + 1);
	.loc 1 1921 29 is_stmt 0 view .LVU273
	bl	strlen(PLT)	@
.LVL83:
@ src/mainproc.c:1921:     c->session_key = malloc(strlen(ctrl->session_key) + 1);
	.loc 1 1921 22 view .LVU274
	add	r0, r0, #1	@, tmp397,
	bl	malloc(PLT)	@
.LVL84:
@ src/mainproc.c:1922:     my_strcpy(c->session_key, ctrl->session_key);
	.loc 1 1922 35 view .LVU275
	ldr	r1, [r5, #28]	@ src, ctrl_39(D)->session_key
	sub	r2, r0, #1	@ ivtmp.87, tmp215,
@ src/mainproc.c:1921:     c->session_key = malloc(strlen(ctrl->session_key) + 1);
	.loc 1 1921 20 view .LVU276
	str	r0, [r4, #52]	@ tmp215, c_43(D)->session_key
	.loc 1 1922 5 is_stmt 1 view .LVU277
.LVL85:
.LBB89:
.LBI89:
	.loc 2 84 20 view .LVU278
.LBB90:
	.loc 2 85 4 view .LVU279
.L60:
	.loc 2 85 29 view .LVU280
	.loc 2 85 10 view .LVU281
@ src/printf.h:85:    while ((*dst++ = *src++));
	.loc 2 85 21 is_stmt 0 view .LVU282
	ldrb	r3, [r1], #1	@ zero_extendqisi2	@ _95, MEM[base: src_92, offset: 4294967295B]
.LVL86:
@ src/printf.h:85:    while ((*dst++ = *src++));
	.loc 2 85 19 view .LVU283
	strb	r3, [r2, #1]!	@ _95, MEM[base: _255, offset: 0B]
@ src/printf.h:85:    while ((*dst++ = *src++));
	.loc 2 85 10 view .LVU284
	cmp	r3, #0	@ _95,
	bne	.L60		@,
.LVL87:
.L61:
	.loc 2 85 10 view .LVU285
.LBE90:
.LBE89:
	.loc 1 1926 3 is_stmt 1 view .LVU286
@ src/mainproc.c:1926:   c->enc_len = ctrl->enc_length;
	.loc 1 1926 14 is_stmt 0 view .LVU287
	ldr	r3, [r5, #32]	@ ctrl_39(D)->enc_length, ctrl_39(D)->enc_length
	mov	r6, r4	@ c, c
	str	r3, [r4, #28]	@ ctrl_39(D)->enc_length, c_43(D)->enc_len
	.loc 1 1929 3 is_stmt 1 view .LVU288
	.loc 1 1930 3 view .LVU289
	.loc 1 1931 3 view .LVU290
.LVL88:
	.loc 1 1932 3 view .LVU291
	.loc 1 1933 3 view .LVU292
	.loc 1 1935 3 view .LVU293
.LBB91:
.LBI91:
	.loc 1 1889 1 view .LVU294
.LBB92:
	.loc 1 1891 3 view .LVU295
	.loc 1 1893 3 view .LVU296
	.loc 1 1893 19 view .LVU297
@ src/mainproc.c:1893:   for (level = 0; c; c = c->anchor)
	.loc 1 1893 14 is_stmt 0 view .LVU298
	mov	r3, #0	@ level,
.LVL89:
.L62:
	.loc 1 1894 5 is_stmt 1 view .LVU299
@ src/mainproc.c:1893:   for (level = 0; c; c = c->anchor)
	.loc 1 1893 24 is_stmt 0 view .LVU300
	ldr	r6, [r6, #4]	@ c, c_263->anchor
.LVL90:
@ src/mainproc.c:1894:     level++;
	.loc 1 1894 10 view .LVU301
	add	r3, r3, #1	@ level, level,
.LVL91:
	.loc 1 1893 22 is_stmt 1 view .LVU302
	.loc 1 1893 19 view .LVU303
@ src/mainproc.c:1893:   for (level = 0; c; c = c->anchor)
	.loc 1 1893 3 is_stmt 0 view .LVU304
	cmp	r6, #0	@ c,
	bne	.L62		@,
	.loc 1 1896 3 is_stmt 1 view .LVU305
@ src/mainproc.c:1896:   if (level > MAX_NESTING_DEPTH)
	.loc 1 1896 6 is_stmt 0 view .LVU306
	cmp	r3, #32	@ level,
	bgt	.L63		@,
.LVL92:
	.loc 1 1896 6 view .LVU307
.LBE92:
.LBE91:
	.loc 1 1936 3 is_stmt 1 view .LVU308
	.loc 1 1939 3 view .LVU309
@ src/mainproc.c:1943:   while ((rc = parse_packet(&parsectx, pkt)) != -1)
	.loc 1 1943 16 is_stmt 0 view .LVU310
	ldr	r7, .L137+4	@ tmp365,
@ src/mainproc.c:1939:   pkt = xmalloc(sizeof *pkt);
	.loc 1 1939 9 view .LVU311
	mov	r0, #8	@,
@ src/mainproc.c:1996:       printf("Encrypt only\n");
	.loc 1 1996 7 view .LVU312
	ldr	r8, .L137+8	@ tmp387,
@ src/mainproc.c:1939:   pkt = xmalloc(sizeof *pkt);
	.loc 1 1939 9 view .LVU313
	bl	xmalloc(PLT)	@
.LVL93:
.LBB94:
.LBB95:
@ src/mainproc.c:953:   int early_plaintext = literals_seen;
	.loc 1 953 7 view .LVU314
	ldr	r3, .L137+12	@ tmp391,
.LBE95:
.LBE94:
@ src/mainproc.c:1939:   pkt = xmalloc(sizeof *pkt);
	.loc 1 1939 9 view .LVU315
	mov	r5, r0	@ pkt, tmp399
.LVL94:
	.loc 1 1940 3 is_stmt 1 view .LVU316
	.loc 1 1941 3 view .LVU317
	.loc 1 1941 3 view .LVU318
.LBB109:
.LBB100:
@ src/mainproc.c:951:   printf("processing encrypted packet\n");
	.loc 1 951 3 is_stmt 0 view .LVU319
	ldr	r9, .L137+16	@ tmp388,
@ src/mainproc.c:953:   int early_plaintext = literals_seen;
	.loc 1 953 7 view .LVU320
.LPIC33:
	add	r3, pc, r3	@ tmp391, tmp391
.LBE100:
.LBE109:
@ src/mainproc.c:1940:   c->iobuf = a;
	.loc 1 1940 12 view .LVU321
	str	r10, [r4, #64]	@ a, c_43(D)->iobuf
@ src/mainproc.c:1943:   while ((rc = parse_packet(&parsectx, pkt)) != -1)
	.loc 1 1943 16 view .LVU322
.LPIC47:
	add	r7, pc, r7	@ tmp365, tmp365
@ src/mainproc.c:1941:   init_packet(pkt);
	.loc 1 1941 3 view .LVU323
	strb	r6, [r0]	@ c, pkt_55->pkttype
	.loc 1 1941 3 is_stmt 1 view .LVU324
	str	r6, [r0, #4]	@ c, pkt_55->pkt.generic
	.loc 1 1941 3 view .LVU325
	.loc 1 1942 3 view .LVU326
	.loc 1 1942 3 view .LVU327
	str	r10, [sp, #40]	@ a, parsectx.inp
	.loc 1 1942 3 view .LVU328
@ src/mainproc.c:1932:   int any_data = 0;
	.loc 1 1932 7 is_stmt 0 view .LVU329
	mov	r10, r6	@ any_data, c
.LVL95:
@ src/mainproc.c:1942:   init_parse_packet(&parsectx, a);
	.loc 1 1942 3 view .LVU330
	strb	r6, [sp, #44]	@ c, parsectx.last_pkt.pkttype
	.loc 1 1942 3 is_stmt 1 view .LVU331
	str	r6, [sp, #48]	@ c, parsectx.last_pkt.pkt.generic
	.loc 1 1942 3 view .LVU332
	str	r6, [sp, #52]	@ c, parsectx.free_last_pkt
	.loc 1 1942 3 view .LVU333
	str	r6, [sp, #56]	@ c, parsectx.skip_meta
	.loc 1 1942 3 view .LVU334
	str	r6, [sp, #60]	@ c, parsectx.n_parsed_packets
	.loc 1 1942 3 view .LVU335
	.loc 1 1943 3 view .LVU336
	add	r6, sp, #40	@ tmp385,,
@ src/mainproc.c:1996:       printf("Encrypt only\n");
	.loc 1 1996 7 is_stmt 0 view .LVU337
.LPIC23:
	add	r8, pc, r8	@ tmp387, tmp387
.LBB110:
.LBB101:
@ src/mainproc.c:951:   printf("processing encrypted packet\n");
	.loc 1 951 3 view .LVU338
.LPIC32:
	add	r9, pc, r9	@ tmp388, tmp388
@ src/mainproc.c:953:   int early_plaintext = literals_seen;
	.loc 1 953 7 view .LVU339
	str	r3, [sp, #24]	@ tmp391, %sfp
.LBE101:
.LBE110:
@ src/mainproc.c:1943:   while ((rc = parse_packet(&parsectx, pkt)) != -1)
	.loc 1 1943 9 view .LVU340
	b	.L91		@
.LVL96:
.L68:
	.loc 1 2057 5 is_stmt 1 view .LVU341
	.loc 1 2068 5 view .LVU342
@ src/mainproc.c:2068:     if (pkt->pkttype != PKT_SIGNATURE && pkt->pkttype != PKT_MDC)
	.loc 1 2068 12 is_stmt 0 view .LVU343
	ldrb	r3, [r5]	@ zero_extendqisi2	@ _239, pkt_55->pkttype
@ src/mainproc.c:2068:     if (pkt->pkttype != PKT_SIGNATURE && pkt->pkttype != PKT_MDC)
	.loc 1 2068 8 view .LVU344
	cmp	r3, #2	@ _239,
	cmpne	r3, #19	@, _239,
	beq	.L90		@,
	.loc 1 2069 7 is_stmt 1 view .LVU345
@ src/mainproc.c:2069:       c->any.data = (pkt->pkttype == PKT_PLAINTEXT);
	.loc 1 2069 19 is_stmt 0 view .LVU346
	ldrb	r2, [r4, #92]	@ zero_extendqisi2	@, c_43(D)->any.data
@ src/mainproc.c:2069:       c->any.data = (pkt->pkttype == PKT_PLAINTEXT);
	.loc 1 2069 35 view .LVU347
	sub	r3, r3, #11	@ tmp354, _239,
	clz	r3, r3	@ tmp354, tmp354
	lsr	r3, r3, #5	@ tmp354, tmp354,
@ src/mainproc.c:2069:       c->any.data = (pkt->pkttype == PKT_PLAINTEXT);
	.loc 1 2069 19 view .LVU348
	bfi	r2, r3, #1, #1	@ c_43(D)->any.data, tmp354,,
	strb	r2, [r4, #92]	@ c_43(D)->any.data, c_43(D)->any.data
	.loc 1 2071 5 is_stmt 1 view .LVU349
.L90:
@ src/mainproc.c:1932:   int any_data = 0;
	.loc 1 1932 7 is_stmt 0 view .LVU350
	mov	r10, #1	@ any_data,
.LVL97:
.L91:
	.loc 1 1943 9 is_stmt 1 view .LVU351
@ src/mainproc.c:1943:   while ((rc = parse_packet(&parsectx, pkt)) != -1)
	.loc 1 1943 16 is_stmt 0 view .LVU352
	movw	r3, #1943	@,
	mov	r2, r7	@, tmp365
	mov	r1, r5	@, pkt
	mov	r0, r6	@, tmp385
	bl	dbg_parse_packet(PLT)	@
.LVL98:
@ src/mainproc.c:1943:   while ((rc = parse_packet(&parsectx, pkt)) != -1)
	.loc 1 1943 9 view .LVU353
	cmn	r0, #1	@ <retval>,
	beq	.L127		@,
	.loc 1 1945 5 is_stmt 1 view .LVU354
.LVL99:
	.loc 1 1946 5 view .LVU355
@ src/mainproc.c:1946:     if (rc)
	.loc 1 1946 8 is_stmt 0 view .LVU356
	cmp	r0, #0	@ <retval>,
	bne	.L128		@,
	.loc 1 1953 9 is_stmt 1 view .LVU357
	.loc 1 1954 7 view .LVU358
	.loc 1 1956 5 view .LVU359
.LVL100:
	.loc 1 1994 5 view .LVU360
@ src/mainproc.c:1994:     if (c->encrypt_only)
	.loc 1 1994 8 is_stmt 0 view .LVU361
	ldr	r3, [r4, #20]	@ c_43(D)->encrypt_only, c_43(D)->encrypt_only
	cmp	r3, #0	@ c_43(D)->encrypt_only,
	beq	.L68		@,
	.loc 1 1996 7 is_stmt 1 view .LVU362
	mov	r0, r8	@, tmp387
.LVL101:
	.loc 1 1996 7 is_stmt 0 view .LVU363
	bl	tfp_printf(PLT)	@
.LVL102:
	.loc 1 1997 7 is_stmt 1 view .LVU364
@ src/mainproc.c:1997:       switch (pkt->pkttype)
	.loc 1 1997 18 is_stmt 0 view .LVU365
	ldrb	r2, [r5]	@ zero_extendqisi2	@ _18, pkt_55->pkttype
@ src/mainproc.c:1997:       switch (pkt->pkttype)
	.loc 1 1997 7 view .LVU366
	sub	r3, r2, #3	@ tmp237, _18,
	cmp	r3, #17	@ tmp237,
	addls	pc, pc, r3, asl #2	@ tmp237
	b	.L69	@
.L71:
	b	.L72
	b	.L69
	b	.L95
	b	.L95
	b	.L69
	b	.L69
	b	.L70
	b	.L69
	b	.L69
	b	.L69
	b	.L95
	b	.L69
	b	.L69
	b	.L69
	b	.L69
	b	.L70
	b	.L69
	b	.L70
	.p2align 1
.L69:
.LVL103:
	.loc 1 2057 5 is_stmt 1 view .LVU367
	.loc 1 2068 5 view .LVU368
@ src/mainproc.c:2068:     if (pkt->pkttype != PKT_SIGNATURE && pkt->pkttype != PKT_MDC)
	.loc 1 2068 8 is_stmt 0 view .LVU369
	cmp	r2, #2	@ _18,
	cmpne	r2, #19	@, _18,
	beq	.L89		@,
	.loc 1 2069 7 is_stmt 1 view .LVU370
@ src/mainproc.c:2069:       c->any.data = (pkt->pkttype == PKT_PLAINTEXT);
	.loc 1 2069 19 is_stmt 0 view .LVU371
	ldrb	r3, [r4, #92]	@ zero_extendqisi2	@, c_43(D)->any.data
@ src/mainproc.c:2069:       c->any.data = (pkt->pkttype == PKT_PLAINTEXT);
	.loc 1 2069 35 view .LVU372
	sub	r2, r2, #11	@ tmp359, _18,
	clz	r2, r2	@ tmp359, tmp359
	lsr	r2, r2, #5	@ tmp359, tmp359,
@ src/mainproc.c:2069:       c->any.data = (pkt->pkttype == PKT_PLAINTEXT);
	.loc 1 2069 19 view .LVU373
	bfi	r3, r2, #1, #1	@ c_43(D)->any.data, tmp359,,
	strb	r3, [r4, #92]	@ c_43(D)->any.data, c_43(D)->any.data
	.loc 1 2071 5 is_stmt 1 view .LVU374
.L89:
	.loc 1 2073 10 view .LVU375
	.loc 1 2079 7 view .LVU376
	mov	r1, r6	@, tmp385
	mov	r0, r5	@, pkt
	mov	r10, #1	@ any_data,
	bl	free_packet(PLT)	@
.LVL104:
	b	.L91		@
.LVL105:
.L70:
	.loc 1 2016 9 view .LVU377
.LBB111:
.LBI94:
	.loc 1 949 1 view .LVU378
.LBB102:
	.loc 1 951 3 view .LVU379
	mov	r0, r9	@, tmp388
	bl	tfp_printf(PLT)	@
.LVL106:
	.loc 1 952 3 view .LVU380
	.loc 1 953 3 view .LVU381
@ src/mainproc.c:956:   if (pkt->pkttype == PKT_ENCRYPTED_AEAD)
	.loc 1 956 10 is_stmt 0 view .LVU382
	ldrb	r3, [r5]	@ zero_extendqisi2	@ _129, pkt_55->pkttype
@ src/mainproc.c:953:   int early_plaintext = literals_seen;
	.loc 1 953 7 view .LVU383
	ldr	r2, [sp, #24]	@ tmp391, %sfp
@ src/mainproc.c:956:   if (pkt->pkttype == PKT_ENCRYPTED_AEAD)
	.loc 1 956 6 view .LVU384
	cmp	r3, #20	@ _129,
@ src/mainproc.c:953:   int early_plaintext = literals_seen;
	.loc 1 953 7 view .LVU385
	ldr	fp, [r2]	@ early_plaintext, literals_seen
.LVL107:
	.loc 1 954 3 is_stmt 1 view .LVU386
	.loc 1 956 3 view .LVU387
@ src/mainproc.c:957:     c->seen_pkt_encrypted_aead = 1;
	.loc 1 957 32 is_stmt 0 view .LVU388
	moveq	r3, #1	@ tmp288,
	streq	r3, [r4, #84]	@ tmp288, c_43(D)->seen_pkt_encrypted_aead
@ src/mainproc.c:956:   if (pkt->pkttype == PKT_ENCRYPTED_AEAD)
	.loc 1 956 6 view .LVU389
	beq	.L78		@,
	.loc 1 958 3 is_stmt 1 view .LVU390
@ src/mainproc.c:958:   if (pkt->pkttype == PKT_ENCRYPTED_MDC)
	.loc 1 958 6 is_stmt 0 view .LVU391
	cmp	r3, #18	@ _129,
	.loc 1 959 5 is_stmt 1 view .LVU392
@ src/mainproc.c:959:     c->seen_pkt_encrypted_mdc = 1;
	.loc 1 959 31 is_stmt 0 view .LVU393
	moveq	r3, #1	@ tmp289,
	streq	r3, [r4, #88]	@ tmp289, c_43(D)->seen_pkt_encrypted_mdc
.L78:
	.loc 1 961 3 is_stmt 1 view .LVU394
@ src/mainproc.c:961:   if (early_plaintext)
	.loc 1 961 6 is_stmt 0 view .LVU395
	cmp	fp, #0	@ early_plaintext,
	bne	.L129		@,
.L79:
	.loc 1 968 3 is_stmt 1 view .LVU396
	.loc 1 970 5 view .LVU397
@ src/mainproc.c:970:     if (c->symkeys > 1)
	.loc 1 970 10 is_stmt 0 view .LVU398
	ldr	r1, [r4, #72]	@ _130, c_43(D)->symkeys
@ src/mainproc.c:970:     if (c->symkeys > 1)
	.loc 1 970 8 view .LVU399
	cmp	r1, #1	@ _130,
	bhi	.L130		@,
	.loc 1 972 10 is_stmt 1 view .LVU400
@ src/mainproc.c:972:     else if (c->symkeys == 1)
	.loc 1 972 13 is_stmt 0 view .LVU401
	beq	.L131		@,
.L81:
	.loc 1 1092 1 is_stmt 1 view .LVU402
	ldr	r0, .L137+20	@,
	ldr	r1, [r5, #4]	@, pkt_55->pkt.encrypted
.LPIC38:
	add	r0, pc, r0	@,
	bl	tfp_printf(PLT)	@
.LVL108:
	.loc 1 1093 3 view .LVU403
.LBB96:
	.loc 1 1095 5 view .LVU404
	.loc 1 1096 5 view .LVU405
@ src/mainproc.c:1096:     result = decrypt_data(c->ctrl, c, pkt->pkt.encrypted, c->dek,
	.loc 1 1096 14 is_stmt 0 view .LVU406
	ldr	r3, [r4, #44]	@, c_43(D)->dek
	add	r1, sp, #36	@ tmp304,,
	ldr	r2, [r5, #4]	@ pkt_55->pkt.encrypted, pkt_55->pkt.encrypted
	ldr	r0, [r4]	@, c_43(D)->ctrl
	str	r1, [sp]	@ tmp304,
	mov	r1, r4	@, c
	bl	decrypt_data(PLT)	@
.LVL109:
	mov	r10, r0	@ tmp402,
.LBE96:
@ src/mainproc.c:1101:   printf("decrypt_data result: %d\n", result);
	.loc 1 1101 3 view .LVU407
	ldr	r0, .L137+24	@,
	mov	r1, r10	@, result
.LPIC39:
	add	r0, pc, r0	@,
.LVL110:
.LBB97:
	.loc 1 1098 5 is_stmt 1 view .LVU408
	.loc 1 1098 5 is_stmt 0 view .LVU409
.LBE97:
	.loc 1 1101 3 is_stmt 1 view .LVU410
	bl	tfp_printf(PLT)	@
.LVL111:
	.loc 1 1105 3 view .LVU411
@ src/mainproc.c:1105:   if (!result && early_plaintext)
	.loc 1 1105 6 is_stmt 0 view .LVU412
	clz	r3, r10	@ tmp313, result
	cmp	fp, #0	@ early_plaintext,
	lsr	r3, r3, #5	@ tmp313, tmp313,
	moveq	r3, #0	@ tmp313,
	cmp	r3, #0	@ tmp313,
	beq	.L132		@,
.LVL112:
.L82:
	.loc 1 1191 5 is_stmt 1 view .LVU413
	mov	r0, #24	@,
	bl	tfp_printf(PLT)	@
.LVL113:
	.loc 1 1192 5 view .LVU414
	ldr	r0, .L137+28	@,
.LPIC44:
	add	r0, pc, r0	@,
	bl	tfp_printf(PLT)	@
.LVL114:
.L83:
	.loc 1 1199 3 view .LVU415
	.loc 1 1206 3 view .LVU416
	ldr	r0, [r4, #44]	@, c_43(D)->dek
@ src/mainproc.c:1207:   c->dek = NULL;
	.loc 1 1207 10 is_stmt 0 view .LVU417
	mov	r10, #0	@ tmp338,
@ src/mainproc.c:1206:   xfree(c->dek);
	.loc 1 1206 3 view .LVU418
	bl	xfree(PLT)	@
.LVL115:
	.loc 1 1207 3 is_stmt 1 view .LVU419
@ src/mainproc.c:1207:   c->dek = NULL;
	.loc 1 1207 10 is_stmt 0 view .LVU420
	str	r10, [r4, #44]	@ tmp338, c_43(D)->dek
	.loc 1 1208 3 is_stmt 1 view .LVU421
	mov	r1, r10	@, tmp338
	mov	r0, r5	@, pkt
	bl	free_packet(PLT)	@
.LVL116:
	.loc 1 1209 3 view .LVU422
@ src/mainproc.c:1209:   c->last_was_session_key = 0;
	.loc 1 1209 27 is_stmt 0 view .LVU423
	str	r10, [r4, #56]	@ tmp338, c_43(D)->last_was_session_key
	.loc 1 1210 3 is_stmt 1 view .LVU424
	mov	r0, #42	@,
	bl	tfp_printf(PLT)	@
.LVL117:
	.loc 1 1216 3 view .LVU425
@ src/mainproc.c:1216:   literals_seen++;
	.loc 1 1216 16 is_stmt 0 view .LVU426
	ldr	r2, .L137+32	@ tmp341,
.LPIC45:
	add	r2, pc, r2	@ tmp341, tmp341
	ldr	r3, [r2]	@ literals_seen, literals_seen
	add	r3, r3, #1	@ tmp344, literals_seen,
	str	r3, [r2]	@ tmp344, literals_seen
@ src/mainproc.c:1227: }
	.loc 1 1227 1 view .LVU427
	b	.L68		@
.LVL118:
.L95:
	.loc 1 1227 1 view .LVU428
.LBE102:
.LBE111:
@ src/mainproc.c:1997:       switch (pkt->pkttype)
	.loc 1 1997 7 view .LVU429
	mov	fp, #38	@ <retval>,
.LVL119:
.L67:
	.loc 1 2092 3 is_stmt 1 view .LVU430
	ldr	r0, [r4, #44]	@, c_43(D)->dek
	bl	xfree(PLT)	@
.LVL120:
	.loc 1 2093 3 view .LVU431
	mov	r1, r6	@, tmp385
	mov	r0, r5	@, pkt
	bl	free_packet(PLT)	@
.LVL121:
	.loc 1 2094 3 view .LVU432
	.loc 1 2094 3 view .LVU433
	ldr	r3, [sp, #52]	@ parsectx.free_last_pkt, parsectx.free_last_pkt
	cmp	r3, #0	@ parsectx.free_last_pkt,
	bne	.L133		@,
.L93:
	.loc 1 2094 3 discriminator 3 view .LVU434
	.loc 1 2095 3 discriminator 3 view .LVU435
	mov	r0, r5	@, pkt
	bl	xfree(PLT)	@
.LVL122:
	.loc 1 2097 3 discriminator 3 view .LVU436
@ src/mainproc.c:2098: }
	.loc 1 2098 1 is_stmt 0 discriminator 3 view .LVU437
	mov	r0, fp	@, <retval>
	add	sp, sp, #68	@,,
	.cfi_remember_state
	.cfi_def_cfa_offset 36
	@ sp needed	@
	pop	{r4, r5, r6, r7, r8, r9, r10, fp, pc}	@
.LVL123:
.L72:
	.cfi_restore_state
	.loc 1 2008 9 is_stmt 1 view .LVU438
.LBB112:
.LBI112:
	.loc 1 650 1 view .LVU439
.LBB113:
	.loc 1 652 3 view .LVU440
	ldr	r0, .L137+36	@,
.LPIC24:
	add	r0, pc, r0	@,
	bl	tfp_printf(PLT)	@
.LVL124:
	.loc 1 653 3 view .LVU441
	.loc 1 654 3 view .LVU442
	.loc 1 656 3 view .LVU443
@ src/mainproc.c:656:   enc = pkt->pkt.symkey_enc;
	.loc 1 656 7 is_stmt 0 view .LVU444
	ldr	r10, [r5, #4]	@ enc, pkt_55->pkt.symkey_enc
.LVL125:
	.loc 1 657 3 is_stmt 1 view .LVU445
@ src/mainproc.c:657:   if (!enc)
	.loc 1 657 6 is_stmt 0 view .LVU446
	cmp	r10, #0	@ enc,
	beq	.L134		@,
	.loc 1 659 8 is_stmt 1 view .LVU447
@ src/mainproc.c:659:   else if (!c->dek)
	.loc 1 659 11 is_stmt 0 view .LVU448
	ldr	fp, [r4, #44]	@ c_43(D)->dek, c_43(D)->dek
	cmp	fp, #0	@ c_43(D)->dek,
	beq	.L135		@,
.L76:
.LBB114:
	.loc 1 772 5 is_stmt 1 view .LVU449
	.loc 1 773 5 view .LVU450
@ src/mainproc.c:773:     symitem = xcalloc(1, sizeof *symitem);
	.loc 1 773 15 is_stmt 0 view .LVU451
	mov	r1, #16	@,
	mov	r0, #1	@,
	bl	xcalloc(PLT)	@
.LVL126:
@ src/mainproc.c:776:       symitem->cipher_algo = enc->cipher_algo;
	.loc 1 776 33 view .LVU452
	ldrb	r3, [r10, #1]	@ zero_extendqisi2	@ enc_106->cipher_algo, enc_106->cipher_algo
.LVL127:
	.loc 1 774 5 is_stmt 1 view .LVU453
	.loc 1 776 7 view .LVU454
@ src/mainproc.c:776:       symitem->cipher_algo = enc->cipher_algo;
	.loc 1 776 33 is_stmt 0 view .LVU455
	str	r3, [r0, #4]	@ enc_106->cipher_algo, symitem_246->cipher_algo
	.loc 1 777 7 is_stmt 1 view .LVU456
@ src/mainproc.c:777:       symitem->cfb_mode = !enc->aead_algo;
	.loc 1 777 27 is_stmt 0 view .LVU457
	ldrb	r3, [r10, #2]	@ zero_extendqisi2	@ enc_106->aead_algo, enc_106->aead_algo
	clz	r3, r3	@ tmp384, enc_106->aead_algo
	lsr	r3, r3, #5	@ tmp384, tmp384,
@ src/mainproc.c:777:       symitem->cfb_mode = !enc->aead_algo;
	.loc 1 777 25 view .LVU458
	str	r3, [r0, #8]	@ tmp384, symitem_246->cfb_mode
.L74:
	.loc 1 781 5 is_stmt 1 view .LVU459
.LBE114:
@ src/mainproc.c:784:   c->symkeys++;
	.loc 1 784 13 is_stmt 0 view .LVU460
	ldr	r3, [r4, #72]	@ c_43(D)->symkeys, c_43(D)->symkeys
.LBB115:
@ src/mainproc.c:781:     symitem->next = c->symenc_list;
	.loc 1 781 19 view .LVU461
	ldr	r2, [r4, #80]	@ c_43(D)->symenc_list, c_43(D)->symenc_list
.LBE115:
@ src/mainproc.c:784:   c->symkeys++;
	.loc 1 784 13 view .LVU462
	add	r3, r3, #1	@ tmp282, c_43(D)->symkeys,
.LBB116:
@ src/mainproc.c:781:     symitem->next = c->symenc_list;
	.loc 1 781 19 view .LVU463
	str	r2, [r0]	@ c_43(D)->symenc_list, symitem_264->next
	.loc 1 782 5 is_stmt 1 view .LVU464
@ src/mainproc.c:782:     c->symenc_list = symitem;
	.loc 1 782 20 is_stmt 0 view .LVU465
	str	r0, [r4, #80]	@ symitem, c_43(D)->symenc_list
.LBE116:
	.loc 1 784 3 is_stmt 1 view .LVU466
@ src/mainproc.c:784:   c->symkeys++;
	.loc 1 784 13 is_stmt 0 view .LVU467
	str	r3, [r4, #72]	@ tmp282, c_43(D)->symkeys
@ src/mainproc.c:786: }
	.loc 1 786 1 view .LVU468
	b	.L68		@
.LVL128:
.L126:
	.loc 1 786 1 view .LVU469
.LBE113:
.LBE112:
	.loc 1 1925 8 is_stmt 1 view .LVU470
	ldr	r0, .L137+40	@,
.LPIC20:
	add	r0, pc, r0	@,
	bl	tfp_printf(PLT)	@
.LVL129:
	b	.L61		@
.LVL130:
.L130:
.LBB121:
.LBB103:
	.loc 1 971 7 view .LVU471
	ldr	r0, .L137+44	@,
.LPIC36:
	add	r0, pc, r0	@,
	bl	tfp_printf(PLT)	@
.LVL131:
	b	.L81		@
.L129:
	.loc 1 963 5 view .LVU472
	ldr	r0, .L137+48	@,
.LPIC34:
	add	r0, pc, r0	@,
	bl	tfp_printf(PLT)	@
.LVL132:
	.loc 1 964 5 view .LVU473
	ldr	r0, .L137+52	@,
	mov	r1, #89	@,
.LPIC35:
	add	r0, pc, r0	@,
	bl	tfp_printf(PLT)	@
.LVL133:
	b	.L79		@
.LVL134:
.L133:
	.loc 1 964 5 is_stmt 0 view .LVU474
.LBE103:
.LBE121:
	.loc 1 2094 3 is_stmt 1 discriminator 1 view .LVU475
	mov	r1, r6	@, tmp385
	mov	r0, #0	@,
	bl	free_packet(PLT)	@
.LVL135:
	b	.L93		@
.LVL136:
.L132:
.LBB122:
.LBB104:
	.loc 1 1111 3 view .LVU476
@ src/mainproc.c:1111:   if (result == -1)
	.loc 1 1111 6 is_stmt 0 view .LVU477
	cmn	r10, #1	@ result,
	beq	.L83		@,
.LVL137:
	.loc 1 1144 8 is_stmt 1 view .LVU478
@ src/mainproc.c:1144:   else if (!result || (gpg_err_code(result) == GPG_ERR_BAD_SIGNATURE && !pkt->pkt.encrypted->aead_algo && 1)) // opt.ignore_mdc_error))
	.loc 1 1144 11 is_stmt 0 view .LVU479
	cmp	r10, #0	@ result,
	bne	.L136		@,
.L84:
	.loc 1 1149 5 is_stmt 1 view .LVU480
	mov	r0, #25	@,
	bl	tfp_printf(PLT)	@
.LVL138:
	.loc 1 1151 5 view .LVU481
	ldr	r0, .L137+56	@,
.LPIC40:
	add	r0, pc, r0	@,
	bl	tfp_printf(PLT)	@
.LVL139:
	.loc 1 1164 5 view .LVU482
	ldr	r0, .L137+60	@,
.LPIC41:
	add	r0, pc, r0	@,
	bl	tfp_printf(PLT)	@
.LVL140:
	b	.L83		@
.LVL141:
.L63:
	.loc 1 1164 5 is_stmt 0 view .LVU483
.LBE104:
.LBE122:
.LBB123:
.LBB93:
	.loc 1 1898 5 is_stmt 1 view .LVU484
	ldr	r0, .L137+64	@,
@ src/mainproc.c:1900:     return GPG_ERR_BAD_DATA;
	.loc 1 1900 12 is_stmt 0 view .LVU485
	mov	fp, #89	@ <retval>,
@ src/mainproc.c:1898:     printf("input data with too deeply nested packets\n");
	.loc 1 1898 5 view .LVU486
.LPIC21:
	add	r0, pc, r0	@,
	bl	tfp_printf(PLT)	@
.LVL142:
	.loc 1 1899 5 is_stmt 1 view .LVU487
	ldr	r1, .L137+68	@,
	mov	r0, #60	@,
.LPIC22:
	add	r1, pc, r1	@,
	bl	tfp_printf(PLT)	@
.LVL143:
	.loc 1 1900 5 view .LVU488
	.loc 1 1900 5 is_stmt 0 view .LVU489
.LBE93:
.LBE123:
	.loc 1 1936 3 is_stmt 1 view .LVU490
@ src/mainproc.c:2098: }
	.loc 1 2098 1 is_stmt 0 view .LVU491
	mov	r0, fp	@, <retval>
	add	sp, sp, #68	@,,
	.cfi_remember_state
	.cfi_def_cfa_offset 36
	@ sp needed	@
	pop	{r4, r5, r6, r7, r8, r9, r10, fp, pc}	@
.LVL144:
.L127:
	.cfi_restore_state
@ src/mainproc.c:2085:   if (any_data)
	.loc 1 2085 6 view .LVU492
	cmp	r10, #0	@ any_data,
	mov	fp, r0	@ <retval>, <retval>
	.loc 1 2082 3 is_stmt 1 view .LVU493
	.loc 1 2085 3 view .LVU494
@ src/mainproc.c:2086:     rc = 0;
	.loc 1 2086 8 is_stmt 0 view .LVU495
	movne	fp, #0	@ <retval>,
@ src/mainproc.c:2085:   if (any_data)
	.loc 1 2085 6 view .LVU496
	bne	.L67		@,
	.loc 1 2087 8 is_stmt 1 view .LVU497
	.loc 1 2088 5 view .LVU498
	ldr	r1, .L137+72	@,
	mov	r0, #17	@,
.LVL145:
	.loc 1 2088 5 is_stmt 0 view .LVU499
.LPIC48:
	add	r1, pc, r1	@,
	bl	tfp_printf(PLT)	@
.LVL146:
	b	.L67		@
.LVL147:
.L128:
@ src/mainproc.c:1948:       free_packet(pkt, &parsectx);
	.loc 1 1948 7 view .LVU500
	mov	fp, r0	@ <retval>, <retval>
	.loc 1 1948 7 is_stmt 1 view .LVU501
	mov	r1, r6	@, tmp385
	mov	r0, r5	@, pkt
.LVL148:
	.loc 1 1948 7 is_stmt 0 view .LVU502
	bl	free_packet(PLT)	@
.LVL149:
	.loc 1 1952 7 is_stmt 1 view .LVU503
	b	.L67		@
.LVL150:
.L134:
.LBB124:
.LBB119:
	.loc 1 658 5 view .LVU504
	ldr	r0, .L137+76	@,
.LPIC25:
	add	r0, pc, r0	@,
	bl	tfp_printf(PLT)	@
.LVL151:
.LBB117:
	.loc 1 772 5 view .LVU505
	.loc 1 773 5 view .LVU506
@ src/mainproc.c:773:     symitem = xcalloc(1, sizeof *symitem);
	.loc 1 773 15 is_stmt 0 view .LVU507
	mov	r1, #16	@,
	mov	r0, #1	@,
	bl	xcalloc(PLT)	@
.LVL152:
	.loc 1 774 5 is_stmt 1 view .LVU508
	.loc 1 780 7 view .LVU509
@ src/mainproc.c:780:       symitem->other_error = 1;
	.loc 1 780 28 is_stmt 0 view .LVU510
	mov	r3, #1	@ tmp242,
	str	r3, [r0, #12]	@ tmp242, symitem_250->other_error
	b	.L74		@
.LVL153:
.L136:
	.loc 1 780 28 view .LVU511
.LBE117:
.LBE119:
.LBE124:
.LBB125:
.LBB105:
.LBB98:
.LBI98:
	.file 3 "src/common/../gpg-error.h"
	.loc 3 972 1 is_stmt 1 view .LVU512
.LBB99:
	.loc 3 974 3 view .LVU513
@ src/common/../gpg-error.h:974:   return (gpg_err_code_t) (err & GPG_ERR_CODE_MASK);
	.loc 3 974 10 is_stmt 0 view .LVU514
	uxth	r10, r10	@ _141, result
.LVL154:
	.loc 3 974 10 view .LVU515
.LBE99:
.LBE98:
@ src/mainproc.c:1144:   else if (!result || (gpg_err_code(result) == GPG_ERR_BAD_SIGNATURE && !pkt->pkt.encrypted->aead_algo && 1)) // opt.ignore_mdc_error))
	.loc 1 1144 20 view .LVU516
	cmp	r10, #8	@ _141,
	bne	.L85		@,
@ src/mainproc.c:1144:   else if (!result || (gpg_err_code(result) == GPG_ERR_BAD_SIGNATURE && !pkt->pkt.encrypted->aead_algo && 1)) // opt.ignore_mdc_error))
	.loc 1 1144 92 view .LVU517
	ldr	r3, [r5, #4]	@ pkt_55->pkt.encrypted, pkt_55->pkt.encrypted
@ src/mainproc.c:1144:   else if (!result || (gpg_err_code(result) == GPG_ERR_BAD_SIGNATURE && !pkt->pkt.encrypted->aead_algo && 1)) // opt.ignore_mdc_error))
	.loc 1 1144 70 view .LVU518
	ldrb	r3, [r3, #11]	@ zero_extendqisi2	@ _142->aead_algo, _142->aead_algo
	cmp	r3, #0	@ _142->aead_algo,
	beq	.L84		@,
.L86:
	.loc 1 1169 5 is_stmt 1 view .LVU519
	ldr	r0, .L137+80	@,
.LPIC42:
	add	r0, pc, r0	@,
	bl	tfp_printf(PLT)	@
.LVL155:
	.loc 1 1170 5 view .LVU520
	mov	r0, #29	@,
	bl	tfp_printf(PLT)	@
.LVL156:
	.loc 1 1171 5 view .LVU521
	mov	r0, #24	@,
	bl	tfp_printf(PLT)	@
.LVL157:
	b	.L83		@
.LVL158:
.L135:
	.loc 1 1171 5 is_stmt 0 view .LVU522
.LBE105:
.LBE125:
.LBB126:
.LBB120:
.LBB118:
	.loc 1 661 5 is_stmt 1 view .LVU523
	ldr	r0, .L137+84	@,
.LPIC26:
	add	r0, pc, r0	@,
	bl	tfp_printf(PLT)	@
.LVL159:
	.loc 1 662 5 view .LVU524
@ src/mainproc.c:677:         printf(("%s %s encrypted data\n"), s, a);
	.loc 1 677 9 is_stmt 0 view .LVU525
	ldr	r2, .L137+88	@,
	ldr	r1, .L137+92	@,
	ldr	r0, .L137+96	@,
@ src/mainproc.c:662:     int algo = enc->cipher_algo;
	.loc 1 662 9 view .LVU526
	ldrb	r3, [r10, #1]	@ zero_extendqisi2	@ algo, enc_106->cipher_algo
@ src/mainproc.c:677:         printf(("%s %s encrypted data\n"), s, a);
	.loc 1 677 9 view .LVU527
.LPIC27:
	add	r2, pc, r2	@,
.LPIC28:
	add	r1, pc, r1	@,
.LPIC29:
	add	r0, pc, r0	@,
@ src/mainproc.c:662:     int algo = enc->cipher_algo;
	.loc 1 662 9 view .LVU528
	str	r3, [sp, #28]	@ algo, %sfp
.LVL160:
	.loc 1 663 5 is_stmt 1 view .LVU529
	.loc 1 664 5 view .LVU530
	.loc 1 668 5 view .LVU531
	.loc 1 670 7 view .LVU532
	.loc 1 677 9 view .LVU533
	bl	tfp_printf(PLT)	@
.LVL161:
	.loc 1 694 5 view .LVU534
@ src/mainproc.c:710:       printf("DOING DEK HERE passphrase:%s\n", c->passphrase);
	.loc 1 710 7 is_stmt 0 view .LVU535
	ldr	r0, .L137+100	@,
@ src/mainproc.c:694:     c->last_was_session_key = 2;
	.loc 1 694 29 view .LVU536
	mov	r2, #2	@ tmp252,
	str	r2, [r4, #56]	@ tmp252, c_43(D)->last_was_session_key
	.loc 1 695 5 is_stmt 1 view .LVU537
	.loc 1 710 7 view .LVU538
	ldr	r1, [r4, #48]	@, c_43(D)->passphrase
.LPIC30:
	add	r0, pc, r0	@,
	bl	tfp_printf(PLT)	@
.LVL162:
	.loc 1 712 7 view .LVU539
	ldr	r0, .L137+104	@,
	ldr	r1, [r4, #52]	@, c_43(D)->session_key
.LPIC31:
	add	r0, pc, r0	@,
	bl	tfp_printf(PLT)	@
.LVL163:
	.loc 1 717 7 view .LVU540
@ src/mainproc.c:717:       c->dek = passphrase_to_dek(algo,
	.loc 1 717 16 is_stmt 0 view .LVU541
	ldr	r3, [sp, #28]	@ algo, %sfp
	mov	r2, fp	@, c_43(D)->dek
	str	fp, [sp, #8]	@ c_43(D)->dek,
	add	r1, r10, #4	@, enc,
	str	fp, [sp, #4]	@ c_43(D)->dek,
	mov	r0, r3	@, algo
	str	fp, [sp]	@ c_43(D)->dek,
	ldr	r3, [r4, #52]	@ c_43(D)->session_key, c_43(D)->session_key
	str	r3, [sp, #16]	@ c_43(D)->session_key,
	ldr	r3, [r4, #48]	@ c_43(D)->passphrase, c_43(D)->passphrase
	str	r3, [sp, #12]	@ c_43(D)->passphrase,
	mov	r3, #1	@,
	bl	passphrase_to_dek(PLT)	@
.LVL164:
@ src/mainproc.c:717:       c->dek = passphrase_to_dek(algo,
	.loc 1 717 14 view .LVU542
	str	r0, [r4, #44]	@ _115, c_43(D)->dek
	.loc 1 723 7 is_stmt 1 view .LVU543
@ src/mainproc.c:723:       if (c->dek)
	.loc 1 723 10 is_stmt 0 view .LVU544
	cmp	r0, #0	@ _115,
	beq	.L76		@,
	.loc 1 725 9 is_stmt 1 view .LVU545
	.loc 1 726 9 view .LVU546
	.loc 1 764 9 view .LVU547
@ src/mainproc.c:764:         c->dek->algo_info_printed = 1;
	.loc 1 764 35 is_stmt 0 view .LVU548
	ldrb	r3, [r10, #2]	@ zero_extendqisi2	@ enc_106->aead_algo, enc_106->aead_algo
	ldrb	r2, [r0, #8]	@ zero_extendqisi2	@ MEM <unsigned char> [(struct DEK *)_115 + 8B], MEM <unsigned char> [(struct DEK *)_115 + 8B]
	lsl	r3, r3, #1	@ tmp267, enc_106->aead_algo,
	bic	r2, r2, #95	@ tmp276, MEM <unsigned char> [(struct DEK *)_115 + 8B],
	and	r3, r3, #30	@ tmp269, tmp267,
	orr	r3, r3, #65	@ tmp273, tmp269,
	orr	r3, r3, r2	@ tmp279, tmp273, tmp276
	strb	r3, [r0, #8]	@ tmp279, MEM <unsigned char> [(struct DEK *)_115 + 8B]
	b	.L76		@
.LVL165:
.L85:
	.loc 1 764 35 view .LVU549
.LBE118:
.LBE120:
.LBE126:
.LBB127:
.LBB106:
	.loc 1 1166 8 is_stmt 1 view .LVU550
.LBE106:
.LBE127:
	.loc 3 974 3 view .LVU551
	.loc 3 974 3 view .LVU552
.LBB128:
.LBB107:
@ src/mainproc.c:1166:   else if (gpg_err_code(result) == GPG_ERR_BAD_SIGNATURE || gpg_err_code(result) == GPG_ERR_TRUNCATED)
	.loc 1 1166 58 is_stmt 0 view .LVU553
	cmp	r10, #74	@ _141,
	beq	.L86		@,
	.loc 1 1175 5 is_stmt 1 view .LVU554
.LBE107:
.LBE128:
	.loc 3 974 3 view .LVU555
	.loc 3 974 3 view .LVU556
	.loc 3 974 3 view .LVU557
.LBB129:
.LBB108:
@ src/mainproc.c:1175:     if (gpg_err_code(result) == GPG_ERR_BAD_KEY || gpg_err_code(result) == GPG_ERR_CHECKSUM || gpg_err_code(result) == GPG_ERR_CIPHER_ALGO)
	.loc 1 1175 49 is_stmt 0 view .LVU558
	sub	r3, r10, #10	@ tmp321, _141,
	bic	r3, r3, #2	@ tmp324, tmp321,
@ src/mainproc.c:1175:     if (gpg_err_code(result) == GPG_ERR_BAD_KEY || gpg_err_code(result) == GPG_ERR_CHECKSUM || gpg_err_code(result) == GPG_ERR_CIPHER_ALGO)
	.loc 1 1175 93 view .LVU559
	cmp	r3, #0	@ tmp324,
	cmpne	r10, #19	@, _141,
	bne	.L82		@,
	.loc 1 1177 7 is_stmt 1 view .LVU560
@ src/mainproc.c:1177:       if (c->symkeys)
	.loc 1 1177 10 is_stmt 0 view .LVU561
	ldr	r3, [r4, #72]	@ c_43(D)->symkeys, c_43(D)->symkeys
	cmp	r3, #0	@ c_43(D)->symkeys,
	beq	.L82		@,
	.loc 1 1178 9 is_stmt 1 view .LVU562
	ldr	r1, .L137+108	@,
	mov	r0, #97	@,
.LPIC43:
	add	r1, pc, r1	@,
	bl	tfp_printf(PLT)	@
.LVL166:
	b	.L82		@
.LVL167:
.L131:
	.loc 1 973 7 view .LVU563
	ldr	r0, .L137+112	@,
.LPIC37:
	add	r0, pc, r0	@,
	bl	tfp_printf(PLT)	@
.LVL168:
	b	.L81		@
.L138:
	.align	2
.L137:
	.word	.LC14-(.LPIC19+8)
	.word	.LC39-(.LPIC47+8)
	.word	.LC18-(.LPIC23+8)
	.word	.LANCHOR0-(.LPIC33+8)
	.word	.LC27-(.LPIC32+8)
	.word	.LC32-(.LPIC38+8)
	.word	.LC33-(.LPIC39+8)
	.word	.LC38-(.LPIC44+8)
	.word	.LANCHOR0-(.LPIC45+8)
	.word	.LC19-(.LPIC24+8)
	.word	.LC15-(.LPIC20+8)
	.word	.LC30-(.LPIC36+8)
	.word	.LC28-(.LPIC34+8)
	.word	.LC29-(.LPIC35+8)
	.word	.LC34-(.LPIC40+8)
	.word	.LC35-(.LPIC41+8)
	.word	.LC16-(.LPIC21+8)
	.word	.LC17-(.LPIC22+8)
	.word	.LC40-(.LPIC48+8)
	.word	.LC20-(.LPIC25+8)
	.word	.LC36-(.LPIC42+8)
	.word	.LC21-(.LPIC26+8)
	.word	.LC22-(.LPIC27+8)
	.word	.LC23-(.LPIC28+8)
	.word	.LC24-(.LPIC29+8)
	.word	.LC25-(.LPIC30+8)
	.word	.LC26-(.LPIC31+8)
	.word	.LC37-(.LPIC43+8)
	.word	.LC31-(.LPIC37+8)
.LBE108:
.LBE129:
	.cfi_endproc
.LFE31:
	.size	do_proc_packets, .-do_proc_packets
	.section	.rodata.proc_packets.str1.4,"aMS",%progbits,1
	.align	2
.LC41:
	.ascii	"proc_packets\012\000"
	.section	.text.proc_packets,"ax",%progbits
	.align	2
	.global	proc_packets
	.syntax unified
	.arm
	.fpu softvfp
	.type	proc_packets, %function
proc_packets:
.LVL169:
.LFB28:
	.loc 1 1775 1 view -0
	.cfi_startproc
	@ args = 0, pretend = 0, frame = 0
	@ frame_needed = 0, uses_anonymous_args = 0
	.loc 1 1776 3 view .LVU565
@ src/mainproc.c:1775: {
	.loc 1 1775 1 is_stmt 0 view .LVU566
	push	{r4, r5, r6, r7, r8, lr}	@
	.cfi_def_cfa_offset 24
	.cfi_offset 4, -24
	.cfi_offset 5, -20
	.cfi_offset 6, -16
	.cfi_offset 7, -12
	.cfi_offset 8, -8
	.cfi_offset 14, -4
@ src/mainproc.c:1775: {
	.loc 1 1775 1 view .LVU567
	mov	r5, r0	@ tmp122, ctrl
@ src/mainproc.c:1776:   printf("proc_packets\n");
	.loc 1 1776 3 view .LVU568
	ldr	r0, .L141	@,
.LVL170:
@ src/mainproc.c:1775: {
	.loc 1 1775 1 view .LVU569
	mov	r6, r1	@ anchor, tmp123
	mov	r7, r2	@ a, tmp124
@ src/mainproc.c:1776:   printf("proc_packets\n");
	.loc 1 1776 3 view .LVU570
.LPIC49:
	add	r0, pc, r0	@,
	bl	tfp_printf(PLT)	@
.LVL171:
	.loc 1 1777 3 is_stmt 1 view .LVU571
	.loc 1 1778 3 view .LVU572
@ src/mainproc.c:1778:   CTX c = xmalloc_clear(sizeof *c);
	.loc 1 1778 11 is_stmt 0 view .LVU573
	mov	r0, #96	@,
	bl	xmalloc_clear(PLT)	@
.LVL172:
@ src/mainproc.c:1780:   c->ctrl = ctrl;
	.loc 1 1780 11 view .LVU574
	str	r5, [r0]	@ ctrl, c_5->ctrl
@ src/mainproc.c:1782:   rc = do_proc_packets(ctrl, c, a);
	.loc 1 1782 8 view .LVU575
	mov	r1, r0	@, _1
@ src/mainproc.c:1781:   c->anchor = anchor;
	.loc 1 1781 13 view .LVU576
	str	r6, [r0, #4]	@ anchor, c_5->anchor
@ src/mainproc.c:1778:   CTX c = xmalloc_clear(sizeof *c);
	.loc 1 1778 11 view .LVU577
	mov	r4, r0	@ _1, tmp125
.LVL173:
	.loc 1 1780 3 is_stmt 1 view .LVU578
	.loc 1 1781 3 view .LVU579
	.loc 1 1782 3 view .LVU580
@ src/mainproc.c:1782:   rc = do_proc_packets(ctrl, c, a);
	.loc 1 1782 8 is_stmt 0 view .LVU581
	mov	r2, r7	@, a
	mov	r0, r5	@, ctrl
.LVL174:
	.loc 1 1782 8 view .LVU582
	bl	do_proc_packets(PLT)	@
.LVL175:
	.loc 1 1782 8 view .LVU583
	mov	r5, r0	@ <retval>, tmp126
.LVL176:
	.loc 1 1783 3 is_stmt 1 view .LVU584
	mov	r0, r4	@, _1
.LVL177:
	.loc 1 1783 3 is_stmt 0 view .LVU585
	bl	xfree(PLT)	@
.LVL178:
	.loc 1 1785 3 is_stmt 1 view .LVU586
@ src/mainproc.c:1786: }
	.loc 1 1786 1 is_stmt 0 view .LVU587
	mov	r0, r5	@, <retval>
	pop	{r4, r5, r6, r7, r8, pc}	@
.L142:
	.align	2
.L141:
	.word	.LC41-(.LPIC49+8)
	.cfi_endproc
.LFE28:
	.size	proc_packets, .-proc_packets
	.section	.rodata.proc_encryption_packets.str1.4,"aMS",%progbits,1
	.align	2
.LC42:
	.ascii	"proc_encryption_packets a->use: %d, a->filter: %d\012"
	.ascii	"\000"
	.section	.text.proc_encryption_packets,"ax",%progbits
	.align	2
	.global	proc_encryption_packets
	.syntax unified
	.arm
	.fpu softvfp
	.type	proc_encryption_packets, %function
proc_encryption_packets:
.LVL179:
.LFB29:
	.loc 1 1870 1 is_stmt 1 view -0
	.cfi_startproc
	@ args = 0, pretend = 0, frame = 0
	@ frame_needed = 0, uses_anonymous_args = 0
	.loc 1 1871 3 view .LVU589
@ src/mainproc.c:1870: {
	.loc 1 1870 1 is_stmt 0 view .LVU590
	push	{r4, r5, r6, r7, r8, lr}	@
	.cfi_def_cfa_offset 24
	.cfi_offset 4, -24
	.cfi_offset 5, -20
	.cfi_offset 6, -16
	.cfi_offset 7, -12
	.cfi_offset 8, -8
	.cfi_offset 14, -4
@ src/mainproc.c:1870: {
	.loc 1 1870 1 view .LVU591
	mov	r6, r0	@ tmp128, ctrl
@ src/mainproc.c:1871:   printf("proc_encryption_packets a->use: %d, a->filter: %d\n", a->use, a->filter);
	.loc 1 1871 3 view .LVU592
	ldr	r0, .L145	@,
.LVL180:
@ src/mainproc.c:1870: {
	.loc 1 1870 1 view .LVU593
	mov	r5, r2	@ a, tmp130
@ src/mainproc.c:1871:   printf("proc_encryption_packets a->use: %d, a->filter: %d\n", a->use, a->filter);
	.loc 1 1871 3 view .LVU594
	ldr	r2, [r2, #44]	@, a_6(D)->filter
.LVL181:
@ src/mainproc.c:1870: {
	.loc 1 1870 1 view .LVU595
	mov	r7, r1	@ tmp129, anchor
@ src/mainproc.c:1871:   printf("proc_encryption_packets a->use: %d, a->filter: %d\n", a->use, a->filter);
	.loc 1 1871 3 view .LVU596
.LPIC50:
	add	r0, pc, r0	@,
	ldrb	r1, [r5]	@ zero_extendqisi2	@, a_6(D)->use
.LVL182:
	.loc 1 1871 3 view .LVU597
	bl	tfp_printf(PLT)	@
.LVL183:
	.loc 1 1873 3 is_stmt 1 view .LVU598
@ src/mainproc.c:1873:   CTX c = xmalloc_clear(sizeof *c);
	.loc 1 1873 11 is_stmt 0 view .LVU599
	mov	r0, #96	@,
	bl	xmalloc_clear(PLT)	@
.LVL184:
@ src/mainproc.c:1876:   c->ctrl = ctrl;
	.loc 1 1876 11 view .LVU600
	str	r6, [r0]	@ ctrl, c_9->ctrl
@ src/mainproc.c:1873:   CTX c = xmalloc_clear(sizeof *c);
	.loc 1 1873 11 view .LVU601
	mov	r4, r0	@ _4, tmp131
.LVL185:
	.loc 1 1874 3 is_stmt 1 view .LVU602
	.loc 1 1876 3 view .LVU603
	.loc 1 1877 3 view .LVU604
@ src/mainproc.c:1877:   c->anchor = anchor;
	.loc 1 1877 13 is_stmt 0 view .LVU605
	str	r7, [r0, #4]	@ anchor, c_9->anchor
	.loc 1 1878 3 is_stmt 1 view .LVU606
@ src/mainproc.c:1878:   c->encrypt_only = 1;
	.loc 1 1878 19 is_stmt 0 view .LVU607
	mov	r3, #1	@ tmp126,
	str	r3, [r4, #20]	@ tmp126, c_9->encrypt_only
	.loc 1 1879 3 is_stmt 1 view .LVU608
@ src/mainproc.c:1879:   rc = do_proc_packets(ctrl, c, a);
	.loc 1 1879 8 is_stmt 0 view .LVU609
	mov	r2, r5	@, a
	mov	r1, r4	@, _4
	mov	r0, r6	@, ctrl
.LVL186:
	.loc 1 1879 8 view .LVU610
	bl	do_proc_packets(PLT)	@
.LVL187:
	.loc 1 1879 8 view .LVU611
	mov	r5, r0	@ <retval>, tmp132
.LVL188:
	.loc 1 1880 3 is_stmt 1 view .LVU612
	mov	r0, r4	@, _4
.LVL189:
	.loc 1 1880 3 is_stmt 0 view .LVU613
	bl	xfree(PLT)	@
.LVL190:
	.loc 1 1881 3 is_stmt 1 view .LVU614
@ src/mainproc.c:1882: }
	.loc 1 1882 1 is_stmt 0 view .LVU615
	mov	r0, r5	@, <retval>
	pop	{r4, r5, r6, r7, r8, pc}	@
.L146:
	.align	2
.L145:
	.word	.LC42-(.LPIC50+8)
	.cfi_endproc
.LFE29:
	.size	proc_encryption_packets, .-proc_encryption_packets
	.section	.bss.literals_seen,"aw",%nobits
	.align	2
	.set	.LANCHOR0,. + 0
	.type	literals_seen, %object
	.size	literals_seen, 4
literals_seen:
	.space	4
	.text
.Letext0:
	.file 4 "/usr/include/newlib/machine/_default_types.h"
	.file 5 "/usr/lib/gcc/arm-none-eabi/10.3.1/include/stddef.h"
	.file 6 "/usr/include/newlib/sys/_types.h"
	.file 7 "/usr/include/newlib/sys/_stdint.h"
	.file 8 "/usr/include/newlib/sys/types.h"
	.file 9 "src/libgcrypt.h"
	.file 10 "src/gpg.h"
	.file 11 "src/common/../common/strlist.h"
	.file 12 "src/common/../common/fwddecl.h"
	.file 13 "src/common/iobuf.h"
	.file 14 "src/dek.h"
	.file 15 "src/common/openpgpdefs.h"
	.file 16 "src/gcrypt.h"
	.file 17 "src/packet.h"
	.file 18 "src/common/status.h"
	.file 19 "src/common/compliance.h"
	.file 20 "src/sha1.h"
	.file 21 "/usr/include/newlib/string.h"
	.file 22 "/usr/include/newlib/stdlib.h"
	.section	.debug_info,"",%progbits
.Ldebug_info0:
	.4byte	0x3888
	.2byte	0x4
	.4byte	.Ldebug_abbrev0
	.byte	0x4
	.uleb128 0x1
	.4byte	.LASF1052
	.byte	0xc
	.4byte	.LASF1053
	.4byte	.LASF1054
	.4byte	.Ldebug_ranges0+0x1b0
	.4byte	0
	.4byte	.Ldebug_line0
	.uleb128 0x2
	.byte	0x4
	.byte	0x7
	.4byte	.LASF0
	.uleb128 0x2
	.byte	0x1
	.byte	0x6
	.4byte	.LASF1
	.uleb128 0x3
	.4byte	.LASF6
	.byte	0x4
	.byte	0x2b
	.byte	0x18
	.4byte	0x3f
	.uleb128 0x2
	.byte	0x1
	.byte	0x8
	.4byte	.LASF2
	.uleb128 0x2
	.byte	0x2
	.byte	0x5
	.4byte	.LASF3
	.uleb128 0x2
	.byte	0x2
	.byte	0x7
	.4byte	.LASF4
	.uleb128 0x2
	.byte	0x4
	.byte	0x5
	.4byte	.LASF5
	.uleb128 0x3
	.4byte	.LASF7
	.byte	0x4
	.byte	0x4f
	.byte	0x19
	.4byte	0x67
	.uleb128 0x2
	.byte	0x4
	.byte	0x7
	.4byte	.LASF8
	.uleb128 0x2
	.byte	0x8
	.byte	0x5
	.4byte	.LASF9
	.uleb128 0x2
	.byte	0x8
	.byte	0x7
	.4byte	.LASF10
	.uleb128 0x4
	.byte	0x4
	.byte	0x5
	.ascii	"int\000"
	.uleb128 0x3
	.4byte	.LASF11
	.byte	0x5
	.byte	0xd1
	.byte	0x17
	.4byte	0x25
	.uleb128 0x2
	.byte	0x8
	.byte	0x4
	.4byte	.LASF12
	.uleb128 0x5
	.byte	0x4
	.uleb128 0x3
	.4byte	.LASF13
	.byte	0x6
	.byte	0x2e
	.byte	0xe
	.4byte	0x54
	.uleb128 0x3
	.4byte	.LASF14
	.byte	0x6
	.byte	0x66
	.byte	0x10
	.4byte	0x98
	.uleb128 0x6
	.byte	0x4
	.4byte	0xb6
	.uleb128 0x2
	.byte	0x1
	.byte	0x8
	.4byte	.LASF15
	.uleb128 0x7
	.4byte	0xb6
	.uleb128 0x6
	.byte	0x4
	.4byte	0xbd
	.uleb128 0x3
	.4byte	.LASF16
	.byte	0x7
	.byte	0x18
	.byte	0x13
	.4byte	0x33
	.uleb128 0x7
	.4byte	0xc8
	.uleb128 0x3
	.4byte	.LASF17
	.byte	0x7
	.byte	0x30
	.byte	0x14
	.4byte	0x5b
	.uleb128 0x3
	.4byte	.LASF18
	.byte	0x8
	.byte	0x5d
	.byte	0x17
	.4byte	0x67
	.uleb128 0x3
	.4byte	.LASF19
	.byte	0x8
	.byte	0x9d
	.byte	0x12
	.4byte	0xa4
	.uleb128 0x8
	.ascii	"u16\000"
	.byte	0x9
	.byte	0xb
	.byte	0x1c
	.4byte	0x4d
	.uleb128 0x8
	.ascii	"u32\000"
	.byte	0x9
	.byte	0xc
	.byte	0x16
	.4byte	0x25
	.uleb128 0x3
	.4byte	.LASF20
	.byte	0x9
	.byte	0xd
	.byte	0x17
	.4byte	0x3f
	.uleb128 0x7
	.4byte	0x115
	.uleb128 0x9
	.4byte	0xb6
	.4byte	0x136
	.uleb128 0xa
	.4byte	0x25
	.byte	0
	.byte	0
	.uleb128 0x2
	.byte	0x4
	.byte	0x4
	.4byte	.LASF21
	.uleb128 0x2
	.byte	0x8
	.byte	0x4
	.4byte	.LASF22
	.uleb128 0xb
	.byte	0x7
	.byte	0x1
	.4byte	0x3f
	.byte	0x9
	.byte	0x5e
	.byte	0x1
	.4byte	0x15f
	.uleb128 0xc
	.4byte	.LASF23
	.byte	0x4
	.uleb128 0xc
	.4byte	.LASF24
	.byte	0x2
	.byte	0
	.uleb128 0x3
	.4byte	.LASF25
	.byte	0xa
	.byte	0x42
	.byte	0x21
	.4byte	0x16b
	.uleb128 0x6
	.byte	0x4
	.4byte	0x171
	.uleb128 0xd
	.4byte	.LASF26
	.uleb128 0x6
	.byte	0x4
	.4byte	0x17c
	.uleb128 0xd
	.4byte	.LASF27
	.uleb128 0x3
	.4byte	.LASF28
	.byte	0xa
	.byte	0x46
	.byte	0x1f
	.4byte	0x176
	.uleb128 0x3
	.4byte	.LASF29
	.byte	0xa
	.byte	0x49
	.byte	0x1e
	.4byte	0x199
	.uleb128 0x6
	.byte	0x4
	.4byte	0x19f
	.uleb128 0xd
	.4byte	.LASF30
	.uleb128 0x3
	.4byte	.LASF31
	.byte	0xa
	.byte	0x4d
	.byte	0x1c
	.4byte	0x1b0
	.uleb128 0x6
	.byte	0x4
	.4byte	0x1b6
	.uleb128 0xd
	.4byte	.LASF32
	.uleb128 0xe
	.byte	0x8
	.byte	0xa
	.byte	0x65
	.byte	0x3
	.4byte	0x1df
	.uleb128 0xf
	.ascii	"dbs\000"
	.byte	0xa
	.byte	0x66
	.byte	0x10
	.4byte	0x1a4
	.byte	0
	.uleb128 0x10
	.4byte	.LASF33
	.byte	0xa
	.byte	0x67
	.byte	0x9
	.4byte	0x7c
	.byte	0x4
	.byte	0
	.uleb128 0x11
	.4byte	.LASF43
	.byte	0x24
	.byte	0xa
	.byte	0x59
	.byte	0x8
	.4byte	0x255
	.uleb128 0x10
	.4byte	.LASF34
	.byte	0xa
	.byte	0x5c
	.byte	0x11
	.4byte	0x67
	.byte	0
	.uleb128 0x10
	.4byte	.LASF35
	.byte	0xa
	.byte	0x5f
	.byte	0x1a
	.4byte	0x25a
	.byte	0x4
	.uleb128 0x10
	.4byte	.LASF36
	.byte	0xa
	.byte	0x62
	.byte	0x13
	.4byte	0x15f
	.byte	0x8
	.uleb128 0x10
	.4byte	.LASF37
	.byte	0xa
	.byte	0x68
	.byte	0x5
	.4byte	0x1bb
	.byte	0xc
	.uleb128 0x10
	.4byte	.LASF38
	.byte	0xa
	.byte	0x6b
	.byte	0x10
	.4byte	0x18d
	.byte	0x14
	.uleb128 0x10
	.4byte	.LASF39
	.byte	0xa
	.byte	0x6d
	.byte	0x9
	.4byte	0xb0
	.byte	0x18
	.uleb128 0x10
	.4byte	.LASF40
	.byte	0xa
	.byte	0x6e
	.byte	0x9
	.4byte	0xb0
	.byte	0x1c
	.uleb128 0x10
	.4byte	.LASF41
	.byte	0xa
	.byte	0x6f
	.byte	0xa
	.4byte	0x83
	.byte	0x20
	.byte	0
	.uleb128 0xd
	.4byte	.LASF42
	.uleb128 0x6
	.byte	0x4
	.4byte	0x255
	.uleb128 0x11
	.4byte	.LASF44
	.byte	0xc
	.byte	0xb
	.byte	0x22
	.byte	0x8
	.4byte	0x293
	.uleb128 0x10
	.4byte	.LASF45
	.byte	0xb
	.byte	0x24
	.byte	0x17
	.4byte	0x293
	.byte	0
	.uleb128 0x10
	.4byte	.LASF46
	.byte	0xb
	.byte	0x25
	.byte	0x10
	.4byte	0x25
	.byte	0x4
	.uleb128 0xf
	.ascii	"d\000"
	.byte	0xb
	.byte	0x26
	.byte	0x8
	.4byte	0x126
	.byte	0x8
	.byte	0
	.uleb128 0x6
	.byte	0x4
	.4byte	0x260
	.uleb128 0x3
	.4byte	.LASF47
	.byte	0xb
	.byte	0x28
	.byte	0x1d
	.4byte	0x293
	.uleb128 0x3
	.4byte	.LASF48
	.byte	0xc
	.byte	0x24
	.byte	0x22
	.4byte	0x2b1
	.uleb128 0x6
	.byte	0x4
	.4byte	0x1df
	.uleb128 0xb
	.byte	0x7
	.byte	0x1
	.4byte	0x3f
	.byte	0x3
	.byte	0x6c
	.byte	0x3
	.4byte	0x35c
	.uleb128 0xc
	.4byte	.LASF49
	.byte	0
	.uleb128 0xc
	.4byte	.LASF50
	.byte	0x1
	.uleb128 0xc
	.4byte	.LASF51
	.byte	0x2
	.uleb128 0xc
	.4byte	.LASF52
	.byte	0x3
	.uleb128 0xc
	.4byte	.LASF53
	.byte	0x4
	.uleb128 0xc
	.4byte	.LASF54
	.byte	0x5
	.uleb128 0xc
	.4byte	.LASF55
	.byte	0x6
	.uleb128 0xc
	.4byte	.LASF56
	.byte	0x7
	.uleb128 0xc
	.4byte	.LASF57
	.byte	0x8
	.uleb128 0xc
	.4byte	.LASF58
	.byte	0x9
	.uleb128 0xc
	.4byte	.LASF59
	.byte	0xa
	.uleb128 0xc
	.4byte	.LASF60
	.byte	0xb
	.uleb128 0xc
	.4byte	.LASF61
	.byte	0xc
	.uleb128 0xc
	.4byte	.LASF62
	.byte	0xd
	.uleb128 0xc
	.4byte	.LASF63
	.byte	0xe
	.uleb128 0xc
	.4byte	.LASF64
	.byte	0xf
	.uleb128 0xc
	.4byte	.LASF65
	.byte	0x10
	.uleb128 0xc
	.4byte	.LASF66
	.byte	0x11
	.uleb128 0xc
	.4byte	.LASF67
	.byte	0x12
	.uleb128 0xc
	.4byte	.LASF68
	.byte	0x1f
	.uleb128 0xc
	.4byte	.LASF69
	.byte	0x20
	.uleb128 0xc
	.4byte	.LASF70
	.byte	0x21
	.uleb128 0xc
	.4byte	.LASF71
	.byte	0x22
	.uleb128 0xc
	.4byte	.LASF72
	.byte	0x23
	.uleb128 0xc
	.4byte	.LASF73
	.byte	0x80
	.byte	0
	.uleb128 0x3
	.4byte	.LASF74
	.byte	0x3
	.byte	0x88
	.byte	0x5
	.4byte	0x2b7
	.uleb128 0xb
	.byte	0x7
	.byte	0x4
	.4byte	0x25
	.byte	0x3
	.byte	0x90
	.byte	0x3
	.4byte	0x126d
	.uleb128 0xc
	.4byte	.LASF75
	.byte	0
	.uleb128 0xc
	.4byte	.LASF76
	.byte	0x1
	.uleb128 0xc
	.4byte	.LASF77
	.byte	0x2
	.uleb128 0xc
	.4byte	.LASF78
	.byte	0x3
	.uleb128 0xc
	.4byte	.LASF79
	.byte	0x4
	.uleb128 0xc
	.4byte	.LASF80
	.byte	0x5
	.uleb128 0xc
	.4byte	.LASF81
	.byte	0x6
	.uleb128 0xc
	.4byte	.LASF82
	.byte	0x7
	.uleb128 0xc
	.4byte	.LASF83
	.byte	0x8
	.uleb128 0xc
	.4byte	.LASF84
	.byte	0x9
	.uleb128 0xc
	.4byte	.LASF85
	.byte	0xa
	.uleb128 0xc
	.4byte	.LASF86
	.byte	0xb
	.uleb128 0xc
	.4byte	.LASF87
	.byte	0xc
	.uleb128 0xc
	.4byte	.LASF88
	.byte	0xd
	.uleb128 0xc
	.4byte	.LASF89
	.byte	0xe
	.uleb128 0xc
	.4byte	.LASF90
	.byte	0xf
	.uleb128 0xc
	.4byte	.LASF91
	.byte	0x10
	.uleb128 0xc
	.4byte	.LASF92
	.byte	0x11
	.uleb128 0xc
	.4byte	.LASF93
	.byte	0x12
	.uleb128 0xc
	.4byte	.LASF94
	.byte	0x13
	.uleb128 0xc
	.4byte	.LASF95
	.byte	0x14
	.uleb128 0xc
	.4byte	.LASF96
	.byte	0x15
	.uleb128 0xc
	.4byte	.LASF97
	.byte	0x16
	.uleb128 0xc
	.4byte	.LASF98
	.byte	0x17
	.uleb128 0xc
	.4byte	.LASF99
	.byte	0x18
	.uleb128 0xc
	.4byte	.LASF100
	.byte	0x19
	.uleb128 0xc
	.4byte	.LASF101
	.byte	0x1a
	.uleb128 0xc
	.4byte	.LASF102
	.byte	0x1b
	.uleb128 0xc
	.4byte	.LASF103
	.byte	0x1c
	.uleb128 0xc
	.4byte	.LASF104
	.byte	0x1d
	.uleb128 0xc
	.4byte	.LASF105
	.byte	0x1e
	.uleb128 0xc
	.4byte	.LASF106
	.byte	0x1f
	.uleb128 0xc
	.4byte	.LASF107
	.byte	0x20
	.uleb128 0xc
	.4byte	.LASF108
	.byte	0x21
	.uleb128 0xc
	.4byte	.LASF109
	.byte	0x22
	.uleb128 0xc
	.4byte	.LASF110
	.byte	0x23
	.uleb128 0xc
	.4byte	.LASF111
	.byte	0x24
	.uleb128 0xc
	.4byte	.LASF112
	.byte	0x25
	.uleb128 0xc
	.4byte	.LASF113
	.byte	0x26
	.uleb128 0xc
	.4byte	.LASF114
	.byte	0x27
	.uleb128 0xc
	.4byte	.LASF115
	.byte	0x28
	.uleb128 0xc
	.4byte	.LASF116
	.byte	0x29
	.uleb128 0xc
	.4byte	.LASF117
	.byte	0x2a
	.uleb128 0xc
	.4byte	.LASF118
	.byte	0x2b
	.uleb128 0xc
	.4byte	.LASF119
	.byte	0x2c
	.uleb128 0xc
	.4byte	.LASF120
	.byte	0x2d
	.uleb128 0xc
	.4byte	.LASF121
	.byte	0x2e
	.uleb128 0xc
	.4byte	.LASF122
	.byte	0x2f
	.uleb128 0xc
	.4byte	.LASF123
	.byte	0x30
	.uleb128 0xc
	.4byte	.LASF124
	.byte	0x31
	.uleb128 0xc
	.4byte	.LASF125
	.byte	0x32
	.uleb128 0xc
	.4byte	.LASF126
	.byte	0x33
	.uleb128 0xc
	.4byte	.LASF127
	.byte	0x34
	.uleb128 0xc
	.4byte	.LASF128
	.byte	0x35
	.uleb128 0xc
	.4byte	.LASF129
	.byte	0x36
	.uleb128 0xc
	.4byte	.LASF130
	.byte	0x37
	.uleb128 0xc
	.4byte	.LASF131
	.byte	0x38
	.uleb128 0xc
	.4byte	.LASF132
	.byte	0x39
	.uleb128 0xc
	.4byte	.LASF133
	.byte	0x3a
	.uleb128 0xc
	.4byte	.LASF134
	.byte	0x3b
	.uleb128 0xc
	.4byte	.LASF135
	.byte	0x3c
	.uleb128 0xc
	.4byte	.LASF136
	.byte	0x3d
	.uleb128 0xc
	.4byte	.LASF137
	.byte	0x3e
	.uleb128 0xc
	.4byte	.LASF138
	.byte	0x3f
	.uleb128 0xc
	.4byte	.LASF139
	.byte	0x40
	.uleb128 0xc
	.4byte	.LASF140
	.byte	0x41
	.uleb128 0xc
	.4byte	.LASF141
	.byte	0x42
	.uleb128 0xc
	.4byte	.LASF142
	.byte	0x43
	.uleb128 0xc
	.4byte	.LASF143
	.byte	0x44
	.uleb128 0xc
	.4byte	.LASF144
	.byte	0x45
	.uleb128 0xc
	.4byte	.LASF145
	.byte	0x46
	.uleb128 0xc
	.4byte	.LASF146
	.byte	0x47
	.uleb128 0xc
	.4byte	.LASF147
	.byte	0x48
	.uleb128 0xc
	.4byte	.LASF148
	.byte	0x49
	.uleb128 0xc
	.4byte	.LASF149
	.byte	0x4a
	.uleb128 0xc
	.4byte	.LASF150
	.byte	0x4b
	.uleb128 0xc
	.4byte	.LASF151
	.byte	0x4c
	.uleb128 0xc
	.4byte	.LASF152
	.byte	0x4d
	.uleb128 0xc
	.4byte	.LASF153
	.byte	0x4e
	.uleb128 0xc
	.4byte	.LASF154
	.byte	0x4f
	.uleb128 0xc
	.4byte	.LASF155
	.byte	0x50
	.uleb128 0xc
	.4byte	.LASF156
	.byte	0x51
	.uleb128 0xc
	.4byte	.LASF157
	.byte	0x52
	.uleb128 0xc
	.4byte	.LASF158
	.byte	0x53
	.uleb128 0xc
	.4byte	.LASF159
	.byte	0x54
	.uleb128 0xc
	.4byte	.LASF160
	.byte	0x55
	.uleb128 0xc
	.4byte	.LASF161
	.byte	0x56
	.uleb128 0xc
	.4byte	.LASF162
	.byte	0x57
	.uleb128 0xc
	.4byte	.LASF163
	.byte	0x58
	.uleb128 0xc
	.4byte	.LASF164
	.byte	0x59
	.uleb128 0xc
	.4byte	.LASF165
	.byte	0x5a
	.uleb128 0xc
	.4byte	.LASF166
	.byte	0x5b
	.uleb128 0xc
	.4byte	.LASF167
	.byte	0x5c
	.uleb128 0xc
	.4byte	.LASF168
	.byte	0x5d
	.uleb128 0xc
	.4byte	.LASF169
	.byte	0x5e
	.uleb128 0xc
	.4byte	.LASF170
	.byte	0x5f
	.uleb128 0xc
	.4byte	.LASF171
	.byte	0x60
	.uleb128 0xc
	.4byte	.LASF172
	.byte	0x61
	.uleb128 0xc
	.4byte	.LASF173
	.byte	0x62
	.uleb128 0xc
	.4byte	.LASF174
	.byte	0x63
	.uleb128 0xc
	.4byte	.LASF175
	.byte	0x64
	.uleb128 0xc
	.4byte	.LASF176
	.byte	0x65
	.uleb128 0xc
	.4byte	.LASF177
	.byte	0x66
	.uleb128 0xc
	.4byte	.LASF178
	.byte	0x67
	.uleb128 0xc
	.4byte	.LASF179
	.byte	0x68
	.uleb128 0xc
	.4byte	.LASF180
	.byte	0x69
	.uleb128 0xc
	.4byte	.LASF181
	.byte	0x6a
	.uleb128 0xc
	.4byte	.LASF182
	.byte	0x6b
	.uleb128 0xc
	.4byte	.LASF183
	.byte	0x6c
	.uleb128 0xc
	.4byte	.LASF184
	.byte	0x6d
	.uleb128 0xc
	.4byte	.LASF185
	.byte	0x6e
	.uleb128 0xc
	.4byte	.LASF186
	.byte	0x6f
	.uleb128 0xc
	.4byte	.LASF187
	.byte	0x70
	.uleb128 0xc
	.4byte	.LASF188
	.byte	0x71
	.uleb128 0xc
	.4byte	.LASF189
	.byte	0x72
	.uleb128 0xc
	.4byte	.LASF190
	.byte	0x73
	.uleb128 0xc
	.4byte	.LASF191
	.byte	0x74
	.uleb128 0xc
	.4byte	.LASF192
	.byte	0x75
	.uleb128 0xc
	.4byte	.LASF193
	.byte	0x76
	.uleb128 0xc
	.4byte	.LASF194
	.byte	0x77
	.uleb128 0xc
	.4byte	.LASF195
	.byte	0x78
	.uleb128 0xc
	.4byte	.LASF196
	.byte	0x79
	.uleb128 0xc
	.4byte	.LASF197
	.byte	0x7a
	.uleb128 0xc
	.4byte	.LASF198
	.byte	0x7b
	.uleb128 0xc
	.4byte	.LASF199
	.byte	0x7c
	.uleb128 0xc
	.4byte	.LASF200
	.byte	0x7d
	.uleb128 0xc
	.4byte	.LASF201
	.byte	0x7e
	.uleb128 0xc
	.4byte	.LASF202
	.byte	0x7f
	.uleb128 0xc
	.4byte	.LASF203
	.byte	0x80
	.uleb128 0xc
	.4byte	.LASF204
	.byte	0x81
	.uleb128 0xc
	.4byte	.LASF205
	.byte	0x82
	.uleb128 0xc
	.4byte	.LASF206
	.byte	0x83
	.uleb128 0xc
	.4byte	.LASF207
	.byte	0x84
	.uleb128 0xc
	.4byte	.LASF208
	.byte	0x85
	.uleb128 0xc
	.4byte	.LASF209
	.byte	0x86
	.uleb128 0xc
	.4byte	.LASF210
	.byte	0x87
	.uleb128 0xc
	.4byte	.LASF211
	.byte	0x88
	.uleb128 0xc
	.4byte	.LASF212
	.byte	0x89
	.uleb128 0xc
	.4byte	.LASF213
	.byte	0x8a
	.uleb128 0xc
	.4byte	.LASF214
	.byte	0x8b
	.uleb128 0xc
	.4byte	.LASF215
	.byte	0x8c
	.uleb128 0xc
	.4byte	.LASF216
	.byte	0x8d
	.uleb128 0xc
	.4byte	.LASF217
	.byte	0x8e
	.uleb128 0xc
	.4byte	.LASF218
	.byte	0x8f
	.uleb128 0xc
	.4byte	.LASF219
	.byte	0x90
	.uleb128 0xc
	.4byte	.LASF220
	.byte	0x91
	.uleb128 0xc
	.4byte	.LASF221
	.byte	0x92
	.uleb128 0xc
	.4byte	.LASF222
	.byte	0x93
	.uleb128 0xc
	.4byte	.LASF223
	.byte	0x94
	.uleb128 0xc
	.4byte	.LASF224
	.byte	0x95
	.uleb128 0xc
	.4byte	.LASF225
	.byte	0x96
	.uleb128 0xc
	.4byte	.LASF226
	.byte	0x97
	.uleb128 0xc
	.4byte	.LASF227
	.byte	0x98
	.uleb128 0xc
	.4byte	.LASF228
	.byte	0x99
	.uleb128 0xc
	.4byte	.LASF229
	.byte	0x9a
	.uleb128 0xc
	.4byte	.LASF230
	.byte	0x9b
	.uleb128 0xc
	.4byte	.LASF231
	.byte	0x9c
	.uleb128 0xc
	.4byte	.LASF232
	.byte	0x9d
	.uleb128 0xc
	.4byte	.LASF233
	.byte	0x9e
	.uleb128 0xc
	.4byte	.LASF234
	.byte	0x9f
	.uleb128 0xc
	.4byte	.LASF235
	.byte	0xa0
	.uleb128 0xc
	.4byte	.LASF236
	.byte	0xa1
	.uleb128 0xc
	.4byte	.LASF237
	.byte	0xa2
	.uleb128 0xc
	.4byte	.LASF238
	.byte	0xa3
	.uleb128 0xc
	.4byte	.LASF239
	.byte	0xa4
	.uleb128 0xc
	.4byte	.LASF240
	.byte	0xa5
	.uleb128 0xc
	.4byte	.LASF241
	.byte	0xa6
	.uleb128 0xc
	.4byte	.LASF242
	.byte	0xa7
	.uleb128 0xc
	.4byte	.LASF243
	.byte	0xa8
	.uleb128 0xc
	.4byte	.LASF244
	.byte	0xa9
	.uleb128 0xc
	.4byte	.LASF245
	.byte	0xaa
	.uleb128 0xc
	.4byte	.LASF246
	.byte	0xab
	.uleb128 0xc
	.4byte	.LASF247
	.byte	0xac
	.uleb128 0xc
	.4byte	.LASF248
	.byte	0xad
	.uleb128 0xc
	.4byte	.LASF249
	.byte	0xae
	.uleb128 0xc
	.4byte	.LASF250
	.byte	0xaf
	.uleb128 0xc
	.4byte	.LASF251
	.byte	0xb0
	.uleb128 0xc
	.4byte	.LASF252
	.byte	0xb1
	.uleb128 0xc
	.4byte	.LASF253
	.byte	0xb2
	.uleb128 0xc
	.4byte	.LASF254
	.byte	0xb3
	.uleb128 0xc
	.4byte	.LASF255
	.byte	0xb4
	.uleb128 0xc
	.4byte	.LASF256
	.byte	0xb5
	.uleb128 0xc
	.4byte	.LASF257
	.byte	0xb6
	.uleb128 0xc
	.4byte	.LASF258
	.byte	0xb7
	.uleb128 0xc
	.4byte	.LASF259
	.byte	0xb8
	.uleb128 0xc
	.4byte	.LASF260
	.byte	0xb9
	.uleb128 0xc
	.4byte	.LASF261
	.byte	0xba
	.uleb128 0xc
	.4byte	.LASF262
	.byte	0xbb
	.uleb128 0xc
	.4byte	.LASF263
	.byte	0xbc
	.uleb128 0xc
	.4byte	.LASF264
	.byte	0xbd
	.uleb128 0xc
	.4byte	.LASF265
	.byte	0xbe
	.uleb128 0xc
	.4byte	.LASF266
	.byte	0xbf
	.uleb128 0xc
	.4byte	.LASF267
	.byte	0xc0
	.uleb128 0xc
	.4byte	.LASF268
	.byte	0xc1
	.uleb128 0xc
	.4byte	.LASF269
	.byte	0xc2
	.uleb128 0xc
	.4byte	.LASF270
	.byte	0xc3
	.uleb128 0xc
	.4byte	.LASF271
	.byte	0xc4
	.uleb128 0xc
	.4byte	.LASF272
	.byte	0xc5
	.uleb128 0xc
	.4byte	.LASF273
	.byte	0xc6
	.uleb128 0xc
	.4byte	.LASF274
	.byte	0xc7
	.uleb128 0xc
	.4byte	.LASF275
	.byte	0xc8
	.uleb128 0xc
	.4byte	.LASF276
	.byte	0xc9
	.uleb128 0xc
	.4byte	.LASF277
	.byte	0xca
	.uleb128 0xc
	.4byte	.LASF278
	.byte	0xcb
	.uleb128 0xc
	.4byte	.LASF279
	.byte	0xcc
	.uleb128 0xc
	.4byte	.LASF280
	.byte	0xcd
	.uleb128 0xc
	.4byte	.LASF281
	.byte	0xce
	.uleb128 0xc
	.4byte	.LASF282
	.byte	0xcf
	.uleb128 0xc
	.4byte	.LASF283
	.byte	0xd0
	.uleb128 0xc
	.4byte	.LASF284
	.byte	0xd1
	.uleb128 0xc
	.4byte	.LASF285
	.byte	0xd2
	.uleb128 0xc
	.4byte	.LASF286
	.byte	0xd3
	.uleb128 0xc
	.4byte	.LASF287
	.byte	0xd4
	.uleb128 0xc
	.4byte	.LASF288
	.byte	0xd5
	.uleb128 0xc
	.4byte	.LASF289
	.byte	0xd9
	.uleb128 0xc
	.4byte	.LASF290
	.byte	0xda
	.uleb128 0xc
	.4byte	.LASF291
	.byte	0xdb
	.uleb128 0xc
	.4byte	.LASF292
	.byte	0xdc
	.uleb128 0xc
	.4byte	.LASF293
	.byte	0xdd
	.uleb128 0xc
	.4byte	.LASF294
	.byte	0xde
	.uleb128 0xc
	.4byte	.LASF295
	.byte	0xdf
	.uleb128 0xc
	.4byte	.LASF296
	.byte	0xe0
	.uleb128 0xc
	.4byte	.LASF297
	.byte	0xe1
	.uleb128 0xc
	.4byte	.LASF298
	.byte	0xe2
	.uleb128 0xc
	.4byte	.LASF299
	.byte	0xe3
	.uleb128 0xc
	.4byte	.LASF300
	.byte	0xe4
	.uleb128 0xc
	.4byte	.LASF301
	.byte	0xe5
	.uleb128 0xc
	.4byte	.LASF302
	.byte	0xe6
	.uleb128 0xc
	.4byte	.LASF303
	.byte	0xe7
	.uleb128 0xc
	.4byte	.LASF304
	.byte	0xe8
	.uleb128 0xc
	.4byte	.LASF305
	.byte	0xe9
	.uleb128 0xc
	.4byte	.LASF306
	.byte	0xea
	.uleb128 0xc
	.4byte	.LASF307
	.byte	0xeb
	.uleb128 0xc
	.4byte	.LASF308
	.byte	0xec
	.uleb128 0xc
	.4byte	.LASF309
	.byte	0xed
	.uleb128 0xc
	.4byte	.LASF310
	.byte	0xee
	.uleb128 0xc
	.4byte	.LASF311
	.byte	0xef
	.uleb128 0xc
	.4byte	.LASF312
	.byte	0xf0
	.uleb128 0xc
	.4byte	.LASF313
	.byte	0xf1
	.uleb128 0xc
	.4byte	.LASF314
	.byte	0xf2
	.uleb128 0xc
	.4byte	.LASF315
	.byte	0xf3
	.uleb128 0xc
	.4byte	.LASF316
	.byte	0xf4
	.uleb128 0xc
	.4byte	.LASF317
	.byte	0xf5
	.uleb128 0xc
	.4byte	.LASF318
	.byte	0xf6
	.uleb128 0xc
	.4byte	.LASF319
	.byte	0xf7
	.uleb128 0xc
	.4byte	.LASF320
	.byte	0xf8
	.uleb128 0xc
	.4byte	.LASF321
	.byte	0xf9
	.uleb128 0xc
	.4byte	.LASF322
	.byte	0xfa
	.uleb128 0xc
	.4byte	.LASF323
	.byte	0xfb
	.uleb128 0xc
	.4byte	.LASF324
	.byte	0xfc
	.uleb128 0xc
	.4byte	.LASF325
	.byte	0xfd
	.uleb128 0xc
	.4byte	.LASF326
	.byte	0xfe
	.uleb128 0xc
	.4byte	.LASF327
	.byte	0xff
	.uleb128 0x12
	.4byte	.LASF328
	.2byte	0x100
	.uleb128 0x12
	.4byte	.LASF329
	.2byte	0x101
	.uleb128 0x12
	.4byte	.LASF330
	.2byte	0x102
	.uleb128 0x12
	.4byte	.LASF331
	.2byte	0x103
	.uleb128 0x12
	.4byte	.LASF332
	.2byte	0x104
	.uleb128 0x12
	.4byte	.LASF333
	.2byte	0x105
	.uleb128 0x12
	.4byte	.LASF334
	.2byte	0x106
	.uleb128 0x12
	.4byte	.LASF335
	.2byte	0x107
	.uleb128 0x12
	.4byte	.LASF336
	.2byte	0x108
	.uleb128 0x12
	.4byte	.LASF337
	.2byte	0x109
	.uleb128 0x12
	.4byte	.LASF338
	.2byte	0x10a
	.uleb128 0x12
	.4byte	.LASF339
	.2byte	0x10b
	.uleb128 0x12
	.4byte	.LASF340
	.2byte	0x10c
	.uleb128 0x12
	.4byte	.LASF341
	.2byte	0x10d
	.uleb128 0x12
	.4byte	.LASF342
	.2byte	0x10e
	.uleb128 0x12
	.4byte	.LASF343
	.2byte	0x10f
	.uleb128 0x12
	.4byte	.LASF344
	.2byte	0x111
	.uleb128 0x12
	.4byte	.LASF345
	.2byte	0x112
	.uleb128 0x12
	.4byte	.LASF346
	.2byte	0x113
	.uleb128 0x12
	.4byte	.LASF347
	.2byte	0x114
	.uleb128 0x12
	.4byte	.LASF348
	.2byte	0x115
	.uleb128 0x12
	.4byte	.LASF349
	.2byte	0x116
	.uleb128 0x12
	.4byte	.LASF350
	.2byte	0x117
	.uleb128 0x12
	.4byte	.LASF351
	.2byte	0x118
	.uleb128 0x12
	.4byte	.LASF352
	.2byte	0x119
	.uleb128 0x12
	.4byte	.LASF353
	.2byte	0x12c
	.uleb128 0x12
	.4byte	.LASF354
	.2byte	0x12d
	.uleb128 0x12
	.4byte	.LASF355
	.2byte	0x12e
	.uleb128 0x12
	.4byte	.LASF356
	.2byte	0x12f
	.uleb128 0x12
	.4byte	.LASF357
	.2byte	0x130
	.uleb128 0x12
	.4byte	.LASF358
	.2byte	0x131
	.uleb128 0x12
	.4byte	.LASF359
	.2byte	0x132
	.uleb128 0x12
	.4byte	.LASF360
	.2byte	0x133
	.uleb128 0x12
	.4byte	.LASF361
	.2byte	0x134
	.uleb128 0x12
	.4byte	.LASF362
	.2byte	0x135
	.uleb128 0x12
	.4byte	.LASF363
	.2byte	0x136
	.uleb128 0x12
	.4byte	.LASF364
	.2byte	0x137
	.uleb128 0x12
	.4byte	.LASF365
	.2byte	0x138
	.uleb128 0x12
	.4byte	.LASF366
	.2byte	0x139
	.uleb128 0x12
	.4byte	.LASF367
	.2byte	0x13a
	.uleb128 0x12
	.4byte	.LASF368
	.2byte	0x13b
	.uleb128 0x12
	.4byte	.LASF369
	.2byte	0x13c
	.uleb128 0x12
	.4byte	.LASF370
	.2byte	0x13d
	.uleb128 0x12
	.4byte	.LASF371
	.2byte	0x13e
	.uleb128 0x12
	.4byte	.LASF372
	.2byte	0x13f
	.uleb128 0x12
	.4byte	.LASF373
	.2byte	0x140
	.uleb128 0x12
	.4byte	.LASF374
	.2byte	0x141
	.uleb128 0x12
	.4byte	.LASF375
	.2byte	0x142
	.uleb128 0x12
	.4byte	.LASF376
	.2byte	0x29a
	.uleb128 0x12
	.4byte	.LASF377
	.2byte	0x2c7
	.uleb128 0x12
	.4byte	.LASF378
	.2byte	0x2c8
	.uleb128 0x12
	.4byte	.LASF379
	.2byte	0x2c9
	.uleb128 0x12
	.4byte	.LASF380
	.2byte	0x2ca
	.uleb128 0x12
	.4byte	.LASF381
	.2byte	0x2cb
	.uleb128 0x12
	.4byte	.LASF382
	.2byte	0x2cc
	.uleb128 0x12
	.4byte	.LASF383
	.2byte	0x2cd
	.uleb128 0x12
	.4byte	.LASF384
	.2byte	0x2ce
	.uleb128 0x12
	.4byte	.LASF385
	.2byte	0x2d1
	.uleb128 0x12
	.4byte	.LASF386
	.2byte	0x2d2
	.uleb128 0x12
	.4byte	.LASF387
	.2byte	0x2d3
	.uleb128 0x12
	.4byte	.LASF388
	.2byte	0x2d4
	.uleb128 0x12
	.4byte	.LASF389
	.2byte	0x2d5
	.uleb128 0x12
	.4byte	.LASF390
	.2byte	0x2d6
	.uleb128 0x12
	.4byte	.LASF391
	.2byte	0x2d7
	.uleb128 0x12
	.4byte	.LASF392
	.2byte	0x2d8
	.uleb128 0x12
	.4byte	.LASF393
	.2byte	0x2d9
	.uleb128 0x12
	.4byte	.LASF394
	.2byte	0x2ee
	.uleb128 0x12
	.4byte	.LASF395
	.2byte	0x2ef
	.uleb128 0x12
	.4byte	.LASF396
	.2byte	0x2f0
	.uleb128 0x12
	.4byte	.LASF397
	.2byte	0x2f2
	.uleb128 0x12
	.4byte	.LASF398
	.2byte	0x2f3
	.uleb128 0x12
	.4byte	.LASF399
	.2byte	0x2f4
	.uleb128 0x12
	.4byte	.LASF400
	.2byte	0x2f5
	.uleb128 0x12
	.4byte	.LASF401
	.2byte	0x2f6
	.uleb128 0x12
	.4byte	.LASF402
	.2byte	0x2f7
	.uleb128 0x12
	.4byte	.LASF403
	.2byte	0x2f8
	.uleb128 0x12
	.4byte	.LASF404
	.2byte	0x2f9
	.uleb128 0x12
	.4byte	.LASF405
	.2byte	0x2fa
	.uleb128 0x12
	.4byte	.LASF406
	.2byte	0x2fb
	.uleb128 0x12
	.4byte	.LASF407
	.2byte	0x2fc
	.uleb128 0x12
	.4byte	.LASF408
	.2byte	0x2fd
	.uleb128 0x12
	.4byte	.LASF409
	.2byte	0x2fe
	.uleb128 0x12
	.4byte	.LASF410
	.2byte	0x2ff
	.uleb128 0x12
	.4byte	.LASF411
	.2byte	0x300
	.uleb128 0x12
	.4byte	.LASF412
	.2byte	0x301
	.uleb128 0x12
	.4byte	.LASF413
	.2byte	0x302
	.uleb128 0x12
	.4byte	.LASF414
	.2byte	0x303
	.uleb128 0x12
	.4byte	.LASF415
	.2byte	0x304
	.uleb128 0x12
	.4byte	.LASF416
	.2byte	0x305
	.uleb128 0x12
	.4byte	.LASF417
	.2byte	0x306
	.uleb128 0x12
	.4byte	.LASF418
	.2byte	0x307
	.uleb128 0x12
	.4byte	.LASF419
	.2byte	0x308
	.uleb128 0x12
	.4byte	.LASF420
	.2byte	0x309
	.uleb128 0x12
	.4byte	.LASF421
	.2byte	0x30a
	.uleb128 0x12
	.4byte	.LASF422
	.2byte	0x30b
	.uleb128 0x12
	.4byte	.LASF423
	.2byte	0x30c
	.uleb128 0x12
	.4byte	.LASF424
	.2byte	0x30d
	.uleb128 0x12
	.4byte	.LASF425
	.2byte	0x30e
	.uleb128 0x12
	.4byte	.LASF426
	.2byte	0x310
	.uleb128 0x12
	.4byte	.LASF427
	.2byte	0x311
	.uleb128 0x12
	.4byte	.LASF428
	.2byte	0x312
	.uleb128 0x12
	.4byte	.LASF429
	.2byte	0x313
	.uleb128 0x12
	.4byte	.LASF430
	.2byte	0x314
	.uleb128 0x12
	.4byte	.LASF431
	.2byte	0x315
	.uleb128 0x12
	.4byte	.LASF432
	.2byte	0x320
	.uleb128 0x12
	.4byte	.LASF433
	.2byte	0x321
	.uleb128 0x12
	.4byte	.LASF434
	.2byte	0x322
	.uleb128 0x12
	.4byte	.LASF435
	.2byte	0x323
	.uleb128 0x12
	.4byte	.LASF436
	.2byte	0x324
	.uleb128 0x12
	.4byte	.LASF437
	.2byte	0x32f
	.uleb128 0x12
	.4byte	.LASF438
	.2byte	0x330
	.uleb128 0x12
	.4byte	.LASF439
	.2byte	0x331
	.uleb128 0x12
	.4byte	.LASF440
	.2byte	0x332
	.uleb128 0x12
	.4byte	.LASF441
	.2byte	0x333
	.uleb128 0x12
	.4byte	.LASF442
	.2byte	0x334
	.uleb128 0x12
	.4byte	.LASF443
	.2byte	0x335
	.uleb128 0x12
	.4byte	.LASF444
	.2byte	0x336
	.uleb128 0x12
	.4byte	.LASF445
	.2byte	0x340
	.uleb128 0x12
	.4byte	.LASF446
	.2byte	0x341
	.uleb128 0x12
	.4byte	.LASF447
	.2byte	0x342
	.uleb128 0x12
	.4byte	.LASF448
	.2byte	0x343
	.uleb128 0x12
	.4byte	.LASF449
	.2byte	0x344
	.uleb128 0x12
	.4byte	.LASF450
	.2byte	0x345
	.uleb128 0x12
	.4byte	.LASF451
	.2byte	0x346
	.uleb128 0x12
	.4byte	.LASF452
	.2byte	0x347
	.uleb128 0x12
	.4byte	.LASF453
	.2byte	0x34c
	.uleb128 0x12
	.4byte	.LASF454
	.2byte	0x350
	.uleb128 0x12
	.4byte	.LASF455
	.2byte	0x371
	.uleb128 0x12
	.4byte	.LASF456
	.2byte	0x372
	.uleb128 0x12
	.4byte	.LASF457
	.2byte	0x373
	.uleb128 0x12
	.4byte	.LASF458
	.2byte	0x374
	.uleb128 0x12
	.4byte	.LASF459
	.2byte	0x375
	.uleb128 0x12
	.4byte	.LASF460
	.2byte	0x376
	.uleb128 0x12
	.4byte	.LASF461
	.2byte	0x377
	.uleb128 0x12
	.4byte	.LASF462
	.2byte	0x378
	.uleb128 0x12
	.4byte	.LASF463
	.2byte	0x379
	.uleb128 0x12
	.4byte	.LASF464
	.2byte	0x37a
	.uleb128 0x12
	.4byte	.LASF465
	.2byte	0x37b
	.uleb128 0x12
	.4byte	.LASF466
	.2byte	0x400
	.uleb128 0x12
	.4byte	.LASF467
	.2byte	0x401
	.uleb128 0x12
	.4byte	.LASF468
	.2byte	0x402
	.uleb128 0x12
	.4byte	.LASF469
	.2byte	0x403
	.uleb128 0x12
	.4byte	.LASF470
	.2byte	0x404
	.uleb128 0x12
	.4byte	.LASF471
	.2byte	0x405
	.uleb128 0x12
	.4byte	.LASF472
	.2byte	0x406
	.uleb128 0x12
	.4byte	.LASF473
	.2byte	0x407
	.uleb128 0x12
	.4byte	.LASF474
	.2byte	0x408
	.uleb128 0x12
	.4byte	.LASF475
	.2byte	0x409
	.uleb128 0x12
	.4byte	.LASF476
	.2byte	0x40a
	.uleb128 0x12
	.4byte	.LASF477
	.2byte	0x40b
	.uleb128 0x12
	.4byte	.LASF478
	.2byte	0x40c
	.uleb128 0x12
	.4byte	.LASF479
	.2byte	0x40d
	.uleb128 0x12
	.4byte	.LASF480
	.2byte	0x40e
	.uleb128 0x12
	.4byte	.LASF481
	.2byte	0x40f
	.uleb128 0x12
	.4byte	.LASF482
	.2byte	0x5dc
	.uleb128 0x12
	.4byte	.LASF483
	.2byte	0x5dd
	.uleb128 0x12
	.4byte	.LASF484
	.2byte	0x5de
	.uleb128 0x12
	.4byte	.LASF485
	.2byte	0x5df
	.uleb128 0x12
	.4byte	.LASF486
	.2byte	0x5e0
	.uleb128 0x12
	.4byte	.LASF487
	.2byte	0x5e1
	.uleb128 0x12
	.4byte	.LASF488
	.2byte	0x5e2
	.uleb128 0x12
	.4byte	.LASF489
	.2byte	0x5e3
	.uleb128 0x12
	.4byte	.LASF490
	.2byte	0x5e4
	.uleb128 0x12
	.4byte	.LASF491
	.2byte	0x5e5
	.uleb128 0x12
	.4byte	.LASF492
	.2byte	0x5e6
	.uleb128 0x12
	.4byte	.LASF493
	.2byte	0x5e7
	.uleb128 0x12
	.4byte	.LASF494
	.2byte	0x5e8
	.uleb128 0x12
	.4byte	.LASF495
	.2byte	0x5e9
	.uleb128 0x12
	.4byte	.LASF496
	.2byte	0x5ea
	.uleb128 0x12
	.4byte	.LASF497
	.2byte	0x5eb
	.uleb128 0x12
	.4byte	.LASF498
	.2byte	0x5ec
	.uleb128 0x12
	.4byte	.LASF499
	.2byte	0x5ed
	.uleb128 0x12
	.4byte	.LASF500
	.2byte	0x5ee
	.uleb128 0x12
	.4byte	.LASF501
	.2byte	0x5ef
	.uleb128 0x12
	.4byte	.LASF502
	.2byte	0x5f0
	.uleb128 0x12
	.4byte	.LASF503
	.2byte	0x5f1
	.uleb128 0x12
	.4byte	.LASF504
	.2byte	0x5f2
	.uleb128 0x12
	.4byte	.LASF505
	.2byte	0x5f3
	.uleb128 0x12
	.4byte	.LASF506
	.2byte	0x5f4
	.uleb128 0x12
	.4byte	.LASF507
	.2byte	0x5f5
	.uleb128 0x12
	.4byte	.LASF508
	.2byte	0x5f6
	.uleb128 0x12
	.4byte	.LASF509
	.2byte	0x5f7
	.uleb128 0x12
	.4byte	.LASF510
	.2byte	0x5f8
	.uleb128 0x12
	.4byte	.LASF511
	.2byte	0x640
	.uleb128 0x12
	.4byte	.LASF512
	.2byte	0x641
	.uleb128 0x12
	.4byte	.LASF513
	.2byte	0x3ffd
	.uleb128 0x12
	.4byte	.LASF514
	.2byte	0x3ffe
	.uleb128 0x12
	.4byte	.LASF515
	.2byte	0x3fff
	.uleb128 0x12
	.4byte	.LASF516
	.2byte	0x8000
	.uleb128 0x12
	.4byte	.LASF517
	.2byte	0x8001
	.uleb128 0x12
	.4byte	.LASF518
	.2byte	0x8002
	.uleb128 0x12
	.4byte	.LASF519
	.2byte	0x8003
	.uleb128 0x12
	.4byte	.LASF520
	.2byte	0x8004
	.uleb128 0x12
	.4byte	.LASF521
	.2byte	0x8005
	.uleb128 0x12
	.4byte	.LASF522
	.2byte	0x8006
	.uleb128 0x12
	.4byte	.LASF523
	.2byte	0x8007
	.uleb128 0x12
	.4byte	.LASF524
	.2byte	0x8008
	.uleb128 0x12
	.4byte	.LASF525
	.2byte	0x8009
	.uleb128 0x12
	.4byte	.LASF526
	.2byte	0x800a
	.uleb128 0x12
	.4byte	.LASF527
	.2byte	0x800b
	.uleb128 0x12
	.4byte	.LASF528
	.2byte	0x800c
	.uleb128 0x12
	.4byte	.LASF529
	.2byte	0x800d
	.uleb128 0x12
	.4byte	.LASF530
	.2byte	0x800e
	.uleb128 0x12
	.4byte	.LASF531
	.2byte	0x800f
	.uleb128 0x12
	.4byte	.LASF532
	.2byte	0x8010
	.uleb128 0x12
	.4byte	.LASF533
	.2byte	0x8011
	.uleb128 0x12
	.4byte	.LASF534
	.2byte	0x8012
	.uleb128 0x12
	.4byte	.LASF535
	.2byte	0x8013
	.uleb128 0x12
	.4byte	.LASF536
	.2byte	0x8014
	.uleb128 0x12
	.4byte	.LASF537
	.2byte	0x8015
	.uleb128 0x12
	.4byte	.LASF538
	.2byte	0x8016
	.uleb128 0x12
	.4byte	.LASF539
	.2byte	0x8017
	.uleb128 0x12
	.4byte	.LASF540
	.2byte	0x8018
	.uleb128 0x12
	.4byte	.LASF541
	.2byte	0x8019
	.uleb128 0x12
	.4byte	.LASF542
	.2byte	0x801a
	.uleb128 0x12
	.4byte	.LASF543
	.2byte	0x801b
	.uleb128 0x12
	.4byte	.LASF544
	.2byte	0x801c
	.uleb128 0x12
	.4byte	.LASF545
	.2byte	0x801d
	.uleb128 0x12
	.4byte	.LASF546
	.2byte	0x801e
	.uleb128 0x12
	.4byte	.LASF547
	.2byte	0x801f
	.uleb128 0x12
	.4byte	.LASF548
	.2byte	0x8020
	.uleb128 0x12
	.4byte	.LASF549
	.2byte	0x8021
	.uleb128 0x12
	.4byte	.LASF550
	.2byte	0x8022
	.uleb128 0x12
	.4byte	.LASF551
	.2byte	0x8023
	.uleb128 0x12
	.4byte	.LASF552
	.2byte	0x8024
	.uleb128 0x12
	.4byte	.LASF553
	.2byte	0x8025
	.uleb128 0x12
	.4byte	.LASF554
	.2byte	0x8026
	.uleb128 0x12
	.4byte	.LASF555
	.2byte	0x8027
	.uleb128 0x12
	.4byte	.LASF556
	.2byte	0x8028
	.uleb128 0x12
	.4byte	.LASF557
	.2byte	0x8029
	.uleb128 0x12
	.4byte	.LASF558
	.2byte	0x802a
	.uleb128 0x12
	.4byte	.LASF559
	.2byte	0x802b
	.uleb128 0x12
	.4byte	.LASF560
	.2byte	0x802c
	.uleb128 0x12
	.4byte	.LASF561
	.2byte	0x802d
	.uleb128 0x12
	.4byte	.LASF562
	.2byte	0x802e
	.uleb128 0x12
	.4byte	.LASF563
	.2byte	0x802f
	.uleb128 0x12
	.4byte	.LASF564
	.2byte	0x8030
	.uleb128 0x12
	.4byte	.LASF565
	.2byte	0x8031
	.uleb128 0x12
	.4byte	.LASF566
	.2byte	0x8032
	.uleb128 0x12
	.4byte	.LASF567
	.2byte	0x8033
	.uleb128 0x12
	.4byte	.LASF568
	.2byte	0x8034
	.uleb128 0x12
	.4byte	.LASF569
	.2byte	0x8035
	.uleb128 0x12
	.4byte	.LASF570
	.2byte	0x8036
	.uleb128 0x12
	.4byte	.LASF571
	.2byte	0x8037
	.uleb128 0x12
	.4byte	.LASF572
	.2byte	0x8038
	.uleb128 0x12
	.4byte	.LASF573
	.2byte	0x8039
	.uleb128 0x12
	.4byte	.LASF574
	.2byte	0x803a
	.uleb128 0x12
	.4byte	.LASF575
	.2byte	0x803b
	.uleb128 0x12
	.4byte	.LASF576
	.2byte	0x803c
	.uleb128 0x12
	.4byte	.LASF577
	.2byte	0x803d
	.uleb128 0x12
	.4byte	.LASF578
	.2byte	0x803e
	.uleb128 0x12
	.4byte	.LASF579
	.2byte	0x803f
	.uleb128 0x12
	.4byte	.LASF580
	.2byte	0x8040
	.uleb128 0x12
	.4byte	.LASF581
	.2byte	0x8041
	.uleb128 0x12
	.4byte	.LASF582
	.2byte	0x8042
	.uleb128 0x12
	.4byte	.LASF583
	.2byte	0x8043
	.uleb128 0x12
	.4byte	.LASF584
	.2byte	0x8044
	.uleb128 0x12
	.4byte	.LASF585
	.2byte	0x8045
	.uleb128 0x12
	.4byte	.LASF586
	.2byte	0x8046
	.uleb128 0x12
	.4byte	.LASF587
	.2byte	0x8047
	.uleb128 0x12
	.4byte	.LASF588
	.2byte	0x8048
	.uleb128 0x12
	.4byte	.LASF589
	.2byte	0x8049
	.uleb128 0x12
	.4byte	.LASF590
	.2byte	0x804a
	.uleb128 0x12
	.4byte	.LASF591
	.2byte	0x804b
	.uleb128 0x12
	.4byte	.LASF592
	.2byte	0x804c
	.uleb128 0x12
	.4byte	.LASF593
	.2byte	0x804d
	.uleb128 0x12
	.4byte	.LASF594
	.2byte	0x804e
	.uleb128 0x12
	.4byte	.LASF595
	.2byte	0x804f
	.uleb128 0x12
	.4byte	.LASF596
	.2byte	0x8050
	.uleb128 0x12
	.4byte	.LASF597
	.2byte	0x8051
	.uleb128 0x12
	.4byte	.LASF598
	.2byte	0x8052
	.uleb128 0x12
	.4byte	.LASF599
	.2byte	0x8053
	.uleb128 0x12
	.4byte	.LASF600
	.2byte	0x8054
	.uleb128 0x12
	.4byte	.LASF601
	.2byte	0x8055
	.uleb128 0x12
	.4byte	.LASF602
	.2byte	0x8056
	.uleb128 0x12
	.4byte	.LASF603
	.2byte	0x8057
	.uleb128 0x12
	.4byte	.LASF604
	.2byte	0x8058
	.uleb128 0x12
	.4byte	.LASF605
	.2byte	0x8059
	.uleb128 0x12
	.4byte	.LASF606
	.2byte	0x805a
	.uleb128 0x12
	.4byte	.LASF607
	.2byte	0x805b
	.uleb128 0x12
	.4byte	.LASF608
	.2byte	0x805c
	.uleb128 0x12
	.4byte	.LASF609
	.2byte	0x805d
	.uleb128 0x12
	.4byte	.LASF610
	.2byte	0x805e
	.uleb128 0x12
	.4byte	.LASF611
	.2byte	0x805f
	.uleb128 0x12
	.4byte	.LASF612
	.2byte	0x8060
	.uleb128 0x12
	.4byte	.LASF613
	.2byte	0x8061
	.uleb128 0x12
	.4byte	.LASF614
	.2byte	0x8062
	.uleb128 0x12
	.4byte	.LASF615
	.2byte	0x8063
	.uleb128 0x12
	.4byte	.LASF616
	.2byte	0x8064
	.uleb128 0x12
	.4byte	.LASF617
	.2byte	0x8065
	.uleb128 0x12
	.4byte	.LASF618
	.2byte	0x8066
	.uleb128 0x12
	.4byte	.LASF619
	.2byte	0x8067
	.uleb128 0x12
	.4byte	.LASF620
	.2byte	0x8068
	.uleb128 0x12
	.4byte	.LASF621
	.2byte	0x8069
	.uleb128 0x12
	.4byte	.LASF622
	.2byte	0x806a
	.uleb128 0x12
	.4byte	.LASF623
	.2byte	0x806b
	.uleb128 0x12
	.4byte	.LASF624
	.2byte	0x806c
	.uleb128 0x12
	.4byte	.LASF625
	.2byte	0x806d
	.uleb128 0x12
	.4byte	.LASF626
	.2byte	0x806e
	.uleb128 0x12
	.4byte	.LASF627
	.2byte	0x806f
	.uleb128 0x12
	.4byte	.LASF628
	.2byte	0x8070
	.uleb128 0x12
	.4byte	.LASF629
	.2byte	0x8071
	.uleb128 0x12
	.4byte	.LASF630
	.2byte	0x8072
	.uleb128 0x12
	.4byte	.LASF631
	.2byte	0x8073
	.uleb128 0x12
	.4byte	.LASF632
	.2byte	0x8074
	.uleb128 0x12
	.4byte	.LASF633
	.2byte	0x8075
	.uleb128 0x12
	.4byte	.LASF634
	.2byte	0x8076
	.uleb128 0x12
	.4byte	.LASF635
	.2byte	0x8077
	.uleb128 0x12
	.4byte	.LASF636
	.2byte	0x8078
	.uleb128 0x12
	.4byte	.LASF637
	.2byte	0x8079
	.uleb128 0x12
	.4byte	.LASF638
	.2byte	0x807a
	.uleb128 0x12
	.4byte	.LASF639
	.2byte	0x807b
	.uleb128 0x12
	.4byte	.LASF640
	.2byte	0x807c
	.uleb128 0x12
	.4byte	.LASF641
	.2byte	0x807d
	.uleb128 0x12
	.4byte	.LASF642
	.2byte	0x807e
	.uleb128 0x12
	.4byte	.LASF643
	.2byte	0x807f
	.uleb128 0x12
	.4byte	.LASF644
	.2byte	0x8080
	.uleb128 0x12
	.4byte	.LASF645
	.2byte	0x8081
	.uleb128 0x12
	.4byte	.LASF646
	.2byte	0x8082
	.uleb128 0x12
	.4byte	.LASF647
	.2byte	0x8083
	.uleb128 0x12
	.4byte	.LASF648
	.2byte	0x8084
	.uleb128 0x12
	.4byte	.LASF649
	.2byte	0x8085
	.uleb128 0x12
	.4byte	.LASF650
	.2byte	0x8086
	.uleb128 0x12
	.4byte	.LASF651
	.2byte	0x8087
	.uleb128 0x12
	.4byte	.LASF652
	.2byte	0x8088
	.uleb128 0x12
	.4byte	.LASF653
	.2byte	0x8089
	.uleb128 0x12
	.4byte	.LASF654
	.2byte	0x808a
	.uleb128 0x12
	.4byte	.LASF655
	.2byte	0x808b
	.uleb128 0x12
	.4byte	.LASF656
	.2byte	0x808c
	.uleb128 0x13
	.4byte	.LASF657
	.4byte	0x10000
	.byte	0
	.uleb128 0x14
	.4byte	.LASF658
	.byte	0x3
	.2byte	0x2dd
	.byte	0x5
	.4byte	0x368
	.uleb128 0x14
	.4byte	.LASF659
	.byte	0x3
	.2byte	0x2e6
	.byte	0x16
	.4byte	0x25
	.uleb128 0x6
	.byte	0x4
	.4byte	0x7c
	.uleb128 0x15
	.4byte	.LASF954
	.byte	0x7
	.byte	0x1
	.4byte	0x3f
	.byte	0xd
	.byte	0x8c
	.byte	0x6
	.4byte	0x12b8
	.uleb128 0xc
	.4byte	.LASF660
	.byte	0
	.uleb128 0xc
	.4byte	.LASF661
	.byte	0x1
	.uleb128 0xc
	.4byte	.LASF662
	.byte	0x2
	.uleb128 0xc
	.4byte	.LASF663
	.byte	0x3
	.byte	0
	.uleb128 0x3
	.4byte	.LASF664
	.byte	0xd
	.byte	0xa0
	.byte	0x1e
	.4byte	0x12c4
	.uleb128 0x6
	.byte	0x4
	.4byte	0x12ca
	.uleb128 0x11
	.4byte	.LASF665
	.byte	0x48
	.byte	0xd
	.byte	0xa4
	.byte	0x8
	.4byte	0x139a
	.uleb128 0xf
	.ascii	"use\000"
	.byte	0xd
	.byte	0xa8
	.byte	0x12
	.4byte	0x128d
	.byte	0
	.uleb128 0x10
	.4byte	.LASF666
	.byte	0xd
	.byte	0xad
	.byte	0x9
	.4byte	0xf1
	.byte	0x4
	.uleb128 0x10
	.4byte	.LASF667
	.byte	0xd
	.byte	0xb1
	.byte	0x9
	.4byte	0xf1
	.byte	0x8
	.uleb128 0x10
	.4byte	.LASF668
	.byte	0xd
	.byte	0xb6
	.byte	0x9
	.4byte	0xf1
	.byte	0xc
	.uleb128 0x10
	.4byte	.LASF669
	.byte	0xd
	.byte	0xbb
	.byte	0x7
	.4byte	0x7c
	.byte	0x10
	.uleb128 0xf
	.ascii	"d\000"
	.byte	0xd
	.byte	0xdd
	.byte	0x5
	.4byte	0x139a
	.byte	0x14
	.uleb128 0x10
	.4byte	.LASF670
	.byte	0xd
	.byte	0xe3
	.byte	0x7
	.4byte	0x7c
	.byte	0x24
	.uleb128 0x10
	.4byte	.LASF671
	.byte	0xd
	.byte	0xe9
	.byte	0x7
	.4byte	0x7c
	.byte	0x28
	.uleb128 0x10
	.4byte	.LASF672
	.byte	0xd
	.byte	0xed
	.byte	0x9
	.4byte	0x1407
	.byte	0x2c
	.uleb128 0x10
	.4byte	.LASF673
	.byte	0xd
	.byte	0xf1
	.byte	0x9
	.4byte	0x96
	.byte	0x30
	.uleb128 0x10
	.4byte	.LASF674
	.byte	0xd
	.byte	0xf4
	.byte	0x7
	.4byte	0x7c
	.byte	0x34
	.uleb128 0x10
	.4byte	.LASF675
	.byte	0xd
	.byte	0xfa
	.byte	0x9
	.4byte	0xb0
	.byte	0x38
	.uleb128 0x10
	.4byte	.LASF676
	.byte	0xd
	.byte	0xfd
	.byte	0xb
	.4byte	0x12b8
	.byte	0x3c
	.uleb128 0x16
	.ascii	"no\000"
	.byte	0xd
	.2byte	0x103
	.byte	0x7
	.4byte	0x7c
	.byte	0x40
	.uleb128 0x17
	.4byte	.LASF677
	.byte	0xd
	.2byte	0x10b
	.byte	0x7
	.4byte	0x7c
	.byte	0x44
	.byte	0
	.uleb128 0xe
	.byte	0x10
	.byte	0xd
	.byte	0xcf
	.byte	0x3
	.4byte	0x13d8
	.uleb128 0x10
	.4byte	.LASF678
	.byte	0xd
	.byte	0xd2
	.byte	0xc
	.4byte	0x83
	.byte	0
	.uleb128 0x10
	.4byte	.LASF679
	.byte	0xd
	.byte	0xd7
	.byte	0xc
	.4byte	0x83
	.byte	0x4
	.uleb128 0xf
	.ascii	"len\000"
	.byte	0xd
	.byte	0xda
	.byte	0xc
	.4byte	0x83
	.byte	0x8
	.uleb128 0xf
	.ascii	"buf\000"
	.byte	0xd
	.byte	0xdc
	.byte	0xb
	.4byte	0x13d8
	.byte	0xc
	.byte	0
	.uleb128 0x6
	.byte	0x4
	.4byte	0x115
	.uleb128 0x18
	.4byte	0x7c
	.4byte	0x1401
	.uleb128 0x19
	.4byte	0x96
	.uleb128 0x19
	.4byte	0x7c
	.uleb128 0x19
	.4byte	0x12b8
	.uleb128 0x19
	.4byte	0x13d8
	.uleb128 0x19
	.4byte	0x1401
	.byte	0
	.uleb128 0x6
	.byte	0x4
	.4byte	0x83
	.uleb128 0x6
	.byte	0x4
	.4byte	0x13de
	.uleb128 0xe
	.byte	0x3c
	.byte	0xe
	.byte	0x17
	.byte	0x9
	.4byte	0x148b
	.uleb128 0x10
	.4byte	.LASF680
	.byte	0xe
	.byte	0x1a
	.byte	0x7
	.4byte	0x7c
	.byte	0
	.uleb128 0x10
	.4byte	.LASF681
	.byte	0xe
	.byte	0x1c
	.byte	0x7
	.4byte	0x7c
	.byte	0x4
	.uleb128 0x1a
	.4byte	.LASF682
	.byte	0xe
	.byte	0x21
	.byte	0x10
	.4byte	0x25
	.byte	0x4
	.byte	0x1
	.byte	0x1f
	.byte	0x8
	.uleb128 0x1a
	.4byte	.LASF683
	.byte	0xe
	.byte	0x26
	.byte	0x7
	.4byte	0x7c
	.byte	0x4
	.byte	0x4
	.byte	0x1b
	.byte	0x8
	.uleb128 0x1a
	.4byte	.LASF684
	.byte	0xe
	.byte	0x29
	.byte	0x10
	.4byte	0x25
	.byte	0x4
	.byte	0x1
	.byte	0x1a
	.byte	0x8
	.uleb128 0x1a
	.4byte	.LASF685
	.byte	0xe
	.byte	0x2c
	.byte	0x10
	.4byte	0x25
	.byte	0x4
	.byte	0x1
	.byte	0x19
	.byte	0x8
	.uleb128 0xf
	.ascii	"key\000"
	.byte	0xe
	.byte	0x2f
	.byte	0x8
	.4byte	0x148b
	.byte	0x9
	.uleb128 0x10
	.4byte	.LASF686
	.byte	0xe
	.byte	0x32
	.byte	0x8
	.4byte	0x149b
	.byte	0x29
	.byte	0
	.uleb128 0x9
	.4byte	0x115
	.4byte	0x149b
	.uleb128 0xa
	.4byte	0x25
	.byte	0x1f
	.byte	0
	.uleb128 0x9
	.4byte	0xb6
	.4byte	0x14ab
	.uleb128 0xa
	.4byte	0x25
	.byte	0x11
	.byte	0
	.uleb128 0x8
	.ascii	"DEK\000"
	.byte	0xe
	.byte	0x33
	.byte	0x3
	.4byte	0x140d
	.uleb128 0x6
	.byte	0x4
	.4byte	0x14ab
	.uleb128 0x9
	.4byte	0x115
	.4byte	0x14cd
	.uleb128 0xa
	.4byte	0x25
	.byte	0xf
	.byte	0
	.uleb128 0xb
	.byte	0x7
	.byte	0x1
	.4byte	0x3f
	.byte	0xf
	.byte	0x22
	.byte	0x3
	.4byte	0x1560
	.uleb128 0xc
	.4byte	.LASF687
	.byte	0
	.uleb128 0xc
	.4byte	.LASF688
	.byte	0x1
	.uleb128 0xc
	.4byte	.LASF689
	.byte	0x2
	.uleb128 0xc
	.4byte	.LASF690
	.byte	0x3
	.uleb128 0xc
	.4byte	.LASF691
	.byte	0x4
	.uleb128 0xc
	.4byte	.LASF692
	.byte	0x5
	.uleb128 0xc
	.4byte	.LASF693
	.byte	0x6
	.uleb128 0xc
	.4byte	.LASF694
	.byte	0x7
	.uleb128 0xc
	.4byte	.LASF695
	.byte	0x8
	.uleb128 0xc
	.4byte	.LASF696
	.byte	0x9
	.uleb128 0xc
	.4byte	.LASF697
	.byte	0xa
	.uleb128 0xc
	.4byte	.LASF698
	.byte	0xb
	.uleb128 0xc
	.4byte	.LASF699
	.byte	0xc
	.uleb128 0xc
	.4byte	.LASF700
	.byte	0xd
	.uleb128 0xc
	.4byte	.LASF701
	.byte	0xe
	.uleb128 0xc
	.4byte	.LASF702
	.byte	0x10
	.uleb128 0xc
	.4byte	.LASF703
	.byte	0x11
	.uleb128 0xc
	.4byte	.LASF704
	.byte	0x12
	.uleb128 0xc
	.4byte	.LASF705
	.byte	0x13
	.uleb128 0xc
	.4byte	.LASF706
	.byte	0x14
	.uleb128 0xc
	.4byte	.LASF707
	.byte	0x3d
	.uleb128 0xc
	.4byte	.LASF708
	.byte	0x3f
	.byte	0
	.uleb128 0x3
	.4byte	.LASF709
	.byte	0xf
	.byte	0x3a
	.byte	0x1
	.4byte	0x14cd
	.uleb128 0x3
	.4byte	.LASF710
	.byte	0x10
	.byte	0xe4
	.byte	0x1a
	.4byte	0x1578
	.uleb128 0x6
	.byte	0x4
	.4byte	0x157e
	.uleb128 0xd
	.4byte	.LASF711
	.uleb128 0x3
	.4byte	.LASF712
	.byte	0x11
	.byte	0x46
	.byte	0x1e
	.4byte	0x158f
	.uleb128 0x1b
	.4byte	.LASF713
	.byte	0x8
	.byte	0x11
	.2byte	0x22e
	.byte	0x8
	.4byte	0x15ba
	.uleb128 0x17
	.4byte	.LASF714
	.byte	0x11
	.2byte	0x22f
	.byte	0xf
	.4byte	0x1560
	.byte	0
	.uleb128 0x16
	.ascii	"pkt\000"
	.byte	0x11
	.2byte	0x23f
	.byte	0x7
	.4byte	0x21cb
	.byte	0x4
	.byte	0
	.uleb128 0xe
	.byte	0x2
	.byte	0x11
	.byte	0x57
	.byte	0x9
	.4byte	0x15de
	.uleb128 0x10
	.4byte	.LASF715
	.byte	0x11
	.byte	0x58
	.byte	0xa
	.4byte	0x115
	.byte	0
	.uleb128 0x10
	.4byte	.LASF716
	.byte	0x11
	.byte	0x59
	.byte	0xa
	.4byte	0x115
	.byte	0x1
	.byte	0
	.uleb128 0x3
	.4byte	.LASF717
	.byte	0x11
	.byte	0x5a
	.byte	0x3
	.4byte	0x15ba
	.uleb128 0xe
	.byte	0x14
	.byte	0x11
	.byte	0x5d
	.byte	0x9
	.4byte	0x1628
	.uleb128 0x10
	.4byte	.LASF718
	.byte	0x11
	.byte	0x5f
	.byte	0x8
	.4byte	0x7c
	.byte	0
	.uleb128 0x10
	.4byte	.LASF719
	.byte	0x11
	.byte	0x60
	.byte	0x8
	.4byte	0x115
	.byte	0x4
	.uleb128 0x10
	.4byte	.LASF720
	.byte	0x11
	.byte	0x61
	.byte	0x8
	.4byte	0x1628
	.byte	0x5
	.uleb128 0x10
	.4byte	.LASF721
	.byte	0x11
	.byte	0x63
	.byte	0x8
	.4byte	0x109
	.byte	0x10
	.byte	0
	.uleb128 0x9
	.4byte	0x115
	.4byte	0x1638
	.uleb128 0xa
	.4byte	0x25
	.byte	0x7
	.byte	0
	.uleb128 0x3
	.4byte	.LASF722
	.byte	0x11
	.byte	0x64
	.byte	0x3
	.4byte	0x15ea
	.uleb128 0xe
	.byte	0x1c
	.byte	0x11
	.byte	0x68
	.byte	0x9
	.4byte	0x169c
	.uleb128 0x10
	.4byte	.LASF723
	.byte	0x11
	.byte	0x6a
	.byte	0x8
	.4byte	0x115
	.byte	0
	.uleb128 0x10
	.4byte	.LASF724
	.byte	0x11
	.byte	0x6e
	.byte	0x8
	.4byte	0x115
	.byte	0x1
	.uleb128 0x10
	.4byte	.LASF725
	.byte	0x11
	.byte	0x70
	.byte	0x8
	.4byte	0x115
	.byte	0x2
	.uleb128 0xf
	.ascii	"s2k\000"
	.byte	0x11
	.byte	0x72
	.byte	0xe
	.4byte	0x1638
	.byte	0x4
	.uleb128 0x10
	.4byte	.LASF726
	.byte	0x11
	.byte	0x77
	.byte	0x8
	.4byte	0x115
	.byte	0x18
	.uleb128 0x10
	.4byte	.LASF727
	.byte	0x11
	.byte	0x7a
	.byte	0x8
	.4byte	0x169c
	.byte	0x19
	.byte	0
	.uleb128 0x9
	.4byte	0x115
	.4byte	0x16ac
	.uleb128 0xa
	.4byte	0x25
	.byte	0
	.byte	0
	.uleb128 0x3
	.4byte	.LASF728
	.byte	0x11
	.byte	0x7b
	.byte	0x3
	.4byte	0x1644
	.uleb128 0xe
	.byte	0x14
	.byte	0x11
	.byte	0x7f
	.byte	0x9
	.4byte	0x1703
	.uleb128 0x10
	.4byte	.LASF729
	.byte	0x11
	.byte	0x81
	.byte	0xb
	.4byte	0x1703
	.byte	0
	.uleb128 0x10
	.4byte	.LASF723
	.byte	0x11
	.byte	0x83
	.byte	0xb
	.4byte	0x115
	.byte	0x8
	.uleb128 0x10
	.4byte	.LASF730
	.byte	0x11
	.byte	0x85
	.byte	0xb
	.4byte	0x115
	.byte	0x9
	.uleb128 0x10
	.4byte	.LASF731
	.byte	0x11
	.byte	0x88
	.byte	0xb
	.4byte	0x115
	.byte	0xa
	.uleb128 0x10
	.4byte	.LASF732
	.byte	0x11
	.byte	0x8a
	.byte	0x12
	.4byte	0x1713
	.byte	0xc
	.byte	0
	.uleb128 0x9
	.4byte	0x109
	.4byte	0x1713
	.uleb128 0xa
	.4byte	0x25
	.byte	0x1
	.byte	0
	.uleb128 0x9
	.4byte	0x156c
	.4byte	0x1723
	.uleb128 0xa
	.4byte	0x25
	.byte	0x1
	.byte	0
	.uleb128 0x3
	.4byte	.LASF733
	.byte	0x11
	.byte	0x8b
	.byte	0x3
	.4byte	0x16b8
	.uleb128 0xe
	.byte	0xc
	.byte	0x11
	.byte	0x90
	.byte	0x9
	.4byte	0x177a
	.uleb128 0x10
	.4byte	.LASF729
	.byte	0x11
	.byte	0x91
	.byte	0xd
	.4byte	0x1703
	.byte	0
	.uleb128 0x10
	.4byte	.LASF734
	.byte	0x11
	.byte	0x93
	.byte	0xd
	.4byte	0x115
	.byte	0x8
	.uleb128 0x10
	.4byte	.LASF735
	.byte	0x11
	.byte	0x94
	.byte	0xd
	.4byte	0x115
	.byte	0x9
	.uleb128 0x10
	.4byte	.LASF730
	.byte	0x11
	.byte	0x95
	.byte	0xd
	.4byte	0x115
	.byte	0xa
	.uleb128 0x10
	.4byte	.LASF736
	.byte	0x11
	.byte	0x9e
	.byte	0xd
	.4byte	0x115
	.byte	0xb
	.byte	0
	.uleb128 0x3
	.4byte	.LASF737
	.byte	0x11
	.byte	0x9f
	.byte	0x3
	.4byte	0x172f
	.uleb128 0xe
	.byte	0xc
	.byte	0x11
	.byte	0xa6
	.byte	0x9
	.4byte	0x17b7
	.uleb128 0x10
	.4byte	.LASF678
	.byte	0x11
	.byte	0xa7
	.byte	0xc
	.4byte	0x83
	.byte	0
	.uleb128 0xf
	.ascii	"len\000"
	.byte	0x11
	.byte	0xa8
	.byte	0xc
	.4byte	0x83
	.byte	0x4
	.uleb128 0x10
	.4byte	.LASF732
	.byte	0x11
	.byte	0xa9
	.byte	0xa
	.4byte	0x169c
	.byte	0x8
	.byte	0
	.uleb128 0x3
	.4byte	.LASF738
	.byte	0x11
	.byte	0xaa
	.byte	0x3
	.4byte	0x1786
	.uleb128 0xe
	.byte	0x24
	.byte	0x11
	.byte	0xbb
	.byte	0x9
	.4byte	0x180e
	.uleb128 0x10
	.4byte	.LASF739
	.byte	0x11
	.byte	0xbd
	.byte	0x7
	.4byte	0x7c
	.byte	0
	.uleb128 0x10
	.4byte	.LASF740
	.byte	0x11
	.byte	0xbe
	.byte	0x7
	.4byte	0x7c
	.byte	0x4
	.uleb128 0xf
	.ascii	"uri\000"
	.byte	0x11
	.byte	0xc0
	.byte	0x9
	.4byte	0xb0
	.byte	0x8
	.uleb128 0xf
	.ascii	"fpr\000"
	.byte	0x11
	.byte	0xc2
	.byte	0x11
	.4byte	0x180e
	.byte	0xc
	.uleb128 0x10
	.4byte	.LASF741
	.byte	0x11
	.byte	0xc3
	.byte	0x8
	.4byte	0x126
	.byte	0x20
	.byte	0
	.uleb128 0x9
	.4byte	0x3f
	.4byte	0x181e
	.uleb128 0xa
	.4byte	0x25
	.byte	0x13
	.byte	0
	.uleb128 0x3
	.4byte	.LASF742
	.byte	0x11
	.byte	0xc4
	.byte	0x3
	.4byte	0x17c3
	.uleb128 0xe
	.byte	0x4
	.byte	0x11
	.byte	0xce
	.byte	0x3
	.4byte	0x18f4
	.uleb128 0x1a
	.4byte	.LASF740
	.byte	0x11
	.byte	0xd0
	.byte	0xe
	.4byte	0x25
	.byte	0x4
	.byte	0x1
	.byte	0x1f
	.byte	0
	.uleb128 0x1a
	.4byte	.LASF739
	.byte	0x11
	.byte	0xd1
	.byte	0xe
	.4byte	0x25
	.byte	0x4
	.byte	0x1
	.byte	0x1e
	.byte	0
	.uleb128 0x1a
	.4byte	.LASF743
	.byte	0x11
	.byte	0xd2
	.byte	0xe
	.4byte	0x25
	.byte	0x4
	.byte	0x1
	.byte	0x1d
	.byte	0
	.uleb128 0x1a
	.4byte	.LASF744
	.byte	0x11
	.byte	0xd3
	.byte	0xe
	.4byte	0x25
	.byte	0x4
	.byte	0x1
	.byte	0x1c
	.byte	0
	.uleb128 0x1a
	.4byte	.LASF745
	.byte	0x11
	.byte	0xd4
	.byte	0xe
	.4byte	0x25
	.byte	0x4
	.byte	0x1
	.byte	0x1b
	.byte	0
	.uleb128 0x1a
	.4byte	.LASF746
	.byte	0x11
	.byte	0xd5
	.byte	0xe
	.4byte	0x25
	.byte	0x4
	.byte	0x1
	.byte	0x1a
	.byte	0
	.uleb128 0x1a
	.4byte	.LASF747
	.byte	0x11
	.byte	0xd6
	.byte	0xe
	.4byte	0x25
	.byte	0x4
	.byte	0x1
	.byte	0x19
	.byte	0
	.uleb128 0x1a
	.4byte	.LASF748
	.byte	0x11
	.byte	0xd7
	.byte	0xe
	.4byte	0x25
	.byte	0x4
	.byte	0x1
	.byte	0x18
	.byte	0
	.uleb128 0x1a
	.4byte	.LASF749
	.byte	0x11
	.byte	0xd8
	.byte	0xe
	.4byte	0x25
	.byte	0x4
	.byte	0x1
	.byte	0x17
	.byte	0
	.uleb128 0x1a
	.4byte	.LASF750
	.byte	0x11
	.byte	0xd9
	.byte	0xe
	.4byte	0x25
	.byte	0x4
	.byte	0x1
	.byte	0x16
	.byte	0
	.uleb128 0x1a
	.4byte	.LASF751
	.byte	0x11
	.byte	0xda
	.byte	0xe
	.4byte	0x25
	.byte	0x4
	.byte	0x1
	.byte	0x15
	.byte	0
	.uleb128 0x1a
	.4byte	.LASF752
	.byte	0x11
	.byte	0xdb
	.byte	0xe
	.4byte	0x25
	.byte	0x4
	.byte	0x1
	.byte	0x14
	.byte	0
	.byte	0
	.uleb128 0xe
	.byte	0x8c
	.byte	0x11
	.byte	0xcc
	.byte	0x9
	.4byte	0x1a20
	.uleb128 0x10
	.4byte	.LASF46
	.byte	0x11
	.byte	0xdc
	.byte	0x5
	.4byte	0x182a
	.byte	0
	.uleb128 0x10
	.4byte	.LASF729
	.byte	0x11
	.byte	0xe0
	.byte	0xb
	.4byte	0x1703
	.byte	0x4
	.uleb128 0x10
	.4byte	.LASF753
	.byte	0x11
	.byte	0xe4
	.byte	0xb
	.4byte	0x109
	.byte	0xc
	.uleb128 0x10
	.4byte	.LASF754
	.byte	0x11
	.byte	0xe5
	.byte	0xb
	.4byte	0x109
	.byte	0x10
	.uleb128 0x10
	.4byte	.LASF723
	.byte	0x11
	.byte	0xe8
	.byte	0xb
	.4byte	0x115
	.byte	0x14
	.uleb128 0x10
	.4byte	.LASF734
	.byte	0x11
	.byte	0xea
	.byte	0xb
	.4byte	0x115
	.byte	0x15
	.uleb128 0x10
	.4byte	.LASF730
	.byte	0x11
	.byte	0xed
	.byte	0xb
	.4byte	0x115
	.byte	0x16
	.uleb128 0x10
	.4byte	.LASF735
	.byte	0x11
	.byte	0xf0
	.byte	0xb
	.4byte	0x115
	.byte	0x17
	.uleb128 0x10
	.4byte	.LASF755
	.byte	0x11
	.byte	0xf1
	.byte	0xb
	.4byte	0x115
	.byte	0x18
	.uleb128 0x10
	.4byte	.LASF756
	.byte	0x11
	.byte	0xf2
	.byte	0xb
	.4byte	0x115
	.byte	0x19
	.uleb128 0x10
	.4byte	.LASF757
	.byte	0x11
	.byte	0xf3
	.byte	0xf
	.4byte	0x1a20
	.byte	0x1c
	.uleb128 0x10
	.4byte	.LASF758
	.byte	0x11
	.byte	0xf4
	.byte	0x1a
	.4byte	0x1a2b
	.byte	0x20
	.uleb128 0x10
	.4byte	.LASF759
	.byte	0x11
	.byte	0xf5
	.byte	0x7
	.4byte	0x7c
	.byte	0x24
	.uleb128 0x10
	.4byte	.LASF760
	.byte	0x11
	.byte	0xf6
	.byte	0x7
	.4byte	0x7c
	.byte	0x28
	.uleb128 0x10
	.4byte	.LASF761
	.byte	0x11
	.byte	0xf7
	.byte	0xf
	.4byte	0x1a31
	.byte	0x2c
	.uleb128 0x10
	.4byte	.LASF762
	.byte	0x11
	.byte	0xf9
	.byte	0x9
	.4byte	0xb0
	.byte	0x30
	.uleb128 0x10
	.4byte	.LASF763
	.byte	0x11
	.byte	0xfc
	.byte	0x11
	.4byte	0x1a37
	.byte	0x34
	.uleb128 0x10
	.4byte	.LASF764
	.byte	0x11
	.byte	0xfd
	.byte	0x11
	.4byte	0x1a37
	.byte	0x38
	.uleb128 0x17
	.4byte	.LASF765
	.byte	0x11
	.2byte	0x100
	.byte	0x8
	.4byte	0x1a3d
	.byte	0x3c
	.uleb128 0x17
	.4byte	.LASF732
	.byte	0x11
	.2byte	0x102
	.byte	0xf
	.4byte	0x1713
	.byte	0x40
	.uleb128 0x17
	.4byte	.LASF766
	.byte	0x11
	.2byte	0x106
	.byte	0x8
	.4byte	0x1a4d
	.byte	0x48
	.uleb128 0x17
	.4byte	.LASF767
	.byte	0x11
	.2byte	0x107
	.byte	0x7
	.4byte	0x7c
	.byte	0x88
	.byte	0
	.uleb128 0x6
	.byte	0x4
	.4byte	0x121
	.uleb128 0xd
	.4byte	.LASF768
	.uleb128 0x6
	.byte	0x4
	.4byte	0x1a26
	.uleb128 0x6
	.byte	0x4
	.4byte	0x181e
	.uleb128 0x6
	.byte	0x4
	.4byte	0x17b7
	.uleb128 0x9
	.4byte	0x115
	.4byte	0x1a4d
	.uleb128 0xa
	.4byte	0x25
	.byte	0x1
	.byte	0
	.uleb128 0x9
	.4byte	0x115
	.4byte	0x1a5d
	.uleb128 0xa
	.4byte	0x25
	.byte	0x3f
	.byte	0
	.uleb128 0x14
	.4byte	.LASF769
	.byte	0x11
	.2byte	0x108
	.byte	0x3
	.4byte	0x18f4
	.uleb128 0x1b
	.4byte	.LASF770
	.byte	0xc
	.byte	0x11
	.2byte	0x10d
	.byte	0x8
	.4byte	0x1aa3
	.uleb128 0x17
	.4byte	.LASF715
	.byte	0x11
	.2byte	0x10e
	.byte	0x8
	.4byte	0x115
	.byte	0
	.uleb128 0x17
	.4byte	.LASF732
	.byte	0x11
	.2byte	0x10f
	.byte	0xf
	.4byte	0x1a20
	.byte	0x4
	.uleb128 0x16
	.ascii	"len\000"
	.byte	0x11
	.2byte	0x110
	.byte	0x7
	.4byte	0x109
	.byte	0x8
	.byte	0
	.uleb128 0x1c
	.byte	0x4
	.byte	0x11
	.2byte	0x130
	.byte	0x3
	.4byte	0x1b25
	.uleb128 0x1d
	.ascii	"mdc\000"
	.byte	0x11
	.2byte	0x132
	.byte	0x12
	.4byte	0x25
	.byte	0x4
	.byte	0x1
	.byte	0x1f
	.byte	0
	.uleb128 0x1e
	.4byte	.LASF771
	.byte	0x11
	.2byte	0x133
	.byte	0x12
	.4byte	0x25
	.byte	0x4
	.byte	0x1
	.byte	0x1e
	.byte	0
	.uleb128 0x1e
	.4byte	.LASF772
	.byte	0x11
	.2byte	0x134
	.byte	0x12
	.4byte	0x25
	.byte	0x4
	.byte	0x1
	.byte	0x1d
	.byte	0
	.uleb128 0x1e
	.4byte	.LASF773
	.byte	0x11
	.2byte	0x135
	.byte	0x12
	.4byte	0x25
	.byte	0x4
	.byte	0x1
	.byte	0x1c
	.byte	0
	.uleb128 0x1e
	.4byte	.LASF774
	.byte	0x11
	.2byte	0x136
	.byte	0x12
	.4byte	0x25
	.byte	0x4
	.byte	0x2
	.byte	0x1a
	.byte	0
	.uleb128 0x1e
	.4byte	.LASF775
	.byte	0x11
	.2byte	0x137
	.byte	0x12
	.4byte	0x25
	.byte	0x4
	.byte	0x1
	.byte	0x19
	.byte	0
	.uleb128 0x1e
	.4byte	.LASF751
	.byte	0x11
	.2byte	0x138
	.byte	0x12
	.4byte	0x25
	.byte	0x4
	.byte	0x1
	.byte	0x18
	.byte	0
	.byte	0
	.uleb128 0x1c
	.byte	0x50
	.byte	0x11
	.2byte	0x118
	.byte	0x9
	.4byte	0x1c56
	.uleb128 0x16
	.ascii	"ref\000"
	.byte	0x11
	.2byte	0x11a
	.byte	0x7
	.4byte	0x7c
	.byte	0
	.uleb128 0x16
	.ascii	"len\000"
	.byte	0x11
	.2byte	0x11c
	.byte	0x7
	.4byte	0x7c
	.byte	0x4
	.uleb128 0x17
	.4byte	.LASF776
	.byte	0x11
	.2byte	0x11d
	.byte	0x1a
	.4byte	0x1c56
	.byte	0x8
	.uleb128 0x17
	.4byte	.LASF777
	.byte	0x11
	.2byte	0x11e
	.byte	0x7
	.4byte	0x7c
	.byte	0xc
	.uleb128 0x17
	.4byte	.LASF778
	.byte	0x11
	.2byte	0x121
	.byte	0x9
	.4byte	0x13d8
	.byte	0x10
	.uleb128 0x17
	.4byte	.LASF779
	.byte	0x11
	.2byte	0x123
	.byte	0x11
	.4byte	0x67
	.byte	0x14
	.uleb128 0x17
	.4byte	.LASF780
	.byte	0x11
	.2byte	0x124
	.byte	0x9
	.4byte	0x13d8
	.byte	0x18
	.uleb128 0x17
	.4byte	.LASF781
	.byte	0x11
	.2byte	0x125
	.byte	0x7
	.4byte	0xfd
	.byte	0x1c
	.uleb128 0x17
	.4byte	.LASF782
	.byte	0x11
	.2byte	0x126
	.byte	0x7
	.4byte	0x109
	.byte	0x20
	.uleb128 0x17
	.4byte	.LASF783
	.byte	0x11
	.2byte	0x127
	.byte	0x7
	.4byte	0x7c
	.byte	0x24
	.uleb128 0x17
	.4byte	.LASF784
	.byte	0x11
	.2byte	0x128
	.byte	0x7
	.4byte	0x7c
	.byte	0x28
	.uleb128 0x17
	.4byte	.LASF754
	.byte	0x11
	.2byte	0x129
	.byte	0x7
	.4byte	0x109
	.byte	0x2c
	.uleb128 0x17
	.4byte	.LASF785
	.byte	0x11
	.2byte	0x12a
	.byte	0xf
	.4byte	0x1c5c
	.byte	0x30
	.uleb128 0x17
	.4byte	.LASF786
	.byte	0x11
	.2byte	0x12b
	.byte	0x7
	.4byte	0x109
	.byte	0x34
	.uleb128 0x17
	.4byte	.LASF787
	.byte	0x11
	.2byte	0x12c
	.byte	0x7
	.4byte	0x109
	.byte	0x38
	.uleb128 0x17
	.4byte	.LASF788
	.byte	0x11
	.2byte	0x12d
	.byte	0x9
	.4byte	0xb0
	.byte	0x3c
	.uleb128 0x17
	.4byte	.LASF789
	.byte	0x11
	.2byte	0x12e
	.byte	0x8
	.4byte	0x115
	.byte	0x40
	.uleb128 0x17
	.4byte	.LASF790
	.byte	0x11
	.2byte	0x12f
	.byte	0x8
	.4byte	0x115
	.byte	0x41
	.uleb128 0x17
	.4byte	.LASF46
	.byte	0x11
	.2byte	0x139
	.byte	0x5
	.4byte	0x1aa3
	.byte	0x44
	.uleb128 0x17
	.4byte	.LASF791
	.byte	0x11
	.2byte	0x13b
	.byte	0x9
	.4byte	0xb0
	.byte	0x48
	.uleb128 0x17
	.4byte	.LASF792
	.byte	0x11
	.2byte	0x140
	.byte	0x8
	.4byte	0x126
	.byte	0x4c
	.byte	0
	.uleb128 0x6
	.byte	0x4
	.4byte	0x1a6a
	.uleb128 0x6
	.byte	0x4
	.4byte	0x15de
	.uleb128 0x14
	.4byte	.LASF793
	.byte	0x11
	.2byte	0x141
	.byte	0x3
	.4byte	0x1b25
	.uleb128 0x1b
	.4byte	.LASF794
	.byte	0x10
	.byte	0x11
	.2byte	0x145
	.byte	0x8
	.4byte	0x1ca8
	.uleb128 0x17
	.4byte	.LASF795
	.byte	0x11
	.2byte	0x148
	.byte	0x7
	.4byte	0x109
	.byte	0
	.uleb128 0x17
	.4byte	.LASF729
	.byte	0x11
	.2byte	0x14a
	.byte	0x7
	.4byte	0x1703
	.byte	0x4
	.uleb128 0x17
	.4byte	.LASF680
	.byte	0x11
	.2byte	0x14c
	.byte	0x8
	.4byte	0x115
	.byte	0xc
	.byte	0
	.uleb128 0x1b
	.4byte	.LASF796
	.byte	0x30
	.byte	0x11
	.2byte	0x151
	.byte	0x8
	.4byte	0x1d1e
	.uleb128 0x1e
	.4byte	.LASF797
	.byte	0x11
	.2byte	0x153
	.byte	0x7
	.4byte	0x7c
	.byte	0x4
	.byte	0x1
	.byte	0x1f
	.byte	0
	.uleb128 0x1e
	.4byte	.LASF798
	.byte	0x11
	.2byte	0x157
	.byte	0x7
	.4byte	0x7c
	.byte	0x4
	.byte	0x1
	.byte	0x1e
	.byte	0
	.uleb128 0x17
	.4byte	.LASF799
	.byte	0x11
	.2byte	0x158
	.byte	0x7
	.4byte	0xfd
	.byte	0x2
	.uleb128 0x17
	.4byte	.LASF680
	.byte	0x11
	.2byte	0x159
	.byte	0x8
	.4byte	0x115
	.byte	0x4
	.uleb128 0x16
	.ascii	"s2k\000"
	.byte	0x11
	.2byte	0x15a
	.byte	0xe
	.4byte	0x1638
	.byte	0x8
	.uleb128 0x17
	.4byte	.LASF800
	.byte	0x11
	.2byte	0x15b
	.byte	0x8
	.4byte	0x115
	.byte	0x1c
	.uleb128 0x16
	.ascii	"iv\000"
	.byte	0x11
	.2byte	0x15c
	.byte	0x8
	.4byte	0x14bd
	.byte	0x1d
	.byte	0
	.uleb128 0x1c
	.byte	0x4
	.byte	0x11
	.2byte	0x191
	.byte	0x3
	.4byte	0x1df5
	.uleb128 0x1d
	.ascii	"mdc\000"
	.byte	0x11
	.2byte	0x193
	.byte	0x12
	.4byte	0x25
	.byte	0x4
	.byte	0x1
	.byte	0x1f
	.byte	0
	.uleb128 0x1e
	.4byte	.LASF771
	.byte	0x11
	.2byte	0x194
	.byte	0x12
	.4byte	0x25
	.byte	0x4
	.byte	0x1
	.byte	0x1e
	.byte	0
	.uleb128 0x1e
	.4byte	.LASF801
	.byte	0x11
	.2byte	0x195
	.byte	0x12
	.4byte	0x25
	.byte	0x4
	.byte	0x1
	.byte	0x1d
	.byte	0
	.uleb128 0x1e
	.4byte	.LASF802
	.byte	0x11
	.2byte	0x196
	.byte	0x12
	.4byte	0x25
	.byte	0x4
	.byte	0x1
	.byte	0x1c
	.byte	0
	.uleb128 0x1e
	.4byte	.LASF774
	.byte	0x11
	.2byte	0x197
	.byte	0x12
	.4byte	0x25
	.byte	0x4
	.byte	0x1
	.byte	0x1b
	.byte	0
	.uleb128 0x1e
	.4byte	.LASF775
	.byte	0x11
	.2byte	0x198
	.byte	0x12
	.4byte	0x25
	.byte	0x4
	.byte	0x2
	.byte	0x19
	.byte	0
	.uleb128 0x1e
	.4byte	.LASF803
	.byte	0x11
	.2byte	0x19b
	.byte	0x12
	.4byte	0x25
	.byte	0x4
	.byte	0x1
	.byte	0x18
	.byte	0
	.uleb128 0x1e
	.4byte	.LASF739
	.byte	0x11
	.2byte	0x19e
	.byte	0x12
	.4byte	0x25
	.byte	0x4
	.byte	0x1
	.byte	0x17
	.byte	0
	.uleb128 0x1e
	.4byte	.LASF804
	.byte	0x11
	.2byte	0x19f
	.byte	0x12
	.4byte	0x25
	.byte	0x4
	.byte	0x1
	.byte	0x16
	.byte	0
	.uleb128 0x1e
	.4byte	.LASF805
	.byte	0x11
	.2byte	0x1a0
	.byte	0x12
	.4byte	0x25
	.byte	0x4
	.byte	0x2
	.byte	0x14
	.byte	0
	.uleb128 0x1e
	.4byte	.LASF806
	.byte	0x11
	.2byte	0x1a1
	.byte	0x12
	.4byte	0x25
	.byte	0x4
	.byte	0x1
	.byte	0x13
	.byte	0
	.uleb128 0x1e
	.4byte	.LASF807
	.byte	0x11
	.2byte	0x1a2
	.byte	0x12
	.4byte	0x25
	.byte	0x4
	.byte	0x1
	.byte	0x12
	.byte	0
	.byte	0
	.uleb128 0x1c
	.byte	0x84
	.byte	0x11
	.2byte	0x175
	.byte	0x9
	.4byte	0x1f88
	.uleb128 0x17
	.4byte	.LASF753
	.byte	0x11
	.2byte	0x178
	.byte	0xb
	.4byte	0x109
	.byte	0
	.uleb128 0x17
	.4byte	.LASF754
	.byte	0x11
	.2byte	0x179
	.byte	0xb
	.4byte	0x109
	.byte	0x4
	.uleb128 0x17
	.4byte	.LASF808
	.byte	0x11
	.2byte	0x17a
	.byte	0xb
	.4byte	0x109
	.byte	0x8
	.uleb128 0x17
	.4byte	.LASF775
	.byte	0x11
	.2byte	0x17b
	.byte	0x16
	.4byte	0x1c6f
	.byte	0xc
	.uleb128 0x17
	.4byte	.LASF809
	.byte	0x11
	.2byte	0x180
	.byte	0xb
	.4byte	0x115
	.byte	0x1c
	.uleb128 0x17
	.4byte	.LASF723
	.byte	0x11
	.2byte	0x183
	.byte	0xb
	.4byte	0x115
	.byte	0x1d
	.uleb128 0x17
	.4byte	.LASF790
	.byte	0x11
	.2byte	0x184
	.byte	0xb
	.4byte	0x115
	.byte	0x1e
	.uleb128 0x17
	.4byte	.LASF730
	.byte	0x11
	.2byte	0x186
	.byte	0xb
	.4byte	0x115
	.byte	0x1f
	.uleb128 0x17
	.4byte	.LASF810
	.byte	0x11
	.2byte	0x187
	.byte	0xb
	.4byte	0xfd
	.byte	0x20
	.uleb128 0x17
	.4byte	.LASF811
	.byte	0x11
	.2byte	0x188
	.byte	0xb
	.4byte	0x115
	.byte	0x22
	.uleb128 0x17
	.4byte	.LASF812
	.byte	0x11
	.2byte	0x189
	.byte	0xb
	.4byte	0x109
	.byte	0x24
	.uleb128 0x17
	.4byte	.LASF813
	.byte	0x11
	.2byte	0x18c
	.byte	0xb
	.4byte	0x1703
	.byte	0x28
	.uleb128 0x17
	.4byte	.LASF729
	.byte	0x11
	.2byte	0x18f
	.byte	0xb
	.4byte	0x1703
	.byte	0x30
	.uleb128 0x17
	.4byte	.LASF785
	.byte	0x11
	.2byte	0x190
	.byte	0xf
	.4byte	0x1c5c
	.byte	0x38
	.uleb128 0x17
	.4byte	.LASF46
	.byte	0x11
	.2byte	0x1a3
	.byte	0x5
	.4byte	0x1d1e
	.byte	0x3c
	.uleb128 0x17
	.4byte	.LASF814
	.byte	0x11
	.2byte	0x1a4
	.byte	0x10
	.4byte	0x1f88
	.byte	0x40
	.uleb128 0x17
	.4byte	.LASF758
	.byte	0x11
	.2byte	0x1a5
	.byte	0x1a
	.4byte	0x1a2b
	.byte	0x44
	.uleb128 0x17
	.4byte	.LASF759
	.byte	0x11
	.2byte	0x1a6
	.byte	0xb
	.4byte	0x7c
	.byte	0x48
	.uleb128 0x17
	.4byte	.LASF815
	.byte	0x11
	.2byte	0x1a7
	.byte	0xb
	.4byte	0x109
	.byte	0x4c
	.uleb128 0x17
	.4byte	.LASF755
	.byte	0x11
	.2byte	0x1a8
	.byte	0xb
	.4byte	0x115
	.byte	0x50
	.uleb128 0x17
	.4byte	.LASF756
	.byte	0x11
	.2byte	0x1a9
	.byte	0xb
	.4byte	0x115
	.byte	0x51
	.uleb128 0x17
	.4byte	.LASF789
	.byte	0x11
	.2byte	0x1aa
	.byte	0xb
	.4byte	0x115
	.byte	0x52
	.uleb128 0x17
	.4byte	.LASF787
	.byte	0x11
	.2byte	0x1ab
	.byte	0xb
	.4byte	0x109
	.byte	0x54
	.uleb128 0x17
	.4byte	.LASF788
	.byte	0x11
	.2byte	0x1ac
	.byte	0xc
	.4byte	0xb0
	.byte	0x58
	.uleb128 0x17
	.4byte	.LASF757
	.byte	0x11
	.2byte	0x1ad
	.byte	0xf
	.4byte	0x1a20
	.byte	0x5c
	.uleb128 0x17
	.4byte	.LASF816
	.byte	0x11
	.2byte	0x1ae
	.byte	0xc
	.4byte	0xb0
	.byte	0x60
	.uleb128 0x17
	.4byte	.LASF796
	.byte	0x11
	.2byte	0x1b3
	.byte	0x17
	.4byte	0x1f8e
	.byte	0x64
	.uleb128 0x17
	.4byte	.LASF817
	.byte	0x11
	.2byte	0x1b8
	.byte	0xf
	.4byte	0x1f94
	.byte	0x68
	.byte	0
	.uleb128 0x6
	.byte	0x4
	.4byte	0x1c62
	.uleb128 0x6
	.byte	0x4
	.4byte	0x1ca8
	.uleb128 0x9
	.4byte	0x156c
	.4byte	0x1fa4
	.uleb128 0xa
	.4byte	0x25
	.byte	0x6
	.byte	0
	.uleb128 0x14
	.4byte	.LASF818
	.byte	0x11
	.2byte	0x1b9
	.byte	0x3
	.4byte	0x1df5
	.uleb128 0x1c
	.byte	0x8
	.byte	0x11
	.2byte	0x1c2
	.byte	0x9
	.4byte	0x1fd8
	.uleb128 0x16
	.ascii	"len\000"
	.byte	0x11
	.2byte	0x1c3
	.byte	0xa
	.4byte	0x7c
	.byte	0
	.uleb128 0x17
	.4byte	.LASF732
	.byte	0x11
	.2byte	0x1c4
	.byte	0xa
	.4byte	0x126
	.byte	0x4
	.byte	0
	.uleb128 0x14
	.4byte	.LASF819
	.byte	0x11
	.2byte	0x1c5
	.byte	0x3
	.4byte	0x1fb1
	.uleb128 0x1c
	.byte	0xc
	.byte	0x11
	.2byte	0x1c8
	.byte	0x9
	.4byte	0x2028
	.uleb128 0x16
	.ascii	"len\000"
	.byte	0x11
	.2byte	0x1ca
	.byte	0x7
	.4byte	0x109
	.byte	0
	.uleb128 0x17
	.4byte	.LASF820
	.byte	0x11
	.2byte	0x1cd
	.byte	0x9
	.4byte	0x115
	.byte	0x4
	.uleb128 0x17
	.4byte	.LASF821
	.byte	0x11
	.2byte	0x1cf
	.byte	0x9
	.4byte	0x115
	.byte	0x5
	.uleb128 0x16
	.ascii	"buf\000"
	.byte	0x11
	.2byte	0x1d2
	.byte	0xb
	.4byte	0x12b8
	.byte	0x8
	.byte	0
	.uleb128 0x14
	.4byte	.LASF822
	.byte	0x11
	.2byte	0x1d3
	.byte	0x3
	.4byte	0x1fe5
	.uleb128 0x1c
	.byte	0x14
	.byte	0x11
	.2byte	0x1d8
	.byte	0x9
	.4byte	0x20be
	.uleb128 0x16
	.ascii	"len\000"
	.byte	0x11
	.2byte	0x1da
	.byte	0x8
	.4byte	0x109
	.byte	0
	.uleb128 0x17
	.4byte	.LASF823
	.byte	0x11
	.2byte	0x1e2
	.byte	0x8
	.4byte	0x7c
	.byte	0x4
	.uleb128 0x17
	.4byte	.LASF820
	.byte	0x11
	.2byte	0x1e5
	.byte	0x8
	.4byte	0x115
	.byte	0x8
	.uleb128 0x17
	.4byte	.LASF824
	.byte	0x11
	.2byte	0x1e9
	.byte	0x8
	.4byte	0x115
	.byte	0x9
	.uleb128 0x17
	.4byte	.LASF825
	.byte	0x11
	.2byte	0x1ec
	.byte	0x8
	.4byte	0x115
	.byte	0xa
	.uleb128 0x17
	.4byte	.LASF725
	.byte	0x11
	.2byte	0x1ef
	.byte	0x8
	.4byte	0x115
	.byte	0xb
	.uleb128 0x17
	.4byte	.LASF724
	.byte	0x11
	.2byte	0x1f2
	.byte	0x8
	.4byte	0x115
	.byte	0xc
	.uleb128 0x17
	.4byte	.LASF826
	.byte	0x11
	.2byte	0x1f4
	.byte	0x8
	.4byte	0x115
	.byte	0xd
	.uleb128 0x16
	.ascii	"buf\000"
	.byte	0x11
	.2byte	0x1f8
	.byte	0xb
	.4byte	0x12b8
	.byte	0x10
	.byte	0
	.uleb128 0x14
	.4byte	.LASF827
	.byte	0x11
	.2byte	0x1f9
	.byte	0x3
	.4byte	0x2035
	.uleb128 0x1c
	.byte	0x14
	.byte	0x11
	.2byte	0x1fb
	.byte	0x9
	.4byte	0x20e4
	.uleb128 0x17
	.4byte	.LASF828
	.byte	0x11
	.2byte	0x1fc
	.byte	0xa
	.4byte	0x20e4
	.byte	0
	.byte	0
	.uleb128 0x9
	.4byte	0x115
	.4byte	0x20f4
	.uleb128 0xa
	.4byte	0x25
	.byte	0x13
	.byte	0
	.uleb128 0x14
	.4byte	.LASF829
	.byte	0x11
	.2byte	0x1fd
	.byte	0x3
	.4byte	0x20cb
	.uleb128 0x1c
	.byte	0x1c
	.byte	0x11
	.2byte	0x216
	.byte	0x9
	.4byte	0x217c
	.uleb128 0x16
	.ascii	"len\000"
	.byte	0x11
	.2byte	0x218
	.byte	0x8
	.4byte	0x109
	.byte	0
	.uleb128 0x16
	.ascii	"buf\000"
	.byte	0x11
	.2byte	0x21a
	.byte	0xb
	.4byte	0x12b8
	.byte	0x4
	.uleb128 0x17
	.4byte	.LASF820
	.byte	0x11
	.2byte	0x21b
	.byte	0x8
	.4byte	0x115
	.byte	0x8
	.uleb128 0x17
	.4byte	.LASF824
	.byte	0x11
	.2byte	0x21c
	.byte	0x8
	.4byte	0x115
	.byte	0x9
	.uleb128 0x17
	.4byte	.LASF718
	.byte	0x11
	.2byte	0x21f
	.byte	0x7
	.4byte	0x7c
	.byte	0xc
	.uleb128 0x17
	.4byte	.LASF753
	.byte	0x11
	.2byte	0x220
	.byte	0x7
	.4byte	0x109
	.byte	0x10
	.uleb128 0x17
	.4byte	.LASF830
	.byte	0x11
	.2byte	0x223
	.byte	0x8
	.4byte	0x7c
	.byte	0x14
	.uleb128 0x17
	.4byte	.LASF792
	.byte	0x11
	.2byte	0x224
	.byte	0x8
	.4byte	0x126
	.byte	0x18
	.byte	0
	.uleb128 0x14
	.4byte	.LASF831
	.byte	0x11
	.2byte	0x225
	.byte	0x3
	.4byte	0x2101
	.uleb128 0x1c
	.byte	0xc
	.byte	0x11
	.2byte	0x227
	.byte	0x9
	.4byte	0x21be
	.uleb128 0x17
	.4byte	.LASF832
	.byte	0x11
	.2byte	0x228
	.byte	0xa
	.4byte	0x7c
	.byte	0
	.uleb128 0x17
	.4byte	.LASF833
	.byte	0x11
	.2byte	0x229
	.byte	0xc
	.4byte	0x83
	.byte	0x4
	.uleb128 0x17
	.4byte	.LASF732
	.byte	0x11
	.2byte	0x22a
	.byte	0xa
	.4byte	0x126
	.byte	0x8
	.byte	0
	.uleb128 0x14
	.4byte	.LASF834
	.byte	0x11
	.2byte	0x22b
	.byte	0x3
	.4byte	0x2189
	.uleb128 0x1f
	.byte	0x4
	.byte	0x11
	.2byte	0x230
	.byte	0x5
	.4byte	0x228c
	.uleb128 0x20
	.4byte	.LASF835
	.byte	0x11
	.2byte	0x231
	.byte	0x8
	.4byte	0x96
	.uleb128 0x20
	.4byte	.LASF836
	.byte	0x11
	.2byte	0x232
	.byte	0x12
	.4byte	0x228c
	.uleb128 0x20
	.4byte	.LASF837
	.byte	0x11
	.2byte	0x233
	.byte	0x12
	.4byte	0x2292
	.uleb128 0x20
	.4byte	.LASF838
	.byte	0x11
	.2byte	0x234
	.byte	0x13
	.4byte	0x2298
	.uleb128 0x20
	.4byte	.LASF839
	.byte	0x11
	.2byte	0x235
	.byte	0x11
	.4byte	0x229e
	.uleb128 0x20
	.4byte	.LASF840
	.byte	0x11
	.2byte	0x236
	.byte	0x12
	.4byte	0x22a4
	.uleb128 0x20
	.4byte	.LASF841
	.byte	0x11
	.2byte	0x237
	.byte	0x12
	.4byte	0x22a4
	.uleb128 0x20
	.4byte	.LASF842
	.byte	0x11
	.2byte	0x238
	.byte	0xf
	.4byte	0x22aa
	.uleb128 0x20
	.4byte	.LASF814
	.byte	0x11
	.2byte	0x239
	.byte	0xf
	.4byte	0x1f88
	.uleb128 0x20
	.4byte	.LASF843
	.byte	0x11
	.2byte	0x23a
	.byte	0x12
	.4byte	0x22b0
	.uleb128 0x20
	.4byte	.LASF844
	.byte	0x11
	.2byte	0x23b
	.byte	0x11
	.4byte	0x22b6
	.uleb128 0x21
	.ascii	"mdc\000"
	.byte	0x11
	.2byte	0x23c
	.byte	0xc
	.4byte	0x22bc
	.uleb128 0x20
	.4byte	.LASF845
	.byte	0x11
	.2byte	0x23d
	.byte	0x11
	.4byte	0x22c2
	.uleb128 0x20
	.4byte	.LASF846
	.byte	0x11
	.2byte	0x23e
	.byte	0x1a
	.4byte	0x22c8
	.byte	0
	.uleb128 0x6
	.byte	0x4
	.4byte	0x16ac
	.uleb128 0x6
	.byte	0x4
	.4byte	0x1723
	.uleb128 0x6
	.byte	0x4
	.4byte	0x177a
	.uleb128 0x6
	.byte	0x4
	.4byte	0x1a5d
	.uleb128 0x6
	.byte	0x4
	.4byte	0x1fa4
	.uleb128 0x6
	.byte	0x4
	.4byte	0x1fd8
	.uleb128 0x6
	.byte	0x4
	.4byte	0x2028
	.uleb128 0x6
	.byte	0x4
	.4byte	0x20be
	.uleb128 0x6
	.byte	0x4
	.4byte	0x20f4
	.uleb128 0x6
	.byte	0x4
	.4byte	0x217c
	.uleb128 0x6
	.byte	0x4
	.4byte	0x21be
	.uleb128 0x1b
	.4byte	.LASF847
	.byte	0x18
	.byte	0x11
	.2byte	0x28d
	.byte	0x8
	.4byte	0x2323
	.uleb128 0x16
	.ascii	"inp\000"
	.byte	0x11
	.2byte	0x28f
	.byte	0xb
	.4byte	0x12b8
	.byte	0
	.uleb128 0x17
	.4byte	.LASF848
	.byte	0x11
	.2byte	0x290
	.byte	0x18
	.4byte	0x158f
	.byte	0x4
	.uleb128 0x17
	.4byte	.LASF849
	.byte	0x11
	.2byte	0x291
	.byte	0x7
	.4byte	0x7c
	.byte	0xc
	.uleb128 0x17
	.4byte	.LASF850
	.byte	0x11
	.2byte	0x292
	.byte	0x7
	.4byte	0x7c
	.byte	0x10
	.uleb128 0x17
	.4byte	.LASF851
	.byte	0x11
	.2byte	0x293
	.byte	0x10
	.4byte	0x25
	.byte	0x14
	.byte	0
	.uleb128 0xb
	.byte	0x7
	.byte	0x1
	.4byte	0x3f
	.byte	0x12
	.byte	0x22
	.byte	0x3
	.4byte	0x2596
	.uleb128 0xc
	.4byte	.LASF852
	.byte	0
	.uleb128 0xc
	.4byte	.LASF853
	.byte	0x1
	.uleb128 0xc
	.4byte	.LASF854
	.byte	0x2
	.uleb128 0xc
	.4byte	.LASF855
	.byte	0x3
	.uleb128 0xc
	.4byte	.LASF856
	.byte	0x4
	.uleb128 0xc
	.4byte	.LASF857
	.byte	0x5
	.uleb128 0xc
	.4byte	.LASF858
	.byte	0x6
	.uleb128 0xc
	.4byte	.LASF859
	.byte	0x7
	.uleb128 0xc
	.4byte	.LASF860
	.byte	0x8
	.uleb128 0xc
	.4byte	.LASF861
	.byte	0x9
	.uleb128 0xc
	.4byte	.LASF862
	.byte	0xa
	.uleb128 0xc
	.4byte	.LASF863
	.byte	0xb
	.uleb128 0xc
	.4byte	.LASF864
	.byte	0xc
	.uleb128 0xc
	.4byte	.LASF865
	.byte	0xd
	.uleb128 0xc
	.4byte	.LASF866
	.byte	0xe
	.uleb128 0xc
	.4byte	.LASF867
	.byte	0xf
	.uleb128 0xc
	.4byte	.LASF868
	.byte	0x10
	.uleb128 0xc
	.4byte	.LASF869
	.byte	0x11
	.uleb128 0xc
	.4byte	.LASF870
	.byte	0x12
	.uleb128 0xc
	.4byte	.LASF871
	.byte	0x13
	.uleb128 0xc
	.4byte	.LASF872
	.byte	0x14
	.uleb128 0xc
	.4byte	.LASF873
	.byte	0x15
	.uleb128 0xc
	.4byte	.LASF874
	.byte	0x16
	.uleb128 0xc
	.4byte	.LASF875
	.byte	0x17
	.uleb128 0xc
	.4byte	.LASF876
	.byte	0x18
	.uleb128 0xc
	.4byte	.LASF877
	.byte	0x19
	.uleb128 0xc
	.4byte	.LASF878
	.byte	0x1a
	.uleb128 0xc
	.4byte	.LASF879
	.byte	0x1b
	.uleb128 0xc
	.4byte	.LASF880
	.byte	0x1c
	.uleb128 0xc
	.4byte	.LASF881
	.byte	0x1d
	.uleb128 0xc
	.4byte	.LASF882
	.byte	0x1e
	.uleb128 0xc
	.4byte	.LASF883
	.byte	0x1f
	.uleb128 0xc
	.4byte	.LASF884
	.byte	0x20
	.uleb128 0xc
	.4byte	.LASF885
	.byte	0x21
	.uleb128 0xc
	.4byte	.LASF886
	.byte	0x22
	.uleb128 0xc
	.4byte	.LASF887
	.byte	0x23
	.uleb128 0xc
	.4byte	.LASF888
	.byte	0x24
	.uleb128 0xc
	.4byte	.LASF889
	.byte	0x25
	.uleb128 0xc
	.4byte	.LASF890
	.byte	0x26
	.uleb128 0xc
	.4byte	.LASF891
	.byte	0x27
	.uleb128 0xc
	.4byte	.LASF892
	.byte	0x28
	.uleb128 0xc
	.4byte	.LASF893
	.byte	0x29
	.uleb128 0xc
	.4byte	.LASF894
	.byte	0x2a
	.uleb128 0xc
	.4byte	.LASF895
	.byte	0x2b
	.uleb128 0xc
	.4byte	.LASF896
	.byte	0x2c
	.uleb128 0xc
	.4byte	.LASF897
	.byte	0x2d
	.uleb128 0xc
	.4byte	.LASF898
	.byte	0x2e
	.uleb128 0xc
	.4byte	.LASF899
	.byte	0x2f
	.uleb128 0xc
	.4byte	.LASF900
	.byte	0x30
	.uleb128 0xc
	.4byte	.LASF901
	.byte	0x31
	.uleb128 0xc
	.4byte	.LASF902
	.byte	0x32
	.uleb128 0xc
	.4byte	.LASF903
	.byte	0x33
	.uleb128 0xc
	.4byte	.LASF904
	.byte	0x34
	.uleb128 0xc
	.4byte	.LASF905
	.byte	0x35
	.uleb128 0xc
	.4byte	.LASF906
	.byte	0x36
	.uleb128 0xc
	.4byte	.LASF907
	.byte	0x37
	.uleb128 0xc
	.4byte	.LASF908
	.byte	0x38
	.uleb128 0xc
	.4byte	.LASF909
	.byte	0x39
	.uleb128 0xc
	.4byte	.LASF910
	.byte	0x3a
	.uleb128 0xc
	.4byte	.LASF911
	.byte	0x3b
	.uleb128 0xc
	.4byte	.LASF912
	.byte	0x3c
	.uleb128 0xc
	.4byte	.LASF913
	.byte	0x3d
	.uleb128 0xc
	.4byte	.LASF914
	.byte	0x3e
	.uleb128 0xc
	.4byte	.LASF915
	.byte	0x3f
	.uleb128 0xc
	.4byte	.LASF916
	.byte	0x40
	.uleb128 0xc
	.4byte	.LASF917
	.byte	0x41
	.uleb128 0xc
	.4byte	.LASF918
	.byte	0x42
	.uleb128 0xc
	.4byte	.LASF919
	.byte	0x43
	.uleb128 0xc
	.4byte	.LASF920
	.byte	0x44
	.uleb128 0xc
	.4byte	.LASF921
	.byte	0x45
	.uleb128 0xc
	.4byte	.LASF922
	.byte	0x46
	.uleb128 0xc
	.4byte	.LASF923
	.byte	0x47
	.uleb128 0xc
	.4byte	.LASF924
	.byte	0x48
	.uleb128 0xc
	.4byte	.LASF925
	.byte	0x49
	.uleb128 0xc
	.4byte	.LASF926
	.byte	0x4a
	.uleb128 0xc
	.4byte	.LASF927
	.byte	0x4b
	.uleb128 0xc
	.4byte	.LASF928
	.byte	0x4c
	.uleb128 0xc
	.4byte	.LASF929
	.byte	0x4d
	.uleb128 0xc
	.4byte	.LASF930
	.byte	0x4e
	.uleb128 0xc
	.4byte	.LASF931
	.byte	0x4f
	.uleb128 0xc
	.4byte	.LASF932
	.byte	0x50
	.uleb128 0xc
	.4byte	.LASF933
	.byte	0x51
	.uleb128 0xc
	.4byte	.LASF934
	.byte	0x52
	.uleb128 0xc
	.4byte	.LASF935
	.byte	0x53
	.uleb128 0xc
	.4byte	.LASF936
	.byte	0x54
	.uleb128 0xc
	.4byte	.LASF937
	.byte	0x55
	.uleb128 0xc
	.4byte	.LASF938
	.byte	0x56
	.uleb128 0xc
	.4byte	.LASF939
	.byte	0x57
	.uleb128 0xc
	.4byte	.LASF940
	.byte	0x58
	.uleb128 0xc
	.4byte	.LASF941
	.byte	0x59
	.uleb128 0xc
	.4byte	.LASF942
	.byte	0x5a
	.uleb128 0xc
	.4byte	.LASF943
	.byte	0x5b
	.uleb128 0xc
	.4byte	.LASF944
	.byte	0x5c
	.uleb128 0xc
	.4byte	.LASF945
	.byte	0x5d
	.uleb128 0xc
	.4byte	.LASF946
	.byte	0x5e
	.uleb128 0xc
	.4byte	.LASF947
	.byte	0x5f
	.uleb128 0xc
	.4byte	.LASF948
	.byte	0x60
	.uleb128 0xc
	.4byte	.LASF949
	.byte	0x61
	.uleb128 0xc
	.4byte	.LASF950
	.byte	0x62
	.uleb128 0xc
	.4byte	.LASF951
	.byte	0x63
	.uleb128 0xc
	.4byte	.LASF952
	.byte	0x64
	.uleb128 0xc
	.4byte	.LASF953
	.byte	0x65
	.byte	0
	.uleb128 0x15
	.4byte	.LASF955
	.byte	0x7
	.byte	0x1
	.4byte	0x3f
	.byte	0x13
	.byte	0x28
	.byte	0x6
	.4byte	0x25d3
	.uleb128 0xc
	.4byte	.LASF956
	.byte	0
	.uleb128 0xc
	.4byte	.LASF957
	.byte	0x1
	.uleb128 0xc
	.4byte	.LASF958
	.byte	0x2
	.uleb128 0xc
	.4byte	.LASF959
	.byte	0x3
	.uleb128 0xc
	.4byte	.LASF960
	.byte	0x4
	.uleb128 0xc
	.4byte	.LASF961
	.byte	0x5
	.uleb128 0xc
	.4byte	.LASF962
	.byte	0x6
	.byte	0
	.uleb128 0xe
	.byte	0x5c
	.byte	0x14
	.byte	0xc
	.byte	0x9
	.4byte	0x2604
	.uleb128 0x10
	.4byte	.LASF963
	.byte	0x14
	.byte	0xe
	.byte	0xe
	.4byte	0x2604
	.byte	0
	.uleb128 0x10
	.4byte	.LASF721
	.byte	0x14
	.byte	0xf
	.byte	0xe
	.4byte	0x2614
	.byte	0x14
	.uleb128 0x10
	.4byte	.LASF964
	.byte	0x14
	.byte	0x10
	.byte	0x13
	.4byte	0x2624
	.byte	0x1c
	.byte	0
	.uleb128 0x9
	.4byte	0xd9
	.4byte	0x2614
	.uleb128 0xa
	.4byte	0x25
	.byte	0x4
	.byte	0
	.uleb128 0x9
	.4byte	0xd9
	.4byte	0x2624
	.uleb128 0xa
	.4byte	0x25
	.byte	0x1
	.byte	0
	.uleb128 0x9
	.4byte	0x3f
	.4byte	0x2634
	.uleb128 0xa
	.4byte	0x25
	.byte	0x3f
	.byte	0
	.uleb128 0x3
	.4byte	.LASF965
	.byte	0x14
	.byte	0x11
	.byte	0x3
	.4byte	0x25d3
	.uleb128 0x11
	.4byte	.LASF966
	.byte	0x14
	.byte	0x1
	.byte	0x33
	.byte	0x8
	.4byte	0x2682
	.uleb128 0x10
	.4byte	.LASF45
	.byte	0x1
	.byte	0x35
	.byte	0x18
	.4byte	0x2682
	.byte	0
	.uleb128 0xf
	.ascii	"kid\000"
	.byte	0x1
	.byte	0x36
	.byte	0x7
	.4byte	0x1703
	.byte	0x4
	.uleb128 0x10
	.4byte	.LASF730
	.byte	0x1
	.byte	0x37
	.byte	0x7
	.4byte	0x7c
	.byte	0xc
	.uleb128 0x10
	.4byte	.LASF967
	.byte	0x1
	.byte	0x38
	.byte	0x7
	.4byte	0x7c
	.byte	0x10
	.byte	0
	.uleb128 0x6
	.byte	0x4
	.4byte	0x2640
	.uleb128 0x11
	.4byte	.LASF968
	.byte	0x10
	.byte	0x1
	.byte	0x3c
	.byte	0x8
	.4byte	0x26ca
	.uleb128 0x10
	.4byte	.LASF45
	.byte	0x1
	.byte	0x3e
	.byte	0x18
	.4byte	0x26ca
	.byte	0
	.uleb128 0x10
	.4byte	.LASF724
	.byte	0x1
	.byte	0x3f
	.byte	0x7
	.4byte	0x7c
	.byte	0x4
	.uleb128 0x10
	.4byte	.LASF969
	.byte	0x1
	.byte	0x40
	.byte	0x7
	.4byte	0x7c
	.byte	0x8
	.uleb128 0x10
	.4byte	.LASF970
	.byte	0x1
	.byte	0x41
	.byte	0x7
	.4byte	0x7c
	.byte	0xc
	.byte	0
	.uleb128 0x6
	.byte	0x4
	.4byte	0x2688
	.uleb128 0x8
	.ascii	"CTX\000"
	.byte	0x1
	.byte	0x47
	.byte	0x22
	.4byte	0x26dc
	.uleb128 0x6
	.byte	0x4
	.4byte	0x26e2
	.uleb128 0x11
	.4byte	.LASF971
	.byte	0x60
	.byte	0x1
	.byte	0x48
	.byte	0x8
	.4byte	0x280e
	.uleb128 0x10
	.4byte	.LASF972
	.byte	0x1
	.byte	0x4a
	.byte	0xa
	.4byte	0x2a5
	.byte	0
	.uleb128 0x10
	.4byte	.LASF973
	.byte	0x1
	.byte	0x4b
	.byte	0x1c
	.4byte	0x26dc
	.byte	0x4
	.uleb128 0x10
	.4byte	.LASF974
	.byte	0x1
	.byte	0x4c
	.byte	0x13
	.4byte	0x22a4
	.byte	0x8
	.uleb128 0x10
	.4byte	.LASF975
	.byte	0x1
	.byte	0x4d
	.byte	0x10
	.4byte	0x1f88
	.byte	0xc
	.uleb128 0x10
	.4byte	.LASF976
	.byte	0x1
	.byte	0x4f
	.byte	0x7
	.4byte	0x7c
	.byte	0x10
	.uleb128 0x10
	.4byte	.LASF977
	.byte	0x1
	.byte	0x50
	.byte	0x7
	.4byte	0x7c
	.byte	0x14
	.uleb128 0x10
	.4byte	.LASF978
	.byte	0x1
	.byte	0x55
	.byte	0xf
	.4byte	0xc2
	.byte	0x18
	.uleb128 0x10
	.4byte	.LASF979
	.byte	0x1
	.byte	0x56
	.byte	0xa
	.4byte	0x83
	.byte	0x1c
	.uleb128 0x10
	.4byte	.LASF980
	.byte	0x1
	.byte	0x63
	.byte	0x5
	.4byte	0x280e
	.byte	0x20
	.uleb128 0xf
	.ascii	"dek\000"
	.byte	0x1
	.byte	0x65
	.byte	0x8
	.4byte	0x14b7
	.byte	0x2c
	.uleb128 0x10
	.4byte	.LASF39
	.byte	0x1
	.byte	0x67
	.byte	0x9
	.4byte	0xb0
	.byte	0x30
	.uleb128 0x10
	.4byte	.LASF40
	.byte	0x1
	.byte	0x68
	.byte	0x9
	.4byte	0xb0
	.byte	0x34
	.uleb128 0x10
	.4byte	.LASF981
	.byte	0x1
	.byte	0x69
	.byte	0x7
	.4byte	0x7c
	.byte	0x38
	.uleb128 0x10
	.4byte	.LASF982
	.byte	0x1
	.byte	0x6a
	.byte	0xc
	.4byte	0x181
	.byte	0x3c
	.uleb128 0x10
	.4byte	.LASF983
	.byte	0x1
	.byte	0x6b
	.byte	0xb
	.4byte	0x12b8
	.byte	0x40
	.uleb128 0x10
	.4byte	.LASF984
	.byte	0x1
	.byte	0x6c
	.byte	0x7
	.4byte	0x7c
	.byte	0x44
	.uleb128 0x10
	.4byte	.LASF985
	.byte	0x1
	.byte	0x6d
	.byte	0x9
	.4byte	0xe5
	.byte	0x48
	.uleb128 0x10
	.4byte	.LASF986
	.byte	0x1
	.byte	0x6e
	.byte	0x18
	.4byte	0x2682
	.byte	0x4c
	.uleb128 0x10
	.4byte	.LASF987
	.byte	0x1
	.byte	0x6f
	.byte	0x18
	.4byte	0x26ca
	.byte	0x50
	.uleb128 0x10
	.4byte	.LASF988
	.byte	0x1
	.byte	0x70
	.byte	0x7
	.4byte	0x7c
	.byte	0x54
	.uleb128 0x10
	.4byte	.LASF989
	.byte	0x1
	.byte	0x71
	.byte	0x7
	.4byte	0x7c
	.byte	0x58
	.uleb128 0xf
	.ascii	"any\000"
	.byte	0x1
	.byte	0x78
	.byte	0x5
	.4byte	0x283f
	.byte	0x5c
	.byte	0
	.uleb128 0xe
	.byte	0xc
	.byte	0x1
	.byte	0x59
	.byte	0x3
	.4byte	0x283f
	.uleb128 0x10
	.4byte	.LASF990
	.byte	0x1
	.byte	0x5c
	.byte	0x9
	.4byte	0x7c
	.byte	0
	.uleb128 0x10
	.4byte	.LASF991
	.byte	0x1
	.byte	0x5f
	.byte	0xf
	.4byte	0x299
	.byte	0x4
	.uleb128 0x10
	.4byte	.LASF992
	.byte	0x1
	.byte	0x62
	.byte	0x9
	.4byte	0x7c
	.byte	0x8
	.byte	0
	.uleb128 0xe
	.byte	0x4
	.byte	0x1
	.byte	0x72
	.byte	0x3
	.4byte	0x2879
	.uleb128 0x1a
	.4byte	.LASF993
	.byte	0x1
	.byte	0x74
	.byte	0x12
	.4byte	0x25
	.byte	0x4
	.byte	0x1
	.byte	0x1f
	.byte	0
	.uleb128 0x1a
	.4byte	.LASF732
	.byte	0x1
	.byte	0x76
	.byte	0x12
	.4byte	0x25
	.byte	0x4
	.byte	0x1
	.byte	0x1e
	.byte	0
	.uleb128 0x1a
	.4byte	.LASF994
	.byte	0x1
	.byte	0x77
	.byte	0x12
	.4byte	0x25
	.byte	0x4
	.byte	0x1
	.byte	0x1d
	.byte	0
	.byte	0
	.uleb128 0x22
	.4byte	.LASF995
	.byte	0x1
	.byte	0x7e
	.byte	0xc
	.4byte	0x7c
	.uleb128 0x5
	.byte	0x3
	.4byte	literals_seen
	.uleb128 0x23
	.4byte	.LASF1055
	.byte	0x1
	.2byte	0x773
	.byte	0x1
	.4byte	0x7c
	.4byte	.LFB31
	.4byte	.LFE31-.LFB31
	.uleb128 0x1
	.byte	0x9c
	.4byte	0x2e4b
	.uleb128 0x24
	.4byte	.LASF972
	.byte	0x1
	.2byte	0x773
	.byte	0x18
	.4byte	0x2a5
	.4byte	.LLST32
	.4byte	.LVUS32
	.uleb128 0x25
	.ascii	"c\000"
	.byte	0x1
	.2byte	0x773
	.byte	0x22
	.4byte	0x26d0
	.4byte	.LLST33
	.4byte	.LVUS33
	.uleb128 0x25
	.ascii	"a\000"
	.byte	0x1
	.2byte	0x773
	.byte	0x2d
	.4byte	0x12b8
	.4byte	.LLST34
	.4byte	.LVUS34
	.uleb128 0x26
	.ascii	"pkt\000"
	.byte	0x1
	.2byte	0x789
	.byte	0xb
	.4byte	0x2e4b
	.4byte	.LLST35
	.4byte	.LVUS35
	.uleb128 0x27
	.4byte	.LASF996
	.byte	0x1
	.2byte	0x78a
	.byte	0x1d
	.4byte	0x22ce
	.uleb128 0x2
	.byte	0x91
	.sleb128 -64
	.uleb128 0x26
	.ascii	"rc\000"
	.byte	0x1
	.2byte	0x78b
	.byte	0x7
	.4byte	0x7c
	.4byte	.LLST36
	.4byte	.LVUS36
	.uleb128 0x28
	.4byte	.LASF997
	.byte	0x1
	.2byte	0x78c
	.byte	0x7
	.4byte	0x7c
	.4byte	.LLST37
	.4byte	.LVUS37
	.uleb128 0x28
	.4byte	.LASF998
	.byte	0x1
	.2byte	0x78d
	.byte	0x7
	.4byte	0x7c
	.4byte	.LLST38
	.4byte	.LVUS38
	.uleb128 0x29
	.4byte	.LASF999
	.byte	0x1
	.2byte	0x793
	.byte	0x9
	.4byte	0x7c
	.4byte	0x2957
	.uleb128 0x2a
	.byte	0
	.uleb128 0x2b
	.4byte	.LASF1056
	.byte	0x1
	.2byte	0x82a
	.byte	0x1
	.4byte	.L67
	.uleb128 0x29
	.4byte	.LASF1000
	.byte	0x1
	.2byte	0x4b6
	.byte	0x3
	.4byte	0x7c
	.4byte	0x2977
	.uleb128 0x2a
	.byte	0
	.uleb128 0x2c
	.4byte	0x3749
	.4byte	.LBI87
	.2byte	.LVU261
	.4byte	.LBB87
	.4byte	.LBE87-.LBB87
	.byte	0x1
	.2byte	0x77c
	.byte	0x5
	.4byte	0x29ad
	.uleb128 0x2d
	.4byte	0x3762
	.4byte	.LLST39
	.4byte	.LVUS39
	.uleb128 0x2d
	.4byte	0x3756
	.4byte	.LLST40
	.4byte	.LVUS40
	.byte	0
	.uleb128 0x2c
	.4byte	0x3749
	.4byte	.LBI89
	.2byte	.LVU278
	.4byte	.LBB89
	.4byte	.LBE89-.LBB89
	.byte	0x1
	.2byte	0x782
	.byte	0x5
	.4byte	0x29e3
	.uleb128 0x2d
	.4byte	0x3762
	.4byte	.LLST41
	.4byte	.LVUS41
	.uleb128 0x2d
	.4byte	0x3756
	.4byte	.LLST42
	.4byte	.LVUS42
	.byte	0
	.uleb128 0x2e
	.4byte	0x2e51
	.4byte	.LBI91
	.2byte	.LVU294
	.4byte	.Ldebug_ranges0+0xe0
	.byte	0x1
	.2byte	0x78f
	.byte	0x8
	.4byte	0x2a34
	.uleb128 0x2d
	.4byte	0x2e63
	.4byte	.LLST43
	.4byte	.LVUS43
	.uleb128 0x2f
	.4byte	.Ldebug_ranges0+0xe0
	.uleb128 0x30
	.4byte	0x2e6e
	.4byte	.LLST44
	.4byte	.LVUS44
	.uleb128 0x31
	.4byte	.LVL142
	.4byte	0x37dc
	.uleb128 0x32
	.4byte	.LVL143
	.4byte	0x37dc
	.uleb128 0x33
	.uleb128 0x1
	.byte	0x50
	.uleb128 0x2
	.byte	0x8
	.byte	0x3c
	.byte	0
	.byte	0
	.byte	0
	.uleb128 0x2e
	.4byte	0x3062
	.4byte	.LBI94
	.2byte	.LVU378
	.4byte	.Ldebug_ranges0+0xf8
	.byte	0x1
	.2byte	0x7e0
	.byte	0x9
	.4byte	0x2bfe
	.uleb128 0x2d
	.4byte	0x307b
	.4byte	.LLST45
	.4byte	.LVUS45
	.uleb128 0x34
	.4byte	0x3070
	.uleb128 0x2f
	.4byte	.Ldebug_ranges0+0xf8
	.uleb128 0x30
	.4byte	0x3088
	.4byte	.LLST46
	.4byte	.LVUS46
	.uleb128 0x30
	.4byte	0x3095
	.4byte	.LLST47
	.4byte	.LVUS47
	.uleb128 0x30
	.4byte	0x30a2
	.4byte	.LLST48
	.4byte	.LVUS48
	.uleb128 0x35
	.4byte	0x30c2
	.4byte	.Ldebug_ranges0+0x150
	.4byte	0x2ab8
	.uleb128 0x36
	.4byte	0x30c7
	.uleb128 0x3
	.byte	0x91
	.sleb128 -68
	.uleb128 0x32
	.4byte	.LVL109
	.4byte	0x37e8
	.uleb128 0x33
	.uleb128 0x1
	.byte	0x51
	.uleb128 0x2
	.byte	0x74
	.sleb128 0
	.uleb128 0x33
	.uleb128 0x2
	.byte	0x7d
	.sleb128 0
	.uleb128 0x3
	.byte	0x91
	.sleb128 -76
	.byte	0
	.byte	0
	.uleb128 0x2c
	.4byte	0x376f
	.4byte	.LBI98
	.2byte	.LVU512
	.4byte	.LBB98
	.4byte	.LBE98-.LBB98
	.byte	0x1
	.2byte	0x478
	.byte	0x18
	.4byte	0x2ae1
	.uleb128 0x2d
	.4byte	0x3781
	.4byte	.LLST49
	.4byte	.LVUS49
	.byte	0
	.uleb128 0x37
	.4byte	.LVL106
	.4byte	0x37dc
	.4byte	0x2af5
	.uleb128 0x33
	.uleb128 0x1
	.byte	0x50
	.uleb128 0x2
	.byte	0x79
	.sleb128 0
	.byte	0
	.uleb128 0x31
	.4byte	.LVL108
	.4byte	0x37dc
	.uleb128 0x37
	.4byte	.LVL111
	.4byte	0x37dc
	.4byte	0x2b12
	.uleb128 0x33
	.uleb128 0x1
	.byte	0x51
	.uleb128 0x2
	.byte	0x7a
	.sleb128 0
	.byte	0
	.uleb128 0x37
	.4byte	.LVL113
	.4byte	0x37dc
	.4byte	0x2b25
	.uleb128 0x33
	.uleb128 0x1
	.byte	0x50
	.uleb128 0x1
	.byte	0x48
	.byte	0
	.uleb128 0x31
	.4byte	.LVL114
	.4byte	0x37dc
	.uleb128 0x31
	.4byte	.LVL115
	.4byte	0x37f5
	.uleb128 0x37
	.4byte	.LVL116
	.4byte	0x3802
	.4byte	0x2b51
	.uleb128 0x33
	.uleb128 0x1
	.byte	0x50
	.uleb128 0x2
	.byte	0x75
	.sleb128 0
	.uleb128 0x33
	.uleb128 0x1
	.byte	0x51
	.uleb128 0x2
	.byte	0x7a
	.sleb128 0
	.byte	0
	.uleb128 0x37
	.4byte	.LVL117
	.4byte	0x37dc
	.4byte	0x2b65
	.uleb128 0x33
	.uleb128 0x1
	.byte	0x50
	.uleb128 0x2
	.byte	0x8
	.byte	0x2a
	.byte	0
	.uleb128 0x31
	.4byte	.LVL131
	.4byte	0x37dc
	.uleb128 0x31
	.4byte	.LVL132
	.4byte	0x37dc
	.uleb128 0x37
	.4byte	.LVL133
	.4byte	0x37dc
	.4byte	0x2b8b
	.uleb128 0x33
	.uleb128 0x1
	.byte	0x51
	.uleb128 0x2
	.byte	0x8
	.byte	0x59
	.byte	0
	.uleb128 0x37
	.4byte	.LVL138
	.4byte	0x37dc
	.4byte	0x2b9e
	.uleb128 0x33
	.uleb128 0x1
	.byte	0x50
	.uleb128 0x1
	.byte	0x49
	.byte	0
	.uleb128 0x31
	.4byte	.LVL139
	.4byte	0x37dc
	.uleb128 0x31
	.4byte	.LVL140
	.4byte	0x37dc
	.uleb128 0x31
	.4byte	.LVL155
	.4byte	0x37dc
	.uleb128 0x37
	.4byte	.LVL156
	.4byte	0x37dc
	.4byte	0x2bcc
	.uleb128 0x33
	.uleb128 0x1
	.byte	0x50
	.uleb128 0x1
	.byte	0x4d
	.byte	0
	.uleb128 0x37
	.4byte	.LVL157
	.4byte	0x37dc
	.4byte	0x2bdf
	.uleb128 0x33
	.uleb128 0x1
	.byte	0x50
	.uleb128 0x1
	.byte	0x48
	.byte	0
	.uleb128 0x37
	.4byte	.LVL166
	.4byte	0x37dc
	.4byte	0x2bf3
	.uleb128 0x33
	.uleb128 0x1
	.byte	0x50
	.uleb128 0x2
	.byte	0x8
	.byte	0x61
	.byte	0
	.uleb128 0x31
	.4byte	.LVL168
	.4byte	0x37dc
	.byte	0
	.byte	0
	.uleb128 0x2e
	.4byte	0x30e7
	.4byte	.LBI112
	.2byte	.LVU439
	.4byte	.Ldebug_ranges0+0x168
	.byte	0x1
	.2byte	0x7d8
	.byte	0x9
	.4byte	0x2d33
	.uleb128 0x2d
	.4byte	0x3100
	.4byte	.LLST50
	.4byte	.LVUS50
	.uleb128 0x34
	.4byte	0x30f5
	.uleb128 0x2f
	.4byte	.Ldebug_ranges0+0x168
	.uleb128 0x38
	.4byte	0x310d
	.uleb128 0x30
	.4byte	0x311a
	.4byte	.LLST51
	.4byte	.LVUS51
	.uleb128 0x39
	.4byte	0x3127
	.uleb128 0x35
	.4byte	0x3159
	.4byte	.Ldebug_ranges0+0x188
	.4byte	0x2c8a
	.uleb128 0x30
	.4byte	0x315a
	.4byte	.LLST52
	.4byte	.LVUS52
	.uleb128 0x37
	.4byte	.LVL126
	.4byte	0x380f
	.4byte	0x2c75
	.uleb128 0x33
	.uleb128 0x1
	.byte	0x50
	.uleb128 0x1
	.byte	0x31
	.uleb128 0x33
	.uleb128 0x1
	.byte	0x51
	.uleb128 0x1
	.byte	0x40
	.byte	0
	.uleb128 0x32
	.4byte	.LVL152
	.4byte	0x380f
	.uleb128 0x33
	.uleb128 0x1
	.byte	0x50
	.uleb128 0x1
	.byte	0x31
	.uleb128 0x33
	.uleb128 0x1
	.byte	0x51
	.uleb128 0x1
	.byte	0x40
	.byte	0
	.byte	0
	.uleb128 0x3a
	.4byte	0x3130
	.4byte	.LBB118
	.4byte	.LBE118-.LBB118
	.4byte	0x2d1f
	.uleb128 0x30
	.4byte	0x3135
	.4byte	.LLST53
	.4byte	.LVUS53
	.uleb128 0x30
	.4byte	0x3142
	.4byte	.LLST54
	.4byte	.LVUS54
	.uleb128 0x30
	.4byte	0x314d
	.4byte	.LLST55
	.4byte	.LVUS55
	.uleb128 0x31
	.4byte	.LVL159
	.4byte	0x37dc
	.uleb128 0x31
	.4byte	.LVL161
	.4byte	0x37dc
	.uleb128 0x31
	.4byte	.LVL162
	.4byte	0x37dc
	.uleb128 0x31
	.4byte	.LVL163
	.4byte	0x37dc
	.uleb128 0x32
	.4byte	.LVL164
	.4byte	0x3178
	.uleb128 0x33
	.uleb128 0x1
	.byte	0x50
	.uleb128 0x4
	.byte	0x91
	.sleb128 -84
	.byte	0x6
	.uleb128 0x33
	.uleb128 0x1
	.byte	0x51
	.uleb128 0x2
	.byte	0x7a
	.sleb128 4
	.uleb128 0x33
	.uleb128 0x1
	.byte	0x52
	.uleb128 0x2
	.byte	0x7b
	.sleb128 0
	.uleb128 0x33
	.uleb128 0x1
	.byte	0x53
	.uleb128 0x1
	.byte	0x31
	.uleb128 0x33
	.uleb128 0x2
	.byte	0x7d
	.sleb128 0
	.uleb128 0x2
	.byte	0x7b
	.sleb128 0
	.uleb128 0x33
	.uleb128 0x2
	.byte	0x7d
	.sleb128 4
	.uleb128 0x2
	.byte	0x7b
	.sleb128 0
	.uleb128 0x33
	.uleb128 0x2
	.byte	0x7d
	.sleb128 8
	.uleb128 0x2
	.byte	0x7b
	.sleb128 0
	.byte	0
	.byte	0
	.uleb128 0x31
	.4byte	.LVL124
	.4byte	0x37dc
	.uleb128 0x31
	.4byte	.LVL151
	.4byte	0x37dc
	.byte	0
	.byte	0
	.uleb128 0x31
	.4byte	.LVL77
	.4byte	0x37dc
	.uleb128 0x31
	.4byte	.LVL78
	.4byte	0x381c
	.uleb128 0x31
	.4byte	.LVL79
	.4byte	0x3828
	.uleb128 0x31
	.4byte	.LVL83
	.4byte	0x381c
	.uleb128 0x31
	.4byte	.LVL84
	.4byte	0x3828
	.uleb128 0x37
	.4byte	.LVL93
	.4byte	0x3834
	.4byte	0x2d73
	.uleb128 0x33
	.uleb128 0x1
	.byte	0x50
	.uleb128 0x1
	.byte	0x38
	.byte	0
	.uleb128 0x37
	.4byte	.LVL98
	.4byte	0x3841
	.4byte	0x2d9a
	.uleb128 0x33
	.uleb128 0x1
	.byte	0x50
	.uleb128 0x2
	.byte	0x76
	.sleb128 0
	.uleb128 0x33
	.uleb128 0x1
	.byte	0x51
	.uleb128 0x2
	.byte	0x75
	.sleb128 0
	.uleb128 0x33
	.uleb128 0x1
	.byte	0x52
	.uleb128 0x2
	.byte	0x77
	.sleb128 0
	.uleb128 0x33
	.uleb128 0x1
	.byte	0x53
	.uleb128 0x3
	.byte	0xa
	.2byte	0x797
	.byte	0
	.uleb128 0x37
	.4byte	.LVL102
	.4byte	0x37dc
	.4byte	0x2dae
	.uleb128 0x33
	.uleb128 0x1
	.byte	0x50
	.uleb128 0x2
	.byte	0x78
	.sleb128 0
	.byte	0
	.uleb128 0x37
	.4byte	.LVL104
	.4byte	0x3802
	.4byte	0x2dc8
	.uleb128 0x33
	.uleb128 0x1
	.byte	0x50
	.uleb128 0x2
	.byte	0x75
	.sleb128 0
	.uleb128 0x33
	.uleb128 0x1
	.byte	0x51
	.uleb128 0x2
	.byte	0x76
	.sleb128 0
	.byte	0
	.uleb128 0x31
	.4byte	.LVL120
	.4byte	0x37f5
	.uleb128 0x37
	.4byte	.LVL121
	.4byte	0x3802
	.4byte	0x2deb
	.uleb128 0x33
	.uleb128 0x1
	.byte	0x50
	.uleb128 0x2
	.byte	0x75
	.sleb128 0
	.uleb128 0x33
	.uleb128 0x1
	.byte	0x51
	.uleb128 0x2
	.byte	0x76
	.sleb128 0
	.byte	0
	.uleb128 0x37
	.4byte	.LVL122
	.4byte	0x37f5
	.4byte	0x2dff
	.uleb128 0x33
	.uleb128 0x1
	.byte	0x50
	.uleb128 0x2
	.byte	0x75
	.sleb128 0
	.byte	0
	.uleb128 0x31
	.4byte	.LVL129
	.4byte	0x37dc
	.uleb128 0x37
	.4byte	.LVL135
	.4byte	0x3802
	.4byte	0x2e21
	.uleb128 0x33
	.uleb128 0x1
	.byte	0x50
	.uleb128 0x1
	.byte	0x30
	.uleb128 0x33
	.uleb128 0x1
	.byte	0x51
	.uleb128 0x2
	.byte	0x76
	.sleb128 0
	.byte	0
	.uleb128 0x37
	.4byte	.LVL146
	.4byte	0x37dc
	.4byte	0x2e34
	.uleb128 0x33
	.uleb128 0x1
	.byte	0x50
	.uleb128 0x1
	.byte	0x41
	.byte	0
	.uleb128 0x32
	.4byte	.LVL149
	.4byte	0x3802
	.uleb128 0x33
	.uleb128 0x1
	.byte	0x50
	.uleb128 0x2
	.byte	0x75
	.sleb128 0
	.uleb128 0x33
	.uleb128 0x1
	.byte	0x51
	.uleb128 0x2
	.byte	0x76
	.sleb128 0
	.byte	0
	.byte	0
	.uleb128 0x6
	.byte	0x4
	.4byte	0x1583
	.uleb128 0x3b
	.4byte	.LASF1026
	.byte	0x1
	.2byte	0x761
	.byte	0x1
	.4byte	0x7c
	.byte	0x1
	.4byte	0x2e7c
	.uleb128 0x3c
	.ascii	"c\000"
	.byte	0x1
	.2byte	0x761
	.byte	0x13
	.4byte	0x26d0
	.uleb128 0x3d
	.4byte	.LASF1004
	.byte	0x1
	.2byte	0x763
	.byte	0x7
	.4byte	0x7c
	.byte	0
	.uleb128 0x3e
	.4byte	.LASF1002
	.byte	0x1
	.2byte	0x74d
	.byte	0x5
	.4byte	0x7c
	.4byte	.LFB29
	.4byte	.LFE29-.LFB29
	.uleb128 0x1
	.byte	0x9c
	.4byte	0x2f6f
	.uleb128 0x24
	.4byte	.LASF972
	.byte	0x1
	.2byte	0x74d
	.byte	0x24
	.4byte	0x2a5
	.4byte	.LLST61
	.4byte	.LVUS61
	.uleb128 0x24
	.4byte	.LASF973
	.byte	0x1
	.2byte	0x74d
	.byte	0x30
	.4byte	0x96
	.4byte	.LLST62
	.4byte	.LVUS62
	.uleb128 0x25
	.ascii	"a\000"
	.byte	0x1
	.2byte	0x74d
	.byte	0x40
	.4byte	0x12b8
	.4byte	.LLST63
	.4byte	.LVUS63
	.uleb128 0x26
	.ascii	"c\000"
	.byte	0x1
	.2byte	0x751
	.byte	0x7
	.4byte	0x26d0
	.4byte	.LLST64
	.4byte	.LVUS64
	.uleb128 0x29
	.4byte	.LASF1001
	.byte	0x1
	.2byte	0x244
	.byte	0x9
	.4byte	0x7c
	.4byte	0x2efa
	.uleb128 0x2a
	.byte	0
	.uleb128 0x26
	.ascii	"rc\000"
	.byte	0x1
	.2byte	0x752
	.byte	0x7
	.4byte	0x7c
	.4byte	.LLST65
	.4byte	.LVUS65
	.uleb128 0x29
	.4byte	.LASF1000
	.byte	0x1
	.2byte	0x4b6
	.byte	0x3
	.4byte	0x7c
	.4byte	0x2f21
	.uleb128 0x2a
	.byte	0
	.uleb128 0x31
	.4byte	.LVL183
	.4byte	0x37dc
	.uleb128 0x37
	.4byte	.LVL184
	.4byte	0x384e
	.4byte	0x2f3e
	.uleb128 0x33
	.uleb128 0x1
	.byte	0x50
	.uleb128 0x2
	.byte	0x8
	.byte	0x60
	.byte	0
	.uleb128 0x37
	.4byte	.LVL187
	.4byte	0x288b
	.4byte	0x2f5e
	.uleb128 0x33
	.uleb128 0x1
	.byte	0x50
	.uleb128 0x2
	.byte	0x76
	.sleb128 0
	.uleb128 0x33
	.uleb128 0x1
	.byte	0x51
	.uleb128 0x2
	.byte	0x74
	.sleb128 0
	.uleb128 0x33
	.uleb128 0x1
	.byte	0x52
	.uleb128 0x2
	.byte	0x75
	.sleb128 0
	.byte	0
	.uleb128 0x32
	.4byte	.LVL190
	.4byte	0x37f5
	.uleb128 0x33
	.uleb128 0x1
	.byte	0x50
	.uleb128 0x2
	.byte	0x74
	.sleb128 0
	.byte	0
	.byte	0
	.uleb128 0x3e
	.4byte	.LASF1003
	.byte	0x1
	.2byte	0x6ee
	.byte	0x5
	.4byte	0x7c
	.4byte	.LFB28
	.4byte	.LFE28-.LFB28
	.uleb128 0x1
	.byte	0x9c
	.4byte	0x3062
	.uleb128 0x24
	.4byte	.LASF972
	.byte	0x1
	.2byte	0x6ee
	.byte	0x19
	.4byte	0x2a5
	.4byte	.LLST56
	.4byte	.LVUS56
	.uleb128 0x24
	.4byte	.LASF973
	.byte	0x1
	.2byte	0x6ee
	.byte	0x25
	.4byte	0x96
	.4byte	.LLST57
	.4byte	.LVUS57
	.uleb128 0x25
	.ascii	"a\000"
	.byte	0x1
	.2byte	0x6ee
	.byte	0x35
	.4byte	0x12b8
	.4byte	.LLST58
	.4byte	.LVUS58
	.uleb128 0x26
	.ascii	"rc\000"
	.byte	0x1
	.2byte	0x6f1
	.byte	0x7
	.4byte	0x7c
	.4byte	.LLST59
	.4byte	.LVUS59
	.uleb128 0x26
	.ascii	"c\000"
	.byte	0x1
	.2byte	0x6f2
	.byte	0x7
	.4byte	0x26d0
	.4byte	.LLST60
	.4byte	.LVUS60
	.uleb128 0x29
	.4byte	.LASF1001
	.byte	0x1
	.2byte	0x244
	.byte	0x9
	.4byte	0x7c
	.4byte	0x3001
	.uleb128 0x2a
	.byte	0
	.uleb128 0x29
	.4byte	.LASF1000
	.byte	0x1
	.2byte	0x4b6
	.byte	0x3
	.4byte	0x7c
	.4byte	0x3014
	.uleb128 0x2a
	.byte	0
	.uleb128 0x31
	.4byte	.LVL171
	.4byte	0x37dc
	.uleb128 0x37
	.4byte	.LVL172
	.4byte	0x384e
	.4byte	0x3031
	.uleb128 0x33
	.uleb128 0x1
	.byte	0x50
	.uleb128 0x2
	.byte	0x8
	.byte	0x60
	.byte	0
	.uleb128 0x37
	.4byte	.LVL175
	.4byte	0x288b
	.4byte	0x3051
	.uleb128 0x33
	.uleb128 0x1
	.byte	0x50
	.uleb128 0x2
	.byte	0x75
	.sleb128 0
	.uleb128 0x33
	.uleb128 0x1
	.byte	0x51
	.uleb128 0x2
	.byte	0x74
	.sleb128 0
	.uleb128 0x33
	.uleb128 0x1
	.byte	0x52
	.uleb128 0x2
	.byte	0x77
	.sleb128 0
	.byte	0
	.uleb128 0x32
	.4byte	.LVL178
	.4byte	0x37f5
	.uleb128 0x33
	.uleb128 0x1
	.byte	0x50
	.uleb128 0x2
	.byte	0x74
	.sleb128 0
	.byte	0
	.byte	0
	.uleb128 0x3f
	.4byte	.LASF1009
	.byte	0x1
	.2byte	0x3b5
	.byte	0x1
	.byte	0x1
	.4byte	0x30e7
	.uleb128 0x3c
	.ascii	"c\000"
	.byte	0x1
	.2byte	0x3b5
	.byte	0x14
	.4byte	0x26d0
	.uleb128 0x3c
	.ascii	"pkt\000"
	.byte	0x1
	.2byte	0x3b5
	.byte	0x1f
	.4byte	0x2e4b
	.uleb128 0x3d
	.4byte	.LASF1005
	.byte	0x1
	.2byte	0x3b8
	.byte	0x7
	.4byte	0x7c
	.uleb128 0x3d
	.4byte	.LASF1006
	.byte	0x1
	.2byte	0x3b9
	.byte	0x7
	.4byte	0x7c
	.uleb128 0x3d
	.4byte	.LASF1007
	.byte	0x1
	.2byte	0x3ba
	.byte	0x10
	.4byte	0x25
	.uleb128 0x29
	.4byte	.LASF1000
	.byte	0x1
	.2byte	0x4b6
	.byte	0x3
	.4byte	0x7c
	.4byte	0x30c2
	.uleb128 0x2a
	.byte	0
	.uleb128 0x40
	.4byte	0x30d5
	.uleb128 0x3d
	.4byte	.LASF1008
	.byte	0x1
	.2byte	0x447
	.byte	0x9
	.4byte	0x7c
	.byte	0
	.uleb128 0x41
	.uleb128 0x42
	.4byte	.LASF1012
	.byte	0x1
	.2byte	0x4b1
	.byte	0x5
	.4byte	0x7c
	.uleb128 0x2a
	.byte	0
	.byte	0
	.byte	0
	.uleb128 0x3f
	.4byte	.LASF1010
	.byte	0x1
	.2byte	0x28a
	.byte	0x1
	.byte	0x1
	.4byte	0x3178
	.uleb128 0x3c
	.ascii	"c\000"
	.byte	0x1
	.2byte	0x28a
	.byte	0x15
	.4byte	0x26d0
	.uleb128 0x3c
	.ascii	"pkt\000"
	.byte	0x1
	.2byte	0x28a
	.byte	0x20
	.4byte	0x2e4b
	.uleb128 0x43
	.ascii	"err\000"
	.byte	0x1
	.2byte	0x28d
	.byte	0xf
	.4byte	0x127a
	.uleb128 0x43
	.ascii	"enc\000"
	.byte	0x1
	.2byte	0x28e
	.byte	0x13
	.4byte	0x228c
	.uleb128 0x44
	.4byte	.LASF1056
	.byte	0x1
	.2byte	0x301
	.byte	0x1
	.uleb128 0x40
	.4byte	0x3159
	.uleb128 0x3d
	.4byte	.LASF680
	.byte	0x1
	.2byte	0x296
	.byte	0x9
	.4byte	0x7c
	.uleb128 0x43
	.ascii	"s\000"
	.byte	0x1
	.2byte	0x297
	.byte	0x11
	.4byte	0xc2
	.uleb128 0x43
	.ascii	"a\000"
	.byte	0x1
	.2byte	0x298
	.byte	0x11
	.4byte	0xc2
	.byte	0
	.uleb128 0x41
	.uleb128 0x3d
	.4byte	.LASF1011
	.byte	0x1
	.2byte	0x304
	.byte	0x1a
	.4byte	0x26ca
	.uleb128 0x42
	.4byte	.LASF1013
	.byte	0x1
	.2byte	0x305
	.byte	0xf
	.4byte	0x7c
	.uleb128 0x2a
	.byte	0
	.byte	0
	.byte	0
	.uleb128 0x3e
	.4byte	.LASF1014
	.byte	0x1
	.2byte	0x1d0
	.byte	0x6
	.4byte	0x14b7
	.4byte	.LFB23
	.4byte	.LFE23-.LFB23
	.uleb128 0x1
	.byte	0x9c
	.4byte	0x344f
	.uleb128 0x24
	.4byte	.LASF724
	.byte	0x1
	.2byte	0x1d0
	.byte	0x1c
	.4byte	0x7c
	.4byte	.LLST18
	.4byte	.LVUS18
	.uleb128 0x25
	.ascii	"s2k\000"
	.byte	0x1
	.2byte	0x1d0
	.byte	0x35
	.4byte	0x344f
	.4byte	.LLST19
	.4byte	.LVUS19
	.uleb128 0x24
	.4byte	.LASF1015
	.byte	0x1
	.2byte	0x1d1
	.byte	0x1c
	.4byte	0x7c
	.4byte	.LLST20
	.4byte	.LVUS20
	.uleb128 0x24
	.4byte	.LASF1016
	.byte	0x1
	.2byte	0x1d1
	.byte	0x28
	.4byte	0x7c
	.4byte	.LLST21
	.4byte	.LVUS21
	.uleb128 0x24
	.4byte	.LASF1017
	.byte	0x1
	.2byte	0x1d2
	.byte	0x24
	.4byte	0xc2
	.4byte	.LLST22
	.4byte	.LVUS22
	.uleb128 0x24
	.4byte	.LASF46
	.byte	0x1
	.2byte	0x1d2
	.byte	0x40
	.4byte	0x25
	.4byte	.LLST23
	.4byte	.LVUS23
	.uleb128 0x24
	.4byte	.LASF1018
	.byte	0x1
	.2byte	0x1d3
	.byte	0x1d
	.4byte	0x1287
	.4byte	.LLST24
	.4byte	.LVUS24
	.uleb128 0x24
	.4byte	.LASF39
	.byte	0x1
	.2byte	0x1d3
	.byte	0x33
	.4byte	0xc2
	.4byte	.LLST25
	.4byte	.LVUS25
	.uleb128 0x24
	.4byte	.LASF1019
	.byte	0x1
	.2byte	0x1d3
	.byte	0x4b
	.4byte	0xc2
	.4byte	.LLST26
	.4byte	.LVUS26
	.uleb128 0x45
	.ascii	"pw\000"
	.byte	0x1
	.2byte	0x1d6
	.byte	0x9
	.4byte	0xb0
	.byte	0
	.uleb128 0x26
	.ascii	"dek\000"
	.byte	0x1
	.2byte	0x1d7
	.byte	0x8
	.4byte	0x14b7
	.4byte	.LLST27
	.4byte	.LVUS27
	.uleb128 0x3d
	.4byte	.LASF1020
	.byte	0x1
	.2byte	0x1d8
	.byte	0xe
	.4byte	0x1638
	.uleb128 0x27
	.4byte	.LASF1021
	.byte	0x1
	.2byte	0x1d9
	.byte	0x7
	.4byte	0x7c
	.uleb128 0x2
	.byte	0x91
	.sleb128 -36
	.uleb128 0x3d
	.4byte	.LASF1022
	.byte	0x1
	.2byte	0x1da
	.byte	0x8
	.4byte	0x149b
	.uleb128 0x46
	.4byte	.LASF686
	.byte	0x1
	.2byte	0x1db
	.byte	0x9
	.4byte	0xb0
	.byte	0
	.uleb128 0x29
	.4byte	.LASF1001
	.byte	0x1
	.2byte	0x244
	.byte	0x9
	.4byte	0x7c
	.4byte	0x32bd
	.uleb128 0x2a
	.byte	0
	.uleb128 0x28
	.4byte	.LASF1023
	.byte	0x1
	.2byte	0x263
	.byte	0xc
	.4byte	0xd9
	.4byte	.LLST28
	.4byte	.LVUS28
	.uleb128 0x47
	.4byte	.LBB66
	.4byte	.LBE66-.LBB66
	.4byte	0x333a
	.uleb128 0x26
	.ascii	"key\000"
	.byte	0x1
	.2byte	0x269
	.byte	0xd
	.4byte	0x3455
	.4byte	.LLST29
	.4byte	.LVUS29
	.uleb128 0x37
	.4byte	.LVL46
	.4byte	0x37dc
	.4byte	0x3308
	.uleb128 0x33
	.uleb128 0x1
	.byte	0x51
	.uleb128 0x2
	.byte	0x76
	.sleb128 0
	.byte	0
	.uleb128 0x37
	.4byte	.LVL48
	.4byte	0x346a
	.4byte	0x3323
	.uleb128 0x33
	.uleb128 0x1
	.byte	0x50
	.uleb128 0x3
	.byte	0x91
	.sleb128 16
	.byte	0x6
	.uleb128 0x33
	.uleb128 0x1
	.byte	0x51
	.uleb128 0x2
	.byte	0x79
	.sleb128 0
	.byte	0
	.uleb128 0x32
	.4byte	.LVL49
	.4byte	0x385b
	.uleb128 0x33
	.uleb128 0x1
	.byte	0x50
	.uleb128 0x2
	.byte	0x75
	.sleb128 9
	.uleb128 0x33
	.uleb128 0x1
	.byte	0x51
	.uleb128 0x2
	.byte	0x79
	.sleb128 0
	.byte	0
	.byte	0
	.uleb128 0x47
	.4byte	.LBB67
	.4byte	.LBE67-.LBB67
	.4byte	0x336b
	.uleb128 0x26
	.ascii	"i\000"
	.byte	0x1
	.2byte	0x27a
	.byte	0xc
	.4byte	0x7c
	.4byte	.LLST30
	.4byte	.LVUS30
	.uleb128 0x32
	.4byte	.LVL60
	.4byte	0x37dc
	.uleb128 0x33
	.uleb128 0x1
	.byte	0x50
	.uleb128 0x2
	.byte	0x79
	.sleb128 0
	.byte	0
	.byte	0
	.uleb128 0x48
	.4byte	.Ldebug_ranges0+0xc0
	.4byte	0x3398
	.uleb128 0x26
	.ascii	"i\000"
	.byte	0x1
	.2byte	0x280
	.byte	0xc
	.4byte	0x7c
	.4byte	.LLST31
	.4byte	.LVUS31
	.uleb128 0x32
	.4byte	.LVL66
	.4byte	0x37dc
	.uleb128 0x33
	.uleb128 0x1
	.byte	0x50
	.uleb128 0x2
	.byte	0x76
	.sleb128 0
	.byte	0
	.byte	0
	.uleb128 0x31
	.4byte	.LVL38
	.4byte	0x37dc
	.uleb128 0x37
	.4byte	.LVL40
	.4byte	0x384e
	.4byte	0x33b5
	.uleb128 0x33
	.uleb128 0x1
	.byte	0x50
	.uleb128 0x2
	.byte	0x8
	.byte	0x3c
	.byte	0
	.uleb128 0x31
	.4byte	.LVL51
	.4byte	0x37dc
	.uleb128 0x31
	.4byte	.LVL52
	.4byte	0x37dc
	.uleb128 0x31
	.4byte	.LVL53
	.4byte	0x37dc
	.uleb128 0x37
	.4byte	.LVL54
	.4byte	0x37dc
	.4byte	0x33e4
	.uleb128 0x33
	.uleb128 0x1
	.byte	0x51
	.uleb128 0x2
	.byte	0x74
	.sleb128 0
	.byte	0
	.uleb128 0x31
	.4byte	.LVL55
	.4byte	0x37dc
	.uleb128 0x31
	.4byte	.LVL63
	.4byte	0x37dc
	.uleb128 0x31
	.4byte	.LVL64
	.4byte	0x37dc
	.uleb128 0x31
	.4byte	.LVL67
	.4byte	0x37dc
	.uleb128 0x37
	.4byte	.LVL70
	.4byte	0x381c
	.4byte	0x341d
	.uleb128 0x33
	.uleb128 0x1
	.byte	0x50
	.uleb128 0x3
	.byte	0x91
	.sleb128 12
	.byte	0x6
	.byte	0
	.uleb128 0x37
	.4byte	.LVL71
	.4byte	0x358e
	.4byte	0x3445
	.uleb128 0x33
	.uleb128 0x1
	.byte	0x50
	.uleb128 0x2
	.byte	0x76
	.sleb128 0
	.uleb128 0x33
	.uleb128 0x1
	.byte	0x51
	.uleb128 0x3
	.byte	0x91
	.sleb128 12
	.byte	0x6
	.uleb128 0x33
	.uleb128 0x1
	.byte	0x53
	.uleb128 0x2
	.byte	0x74
	.sleb128 0
	.uleb128 0x33
	.uleb128 0x2
	.byte	0x7d
	.sleb128 0
	.uleb128 0x2
	.byte	0x75
	.sleb128 9
	.byte	0
	.uleb128 0x31
	.4byte	.LVL73
	.4byte	0x37dc
	.byte	0
	.uleb128 0x6
	.byte	0x4
	.4byte	0x1638
	.uleb128 0x9
	.4byte	0xc8
	.4byte	0x346a
	.uleb128 0x49
	.4byte	0x25
	.uleb128 0x5
	.byte	0x75
	.sleb128 4
	.byte	0x6
	.byte	0x31
	.byte	0x1c
	.byte	0
	.uleb128 0x4a
	.4byte	.LASF1028
	.byte	0x1
	.2byte	0x1c8
	.byte	0x6
	.4byte	.LFB22
	.4byte	.LFE22-.LFB22
	.uleb128 0x1
	.byte	0x9c
	.4byte	0x356a
	.uleb128 0x25
	.ascii	"hex\000"
	.byte	0x1
	.2byte	0x1c8
	.byte	0x1f
	.4byte	0xc2
	.4byte	.LLST9
	.4byte	.LVUS9
	.uleb128 0x24
	.4byte	.LASF1024
	.byte	0x1
	.2byte	0x1c8
	.byte	0x2d
	.4byte	0x356a
	.4byte	.LLST10
	.4byte	.LVUS10
	.uleb128 0x24
	.4byte	.LASF1025
	.byte	0x1
	.2byte	0x1c8
	.byte	0x3b
	.4byte	0x83
	.4byte	.LLST11
	.4byte	.LVUS11
	.uleb128 0x2f
	.4byte	.Ldebug_ranges0+0x50
	.uleb128 0x26
	.ascii	"i\000"
	.byte	0x1
	.2byte	0x1ca
	.byte	0xf
	.4byte	0x83
	.4byte	.LLST12
	.4byte	.LVUS12
	.uleb128 0x2e
	.4byte	0x3570
	.4byte	.LBI44
	.2byte	.LVU110
	.4byte	.Ldebug_ranges0+0x70
	.byte	0x1
	.2byte	0x1cc
	.byte	0x11
	.4byte	0x3522
	.uleb128 0x2d
	.4byte	0x3582
	.4byte	.LLST13
	.4byte	.LVUS13
	.uleb128 0x4b
	.4byte	0x3570
	.4byte	.LBI46
	.2byte	.LVU81
	.4byte	.LBB46
	.4byte	.LBE46-.LBB46
	.byte	0x1
	.2byte	0x1bd
	.byte	0x10
	.uleb128 0x2d
	.4byte	0x3582
	.4byte	.LLST14
	.4byte	.LVUS14
	.byte	0
	.byte	0
	.uleb128 0x4c
	.4byte	0x3570
	.4byte	.LBI51
	.2byte	.LVU89
	.4byte	.Ldebug_ranges0+0x98
	.byte	0x1
	.2byte	0x1cc
	.byte	0x2f
	.uleb128 0x2d
	.4byte	0x3582
	.4byte	.LLST15
	.4byte	.LVUS15
	.uleb128 0x4b
	.4byte	0x3570
	.4byte	.LBI53
	.2byte	.LVU97
	.4byte	.LBB53
	.4byte	.LBE53-.LBB53
	.byte	0x1
	.2byte	0x1bd
	.byte	0x10
	.uleb128 0x2d
	.4byte	0x3582
	.4byte	.LLST16
	.4byte	.LVUS16
	.byte	0
	.byte	0
	.byte	0
	.byte	0
	.uleb128 0x6
	.byte	0x4
	.4byte	0xc8
	.uleb128 0x3b
	.4byte	.LASF1027
	.byte	0x1
	.2byte	0x1bd
	.byte	0x10
	.4byte	0xc8
	.byte	0x1
	.4byte	0x358e
	.uleb128 0x3c
	.ascii	"h\000"
	.byte	0x1
	.2byte	0x1bd
	.byte	0x1f
	.4byte	0xb6
	.byte	0
	.uleb128 0x4a
	.4byte	.LASF1029
	.byte	0x1
	.2byte	0x179
	.byte	0x6
	.4byte	.LFB20
	.4byte	.LFE20-.LFB20
	.uleb128 0x1
	.byte	0x9c
	.4byte	0x3731
	.uleb128 0x24
	.4byte	.LASF720
	.byte	0x1
	.2byte	0x179
	.byte	0x20
	.4byte	0x3731
	.4byte	.LLST0
	.4byte	.LVUS0
	.uleb128 0x24
	.4byte	.LASF1030
	.byte	0x1
	.2byte	0x179
	.byte	0x32
	.4byte	0xc2
	.4byte	.LLST1
	.4byte	.LVUS1
	.uleb128 0x24
	.4byte	.LASF1031
	.byte	0x1
	.2byte	0x179
	.byte	0x49
	.4byte	0x25
	.4byte	.LLST2
	.4byte	.LVUS2
	.uleb128 0x24
	.4byte	.LASF1023
	.byte	0x1
	.2byte	0x179
	.byte	0x5c
	.4byte	0xd9
	.4byte	.LLST3
	.4byte	.LVUS3
	.uleb128 0x4d
	.ascii	"key\000"
	.byte	0x1
	.2byte	0x179
	.byte	0x71
	.4byte	0x356a
	.uleb128 0x2
	.byte	0x91
	.sleb128 0
	.uleb128 0x4e
	.ascii	"ctx\000"
	.byte	0x1
	.2byte	0x18a
	.byte	0xe
	.4byte	0x2634
	.uleb128 0x3
	.byte	0x91
	.sleb128 -132
	.uleb128 0x28
	.4byte	.LASF1032
	.byte	0x1
	.2byte	0x18e
	.byte	0x12
	.4byte	0x25
	.4byte	.LLST4
	.4byte	.LVUS4
	.uleb128 0x28
	.4byte	.LASF1033
	.byte	0x1
	.2byte	0x18f
	.byte	0x12
	.4byte	0x25
	.4byte	.LLST5
	.4byte	.LVUS5
	.uleb128 0x28
	.4byte	.LASF1034
	.byte	0x1
	.2byte	0x190
	.byte	0x12
	.4byte	0x25
	.4byte	.LLST6
	.4byte	.LVUS6
	.uleb128 0x28
	.4byte	.LASF1035
	.byte	0x1
	.2byte	0x191
	.byte	0x12
	.4byte	0x25
	.4byte	.LLST7
	.4byte	.LVUS7
	.uleb128 0x48
	.4byte	.Ldebug_ranges0+0
	.4byte	0x36a4
	.uleb128 0x27
	.4byte	.LASF20
	.byte	0x1
	.2byte	0x195
	.byte	0x11
	.4byte	0xc8
	.uleb128 0x3
	.byte	0x91
	.sleb128 -133
	.uleb128 0x32
	.4byte	.LVL8
	.4byte	0x3867
	.uleb128 0x33
	.uleb128 0x1
	.byte	0x50
	.uleb128 0x2
	.byte	0x7b
	.sleb128 0
	.uleb128 0x33
	.uleb128 0x1
	.byte	0x51
	.uleb128 0x2
	.byte	0x78
	.sleb128 0
	.uleb128 0x33
	.uleb128 0x1
	.byte	0x52
	.uleb128 0x1
	.byte	0x31
	.byte	0
	.byte	0
	.uleb128 0x48
	.4byte	.Ldebug_ranges0+0x30
	.4byte	0x36d1
	.uleb128 0x26
	.ascii	"i\000"
	.byte	0x1
	.2byte	0x1b6
	.byte	0xe
	.4byte	0x7c
	.4byte	.LLST8
	.4byte	.LVUS8
	.uleb128 0x32
	.4byte	.LVL17
	.4byte	0x37dc
	.uleb128 0x33
	.uleb128 0x1
	.byte	0x50
	.uleb128 0x2
	.byte	0x76
	.sleb128 0
	.byte	0
	.byte	0
	.uleb128 0x31
	.4byte	.LVL2
	.4byte	0x37dc
	.uleb128 0x37
	.4byte	.LVL3
	.4byte	0x3873
	.4byte	0x36ef
	.uleb128 0x33
	.uleb128 0x1
	.byte	0x50
	.uleb128 0x3
	.byte	0x91
	.sleb128 -140
	.byte	0
	.uleb128 0x37
	.4byte	.LVL13
	.4byte	0x37dc
	.4byte	0x3703
	.uleb128 0x33
	.uleb128 0x1
	.byte	0x51
	.uleb128 0x2
	.byte	0x75
	.sleb128 0
	.byte	0
	.uleb128 0x37
	.4byte	.LVL14
	.4byte	0x387f
	.4byte	0x371e
	.uleb128 0x33
	.uleb128 0x1
	.byte	0x50
	.uleb128 0x3
	.byte	0x91
	.sleb128 -8
	.byte	0x6
	.uleb128 0x33
	.uleb128 0x1
	.byte	0x51
	.uleb128 0x2
	.byte	0x78
	.sleb128 0
	.byte	0
	.uleb128 0x31
	.4byte	.LVL15
	.4byte	0x37dc
	.uleb128 0x31
	.4byte	.LVL18
	.4byte	0x37dc
	.byte	0
	.uleb128 0x6
	.byte	0x4
	.4byte	0xd4
	.uleb128 0x4f
	.4byte	.LASF1057
	.byte	0x1
	.byte	0x89
	.byte	0x6
	.4byte	.LFB19
	.4byte	.LFE19-.LFB19
	.uleb128 0x1
	.byte	0x9c
	.uleb128 0x50
	.4byte	.LASF1036
	.byte	0x2
	.byte	0x54
	.byte	0x14
	.byte	0x3
	.4byte	0x376f
	.uleb128 0x51
	.ascii	"dst\000"
	.byte	0x2
	.byte	0x54
	.byte	0x24
	.4byte	0xb0
	.uleb128 0x51
	.ascii	"src\000"
	.byte	0x2
	.byte	0x54
	.byte	0x35
	.4byte	0xc2
	.byte	0
	.uleb128 0x3b
	.4byte	.LASF1037
	.byte	0x3
	.2byte	0x3cc
	.byte	0x1
	.4byte	0x126d
	.byte	0x3
	.4byte	0x378f
	.uleb128 0x3c
	.ascii	"err\000"
	.byte	0x3
	.2byte	0x3cc
	.byte	0x1b
	.4byte	0x127a
	.byte	0
	.uleb128 0x3b
	.4byte	.LASF1038
	.byte	0x3
	.2byte	0x3c4
	.byte	0x1
	.4byte	0x127a
	.byte	0x3
	.4byte	0x37af
	.uleb128 0x52
	.4byte	.LASF1039
	.byte	0x3
	.2byte	0x3c4
	.byte	0x1b
	.4byte	0x126d
	.byte	0
	.uleb128 0x3b
	.4byte	.LASF1040
	.byte	0x3
	.2byte	0x3b5
	.byte	0x1
	.4byte	0x127a
	.byte	0x3
	.4byte	0x37dc
	.uleb128 0x52
	.4byte	.LASF1041
	.byte	0x3
	.2byte	0x3b5
	.byte	0x20
	.4byte	0x35c
	.uleb128 0x52
	.4byte	.LASF1039
	.byte	0x3
	.2byte	0x3b5
	.byte	0x37
	.4byte	0x126d
	.byte	0
	.uleb128 0x53
	.4byte	.LASF1042
	.4byte	.LASF1042
	.byte	0x2
	.byte	0x4c
	.byte	0x6
	.uleb128 0x54
	.4byte	.LASF1043
	.4byte	.LASF1043
	.byte	0x11
	.2byte	0x391
	.byte	0x5
	.uleb128 0x54
	.4byte	.LASF1000
	.4byte	.LASF1000
	.byte	0x1
	.2byte	0x4b6
	.byte	0x3
	.uleb128 0x54
	.4byte	.LASF1044
	.4byte	.LASF1044
	.byte	0x11
	.2byte	0x36d
	.byte	0x6
	.uleb128 0x54
	.4byte	.LASF1013
	.4byte	.LASF1013
	.byte	0x1
	.2byte	0x305
	.byte	0xf
	.uleb128 0x53
	.4byte	.LASF1045
	.4byte	.LASF1045
	.byte	0x15
	.byte	0x29
	.byte	0x9
	.uleb128 0x53
	.4byte	.LASF1046
	.4byte	.LASF1046
	.byte	0x16
	.byte	0x6c
	.byte	0x7
	.uleb128 0x54
	.4byte	.LASF999
	.4byte	.LASF999
	.byte	0x1
	.2byte	0x793
	.byte	0x9
	.uleb128 0x54
	.4byte	.LASF1047
	.4byte	.LASF1047
	.byte	0x11
	.2byte	0x2ab
	.byte	0x5
	.uleb128 0x54
	.4byte	.LASF1001
	.4byte	.LASF1001
	.byte	0x1
	.2byte	0x244
	.byte	0x9
	.uleb128 0x53
	.4byte	.LASF1048
	.4byte	.LASF1048
	.byte	0x15
	.byte	0x1f
	.byte	0x9
	.uleb128 0x53
	.4byte	.LASF1049
	.4byte	.LASF1049
	.byte	0x14
	.byte	0x1c
	.byte	0x6
	.uleb128 0x53
	.4byte	.LASF1050
	.4byte	.LASF1050
	.byte	0x14
	.byte	0x18
	.byte	0x6
	.uleb128 0x53
	.4byte	.LASF1051
	.4byte	.LASF1051
	.byte	0x14
	.byte	0x22
	.byte	0x6
	.byte	0
	.section	.debug_abbrev,"",%progbits
.Ldebug_abbrev0:
	.uleb128 0x1
	.uleb128 0x11
	.byte	0x1
	.uleb128 0x25
	.uleb128 0xe
	.uleb128 0x13
	.uleb128 0xb
	.uleb128 0x3
	.uleb128 0xe
	.uleb128 0x1b
	.uleb128 0xe
	.uleb128 0x55
	.uleb128 0x17
	.uleb128 0x11
	.uleb128 0x1
	.uleb128 0x10
	.uleb128 0x17
	.byte	0
	.byte	0
	.uleb128 0x2
	.uleb128 0x24
	.byte	0
	.uleb128 0xb
	.uleb128 0xb
	.uleb128 0x3e
	.uleb128 0xb
	.uleb128 0x3
	.uleb128 0xe
	.byte	0
	.byte	0
	.uleb128 0x3
	.uleb128 0x16
	.byte	0
	.uleb128 0x3
	.uleb128 0xe
	.uleb128 0x3a
	.uleb128 0xb
	.uleb128 0x3b
	.uleb128 0xb
	.uleb128 0x39
	.uleb128 0xb
	.uleb128 0x49
	.uleb128 0x13
	.byte	0
	.byte	0
	.uleb128 0x4
	.uleb128 0x24
	.byte	0
	.uleb128 0xb
	.uleb128 0xb
	.uleb128 0x3e
	.uleb128 0xb
	.uleb128 0x3
	.uleb128 0x8
	.byte	0
	.byte	0
	.uleb128 0x5
	.uleb128 0xf
	.byte	0
	.uleb128 0xb
	.uleb128 0xb
	.byte	0
	.byte	0
	.uleb128 0x6
	.uleb128 0xf
	.byte	0
	.uleb128 0xb
	.uleb128 0xb
	.uleb128 0x49
	.uleb128 0x13
	.byte	0
	.byte	0
	.uleb128 0x7
	.uleb128 0x26
	.byte	0
	.uleb128 0x49
	.uleb128 0x13
	.byte	0
	.byte	0
	.uleb128 0x8
	.uleb128 0x16
	.byte	0
	.uleb128 0x3
	.uleb128 0x8
	.uleb128 0x3a
	.uleb128 0xb
	.uleb128 0x3b
	.uleb128 0xb
	.uleb128 0x39
	.uleb128 0xb
	.uleb128 0x49
	.uleb128 0x13
	.byte	0
	.byte	0
	.uleb128 0x9
	.uleb128 0x1
	.byte	0x1
	.uleb128 0x49
	.uleb128 0x13
	.uleb128 0x1
	.uleb128 0x13
	.byte	0
	.byte	0
	.uleb128 0xa
	.uleb128 0x21
	.byte	0
	.uleb128 0x49
	.uleb128 0x13
	.uleb128 0x2f
	.uleb128 0xb
	.byte	0
	.byte	0
	.uleb128 0xb
	.uleb128 0x4
	.byte	0x1
	.uleb128 0x3e
	.uleb128 0xb
	.uleb128 0xb
	.uleb128 0xb
	.uleb128 0x49
	.uleb128 0x13
	.uleb128 0x3a
	.uleb128 0xb
	.uleb128 0x3b
	.uleb128 0xb
	.uleb128 0x39
	.uleb128 0xb
	.uleb128 0x1
	.uleb128 0x13
	.byte	0
	.byte	0
	.uleb128 0xc
	.uleb128 0x28
	.byte	0
	.uleb128 0x3
	.uleb128 0xe
	.uleb128 0x1c
	.uleb128 0xb
	.byte	0
	.byte	0
	.uleb128 0xd
	.uleb128 0x13
	.byte	0
	.uleb128 0x3
	.uleb128 0xe
	.uleb128 0x3c
	.uleb128 0x19
	.byte	0
	.byte	0
	.uleb128 0xe
	.uleb128 0x13
	.byte	0x1
	.uleb128 0xb
	.uleb128 0xb
	.uleb128 0x3a
	.uleb128 0xb
	.uleb128 0x3b
	.uleb128 0xb
	.uleb128 0x39
	.uleb128 0xb
	.uleb128 0x1
	.uleb128 0x13
	.byte	0
	.byte	0
	.uleb128 0xf
	.uleb128 0xd
	.byte	0
	.uleb128 0x3
	.uleb128 0x8
	.uleb128 0x3a
	.uleb128 0xb
	.uleb128 0x3b
	.uleb128 0xb
	.uleb128 0x39
	.uleb128 0xb
	.uleb128 0x49
	.uleb128 0x13
	.uleb128 0x38
	.uleb128 0xb
	.byte	0
	.byte	0
	.uleb128 0x10
	.uleb128 0xd
	.byte	0
	.uleb128 0x3
	.uleb128 0xe
	.uleb128 0x3a
	.uleb128 0xb
	.uleb128 0x3b
	.uleb128 0xb
	.uleb128 0x39
	.uleb128 0xb
	.uleb128 0x49
	.uleb128 0x13
	.uleb128 0x38
	.uleb128 0xb
	.byte	0
	.byte	0
	.uleb128 0x11
	.uleb128 0x13
	.byte	0x1
	.uleb128 0x3
	.uleb128 0xe
	.uleb128 0xb
	.uleb128 0xb
	.uleb128 0x3a
	.uleb128 0xb
	.uleb128 0x3b
	.uleb128 0xb
	.uleb128 0x39
	.uleb128 0xb
	.uleb128 0x1
	.uleb128 0x13
	.byte	0
	.byte	0
	.uleb128 0x12
	.uleb128 0x28
	.byte	0
	.uleb128 0x3
	.uleb128 0xe
	.uleb128 0x1c
	.uleb128 0x5
	.byte	0
	.byte	0
	.uleb128 0x13
	.uleb128 0x28
	.byte	0
	.uleb128 0x3
	.uleb128 0xe
	.uleb128 0x1c
	.uleb128 0x6
	.byte	0
	.byte	0
	.uleb128 0x14
	.uleb128 0x16
	.byte	0
	.uleb128 0x3
	.uleb128 0xe
	.uleb128 0x3a
	.uleb128 0xb
	.uleb128 0x3b
	.uleb128 0x5
	.uleb128 0x39
	.uleb128 0xb
	.uleb128 0x49
	.uleb128 0x13
	.byte	0
	.byte	0
	.uleb128 0x15
	.uleb128 0x4
	.byte	0x1
	.uleb128 0x3
	.uleb128 0xe
	.uleb128 0x3e
	.uleb128 0xb
	.uleb128 0xb
	.uleb128 0xb
	.uleb128 0x49
	.uleb128 0x13
	.uleb128 0x3a
	.uleb128 0xb
	.uleb128 0x3b
	.uleb128 0xb
	.uleb128 0x39
	.uleb128 0xb
	.uleb128 0x1
	.uleb128 0x13
	.byte	0
	.byte	0
	.uleb128 0x16
	.uleb128 0xd
	.byte	0
	.uleb128 0x3
	.uleb128 0x8
	.uleb128 0x3a
	.uleb128 0xb
	.uleb128 0x3b
	.uleb128 0x5
	.uleb128 0x39
	.uleb128 0xb
	.uleb128 0x49
	.uleb128 0x13
	.uleb128 0x38
	.uleb128 0xb
	.byte	0
	.byte	0
	.uleb128 0x17
	.uleb128 0xd
	.byte	0
	.uleb128 0x3
	.uleb128 0xe
	.uleb128 0x3a
	.uleb128 0xb
	.uleb128 0x3b
	.uleb128 0x5
	.uleb128 0x39
	.uleb128 0xb
	.uleb128 0x49
	.uleb128 0x13
	.uleb128 0x38
	.uleb128 0xb
	.byte	0
	.byte	0
	.uleb128 0x18
	.uleb128 0x15
	.byte	0x1
	.uleb128 0x27
	.uleb128 0x19
	.uleb128 0x49
	.uleb128 0x13
	.uleb128 0x1
	.uleb128 0x13
	.byte	0
	.byte	0
	.uleb128 0x19
	.uleb128 0x5
	.byte	0
	.uleb128 0x49
	.uleb128 0x13
	.byte	0
	.byte	0
	.uleb128 0x1a
	.uleb128 0xd
	.byte	0
	.uleb128 0x3
	.uleb128 0xe
	.uleb128 0x3a
	.uleb128 0xb
	.uleb128 0x3b
	.uleb128 0xb
	.uleb128 0x39
	.uleb128 0xb
	.uleb128 0x49
	.uleb128 0x13
	.uleb128 0xb
	.uleb128 0xb
	.uleb128 0xd
	.uleb128 0xb
	.uleb128 0xc
	.uleb128 0xb
	.uleb128 0x38
	.uleb128 0xb
	.byte	0
	.byte	0
	.uleb128 0x1b
	.uleb128 0x13
	.byte	0x1
	.uleb128 0x3
	.uleb128 0xe
	.uleb128 0xb
	.uleb128 0xb
	.uleb128 0x3a
	.uleb128 0xb
	.uleb128 0x3b
	.uleb128 0x5
	.uleb128 0x39
	.uleb128 0xb
	.uleb128 0x1
	.uleb128 0x13
	.byte	0
	.byte	0
	.uleb128 0x1c
	.uleb128 0x13
	.byte	0x1
	.uleb128 0xb
	.uleb128 0xb
	.uleb128 0x3a
	.uleb128 0xb
	.uleb128 0x3b
	.uleb128 0x5
	.uleb128 0x39
	.uleb128 0xb
	.uleb128 0x1
	.uleb128 0x13
	.byte	0
	.byte	0
	.uleb128 0x1d
	.uleb128 0xd
	.byte	0
	.uleb128 0x3
	.uleb128 0x8
	.uleb128 0x3a
	.uleb128 0xb
	.uleb128 0x3b
	.uleb128 0x5
	.uleb128 0x39
	.uleb128 0xb
	.uleb128 0x49
	.uleb128 0x13
	.uleb128 0xb
	.uleb128 0xb
	.uleb128 0xd
	.uleb128 0xb
	.uleb128 0xc
	.uleb128 0xb
	.uleb128 0x38
	.uleb128 0xb
	.byte	0
	.byte	0
	.uleb128 0x1e
	.uleb128 0xd
	.byte	0
	.uleb128 0x3
	.uleb128 0xe
	.uleb128 0x3a
	.uleb128 0xb
	.uleb128 0x3b
	.uleb128 0x5
	.uleb128 0x39
	.uleb128 0xb
	.uleb128 0x49
	.uleb128 0x13
	.uleb128 0xb
	.uleb128 0xb
	.uleb128 0xd
	.uleb128 0xb
	.uleb128 0xc
	.uleb128 0xb
	.uleb128 0x38
	.uleb128 0xb
	.byte	0
	.byte	0
	.uleb128 0x1f
	.uleb128 0x17
	.byte	0x1
	.uleb128 0xb
	.uleb128 0xb
	.uleb128 0x3a
	.uleb128 0xb
	.uleb128 0x3b
	.uleb128 0x5
	.uleb128 0x39
	.uleb128 0xb
	.uleb128 0x1
	.uleb128 0x13
	.byte	0
	.byte	0
	.uleb128 0x20
	.uleb128 0xd
	.byte	0
	.uleb128 0x3
	.uleb128 0xe
	.uleb128 0x3a
	.uleb128 0xb
	.uleb128 0x3b
	.uleb128 0x5
	.uleb128 0x39
	.uleb128 0xb
	.uleb128 0x49
	.uleb128 0x13
	.byte	0
	.byte	0
	.uleb128 0x21
	.uleb128 0xd
	.byte	0
	.uleb128 0x3
	.uleb128 0x8
	.uleb128 0x3a
	.uleb128 0xb
	.uleb128 0x3b
	.uleb128 0x5
	.uleb128 0x39
	.uleb128 0xb
	.uleb128 0x49
	.uleb128 0x13
	.byte	0
	.byte	0
	.uleb128 0x22
	.uleb128 0x34
	.byte	0
	.uleb128 0x3
	.uleb128 0xe
	.uleb128 0x3a
	.uleb128 0xb
	.uleb128 0x3b
	.uleb128 0xb
	.uleb128 0x39
	.uleb128 0xb
	.uleb128 0x49
	.uleb128 0x13
	.uleb128 0x2
	.uleb128 0x18
	.byte	0
	.byte	0
	.uleb128 0x23
	.uleb128 0x2e
	.byte	0x1
	.uleb128 0x3
	.uleb128 0xe
	.uleb128 0x3a
	.uleb128 0xb
	.uleb128 0x3b
	.uleb128 0x5
	.uleb128 0x39
	.uleb128 0xb
	.uleb128 0x27
	.uleb128 0x19
	.uleb128 0x49
	.uleb128 0x13
	.uleb128 0x11
	.uleb128 0x1
	.uleb128 0x12
	.uleb128 0x6
	.uleb128 0x40
	.uleb128 0x18
	.uleb128 0x2117
	.uleb128 0x19
	.uleb128 0x1
	.uleb128 0x13
	.byte	0
	.byte	0
	.uleb128 0x24
	.uleb128 0x5
	.byte	0
	.uleb128 0x3
	.uleb128 0xe
	.uleb128 0x3a
	.uleb128 0xb
	.uleb128 0x3b
	.uleb128 0x5
	.uleb128 0x39
	.uleb128 0xb
	.uleb128 0x49
	.uleb128 0x13
	.uleb128 0x2
	.uleb128 0x17
	.uleb128 0x2137
	.uleb128 0x17
	.byte	0
	.byte	0
	.uleb128 0x25
	.uleb128 0x5
	.byte	0
	.uleb128 0x3
	.uleb128 0x8
	.uleb128 0x3a
	.uleb128 0xb
	.uleb128 0x3b
	.uleb128 0x5
	.uleb128 0x39
	.uleb128 0xb
	.uleb128 0x49
	.uleb128 0x13
	.uleb128 0x2
	.uleb128 0x17
	.uleb128 0x2137
	.uleb128 0x17
	.byte	0
	.byte	0
	.uleb128 0x26
	.uleb128 0x34
	.byte	0
	.uleb128 0x3
	.uleb128 0x8
	.uleb128 0x3a
	.uleb128 0xb
	.uleb128 0x3b
	.uleb128 0x5
	.uleb128 0x39
	.uleb128 0xb
	.uleb128 0x49
	.uleb128 0x13
	.uleb128 0x2
	.uleb128 0x17
	.uleb128 0x2137
	.uleb128 0x17
	.byte	0
	.byte	0
	.uleb128 0x27
	.uleb128 0x34
	.byte	0
	.uleb128 0x3
	.uleb128 0xe
	.uleb128 0x3a
	.uleb128 0xb
	.uleb128 0x3b
	.uleb128 0x5
	.uleb128 0x39
	.uleb128 0xb
	.uleb128 0x49
	.uleb128 0x13
	.uleb128 0x2
	.uleb128 0x18
	.byte	0
	.byte	0
	.uleb128 0x28
	.uleb128 0x34
	.byte	0
	.uleb128 0x3
	.uleb128 0xe
	.uleb128 0x3a
	.uleb128 0xb
	.uleb128 0x3b
	.uleb128 0x5
	.uleb128 0x39
	.uleb128 0xb
	.uleb128 0x49
	.uleb128 0x13
	.uleb128 0x2
	.uleb128 0x17
	.uleb128 0x2137
	.uleb128 0x17
	.byte	0
	.byte	0
	.uleb128 0x29
	.uleb128 0x2e
	.byte	0x1
	.uleb128 0x3f
	.uleb128 0x19
	.uleb128 0x3
	.uleb128 0xe
	.uleb128 0x3a
	.uleb128 0xb
	.uleb128 0x3b
	.uleb128 0x5
	.uleb128 0x39
	.uleb128 0xb
	.uleb128 0x49
	.uleb128 0x13
	.uleb128 0x3c
	.uleb128 0x19
	.uleb128 0x1
	.uleb128 0x13
	.byte	0
	.byte	0
	.uleb128 0x2a
	.uleb128 0x18
	.byte	0
	.byte	0
	.byte	0
	.uleb128 0x2b
	.uleb128 0xa
	.byte	0
	.uleb128 0x3
	.uleb128 0xe
	.uleb128 0x3a
	.uleb128 0xb
	.uleb128 0x3b
	.uleb128 0x5
	.uleb128 0x39
	.uleb128 0xb
	.uleb128 0x11
	.uleb128 0x1
	.byte	0
	.byte	0
	.uleb128 0x2c
	.uleb128 0x1d
	.byte	0x1
	.uleb128 0x31
	.uleb128 0x13
	.uleb128 0x52
	.uleb128 0x1
	.uleb128 0x2138
	.uleb128 0x5
	.uleb128 0x11
	.uleb128 0x1
	.uleb128 0x12
	.uleb128 0x6
	.uleb128 0x58
	.uleb128 0xb
	.uleb128 0x59
	.uleb128 0x5
	.uleb128 0x57
	.uleb128 0xb
	.uleb128 0x1
	.uleb128 0x13
	.byte	0
	.byte	0
	.uleb128 0x2d
	.uleb128 0x5
	.byte	0
	.uleb128 0x31
	.uleb128 0x13
	.uleb128 0x2
	.uleb128 0x17
	.uleb128 0x2137
	.uleb128 0x17
	.byte	0
	.byte	0
	.uleb128 0x2e
	.uleb128 0x1d
	.byte	0x1
	.uleb128 0x31
	.uleb128 0x13
	.uleb128 0x52
	.uleb128 0x1
	.uleb128 0x2138
	.uleb128 0x5
	.uleb128 0x55
	.uleb128 0x17
	.uleb128 0x58
	.uleb128 0xb
	.uleb128 0x59
	.uleb128 0x5
	.uleb128 0x57
	.uleb128 0xb
	.uleb128 0x1
	.uleb128 0x13
	.byte	0
	.byte	0
	.uleb128 0x2f
	.uleb128 0xb
	.byte	0x1
	.uleb128 0x55
	.uleb128 0x17
	.byte	0
	.byte	0
	.uleb128 0x30
	.uleb128 0x34
	.byte	0
	.uleb128 0x31
	.uleb128 0x13
	.uleb128 0x2
	.uleb128 0x17
	.uleb128 0x2137
	.uleb128 0x17
	.byte	0
	.byte	0
	.uleb128 0x31
	.uleb128 0x4109
	.byte	0
	.uleb128 0x11
	.uleb128 0x1
	.uleb128 0x31
	.uleb128 0x13
	.byte	0
	.byte	0
	.uleb128 0x32
	.uleb128 0x4109
	.byte	0x1
	.uleb128 0x11
	.uleb128 0x1
	.uleb128 0x31
	.uleb128 0x13
	.byte	0
	.byte	0
	.uleb128 0x33
	.uleb128 0x410a
	.byte	0
	.uleb128 0x2
	.uleb128 0x18
	.uleb128 0x2111
	.uleb128 0x18
	.byte	0
	.byte	0
	.uleb128 0x34
	.uleb128 0x5
	.byte	0
	.uleb128 0x31
	.uleb128 0x13
	.byte	0
	.byte	0
	.uleb128 0x35
	.uleb128 0xb
	.byte	0x1
	.uleb128 0x31
	.uleb128 0x13
	.uleb128 0x55
	.uleb128 0x17
	.uleb128 0x1
	.uleb128 0x13
	.byte	0
	.byte	0
	.uleb128 0x36
	.uleb128 0x34
	.byte	0
	.uleb128 0x31
	.uleb128 0x13
	.uleb128 0x2
	.uleb128 0x18
	.byte	0
	.byte	0
	.uleb128 0x37
	.uleb128 0x4109
	.byte	0x1
	.uleb128 0x11
	.uleb128 0x1
	.uleb128 0x31
	.uleb128 0x13
	.uleb128 0x1
	.uleb128 0x13
	.byte	0
	.byte	0
	.uleb128 0x38
	.uleb128 0x34
	.byte	0
	.uleb128 0x31
	.uleb128 0x13
	.byte	0
	.byte	0
	.uleb128 0x39
	.uleb128 0xa
	.byte	0
	.uleb128 0x31
	.uleb128 0x13
	.byte	0
	.byte	0
	.uleb128 0x3a
	.uleb128 0xb
	.byte	0x1
	.uleb128 0x31
	.uleb128 0x13
	.uleb128 0x11
	.uleb128 0x1
	.uleb128 0x12
	.uleb128 0x6
	.uleb128 0x1
	.uleb128 0x13
	.byte	0
	.byte	0
	.uleb128 0x3b
	.uleb128 0x2e
	.byte	0x1
	.uleb128 0x3
	.uleb128 0xe
	.uleb128 0x3a
	.uleb128 0xb
	.uleb128 0x3b
	.uleb128 0x5
	.uleb128 0x39
	.uleb128 0xb
	.uleb128 0x27
	.uleb128 0x19
	.uleb128 0x49
	.uleb128 0x13
	.uleb128 0x20
	.uleb128 0xb
	.uleb128 0x1
	.uleb128 0x13
	.byte	0
	.byte	0
	.uleb128 0x3c
	.uleb128 0x5
	.byte	0
	.uleb128 0x3
	.uleb128 0x8
	.uleb128 0x3a
	.uleb128 0xb
	.uleb128 0x3b
	.uleb128 0x5
	.uleb128 0x39
	.uleb128 0xb
	.uleb128 0x49
	.uleb128 0x13
	.byte	0
	.byte	0
	.uleb128 0x3d
	.uleb128 0x34
	.byte	0
	.uleb128 0x3
	.uleb128 0xe
	.uleb128 0x3a
	.uleb128 0xb
	.uleb128 0x3b
	.uleb128 0x5
	.uleb128 0x39
	.uleb128 0xb
	.uleb128 0x49
	.uleb128 0x13
	.byte	0
	.byte	0
	.uleb128 0x3e
	.uleb128 0x2e
	.byte	0x1
	.uleb128 0x3f
	.uleb128 0x19
	.uleb128 0x3
	.uleb128 0xe
	.uleb128 0x3a
	.uleb128 0xb
	.uleb128 0x3b
	.uleb128 0x5
	.uleb128 0x39
	.uleb128 0xb
	.uleb128 0x27
	.uleb128 0x19
	.uleb128 0x49
	.uleb128 0x13
	.uleb128 0x11
	.uleb128 0x1
	.uleb128 0x12
	.uleb128 0x6
	.uleb128 0x40
	.uleb128 0x18
	.uleb128 0x2117
	.uleb128 0x19
	.uleb128 0x1
	.uleb128 0x13
	.byte	0
	.byte	0
	.uleb128 0x3f
	.uleb128 0x2e
	.byte	0x1
	.uleb128 0x3
	.uleb128 0xe
	.uleb128 0x3a
	.uleb128 0xb
	.uleb128 0x3b
	.uleb128 0x5
	.uleb128 0x39
	.uleb128 0xb
	.uleb128 0x27
	.uleb128 0x19
	.uleb128 0x20
	.uleb128 0xb
	.uleb128 0x1
	.uleb128 0x13
	.byte	0
	.byte	0
	.uleb128 0x40
	.uleb128 0xb
	.byte	0x1
	.uleb128 0x1
	.uleb128 0x13
	.byte	0
	.byte	0
	.uleb128 0x41
	.uleb128 0xb
	.byte	0x1
	.byte	0
	.byte	0
	.uleb128 0x42
	.uleb128 0x2e
	.byte	0x1
	.uleb128 0x3f
	.uleb128 0x19
	.uleb128 0x3
	.uleb128 0xe
	.uleb128 0x3a
	.uleb128 0xb
	.uleb128 0x3b
	.uleb128 0x5
	.uleb128 0x39
	.uleb128 0xb
	.uleb128 0x49
	.uleb128 0x13
	.uleb128 0x3c
	.uleb128 0x19
	.byte	0
	.byte	0
	.uleb128 0x43
	.uleb128 0x34
	.byte	0
	.uleb128 0x3
	.uleb128 0x8
	.uleb128 0x3a
	.uleb128 0xb
	.uleb128 0x3b
	.uleb128 0x5
	.uleb128 0x39
	.uleb128 0xb
	.uleb128 0x49
	.uleb128 0x13
	.byte	0
	.byte	0
	.uleb128 0x44
	.uleb128 0xa
	.byte	0
	.uleb128 0x3
	.uleb128 0xe
	.uleb128 0x3a
	.uleb128 0xb
	.uleb128 0x3b
	.uleb128 0x5
	.uleb128 0x39
	.uleb128 0xb
	.byte	0
	.byte	0
	.uleb128 0x45
	.uleb128 0x34
	.byte	0
	.uleb128 0x3
	.uleb128 0x8
	.uleb128 0x3a
	.uleb128 0xb
	.uleb128 0x3b
	.uleb128 0x5
	.uleb128 0x39
	.uleb128 0xb
	.uleb128 0x49
	.uleb128 0x13
	.uleb128 0x1c
	.uleb128 0xb
	.byte	0
	.byte	0
	.uleb128 0x46
	.uleb128 0x34
	.byte	0
	.uleb128 0x3
	.uleb128 0xe
	.uleb128 0x3a
	.uleb128 0xb
	.uleb128 0x3b
	.uleb128 0x5
	.uleb128 0x39
	.uleb128 0xb
	.uleb128 0x49
	.uleb128 0x13
	.uleb128 0x1c
	.uleb128 0xb
	.byte	0
	.byte	0
	.uleb128 0x47
	.uleb128 0xb
	.byte	0x1
	.uleb128 0x11
	.uleb128 0x1
	.uleb128 0x12
	.uleb128 0x6
	.uleb128 0x1
	.uleb128 0x13
	.byte	0
	.byte	0
	.uleb128 0x48
	.uleb128 0xb
	.byte	0x1
	.uleb128 0x55
	.uleb128 0x17
	.uleb128 0x1
	.uleb128 0x13
	.byte	0
	.byte	0
	.uleb128 0x49
	.uleb128 0x21
	.byte	0
	.uleb128 0x49
	.uleb128 0x13
	.uleb128 0x2f
	.uleb128 0x18
	.byte	0
	.byte	0
	.uleb128 0x4a
	.uleb128 0x2e
	.byte	0x1
	.uleb128 0x3f
	.uleb128 0x19
	.uleb128 0x3
	.uleb128 0xe
	.uleb128 0x3a
	.uleb128 0xb
	.uleb128 0x3b
	.uleb128 0x5
	.uleb128 0x39
	.uleb128 0xb
	.uleb128 0x27
	.uleb128 0x19
	.uleb128 0x11
	.uleb128 0x1
	.uleb128 0x12
	.uleb128 0x6
	.uleb128 0x40
	.uleb128 0x18
	.uleb128 0x2117
	.uleb128 0x19
	.uleb128 0x1
	.uleb128 0x13
	.byte	0
	.byte	0
	.uleb128 0x4b
	.uleb128 0x1d
	.byte	0x1
	.uleb128 0x31
	.uleb128 0x13
	.uleb128 0x52
	.uleb128 0x1
	.uleb128 0x2138
	.uleb128 0x5
	.uleb128 0x11
	.uleb128 0x1
	.uleb128 0x12
	.uleb128 0x6
	.uleb128 0x58
	.uleb128 0xb
	.uleb128 0x59
	.uleb128 0x5
	.uleb128 0x57
	.uleb128 0xb
	.byte	0
	.byte	0
	.uleb128 0x4c
	.uleb128 0x1d
	.byte	0x1
	.uleb128 0x31
	.uleb128 0x13
	.uleb128 0x52
	.uleb128 0x1
	.uleb128 0x2138
	.uleb128 0x5
	.uleb128 0x55
	.uleb128 0x17
	.uleb128 0x58
	.uleb128 0xb
	.uleb128 0x59
	.uleb128 0x5
	.uleb128 0x57
	.uleb128 0xb
	.byte	0
	.byte	0
	.uleb128 0x4d
	.uleb128 0x5
	.byte	0
	.uleb128 0x3
	.uleb128 0x8
	.uleb128 0x3a
	.uleb128 0xb
	.uleb128 0x3b
	.uleb128 0x5
	.uleb128 0x39
	.uleb128 0xb
	.uleb128 0x49
	.uleb128 0x13
	.uleb128 0x2
	.uleb128 0x18
	.byte	0
	.byte	0
	.uleb128 0x4e
	.uleb128 0x34
	.byte	0
	.uleb128 0x3
	.uleb128 0x8
	.uleb128 0x3a
	.uleb128 0xb
	.uleb128 0x3b
	.uleb128 0x5
	.uleb128 0x39
	.uleb128 0xb
	.uleb128 0x49
	.uleb128 0x13
	.uleb128 0x2
	.uleb128 0x18
	.byte	0
	.byte	0
	.uleb128 0x4f
	.uleb128 0x2e
	.byte	0
	.uleb128 0x3f
	.uleb128 0x19
	.uleb128 0x3
	.uleb128 0xe
	.uleb128 0x3a
	.uleb128 0xb
	.uleb128 0x3b
	.uleb128 0xb
	.uleb128 0x39
	.uleb128 0xb
	.uleb128 0x27
	.uleb128 0x19
	.uleb128 0x11
	.uleb128 0x1
	.uleb128 0x12
	.uleb128 0x6
	.uleb128 0x40
	.uleb128 0x18
	.uleb128 0x2117
	.uleb128 0x19
	.byte	0
	.byte	0
	.uleb128 0x50
	.uleb128 0x2e
	.byte	0x1
	.uleb128 0x3
	.uleb128 0xe
	.uleb128 0x3a
	.uleb128 0xb
	.uleb128 0x3b
	.uleb128 0xb
	.uleb128 0x39
	.uleb128 0xb
	.uleb128 0x27
	.uleb128 0x19
	.uleb128 0x20
	.uleb128 0xb
	.uleb128 0x1
	.uleb128 0x13
	.byte	0
	.byte	0
	.uleb128 0x51
	.uleb128 0x5
	.byte	0
	.uleb128 0x3
	.uleb128 0x8
	.uleb128 0x3a
	.uleb128 0xb
	.uleb128 0x3b
	.uleb128 0xb
	.uleb128 0x39
	.uleb128 0xb
	.uleb128 0x49
	.uleb128 0x13
	.byte	0
	.byte	0
	.uleb128 0x52
	.uleb128 0x5
	.byte	0
	.uleb128 0x3
	.uleb128 0xe
	.uleb128 0x3a
	.uleb128 0xb
	.uleb128 0x3b
	.uleb128 0x5
	.uleb128 0x39
	.uleb128 0xb
	.uleb128 0x49
	.uleb128 0x13
	.byte	0
	.byte	0
	.uleb128 0x53
	.uleb128 0x2e
	.byte	0
	.uleb128 0x3f
	.uleb128 0x19
	.uleb128 0x3c
	.uleb128 0x19
	.uleb128 0x6e
	.uleb128 0xe
	.uleb128 0x3
	.uleb128 0xe
	.uleb128 0x3a
	.uleb128 0xb
	.uleb128 0x3b
	.uleb128 0xb
	.uleb128 0x39
	.uleb128 0xb
	.byte	0
	.byte	0
	.uleb128 0x54
	.uleb128 0x2e
	.byte	0
	.uleb128 0x3f
	.uleb128 0x19
	.uleb128 0x3c
	.uleb128 0x19
	.uleb128 0x6e
	.uleb128 0xe
	.uleb128 0x3
	.uleb128 0xe
	.uleb128 0x3a
	.uleb128 0xb
	.uleb128 0x3b
	.uleb128 0x5
	.uleb128 0x39
	.uleb128 0xb
	.byte	0
	.byte	0
	.byte	0
	.section	.debug_loc,"",%progbits
.Ldebug_loc0:
.LVUS32:
	.uleb128 0
	.uleb128 .LVU248
	.uleb128 .LVU248
	.uleb128 .LVU316
	.uleb128 .LVU316
	.uleb128 .LVU469
	.uleb128 .LVU469
	.uleb128 .LVU471
	.uleb128 .LVU471
	.uleb128 .LVU483
	.uleb128 .LVU483
	.uleb128 .LVU492
	.uleb128 .LVU492
	.uleb128 0
.LLST32:
	.4byte	.LVL74
	.4byte	.LVL75
	.2byte	0x1
	.byte	0x50
	.4byte	.LVL75
	.4byte	.LVL94
	.2byte	0x1
	.byte	0x55
	.4byte	.LVL94
	.4byte	.LVL128
	.2byte	0x4
	.byte	0xf3
	.uleb128 0x1
	.byte	0x50
	.byte	0x9f
	.4byte	.LVL128
	.4byte	.LVL130
	.2byte	0x1
	.byte	0x55
	.4byte	.LVL130
	.4byte	.LVL141
	.2byte	0x4
	.byte	0xf3
	.uleb128 0x1
	.byte	0x50
	.byte	0x9f
	.4byte	.LVL141
	.4byte	.LVL144
	.2byte	0x1
	.byte	0x55
	.4byte	.LVL144
	.4byte	.LFE31
	.2byte	0x4
	.byte	0xf3
	.uleb128 0x1
	.byte	0x50
	.byte	0x9f
	.4byte	0
	.4byte	0
.LVUS33:
	.uleb128 0
	.uleb128 .LVU251
	.uleb128 .LVU251
	.uleb128 0
.LLST33:
	.4byte	.LVL74
	.4byte	.LVL76
	.2byte	0x1
	.byte	0x51
	.4byte	.LVL76
	.4byte	.LFE31
	.2byte	0x1
	.byte	0x54
	.4byte	0
	.4byte	0
.LVUS34:
	.uleb128 0
	.uleb128 .LVU252
	.uleb128 .LVU252
	.uleb128 .LVU330
	.uleb128 .LVU330
	.uleb128 .LVU341
	.uleb128 .LVU341
	.uleb128 .LVU469
	.uleb128 .LVU469
	.uleb128 .LVU471
	.uleb128 .LVU471
	.uleb128 .LVU483
	.uleb128 .LVU483
	.uleb128 .LVU492
	.uleb128 .LVU492
	.uleb128 0
.LLST34:
	.4byte	.LVL74
	.4byte	.LVL77-1
	.2byte	0x1
	.byte	0x52
	.4byte	.LVL77-1
	.4byte	.LVL95
	.2byte	0x1
	.byte	0x5a
	.4byte	.LVL95
	.4byte	.LVL96
	.2byte	0x3
	.byte	0x91
	.sleb128 -72
	.4byte	.LVL96
	.4byte	.LVL128
	.2byte	0x4
	.byte	0xf3
	.uleb128 0x1
	.byte	0x52
	.byte	0x9f
	.4byte	.LVL128
	.4byte	.LVL130
	.2byte	0x1
	.byte	0x5a
	.4byte	.LVL130
	.4byte	.LVL141
	.2byte	0x4
	.byte	0xf3
	.uleb128 0x1
	.byte	0x52
	.byte	0x9f
	.4byte	.LVL141
	.4byte	.LVL144
	.2byte	0x1
	.byte	0x5a
	.4byte	.LVL144
	.4byte	.LFE31
	.2byte	0x4
	.byte	0xf3
	.uleb128 0x1
	.byte	0x52
	.byte	0x9f
	.4byte	0
	.4byte	0
.LVUS35:
	.uleb128 .LVU316
	.uleb128 .LVU341
	.uleb128 .LVU341
	.uleb128 .LVU469
	.uleb128 .LVU471
	.uleb128 .LVU483
	.uleb128 .LVU492
	.uleb128 0
.LLST35:
	.4byte	.LVL94
	.4byte	.LVL96
	.2byte	0x1
	.byte	0x50
	.4byte	.LVL96
	.4byte	.LVL128
	.2byte	0x1
	.byte	0x55
	.4byte	.LVL130
	.4byte	.LVL141
	.2byte	0x1
	.byte	0x55
	.4byte	.LVL144
	.4byte	.LFE31
	.2byte	0x1
	.byte	0x55
	.4byte	0
	.4byte	0
.LVUS36:
	.uleb128 .LVU291
	.uleb128 .LVU341
	.uleb128 .LVU353
	.uleb128 .LVU363
	.uleb128 .LVU430
	.uleb128 .LVU438
	.uleb128 .LVU474
	.uleb128 .LVU476
	.uleb128 .LVU483
	.uleb128 .LVU489
	.uleb128 .LVU489
	.uleb128 .LVU492
	.uleb128 .LVU492
	.uleb128 .LVU499
	.uleb128 .LVU500
	.uleb128 .LVU502
	.uleb128 .LVU502
	.uleb128 .LVU504
.LLST36:
	.4byte	.LVL88
	.4byte	.LVL96
	.2byte	0x2
	.byte	0x30
	.byte	0x9f
	.4byte	.LVL98
	.4byte	.LVL101
	.2byte	0x1
	.byte	0x50
	.4byte	.LVL119
	.4byte	.LVL123
	.2byte	0x1
	.byte	0x5b
	.4byte	.LVL134
	.4byte	.LVL136
	.2byte	0x1
	.byte	0x5b
	.4byte	.LVL141
	.4byte	.LVL143
	.2byte	0x2
	.byte	0x30
	.byte	0x9f
	.4byte	.LVL143
	.4byte	.LVL144
	.2byte	0x3
	.byte	0x8
	.byte	0x59
	.byte	0x9f
	.4byte	.LVL144
	.4byte	.LVL145
	.2byte	0x1
	.byte	0x50
	.4byte	.LVL147
	.4byte	.LVL148
	.2byte	0x1
	.byte	0x50
	.4byte	.LVL148
	.4byte	.LVL150
	.2byte	0x1
	.byte	0x5b
	.4byte	0
	.4byte	0
.LVUS37:
	.uleb128 .LVU292
	.uleb128 .LVU341
	.uleb128 .LVU341
	.uleb128 .LVU351
	.uleb128 .LVU355
	.uleb128 .LVU430
	.uleb128 .LVU438
	.uleb128 .LVU469
	.uleb128 .LVU471
	.uleb128 .LVU474
	.uleb128 .LVU476
	.uleb128 .LVU483
	.uleb128 .LVU483
	.uleb128 .LVU492
	.uleb128 .LVU500
	.uleb128 0
.LLST37:
	.4byte	.LVL88
	.4byte	.LVL96
	.2byte	0x2
	.byte	0x30
	.byte	0x9f
	.4byte	.LVL96
	.4byte	.LVL97
	.2byte	0x2
	.byte	0x31
	.byte	0x9f
	.4byte	.LVL99
	.4byte	.LVL119
	.2byte	0x2
	.byte	0x31
	.byte	0x9f
	.4byte	.LVL123
	.4byte	.LVL128
	.2byte	0x2
	.byte	0x31
	.byte	0x9f
	.4byte	.LVL130
	.4byte	.LVL134
	.2byte	0x2
	.byte	0x31
	.byte	0x9f
	.4byte	.LVL136
	.4byte	.LVL141
	.2byte	0x2
	.byte	0x31
	.byte	0x9f
	.4byte	.LVL141
	.4byte	.LVL144
	.2byte	0x2
	.byte	0x30
	.byte	0x9f
	.4byte	.LVL147
	.4byte	.LFE31
	.2byte	0x2
	.byte	0x31
	.byte	0x9f
	.4byte	0
	.4byte	0
.LVUS38:
	.uleb128 .LVU341
	.uleb128 .LVU351
	.uleb128 .LVU360
	.uleb128 .LVU367
	.uleb128 .LVU367
	.uleb128 .LVU377
	.uleb128 .LVU377
	.uleb128 .LVU430
	.uleb128 .LVU438
	.uleb128 .LVU469
	.uleb128 .LVU471
	.uleb128 .LVU474
	.uleb128 .LVU476
	.uleb128 .LVU483
	.uleb128 .LVU504
	.uleb128 0
.LLST38:
	.4byte	.LVL96
	.4byte	.LVL97
	.2byte	0x3
	.byte	0x9
	.byte	0xff
	.byte	0x9f
	.4byte	.LVL100
	.4byte	.LVL103
	.2byte	0x3
	.byte	0x9
	.byte	0xff
	.byte	0x9f
	.4byte	.LVL103
	.4byte	.LVL105
	.2byte	0x2
	.byte	0x30
	.byte	0x9f
	.4byte	.LVL105
	.4byte	.LVL119
	.2byte	0x3
	.byte	0x9
	.byte	0xff
	.byte	0x9f
	.4byte	.LVL123
	.4byte	.LVL128
	.2byte	0x3
	.byte	0x9
	.byte	0xff
	.byte	0x9f
	.4byte	.LVL130
	.4byte	.LVL134
	.2byte	0x3
	.byte	0x9
	.byte	0xff
	.byte	0x9f
	.4byte	.LVL136
	.4byte	.LVL141
	.2byte	0x3
	.byte	0x9
	.byte	0xff
	.byte	0x9f
	.4byte	.LVL150
	.4byte	.LFE31
	.2byte	0x3
	.byte	0x9
	.byte	0xff
	.byte	0x9f
	.4byte	0
	.4byte	0
.LVUS39:
	.uleb128 .LVU261
	.uleb128 .LVU265
	.uleb128 .LVU265
	.uleb128 .LVU266
	.uleb128 .LVU266
	.uleb128 .LVU268
.LLST39:
	.4byte	.LVL80
	.4byte	.LVL80
	.2byte	0x1
	.byte	0x51
	.4byte	.LVL80
	.4byte	.LVL81
	.2byte	0x3
	.byte	0x71
	.sleb128 1
	.byte	0x9f
	.4byte	.LVL81
	.4byte	.LVL82
	.2byte	0x1
	.byte	0x51
	.4byte	0
	.4byte	0
.LVUS40:
	.uleb128 .LVU261
	.uleb128 .LVU268
.LLST40:
	.4byte	.LVL80
	.4byte	.LVL82
	.2byte	0x1
	.byte	0x50
	.4byte	0
	.4byte	0
.LVUS41:
	.uleb128 .LVU278
	.uleb128 .LVU282
	.uleb128 .LVU282
	.uleb128 .LVU283
	.uleb128 .LVU283
	.uleb128 .LVU285
.LLST41:
	.4byte	.LVL85
	.4byte	.LVL85
	.2byte	0x1
	.byte	0x51
	.4byte	.LVL85
	.4byte	.LVL86
	.2byte	0x3
	.byte	0x71
	.sleb128 1
	.byte	0x9f
	.4byte	.LVL86
	.4byte	.LVL87
	.2byte	0x1
	.byte	0x51
	.4byte	0
	.4byte	0
.LVUS42:
	.uleb128 .LVU278
	.uleb128 .LVU285
.LLST42:
	.4byte	.LVL85
	.4byte	.LVL87
	.2byte	0x1
	.byte	0x50
	.4byte	0
	.4byte	0
.LVUS43:
	.uleb128 .LVU294
	.uleb128 .LVU301
	.uleb128 .LVU303
	.uleb128 .LVU307
	.uleb128 .LVU483
	.uleb128 .LVU489
.LLST43:
	.4byte	.LVL88
	.4byte	.LVL90
	.2byte	0x1
	.byte	0x56
	.4byte	.LVL91
	.4byte	.LVL92
	.2byte	0x1
	.byte	0x56
	.4byte	.LVL141
	.4byte	.LVL143
	.2byte	0x1
	.byte	0x56
	.4byte	0
	.4byte	0
.LVUS44:
	.uleb128 .LVU297
	.uleb128 .LVU299
	.uleb128 .LVU299
	.uleb128 .LVU307
	.uleb128 .LVU483
	.uleb128 .LVU487
.LLST44:
	.4byte	.LVL88
	.4byte	.LVL89
	.2byte	0x2
	.byte	0x30
	.byte	0x9f
	.4byte	.LVL89
	.4byte	.LVL92
	.2byte	0x1
	.byte	0x53
	.4byte	.LVL141
	.4byte	.LVL142-1
	.2byte	0x1
	.byte	0x53
	.4byte	0
	.4byte	0
.LVUS45:
	.uleb128 .LVU378
	.uleb128 .LVU428
	.uleb128 .LVU471
	.uleb128 .LVU474
	.uleb128 .LVU476
	.uleb128 .LVU483
	.uleb128 .LVU511
	.uleb128 .LVU522
	.uleb128 .LVU549
	.uleb128 0
.LLST45:
	.4byte	.LVL105
	.4byte	.LVL118
	.2byte	0x1
	.byte	0x55
	.4byte	.LVL130
	.4byte	.LVL134
	.2byte	0x1
	.byte	0x55
	.4byte	.LVL136
	.4byte	.LVL141
	.2byte	0x1
	.byte	0x55
	.4byte	.LVL153
	.4byte	.LVL158
	.2byte	0x1
	.byte	0x55
	.4byte	.LVL165
	.4byte	.LFE31
	.2byte	0x1
	.byte	0x55
	.4byte	0
	.4byte	0
.LVUS46:
	.uleb128 .LVU381
	.uleb128 .LVU408
	.uleb128 .LVU408
	.uleb128 .LVU411
	.uleb128 .LVU411
	.uleb128 .LVU413
	.uleb128 .LVU471
	.uleb128 .LVU474
	.uleb128 .LVU476
	.uleb128 .LVU478
	.uleb128 .LVU563
	.uleb128 0
.LLST46:
	.4byte	.LVL106
	.4byte	.LVL110
	.2byte	0x2
	.byte	0x30
	.byte	0x9f
	.4byte	.LVL110
	.4byte	.LVL111-1
	.2byte	0x1
	.byte	0x51
	.4byte	.LVL111-1
	.4byte	.LVL112
	.2byte	0x1
	.byte	0x5a
	.4byte	.LVL130
	.4byte	.LVL134
	.2byte	0x2
	.byte	0x30
	.byte	0x9f
	.4byte	.LVL136
	.4byte	.LVL137
	.2byte	0x1
	.byte	0x5a
	.4byte	.LVL167
	.4byte	.LFE31
	.2byte	0x2
	.byte	0x30
	.byte	0x9f
	.4byte	0
	.4byte	0
.LVUS47:
	.uleb128 .LVU386
	.uleb128 .LVU428
	.uleb128 .LVU471
	.uleb128 .LVU474
	.uleb128 .LVU476
	.uleb128 .LVU483
	.uleb128 .LVU511
	.uleb128 .LVU522
	.uleb128 .LVU549
	.uleb128 0
.LLST47:
	.4byte	.LVL107
	.4byte	.LVL118
	.2byte	0x1
	.byte	0x5b
	.4byte	.LVL130
	.4byte	.LVL134
	.2byte	0x1
	.byte	0x5b
	.4byte	.LVL136
	.4byte	.LVL141
	.2byte	0x1
	.byte	0x5b
	.4byte	.LVL153
	.4byte	.LVL158
	.2byte	0x1
	.byte	0x5b
	.4byte	.LVL165
	.4byte	.LFE31
	.2byte	0x1
	.byte	0x5b
	.4byte	0
	.4byte	0
.LVUS48:
	.uleb128 .LVU387
	.uleb128 .LVU409
	.uleb128 .LVU471
	.uleb128 .LVU474
	.uleb128 .LVU563
	.uleb128 0
.LLST48:
	.4byte	.LVL107
	.4byte	.LVL110
	.2byte	0x2
	.byte	0x30
	.byte	0x9f
	.4byte	.LVL130
	.4byte	.LVL134
	.2byte	0x2
	.byte	0x30
	.byte	0x9f
	.4byte	.LVL167
	.4byte	.LFE31
	.2byte	0x2
	.byte	0x30
	.byte	0x9f
	.4byte	0
	.4byte	0
.LVUS49:
	.uleb128 .LVU511
	.uleb128 .LVU515
.LLST49:
	.4byte	.LVL153
	.4byte	.LVL154
	.2byte	0x1
	.byte	0x5a
	.4byte	0
	.4byte	0
.LVUS50:
	.uleb128 .LVU439
	.uleb128 .LVU469
	.uleb128 .LVU504
	.uleb128 .LVU511
	.uleb128 .LVU522
	.uleb128 .LVU549
.LLST50:
	.4byte	.LVL123
	.4byte	.LVL128
	.2byte	0x1
	.byte	0x55
	.4byte	.LVL150
	.4byte	.LVL153
	.2byte	0x1
	.byte	0x55
	.4byte	.LVL158
	.4byte	.LVL165
	.2byte	0x1
	.byte	0x55
	.4byte	0
	.4byte	0
.LVUS51:
	.uleb128 .LVU445
	.uleb128 .LVU469
	.uleb128 .LVU504
	.uleb128 .LVU511
	.uleb128 .LVU522
	.uleb128 .LVU549
.LLST51:
	.4byte	.LVL125
	.4byte	.LVL128
	.2byte	0x1
	.byte	0x5a
	.4byte	.LVL150
	.4byte	.LVL153
	.2byte	0x1
	.byte	0x5a
	.4byte	.LVL158
	.4byte	.LVL165
	.2byte	0x1
	.byte	0x5a
	.4byte	0
	.4byte	0
.LVUS52:
	.uleb128 .LVU453
	.uleb128 .LVU469
	.uleb128 .LVU508
	.uleb128 .LVU511
.LLST52:
	.4byte	.LVL127
	.4byte	.LVL128
	.2byte	0x1
	.byte	0x50
	.4byte	.LVL152
	.4byte	.LVL153
	.2byte	0x1
	.byte	0x50
	.4byte	0
	.4byte	0
.LVUS53:
	.uleb128 .LVU529
	.uleb128 .LVU534
	.uleb128 .LVU534
	.uleb128 .LVU549
.LLST53:
	.4byte	.LVL160
	.4byte	.LVL161-1
	.2byte	0x1
	.byte	0x53
	.4byte	.LVL161-1
	.4byte	.LVL165
	.2byte	0x3
	.byte	0x91
	.sleb128 -84
	.4byte	0
	.4byte	0
.LVUS54:
	.uleb128 .LVU530
	.uleb128 .LVU549
.LLST54:
	.4byte	.LVL160
	.4byte	.LVL165
	.2byte	0x6
	.byte	0x3
	.4byte	.LC23
	.byte	0x9f
	.4byte	0
	.4byte	0
.LVUS55:
	.uleb128 .LVU531
	.uleb128 .LVU549
.LLST55:
	.4byte	.LVL160
	.4byte	.LVL165
	.2byte	0x6
	.byte	0x3
	.4byte	.LC22
	.byte	0x9f
	.4byte	0
	.4byte	0
.LVUS61:
	.uleb128 0
	.uleb128 .LVU593
	.uleb128 .LVU593
	.uleb128 0
.LLST61:
	.4byte	.LVL179
	.4byte	.LVL180
	.2byte	0x1
	.byte	0x50
	.4byte	.LVL180
	.4byte	.LFE29
	.2byte	0x1
	.byte	0x56
	.4byte	0
	.4byte	0
.LVUS62:
	.uleb128 0
	.uleb128 .LVU597
	.uleb128 .LVU597
	.uleb128 0
.LLST62:
	.4byte	.LVL179
	.4byte	.LVL182
	.2byte	0x1
	.byte	0x51
	.4byte	.LVL182
	.4byte	.LFE29
	.2byte	0x1
	.byte	0x57
	.4byte	0
	.4byte	0
.LVUS63:
	.uleb128 0
	.uleb128 .LVU595
	.uleb128 .LVU595
	.uleb128 .LVU612
	.uleb128 .LVU612
	.uleb128 0
.LLST63:
	.4byte	.LVL179
	.4byte	.LVL181
	.2byte	0x1
	.byte	0x52
	.4byte	.LVL181
	.4byte	.LVL188
	.2byte	0x1
	.byte	0x55
	.4byte	.LVL188
	.4byte	.LFE29
	.2byte	0x4
	.byte	0xf3
	.uleb128 0x1
	.byte	0x52
	.byte	0x9f
	.4byte	0
	.4byte	0
.LVUS64:
	.uleb128 .LVU602
	.uleb128 .LVU610
	.uleb128 .LVU610
	.uleb128 .LVU611
	.uleb128 .LVU611
	.uleb128 0
.LLST64:
	.4byte	.LVL185
	.4byte	.LVL186
	.2byte	0x1
	.byte	0x50
	.4byte	.LVL186
	.4byte	.LVL187-1
	.2byte	0x1
	.byte	0x51
	.4byte	.LVL187-1
	.4byte	.LFE29
	.2byte	0x1
	.byte	0x54
	.4byte	0
	.4byte	0
.LVUS65:
	.uleb128 .LVU612
	.uleb128 .LVU613
	.uleb128 .LVU613
	.uleb128 0
.LLST65:
	.4byte	.LVL188
	.4byte	.LVL189
	.2byte	0x1
	.byte	0x50
	.4byte	.LVL189
	.4byte	.LFE29
	.2byte	0x1
	.byte	0x55
	.4byte	0
	.4byte	0
.LVUS56:
	.uleb128 0
	.uleb128 .LVU569
	.uleb128 .LVU569
	.uleb128 .LVU584
	.uleb128 .LVU584
	.uleb128 0
.LLST56:
	.4byte	.LVL169
	.4byte	.LVL170
	.2byte	0x1
	.byte	0x50
	.4byte	.LVL170
	.4byte	.LVL176
	.2byte	0x1
	.byte	0x55
	.4byte	.LVL176
	.4byte	.LFE28
	.2byte	0x4
	.byte	0xf3
	.uleb128 0x1
	.byte	0x50
	.byte	0x9f
	.4byte	0
	.4byte	0
.LVUS57:
	.uleb128 0
	.uleb128 .LVU571
	.uleb128 .LVU571
	.uleb128 0
.LLST57:
	.4byte	.LVL169
	.4byte	.LVL171-1
	.2byte	0x1
	.byte	0x51
	.4byte	.LVL171-1
	.4byte	.LFE28
	.2byte	0x1
	.byte	0x56
	.4byte	0
	.4byte	0
.LVUS58:
	.uleb128 0
	.uleb128 .LVU571
	.uleb128 .LVU571
	.uleb128 0
.LLST58:
	.4byte	.LVL169
	.4byte	.LVL171-1
	.2byte	0x1
	.byte	0x52
	.4byte	.LVL171-1
	.4byte	.LFE28
	.2byte	0x1
	.byte	0x57
	.4byte	0
	.4byte	0
.LVUS59:
	.uleb128 .LVU584
	.uleb128 .LVU585
	.uleb128 .LVU585
	.uleb128 0
.LLST59:
	.4byte	.LVL176
	.4byte	.LVL177
	.2byte	0x1
	.byte	0x50
	.4byte	.LVL177
	.4byte	.LFE28
	.2byte	0x1
	.byte	0x55
	.4byte	0
	.4byte	0
.LVUS60:
	.uleb128 .LVU578
	.uleb128 .LVU582
	.uleb128 .LVU582
	.uleb128 .LVU583
	.uleb128 .LVU583
	.uleb128 0
.LLST60:
	.4byte	.LVL173
	.4byte	.LVL174
	.2byte	0x1
	.byte	0x50
	.4byte	.LVL174
	.4byte	.LVL175-1
	.2byte	0x1
	.byte	0x51
	.4byte	.LVL175-1
	.4byte	.LFE28
	.2byte	0x1
	.byte	0x54
	.4byte	0
	.4byte	0
.LVUS18:
	.uleb128 0
	.uleb128 .LVU133
	.uleb128 .LVU133
	.uleb128 .LVU162
	.uleb128 .LVU162
	.uleb128 .LVU173
	.uleb128 .LVU173
	.uleb128 .LVU176
	.uleb128 .LVU176
	.uleb128 .LVU220
	.uleb128 .LVU220
	.uleb128 .LVU221
	.uleb128 .LVU221
	.uleb128 .LVU223
	.uleb128 .LVU223
	.uleb128 .LVU225
	.uleb128 .LVU225
	.uleb128 0
.LLST18:
	.4byte	.LVL36
	.4byte	.LVL37
	.2byte	0x1
	.byte	0x50
	.4byte	.LVL37
	.4byte	.LVL41
	.2byte	0x1
	.byte	0x54
	.4byte	.LVL41
	.4byte	.LVL44
	.2byte	0x2
	.byte	0x70
	.sleb128 0
	.4byte	.LVL44
	.4byte	.LVL46-1
	.2byte	0x2
	.byte	0x75
	.sleb128 0
	.4byte	.LVL46-1
	.4byte	.LVL68
	.2byte	0x4
	.byte	0xf3
	.uleb128 0x1
	.byte	0x50
	.byte	0x9f
	.4byte	.LVL68
	.4byte	.LVL69
	.2byte	0x2
	.byte	0x70
	.sleb128 0
	.4byte	.LVL69
	.4byte	.LVL70-1
	.2byte	0x2
	.byte	0x75
	.sleb128 0
	.4byte	.LVL70-1
	.4byte	.LVL72
	.2byte	0x4
	.byte	0xf3
	.uleb128 0x1
	.byte	0x50
	.byte	0x9f
	.4byte	.LVL72
	.4byte	.LFE23
	.2byte	0x1
	.byte	0x54
	.4byte	0
	.4byte	0
.LVUS19:
	.uleb128 0
	.uleb128 .LVU138
	.uleb128 .LVU138
	.uleb128 .LVU204
	.uleb128 .LVU204
	.uleb128 .LVU220
	.uleb128 .LVU220
	.uleb128 0
.LLST19:
	.4byte	.LVL36
	.4byte	.LVL38-1
	.2byte	0x1
	.byte	0x51
	.4byte	.LVL38-1
	.4byte	.LVL62
	.2byte	0x1
	.byte	0x57
	.4byte	.LVL62
	.4byte	.LVL68
	.2byte	0x3
	.byte	0x77
	.sleb128 -13
	.byte	0x9f
	.4byte	.LVL68
	.4byte	.LFE23
	.2byte	0x1
	.byte	0x57
	.4byte	0
	.4byte	0
.LVUS20:
	.uleb128 0
	.uleb128 .LVU138
	.uleb128 .LVU138
	.uleb128 .LVU166
	.uleb128 .LVU166
	.uleb128 .LVU225
	.uleb128 .LVU225
	.uleb128 0
.LLST20:
	.4byte	.LVL36
	.4byte	.LVL38-1
	.2byte	0x1
	.byte	0x52
	.4byte	.LVL38-1
	.4byte	.LVL42
	.2byte	0x1
	.byte	0x55
	.4byte	.LVL42
	.4byte	.LVL72
	.2byte	0x4
	.byte	0xf3
	.uleb128 0x1
	.byte	0x52
	.byte	0x9f
	.4byte	.LVL72
	.4byte	.LFE23
	.2byte	0x1
	.byte	0x55
	.4byte	0
	.4byte	0
.LVUS21:
	.uleb128 0
	.uleb128 .LVU138
	.uleb128 .LVU138
	.uleb128 0
.LLST21:
	.4byte	.LVL36
	.4byte	.LVL38-1
	.2byte	0x1
	.byte	0x53
	.4byte	.LVL38-1
	.4byte	.LFE23
	.2byte	0x4
	.byte	0xf3
	.uleb128 0x1
	.byte	0x53
	.byte	0x9f
	.4byte	0
	.4byte	0
.LVUS22:
	.uleb128 0
	.uleb128 .LVU220
	.uleb128 .LVU220
	.uleb128 0
.LLST22:
	.4byte	.LVL36
	.4byte	.LVL68
	.2byte	0x2
	.byte	0x91
	.sleb128 0
	.4byte	.LVL68
	.4byte	.LFE23
	.2byte	0x2
	.byte	0x91
	.sleb128 0
	.4byte	0
	.4byte	0
.LVUS23:
	.uleb128 0
	.uleb128 .LVU220
	.uleb128 .LVU220
	.uleb128 0
.LLST23:
	.4byte	.LVL36
	.4byte	.LVL68
	.2byte	0x2
	.byte	0x91
	.sleb128 4
	.4byte	.LVL68
	.4byte	.LFE23
	.2byte	0x2
	.byte	0x91
	.sleb128 4
	.4byte	0
	.4byte	0
.LVUS24:
	.uleb128 0
	.uleb128 .LVU148
	.uleb128 .LVU148
	.uleb128 .LVU175
	.uleb128 .LVU175
	.uleb128 .LVU220
	.uleb128 .LVU220
	.uleb128 0
.LLST24:
	.4byte	.LVL36
	.4byte	.LVL39
	.2byte	0x2
	.byte	0x91
	.sleb128 8
	.4byte	.LVL39
	.4byte	.LVL45
	.2byte	0x1
	.byte	0x58
	.4byte	.LVL45
	.4byte	.LVL68
	.2byte	0x10
	.byte	0x91
	.sleb128 -36
	.byte	0x91
	.sleb128 8
	.byte	0x6
	.byte	0x91
	.sleb128 8
	.byte	0x6
	.byte	0x30
	.byte	0x29
	.byte	0x28
	.2byte	0x1
	.byte	0x16
	.byte	0x13
	.byte	0x9f
	.4byte	.LVL68
	.4byte	.LFE23
	.2byte	0x1
	.byte	0x58
	.4byte	0
	.4byte	0
.LVUS25:
	.uleb128 0
	.uleb128 .LVU220
	.uleb128 .LVU220
	.uleb128 0
.LLST25:
	.4byte	.LVL36
	.4byte	.LVL68
	.2byte	0x2
	.byte	0x91
	.sleb128 12
	.4byte	.LVL68
	.4byte	.LFE23
	.2byte	0x2
	.byte	0x91
	.sleb128 12
	.4byte	0
	.4byte	0
.LVUS26:
	.uleb128 0
	.uleb128 .LVU220
	.uleb128 .LVU220
	.uleb128 0
.LLST26:
	.4byte	.LVL36
	.4byte	.LVL68
	.2byte	0x2
	.byte	0x91
	.sleb128 16
	.4byte	.LVL68
	.4byte	.LFE23
	.2byte	0x2
	.byte	0x91
	.sleb128 16
	.4byte	0
	.4byte	0
.LVUS27:
	.uleb128 .LVU166
	.uleb128 .LVU173
	.uleb128 .LVU173
	.uleb128 .LVU220
	.uleb128 .LVU220
	.uleb128 .LVU221
	.uleb128 .LVU221
	.uleb128 .LVU225
.LLST27:
	.4byte	.LVL42
	.4byte	.LVL44
	.2byte	0x1
	.byte	0x50
	.4byte	.LVL44
	.4byte	.LVL68
	.2byte	0x1
	.byte	0x55
	.4byte	.LVL68
	.4byte	.LVL69
	.2byte	0x1
	.byte	0x50
	.4byte	.LVL69
	.4byte	.LVL72
	.2byte	0x1
	.byte	0x55
	.4byte	0
	.4byte	0
.LVUS28:
	.uleb128 .LVU170
	.uleb128 .LVU194
	.uleb128 .LVU220
	.uleb128 .LVU225
.LLST28:
	.4byte	.LVL43
	.4byte	.LVL56
	.2byte	0x1
	.byte	0x54
	.4byte	.LVL68
	.4byte	.LVL72
	.2byte	0x1
	.byte	0x54
	.4byte	0
	.4byte	0
.LVUS29:
	.uleb128 .LVU181
	.uleb128 .LVU183
.LLST29:
	.4byte	.LVL47
	.4byte	.LVL50
	.2byte	0x2
	.byte	0x79
	.sleb128 0
	.4byte	0
	.4byte	0
.LVUS30:
	.uleb128 .LVU191
	.uleb128 .LVU194
	.uleb128 .LVU194
	.uleb128 .LVU195
	.uleb128 .LVU195
	.uleb128 .LVU196
	.uleb128 .LVU196
	.uleb128 .LVU197
	.uleb128 .LVU197
	.uleb128 .LVU199
	.uleb128 .LVU199
	.uleb128 .LVU201
.LLST30:
	.4byte	.LVL55
	.4byte	.LVL56
	.2byte	0x2
	.byte	0x30
	.byte	0x9f
	.4byte	.LVL56
	.4byte	.LVL57
	.2byte	0x8
	.byte	0x78
	.sleb128 0
	.byte	0x75
	.sleb128 0
	.byte	0x1c
	.byte	0x38
	.byte	0x1c
	.byte	0x9f
	.4byte	.LVL57
	.4byte	.LVL58
	.2byte	0x8
	.byte	0x74
	.sleb128 0
	.byte	0x75
	.sleb128 0
	.byte	0x1c
	.byte	0x38
	.byte	0x1c
	.byte	0x9f
	.4byte	.LVL58
	.4byte	.LVL59
	.2byte	0x7
	.byte	0x75
	.sleb128 0
	.byte	0x20
	.byte	0x74
	.sleb128 0
	.byte	0x22
	.byte	0x9f
	.4byte	.LVL59
	.4byte	.LVL60
	.2byte	0x8
	.byte	0x78
	.sleb128 0
	.byte	0x75
	.sleb128 0
	.byte	0x1c
	.byte	0x39
	.byte	0x1c
	.byte	0x9f
	.4byte	.LVL60
	.4byte	.LVL61
	.2byte	0x8
	.byte	0x78
	.sleb128 0
	.byte	0x75
	.sleb128 0
	.byte	0x1c
	.byte	0x38
	.byte	0x1c
	.byte	0x9f
	.4byte	0
	.4byte	0
.LVUS31:
	.uleb128 .LVU211
	.uleb128 .LVU212
	.uleb128 .LVU212
	.uleb128 .LVU213
	.uleb128 .LVU213
	.uleb128 .LVU215
	.uleb128 .LVU215
	.uleb128 .LVU220
.LLST31:
	.4byte	.LVL64
	.4byte	.LVL64
	.2byte	0x2
	.byte	0x30
	.byte	0x9f
	.4byte	.LVL64
	.4byte	.LVL65
	.2byte	0x8
	.byte	0x74
	.sleb128 0
	.byte	0x77
	.sleb128 0
	.byte	0x1c
	.byte	0x23
	.uleb128 0x8
	.byte	0x9f
	.4byte	.LVL65
	.4byte	.LVL66
	.2byte	0x8
	.byte	0x74
	.sleb128 0
	.byte	0x77
	.sleb128 0
	.byte	0x1c
	.byte	0x23
	.uleb128 0x7
	.byte	0x9f
	.4byte	.LVL66
	.4byte	.LVL68
	.2byte	0x8
	.byte	0x74
	.sleb128 0
	.byte	0x77
	.sleb128 0
	.byte	0x1c
	.byte	0x23
	.uleb128 0x8
	.byte	0x9f
	.4byte	0
	.4byte	0
.LVUS9:
	.uleb128 0
	.uleb128 .LVU81
	.uleb128 .LVU81
	.uleb128 0
.LLST9:
	.4byte	.LVL22
	.4byte	.LVL25
	.2byte	0x1
	.byte	0x50
	.4byte	.LVL25
	.4byte	.LFE22
	.2byte	0x4
	.byte	0xf3
	.uleb128 0x1
	.byte	0x50
	.byte	0x9f
	.4byte	0
	.4byte	0
.LVUS10:
	.uleb128 0
	.uleb128 .LVU79
	.uleb128 .LVU79
	.uleb128 .LVU81
	.uleb128 .LVU81
	.uleb128 0
.LLST10:
	.4byte	.LVL22
	.4byte	.LVL24
	.2byte	0x1
	.byte	0x51
	.4byte	.LVL24
	.4byte	.LVL25
	.2byte	0x3
	.byte	0x71
	.sleb128 1
	.byte	0x9f
	.4byte	.LVL25
	.4byte	.LFE22
	.2byte	0x4
	.byte	0xf3
	.uleb128 0x1
	.byte	0x51
	.byte	0x9f
	.4byte	0
	.4byte	0
.LVUS11:
	.uleb128 0
	.uleb128 .LVU81
	.uleb128 .LVU81
	.uleb128 0
.LLST11:
	.4byte	.LVL22
	.4byte	.LVL25
	.2byte	0x1
	.byte	0x52
	.4byte	.LVL25
	.4byte	.LFE22
	.2byte	0x4
	.byte	0xf3
	.uleb128 0x1
	.byte	0x52
	.byte	0x9f
	.4byte	0
	.4byte	0
.LVUS12:
	.uleb128 .LVU77
	.uleb128 .LVU81
	.uleb128 .LVU81
	.uleb128 .LVU105
	.uleb128 .LVU105
	.uleb128 .LVU106
	.uleb128 .LVU106
	.uleb128 0
.LLST12:
	.4byte	.LVL23
	.4byte	.LVL25
	.2byte	0x2
	.byte	0x30
	.byte	0x9f
	.4byte	.LVL25
	.4byte	.LVL31
	.2byte	0x9
	.byte	0x71
	.sleb128 0
	.byte	0xf3
	.uleb128 0x1
	.byte	0x51
	.byte	0x1c
	.byte	0x23
	.uleb128 0x1
	.byte	0x9f
	.4byte	.LVL31
	.4byte	.LVL31
	.2byte	0x7
	.byte	0x71
	.sleb128 0
	.byte	0xf3
	.uleb128 0x1
	.byte	0x51
	.byte	0x1c
	.byte	0x9f
	.4byte	.LVL31
	.4byte	.LFE22
	.2byte	0x9
	.byte	0x71
	.sleb128 0
	.byte	0xf3
	.uleb128 0x1
	.byte	0x51
	.byte	0x1c
	.byte	0x23
	.uleb128 0x1
	.byte	0x9f
	.4byte	0
	.4byte	0
.LVUS13:
	.uleb128 .LVU81
	.uleb128 .LVU88
	.uleb128 .LVU110
	.uleb128 .LVU124
.LLST13:
	.4byte	.LVL25
	.4byte	.LVL26
	.2byte	0x1
	.byte	0x52
	.4byte	.LVL33
	.4byte	.LVL34
	.2byte	0x1
	.byte	0x52
	.4byte	0
	.4byte	0
.LVUS14:
	.uleb128 .LVU81
	.uleb128 .LVU88
.LLST14:
	.4byte	.LVL25
	.4byte	.LVL26
	.2byte	0x1
	.byte	0x52
	.4byte	0
	.4byte	0
.LVUS15:
	.uleb128 .LVU89
	.uleb128 .LVU102
	.uleb128 .LVU102
	.uleb128 .LVU104
	.uleb128 .LVU124
	.uleb128 .LVU127
	.uleb128 .LVU127
	.uleb128 0
.LLST15:
	.4byte	.LVL27
	.4byte	.LVL29
	.2byte	0x1
	.byte	0x5e
	.4byte	.LVL29
	.4byte	.LVL30
	.2byte	0x4
	.byte	0x72
	.sleb128 97
	.byte	0x9f
	.4byte	.LVL34
	.4byte	.LVL35
	.2byte	0x1
	.byte	0x5e
	.4byte	.LVL35
	.4byte	.LFE22
	.2byte	0x3
	.byte	0x7e
	.sleb128 55
	.byte	0x9f
	.4byte	0
	.4byte	0
.LVUS16:
	.uleb128 .LVU97
	.uleb128 .LVU102
	.uleb128 .LVU102
	.uleb128 .LVU104
.LLST16:
	.4byte	.LVL28
	.4byte	.LVL29
	.2byte	0x1
	.byte	0x5e
	.4byte	.LVL29
	.4byte	.LVL30
	.2byte	0x4
	.byte	0x72
	.sleb128 97
	.byte	0x9f
	.4byte	0
	.4byte	0
.LVUS0:
	.uleb128 0
	.uleb128 .LVU7
	.uleb128 .LVU7
	.uleb128 0
.LLST0:
	.4byte	.LVL0
	.4byte	.LVL1
	.2byte	0x1
	.byte	0x50
	.4byte	.LVL1
	.4byte	.LFE20
	.2byte	0x1
	.byte	0x5a
	.4byte	0
	.4byte	0
.LVUS1:
	.uleb128 0
	.uleb128 .LVU13
	.uleb128 .LVU13
	.uleb128 0
.LLST1:
	.4byte	.LVL0
	.4byte	.LVL2-1
	.2byte	0x1
	.byte	0x51
	.4byte	.LVL2-1
	.4byte	.LFE20
	.2byte	0x3
	.byte	0x91
	.sleb128 -148
	.4byte	0
	.4byte	0
.LVUS2:
	.uleb128 0
	.uleb128 .LVU13
	.uleb128 .LVU13
	.uleb128 0
.LLST2:
	.4byte	.LVL0
	.4byte	.LVL2-1
	.2byte	0x1
	.byte	0x52
	.4byte	.LVL2-1
	.4byte	.LFE20
	.2byte	0x1
	.byte	0x57
	.4byte	0
	.4byte	0
.LVUS3:
	.uleb128 0
	.uleb128 .LVU13
	.uleb128 .LVU13
	.uleb128 .LVU52
	.uleb128 .LVU52
	.uleb128 .LVU68
	.uleb128 .LVU68
	.uleb128 0
.LLST3:
	.4byte	.LVL0
	.4byte	.LVL2-1
	.2byte	0x1
	.byte	0x53
	.4byte	.LVL2-1
	.4byte	.LVL12
	.2byte	0x1
	.byte	0x56
	.4byte	.LVL12
	.4byte	.LVL19
	.2byte	0x4
	.byte	0xf3
	.uleb128 0x1
	.byte	0x53
	.byte	0x9f
	.4byte	.LVL19
	.4byte	.LFE20
	.2byte	0x1
	.byte	0x56
	.4byte	0
	.4byte	0
.LVUS4:
	.uleb128 .LVU16
	.uleb128 .LVU24
	.uleb128 .LVU24
	.uleb128 .LVU35
	.uleb128 .LVU35
	.uleb128 .LVU37
	.uleb128 .LVU37
	.uleb128 .LVU50
	.uleb128 .LVU68
	.uleb128 .LVU70
	.uleb128 .LVU70
	.uleb128 0
.LLST4:
	.4byte	.LVL3
	.4byte	.LVL4
	.2byte	0x2
	.byte	0x30
	.byte	0x9f
	.4byte	.LVL4
	.4byte	.LVL7
	.2byte	0x1
	.byte	0x55
	.4byte	.LVL7
	.4byte	.LVL8
	.2byte	0x3
	.byte	0x75
	.sleb128 -1
	.byte	0x9f
	.4byte	.LVL8
	.4byte	.LVL11
	.2byte	0x1
	.byte	0x55
	.4byte	.LVL19
	.4byte	.LVL21
	.2byte	0x1
	.byte	0x55
	.4byte	.LVL21
	.4byte	.LFE20
	.2byte	0x2
	.byte	0x30
	.byte	0x9f
	.4byte	0
	.4byte	0
.LVUS5:
	.uleb128 .LVU17
	.uleb128 .LVU24
	.uleb128 .LVU24
	.uleb128 .LVU30
	.uleb128 .LVU30
	.uleb128 .LVU32
	.uleb128 .LVU41
	.uleb128 .LVU45
	.uleb128 .LVU68
	.uleb128 .LVU69
	.uleb128 .LVU69
	.uleb128 .LVU70
	.uleb128 .LVU70
	.uleb128 0
.LLST5:
	.4byte	.LVL3
	.4byte	.LVL4
	.2byte	0x2
	.byte	0x30
	.byte	0x9f
	.4byte	.LVL4
	.4byte	.LVL5
	.2byte	0x1
	.byte	0x54
	.4byte	.LVL5
	.4byte	.LVL6
	.2byte	0x3
	.byte	0x74
	.sleb128 -1
	.byte	0x9f
	.4byte	.LVL9
	.4byte	.LVL10
	.2byte	0x2
	.byte	0x30
	.byte	0x9f
	.4byte	.LVL19
	.4byte	.LVL20
	.2byte	0x1
	.byte	0x54
	.4byte	.LVL20
	.4byte	.LVL21
	.2byte	0x1
	.byte	0x53
	.4byte	.LVL21
	.4byte	.LFE20
	.2byte	0x2
	.byte	0x30
	.byte	0x9f
	.4byte	0
	.4byte	0
.LVUS6:
	.uleb128 .LVU18
	.uleb128 .LVU52
	.uleb128 .LVU52
	.uleb128 .LVU68
	.uleb128 .LVU68
	.uleb128 0
.LLST6:
	.4byte	.LVL3
	.4byte	.LVL12
	.2byte	0xb
	.byte	0x76
	.sleb128 0
	.byte	0xf7
	.uleb128 0x25
	.byte	0x3a
	.byte	0xf7
	.uleb128 0x25
	.byte	0x1b
	.byte	0xf7
	.uleb128 0
	.byte	0x9f
	.4byte	.LVL12
	.4byte	.LVL19
	.2byte	0xc
	.byte	0xf3
	.uleb128 0x1
	.byte	0x53
	.byte	0xf7
	.uleb128 0x25
	.byte	0x3a
	.byte	0xf7
	.uleb128 0x25
	.byte	0x1b
	.byte	0xf7
	.uleb128 0
	.byte	0x9f
	.4byte	.LVL19
	.4byte	.LFE20
	.2byte	0xb
	.byte	0x76
	.sleb128 0
	.byte	0xf7
	.uleb128 0x25
	.byte	0x3a
	.byte	0xf7
	.uleb128 0x25
	.byte	0x1b
	.byte	0xf7
	.uleb128 0
	.byte	0x9f
	.4byte	0
	.4byte	0
.LVUS7:
	.uleb128 .LVU19
	.uleb128 .LVU52
	.uleb128 .LVU52
	.uleb128 .LVU68
	.uleb128 .LVU68
	.uleb128 0
.LLST7:
	.4byte	.LVL3
	.4byte	.LVL12
	.2byte	0xb
	.byte	0x76
	.sleb128 0
	.byte	0xf7
	.uleb128 0x25
	.byte	0x3a
	.byte	0xf7
	.uleb128 0x25
	.byte	0x1b
	.byte	0xf7
	.uleb128 0
	.byte	0x9f
	.4byte	.LVL12
	.4byte	.LVL19
	.2byte	0xc
	.byte	0xf3
	.uleb128 0x1
	.byte	0x53
	.byte	0xf7
	.uleb128 0x25
	.byte	0x3a
	.byte	0xf7
	.uleb128 0x25
	.byte	0x1b
	.byte	0xf7
	.uleb128 0
	.byte	0x9f
	.4byte	.LVL19
	.4byte	.LFE20
	.2byte	0xb
	.byte	0x76
	.sleb128 0
	.byte	0xf7
	.uleb128 0x25
	.byte	0x3a
	.byte	0xf7
	.uleb128 0x25
	.byte	0x1b
	.byte	0xf7
	.uleb128 0
	.byte	0x9f
	.4byte	0
	.4byte	0
.LVUS8:
	.uleb128 .LVU60
	.uleb128 .LVU61
	.uleb128 .LVU61
	.uleb128 .LVU62
	.uleb128 .LVU62
	.uleb128 .LVU64
	.uleb128 .LVU64
	.uleb128 .LVU68
.LLST8:
	.4byte	.LVL15
	.4byte	.LVL15
	.2byte	0x2
	.byte	0x30
	.byte	0x9f
	.4byte	.LVL15
	.4byte	.LVL16
	.2byte	0x9
	.byte	0x74
	.sleb128 0
	.byte	0x91
	.sleb128 -8
	.byte	0x6
	.byte	0x1c
	.byte	0x23
	.uleb128 0x1
	.byte	0x9f
	.4byte	.LVL16
	.4byte	.LVL17
	.2byte	0x7
	.byte	0x74
	.sleb128 0
	.byte	0x91
	.sleb128 -8
	.byte	0x6
	.byte	0x1c
	.byte	0x9f
	.4byte	.LVL17
	.4byte	.LVL19
	.2byte	0x9
	.byte	0x74
	.sleb128 0
	.byte	0x91
	.sleb128 -8
	.byte	0x6
	.byte	0x1c
	.byte	0x23
	.uleb128 0x1
	.byte	0x9f
	.4byte	0
	.4byte	0
	.section	.debug_aranges,"",%progbits
	.4byte	0x4c
	.2byte	0x2
	.4byte	.Ldebug_info0
	.byte	0x4
	.byte	0
	.2byte	0
	.2byte	0
	.4byte	.LFB19
	.4byte	.LFE19-.LFB19
	.4byte	.LFB20
	.4byte	.LFE20-.LFB20
	.4byte	.LFB22
	.4byte	.LFE22-.LFB22
	.4byte	.LFB23
	.4byte	.LFE23-.LFB23
	.4byte	.LFB31
	.4byte	.LFE31-.LFB31
	.4byte	.LFB28
	.4byte	.LFE28-.LFB28
	.4byte	.LFB29
	.4byte	.LFE29-.LFB29
	.4byte	0
	.4byte	0
	.section	.debug_ranges,"",%progbits
.Ldebug_ranges0:
	.4byte	.LBB26
	.4byte	.LBE26
	.4byte	.LBB27
	.4byte	.LBE27
	.4byte	.LBB28
	.4byte	.LBE28
	.4byte	.LBB29
	.4byte	.LBE29
	.4byte	.LBB33
	.4byte	.LBE33
	.4byte	0
	.4byte	0
	.4byte	.LBB30
	.4byte	.LBE30
	.4byte	.LBB31
	.4byte	.LBE31
	.4byte	.LBB32
	.4byte	.LBE32
	.4byte	0
	.4byte	0
	.4byte	.LBB43
	.4byte	.LBE43
	.4byte	.LBB64
	.4byte	.LBE64
	.4byte	.LBB65
	.4byte	.LBE65
	.4byte	0
	.4byte	0
	.4byte	.LBB44
	.4byte	.LBE44
	.4byte	.LBB59
	.4byte	.LBE59
	.4byte	.LBB60
	.4byte	.LBE60
	.4byte	.LBB61
	.4byte	.LBE61
	.4byte	0
	.4byte	0
	.4byte	.LBB51
	.4byte	.LBE51
	.4byte	.LBB58
	.4byte	.LBE58
	.4byte	.LBB62
	.4byte	.LBE62
	.4byte	.LBB63
	.4byte	.LBE63
	.4byte	0
	.4byte	0
	.4byte	.LBB68
	.4byte	.LBE68
	.4byte	.LBB69
	.4byte	.LBE69
	.4byte	.LBB70
	.4byte	.LBE70
	.4byte	0
	.4byte	0
	.4byte	.LBB91
	.4byte	.LBE91
	.4byte	.LBB123
	.4byte	.LBE123
	.4byte	0
	.4byte	0
	.4byte	.LBB94
	.4byte	.LBE94
	.4byte	.LBB109
	.4byte	.LBE109
	.4byte	.LBB110
	.4byte	.LBE110
	.4byte	.LBB111
	.4byte	.LBE111
	.4byte	.LBB121
	.4byte	.LBE121
	.4byte	.LBB122
	.4byte	.LBE122
	.4byte	.LBB125
	.4byte	.LBE125
	.4byte	.LBB127
	.4byte	.LBE127
	.4byte	.LBB128
	.4byte	.LBE128
	.4byte	.LBB129
	.4byte	.LBE129
	.4byte	0
	.4byte	0
	.4byte	.LBB96
	.4byte	.LBE96
	.4byte	.LBB97
	.4byte	.LBE97
	.4byte	0
	.4byte	0
	.4byte	.LBB112
	.4byte	.LBE112
	.4byte	.LBB124
	.4byte	.LBE124
	.4byte	.LBB126
	.4byte	.LBE126
	.4byte	0
	.4byte	0
	.4byte	.LBB114
	.4byte	.LBE114
	.4byte	.LBB115
	.4byte	.LBE115
	.4byte	.LBB116
	.4byte	.LBE116
	.4byte	.LBB117
	.4byte	.LBE117
	.4byte	0
	.4byte	0
	.4byte	.LFB19
	.4byte	.LFE19
	.4byte	.LFB20
	.4byte	.LFE20
	.4byte	.LFB22
	.4byte	.LFE22
	.4byte	.LFB23
	.4byte	.LFE23
	.4byte	.LFB31
	.4byte	.LFE31
	.4byte	.LFB28
	.4byte	.LFE28
	.4byte	.LFB29
	.4byte	.LFE29
	.4byte	0
	.4byte	0
	.section	.debug_line,"",%progbits
.Ldebug_line0:
	.section	.debug_str,"MS",%progbits,1
.LASF401:
	.ascii	"GPG_ERR_LDAP_NO_MEMORY\000"
.LASF693:
	.ascii	"PKT_PUBLIC_KEY\000"
.LASF208:
	.ascii	"GPG_ERR_INV_CRL\000"
.LASF251:
	.ascii	"GPG_ERR_NOT_OPERATIONAL\000"
.LASF29:
	.ascii	"KEYDB_HANDLE\000"
.LASF343:
	.ascii	"GPG_ERR_ASS_WRITE_ERROR\000"
.LASF1014:
	.ascii	"passphrase_to_dek\000"
.LASF965:
	.ascii	"SHA1_CTX\000"
.LASF155:
	.ascii	"GPG_ERR_ASSUAN_SERVER_FAULT\000"
.LASF985:
	.ascii	"symkeys\000"
.LASF953:
	.ascii	"STATUS_INQUIRE_MAXLEN\000"
.LASF276:
	.ascii	"GPG_ERR_SEXP_INV_LEN_SPEC\000"
.LASF498:
	.ascii	"GPG_ERR_SQL_EMPTY\000"
.LASF808:
	.ascii	"max_expiredate\000"
.LASF516:
	.ascii	"GPG_ERR_E2BIG\000"
.LASF973:
	.ascii	"anchor\000"
.LASF242:
	.ascii	"GPG_ERR_NOT_LOCKED\000"
.LASF236:
	.ascii	"GPG_ERR_INV_TIME\000"
.LASF42:
	.ascii	"server_local_s\000"
.LASF872:
	.ascii	"STATUS_NO_SECKEY\000"
.LASF272:
	.ascii	"GPG_ERR_MAC_ALGO\000"
.LASF467:
	.ascii	"GPG_ERR_USER_2\000"
.LASF314:
	.ascii	"GPG_ERR_BAD_HS_CERT_VER\000"
.LASF219:
	.ascii	"GPG_ERR_INV_CMS_OBJ\000"
.LASF654:
	.ascii	"GPG_ERR_EWOULDBLOCK\000"
.LASF571:
	.ascii	"GPG_ERR_EL3HLT\000"
.LASF472:
	.ascii	"GPG_ERR_USER_7\000"
.LASF779:
	.ascii	"attrib_len\000"
.LASF709:
	.ascii	"pkttype_t\000"
.LASF6:
	.ascii	"__uint8_t\000"
.LASF450:
	.ascii	"GPG_ERR_LDAP_NO_OBJ_CLASS_MODS\000"
.LASF465:
	.ascii	"GPG_ERR_LDAP_PROX_AUTH_DENIED\000"
.LASF988:
	.ascii	"seen_pkt_encrypted_aead\000"
.LASF686:
	.ascii	"s2k_cacheid\000"
.LASF630:
	.ascii	"GPG_ERR_EPROTO\000"
.LASF49:
	.ascii	"GPG_ERR_SOURCE_UNKNOWN\000"
.LASF1006:
	.ascii	"early_plaintext\000"
.LASF100:
	.ascii	"GPG_ERR_INV_ATTR\000"
.LASF350:
	.ascii	"GPG_ERR_ASS_NO_OUTPUT\000"
.LASF327:
	.ascii	"GPG_ERR_TRUE\000"
.LASF288:
	.ascii	"GPG_ERR_SEXP_BAD_OCT_CHAR\000"
.LASF578:
	.ascii	"GPG_ERR_ELNRNG\000"
.LASF712:
	.ascii	"PACKET\000"
.LASF500:
	.ascii	"GPG_ERR_SQL_TOOBIG\000"
.LASF303:
	.ascii	"GPG_ERR_COMPR_FAILED\000"
.LASF211:
	.ascii	"GPG_ERR_ELEMENT_NOT_FOUND\000"
.LASF451:
	.ascii	"GPG_ERR_LDAP_RESULTS_TOO_LARGE\000"
.LASF28:
	.ascii	"kbnode_t\000"
.LASF409:
	.ascii	"GPG_ERR_LDAP_LOCAL\000"
.LASF453:
	.ascii	"GPG_ERR_LDAP_VLV\000"
.LASF198:
	.ascii	"GPG_ERR_CARD_NOT_INITIALIZED\000"
.LASF145:
	.ascii	"GPG_ERR_CONFLICT\000"
.LASF296:
	.ascii	"GPG_ERR_REQUEST_TOO_LONG\000"
.LASF677:
	.ascii	"subno\000"
.LASF926:
	.ascii	"STATUS_SIG_SUBPACKET\000"
.LASF270:
	.ascii	"GPG_ERR_BROKEN_PUBKEY\000"
.LASF981:
	.ascii	"last_was_session_key\000"
.LASF1043:
	.ascii	"decrypt_data\000"
.LASF441:
	.ascii	"GPG_ERR_LDAP_BUSY\000"
.LASF382:
	.ascii	"GPG_ERR_DNS_CLOSED\000"
.LASF799:
	.ascii	"csum\000"
.LASF287:
	.ascii	"GPG_ERR_SEXP_ODD_HEX_NUMBERS\000"
.LASF45:
	.ascii	"next\000"
.LASF975:
	.ascii	"last_user_id\000"
.LASF646:
	.ascii	"GPG_ERR_ESTRPIPE\000"
.LASF621:
	.ascii	"GPG_ERR_EOPNOTSUPP\000"
.LASF37:
	.ascii	"tofu\000"
.LASF983:
	.ascii	"iobuf\000"
.LASF173:
	.ascii	"GPG_ERR_NOT_TRUSTED\000"
.LASF14:
	.ascii	"__off_t\000"
.LASF848:
	.ascii	"last_pkt\000"
.LASF857:
	.ascii	"STATUS_BADSIG\000"
.LASF420:
	.ascii	"GPG_ERR_LDAP_PARTIAL_RESULTS\000"
.LASF90:
	.ascii	"GPG_ERR_INV_ARMOR\000"
.LASF175:
	.ascii	"GPG_ERR_BAD_CA_CERT\000"
.LASF567:
	.ascii	"GPG_ERR_EISDIR\000"
.LASF193:
	.ascii	"GPG_ERR_INV_ID\000"
.LASF104:
	.ascii	"GPG_ERR_SYNTAX\000"
.LASF653:
	.ascii	"GPG_ERR_EUSERS\000"
.LASF750:
	.ascii	"key_block\000"
.LASF969:
	.ascii	"cfb_mode\000"
.LASF865:
	.ascii	"STATUS_NEED_PASSPHRASE\000"
.LASF893:
	.ascii	"STATUS_BEGIN_DECRYPTION\000"
.LASF682:
	.ascii	"algo_info_printed\000"
.LASF168:
	.ascii	"GPG_ERR_DIRMNGR\000"
.LASF112:
	.ascii	"GPG_ERR_INV_USER_ID\000"
.LASF253:
	.ascii	"GPG_ERR_NO_PIN\000"
.LASF408:
	.ascii	"GPG_ERR_LDAP_ENCODING\000"
.LASF911:
	.ascii	"STATUS_USERID_HINT\000"
.LASF429:
	.ascii	"GPG_ERR_LDAP_CONST_VIOLATION\000"
.LASF299:
	.ascii	"GPG_ERR_CERT_TOO_LARGE\000"
.LASF748:
	.ascii	"notation\000"
.LASF772:
	.ascii	"ks_modify\000"
.LASF223:
	.ascii	"GPG_ERR_UNSUPPORTED_CMS_VERSION\000"
.LASF294:
	.ascii	"GPG_ERR_LEGACY_KEY\000"
.LASF1052:
	.ascii	"GNU C17 10.3.1 20210621 (release) -mcpu=cortex-a7 -"
	.ascii	"mfloat-abi=soft -marm -march=armv7ve -g -O2 -fpic -"
	.ascii	"ffreestanding -ffunction-sections -fdata-sections -"
	.ascii	"fno-common\000"
.LASF908:
	.ascii	"STATUS_NOTATION_DATA\000"
.LASF690:
	.ascii	"PKT_SYMKEY_ENC\000"
.LASF1049:
	.ascii	"SHA1Update\000"
.LASF743:
	.ascii	"chosen_selfsig\000"
.LASF400:
	.ascii	"GPG_ERR_LDAP_CONNECT\000"
.LASF273:
	.ascii	"GPG_ERR_FULLY_CANCELED\000"
.LASF874:
	.ascii	"STATUS_DECRYPTION_KEY\000"
.LASF572:
	.ascii	"GPG_ERR_EL3RST\000"
.LASF379:
	.ascii	"GPG_ERR_DNS_ADDRESS\000"
.LASF68:
	.ascii	"GPG_ERR_SOURCE_ANY\000"
.LASF740:
	.ascii	"checked\000"
.LASF337:
	.ascii	"GPG_ERR_ASS_NO_DATA_CB\000"
.LASF612:
	.ascii	"GPG_ERR_ENOTCONN\000"
.LASF1040:
	.ascii	"gpg_err_make\000"
.LASF794:
	.ascii	"revoke_info\000"
.LASF972:
	.ascii	"ctrl\000"
.LASF146:
	.ascii	"GPG_ERR_INV_CIPHER_MODE\000"
.LASF640:
	.ascii	"GPG_ERR_ESHUTDOWN\000"
.LASF934:
	.ascii	"STATUS_BACKUP_KEY_CREATED\000"
.LASF224:
	.ascii	"GPG_ERR_UNKNOWN_ALGORITHM\000"
.LASF733:
	.ascii	"PKT_pubkey_enc\000"
.LASF863:
	.ascii	"STATUS_TRUST_FULLY\000"
.LASF624:
	.ascii	"GPG_ERR_EPFNOSUPPORT\000"
.LASF347:
	.ascii	"GPG_ERR_ASS_SYNTAX\000"
.LASF466:
	.ascii	"GPG_ERR_USER_1\000"
.LASF419:
	.ascii	"GPG_ERR_LDAP_STRONG_AUTH_RQRD\000"
.LASF468:
	.ascii	"GPG_ERR_USER_3\000"
.LASF469:
	.ascii	"GPG_ERR_USER_4\000"
.LASF470:
	.ascii	"GPG_ERR_USER_5\000"
.LASF471:
	.ascii	"GPG_ERR_USER_6\000"
.LASF317:
	.ascii	"GPG_ERR_BAD_HS_SERVER_HELLO\000"
.LASF473:
	.ascii	"GPG_ERR_USER_8\000"
.LASF474:
	.ascii	"GPG_ERR_USER_9\000"
.LASF133:
	.ascii	"GPG_ERR_NO_DATA\000"
.LASF970:
	.ascii	"other_error\000"
.LASF1048:
	.ascii	"memcpy\000"
.LASF311:
	.ascii	"GPG_ERR_UNKNOWN_IDENTITY\000"
.LASF186:
	.ascii	"GPG_ERR_INV_CARD\000"
.LASF372:
	.ascii	"GPG_ERR_SERVICE\000"
.LASF278:
	.ascii	"GPG_ERR_SEXP_UNMATCHED_PAREN\000"
.LASF789:
	.ascii	"keyorg\000"
.LASF507:
	.ascii	"GPG_ERR_SQL_RANGE\000"
.LASF720:
	.ascii	"salt\000"
.LASF486:
	.ascii	"GPG_ERR_SQL_ABORT\000"
.LASF706:
	.ascii	"PKT_ENCRYPTED_AEAD\000"
.LASF913:
	.ascii	"STATUS_INV_RECP\000"
.LASF569:
	.ascii	"GPG_ERR_EL2HLT\000"
.LASF148:
	.ascii	"GPG_ERR_INV_HANDLE\000"
.LASF990:
	.ascii	"data_fd\000"
.LASF1041:
	.ascii	"source\000"
.LASF197:
	.ascii	"GPG_ERR_BAD_PIN_METHOD\000"
.LASF714:
	.ascii	"pkttype\000"
.LASF305:
	.ascii	"GPG_ERR_FATAL_ALERT\000"
.LASF936:
	.ascii	"STATUS_PKA_TRUST_GOOD\000"
.LASF169:
	.ascii	"GPG_ERR_CERT_REVOKED\000"
.LASF249:
	.ascii	"GPG_ERR_UNKNOWN_OPTION\000"
.LASF734:
	.ascii	"sig_class\000"
.LASF183:
	.ascii	"GPG_ERR_CARD\000"
.LASF131:
	.ascii	"GPG_ERR_BAD_CERT_CHAIN\000"
.LASF20:
	.ascii	"byte\000"
.LASF674:
	.ascii	"filter_ov_owner\000"
.LASF633:
	.ascii	"GPG_ERR_ERANGE\000"
.LASF905:
	.ascii	"STATUS_SESSION_KEY\000"
.LASF791:
	.ascii	"mbox\000"
.LASF647:
	.ascii	"GPG_ERR_ETIME\000"
.LASF764:
	.ascii	"unhashed\000"
.LASF735:
	.ascii	"digest_algo\000"
.LASF353:
	.ascii	"GPG_ERR_ENGINE_TOO_OLD\000"
.LASF1027:
	.ascii	"hex_digit\000"
.LASF201:
	.ascii	"GPG_ERR_NOTHING_FOUND\000"
.LASF528:
	.ascii	"GPG_ERR_EBADFD\000"
.LASF590:
	.ascii	"GPG_ERR_ENETUNREACH\000"
.LASF416:
	.ascii	"GPG_ERR_LDAP_COMPARE_FALSE\000"
.LASF349:
	.ascii	"GPG_ERR_ASS_NO_INPUT\000"
.LASF676:
	.ascii	"chain\000"
.LASF160:
	.ascii	"GPG_ERR_NO_PIN_ENTRY\000"
.LASF710:
	.ascii	"gcry_mpi_t\000"
.LASF669:
	.ascii	"nofast\000"
.LASF302:
	.ascii	"GPG_ERR_UNEXPECTED_MSG\000"
.LASF544:
	.ascii	"GPG_ERR_EDEADLK\000"
.LASF870:
	.ascii	"STATUS_BAD_PASSPHRASE\000"
.LASF103:
	.ascii	"GPG_ERR_VALUE_NOT_FOUND\000"
.LASF396:
	.ascii	"GPG_ERR_LDAP_CLIENT_LOOP\000"
.LASF356:
	.ascii	"GPG_ERR_MISSING_ENVVAR\000"
.LASF1011:
	.ascii	"symitem\000"
.LASF834:
	.ascii	"PKT_gpg_control\000"
.LASF243:
	.ascii	"GPG_ERR_PROTOCOL_VIOLATION\000"
.LASF807:
	.ascii	"exact\000"
.LASF601:
	.ascii	"GPG_ERR_ENOMEDIUM\000"
.LASF802:
	.ascii	"disabled\000"
.LASF69:
	.ascii	"GPG_ERR_SOURCE_USER_1\000"
.LASF70:
	.ascii	"GPG_ERR_SOURCE_USER_2\000"
.LASF71:
	.ascii	"GPG_ERR_SOURCE_USER_3\000"
.LASF72:
	.ascii	"GPG_ERR_SOURCE_USER_4\000"
.LASF638:
	.ascii	"GPG_ERR_EROFS\000"
.LASF487:
	.ascii	"GPG_ERR_SQL_BUSY\000"
.LASF1017:
	.ascii	"tryagain_text\000"
.LASF234:
	.ascii	"GPG_ERR_MODULE_NOT_FOUND\000"
.LASF929:
	.ascii	"STATUS_KEY_NOT_CREATED\000"
.LASF301:
	.ascii	"GPG_ERR_BAD_MAC\000"
.LASF269:
	.ascii	"GPG_ERR_CRYPT_CTX_CONFLICT\000"
.LASF209:
	.ascii	"GPG_ERR_BAD_BER\000"
.LASF649:
	.ascii	"GPG_ERR_ETOOMANYREFS\000"
.LASF373:
	.ascii	"GPG_ERR_BAD_PUK\000"
.LASF136:
	.ascii	"GPG_ERR_INV_OP\000"
.LASF825:
	.ascii	"mdc_method\000"
.LASF455:
	.ascii	"GPG_ERR_LDAP_CUP_RESOURCE_LIMIT\000"
.LASF126:
	.ascii	"GPG_ERR_NOT_ENCRYPTED\000"
.LASF459:
	.ascii	"GPG_ERR_LDAP_CUP_RELOAD\000"
.LASF439:
	.ascii	"GPG_ERR_LDAP_INV_CREDENTIALS\000"
.LASF853:
	.ascii	"STATUS_LEAVE\000"
.LASF176:
	.ascii	"GPG_ERR_CERT_EXPIRED\000"
.LASF536:
	.ascii	"GPG_ERR_ECANCELED\000"
.LASF627:
	.ascii	"GPG_ERR_EPROCUNAVAIL\000"
.LASF214:
	.ascii	"GPG_ERR_INV_LENGTH\000"
.LASF38:
	.ascii	"cached_getkey_kdb\000"
.LASF284:
	.ascii	"GPG_ERR_SEXP_UNMATCHED_DH\000"
.LASF109:
	.ascii	"GPG_ERR_INV_KEYRING\000"
.LASF741:
	.ascii	"email\000"
.LASF673:
	.ascii	"filter_ov\000"
.LASF687:
	.ascii	"PKT_NONE\000"
.LASF680:
	.ascii	"algo\000"
.LASF770:
	.ascii	"user_attribute\000"
.LASF376:
	.ascii	"GPG_ERR_SYSTEM_BUG\000"
.LASF715:
	.ascii	"type\000"
.LASF656:
	.ascii	"GPG_ERR_EXFULL\000"
.LASF614:
	.ascii	"GPG_ERR_ENOTEMPTY\000"
.LASF63:
	.ascii	"GPG_ERR_SOURCE_G13\000"
.LASF151:
	.ascii	"GPG_ERR_INV_RESPONSE\000"
.LASF729:
	.ascii	"keyid\000"
.LASF167:
	.ascii	"GPG_ERR_NO_DIRMNGR\000"
.LASF757:
	.ascii	"trust_regexp\000"
.LASF215:
	.ascii	"GPG_ERR_INV_KEYINFO\000"
.LASF318:
	.ascii	"GPG_ERR_BAD_HS_SERVER_HELLO_DONE\000"
.LASF661:
	.ascii	"IOBUF_INPUT_TEMP\000"
.LASF898:
	.ascii	"STATUS_DELETE_PROBLEM\000"
.LASF797:
	.ascii	"is_protected\000"
.LASF388:
	.ascii	"GPG_ERR_LDAP_SECURITY_GENERAL\000"
.LASF880:
	.ascii	"STATUS_GOODMDC\000"
.LASF95:
	.ascii	"GPG_ERR_COMPR_ALGO\000"
.LASF628:
	.ascii	"GPG_ERR_EPROGMISMATCH\000"
.LASF265:
	.ascii	"GPG_ERR_AMBIGUOUS\000"
.LASF541:
	.ascii	"GPG_ERR_ECONNREFUSED\000"
.LASF326:
	.ascii	"GPG_ERR_INV_LOCK_OBJ\000"
.LASF85:
	.ascii	"GPG_ERR_CHECKSUM\000"
.LASF256:
	.ascii	"GPG_ERR_MISSING_KEY\000"
.LASF917:
	.ascii	"STATUS_KEY_CONSIDERED\000"
.LASF1009:
	.ascii	"proc_encrypted\000"
.LASF940:
	.ascii	"STATUS_TOFU_STATS_LONG\000"
.LASF718:
	.ascii	"mode\000"
.LASF207:
	.ascii	"GPG_ERR_PIN_NOT_SYNCED\000"
.LASF182:
	.ascii	"GPG_ERR_AMBIGUOUS_NAME\000"
.LASF886:
	.ascii	"STATUS_IMPORT_RES\000"
.LASF157:
	.ascii	"GPG_ERR_INV_SESSION_KEY\000"
.LASF138:
	.ascii	"GPG_ERR_INTERNAL\000"
.LASF277:
	.ascii	"GPG_ERR_SEXP_STRING_TOO_LONG\000"
.LASF330:
	.ascii	"GPG_ERR_ASS_ACCEPT_FAILED\000"
.LASF546:
	.ascii	"GPG_ERR_EDESTADDRREQ\000"
.LASF930:
	.ascii	"STATUS_NEED_PASSPHRASE_PIN\000"
.LASF540:
	.ascii	"GPG_ERR_ECONNABORTED\000"
.LASF739:
	.ascii	"valid\000"
.LASF188:
	.ascii	"GPG_ERR_NO_PKCS15_APP\000"
.LASF483:
	.ascii	"GPG_ERR_SQL_ERROR\000"
.LASF206:
	.ascii	"GPG_ERR_USE_CONDITIONS\000"
.LASF598:
	.ascii	"GPG_ERR_ENOEXEC\000"
.LASF511:
	.ascii	"GPG_ERR_SQL_ROW\000"
.LASF827:
	.ascii	"PKT_encrypted\000"
.LASF904:
	.ascii	"STATUS_SIG_CREATED\000"
.LASF348:
	.ascii	"GPG_ERR_ASS_CANCELED\000"
.LASF1046:
	.ascii	"malloc\000"
.LASF2:
	.ascii	"unsigned char\000"
.LASF80:
	.ascii	"GPG_ERR_DIGEST_ALGO\000"
.LASF573:
	.ascii	"GPG_ERR_ELIBACC\000"
.LASF490:
	.ascii	"GPG_ERR_SQL_READONLY\000"
.LASF411:
	.ascii	"GPG_ERR_LDAP_SUCCESS\000"
.LASF700:
	.ascii	"PKT_USER_ID\000"
.LASF986:
	.ascii	"pkenc_list\000"
.LASF830:
	.ascii	"namelen\000"
.LASF425:
	.ascii	"GPG_ERR_LDAP_SASL_BIND_INPROG\000"
.LASF509:
	.ascii	"GPG_ERR_SQL_NOTICE\000"
.LASF855:
	.ascii	"STATUS_CANCELED_BY_USER\000"
.LASF304:
	.ascii	"GPG_ERR_WOULD_WRAP\000"
.LASF21:
	.ascii	"float\000"
.LASF35:
	.ascii	"server_local\000"
.LASF617:
	.ascii	"GPG_ERR_ENOTSUP\000"
.LASF113:
	.ascii	"GPG_ERR_UNEXPECTED\000"
.LASF819:
	.ascii	"PKT_comment\000"
.LASF286:
	.ascii	"GPG_ERR_SEXP_BAD_HEX_CHAR\000"
.LASF894:
	.ascii	"STATUS_END_DECRYPTION\000"
.LASF298:
	.ascii	"GPG_ERR_NO_CERT_CHAIN\000"
.LASF190:
	.ascii	"GPG_ERR_CONFIGURATION\000"
.LASF864:
	.ascii	"STATUS_TRUST_ULTIMATE\000"
.LASF707:
	.ascii	"PKT_COMMENT\000"
.LASF818:
	.ascii	"PKT_public_key\000"
.LASF841:
	.ascii	"secret_key\000"
.LASF153:
	.ascii	"GPG_ERR_AGENT\000"
.LASF839:
	.ascii	"signature\000"
.LASF436:
	.ascii	"GPG_ERR_LDAP_ALIAS_DEREF\000"
.LASF524:
	.ascii	"GPG_ERR_EAUTH\000"
.LASF77:
	.ascii	"GPG_ERR_UNKNOWN_PACKET\000"
.LASF377:
	.ascii	"GPG_ERR_DNS_UNKNOWN\000"
.LASF230:
	.ascii	"GPG_ERR_ENCODING_PROBLEM\000"
.LASF491:
	.ascii	"GPG_ERR_SQL_INTERRUPT\000"
.LASF418:
	.ascii	"GPG_ERR_LDAP_UNSUPPORTED_AUTH\000"
.LASF831:
	.ascii	"PKT_plaintext\000"
.LASF625:
	.ascii	"GPG_ERR_EPIPE\000"
.LASF255:
	.ascii	"GPG_ERR_NO_ENGINE\000"
.LASF1050:
	.ascii	"SHA1Init\000"
.LASF1051:
	.ascii	"SHA1Final\000"
.LASF19:
	.ascii	"off_t\000"
.LASF463:
	.ascii	"GPG_ERR_LDAP_CANNOT_CANCEL\000"
.LASF787:
	.ascii	"keyupdate\000"
.LASF868:
	.ascii	"STATUS_ENC_TO\000"
.LASF775:
	.ascii	"revoked\000"
.LASF689:
	.ascii	"PKT_SIGNATURE\000"
.LASF564:
	.ascii	"GPG_ERR_EINVAL\000"
.LASF324:
	.ascii	"GPG_ERR_KEY_DISABLED\000"
.LASF937:
	.ascii	"STATUS_TOFU_USER\000"
.LASF607:
	.ascii	"GPG_ERR_ENOSPC\000"
.LASF499:
	.ascii	"GPG_ERR_SQL_SCHEMA\000"
.LASF816:
	.ascii	"serialno\000"
.LASF179:
	.ascii	"GPG_ERR_UNKNOWN_SEXP\000"
.LASF542:
	.ascii	"GPG_ERR_ECONNRESET\000"
.LASF1012:
	.ascii	"write_status_strings\000"
.LASF462:
	.ascii	"GPG_ERR_LDAP_TOO_LATE\000"
.LASF862:
	.ascii	"STATUS_TRUST_MARGINAL\000"
.LASF1026:
	.ascii	"check_nesting\000"
.LASF933:
	.ascii	"STATUS_SC_OP_SUCCESS\000"
.LASF895:
	.ascii	"STATUS_BEGIN_ENCRYPTION\000"
.LASF663:
	.ascii	"IOBUF_OUTPUT_TEMP\000"
.LASF737:
	.ascii	"PKT_onepass_sig\000"
.LASF550:
	.ascii	"GPG_ERR_EDQUOT\000"
.LASF399:
	.ascii	"GPG_ERR_LDAP_NOT_SUPPORTED\000"
.LASF417:
	.ascii	"GPG_ERR_LDAP_COMPARE_TRUE\000"
.LASF927:
	.ascii	"STATUS_PLAINTEXT\000"
.LASF240:
	.ascii	"GPG_ERR_UNKNOWN_NAME\000"
.LASF96:
	.ascii	"GPG_ERR_NO_PRIME\000"
.LASF246:
	.ascii	"GPG_ERR_UNKNOWN_EXTN\000"
.LASF821:
	.ascii	"algorithm\000"
.LASF315:
	.ascii	"GPG_ERR_BAD_HS_CHANGE_CIPHER\000"
.LASF547:
	.ascii	"GPG_ERR_EDIED\000"
.LASF43:
	.ascii	"server_control_s\000"
.LASF817:
	.ascii	"pkey\000"
.LASF722:
	.ascii	"STRING2KEY\000"
.LASF325:
	.ascii	"GPG_ERR_KEY_ON_CARD\000"
.LASF574:
	.ascii	"GPG_ERR_ELIBBAD\000"
.LASF395:
	.ascii	"GPG_ERR_LDAP_REFERRAL_LIMIT\000"
.LASF362:
	.ascii	"GPG_ERR_UNKNOWN_FLAG\000"
.LASF600:
	.ascii	"GPG_ERR_ENOLINK\000"
.LASF950:
	.ascii	"STATUS_WARNING\000"
.LASF73:
	.ascii	"GPG_ERR_SOURCE_DIM\000"
.LASF746:
	.ascii	"revocable\000"
.LASF650:
	.ascii	"GPG_ERR_ETXTBSY\000"
.LASF884:
	.ascii	"STATUS_IMPORT_OK\000"
.LASF1047:
	.ascii	"dbg_parse_packet\000"
.LASF635:
	.ascii	"GPG_ERR_EREMOTE\000"
.LASF698:
	.ascii	"PKT_PLAINTEXT\000"
.LASF177:
	.ascii	"GPG_ERR_CERT_TOO_YOUNG\000"
.LASF702:
	.ascii	"PKT_OLD_COMMENT\000"
.LASF289:
	.ascii	"GPG_ERR_SUBKEYS_EXP_OR_REV\000"
.LASF232:
	.ascii	"GPG_ERR_DUP_VALUE\000"
.LASF711:
	.ascii	"gcry_mpi\000"
.LASF50:
	.ascii	"GPG_ERR_SOURCE_GCRYPT\000"
.LASF342:
	.ascii	"GPG_ERR_ASS_READ_ERROR\000"
.LASF869:
	.ascii	"STATUS_NODATA\000"
.LASF258:
	.ascii	"GPG_ERR_LIMIT_REACHED\000"
.LASF538:
	.ascii	"GPG_ERR_ECHRNG\000"
.LASF556:
	.ascii	"GPG_ERR_EGREGIOUS\000"
.LASF293:
	.ascii	"GPG_ERR_NO_KEY\000"
.LASF329:
	.ascii	"GPG_ERR_ASS_GENERAL\000"
.LASF158:
	.ascii	"GPG_ERR_INV_SEXP\000"
.LASF523:
	.ascii	"GPG_ERR_EALREADY\000"
.LASF943:
	.ascii	"STATUS_VERIFICATION_COMPLIANCE_MODE\000"
.LASF458:
	.ascii	"GPG_ERR_LDAP_CUP_UNSUP_SCHEME\000"
.LASF678:
	.ascii	"size\000"
.LASF196:
	.ascii	"GPG_ERR_UNSUPPORTED_PROTOCOL\000"
.LASF378:
	.ascii	"GPG_ERR_DNS_SECTION\000"
.LASF364:
	.ascii	"GPG_ERR_ALREADY_FETCHED\000"
.LASF414:
	.ascii	"GPG_ERR_LDAP_TIMELIMIT\000"
.LASF664:
	.ascii	"iobuf_t\000"
.LASF88:
	.ascii	"GPG_ERR_KEYRING_OPEN\000"
.LASF355:
	.ascii	"GPG_ERR_WINDOW_TOO_LARGE\000"
.LASF405:
	.ascii	"GPG_ERR_LDAP_AUTH_UNKNOWN\000"
.LASF437:
	.ascii	"GPG_ERR_LDAP_X_PROXY_AUTH_FAIL\000"
.LASF987:
	.ascii	"symenc_list\000"
.LASF518:
	.ascii	"GPG_ERR_EADDRINUSE\000"
.LASF1042:
	.ascii	"tfp_printf\000"
.LASF1016:
	.ascii	"nocache\000"
.LASF156:
	.ascii	"GPG_ERR_ASSUAN\000"
.LASF13:
	.ascii	"_off_t\000"
.LASF444:
	.ascii	"GPG_ERR_LDAP_LOOP_DETECT\000"
.LASF281:
	.ascii	"GPG_ERR_SEXP_BAD_QUOTATION\000"
.LASF652:
	.ascii	"GPG_ERR_EUNATCH\000"
.LASF609:
	.ascii	"GPG_ERR_ENOSTR\000"
.LASF671:
	.ascii	"error\000"
.LASF11:
	.ascii	"size_t\000"
.LASF163:
	.ascii	"GPG_ERR_INV_NAME\000"
.LASF380:
	.ascii	"GPG_ERR_DNS_NO_QUERY\000"
.LASF782:
	.ascii	"help_key_expire\000"
.LASF897:
	.ascii	"STATUS_BEGIN_SIGNING\000"
.LASF16:
	.ascii	"uint8_t\000"
.LASF728:
	.ascii	"PKT_symkey_enc\000"
.LASF548:
	.ascii	"GPG_ERR_EDOM\000"
.LASF658:
	.ascii	"gpg_err_code_t\000"
.LASF843:
	.ascii	"compressed\000"
.LASF962:
	.ascii	"CO_DE_VS\000"
.LASF336:
	.ascii	"GPG_ERR_ASS_NESTED_COMMANDS\000"
.LASF485:
	.ascii	"GPG_ERR_SQL_PERM\000"
.LASF1036:
	.ascii	"my_strcpy\000"
.LASF801:
	.ascii	"disabled_valid\000"
.LASF634:
	.ascii	"GPG_ERR_EREMCHG\000"
.LASF899:
	.ascii	"STATUS_GET_BOOL\000"
.LASF642:
	.ascii	"GPG_ERR_ESPIPE\000"
.LASF147:
	.ascii	"GPG_ERR_INV_FLAG\000"
.LASF755:
	.ascii	"trust_depth\000"
.LASF1031:
	.ascii	"pass_len\000"
.LASF213:
	.ascii	"GPG_ERR_INV_TAG\000"
.LASF1002:
	.ascii	"proc_encryption_packets\000"
.LASF140:
	.ascii	"GPG_ERR_INV_OBJ\000"
.LASF24:
	.ascii	"MSG_LEN\000"
.LASF876:
	.ascii	"STATUS_DECRYPTION_FAILED\000"
.LASF340:
	.ascii	"GPG_ERR_ASS_NOT_A_CLIENT\000"
.LASF837:
	.ascii	"pubkey_enc\000"
.LASF322:
	.ascii	"GPG_ERR_BOGUS_STRING\000"
.LASF643:
	.ascii	"GPG_ERR_ESRCH\000"
.LASF576:
	.ascii	"GPG_ERR_ELIBMAX\000"
.LASF132:
	.ascii	"GPG_ERR_MISSING_CERT\000"
.LASF297:
	.ascii	"GPG_ERR_OBJ_TERM_STATE\000"
.LASF218:
	.ascii	"GPG_ERR_NO_CMS_OBJ\000"
.LASF833:
	.ascii	"datalen\000"
.LASF788:
	.ascii	"updateurl\000"
.LASF1032:
	.ascii	"bytesProcessed\000"
.LASF502:
	.ascii	"GPG_ERR_SQL_MISMATCH\000"
.LASF1015:
	.ascii	"create\000"
.LASF26:
	.ascii	"dirmngr_local_s\000"
.LASF25:
	.ascii	"dirmngr_local_t\000"
.LASF670:
	.ascii	"filter_eof\000"
.LASF999:
	.ascii	"xmalloc\000"
.LASF946:
	.ascii	"STATUS_BLOCKDEV\000"
.LASF761:
	.ascii	"pka_info\000"
.LASF785:
	.ascii	"prefs\000"
.LASF539:
	.ascii	"GPG_ERR_ECOMM\000"
.LASF641:
	.ascii	"GPG_ERR_ESOCKTNOSUPPORT\000"
.LASF599:
	.ascii	"GPG_ERR_ENOLCK\000"
.LASF531:
	.ascii	"GPG_ERR_EBADRPC\000"
.LASF809:
	.ascii	"hdrbytes\000"
.LASF159:
	.ascii	"GPG_ERR_UNSUPPORTED_ALGORITHM\000"
.LASF637:
	.ascii	"GPG_ERR_ERESTART\000"
.LASF882:
	.ascii	"STATUS_ERRMDC\000"
.LASF64:
	.ascii	"GPG_ERR_SOURCE_ASSUAN\000"
.LASF560:
	.ascii	"GPG_ERR_EIEIO\000"
.LASF264:
	.ascii	"GPG_ERR_DUP_KEY\000"
.LASF959:
	.ascii	"CO_PGP6\000"
.LASF960:
	.ascii	"CO_PGP7\000"
.LASF961:
	.ascii	"CO_PGP8\000"
.LASF752:
	.ascii	"pka_tried\000"
.LASF1039:
	.ascii	"code\000"
.LASF727:
	.ascii	"seskey\000"
.LASF101:
	.ascii	"GPG_ERR_NO_VALUE\000"
.LASF54:
	.ascii	"GPG_ERR_SOURCE_PINENTRY\000"
.LASF978:
	.ascii	"sigfilename\000"
.LASF725:
	.ascii	"aead_algo\000"
.LASF1053:
	.ascii	"src/mainproc.c\000"
.LASF368:
	.ascii	"GPG_ERR_BAD_AUTH\000"
.LASF307:
	.ascii	"GPG_ERR_MISSING_CLIENT_CERT\000"
.LASF39:
	.ascii	"passphrase\000"
.LASF798:
	.ascii	"sha1chk\000"
.LASF958:
	.ascii	"CO_RFC2440\000"
.LASF532:
	.ascii	"GPG_ERR_EBADRQC\000"
.LASF1021:
	.ascii	"dummy_canceled\000"
.LASF982:
	.ascii	"list\000"
.LASF393:
	.ascii	"GPG_ERR_LDAP_OTHER_GENERAL\000"
.LASF622:
	.ascii	"GPG_ERR_EOVERFLOW\000"
.LASF165:
	.ascii	"GPG_ERR_INV_PARAMETER\000"
.LASF300:
	.ascii	"GPG_ERR_INV_RECORD\000"
.LASF881:
	.ascii	"STATUS_BADMDC\000"
.LASF98:
	.ascii	"GPG_ERR_NO_ENCRYPTION_SCHEME\000"
.LASF432:
	.ascii	"GPG_ERR_LDAP_NO_SUCH_OBJ\000"
.LASF878:
	.ascii	"STATUS_MISSING_PASSPHRASE\000"
.LASF771:
	.ascii	"aead\000"
.LASF753:
	.ascii	"timestamp\000"
.LASF667:
	.ascii	"nbytes\000"
.LASF731:
	.ascii	"throw_keyid\000"
.LASF504:
	.ascii	"GPG_ERR_SQL_NOLFS\000"
.LASF537:
	.ascii	"GPG_ERR_ECHILD\000"
.LASF989:
	.ascii	"seen_pkt_encrypted_mdc\000"
.LASF781:
	.ascii	"help_key_usage\000"
.LASF716:
	.ascii	"value\000"
.LASF533:
	.ascii	"GPG_ERR_EBADSLT\000"
.LASF730:
	.ascii	"pubkey_algo\000"
.LASF694:
	.ascii	"PKT_SECRET_SUBKEY\000"
.LASF345:
	.ascii	"GPG_ERR_ASS_UNEXPECTED_CMD\000"
.LASF202:
	.ascii	"GPG_ERR_WRONG_BLOB_TYPE\000"
.LASF363:
	.ascii	"GPG_ERR_INV_ORDER\000"
.LASF86:
	.ascii	"GPG_ERR_BAD_PASSPHRASE\000"
.LASF610:
	.ascii	"GPG_ERR_ENOSYS\000"
.LASF435:
	.ascii	"GPG_ERR_LDAP_IS_LEAF\000"
.LASF1003:
	.ascii	"proc_packets\000"
.LASF391:
	.ascii	"GPG_ERR_LDAP_E_GENERAL\000"
.LASF900:
	.ascii	"STATUS_GET_LINE\000"
.LASF632:
	.ascii	"GPG_ERR_EPROTOTYPE\000"
.LASF708:
	.ascii	"PKT_GPG_CONTROL\000"
.LASF615:
	.ascii	"GPG_ERR_ENOTNAM\000"
.LASF94:
	.ascii	"GPG_ERR_BAD_KEY\000"
.LASF1030:
	.ascii	"password\000"
.LASF445:
	.ascii	"GPG_ERR_LDAP_NAMING_VIOLATION\000"
.LASF323:
	.ascii	"GPG_ERR_FORBIDDEN\000"
.LASF91:
	.ascii	"GPG_ERR_NO_USER_ID\000"
.LASF559:
	.ascii	"GPG_ERR_EIDRM\000"
.LASF618:
	.ascii	"GPG_ERR_ENOTTY\000"
.LASF563:
	.ascii	"GPG_ERR_EINTR\000"
.LASF484:
	.ascii	"GPG_ERR_SQL_INTERNAL\000"
.LASF135:
	.ascii	"GPG_ERR_NOT_SUPPORTED\000"
.LASF645:
	.ascii	"GPG_ERR_ESTALE\000"
.LASF545:
	.ascii	"GPG_ERR_EDEADLOCK\000"
.LASF257:
	.ascii	"GPG_ERR_TOO_MANY\000"
.LASF280:
	.ascii	"GPG_ERR_SEXP_BAD_CHARACTER\000"
.LASF116:
	.ascii	"GPG_ERR_WRONG_PUBKEY_ALGO\000"
.LASF130:
	.ascii	"GPG_ERR_INV_VALUE\000"
.LASF606:
	.ascii	"GPG_ERR_ENOPROTOOPT\000"
.LASF611:
	.ascii	"GPG_ERR_ENOTBLK\000"
.LASF370:
	.ascii	"GPG_ERR_KEYBOXD\000"
.LASF889:
	.ascii	"STATUS_EXPORT_RES\000"
.LASF404:
	.ascii	"GPG_ERR_LDAP_FILTER\000"
.LASF875:
	.ascii	"STATUS_DECRYPTION_INFO\000"
.LASF422:
	.ascii	"GPG_ERR_LDAP_ADMINLIMIT\000"
.LASF921:
	.ascii	"STATUS_EXPSIG\000"
.LASF57:
	.ascii	"GPG_ERR_SOURCE_KEYBOX\000"
.LASF552:
	.ascii	"GPG_ERR_EFAULT\000"
.LASF360:
	.ascii	"GPG_ERR_TOO_YOUNG\000"
.LASF115:
	.ascii	"GPG_ERR_KEYSERVER\000"
.LASF655:
	.ascii	"GPG_ERR_EXDEV\000"
.LASF512:
	.ascii	"GPG_ERR_SQL_DONE\000"
.LASF351:
	.ascii	"GPG_ERR_ASS_PARAMETER\000"
.LASF247:
	.ascii	"GPG_ERR_UNKNOWN_CRIT_EXTN\000"
.LASF1034:
	.ascii	"progress_milestone\000"
.LASF997:
	.ascii	"any_data\000"
.LASF749:
	.ascii	"pref_ks\000"
.LASF110:
	.ascii	"GPG_ERR_TRUSTDB\000"
.LASF697:
	.ascii	"PKT_MARKER\000"
.LASF274:
	.ascii	"GPG_ERR_UNFINISHED\000"
.LASF587:
	.ascii	"GPG_ERR_ENEEDAUTH\000"
.LASF271:
	.ascii	"GPG_ERR_BROKEN_SECKEY\000"
.LASF392:
	.ascii	"GPG_ERR_LDAP_X_GENERAL\000"
.LASF78:
	.ascii	"GPG_ERR_UNKNOWN_VERSION\000"
.LASF426:
	.ascii	"GPG_ERR_LDAP_NO_SUCH_ATTRIBUTE\000"
.LASF826:
	.ascii	"chunkbyte\000"
.LASF508:
	.ascii	"GPG_ERR_SQL_NOTADB\000"
.LASF166:
	.ascii	"GPG_ERR_WRONG_CARD\000"
.LASF34:
	.ascii	"magic\000"
.LASF99:
	.ascii	"GPG_ERR_NO_SIGNATURE_SCHEME\000"
.LASF932:
	.ascii	"STATUS_SC_OP_FAILURE\000"
.LASF1004:
	.ascii	"level\000"
.LASF32:
	.ascii	"tofu_dbs_s\000"
.LASF31:
	.ascii	"tofu_dbs_t\000"
.LASF522:
	.ascii	"GPG_ERR_EAGAIN\000"
.LASF1005:
	.ascii	"result\000"
.LASF910:
	.ascii	"STATUS_KEY_CREATED\000"
.LASF792:
	.ascii	"name\000"
.LASF812:
	.ascii	"has_expired\000"
.LASF58:
	.ascii	"GPG_ERR_SOURCE_KSBA\000"
.LASF87:
	.ascii	"GPG_ERR_CIPHER_ALGO\000"
.LASF27:
	.ascii	"kbnode_struct\000"
.LASF489:
	.ascii	"GPG_ERR_SQL_NOMEM\000"
.LASF683:
	.ascii	"use_aead\000"
.LASF751:
	.ascii	"expired\000"
.LASF384:
	.ascii	"GPG_ERR_DNS_TIMEOUT\000"
.LASF402:
	.ascii	"GPG_ERR_LDAP_PARAM\000"
.LASF592:
	.ascii	"GPG_ERR_ENOANO\000"
.LASF312:
	.ascii	"GPG_ERR_BAD_HS_CERT\000"
.LASF413:
	.ascii	"GPG_ERR_LDAP_PROTOCOL\000"
.LASF920:
	.ascii	"STATUS_KEYREVOKED\000"
.LASF424:
	.ascii	"GPG_ERR_LDAP_CONFIDENT_RQRD\000"
.LASF776:
	.ascii	"attribs\000"
.LASF1001:
	.ascii	"xmalloc_clear\000"
.LASF896:
	.ascii	"STATUS_END_ENCRYPTION\000"
.LASF769:
	.ascii	"PKT_signature\000"
.LASF840:
	.ascii	"public_key\000"
.LASF745:
	.ascii	"exportable\000"
.LASF79:
	.ascii	"GPG_ERR_PUBKEY_ALGO\000"
.LASF129:
	.ascii	"GPG_ERR_UNUSABLE_SECKEY\000"
.LASF428:
	.ascii	"GPG_ERR_LDAP_BAD_MATCHING\000"
.LASF321:
	.ascii	"GPG_ERR_BAD_HS_CLIENT_KEX\000"
.LASF582:
	.ascii	"GPG_ERR_EMLINK\000"
.LASF602:
	.ascii	"GPG_ERR_ENOMEM\000"
.LASF947:
	.ascii	"STATUS_PINENTRY_LAUNCHED\000"
.LASF76:
	.ascii	"GPG_ERR_GENERAL\000"
.LASF431:
	.ascii	"GPG_ERR_LDAP_INV_SYNTAX\000"
.LASF212:
	.ascii	"GPG_ERR_IDENTIFIER_NOT_FOUND\000"
.LASF846:
	.ascii	"gpg_control\000"
.LASF1037:
	.ascii	"gpg_err_code\000"
.LASF887:
	.ascii	"STATUS_IMPORT_CHECK\000"
.LASF890:
	.ascii	"STATUS_FILE_START\000"
.LASF703:
	.ascii	"PKT_ATTRIBUTE\000"
.LASF691:
	.ascii	"PKT_ONEPASS_SIG\000"
.LASF966:
	.ascii	"kidlist_item\000"
.LASF974:
	.ascii	"last_pubkey\000"
.LASF1029:
	.ascii	"derive_key\000"
.LASF412:
	.ascii	"GPG_ERR_LDAP_OPERATIONS\000"
.LASF493:
	.ascii	"GPG_ERR_SQL_CORRUPT\000"
.LASF228:
	.ascii	"GPG_ERR_KEY_EXPIRED\000"
.LASF398:
	.ascii	"GPG_ERR_LDAP_CONTROL_NOT_FOUND\000"
.LASF558:
	.ascii	"GPG_ERR_EHOSTUNREACH\000"
.LASF583:
	.ascii	"GPG_ERR_EMSGSIZE\000"
.LASF822:
	.ascii	"PKT_compressed\000"
.LASF549:
	.ascii	"GPG_ERR_EDOTDOT\000"
.LASF238:
	.ascii	"GPG_ERR_UNSUPPORTED_CRL_VERSION\000"
.LASF4:
	.ascii	"short unsigned int\000"
.LASF252:
	.ascii	"GPG_ERR_NO_PASSPHRASE\000"
.LASF1:
	.ascii	"signed char\000"
.LASF415:
	.ascii	"GPG_ERR_LDAP_SIZELIMIT\000"
.LASF371:
	.ascii	"GPG_ERR_NO_SERVICE\000"
.LASF501:
	.ascii	"GPG_ERR_SQL_CONSTRAINT\000"
.LASF679:
	.ascii	"start\000"
.LASF216:
	.ascii	"GPG_ERR_UNEXPECTED_TAG\000"
.LASF995:
	.ascii	"literals_seen\000"
.LASF430:
	.ascii	"GPG_ERR_LDAP_TYPE_VALUE_EXISTS\000"
.LASF766:
	.ascii	"digest\000"
.LASF631:
	.ascii	"GPG_ERR_EPROTONOSUPPORT\000"
.LASF998:
	.ascii	"newpkt\000"
.LASF858:
	.ascii	"STATUS_ERRSIG\000"
.LASF526:
	.ascii	"GPG_ERR_EBADE\000"
.LASF527:
	.ascii	"GPG_ERR_EBADF\000"
.LASF346:
	.ascii	"GPG_ERR_ASS_UNKNOWN_CMD\000"
.LASF721:
	.ascii	"count\000"
.LASF891:
	.ascii	"STATUS_FILE_DONE\000"
.LASF530:
	.ascii	"GPG_ERR_EBADR\000"
.LASF593:
	.ascii	"GPG_ERR_ENOBUFS\000"
.LASF903:
	.ascii	"STATUS_PROGRESS\000"
.LASF928:
	.ascii	"STATUS_PLAINTEXT_LENGTH\000"
.LASF56:
	.ascii	"GPG_ERR_SOURCE_GPGME\000"
.LASF919:
	.ascii	"STATUS_KEYEXPIRED\000"
.LASF92:
	.ascii	"GPG_ERR_NO_SECKEY\000"
.LASF977:
	.ascii	"encrypt_only\000"
.LASF434:
	.ascii	"GPG_ERR_LDAP_INV_DN_SYNTAX\000"
.LASF107:
	.ascii	"GPG_ERR_SIG_CLASS\000"
.LASF102:
	.ascii	"GPG_ERR_NOT_FOUND\000"
.LASF1013:
	.ascii	"xcalloc\000"
.LASF358:
	.ascii	"GPG_ERR_NAME_EXISTS\000"
.LASF460:
	.ascii	"GPG_ERR_LDAP_CANCELLED\000"
.LASF1022:
	.ascii	"s2k_cacheidbuf\000"
.LASF945:
	.ascii	"STATUS_MOUNTPOINT\000"
.LASF956:
	.ascii	"CO_GNUPG\000"
.LASF171:
	.ascii	"GPG_ERR_CRL_TOO_OLD\000"
.LASF963:
	.ascii	"state\000"
.LASF588:
	.ascii	"GPG_ERR_ENETDOWN\000"
.LASF421:
	.ascii	"GPG_ERR_LDAP_REFERRAL\000"
.LASF971:
	.ascii	"mainproc_context\000"
.LASF918:
	.ascii	"STATUS_ALREADY_SIGNED\000"
.LASF369:
	.ascii	"GPG_ERR_NO_KEYBOXD\000"
.LASF955:
	.ascii	"gnupg_compliance_mode\000"
.LASF844:
	.ascii	"encrypted\000"
.LASF381:
	.ascii	"GPG_ERR_DNS_NO_ANSWER\000"
.LASF282:
	.ascii	"GPG_ERR_SEXP_ZERO_PREFIX\000"
.LASF754:
	.ascii	"expiredate\000"
.LASF672:
	.ascii	"filter\000"
.LASF815:
	.ascii	"trust_timestamp\000"
.LASF738:
	.ascii	"subpktarea_t\000"
.LASF854:
	.ascii	"STATUS_ABORT\000"
.LASF813:
	.ascii	"main_keyid\000"
.LASF829:
	.ascii	"PKT_mdc\000"
.LASF521:
	.ascii	"GPG_ERR_EAFNOSUPPORT\000"
.LASF89:
	.ascii	"GPG_ERR_INV_PACKET\000"
.LASF581:
	.ascii	"GPG_ERR_EMFILE\000"
.LASF871:
	.ascii	"STATUS_NO_PUBKEY\000"
.LASF696:
	.ascii	"PKT_ENCRYPTED\000"
.LASF786:
	.ascii	"created\000"
.LASF18:
	.ascii	"ulong\000"
.LASF1008:
	.ascii	"compl_error\000"
.LASF1028:
	.ascii	"hex_to_bytes\000"
.LASF178:
	.ascii	"GPG_ERR_UNSUPPORTED_CERT\000"
.LASF365:
	.ascii	"GPG_ERR_TRY_LATER\000"
.LASF1044:
	.ascii	"free_packet\000"
.LASF283:
	.ascii	"GPG_ERR_SEXP_NESTED_DH\000"
.LASF231:
	.ascii	"GPG_ERR_INV_STATE\000"
.LASF23:
	.ascii	"KEY_LEN\000"
.LASF390:
	.ascii	"GPG_ERR_LDAP_UPDATE_GENERAL\000"
.LASF883:
	.ascii	"STATUS_IMPORTED\000"
.LASF685:
	.ascii	"symmetric\000"
.LASF613:
	.ascii	"GPG_ERR_ENOTDIR\000"
.LASF935:
	.ascii	"STATUS_PKA_TRUST_BAD\000"
.LASF668:
	.ascii	"ntotal\000"
.LASF717:
	.ascii	"prefitem_t\000"
.LASF5:
	.ascii	"long int\000"
.LASF584:
	.ascii	"GPG_ERR_EMULTIHOP\000"
.LASF836:
	.ascii	"symkey_enc\000"
.LASF519:
	.ascii	"GPG_ERR_EADDRNOTAVAIL\000"
.LASF849:
	.ascii	"free_last_pkt\000"
.LASF619:
	.ascii	"GPG_ERR_ENOTUNIQ\000"
.LASF229:
	.ascii	"GPG_ERR_SIG_EXPIRED\000"
.LASF367:
	.ascii	"GPG_ERR_NO_AUTH\000"
.LASF121:
	.ascii	"GPG_ERR_BAD_URI\000"
.LASF803:
	.ascii	"maybe_revoked\000"
.LASF93:
	.ascii	"GPG_ERR_WRONG_SECKEY\000"
.LASF570:
	.ascii	"GPG_ERR_EL2NSYNC\000"
.LASF604:
	.ascii	"GPG_ERR_ENONET\000"
.LASF448:
	.ascii	"GPG_ERR_LDAP_NOT_ALLOW_ON_RDN\000"
.LASF850:
	.ascii	"skip_meta\000"
.LASF338:
	.ascii	"GPG_ERR_ASS_NO_INQUIRE_CB\000"
.LASF192:
	.ascii	"GPG_ERR_INV_INDEX\000"
.LASF248:
	.ascii	"GPG_ERR_LOCKED\000"
.LASF440:
	.ascii	"GPG_ERR_LDAP_INSUFFICIENT_ACC\000"
.LASF681:
	.ascii	"keylen\000"
.LASF237:
	.ascii	"GPG_ERR_INV_CRL_OBJ\000"
.LASF925:
	.ascii	"STATUS_NEWSIG\000"
.LASF565:
	.ascii	"GPG_ERR_EIO\000"
.LASF313:
	.ascii	"GPG_ERR_BAD_HS_CERT_REQ\000"
.LASF174:
	.ascii	"GPG_ERR_CANCELED\000"
.LASF736:
	.ascii	"last\000"
.LASF847:
	.ascii	"parse_packet_ctx_s\000"
.LASF361:
	.ascii	"GPG_ERR_TOO_OLD\000"
.LASF331:
	.ascii	"GPG_ERR_ASS_CONNECT_FAILED\000"
.LASF768:
	.ascii	"revocation_key\000"
.LASF543:
	.ascii	"GPG_ERR_ED\000"
.LASF17:
	.ascii	"uint32_t\000"
.LASF359:
	.ascii	"GPG_ERR_DUP_NAME\000"
.LASF118:
	.ascii	"GPG_ERR_WEAK_KEY\000"
.LASF154:
	.ascii	"GPG_ERR_INV_DATA\000"
.LASF150:
	.ascii	"GPG_ERR_INCOMPLETE_LINE\000"
.LASF620:
	.ascii	"GPG_ERR_ENXIO\000"
.LASF616:
	.ascii	"GPG_ERR_ENOTSOCK\000"
.LASF942:
	.ascii	"STATUS_DECRYPTION_COMPLIANCE_MODE\000"
.LASF12:
	.ascii	"long double\000"
.LASF636:
	.ascii	"GPG_ERR_EREMOTEIO\000"
.LASF838:
	.ascii	"onepass_sig\000"
.LASF996:
	.ascii	"parsectx\000"
.LASF596:
	.ascii	"GPG_ERR_ENODEV\000"
.LASF128:
	.ascii	"GPG_ERR_UNUSABLE_PUBKEY\000"
.LASF52:
	.ascii	"GPG_ERR_SOURCE_GPGSM\000"
.LASF823:
	.ascii	"extralen\000"
.LASF553:
	.ascii	"GPG_ERR_EFBIG\000"
.LASF780:
	.ascii	"namehash\000"
.LASF8:
	.ascii	"long unsigned int\000"
.LASF48:
	.ascii	"ctrl_t\000"
.LASF759:
	.ascii	"numrevkeys\000"
.LASF856:
	.ascii	"STATUS_GOODSIG\000"
.LASF879:
	.ascii	"STATUS_GOOD_PASSPHRASE\000"
.LASF55:
	.ascii	"GPG_ERR_SOURCE_SCD\000"
.LASF666:
	.ascii	"nlimit\000"
.LASF220:
	.ascii	"GPG_ERR_UNKNOWN_CMS_OBJ\000"
.LASF705:
	.ascii	"PKT_MDC\000"
.LASF82:
	.ascii	"GPG_ERR_BAD_SECKEY\000"
.LASF308:
	.ascii	"GPG_ERR_CLOSE_NOTIFY\000"
.LASF385:
	.ascii	"GPG_ERR_LDAP_GENERAL\000"
.LASF967:
	.ascii	"reason\000"
.LASF814:
	.ascii	"user_id\000"
.LASF991:
	.ascii	"data_names\000"
.LASF820:
	.ascii	"new_ctb\000"
.LASF259:
	.ascii	"GPG_ERR_NOT_INITIALIZED\000"
.LASF15:
	.ascii	"char\000"
.LASF30:
	.ascii	"keydb_handle\000"
.LASF915:
	.ascii	"STATUS_NO_RECP\000"
.LASF199:
	.ascii	"GPG_ERR_UNSUPPORTED_OPERATION\000"
.LASF993:
	.ascii	"sig_seen\000"
.LASF644:
	.ascii	"GPG_ERR_ESRMNT\000"
.LASF189:
	.ascii	"GPG_ERR_NOT_CONFIRMED\000"
.LASF443:
	.ascii	"GPG_ERR_LDAP_UNWILL_TO_PERFORM\000"
.LASF335:
	.ascii	"GPG_ERR_ASS_LINE_TOO_LONG\000"
.LASF562:
	.ascii	"GPG_ERR_EINPROGRESS\000"
.LASF994:
	.ascii	"uncompress_failed\000"
.LASF260:
	.ascii	"GPG_ERR_MISSING_ISSUER_CERT\000"
.LASF328:
	.ascii	"GPG_ERR_FALSE\000"
.LASF922:
	.ascii	"STATUS_EXPKEYSIG\000"
.LASF244:
	.ascii	"GPG_ERR_INV_MAC\000"
.LASF555:
	.ascii	"GPG_ERR_EGRATUITOUS\000"
.LASF84:
	.ascii	"GPG_ERR_NO_PUBKEY\000"
.LASF210:
	.ascii	"GPG_ERR_INV_BER\000"
.LASF517:
	.ascii	"GPG_ERR_EACCES\000"
.LASF665:
	.ascii	"iobuf_struct\000"
.LASF141:
	.ascii	"GPG_ERR_TOO_SHORT\000"
.LASF597:
	.ascii	"GPG_ERR_ENOENT\000"
.LASF763:
	.ascii	"hashed\000"
.LASF40:
	.ascii	"session_key\000"
.LASF758:
	.ascii	"revkey\000"
.LASF756:
	.ascii	"trust_value\000"
.LASF924:
	.ascii	"STATUS_REVKEYSIG\000"
.LASF505:
	.ascii	"GPG_ERR_SQL_AUTH\000"
.LASF185:
	.ascii	"GPG_ERR_CARD_REMOVED\000"
.LASF268:
	.ascii	"GPG_ERR_BAD_CRYPT_CTX\000"
.LASF828:
	.ascii	"hash\000"
.LASF108:
	.ascii	"GPG_ERR_RESOURCE_LIMIT\000"
.LASF106:
	.ascii	"GPG_ERR_INV_PASSPHRASE\000"
.LASF204:
	.ascii	"GPG_ERR_HARDWARE\000"
.LASF902:
	.ascii	"STATUS_GOT_IT\000"
.LASF1045:
	.ascii	"strlen\000"
.LASF407:
	.ascii	"GPG_ERR_LDAP_DECODING\000"
.LASF464:
	.ascii	"GPG_ERR_LDAP_ASSERTION_FAILED\000"
.LASF366:
	.ascii	"GPG_ERR_WRONG_NAME\000"
.LASF61:
	.ascii	"GPG_ERR_SOURCE_GPA\000"
.LASF1018:
	.ascii	"canceled\000"
.LASF51:
	.ascii	"GPG_ERR_SOURCE_GPG\000"
.LASF187:
	.ascii	"GPG_ERR_CARD_NOT_PRESENT\000"
.LASF629:
	.ascii	"GPG_ERR_EPROGUNAVAIL\000"
.LASF964:
	.ascii	"buffer\000"
.LASF1035:
	.ascii	"next_milestone\000"
.LASF810:
	.ascii	"pubkey_usage\000"
.LASF383:
	.ascii	"GPG_ERR_DNS_VERIFY\000"
.LASF227:
	.ascii	"GPG_ERR_DECRYPT_FAILED\000"
.LASF651:
	.ascii	"GPG_ERR_EUCLEAN\000"
.LASF134:
	.ascii	"GPG_ERR_BUG\000"
.LASF341:
	.ascii	"GPG_ERR_ASS_SERVER_START\000"
.LASF295:
	.ascii	"GPG_ERR_REQUEST_TOO_SHORT\000"
.LASF457:
	.ascii	"GPG_ERR_LDAP_CUP_INV_DATA\000"
.LASF180:
	.ascii	"GPG_ERR_UNSUPPORTED_PROTECTION\000"
.LASF261:
	.ascii	"GPG_ERR_NO_KEYSERVER\000"
.LASF1020:
	.ascii	"help_s2k\000"
.LASF662:
	.ascii	"IOBUF_OUTPUT\000"
.LASF941:
	.ascii	"STATUS_ENCRYPTION_COMPLIANCE_MODE\000"
.LASF535:
	.ascii	"GPG_ERR_EBUSY\000"
.LASF866:
	.ascii	"STATUS_VALIDSIG\000"
.LASF461:
	.ascii	"GPG_ERR_LDAP_NO_SUCH_OPERATION\000"
.LASF851:
	.ascii	"n_parsed_packets\000"
.LASF387:
	.ascii	"GPG_ERR_LDAP_NAME_GENERAL\000"
.LASF719:
	.ascii	"hash_algo\000"
.LASF1056:
	.ascii	"leave\000"
.LASF832:
	.ascii	"control\000"
.LASF760:
	.ascii	"help_counter\000"
.LASF122:
	.ascii	"GPG_ERR_INV_URI\000"
.LASF692:
	.ascii	"PKT_SECRET_KEY\000"
.LASF262:
	.ascii	"GPG_ERR_INV_CURVE\000"
.LASF291:
	.ascii	"GPG_ERR_SERVER_FAILED\000"
.LASF603:
	.ascii	"GPG_ERR_ENOMSG\000"
.LASF119:
	.ascii	"GPG_ERR_INV_KEYLEN\000"
.LASF332:
	.ascii	"GPG_ERR_ASS_INV_RESPONSE\000"
.LASF805:
	.ascii	"backsig\000"
.LASF354:
	.ascii	"GPG_ERR_WINDOW_TOO_SMALL\000"
.LASF861:
	.ascii	"STATUS_TRUST_NEVER\000"
.LASF203:
	.ascii	"GPG_ERR_MISSING_VALUE\000"
.LASF525:
	.ascii	"GPG_ERR_EBACKGROUND\000"
.LASF245:
	.ascii	"GPG_ERR_INV_REQUEST\000"
.LASF75:
	.ascii	"GPG_ERR_NO_ERROR\000"
.LASF968:
	.ascii	"symlist_item\000"
.LASF534:
	.ascii	"GPG_ERR_EBFONT\000"
.LASF912:
	.ascii	"STATUS_UNEXPECTED\000"
.LASF195:
	.ascii	"GPG_ERR_SCDAEMON\000"
.LASF65:
	.ascii	"GPG_ERR_SOURCE_TPM2D\000"
.LASF554:
	.ascii	"GPG_ERR_EFTYPE\000"
.LASF22:
	.ascii	"double\000"
.LASF235:
	.ascii	"GPG_ERR_INV_OID_STRING\000"
.LASF205:
	.ascii	"GPG_ERR_PIN_BLOCKED\000"
.LASF217:
	.ascii	"GPG_ERR_NOT_DER_ENCODED\000"
.LASF595:
	.ascii	"GPG_ERR_ENODATA\000"
.LASF892:
	.ascii	"STATUS_FILE_ERROR\000"
.LASF44:
	.ascii	"string_list\000"
.LASF704:
	.ascii	"PKT_ENCRYPTED_MDC\000"
.LASF684:
	.ascii	"use_mdc\000"
.LASF842:
	.ascii	"comment\000"
.LASF357:
	.ascii	"GPG_ERR_USER_ID_EXISTS\000"
.LASF873:
	.ascii	"STATUS_NEED_PASSPHRASE_SYM\000"
.LASF594:
	.ascii	"GPG_ERR_ENOCSI\000"
.LASF333:
	.ascii	"GPG_ERR_ASS_INV_VALUE\000"
.LASF1000:
	.ascii	"xfree\000"
.LASF796:
	.ascii	"seckey_info\000"
.LASF909:
	.ascii	"STATUS_POLICY_URL\000"
.LASF800:
	.ascii	"ivlen\000"
.LASF7:
	.ascii	"__uint32_t\000"
.LASF783:
	.ascii	"help_full_count\000"
.LASF732:
	.ascii	"data\000"
.LASF951:
	.ascii	"STATUS_SUCCESS\000"
.LASF901:
	.ascii	"STATUS_GET_HIDDEN\000"
.LASF795:
	.ascii	"date\000"
.LASF111:
	.ascii	"GPG_ERR_BAD_CERT\000"
.LASF452:
	.ascii	"GPG_ERR_LDAP_AFFECTS_MULT_DSAS\000"
.LASF184:
	.ascii	"GPG_ERR_CARD_RESET\000"
.LASF984:
	.ascii	"trustletter\000"
.LASF778:
	.ascii	"attrib_data\000"
.LASF239:
	.ascii	"GPG_ERR_INV_CERT_OBJ\000"
.LASF456:
	.ascii	"GPG_ERR_LDAP_CUP_SEC_VIOLATION\000"
.LASF949:
	.ascii	"STATUS_ERROR\000"
.LASF806:
	.ascii	"serialno_valid\000"
.LASF142:
	.ascii	"GPG_ERR_TOO_LARGE\000"
.LASF74:
	.ascii	"gpg_err_source_t\000"
.LASF81:
	.ascii	"GPG_ERR_BAD_PUBKEY\000"
.LASF747:
	.ascii	"policy_url\000"
.LASF906:
	.ascii	"STATUS_NOTATION_NAME\000"
.LASF774:
	.ascii	"primary\000"
.LASF120:
	.ascii	"GPG_ERR_INV_ARG\000"
.LASF105:
	.ascii	"GPG_ERR_BAD_MPI\000"
.LASF170:
	.ascii	"GPG_ERR_NO_CRL_KNOWN\000"
.LASF492:
	.ascii	"GPG_ERR_SQL_IOERR\000"
.LASF410:
	.ascii	"GPG_ERR_LDAP_SERVER_DOWN\000"
.LASF1024:
	.ascii	"bytes\000"
.LASF976:
	.ascii	"sigs_only\000"
.LASF980:
	.ascii	"signed_data\000"
.LASF144:
	.ascii	"GPG_ERR_NOT_IMPLEMENTED\000"
.LASF254:
	.ascii	"GPG_ERR_NOT_ENABLED\000"
.LASF957:
	.ascii	"CO_RFC4880\000"
.LASF394:
	.ascii	"GPG_ERR_LDAP_X_CONNECTING\000"
.LASF194:
	.ascii	"GPG_ERR_NO_SCDAEMON\000"
.LASF33:
	.ascii	"batch_updated_wanted\000"
.LASF496:
	.ascii	"GPG_ERR_SQL_CANTOPEN\000"
.LASF275:
	.ascii	"GPG_ERR_BUFFER_TOO_SHORT\000"
.LASF114:
	.ascii	"GPG_ERR_TIME_CONFLICT\000"
.LASF181:
	.ascii	"GPG_ERR_CORRUPTED_PROTECTION\000"
.LASF306:
	.ascii	"GPG_ERR_NO_CIPHER\000"
.LASF292:
	.ascii	"GPG_ERR_NO_NAME\000"
.LASF793:
	.ascii	"PKT_user_id\000"
.LASF137:
	.ascii	"GPG_ERR_TIMEOUT\000"
.LASF320:
	.ascii	"GPG_ERR_BAD_HS_SERVER_KEX\000"
.LASF513:
	.ascii	"GPG_ERR_MISSING_ERRNO\000"
.LASF10:
	.ascii	"long long unsigned int\000"
.LASF221:
	.ascii	"GPG_ERR_UNSUPPORTED_CMS_OBJ\000"
.LASF1007:
	.ascii	"compliance_de_vs\000"
.LASF1025:
	.ascii	"length\000"
.LASF375:
	.ascii	"GPG_ERR_BAD_RESET_CODE\000"
.LASF824:
	.ascii	"is_partial\000"
.LASF117:
	.ascii	"GPG_ERR_TRIBUTE_TO_D_A\000"
.LASF316:
	.ascii	"GPG_ERR_BAD_HS_CLIENT_HELLO\000"
.LASF695:
	.ascii	"PKT_COMPRESSED\000"
.LASF1019:
	.ascii	"derivedKey\000"
.LASF939:
	.ascii	"STATUS_TOFU_STATS_SHORT\000"
.LASF1054:
	.ascii	"/home/fred/code/rpi-qemu-gdb/Claude/raspi3b_qemu_\000"
.LASF476:
	.ascii	"GPG_ERR_USER_11\000"
.LASF742:
	.ascii	"pka_info_t\000"
.LASF386:
	.ascii	"GPG_ERR_LDAP_ATTR_GENERAL\000"
.LASF657:
	.ascii	"GPG_ERR_CODE_DIM\000"
.LASF127:
	.ascii	"GPG_ERR_NOT_PROCESSED\000"
.LASF344:
	.ascii	"GPG_ERR_ASS_TOO_MUCH_DATA\000"
.LASF139:
	.ascii	"GPG_ERR_EOF_GCRYPT\000"
.LASF888:
	.ascii	"STATUS_EXPORTED\000"
.LASF266:
	.ascii	"GPG_ERR_NO_CRYPT_CTX\000"
.LASF433:
	.ascii	"GPG_ERR_LDAP_ALIAS_PROBLEM\000"
.LASF200:
	.ascii	"GPG_ERR_WRONG_KEY_USAGE\000"
.LASF765:
	.ascii	"digest_start\000"
.LASF124:
	.ascii	"GPG_ERR_UNKNOWN_HOST\000"
.LASF688:
	.ascii	"PKT_PUBKEY_ENC\000"
.LASF648:
	.ascii	"GPG_ERR_ETIMEDOUT\000"
.LASF979:
	.ascii	"enc_len\000"
.LASF845:
	.ascii	"plaintext\000"
.LASF488:
	.ascii	"GPG_ERR_SQL_LOCKED\000"
.LASF660:
	.ascii	"IOBUF_INPUT\000"
.LASF60:
	.ascii	"GPG_ERR_SOURCE_GSTI\000"
.LASF566:
	.ascii	"GPG_ERR_EISCONN\000"
.LASF389:
	.ascii	"GPG_ERR_LDAP_SERVICE_GENERAL\000"
.LASF241:
	.ascii	"GPG_ERR_LOCALE_PROBLEM\000"
.LASF83:
	.ascii	"GPG_ERR_BAD_SIGNATURE\000"
.LASF62:
	.ascii	"GPG_ERR_SOURCE_KLEO\000"
.LASF143:
	.ascii	"GPG_ERR_NO_OBJ\000"
.LASF867:
	.ascii	"STATUS_SIG_ID\000"
.LASF41:
	.ascii	"enc_length\000"
.LASF449:
	.ascii	"GPG_ERR_LDAP_ALREADY_EXISTS\000"
.LASF580:
	.ascii	"GPG_ERR_EMEDIUMTYPE\000"
.LASF191:
	.ascii	"GPG_ERR_NO_POLICY_MATCH\000"
.LASF506:
	.ascii	"GPG_ERR_SQL_FORMAT\000"
.LASF944:
	.ascii	"STATUS_TRUNCATED\000"
.LASF352:
	.ascii	"GPG_ERR_ASS_UNKNOWN_INQUIRE\000"
.LASF520:
	.ascii	"GPG_ERR_EADV\000"
.LASF551:
	.ascii	"GPG_ERR_EEXIST\000"
.LASF447:
	.ascii	"GPG_ERR_LDAP_NOT_ALLOW_NONLEAF\000"
.LASF67:
	.ascii	"GPG_ERR_SOURCE_TKD\000"
.LASF586:
	.ascii	"GPG_ERR_ENAVAIL\000"
.LASF589:
	.ascii	"GPG_ERR_ENETRESET\000"
.LASF777:
	.ascii	"numattribs\000"
.LASF161:
	.ascii	"GPG_ERR_PIN_ENTRY\000"
.LASF852:
	.ascii	"STATUS_ENTER\000"
.LASF226:
	.ascii	"GPG_ERR_PUBKEY_NOT_TRUSTED\000"
.LASF97:
	.ascii	"GPG_ERR_NO_ENCODING_METHOD\000"
.LASF9:
	.ascii	"long long int\000"
.LASF482:
	.ascii	"GPG_ERR_SQL_OK\000"
.LASF744:
	.ascii	"unknown_critical\000"
.LASF310:
	.ascii	"GPG_ERR_BAD_TICKET\000"
.LASF1038:
	.ascii	"gpg_error\000"
.LASF591:
	.ascii	"GPG_ERR_ENFILE\000"
.LASF397:
	.ascii	"GPG_ERR_LDAP_NO_RESULTS\000"
.LASF605:
	.ascii	"GPG_ERR_ENOPKG\000"
.LASF579:
	.ascii	"GPG_ERR_ELOOP\000"
.LASF66:
	.ascii	"GPG_ERR_SOURCE_TLS\000"
.LASF923:
	.ascii	"STATUS_ATTRIBUTE\000"
.LASF1057:
	.ascii	"reset_literals_seen\000"
.LASF804:
	.ascii	"dont_cache\000"
.LASF222:
	.ascii	"GPG_ERR_UNSUPPORTED_ENCODING\000"
.LASF164:
	.ascii	"GPG_ERR_BAD_DATA\000"
.LASF250:
	.ascii	"GPG_ERR_UNKNOWN_COMMAND\000"
.LASF568:
	.ascii	"GPG_ERR_EISNAM\000"
.LASF515:
	.ascii	"GPG_ERR_EOF\000"
.LASF726:
	.ascii	"seskeylen\000"
.LASF623:
	.ascii	"GPG_ERR_EPERM\000"
.LASF267:
	.ascii	"GPG_ERR_WRONG_CRYPT_CTX\000"
.LASF279:
	.ascii	"GPG_ERR_SEXP_NOT_CANONICAL\000"
.LASF992:
	.ascii	"used\000"
.LASF172:
	.ascii	"GPG_ERR_LINE_TOO_LONG\000"
.LASF233:
	.ascii	"GPG_ERR_MISSING_ACTION\000"
.LASF446:
	.ascii	"GPG_ERR_LDAP_OBJ_CLS_VIOLATION\000"
.LASF53:
	.ascii	"GPG_ERR_SOURCE_GPGAGENT\000"
.LASF510:
	.ascii	"GPG_ERR_SQL_WARNING\000"
.LASF659:
	.ascii	"gpg_error_t\000"
.LASF585:
	.ascii	"GPG_ERR_ENAMETOOLONG\000"
.LASF475:
	.ascii	"GPG_ERR_USER_10\000"
.LASF152:
	.ascii	"GPG_ERR_NO_AGENT\000"
.LASF477:
	.ascii	"GPG_ERR_USER_12\000"
.LASF478:
	.ascii	"GPG_ERR_USER_13\000"
.LASF479:
	.ascii	"GPG_ERR_USER_14\000"
.LASF480:
	.ascii	"GPG_ERR_USER_15\000"
.LASF481:
	.ascii	"GPG_ERR_USER_16\000"
.LASF334:
	.ascii	"GPG_ERR_ASS_INCOMPLETE_LINE\000"
.LASF948:
	.ascii	"STATUS_PLAINTEXT_FOLLOWS\000"
.LASF938:
	.ascii	"STATUS_TOFU_STATS\000"
.LASF423:
	.ascii	"GPG_ERR_LDAP_UNAVAIL_CRIT_EXTN\000"
.LASF47:
	.ascii	"strlist_t\000"
.LASF608:
	.ascii	"GPG_ERR_ENOSR\000"
.LASF123:
	.ascii	"GPG_ERR_NETWORK\000"
.LASF290:
	.ascii	"GPG_ERR_DB_CORRUPTED\000"
.LASF263:
	.ascii	"GPG_ERR_UNKNOWN_CURVE\000"
.LASF701:
	.ascii	"PKT_PUBLIC_SUBKEY\000"
.LASF575:
	.ascii	"GPG_ERR_ELIBEXEC\000"
.LASF497:
	.ascii	"GPG_ERR_SQL_PROTOCOL\000"
.LASF1033:
	.ascii	"index\000"
.LASF860:
	.ascii	"STATUS_TRUST_UNDEFINED\000"
.LASF374:
	.ascii	"GPG_ERR_NO_RESET_CODE\000"
.LASF503:
	.ascii	"GPG_ERR_SQL_MISUSE\000"
.LASF885:
	.ascii	"STATUS_IMPORT_PROBLEM\000"
.LASF907:
	.ascii	"STATUS_NOTATION_FLAGS\000"
.LASF561:
	.ascii	"GPG_ERR_EILSEQ\000"
.LASF1010:
	.ascii	"proc_symkey_enc\000"
.LASF454:
	.ascii	"GPG_ERR_LDAP_OTHER\000"
.LASF557:
	.ascii	"GPG_ERR_EHOSTDOWN\000"
.LASF225:
	.ascii	"GPG_ERR_INV_ENGINE\000"
.LASF916:
	.ascii	"STATUS_NO_SGNR\000"
.LASF1023:
	.ascii	"iterations\000"
.LASF639:
	.ascii	"GPG_ERR_ERPCMISMATCH\000"
.LASF514:
	.ascii	"GPG_ERR_UNKNOWN_ERRNO\000"
.LASF529:
	.ascii	"GPG_ERR_EBADMSG\000"
.LASF723:
	.ascii	"version\000"
.LASF784:
	.ascii	"help_marginal_count\000"
.LASF713:
	.ascii	"packet_struct\000"
.LASF125:
	.ascii	"GPG_ERR_SELFTEST_FAILED\000"
.LASF59:
	.ascii	"GPG_ERR_SOURCE_DIRMNGR\000"
.LASF0:
	.ascii	"unsigned int\000"
.LASF494:
	.ascii	"GPG_ERR_SQL_NOTFOUND\000"
.LASF699:
	.ascii	"PKT_RING_TRUST\000"
.LASF767:
	.ascii	"digest_len\000"
.LASF427:
	.ascii	"GPG_ERR_LDAP_UNDEFINED_TYPE\000"
.LASF773:
	.ascii	"compacted\000"
.LASF954:
	.ascii	"iobuf_use\000"
.LASF442:
	.ascii	"GPG_ERR_LDAP_UNAVAILABLE\000"
.LASF319:
	.ascii	"GPG_ERR_BAD_HS_FINISHED\000"
.LASF724:
	.ascii	"cipher_algo\000"
.LASF285:
	.ascii	"GPG_ERR_SEXP_UNEXPECTED_PUNC\000"
.LASF762:
	.ascii	"signers_uid\000"
.LASF339:
	.ascii	"GPG_ERR_ASS_NOT_A_SERVER\000"
.LASF675:
	.ascii	"real_fname\000"
.LASF3:
	.ascii	"short int\000"
.LASF406:
	.ascii	"GPG_ERR_LDAP_TIMEOUT\000"
.LASF931:
	.ascii	"STATUS_CARDCTRL\000"
.LASF790:
	.ascii	"selfsigversion\000"
.LASF859:
	.ascii	"STATUS_BADARMOR\000"
.LASF835:
	.ascii	"generic\000"
.LASF877:
	.ascii	"STATUS_DECRYPTION_OKAY\000"
.LASF149:
	.ascii	"GPG_ERR_TRUNCATED\000"
.LASF495:
	.ascii	"GPG_ERR_SQL_FULL\000"
.LASF1055:
	.ascii	"do_proc_packets\000"
.LASF403:
	.ascii	"GPG_ERR_LDAP_USER_CANCELLED\000"
.LASF162:
	.ascii	"GPG_ERR_BAD_PIN\000"
.LASF577:
	.ascii	"GPG_ERR_ELIBSCN\000"
.LASF438:
	.ascii	"GPG_ERR_LDAP_BAD_AUTH\000"
.LASF914:
	.ascii	"STATUS_INV_SGNR\000"
.LASF626:
	.ascii	"GPG_ERR_EPROCLIM\000"
.LASF46:
	.ascii	"flags\000"
.LASF36:
	.ascii	"dirmngr_local\000"
.LASF952:
	.ascii	"STATUS_FAILURE\000"
.LASF811:
	.ascii	"req_usage\000"
.LASF309:
	.ascii	"GPG_ERR_TICKET_EXPIRED\000"
	.ident	"GCC: (15:10.3-2021.07-4) 10.3.1 20210621 (release)"
