	.cpu cortex-a7
	.eabi_attribute 20, 1	@ Tag_ABI_FP_denormal
	.eabi_attribute 21, 1	@ Tag_ABI_FP_exceptions
	.eabi_attribute 23, 3	@ Tag_ABI_FP_number_model
	.eabi_attribute 24, 1	@ Tag_ABI_align8_needed
	.eabi_attribute 25, 1	@ Tag_ABI_align8_preserved
	.eabi_attribute 26, 1	@ Tag_ABI_enum_size
	.eabi_attribute 30, 2	@ Tag_ABI_optimization_goals
	.eabi_attribute 34, 1	@ Tag_CPU_unaligned_access
	.eabi_attribute 18, 4	@ Tag_ABI_PCS_wchar_t
	.file	"parse-packet.c"
@ GNU C17 (15:10.3-2021.07-4) version 10.3.1 20210621 (release) (arm-none-eabi)
@	compiled by GNU C version 11.2.0, GMP version 6.2.1, MPFR version 4.1.0, MPC version 1.2.1, isl version isl-0.24-GMP

@ GGC heuristics: --param ggc-min-expand=100 --param ggc-min-heapsize=131072
@ options passed:  -I src -I src/common -imultilib thumb/v7-a/nofp
@ -D__USES_INITFINI__ src/parse-packet.c -mcpu=cortex-a7 -mfloat-abi=soft
@ -marm -mlibarch=armv7ve -march=armv7ve
@ -auxbase-strip build/asm_output/parse-packet.s -g -O2 -Wall -Wextra -fpic
@ -ffreestanding -ffunction-sections -fdata-sections -fno-common
@ -fverbose-asm
@ options enabled:  -faggressive-loop-optimizations -falign-functions
@ -falign-jumps -falign-labels -falign-loops -fallocation-dce
@ -fauto-inc-dec -fbranch-count-reg -fcaller-saves
@ -fcombine-stack-adjustments -fcompare-elim -fcprop-registers
@ -fcrossjumping -fcse-follow-jumps -fdata-sections -fdefer-pop
@ -fdelete-null-pointer-checks -fdevirtualize -fdevirtualize-speculatively
@ -fdwarf2-cfi-asm -fearly-inlining -feliminate-unused-debug-symbols
@ -feliminate-unused-debug-types -fexpensive-optimizations
@ -fforward-propagate -ffp-int-builtin-inexact -ffunction-cse
@ -ffunction-sections -fgcse -fgcse-lm -fgnu-unique
@ -fguess-branch-probability -fhoist-adjacent-loads -fident -fif-conversion
@ -fif-conversion2 -findirect-inlining -finline -finline-atomics
@ -finline-functions -finline-functions-called-once
@ -finline-small-functions -fipa-bit-cp -fipa-cp -fipa-icf
@ -fipa-icf-functions -fipa-icf-variables -fipa-profile -fipa-pure-const
@ -fipa-ra -fipa-reference -fipa-reference-addressable -fipa-sra
@ -fipa-stack-alignment -fipa-vrp -fira-hoist-pressure
@ -fira-share-save-slots -fira-share-spill-slots
@ -fisolate-erroneous-paths-dereference -fivopts -fkeep-static-consts
@ -fleading-underscore -flifetime-dse -flra-remat -fmath-errno
@ -fmerge-constants -fmerge-debug-strings -fmove-loop-invariants
@ -fomit-frame-pointer -foptimize-sibling-calls -foptimize-strlen
@ -fpartial-inlining -fpeephole -fpeephole2 -fpic -fplt
@ -fprefetch-loop-arrays -freg-struct-return -freorder-blocks
@ -freorder-functions -frerun-cse-after-loop
@ -fsched-critical-path-heuristic -fsched-dep-count-heuristic
@ -fsched-group-heuristic -fsched-interblock -fsched-last-insn-heuristic
@ -fsched-pressure -fsched-rank-heuristic -fsched-spec
@ -fsched-spec-insn-heuristic -fsched-stalled-insns-dep -fschedule-insns
@ -fschedule-insns2 -fsection-anchors -fsemantic-interposition
@ -fshow-column -fshrink-wrap -fshrink-wrap-separate -fsigned-zeros
@ -fsplit-ivs-in-unroller -fsplit-wide-types -fssa-backprop -fssa-phiopt
@ -fstdarg-opt -fstore-merging -fstrict-aliasing
@ -fstrict-volatile-bitfields -fsync-libcalls -fthread-jumps
@ -ftoplevel-reorder -ftrapping-math -ftree-bit-ccp -ftree-builtin-call-dce
@ -ftree-ccp -ftree-ch -ftree-coalesce-vars -ftree-copy-prop -ftree-cselim
@ -ftree-dce -ftree-dominator-opts -ftree-dse -ftree-forwprop -ftree-fre
@ -ftree-loop-if-convert -ftree-loop-im -ftree-loop-ivcanon
@ -ftree-loop-optimize -ftree-parallelize-loops= -ftree-phiprop -ftree-pre
@ -ftree-pta -ftree-reassoc -ftree-scev-cprop -ftree-sink -ftree-slsr
@ -ftree-sra -ftree-switch-conversion -ftree-tail-merge -ftree-ter
@ -ftree-vrp -funit-at-a-time -fvar-tracking -fvar-tracking-assignments
@ -fverbose-asm -fzero-initialized-in-bss -marm -mbe32 -mlittle-endian
@ -mpic-data-is-text-relative -msched-prolog -munaligned-access
@ -mvectorize-with-neon-quad -mword-relocations

	.text
.Ltext0:
	.cfi_sections	.debug_frame
	.section	.rodata.parse.constprop.0.str1.4,"aMS",%progbits,1
	.align	2
.LC0:
	.ascii	"Position: %lu\012\000"
	.align	2
.LC1:
	.ascii	"[don't know]\000"
	.align	2
.LC2:
	.ascii	"%s: invalid packet (ctb=%02x)\012\000"
	.align	2
.LC3:
	.ascii	"%s: 1st length byte missing\012\000"
	.align	2
.LC4:
	.ascii	"%s: 2nd length byte missing\012\000"
	.align	2
.LC5:
	.ascii	"%s: 4 byte length invalid\012\000"
	.align	2
.LC6:
	.ascii	"%s: partial length invalid for packet type %d\012\000"
	.align	2
.LC7:
	.ascii	"%s: indeterminate length for invalid packet type %d"
	.ascii	"\012\000"
	.align	2
.LC8:
	.ascii	"%s: length invalid\012\000"
	.align	2
.LC9:
	.ascii	"%s: garbled packet detected\012\000"
	.align	2
.LC10:
	.ascii	"parse: Can't copy partial packet.  Aborting.\012\000"
	.align	2
.LC11:
	.ascii	"copy_packet: compressed!\012\000"
	.align	2
.LC12:
	.ascii	"\012Processing packet type: %s (%d)\012\012\000"
	.align	2
.LC13:
	.ascii	"Packet header (%d bytes):\012\000"
	.align	2
.LC14:
	.ascii	"packet(%d) with unknown version %d\012\000"
	.align	2
.LC15:
	.ascii	"packet(%d) too large\012\000"
	.align	2
.LC16:
	.ascii	"unknown S2K mode %d\012\000"
	.align	2
.LC17:
	.ascii	"packet with S2K %d too short\012\000"
	.align	2
.LC18:
	.ascii	"WARNING: potentially insecure symmetrically encrypt"
	.ascii	"ed session key\012\000"
	.align	2
.LC19:
	.ascii	":symkey enc packet: version %d, cipher %d, aead %d,"
	.ascii	"s2k %d, hash %d\012\000"
	.align	2
.LC20:
	.ascii	", encrypted seskey %d bytes\000"
	.align	2
.LC21:
	.ascii	", seskey %d bits\012\000"
	.align	2
.LC22:
	.ascii	", count %lu (%lu)\012\000"
	.align	2
.LC23:
	.ascii	"packet(%d) too short\012\000"
	.align	2
.LC24:
	.ascii	"packet(%d) too short (%lu)\012\000"
	.align	2
.LC25:
	.ascii	"parse_encrypted\012\000"
	.align	2
.LC26:
	.ascii	"Packet length: %lu\012\000"
	.align	2
.LC27:
	.ascii	"=== parse_encrypted start ===\012\000"
	.align	2
.LC28:
	.ascii	"Input buffer: %p\012\000"
	.align	2
.LC29:
	.ascii	"Packet type: %d (MDC: %d)\012\000"
	.align	2
.LC30:
	.ascii	"Partial: %d\012\000"
	.align	2
.LC31:
	.ascii	"Buffer use: %d\012\000"
	.align	2
.LC32:
	.ascii	"encrypted_mdc packet with unknown version %d\012\000"
	.align	2
.LC33:
	.ascii	"Encrypted data length: %lu\012\000"
	.align	2
.LC34:
	.ascii	"Allocated encrypted packet at: %p\012\000"
	.align	2
.LC35:
	.ascii	"Setting buf to input stream: %p\012\000"
	.align	2
.LC36:
	.ascii	"=== parse_encrypted end (rc=%d) ===\012\000"
	.align	2
.LC37:
	.ascii	"mdc_packet with invalid encoding\012\000"
	.align	2
.LC38:
	.ascii	"invalid marker packet\012\000"
	.align	2
.LC39:
	.ascii	"USER_ID\000"
	.section	.text.parse.constprop.0,"ax",%progbits
	.align	2
	.arch armv7ve
	.syntax unified
	.arm
	.fpu softvfp
	.type	parse.constprop.0, %function
parse.constprop.0:
.LVL0:
.LFB50:
	.file 1 "src/parse-packet.c"
	.loc 1 617 1 view -0
	.cfi_startproc
	@ args = 12, pretend = 0, frame = 144
	@ frame_needed = 0, uses_anonymous_args = 0
	.loc 1 625 3 view .LVU1
	.loc 1 626 3 view .LVU2
	.loc 1 627 3 view .LVU3
	.loc 1 628 3 view .LVU4
	.loc 1 629 3 view .LVU5
	.loc 1 630 3 view .LVU6
	.loc 1 631 3 view .LVU7
	.loc 1 632 3 view .LVU8
@ src/parse-packet.c:617: parse (parse_packet_ctx_t ctx, PACKET *pkt, int onlykeypkts, off_t * retpos,
	.loc 1 617 1 is_stmt 0 view .LVU9
	push	{r4, r5, r6, r7, r8, r9, r10, fp, lr}	@
	.cfi_def_cfa_offset 36
	.cfi_offset 4, -36
	.cfi_offset 5, -32
	.cfi_offset 6, -28
	.cfi_offset 7, -24
	.cfi_offset 8, -20
	.cfi_offset 9, -16
	.cfi_offset 10, -12
	.cfi_offset 11, -8
	.cfi_offset 14, -4
	sub	sp, sp, #156	@,,
	.cfi_def_cfa_offset 192
@ src/parse-packet.c:636:   inp = ctx->inp;
	.loc 1 636 7 view .LVU10
	ldr	r4, [r0]	@ inp, ctx_4(D)->inp
@ src/parse-packet.c:640:   if (retpos || list_mode)
	.loc 1 640 6 view .LVU11
	subs	r8, r3, #0	@ retpos, tmp1075
@ src/parse-packet.c:617: parse (parse_packet_ctx_t ctx, PACKET *pkt, int onlykeypkts, off_t * retpos,
	.loc 1 617 1 view .LVU12
	str	r1, [sp, #12]	@ tmp1073, %sfp
	mov	r7, r2	@ onlykeypkts, tmp1074
.LVL1:
	.loc 1 633 3 is_stmt 1 view .LVU13
	.loc 1 635 3 view .LVU14
@ src/parse-packet.c:635:   *skip = 0;
	.loc 1 635 9 is_stmt 0 view .LVU15
	ldr	r2, [sp, #192]	@ tmp1192, skip
.LVL2:
	.loc 1 635 9 view .LVU16
	mov	r3, #0	@ tmp587,
.LVL3:
@ src/parse-packet.c:617: parse (parse_packet_ctx_t ctx, PACKET *pkt, int onlykeypkts, off_t * retpos,
	.loc 1 617 1 view .LVU17
	mov	r6, r0	@ ctx, tmp1072
@ src/parse-packet.c:635:   *skip = 0;
	.loc 1 635 9 view .LVU18
	str	r3, [r2]	@ tmp587, *skip_3(D)
	.loc 1 636 3 is_stmt 1 view .LVU19
.LVL4:
.LDL1:
	.loc 1 640 3 view .LVU20
@ src/parse-packet.c:640:   if (retpos || list_mode)
	.loc 1 640 6 is_stmt 0 view .LVU21
	beq	.L2		@,
	.loc 1 642 7 is_stmt 1 view .LVU22
@ src/parse-packet.c:642:       pos = iobuf_tell (inp);
	.loc 1 642 13 is_stmt 0 view .LVU23
	mov	r0, r4	@, inp
.LVL5:
	.loc 1 642 13 view .LVU24
	bl	iobuf_tell(PLT)	@
.LVL6:
	.loc 1 642 13 view .LVU25
	mov	r5, r0	@ tmp1076,
@ src/parse-packet.c:643:       printf("Position: %lu\n", (unsigned long)pos);
	.loc 1 643 7 view .LVU26
	ldr	r0, .L292	@,
	mov	r1, r5	@, pos
.LPIC0:
	add	r0, pc, r0	@,
.LVL7:
	.loc 1 643 7 is_stmt 1 view .LVU27
	bl	tfp_printf(PLT)	@
.LVL8:
	.loc 1 644 7 view .LVU28
	.loc 1 645 9 view .LVU29
@ src/parse-packet.c:645:         *retpos = pos;
	.loc 1 645 17 is_stmt 0 view .LVU30
	str	r5, [r8]	@ pos, *retpos_6(D)
.LVL9:
.L2:
	.loc 1 652 3 is_stmt 1 view .LVU31
@ src/parse-packet.c:652:   if ((ctb = iobuf_get (inp)) == -1)
	.loc 1 652 14 is_stmt 0 view .LVU32
	ldr	r3, [r4, #16]	@ inp_5->nofast, inp_5->nofast
	cmp	r3, #0	@ inp_5->nofast,
	bne	.L3		@,
	ldr	r3, [r4, #24]	@ _11, inp_5->d.start
	ldr	r2, [r4, #28]	@ inp_5->d.len, inp_5->d.len
	cmp	r3, r2	@ _11, inp_5->d.len
	bcc	.L4		@,
.L3:
	mov	r0, r4	@, inp
	bl	iobuf_readbyte(PLT)	@
.LVL10:
@ src/parse-packet.c:652:   if ((ctb = iobuf_get (inp)) == -1)
	.loc 1 652 6 view .LVU33
	cmn	r0, #1	@ iftmp.3_13,
@ src/parse-packet.c:658:   hdr[hdrlen++] = ctb;
	.loc 1 658 17 view .LVU34
	uxtbne	r3, r0	@ _926, iftmp.3_13
@ src/parse-packet.c:652:   if ((ctb = iobuf_get (inp)) == -1)
	.loc 1 652 6 view .LVU35
	beq	.L269		@,
	.loc 1 657 3 is_stmt 1 view .LVU36
.LVL11:
	.loc 1 658 3 view .LVU37
@ src/parse-packet.c:658:   hdr[hdrlen++] = ctb;
	.loc 1 658 17 is_stmt 0 view .LVU38
	strb	r3, [sp, #44]	@ _926, hdr[0]
	.loc 1 663 3 is_stmt 1 view .LVU39
@ src/parse-packet.c:663:   if (!(ctb & 0x80))
	.loc 1 663 6 is_stmt 0 view .LVU40
	tst	r0, #128	@ iftmp.3_13,
	beq	.L271		@,
.L8:
	.loc 1 675 3 is_stmt 1 view .LVU41
.LVL12:
	.loc 1 676 3 view .LVU42
	.loc 1 677 3 view .LVU43
@ src/parse-packet.c:677:   if (new_ctb)
	.loc 1 677 6 is_stmt 0 view .LVU44
	ands	r3, r0, #64	@ _24, iftmp.3_13,
	str	r3, [sp, #16]	@ _24, %sfp
	bne	.L272		@,
	.loc 1 756 7 is_stmt 1 view .LVU45
@ src/parse-packet.c:760:       lenbytes = ((ctb & 3) == 3) ? 0 : (1 << (ctb & 3));
	.loc 1 760 24 is_stmt 0 view .LVU46
	and	r3, r0, #3	@ _98, iftmp.3_13,
@ src/parse-packet.c:756:       pkttype = (ctb >> 2) & 0xf;
	.loc 1 756 22 view .LVU47
	asr	r0, r0, #2	@ _96, iftmp.3_13,
.LVL13:
@ src/parse-packet.c:760:       lenbytes = ((ctb & 3) == 3) ? 0 : (1 << (ctb & 3));
	.loc 1 760 39 view .LVU48
	cmp	r3, #3	@ _98,
@ src/parse-packet.c:756:       pkttype = (ctb >> 2) & 0xf;
	.loc 1 756 15 view .LVU49
	and	r8, r0, #15	@ pkttype, _96,
.LVL14:
	.loc 1 760 7 is_stmt 1 view .LVU50
@ src/parse-packet.c:760:       lenbytes = ((ctb & 3) == 3) ? 0 : (1 << (ctb & 3));
	.loc 1 760 39 is_stmt 0 view .LVU51
	beq	.L35		@,
.LVL15:
	.loc 1 761 7 is_stmt 1 view .LVU52
	.loc 1 778 11 view .LVU53
@ src/parse-packet.c:675:   pktlen = 0;
	.loc 1 675 10 is_stmt 0 view .LVU54
	ldr	r5, [sp, #16]	@ pktlen, %sfp
@ src/parse-packet.c:760:       lenbytes = ((ctb & 3) == 3) ? 0 : (1 << (ctb & 3));
	.loc 1 760 39 view .LVU55
	mov	r10, #1	@ tmp643,
	add	fp, sp, #45	@ ivtmp.198,,
	lsl	r3, r10, r3	@ tmp642, tmp643, _98
.LVL16:
	.loc 1 760 39 view .LVU56
	add	r9, r3, r10	@ hdrlen, tmp642,
	b	.L36		@
.LVL17:
.L40:
@ src/parse-packet.c:781: 	      c = iobuf_get (inp);
	.loc 1 781 12 view .LVU57
	str	r2, [r4, #24]	@ tmp653, inp_5->d.start
	ldr	r2, [r4, #8]	@ inp_5->nbytes, inp_5->nbytes
	ldr	r1, [r4, #32]	@ _111, inp_5->d.buf
	add	r2, r2, #1	@ tmp651, inp_5->nbytes,
	str	r2, [r4, #8]	@ tmp651, inp_5->nbytes
	ldrb	r0, [r1, r3]	@ zero_extendqisi2	@ _585, *_113
.LVL18:
	.loc 1 782 8 is_stmt 1 view .LVU58
.L43:
	.loc 1 788 8 view .LVU59
@ src/parse-packet.c:788: 	      pktlen |= hdr[hdrlen++] = c;
	.loc 1 788 15 is_stmt 0 view .LVU60
	orr	r5, r0, r5	@ pktlen, _585, pktlen
.LVL19:
@ src/parse-packet.c:788: 	      pktlen |= hdr[hdrlen++] = c;
	.loc 1 788 28 view .LVU61
	add	r10, r10, #1	@ hdrlen, hdrlen,
.LVL20:
	.loc 1 778 21 is_stmt 1 view .LVU62
	.loc 1 778 11 view .LVU63
@ src/parse-packet.c:778: 	  for (; lenbytes; lenbytes--)
	.loc 1 778 4 is_stmt 0 view .LVU64
	cmp	r9, r10	@ hdrlen, hdrlen
@ src/parse-packet.c:788: 	      pktlen |= hdr[hdrlen++] = c;
	.loc 1 788 32 view .LVU65
	strb	r0, [fp], #1	@ _585, MEM[base: _147, offset: 0B]
@ src/parse-packet.c:778: 	  for (; lenbytes; lenbytes--)
	.loc 1 778 4 view .LVU66
	beq	.L44		@,
.LVL21:
.L36:
	.loc 1 780 8 is_stmt 1 view .LVU67
@ src/parse-packet.c:781: 	      c = iobuf_get (inp);
	.loc 1 781 12 is_stmt 0 view .LVU68
	ldr	r3, [r4, #16]	@ inp_5->nofast, inp_5->nofast
	mov	r0, r4	@, inp
@ src/parse-packet.c:780: 	      pktlen <<= 8;
	.loc 1 780 15 view .LVU69
	lsl	r5, r5, #8	@ pktlen, pktlen,
.LVL22:
	.loc 1 781 8 is_stmt 1 view .LVU70
@ src/parse-packet.c:781: 	      c = iobuf_get (inp);
	.loc 1 781 12 is_stmt 0 view .LVU71
	cmp	r3, #0	@ inp_5->nofast,
	bne	.L39		@,
.LVL23:
	.loc 1 781 12 view .LVU72
	ldr	r3, [r4, #24]	@ _106, inp_5->d.start
	ldr	r2, [r4, #28]	@ inp_5->d.len, inp_5->d.len
	cmp	r3, r2	@ _106, inp_5->d.len
	add	r2, r3, #1	@ tmp653, _106,
	bcc	.L40		@,
.L39:
	bl	iobuf_readbyte(PLT)	@
.LVL24:
	.loc 1 782 8 is_stmt 1 view .LVU73
@ src/parse-packet.c:782: 	      if (c == -1)
	.loc 1 782 11 is_stmt 0 view .LVU74
	cmn	r0, #1	@ iftmp.14_108,
@ src/parse-packet.c:788: 	      pktlen |= hdr[hdrlen++] = c;
	.loc 1 788 32 view .LVU75
	uxtb	r0, r0	@ _585, iftmp.14_108
.LVL25:
@ src/parse-packet.c:782: 	      if (c == -1)
	.loc 1 782 11 view .LVU76
	bne	.L43		@,
	.loc 1 784 5 is_stmt 1 view .LVU77
	ldr	r1, .L292+4	@,
	ldr	r0, .L292+8	@,
.LPIC13:
	add	r1, pc, r1	@,
.LPIC14:
	add	r0, pc, r0	@,
	bl	tfp_printf(PLT)	@
.LVL26:
	.loc 1 785 5 view .LVU78
	.file 2 "src/common/../gpg-error.h"
	.loc 2 966 3 view .LVU79
	.loc 2 951 3 view .LVU80
	.loc 1 786 5 view .LVU81
	.loc 1 1010 3 view .LVU82
	.loc 1 1016 3 view .LVU83
@ src/parse-packet.c:784: 		  printf ("%s: length invalid\n", iobuf_where (inp));
	.loc 1 784 5 is_stmt 0 view .LVU84
	mov	r0, #14	@ <retval>,
@ src/parse-packet.c:1017: }
	.loc 1 1017 1 view .LVU85
	add	sp, sp, #156	@,,
	.cfi_remember_state
	.cfi_def_cfa_offset 36
	@ sp needed	@
	pop	{r4, r5, r6, r7, r8, r9, r10, fp, pc}	@
.LVL27:
.L4:
	.cfi_restore_state
@ src/parse-packet.c:652:   if ((ctb = iobuf_get (inp)) == -1)
	.loc 1 652 14 view .LVU86
	ldr	r2, [r4, #8]	@ inp_5->nbytes, inp_5->nbytes
	ldr	r1, [r4, #32]	@ _16, inp_5->d.buf
	add	r2, r2, #1	@ tmp592, inp_5->nbytes,
	str	r2, [r4, #8]	@ tmp592, inp_5->nbytes
	add	r2, r3, #1	@ tmp594, _11,
	str	r2, [r4, #24]	@ tmp594, inp_5->d.start
	ldrb	r3, [r1, r3]	@ zero_extendqisi2	@ _926, *_18
@ src/parse-packet.c:658:   hdr[hdrlen++] = ctb;
	.loc 1 658 17 view .LVU87
	strb	r3, [sp, #44]	@ _926, hdr[0]
@ src/parse-packet.c:652:   if ((ctb = iobuf_get (inp)) == -1)
	.loc 1 652 14 view .LVU88
	mov	r0, r3	@ iftmp.3_13, _926
.LVL28:
	.loc 1 657 3 is_stmt 1 view .LVU89
	.loc 1 658 3 view .LVU90
	.loc 1 663 3 view .LVU91
@ src/parse-packet.c:663:   if (!(ctb & 0x80))
	.loc 1 663 6 is_stmt 0 view .LVU92
	tst	r0, #128	@ iftmp.3_13,
	bne	.L8		@,
.L271:
	.loc 1 665 7 is_stmt 1 view .LVU93
	ldr	r1, .L292+12	@,
	mov	r2, r0	@, iftmp.3_13
	ldr	r0, .L292+16	@,
.LVL29:
	.loc 1 665 7 is_stmt 0 view .LVU94
.LPIC1:
	add	r1, pc, r1	@,
.LPIC2:
	add	r0, pc, r0	@,
	bl	tfp_printf(PLT)	@
.LVL30:
	.loc 1 666 7 is_stmt 1 view .LVU95
	.loc 2 966 3 view .LVU96
	.loc 2 951 3 view .LVU97
	.loc 1 667 7 view .LVU98
	.loc 1 1010 3 view .LVU99
	.loc 1 1016 3 view .LVU100
@ src/parse-packet.c:665:       printf ("%s: invalid packet (ctb=%02x)\n", iobuf_where (inp), ctb);
	.loc 1 665 7 is_stmt 0 view .LVU101
	mov	r0, #14	@ <retval>,
@ src/parse-packet.c:1017: }
	.loc 1 1017 1 view .LVU102
	add	sp, sp, #156	@,,
	.cfi_remember_state
	.cfi_def_cfa_offset 36
	@ sp needed	@
	pop	{r4, r5, r6, r7, r8, r9, r10, fp, pc}	@
.LVL31:
.L272:
	.cfi_restore_state
	.loc 1 681 7 is_stmt 1 view .LVU103
@ src/parse-packet.c:687:       if ((c = iobuf_get (inp)) == -1)
	.loc 1 687 16 is_stmt 0 view .LVU104
	ldr	r3, [r4, #16]	@ inp_5->nofast, inp_5->nofast
@ src/parse-packet.c:681:       pkttype = ctb & 0x3f;
	.loc 1 681 15 view .LVU105
	and	r8, r0, #63	@ pkttype, iftmp.3_13,
.LVL32:
	.loc 1 687 7 is_stmt 1 view .LVU106
@ src/parse-packet.c:687:       if ((c = iobuf_get (inp)) == -1)
	.loc 1 687 16 is_stmt 0 view .LVU107
	cmp	r3, #0	@ inp_5->nofast,
	bne	.L11		@,
	ldr	r3, [r4, #24]	@ _29, inp_5->d.start
	ldr	r2, [r4, #28]	@ inp_5->d.len, inp_5->d.len
	cmp	r3, r2	@ _29, inp_5->d.len
	bcc	.L12		@,
.L11:
	.loc 1 687 16 view .LVU108
	mov	r0, r4	@, inp
.LVL33:
	.loc 1 687 16 view .LVU109
	bl	iobuf_readbyte(PLT)	@
.LVL34:
@ src/parse-packet.c:687:       if ((c = iobuf_get (inp)) == -1)
	.loc 1 687 10 view .LVU110
	cmn	r0, #1	@ iftmp.5_31,
@ src/parse-packet.c:695:       hdr[hdrlen++] = c;
	.loc 1 695 21 view .LVU111
	uxtbne	r3, r0	@ _567, iftmp.5_31
@ src/parse-packet.c:687:       if ((c = iobuf_get (inp)) == -1)
	.loc 1 687 10 view .LVU112
	beq	.L273		@,
.LVL35:
.L15:
	.loc 1 695 7 is_stmt 1 view .LVU113
@ src/parse-packet.c:695:       hdr[hdrlen++] = c;
	.loc 1 695 21 is_stmt 0 view .LVU114
	strb	r3, [sp, #45]	@ _567, hdr[1]
	.loc 1 696 7 is_stmt 1 view .LVU115
@ src/parse-packet.c:696:       if (c < 192)
	.loc 1 696 10 is_stmt 0 view .LVU116
	cmp	r0, #191	@ iftmp.5_31,
@ src/parse-packet.c:697:         pktlen = c;
	.loc 1 697 16 view .LVU117
	movle	r5, r0	@ pktlen, iftmp.5_31
.LVL36:
@ src/parse-packet.c:695:       hdr[hdrlen++] = c;
	.loc 1 695 17 view .LVU118
	movle	r9, #2	@ hdrlen,
@ src/parse-packet.c:696:       if (c < 192)
	.loc 1 696 10 view .LVU119
	bgt	.L274		@,
.LVL37:
.L17:
	.loc 1 812 3 is_stmt 1 view .LVU120
@ src/parse-packet.c:812:   if (pkttype == 63 && pktlen == 0xFFFFFFFF)
	.loc 1 812 6 is_stmt 0 view .LVU121
	cmp	r8, #63	@ pkttype,
	cmneq	r5, #1	@, pktlen,
	beq	.L275		@,
.LVL38:
.L44:
	.loc 1 822 3 is_stmt 1 view .LVU122
@ src/parse-packet.c:822:   if (out && pkttype)
	.loc 1 822 6 is_stmt 0 view .LVU123
	ldr	r3, [sp, #196]	@ tmp1249, out
	cmp	r3, #0	@ tmp1249,
	cmpne	r8, #0	@, pkttype,
	movne	r10, #1	@ tmp1065,
	moveq	r10, #0	@ tmp1065,
	bne	.L191		@,
.LVL39:
.L190:
	.loc 1 841 3 is_stmt 1 view .LVU124
@ src/parse-packet.c:841:   if (with_uid && pkttype == PKT_USER_ID)
	.loc 1 841 27 is_stmt 0 view .LVU125
	sub	fp, r8, #13	@ _138, pkttype,
	clz	fp, fp	@ _138, _138
	lsr	fp, fp, #5	@ _138, _138,
@ src/parse-packet.c:841:   if (with_uid && pkttype == PKT_USER_ID)
	.loc 1 841 6 view .LVU126
	cmp	r7, #2	@ onlykeypkts,
	movne	r3, #0	@, tmp693
	andeq	r3, fp, #1	@,, tmp693, _138
	cmp	r3, #0	@ tmp693,
	bne	.L54		@,
.LVL40:
.L192:
	.loc 1 845 8 is_stmt 1 view .LVU127
@ src/parse-packet.c:845:   else if (do_skip
	.loc 1 845 12 is_stmt 0 view .LVU128
	ldr	r3, [sp, #200]	@ tmp1194, do_skip
	and	r3, r3, #1	@ tmp697, tmp1194,
@ src/parse-packet.c:847: 	   || !pkttype
	.loc 1 847 5 view .LVU129
	cmp	r8, #0	@ pkttype,
	orreq	r3, r3, #1	@,, tmp697, tmp697
	str	r3, [sp, #20]	@ _143, %sfp
@ src/parse-packet.c:845:   else if (do_skip
	.loc 1 845 11 view .LVU130
	cmp	r3, #0	@ _143,
	bne	.L55		@,
@ src/parse-packet.c:849: 	   || (onlykeypkts && pkttype != PKT_PUBLIC_SUBKEY
	.loc 1 849 5 view .LVU131
	cmp	r7, #0	@ onlykeypkts,
	cmpne	r8, #14	@, pkttype,
	beq	.L57		@,
@ src/parse-packet.c:851: 	       && pkttype != PKT_SECRET_SUBKEY && pkttype != PKT_SECRET_KEY))
	.loc 1 851 41 view .LVU132
	sub	r3, r8, #5	@ tmp707, pkttype,
	cmp	r3, #2	@ tmp707,
	bhi	.L55		@,
.L57:
@ src/parse-packet.c:879:   ctx->n_parsed_packets++;
	.loc 1 879 24 view .LVU133
	ldr	r3, [r6, #20]	@ ctx_4(D)->n_parsed_packets, ctx_4(D)->n_parsed_packets
@ src/parse-packet.c:914: printf("\nProcessing packet type: %s (%d)\n\n", 
	.loc 1 914 1 view .LVU134
	ldr	r2, .L292+20	@ tmp716,
	ldr	r0, .L292+24	@,
@ src/parse-packet.c:879:   ctx->n_parsed_packets++;
	.loc 1 879 24 view .LVU135
	add	r3, r3, #1	@ tmp712, ctx_4(D)->n_parsed_packets,
	str	r3, [r6, #20]	@ tmp712, ctx_4(D)->n_parsed_packets
@ src/parse-packet.c:914: printf("\nProcessing packet type: %s (%d)\n\n", 
	.loc 1 914 1 view .LVU136
.LPIC19:
	add	r2, pc, r2	@ tmp716, tmp716
@ src/parse-packet.c:881:   pkt->pkttype = pkttype;
	.loc 1 881 16 view .LVU137
	ldr	r3, [sp, #12]	@ pkt, %sfp
@ src/parse-packet.c:914: printf("\nProcessing packet type: %s (%d)\n\n", 
	.loc 1 914 1 view .LVU138
	ldr	r1, [r2, r8, lsl #2]	@, pkt_type_str[pkttype_40]
	mov	r2, r8	@, pkttype
@ src/parse-packet.c:881:   pkt->pkttype = pkttype;
	.loc 1 881 16 view .LVU139
	strb	r8, [r3]	@ pkttype, pkt_152(D)->pkttype
@ src/parse-packet.c:914: printf("\nProcessing packet type: %s (%d)\n\n", 
	.loc 1 914 1 view .LVU140
.LPIC20:
	add	r0, pc, r0	@,
	bl	tfp_printf(PLT)	@
.LVL41:
@ src/parse-packet.c:676:   new_ctb = !!(ctb & 0x40);
	.loc 1 676 13 view .LVU141
	ldr	r3, [sp, #16]	@ _24, %sfp
@ src/parse-packet.c:917:   switch (pkttype)
	.loc 1 917 3 view .LVU142
	sub	r2, r8, #3	@ tmp720, pkttype,
@ src/parse-packet.c:676:   new_ctb = !!(ctb & 0x40);
	.loc 1 676 13 view .LVU143
	subs	r3, r3, #0	@ _25, _24,
	movne	r3, #1	@ _25,
	.loc 1 879 3 is_stmt 1 view .LVU144
	.loc 1 881 3 view .LVU145
	.loc 1 882 3 view .LVU146
.LVL42:
	.loc 1 884 1 view .LVU147
	.loc 1 914 1 view .LVU148
	.loc 1 917 3 view .LVU149
	cmp	r2, #16	@ tmp720,
	addls	pc, pc, r2, asl #2	@ tmp720
	b	.L59	@
.L61:
	b	.L65
	b	.L59
	b	.L59
	b	.L59
	b	.L59
	b	.L59
	b	.L62
	b	.L64
	b	.L63
	b	.L59
	b	.L59
	b	.L59
	b	.L59
	b	.L59
	b	.L59
	b	.L62
	b	.L60
.LVL43:
	.p2align 1
.L275:
	.loc 1 817 7 view .LVU150
	ldr	r1, .L292+28	@,
	ldr	r0, .L292+32	@,
.LPIC15:
	add	r1, pc, r1	@,
.LPIC16:
	add	r0, pc, r0	@,
	bl	tfp_printf(PLT)	@
.LVL44:
.L269:
	.loc 1 819 7 view .LVU151
@ src/parse-packet.c:819:       return -1;
	.loc 1 819 14 is_stmt 0 view .LVU152
	mvn	r0, #0	@ <retval>,
.LVL45:
.L1:
@ src/parse-packet.c:1017: }
	.loc 1 1017 1 view .LVU153
	add	sp, sp, #156	@,,
	.cfi_remember_state
	.cfi_def_cfa_offset 36
	@ sp needed	@
	pop	{r4, r5, r6, r7, r8, r9, r10, fp, pc}	@
.LVL46:
.L274:
	.cfi_restore_state
	.loc 1 698 12 is_stmt 1 view .LVU154
@ src/parse-packet.c:698:       else if (c < 224)
	.loc 1 698 15 is_stmt 0 view .LVU155
	cmp	r0, #223	@ iftmp.5_31,
	bgt	.L18		@,
	.loc 1 700 11 is_stmt 1 view .LVU156
@ src/parse-packet.c:701:           if ((c = iobuf_get (inp)) == -1)
	.loc 1 701 20 is_stmt 0 view .LVU157
	ldr	r3, [r4, #16]	@ inp_5->nofast, inp_5->nofast
@ src/parse-packet.c:700:           pktlen = (c - 192) * 256;
	.loc 1 700 23 view .LVU158
	sub	r5, r0, #192	@ tmp611, iftmp.5_31,
@ src/parse-packet.c:700:           pktlen = (c - 192) * 256;
	.loc 1 700 30 view .LVU159
	lsl	r5, r5, #8	@ pktlen, tmp611,
.LVL47:
	.loc 1 701 11 is_stmt 1 view .LVU160
@ src/parse-packet.c:701:           if ((c = iobuf_get (inp)) == -1)
	.loc 1 701 20 is_stmt 0 view .LVU161
	cmp	r3, #0	@ inp_5->nofast,
	bne	.L19		@,
	ldr	r3, [r4, #24]	@ _46, inp_5->d.start
	ldr	r2, [r4, #28]	@ inp_5->d.len, inp_5->d.len
	cmp	r3, r2	@ _46, inp_5->d.len
	bcs	.L19		@,
	ldr	r2, [r4, #8]	@ inp_5->nbytes, inp_5->nbytes
	ldr	r1, [r4, #32]	@ _51, inp_5->d.buf
	add	r2, r2, #1	@ tmp614, inp_5->nbytes,
	str	r2, [r4, #8]	@ tmp614, inp_5->nbytes
	add	r2, r3, #1	@ tmp616, _46,
	str	r2, [r4, #24]	@ tmp616, inp_5->d.start
	ldrb	r3, [r1, r3]	@ zero_extendqisi2	@ prephitmp_474, *_53
	mov	r0, r3	@ iftmp.7_48, prephitmp_474
.LVL48:
.L23:
	.loc 1 708 11 is_stmt 1 view .LVU162
@ src/parse-packet.c:708:           hdr[hdrlen++] = c;
	.loc 1 708 25 is_stmt 0 view .LVU163
	strb	r3, [sp, #46]	@ prephitmp_474, hdr[2]
	.loc 1 709 11 is_stmt 1 view .LVU164
	add	r5, r5, #192	@ _259, pktlen,
.LVL49:
@ src/parse-packet.c:709:           pktlen += c + 192;
	.loc 1 709 18 is_stmt 0 view .LVU165
	add	r5, r0, r5	@ pktlen, iftmp.7_48, _259
.LVL50:
@ src/parse-packet.c:708:           hdr[hdrlen++] = c;
	.loc 1 708 21 view .LVU166
	mov	r9, #3	@ hdrlen,
	b	.L17		@
.LVL51:
.L12:
@ src/parse-packet.c:687:       if ((c = iobuf_get (inp)) == -1)
	.loc 1 687 16 view .LVU167
	ldr	r2, [r4, #8]	@ inp_5->nbytes, inp_5->nbytes
	ldr	r1, [r4, #32]	@ _34, inp_5->d.buf
	add	r2, r2, #1	@ tmp603, inp_5->nbytes,
	str	r2, [r4, #8]	@ tmp603, inp_5->nbytes
	add	r2, r3, #1	@ tmp605, _29,
	str	r2, [r4, #24]	@ tmp605, inp_5->d.start
	ldrb	r3, [r1, r3]	@ zero_extendqisi2	@ _567, *_36
	mov	r0, r3	@ iftmp.5_31, _567
.LVL52:
	.loc 1 687 16 view .LVU168
	b	.L15		@
.LVL53:
.L191:
	.loc 1 835 7 is_stmt 1 view .LVU169
@ src/parse-packet.c:835:       rc = iobuf_write (out, hdr, hdrlen);
	.loc 1 835 12 is_stmt 0 view .LVU170
	ldr	r0, [sp, #196]	@, out
	mov	r2, r9	@, hdrlen
	add	r1, sp, #44	@,,
	bl	iobuf_write(PLT)	@
.LVL54:
	.loc 1 836 7 is_stmt 1 view .LVU171
@ src/parse-packet.c:836:       if (!rc)
	.loc 1 836 10 is_stmt 0 view .LVU172
	cmp	r0, #0	@ rc
	.loc 1 836 10 view .LVU173
	beq	.L276		@,
.LVL55:
.L45:
	.loc 1 1016 3 is_stmt 1 view .LVU174
@ src/parse-packet.c:1016:   return rc == -1? -1 : gpg_err_code (rc);
	.loc 1 1016 23 is_stmt 0 view .LVU175
	cmn	r0, #1	@ rc,
	beq	.L269		@,
.LVL56:
.L185:
.LBB99:
.LBB100:
@ src/common/../gpg-error.h:974:   return (gpg_err_code_t) (err & GPG_ERR_CODE_MASK);
	.loc 2 974 10 view .LVU176
	uxth	r0, r0	@ <retval>, rc
	b	.L1		@
.LVL57:
.L35:
	.loc 2 974 10 view .LVU177
.LBE100:
.LBE99:
	.loc 1 763 4 is_stmt 1 view .LVU178
	.loc 1 766 4 view .LVU179
	.loc 1 767 4 view .LVU180
@ src/parse-packet.c:767: 	  if (pkttype != PKT_ENCRYPTED && pkttype != PKT_PLAINTEXT
	.loc 1 767 16 is_stmt 0 view .LVU181
	and	r0, r0, #13	@ tmp644, _96,
@ src/parse-packet.c:767: 	  if (pkttype != PKT_ENCRYPTED && pkttype != PKT_PLAINTEXT
	.loc 1 767 7 view .LVU182
	cmp	r0, #9	@ tmp644,
	beq	.L37		@,
@ src/parse-packet.c:768: 	      && pkttype != PKT_COMPRESSED)
	.loc 1 768 8 view .LVU183
	cmp	r8, #8	@ pkttype,
	bne	.L277		@,
.LVL58:
	.loc 1 822 3 is_stmt 1 view .LVU184
@ src/parse-packet.c:822:   if (out && pkttype)
	.loc 1 822 6 is_stmt 0 view .LVU185
	ldr	r3, [sp, #196]	@ tmp1250, out
	cmp	r3, #0	@ tmp1250,
	bne	.L189		@,
	ldr	fp, [sp, #16]	@ _24, %sfp
	mov	r10, #1	@ partial,
@ src/parse-packet.c:658:   hdr[hdrlen++] = ctb;
	.loc 1 658 13 view .LVU186
	mov	r9, r10	@ hdrlen, partial
@ src/parse-packet.c:822:   if (out && pkttype)
	.loc 1 822 6 view .LVU187
	mov	r5, fp	@ pktlen, _24
	b	.L192		@
.LVL59:
.L18:
	.loc 1 711 12 is_stmt 1 view .LVU188
@ src/parse-packet.c:711:       else if (c == 255)
	.loc 1 711 15 is_stmt 0 view .LVU189
	cmp	r0, #255	@ iftmp.5_31,
	beq	.L278		@,
	.loc 1 731 11 is_stmt 1 view .LVU190
	sub	r3, r8, #8	@ tmp635, pkttype,
	cmp	r3, #12	@ tmp635,
	addls	pc, pc, r3, asl #2	@ tmp635
	b	.L31	@
.L33:
	b	.L32
	b	.L32
	b	.L31
	b	.L32
	b	.L31
	b	.L31
	b	.L31
	b	.L31
	b	.L31
	b	.L31
	b	.L32
	b	.L31
	b	.L32
.LVL60:
	.p2align 1
.L37:
@ src/parse-packet.c:822:   if (out && pkttype)
	.loc 1 822 11 is_stmt 0 view .LVU191
	subs	r5, r8, #0	@ prephitmp_569, pkttype,
@ src/parse-packet.c:658:   hdr[hdrlen++] = ctb;
	.loc 1 658 13 view .LVU192
	mov	r9, #1	@ hdrlen,
@ src/parse-packet.c:822:   if (out && pkttype)
	.loc 1 822 11 view .LVU193
	movne	r5, #1	@ prephitmp_569,
.LVL61:
.L34:
	.loc 1 822 3 is_stmt 1 view .LVU194
@ src/parse-packet.c:822:   if (out && pkttype)
	.loc 1 822 6 is_stmt 0 view .LVU195
	ldr	r3, [sp, #196]	@ tmp1248, out
	cmp	r3, #0	@ tmp1248,
	moveq	r5, #0	@, tmp1058
	andne	r5, r5, #1	@,, tmp1058, prephitmp_569
	cmp	r5, #0	@ tmp1058,
	moveq	r10, #1	@ partial,
	beq	.L190		@,
.LVL62:
.L189:
	.loc 1 830 4 is_stmt 1 view .LVU196
	ldr	r0, .L292+36	@,
.LPIC17:
	add	r0, pc, r0	@,
	bl	tfp_printf(PLT)	@
.LVL63:
	.loc 1 831 4 view .LVU197
	.loc 2 966 3 view .LVU198
	.loc 2 951 3 view .LVU199
	.loc 1 832 4 view .LVU200
	.loc 1 1010 3 view .LVU201
	.loc 1 1016 3 view .LVU202
@ src/parse-packet.c:830: 	  printf ("parse: Can't copy partial packet.  Aborting.\n");
	.loc 1 830 4 is_stmt 0 view .LVU203
	mov	r0, #14	@ <retval>,
@ src/parse-packet.c:1017: }
	.loc 1 1017 1 view .LVU204
	add	sp, sp, #156	@,,
	.cfi_remember_state
	.cfi_def_cfa_offset 36
	@ sp needed	@
	pop	{r4, r5, r6, r7, r8, r9, r10, fp, pc}	@
.LVL64:
.L54:
	.cfi_restore_state
	.loc 1 879 3 is_stmt 1 view .LVU205
@ src/parse-packet.c:879:   ctx->n_parsed_packets++;
	.loc 1 879 24 is_stmt 0 view .LVU206
	ldr	r3, [r6, #20]	@ ctx_4(D)->n_parsed_packets, ctx_4(D)->n_parsed_packets
@ src/parse-packet.c:881:   pkt->pkttype = pkttype;
	.loc 1 881 16 view .LVU207
	mov	r2, #13	@ tmp1033,
@ src/parse-packet.c:914: printf("\nProcessing packet type: %s (%d)\n\n", 
	.loc 1 914 1 view .LVU208
	ldr	r1, .L292+40	@,
	ldr	r0, .L292+44	@,
@ src/parse-packet.c:879:   ctx->n_parsed_packets++;
	.loc 1 879 24 view .LVU209
	add	r3, r3, #1	@ tmp1031, ctx_4(D)->n_parsed_packets,
	str	r3, [r6, #20]	@ tmp1031, ctx_4(D)->n_parsed_packets
	.loc 1 881 3 is_stmt 1 view .LVU210
@ src/parse-packet.c:881:   pkt->pkttype = pkttype;
	.loc 1 881 16 is_stmt 0 view .LVU211
	ldr	r3, [sp, #12]	@ pkt, %sfp
@ src/parse-packet.c:914: printf("\nProcessing packet type: %s (%d)\n\n", 
	.loc 1 914 1 view .LVU212
.LPIC56:
	add	r1, pc, r1	@,
.LPIC57:
	add	r0, pc, r0	@,
@ src/parse-packet.c:881:   pkt->pkttype = pkttype;
	.loc 1 881 16 view .LVU213
	strb	r2, [r3]	@ tmp1033, pkt_152(D)->pkttype
	.loc 1 882 3 is_stmt 1 view .LVU214
.LVL65:
	.loc 1 884 1 view .LVU215
	.loc 1 914 1 view .LVU216
	bl	tfp_printf(PLT)	@
.LVL66:
	.loc 1 917 3 view .LVU217
.L59:
	.loc 1 987 3 view .LVU218
	mov	r0, #0	@,
	mov	r1, r6	@, ctx
	bl	free_packet(PLT)	@
.LVL67:
	.loc 1 988 3 view .LVU219
	.loc 1 1006 1 view .LVU220
	ldr	r0, .L292+48	@,
	mov	r1, r9	@, hdrlen
.LPIC21:
	add	r0, pc, r0	@,
	bl	tfp_printf(PLT)	@
.LVL68:
	.loc 1 1007 1 view .LVU221
	mov	r1, r9	@, hdrlen
	add	r0, sp, #44	@,,
	bl	log_hexdump(PLT)	@
.LVL69:
	.loc 1 1010 3 view .LVU222
@ src/parse-packet.c:1007: log_hexdump(hdr, hdrlen);
	.loc 1 1007 1 is_stmt 0 view .LVU223
	mov	r0, #2	@ <retval>,
	b	.L1		@
.LVL70:
.L273:
	.loc 1 689 4 is_stmt 1 view .LVU224
	ldr	r1, .L292+52	@,
	ldr	r0, .L292+56	@,
.LVL71:
	.loc 1 689 4 is_stmt 0 view .LVU225
.LPIC3:
	add	r1, pc, r1	@,
.LPIC4:
	add	r0, pc, r0	@,
	bl	tfp_printf(PLT)	@
.LVL72:
	.loc 1 690 4 is_stmt 1 view .LVU226
	.loc 2 966 3 view .LVU227
	.loc 2 951 3 view .LVU228
	.loc 1 691 4 view .LVU229
	.loc 1 1010 3 view .LVU230
	.loc 1 1016 3 view .LVU231
@ src/parse-packet.c:689: 	  printf ("%s: 1st length byte missing\n", iobuf_where (inp));
	.loc 1 689 4 is_stmt 0 view .LVU232
	mov	r0, #14	@ <retval>,
	b	.L1		@
.LVL73:
.L32:
	.loc 1 738 15 is_stmt 1 view .LVU233
	uxtb	r1, r0	@, iftmp.5_31
	mov	r0, r4	@, inp
.LVL74:
@ src/parse-packet.c:695:       hdr[hdrlen++] = c;
	.loc 1 695 17 is_stmt 0 view .LVU234
	mov	r9, #2	@ hdrlen,
@ src/parse-packet.c:741:               break;
	.loc 1 741 15 view .LVU235
	mov	r5, #1	@ prephitmp_569,
@ src/parse-packet.c:738:               iobuf_set_partial_body_length_mode (inp, c & 0xff);
	.loc 1 738 15 view .LVU236
	bl	iobuf_set_partial_body_length_mode(PLT)	@
.LVL75:
	.loc 1 739 15 is_stmt 1 view .LVU237
	.loc 1 740 15 view .LVU238
	.loc 1 741 15 view .LVU239
	b	.L34		@
.LVL76:
.L62:
	.loc 1 966 7 view .LVU240
.LBB101:
.LBI101:
	.loc 1 3409 1 view .LVU241
.LBB102:
	.loc 1 3412 3 view .LVU242
	ldr	r0, .L292+60	@,
	str	r3, [sp, #16]	@ _25, %sfp
.LPIC34:
	add	r0, pc, r0	@,
	bl	tfp_printf(PLT)	@
.LVL77:
	.loc 1 3413 3 view .LVU243
	ldr	r0, .L292+64	@,
	mov	r1, r5	@, pktlen
.LPIC35:
	add	r0, pc, r0	@,
	bl	tfp_printf(PLT)	@
.LVL78:
	.loc 1 3415 1 view .LVU244
	ldr	r0, .L292+68	@,
.LPIC36:
	add	r0, pc, r0	@,
	bl	tfp_printf(PLT)	@
.LVL79:
	.loc 1 3416 1 view .LVU245
	ldr	r0, .L292+72	@,
	mov	r1, r4	@, inp
.LPIC37:
	add	r0, pc, r0	@,
	bl	tfp_printf(PLT)	@
.LVL80:
	.loc 1 3417 1 view .LVU246
	ldr	r0, .L292+76	@,
	sub	r2, r8, #18	@, pkttype,
	clz	r2, r2	@,
	mov	r1, r8	@, pkttype
.LPIC38:
	add	r0, pc, r0	@,
	lsr	r2, r2, #5	@,,
	bl	tfp_printf(PLT)	@
.LVL81:
	.loc 1 3418 1 view .LVU247
	ldr	r0, .L292+80	@,
	mov	r1, r10	@, partial
.LPIC39:
	add	r0, pc, r0	@,
	bl	tfp_printf(PLT)	@
.LVL82:
	.loc 1 3419 5 view .LVU248
	ldr	r0, .L292+84	@,
	ldrb	r1, [r4]	@ zero_extendqisi2	@, inp_5->use
.LPIC40:
	add	r0, pc, r0	@,
	bl	tfp_printf(PLT)	@
.LVL83:
	.loc 1 3430 3 view .LVU249
	.loc 1 3431 3 view .LVU250
	.loc 1 3432 3 view .LVU251
	.loc 1 3434 3 view .LVU252
@ src/parse-packet.c:3434:   ed = pkt->pkt.encrypted = xmalloc(sizeof *pkt->pkt.encrypted);
	.loc 1 3434 29 is_stmt 0 view .LVU253
	mov	r0, #20	@,
	bl	xmalloc(PLT)	@
.LVL84:
@ src/parse-packet.c:3434:   ed = pkt->pkt.encrypted = xmalloc(sizeof *pkt->pkt.encrypted);
	.loc 1 3434 27 view .LVU254
	ldr	r3, [sp, #12]	@ pkt, %sfp
@ src/parse-packet.c:3443:   if (pkttype == PKT_ENCRYPTED_MDC)
	.loc 1 3443 6 view .LVU255
	cmp	r8, #18	@ pkttype,
@ src/parse-packet.c:3434:   ed = pkt->pkt.encrypted = xmalloc(sizeof *pkt->pkt.encrypted);
	.loc 1 3434 29 view .LVU256
	mov	r7, r0	@ _607, tmp1105
.LVL85:
@ src/parse-packet.c:3434:   ed = pkt->pkt.encrypted = xmalloc(sizeof *pkt->pkt.encrypted);
	.loc 1 3434 27 view .LVU257
	str	r0, [r3, #4]	@ _607, pkt_152(D)->pkt.encrypted
.LVL86:
	.loc 1 3436 3 is_stmt 1 view .LVU258
@ src/parse-packet.c:3438:   ed->new_ctb = new_ctb;
	.loc 1 3438 15 is_stmt 0 view .LVU259
	ldr	r3, [sp, #16]	@ _25, %sfp
@ src/parse-packet.c:3439:   ed->is_partial = partial;
	.loc 1 3439 18 view .LVU260
	strb	r10, [r0, #9]	@ partial, MEM[(struct PKT_encrypted *)_607].is_partial
@ src/parse-packet.c:3438:   ed->new_ctb = new_ctb;
	.loc 1 3438 15 view .LVU261
	strb	r3, [r0, #8]	@ _25, MEM[(struct PKT_encrypted *)_607].new_ctb
@ src/parse-packet.c:3436:   ed->extralen = 0; /* Unknown here; only used in build_packet.  */
	.loc 1 3436 16 view .LVU262
	mov	r3, #0	@ tmp912,
	str	r3, [r0, #4]	@ tmp912, MEM[(struct PKT_encrypted *)_607].extralen
	.loc 1 3437 3 is_stmt 1 view .LVU263
@ src/parse-packet.c:3437:   ed->buf = NULL;
	.loc 1 3437 11 is_stmt 0 view .LVU264
	str	r3, [r0, #16]	@ tmp912, MEM[(struct PKT_encrypted *)_607].buf
	.loc 1 3438 3 is_stmt 1 view .LVU265
	.loc 1 3439 3 view .LVU266
	.loc 1 3440 3 view .LVU267
	.loc 1 3441 3 view .LVU268
	.loc 1 3442 3 view .LVU269
@ src/parse-packet.c:3440:   ed->aead_algo = 0;
	.loc 1 3440 17 is_stmt 0 view .LVU270
	strb	r3, [r0, #11]	@ tmp912, MEM[(struct PKT_encrypted *)_607].aead_algo
@ src/parse-packet.c:3441:   ed->cipher_algo = 0; /* Only used with AEAD.  */
	.loc 1 3441 19 view .LVU271
	strh	r3, [r0, #12]	@ movhi	@ tmp912, MEM <unsigned short> [(unsigned char *)_607 + 12B]
	.loc 1 3443 3 is_stmt 1 view .LVU272
@ src/parse-packet.c:3464:     ed->mdc_method = 0;
	.loc 1 3464 20 is_stmt 0 view .LVU273
	strbne	r3, [r0, #10]	@ tmp912, MEM[(struct PKT_encrypted *)_607].mdc_method
	movne	r3, r5	@ pktlen, pktlen
@ src/parse-packet.c:3443:   if (pkttype == PKT_ENCRYPTED_MDC)
	.loc 1 3443 6 view .LVU274
	beq	.L279		@,
.LVL87:
.L160:
	.loc 1 3469 3 is_stmt 1 view .LVU275
@ src/parse-packet.c:3469:   if (orig_pktlen && pktlen < 10)
	.loc 1 3469 6 is_stmt 0 view .LVU276
	subs	r5, r5, #0	@ tmp940, tmp940,
	.loc 1 3469 6 view .LVU277
	movne	r5, #1	@ tmp940,
.LVL88:
	.loc 1 3469 6 view .LVU278
	cmp	r3, #9	@ pktlen,
	movhi	r5, #0	@ tmp940,
	cmp	r5, #0	@ tmp940,
	bne	.L280		@,
	.loc 1 3483 3 is_stmt 1 view .LVU279
@ src/parse-packet.c:3484:     printf("Encrypted data length: %lu\n", ed->len);
	.loc 1 3484 5 is_stmt 0 view .LVU280
	ldr	r5, .L292+88	@ tmp947,
	mov	r1, r3	@, pktlen
@ src/parse-packet.c:3483:   ed->len = pktlen;
	.loc 1 3483 11 view .LVU281
	str	r3, [r7]	@ pktlen, MEM[(struct PKT_encrypted *)_607].len
	.loc 1 3484 5 is_stmt 1 view .LVU282
.LPIC45:
	add	r5, pc, r5	@ tmp947, tmp947
	mov	r0, r5	@, tmp947
	bl	tfp_printf(PLT)	@
.LVL89:
	.loc 1 3487 3 view .LVU283
@ src/parse-packet.c:3487:   if (ed->len > 0)
	.loc 1 3487 9 is_stmt 0 view .LVU284
	ldr	r1, [r7]	@ _632, MEM[(struct PKT_encrypted *)_607].len
@ src/parse-packet.c:3487:   if (ed->len > 0)
	.loc 1 3487 6 view .LVU285
	cmp	r1, #0	@ _632,
	bne	.L281		@,
.L162:
	.loc 1 3491 3 is_stmt 1 view .LVU286
	.loc 1 3503 1 view .LVU287
	ldr	r0, .L292+92	@,
	mov	r1, r7	@, _607
.LPIC47:
	add	r0, pc, r0	@,
	bl	tfp_printf(PLT)	@
.LVL90:
	.loc 1 3506 1 view .LVU288
	ldr	r0, .L292+96	@,
	mov	r1, r4	@, inp
.LPIC48:
	add	r0, pc, r0	@,
	bl	tfp_printf(PLT)	@
.LVL91:
	.loc 1 3507 3 view .LVU289
@ src/parse-packet.c:3511: printf("=== parse_encrypted end (rc=%d) ===\n", rc);
	.loc 1 3511 1 is_stmt 0 view .LVU290
	ldr	r0, .L292+100	@,
	mov	r1, #0	@,
@ src/parse-packet.c:3507:   ed->buf = inp;
	.loc 1 3507 11 view .LVU291
	str	r4, [r7, #16]	@ inp, MEM[(struct PKT_encrypted *)_607].buf
	.loc 1 3511 1 is_stmt 1 view .LVU292
.LPIC49:
	add	r0, pc, r0	@,
	bl	tfp_printf(PLT)	@
.LVL92:
	.loc 1 3511 1 is_stmt 0 view .LVU293
.LBE102:
.LBE101:
	.loc 1 987 3 is_stmt 1 view .LVU294
	mov	r1, r6	@, ctx
	mov	r0, #0	@,
	bl	free_packet(PLT)	@
.LVL93:
	.loc 1 988 3 view .LVU295
@ src/parse-packet.c:989:               || pkttype == PKT_SECRET_KEY
	.loc 1 989 15 is_stmt 0 view .LVU296
	sub	r3, r8, #5	@ tmp956, pkttype,
@ src/parse-packet.c:988:   if (!rc && (pkttype == PKT_PUBLIC_KEY
	.loc 1 988 11 view .LVU297
	cmp	r3, #1	@ tmp956,
	orrls	fp, fp, #1	@,, tmp961, _138
	cmp	fp, #0	@ tmp961,
	beq	.L163		@,
.LVL94:
.L183:
	.loc 1 994 7 is_stmt 1 view .LVU298
@ src/parse-packet.c:994:       ctx->last_pkt = *pkt;
	.loc 1 994 21 is_stmt 0 view .LVU299
	ldr	r3, [sp, #12]	@ pkt, %sfp
	ldm	r3, {r0, r1}	@ pkt,,
	stmib	r6, {r0, r1}	@ ctx,,
	.loc 1 1006 1 is_stmt 1 view .LVU300
	ldr	r0, .L292+104	@,
	mov	r1, r9	@, hdrlen
.LPIC50:
	add	r0, pc, r0	@,
	bl	tfp_printf(PLT)	@
.LVL95:
	.loc 1 1007 1 view .LVU301
	mov	r1, r9	@, hdrlen
	add	r0, sp, #44	@,,
	bl	log_hexdump(PLT)	@
.LVL96:
	.loc 1 1010 3 view .LVU302
.L266:
	.loc 1 855 7 view .LVU303
	.loc 1 856 7 view .LVU304
	.loc 1 1010 3 view .LVU305
@ src/parse-packet.c:1010:   if (!rc && iobuf_error (inp))
	.loc 1 1010 11 is_stmt 0 view .LVU306
	ldr	r3, [r4, #40]	@ inp_5->error, inp_5->error
	cmp	r3, #0	@ inp_5->error,
@ src/parse-packet.c:689: 	  printf ("%s: 1st length byte missing\n", iobuf_where (inp));
	.loc 1 689 4 view .LVU307
	moveq	r0, #0	@ <retval>,
@ src/parse-packet.c:665:       printf ("%s: invalid packet (ctb=%02x)\n", iobuf_where (inp), ctb);
	.loc 1 665 7 view .LVU308
	movne	r0, #34	@ <retval>,
@ src/parse-packet.c:1017: }
	.loc 1 1017 1 view .LVU309
	add	sp, sp, #156	@,,
	.cfi_remember_state
	.cfi_def_cfa_offset 36
	@ sp needed	@
	pop	{r4, r5, r6, r7, r8, r9, r10, fp, pc}	@
.LVL97:
.L278:
	.cfi_restore_state
	.loc 1 1017 1 view .LVU310
	add	r10, sp, #46	@ ivtmp.185,,
	add	r5, sp, #52	@ ivtmp.188,,
@ src/parse-packet.c:695:       hdr[hdrlen++] = c;
	.loc 1 695 17 view .LVU311
	mov	r9, #2	@ hdrlen,
.LVL98:
.L30:
.LBB110:
	.loc 1 718 15 is_stmt 1 view .LVU312
@ src/parse-packet.c:718:               if ((c = iobuf_get (inp)) == -1)
	.loc 1 718 24 is_stmt 0 view .LVU313
	ldr	r3, [r4, #16]	@ inp_5->nofast, inp_5->nofast
	mov	r0, r4	@, inp
	cmp	r3, #0	@ inp_5->nofast,
	bne	.L25		@,
.LVL99:
	.loc 1 718 24 view .LVU314
	ldr	r3, [r4, #24]	@ _62, inp_5->d.start
	ldr	r2, [r4, #28]	@ inp_5->d.len, inp_5->d.len
	cmp	r3, r2	@ _62, inp_5->d.len
	add	r2, r3, #1	@ tmp627, _62,
	bcs	.L25		@,
	str	r2, [r4, #24]	@ tmp627, inp_5->d.start
	ldr	r2, [r4, #8]	@ inp_5->nbytes, inp_5->nbytes
	ldr	r1, [r4, #32]	@ _67, inp_5->d.buf
	add	r2, r2, #1	@ tmp625, inp_5->nbytes,
	str	r2, [r4, #8]	@ tmp625, inp_5->nbytes
	ldrb	r3, [r1, r3]	@ zero_extendqisi2	@ _937, *_69
.LVL100:
.L29:
	.loc 1 724 15 is_stmt 1 view .LVU315
@ src/parse-packet.c:724:               value[i] = hdr[hdrlen++] = c;
	.loc 1 724 40 is_stmt 0 view .LVU316
	strb	r3, [r10], #1	@ _937, MEM[base: _359, offset: 0B]
@ src/parse-packet.c:724:               value[i] = hdr[hdrlen++] = c;
	.loc 1 724 36 view .LVU317
	add	r9, r9, #1	@ hdrlen, hdrlen,
.LVL101:
@ src/parse-packet.c:724:               value[i] = hdr[hdrlen++] = c;
	.loc 1 724 24 view .LVU318
	strb	r3, [r5], #1	@ _937, MEM[base: _285, offset: 0B]
	.loc 1 716 23 is_stmt 1 view .LVU319
.LVL102:
	.loc 1 716 16 view .LVU320
@ src/parse-packet.c:716: 	  for (i = 0; i < 4; i ++)
	.loc 1 716 4 is_stmt 0 view .LVU321
	cmp	r9, #6	@ hdrlen,
	bne	.L30		@,
	.loc 1 727 4 is_stmt 1 view .LVU322
.LVL103:
	.loc 1 727 4 is_stmt 0 view .LVU323
.LBE110:
	.file 3 "src/common/host2net.h"
	.loc 3 90 3 is_stmt 1 view .LVU324
	.loc 3 92 3 view .LVU325
	ldr	r5, [sp, #52]	@ MEM <long unsigned int> [(const unsigned char *)_842], MEM <long unsigned int> [(const unsigned char *)_842]
	rev	r5, r5	@ pktlen, MEM <long unsigned int> [(const unsigned char *)_842]
.LVL104:
	.loc 3 92 3 is_stmt 0 view .LVU326
	b	.L17		@
.LVL105:
.L19:
@ src/parse-packet.c:701:           if ((c = iobuf_get (inp)) == -1)
	.loc 1 701 20 view .LVU327
	mov	r0, r4	@, inp
.LVL106:
	.loc 1 701 20 view .LVU328
	bl	iobuf_readbyte(PLT)	@
.LVL107:
@ src/parse-packet.c:701:           if ((c = iobuf_get (inp)) == -1)
	.loc 1 701 14 view .LVU329
	cmn	r0, #1	@ iftmp.7_48,
@ src/parse-packet.c:708:           hdr[hdrlen++] = c;
	.loc 1 708 25 view .LVU330
	uxtbne	r3, r0	@ prephitmp_474, iftmp.7_48
@ src/parse-packet.c:701:           if ((c = iobuf_get (inp)) == -1)
	.loc 1 701 14 view .LVU331
	bne	.L23		@,
	.loc 1 703 15 is_stmt 1 view .LVU332
	ldr	r1, .L292+108	@,
	ldr	r0, .L292+112	@,
.LVL108:
	.loc 1 703 15 is_stmt 0 view .LVU333
.LPIC5:
	add	r1, pc, r1	@,
.LPIC6:
	add	r0, pc, r0	@,
	bl	tfp_printf(PLT)	@
.LVL109:
	.loc 1 705 15 is_stmt 1 view .LVU334
	.loc 2 966 3 view .LVU335
	.loc 2 951 3 view .LVU336
	.loc 1 706 15 view .LVU337
	.loc 1 1010 3 view .LVU338
	.loc 1 1016 3 view .LVU339
@ src/parse-packet.c:703:               printf ("%s: 2nd length byte missing\n",
	.loc 1 703 15 is_stmt 0 view .LVU340
	mov	r0, #14	@ <retval>,
	b	.L1		@
.LVL110:
.L31:
	.loc 1 744 15 is_stmt 1 view .LVU341
	ldr	r1, .L292+116	@,
	mov	r2, r8	@, pkttype
	ldr	r0, .L292+120	@,
.LVL111:
	.loc 1 744 15 is_stmt 0 view .LVU342
.LPIC9:
	add	r1, pc, r1	@,
.LPIC10:
	add	r0, pc, r0	@,
	bl	tfp_printf(PLT)	@
.LVL112:
	.loc 1 746 15 is_stmt 1 view .LVU343
	.loc 2 966 3 view .LVU344
	.loc 2 951 3 view .LVU345
	.loc 1 747 15 view .LVU346
	.loc 1 1010 3 view .LVU347
	.loc 1 1016 3 view .LVU348
@ src/parse-packet.c:744:               printf ("%s: partial length invalid for"
	.loc 1 744 15 is_stmt 0 view .LVU349
	mov	r0, #14	@ <retval>,
	b	.L1		@
.LVL113:
.L55:
	.loc 1 853 7 is_stmt 1 view .LVU350
	mov	r2, r10	@, partial
	mov	r1, r5	@, pktlen
	mov	r0, r4	@, inp
	bl	iobuf_skip_rest(PLT)	@
.LVL114:
	.loc 1 854 7 view .LVU351
@ src/parse-packet.c:854:       *skip = 1;
	.loc 1 854 13 is_stmt 0 view .LVU352
	ldr	r2, [sp, #192]	@ tmp1197, skip
	mov	r3, #1	@ tmp708,
	str	r3, [r2]	@ tmp708, *skip_3(D)
	b	.L266		@
.LVL115:
.L277:
	.loc 1 770 8 is_stmt 1 view .LVU353
	ldr	r1, .L292+124	@,
	mov	r2, r8	@, pkttype
	ldr	r0, .L292+128	@,
.LPIC11:
	add	r1, pc, r1	@,
.LPIC12:
	add	r0, pc, r0	@,
	bl	tfp_printf(PLT)	@
.LVL116:
	.loc 1 772 8 view .LVU354
	.loc 2 966 3 view .LVU355
	.loc 2 951 3 view .LVU356
	.loc 1 773 8 view .LVU357
	.loc 1 1010 3 view .LVU358
	.loc 1 1016 3 view .LVU359
@ src/parse-packet.c:770: 	      printf ("%s: indeterminate length for invalid"
	.loc 1 770 8 is_stmt 0 view .LVU360
	mov	r0, #14	@ <retval>,
	b	.L1		@
.LVL117:
.L65:
	.loc 1 927 7 is_stmt 1 view .LVU361
.LBB111:
.LBI111:
	.loc 1 1253 1 view .LVU362
.LBB112:
	.loc 1 1256 3 view .LVU363
	.loc 1 1257 3 view .LVU364
	.loc 1 1258 3 view .LVU365
	.loc 1 1260 3 view .LVU366
@ src/parse-packet.c:1260:   if (pktlen < 4)
	.loc 1 1260 6 is_stmt 0 view .LVU367
	cmp	r5, #3	@ pktlen,
	bls	.L67		@,
	.loc 1 1262 3 is_stmt 1 view .LVU368
@ src/parse-packet.c:1262:   version = iobuf_get_noeof(inp);
	.loc 1 1262 13 is_stmt 0 view .LVU369
	ldr	r3, [r4, #16]	@ inp_5->nofast, inp_5->nofast
	cmp	r3, #0	@ inp_5->nofast,
	bne	.L68		@,
	ldr	r3, [r4, #24]	@ _272, inp_5->d.start
	ldr	r2, [r4, #28]	@ inp_5->d.len, inp_5->d.len
	cmp	r3, r2	@ _272, inp_5->d.len
	bcs	.L68		@,
	ldr	r2, [r4, #8]	@ inp_5->nbytes, inp_5->nbytes
	ldr	r1, [r4, #32]	@ _278, inp_5->d.buf
	add	r2, r2, #1	@ tmp726, inp_5->nbytes,
	str	r2, [r4, #8]	@ tmp726, inp_5->nbytes
	add	r2, r3, #1	@ tmp728, _272,
	str	r2, [r4, #24]	@ tmp728, inp_5->d.start
	ldrb	fp, [r1, r3]	@ zero_extendqisi2	@ iftmp.29_275, *_280
.L70:
.LVL118:
	.loc 1 1263 3 is_stmt 1 view .LVU370
@ src/parse-packet.c:1266:   else if (version == 5)
	.loc 1 1266 11 is_stmt 0 view .LVU371
	sub	r3, fp, #4	@ tmp729, iftmp.29_275,
@ src/parse-packet.c:1263:   pktlen--;
	.loc 1 1263 9 view .LVU372
	sub	r7, r5, #1	@ pktlen, pktlen,
.LVL119:
	.loc 1 1264 3 is_stmt 1 view .LVU373
	.loc 1 1266 8 view .LVU374
@ src/parse-packet.c:1266:   else if (version == 5)
	.loc 1 1266 11 is_stmt 0 view .LVU375
	cmp	r3, #1	@ tmp729,
	bhi	.L282		@,
	.loc 1 1276 3 is_stmt 1 view .LVU376
@ src/parse-packet.c:1276:   if (pktlen > 200)
	.loc 1 1276 6 is_stmt 0 view .LVU377
	cmp	r7, #200	@ pktlen,
	bhi	.L283		@,
	.loc 1 1284 3 is_stmt 1 view .LVU378
@ src/parse-packet.c:1284:   cipher_algo = iobuf_get_noeof(inp);
	.loc 1 1284 17 is_stmt 0 view .LVU379
	ldr	r10, [r4, #16]	@ aead_algo, inp_5->nofast
	cmp	r10, #0	@ aead_algo,
	bne	.L74		@,
	ldr	r2, [r4, #28]	@ pretmp_942, inp_5->d.len
	ldr	r1, [r4, #24]	@ _290, inp_5->d.start
	mov	r3, r2	@ pretmp_958, pretmp_942
	cmp	r1, r2	@ _290, pretmp_942
	bcs	.L74		@,
	ldr	r0, [r4, #8]	@ inp_5->nbytes, inp_5->nbytes
@ src/parse-packet.c:1286:   if (version == 5)
	.loc 1 1286 6 view .LVU380
	cmp	fp, #5	@ iftmp.29_275,
@ src/parse-packet.c:1284:   cipher_algo = iobuf_get_noeof(inp);
	.loc 1 1284 17 view .LVU381
	ldr	ip, [r4, #32]	@ _296, inp_5->d.buf
@ src/parse-packet.c:1285:   pktlen--;
	.loc 1 1285 9 view .LVU382
	subne	r8, r5, #2	@ pktlen, pktlen,
@ src/parse-packet.c:1284:   cipher_algo = iobuf_get_noeof(inp);
	.loc 1 1284 17 view .LVU383
	add	r0, r0, #1	@ tmp734, inp_5->nbytes,
	str	r0, [r4, #8]	@ tmp734, inp_5->nbytes
	add	r0, r1, #1	@ prephitmp_185, _290,
	str	r0, [r4, #24]	@ prephitmp_185, inp_5->d.start
	ldrb	r1, [ip, r1]	@ zero_extendqisi2	@ iftmp.34_936, *_298
	str	r1, [sp, #16]	@ iftmp.34_936, %sfp
.LVL120:
	.loc 1 1285 3 is_stmt 1 view .LVU384
	.loc 1 1286 3 view .LVU385
@ src/parse-packet.c:1286:   if (version == 5)
	.loc 1 1286 6 is_stmt 0 view .LVU386
	beq	.L78		@,
.LVL121:
.L79:
@ src/parse-packet.c:1295:   s2kmode = iobuf_get_noeof(inp);
	.loc 1 1295 13 view .LVU387
	ldr	r1, [r4, #24]	@ pretmp_735, inp_5->d.start
	mov	r3, r2	@ pretmp_958, pretmp_942
.LVL122:
.L85:
	.loc 1 1295 13 view .LVU388
	cmp	r1, r3	@ pretmp_735, pretmp_958
	bcs	.L86		@,
	.loc 1 1295 13 view .LVU389
	ldr	r2, [r4, #8]	@ inp_5->nbytes, inp_5->nbytes
	ldr	r0, [r4, #32]	@ _323, inp_5->d.buf
	add	r2, r2, #1	@ tmp740, inp_5->nbytes,
	str	r2, [r4, #8]	@ tmp740, inp_5->nbytes
	add	r2, r1, #1	@ _324, pretmp_735,
	str	r2, [r4, #24]	@ _324, inp_5->d.start
	ldrb	r7, [r0, r1]	@ zero_extendqisi2	@ iftmp.36_157, *_325
.LVL123:
	.loc 1 1296 3 is_stmt 1 view .LVU390
	.loc 1 1297 3 view .LVU391
.L89:
@ src/parse-packet.c:1297:   hash_algo = iobuf_get_noeof(inp);
	.loc 1 1297 15 is_stmt 0 view .LVU392
	cmp	r3, r2	@ pretmp_958, _324
	bls	.L88		@,
	.loc 1 1297 15 view .LVU393
	ldr	r3, [r4, #8]	@ inp_5->nbytes, inp_5->nbytes
	ldr	r1, [r4, #32]	@ _335, inp_5->d.buf
	add	r3, r3, #1	@ tmp742, inp_5->nbytes,
	str	r3, [r4, #8]	@ tmp742, inp_5->nbytes
	add	r3, r2, #1	@ tmp744, _324,
	str	r3, [r4, #24]	@ tmp744, inp_5->d.start
	ldrb	r3, [r1, r2]	@ zero_extendqisi2	@ iftmp.37_332, *_337
	str	r3, [sp, #24]	@ iftmp.37_332, %sfp
.LVL124:
.L91:
	.loc 1 1298 3 is_stmt 1 view .LVU394
@ src/parse-packet.c:1299:   switch (s2kmode)
	.loc 1 1299 3 is_stmt 0 view .LVU395
	cmp	r7, #1	@ iftmp.36_157,
@ src/parse-packet.c:1298:   pktlen--;
	.loc 1 1298 9 view .LVU396
	sub	r5, r8, #2	@ pktlen, pktlen,
.LVL125:
	.loc 1 1299 3 is_stmt 1 view .LVU397
	beq	.L195		@,
	.loc 1 1299 3 is_stmt 0 view .LVU398
	cmp	r7, #3	@ iftmp.36_157,
	beq	.L196		@,
	cmp	r7, #0	@ iftmp.36_157,
	beq	.L93		@,
	.loc 1 1311 5 is_stmt 1 view .LVU399
	ldr	r0, .L292+132	@,
	mov	r1, r7	@, iftmp.36_157
.LPIC24:
	add	r0, pc, r0	@,
	bl	tfp_printf(PLT)	@
.LVL126:
	.loc 1 1312 5 view .LVU400
	.loc 1 1314 5 view .LVU401
.L94:
	.loc 1 1390 3 view .LVU402
	mov	r1, r5	@, pktlen
	mov	r0, r4	@, inp
	mov	r2, #0	@,
	bl	iobuf_skip_rest(PLT)	@
.LVL127:
	.loc 1 1391 3 view .LVU403
	.loc 1 1391 3 is_stmt 0 view .LVU404
.LBE112:
.LBE111:
	.loc 1 928 7 is_stmt 1 view .LVU405
	.loc 1 987 3 view .LVU406
	mov	r1, r6	@, ctx
	mov	r0, #0	@,
	bl	free_packet(PLT)	@
.LVL128:
	.loc 1 988 3 view .LVU407
.L184:
	.loc 1 1006 1 view .LVU408
	ldr	r0, .L292+136	@,
	mov	r1, r9	@, hdrlen
.LPIC55:
	add	r0, pc, r0	@,
	bl	tfp_printf(PLT)	@
.LVL129:
	.loc 1 1007 1 view .LVU409
	mov	r1, r9	@, hdrlen
	add	r0, sp, #44	@,,
	bl	log_hexdump(PLT)	@
.LVL130:
	.loc 1 1010 3 view .LVU410
	b	.L266		@
.LVL131:
.L60:
	.loc 1 969 7 view .LVU411
.LBB122:
.LBI122:
	.loc 1 3520 1 view .LVU412
.LBB123:
	.loc 1 3523 3 view .LVU413
	.loc 1 3524 3 view .LVU414
	.loc 1 3525 3 view .LVU415
	.loc 1 3527 3 view .LVU416
	.loc 1 3529 3 view .LVU417
@ src/parse-packet.c:3529:   mdc = pkt->pkt.mdc = xmalloc(sizeof *pkt->pkt.mdc);
	.loc 1 3529 24 is_stmt 0 view .LVU418
	mov	r0, #20	@,
	bl	xmalloc(PLT)	@
.LVL132:
@ src/parse-packet.c:3532:   if (!new_ctb || pktlen != 20)
	.loc 1 3532 26 view .LVU419
	subs	r5, r5, #20	@ tmp970, pktlen,
.LVL133:
@ src/parse-packet.c:3532:   if (!new_ctb || pktlen != 20)
	.loc 1 3532 6 view .LVU420
	ldr	r3, [sp, #16]	@ _24, %sfp
@ src/parse-packet.c:3532:   if (!new_ctb || pktlen != 20)
	.loc 1 3532 26 view .LVU421
	movne	r5, #1	@ tmp970,
.LVL134:
@ src/parse-packet.c:3532:   if (!new_ctb || pktlen != 20)
	.loc 1 3532 6 view .LVU422
	cmp	r3, #0	@ _24,
	orreq	r5, r5, #1	@,, tmp973, tmp970
@ src/parse-packet.c:3529:   mdc = pkt->pkt.mdc = xmalloc(sizeof *pkt->pkt.mdc);
	.loc 1 3529 22 view .LVU423
	ldr	r3, [sp, #12]	@ pkt, %sfp
@ src/parse-packet.c:3532:   if (!new_ctb || pktlen != 20)
	.loc 1 3532 6 view .LVU424
	cmp	r5, #0	@ tmp973,
	addeq	r7, r0, #20	@ _78, p,
.LVL135:
@ src/parse-packet.c:3529:   mdc = pkt->pkt.mdc = xmalloc(sizeof *pkt->pkt.mdc);
	.loc 1 3529 24 view .LVU425
	mov	r5, r0	@ _641, tmp1107
@ src/parse-packet.c:3529:   mdc = pkt->pkt.mdc = xmalloc(sizeof *pkt->pkt.mdc);
	.loc 1 3529 22 view .LVU426
	str	r0, [r3, #4]	@ _641, pkt_152(D)->pkt.mdc
.LVL136:
	.loc 1 3530 3 is_stmt 1 view .LVU427
	.loc 1 3532 3 view .LVU428
@ src/parse-packet.c:3532:   if (!new_ctb || pktlen != 20)
	.loc 1 3532 6 is_stmt 0 view .LVU429
	beq	.L168		@,
	b	.L284		@
.LVL137:
.L166:
@ src/parse-packet.c:3540:     *p = iobuf_get_noeof(inp);
	.loc 1 3540 10 view .LVU430
	str	r2, [r4, #24]	@ tmp983, inp_5->d.start
	ldr	r2, [r4, #8]	@ inp_5->nbytes, inp_5->nbytes
	ldr	r1, [r4, #32]	@ _655, inp_5->d.buf
	add	r2, r2, #1	@ tmp981, inp_5->nbytes,
	str	r2, [r4, #8]	@ tmp981, inp_5->nbytes
@ src/parse-packet.c:3540:     *p = iobuf_get_noeof(inp);
	.loc 1 3540 8 view .LVU431
	ldrb	r0, [r1, r3]	@ zero_extendqisi2	@ iftmp.87_652, *_657
.LVL138:
.L167:
	.loc 1 3540 8 view .LVU432
	strb	r0, [r5], #1	@ iftmp.87_652, MEM[base: p_1139, offset: 0B]
.LVL139:
	.loc 1 3539 18 is_stmt 1 view .LVU433
	.loc 1 3539 10 view .LVU434
@ src/parse-packet.c:3539:   for (; pktlen; pktlen--, p++)
	.loc 1 3539 3 is_stmt 0 view .LVU435
	cmp	r7, r5	@ _78, p
	beq	.L169		@,
.LVL140:
.L168:
	.loc 1 3540 5 is_stmt 1 view .LVU436
@ src/parse-packet.c:3540:     *p = iobuf_get_noeof(inp);
	.loc 1 3540 8 is_stmt 0 view .LVU437
	ldr	r3, [r4, #16]	@ inp_5->nofast, inp_5->nofast
@ src/parse-packet.c:3540:     *p = iobuf_get_noeof(inp);
	.loc 1 3540 10 view .LVU438
	mov	r0, r4	@, inp
@ src/parse-packet.c:3540:     *p = iobuf_get_noeof(inp);
	.loc 1 3540 8 view .LVU439
	cmp	r3, #0	@ inp_5->nofast,
	bne	.L165		@,
.LVL141:
@ src/parse-packet.c:3540:     *p = iobuf_get_noeof(inp);
	.loc 1 3540 10 view .LVU440
	ldr	r3, [r4, #24]	@ _649, inp_5->d.start
	ldr	r2, [r4, #28]	@ inp_5->d.len, inp_5->d.len
	cmp	r3, r2	@ _649, inp_5->d.len
	add	r2, r3, #1	@ tmp983, _649,
	bcc	.L166		@,
.L165:
	bl	iobuf_readbyte(PLT)	@
.LVL142:
@ src/parse-packet.c:3540:     *p = iobuf_get_noeof(inp);
	.loc 1 3540 8 view .LVU441
	uxtb	r0, r0	@ iftmp.87_652, tmp1108
	b	.L167		@
.LVL143:
.L63:
	.loc 1 3540 8 view .LVU442
.LBE123:
.LBE122:
	.loc 1 959 7 is_stmt 1 view .LVU443
.LBB126:
.LBI126:
	.loc 1 3307 1 view .LVU444
.LBB127:
	.loc 1 3310 3 view .LVU445
	.loc 1 3311 3 view .LVU446
	.loc 1 3312 3 view .LVU447
	.loc 1 3313 3 view .LVU448
	.loc 1 3314 3 view .LVU449
	.loc 1 3316 3 view .LVU450
@ src/parse-packet.c:3316:   if (!partial && pktlen < 6)
	.loc 1 3316 7 is_stmt 0 view .LVU451
	eor	r2, r10, #1	@ tmp820, partial,
@ src/parse-packet.c:3316:   if (!partial && pktlen < 6)
	.loc 1 3316 6 view .LVU452
	cmp	r5, #5	@ pktlen,
	movhi	r2, #0	@, tmp826
	andls	r2, r2, #1	@,, tmp826, tmp820
	cmp	r2, #0	@ tmp826,
	bne	.L285		@,
	.loc 1 3324 3 is_stmt 1 view .LVU453
@ src/parse-packet.c:3324:   mode = iobuf_get_noeof(inp);
	.loc 1 3324 10 is_stmt 0 view .LVU454
	ldr	r2, [r4, #16]	@ inp_5->nofast, inp_5->nofast
	cmp	r2, #0	@ inp_5->nofast,
	bne	.L114		@,
	ldr	r0, [r4, #24]	@ _443, inp_5->d.start
	ldr	r2, [r4, #28]	@ pretmp_942, inp_5->d.len
	cmp	r0, r2	@ _443, pretmp_942
	bcs	.L114		@,
	ldr	r1, [r4, #8]	@ inp_5->nbytes, inp_5->nbytes
@ src/parse-packet.c:3325:   if (pktlen)
	.loc 1 3325 6 view .LVU455
	cmp	r5, #0	@ pktlen,
@ src/parse-packet.c:3324:   mode = iobuf_get_noeof(inp);
	.loc 1 3324 10 view .LVU456
	ldr	ip, [r4, #32]	@ _449, inp_5->d.buf
@ src/parse-packet.c:3326:     pktlen--;
	.loc 1 3326 11 view .LVU457
	subne	r5, r5, #1	@ pktlen, pktlen,
.LVL144:
@ src/parse-packet.c:3324:   mode = iobuf_get_noeof(inp);
	.loc 1 3324 10 view .LVU458
	add	r1, r1, #1	@ tmp833, inp_5->nbytes,
	str	r1, [r4, #8]	@ tmp833, inp_5->nbytes
	add	r1, r0, #1	@ prephitmp_432, _443,
	str	r1, [r4, #24]	@ prephitmp_432, inp_5->d.start
	ldrb	r8, [ip, r0]	@ zero_extendqisi2	@ iftmp.52_446, *_451
.LVL145:
	.loc 1 3325 3 is_stmt 1 view .LVU459
@ src/parse-packet.c:3325:   if (pktlen)
	.loc 1 3325 6 is_stmt 0 view .LVU460
	beq	.L118		@,
.L119:
@ src/parse-packet.c:3327:   namelen = iobuf_get_noeof(inp);
	.loc 1 3327 13 view .LVU461
	ldr	r1, [r4, #24]	@ prephitmp_432, inp_5->d.start
.L118:
.LVL146:
	.loc 1 3327 13 view .LVU462
	cmp	r1, r2	@ prephitmp_432, pretmp_942
	bcs	.L120		@,
	ldr	r2, [r4, #8]	@ inp_5->nbytes, inp_5->nbytes
	ldr	r0, [r4, #32]	@ _462, inp_5->d.buf
	add	r2, r2, #1	@ tmp835, inp_5->nbytes,
	str	r2, [r4, #8]	@ tmp835, inp_5->nbytes
	add	r2, r1, #1	@ tmp837, prephitmp_432,
	str	r2, [r4, #24]	@ tmp837, inp_5->d.start
	ldrb	r7, [r0, r1]	@ zero_extendqisi2	@ iftmp.53_459, *_464
.LVL147:
.L122:
	.loc 1 3328 3 is_stmt 1 view .LVU463
	str	r3, [sp, #16]	@ _25, %sfp
@ src/parse-packet.c:3328:   if (pktlen)
	.loc 1 3328 6 is_stmt 0 view .LVU464
	cmp	r5, #0	@ pktlen,
	beq	.L123		@,
	.loc 1 3329 5 is_stmt 1 view .LVU465
@ src/parse-packet.c:3332:       xmalloc(sizeof *pkt->pkt.plaintext + namelen - 1);
	.loc 1 3332 7 is_stmt 0 view .LVU466
	add	r0, r7, #27	@, iftmp.53_459,
@ src/parse-packet.c:3329:     pktlen--;
	.loc 1 3329 11 view .LVU467
	sub	r5, r5, #1	@ pktlen, pktlen,
.LVL148:
	.loc 1 3331 3 is_stmt 1 view .LVU468
@ src/parse-packet.c:3332:       xmalloc(sizeof *pkt->pkt.plaintext + namelen - 1);
	.loc 1 3332 7 is_stmt 0 view .LVU469
	bl	xmalloc(PLT)	@
.LVL149:
@ src/parse-packet.c:3331:   pt = pkt->pkt.plaintext =
	.loc 1 3331 27 view .LVU470
	ldr	r3, [sp, #12]	@ pkt, %sfp
@ src/parse-packet.c:3337:   if (pktlen)
	.loc 1 3337 6 view .LVU471
	cmp	r5, #0	@ pktlen,
@ src/parse-packet.c:3332:       xmalloc(sizeof *pkt->pkt.plaintext + namelen - 1);
	.loc 1 3332 7 view .LVU472
	mov	fp, r0	@ _1135, tmp1098
@ src/parse-packet.c:3331:   pt = pkt->pkt.plaintext =
	.loc 1 3331 27 view .LVU473
	str	r0, [r3, #4]	@ _1135, pkt_152(D)->pkt.plaintext
.LVL150:
	.loc 1 3333 3 is_stmt 1 view .LVU474
@ src/parse-packet.c:3333:   pt->new_ctb = new_ctb;
	.loc 1 3333 15 is_stmt 0 view .LVU475
	ldr	r3, [sp, #16]	@ _25, %sfp
@ src/parse-packet.c:3334:   pt->mode = mode;
	.loc 1 3334 12 view .LVU476
	str	r8, [r0, #12]	@ iftmp.52_446, MEM[(struct PKT_plaintext *)_472].mode
@ src/parse-packet.c:3333:   pt->new_ctb = new_ctb;
	.loc 1 3333 15 view .LVU477
	strb	r3, [r0, #8]	@ _25, MEM[(struct PKT_plaintext *)_472].new_ctb
	.loc 1 3334 3 is_stmt 1 view .LVU478
	.loc 1 3335 3 view .LVU479
@ src/parse-packet.c:3336:   pt->is_partial = partial;
	.loc 1 3336 18 is_stmt 0 view .LVU480
	strb	r10, [r0, #9]	@ partial, MEM[(struct PKT_plaintext *)_472].is_partial
@ src/parse-packet.c:3335:   pt->namelen = namelen;
	.loc 1 3335 15 view .LVU481
	str	r7, [r0, #20]	@ iftmp.53_459, MEM[(struct PKT_plaintext *)_472].namelen
	.loc 1 3336 3 is_stmt 1 view .LVU482
	.loc 1 3337 3 view .LVU483
@ src/parse-packet.c:3337:   if (pktlen)
	.loc 1 3337 6 is_stmt 0 view .LVU484
	beq	.L124		@,
.LVL151:
	.loc 1 3339 17 is_stmt 1 view .LVU485
@ src/parse-packet.c:3339:     for (i = 0; pktlen > 4 && i < namelen; pktlen--, i++)
	.loc 1 3339 5 is_stmt 0 view .LVU486
	cmp	r7, #0	@ iftmp.53_459,
	cmpne	r5, #4	@, pktlen,
@ src/parse-packet.c:3340:       pt->name[i] = iobuf_get_noeof(inp);
	.loc 1 3340 21 view .LVU487
	ldr	r2, [r4, #16]	@ prephitmp_286, inp_5->nofast
@ src/parse-packet.c:3339:     for (i = 0; pktlen > 4 && i < namelen; pktlen--, i++)
	.loc 1 3339 5 view .LVU488
	movhi	r3, #1	@ tmp847,
	movls	r3, #0	@ tmp847,
	bls	.L125		@,
	add	r8, r0, #23	@ ivtmp.167, _1135,
.LVL152:
@ src/parse-packet.c:3339:     for (i = 0; pktlen > 4 && i < namelen; pktlen--, i++)
	.loc 1 3339 12 view .LVU489
	mov	r10, #0	@ i,
.LVL153:
	.loc 1 3339 12 view .LVU490
	b	.L129		@
.LVL154:
.L127:
@ src/parse-packet.c:3340:       pt->name[i] = iobuf_get_noeof(inp);
	.loc 1 3340 21 view .LVU491
	str	r1, [r4, #24]	@ tmp851, inp_5->d.start
	ldr	r1, [r4, #8]	@ inp_5->nbytes, inp_5->nbytes
	ldr	r0, [r4, #32]	@ _484, inp_5->d.buf
.LVL155:
	.loc 1 3340 21 view .LVU492
	add	r1, r1, #1	@ tmp849, inp_5->nbytes,
	str	r1, [r4, #8]	@ tmp849, inp_5->nbytes
@ src/parse-packet.c:3340:       pt->name[i] = iobuf_get_noeof(inp);
	.loc 1 3340 19 view .LVU493
	ldrb	r0, [r0, r3]	@ zero_extendqisi2	@ iftmp.55_481, *_486
.L128:
	.loc 1 3340 19 view .LVU494
	strb	r0, [r8, #1]!	@ iftmp.55_481, MEM[base: _1048, offset: 0B]
	.loc 1 3339 44 is_stmt 1 view .LVU495
@ src/parse-packet.c:3339:     for (i = 0; pktlen > 4 && i < namelen; pktlen--, i++)
	.loc 1 3339 50 is_stmt 0 view .LVU496
	sub	r5, r5, #1	@ pktlen, pktlen,
.LVL156:
@ src/parse-packet.c:3339:     for (i = 0; pktlen > 4 && i < namelen; pktlen--, i++)
	.loc 1 3339 5 view .LVU497
	cmp	r5, #4	@ pktlen,
@ src/parse-packet.c:3339:     for (i = 0; pktlen > 4 && i < namelen; pktlen--, i++)
	.loc 1 3339 55 view .LVU498
	add	r10, r10, #1	@ i, i,
.LVL157:
	.loc 1 3339 17 is_stmt 1 view .LVU499
@ src/parse-packet.c:3339:     for (i = 0; pktlen > 4 && i < namelen; pktlen--, i++)
	.loc 1 3339 5 is_stmt 0 view .LVU500
	movls	r3, #0	@ tmp859,
	movhi	r3, #1	@ tmp859,
	cmp	r7, r10	@ iftmp.53_459, i
	movle	r3, #0	@ tmp859,
	cmp	r3, #0	@ tmp859,
	beq	.L130		@,
.LVL158:
.L129:
	.loc 1 3340 7 is_stmt 1 view .LVU501
@ src/parse-packet.c:3340:       pt->name[i] = iobuf_get_noeof(inp);
	.loc 1 3340 19 is_stmt 0 view .LVU502
	cmp	r2, #0	@ prephitmp_286,
@ src/parse-packet.c:3340:       pt->name[i] = iobuf_get_noeof(inp);
	.loc 1 3340 21 view .LVU503
	mov	r0, r4	@, inp
@ src/parse-packet.c:3340:       pt->name[i] = iobuf_get_noeof(inp);
	.loc 1 3340 19 view .LVU504
	bne	.L126		@,
.LVL159:
@ src/parse-packet.c:3340:       pt->name[i] = iobuf_get_noeof(inp);
	.loc 1 3340 21 view .LVU505
	ldr	r3, [r4, #24]	@ _478, inp_5->d.start
	ldr	r1, [r4, #28]	@ inp_5->d.len, inp_5->d.len
	cmp	r3, r1	@ _478, inp_5->d.len
	add	r1, r3, #1	@ tmp851, _478,
	bcc	.L127		@,
.L126:
	bl	iobuf_readbyte(PLT)	@
.LVL160:
.LBB128:
.LBB129:
@ src/parse-packet.c:107:   a = (unsigned long)iobuf_get_noeof(inp) << 24;
	.loc 1 107 22 view .LVU506
	ldr	r2, [r4, #16]	@ prephitmp_286, inp_5->nofast
.LBE129:
.LBE128:
@ src/parse-packet.c:3340:       pt->name[i] = iobuf_get_noeof(inp);
	.loc 1 3340 19 view .LVU507
	uxtb	r0, r0	@ iftmp.55_481, tmp1099
	b	.L128		@
.LVL161:
.L64:
	.loc 1 3340 19 view .LVU508
.LBE127:
.LBE126:
	.loc 1 978 7 is_stmt 1 view .LVU509
.LBB146:
.LBI146:
	.loc 1 1211 1 view .LVU510
.LBB147:
	.loc 1 1213 3 view .LVU511
	.loc 1 1215 3 view .LVU512
@ src/parse-packet.c:1215:   if (pktlen != 3)
	.loc 1 1215 6 is_stmt 0 view .LVU513
	cmp	r5, #3	@ pktlen,
	bne	.L170		@,
	.loc 1 1218 3 is_stmt 1 view .LVU514
@ src/parse-packet.c:1218:   if (iobuf_get(inp) != 'P')
	.loc 1 1218 22 is_stmt 0 view .LVU515
	ldr	r3, [r4, #16]	@ inp_5->nofast, inp_5->nofast
	cmp	r3, #0	@ inp_5->nofast,
	bne	.L171		@,
@ src/parse-packet.c:1218:   if (iobuf_get(inp) != 'P')
	.loc 1 1218 7 view .LVU516
	ldr	r3, [r4, #24]	@ _666, inp_5->d.start
	ldr	r2, [r4, #28]	@ inp_5->d.len, inp_5->d.len
	cmp	r3, r2	@ _666, inp_5->d.len
	bcs	.L171		@,
	ldr	r2, [r4, #8]	@ inp_5->nbytes, inp_5->nbytes
	ldr	r1, [r4, #32]	@ _672, inp_5->d.buf
	add	r2, r2, #1	@ tmp989, inp_5->nbytes,
	str	r2, [r4, #8]	@ tmp989, inp_5->nbytes
	add	r2, r3, #1	@ tmp991, _666,
	str	r2, [r4, #24]	@ tmp991, inp_5->d.start
@ src/parse-packet.c:1218:   if (iobuf_get(inp) != 'P')
	.loc 1 1218 22 view .LVU517
	ldrb	r3, [r1, r3]	@ zero_extendqisi2	@ *_674, *_674
	subs	r3, r3, #80	@ iftmp.88_669, *_674,
	movne	r3, #1	@ iftmp.88_669,
.L173:
@ src/parse-packet.c:1218:   if (iobuf_get(inp) != 'P')
	.loc 1 1218 6 view .LVU518
	cmp	r3, #0	@ iftmp.88_669,
	bne	.L176		@,
	.loc 1 1224 3 is_stmt 1 view .LVU519
@ src/parse-packet.c:1224:   if (iobuf_get(inp) != 'G')
	.loc 1 1224 22 is_stmt 0 view .LVU520
	ldr	r3, [r4, #16]	@ inp_5->nofast, inp_5->nofast
	cmp	r3, #0	@ inp_5->nofast,
	bne	.L174		@,
@ src/parse-packet.c:1224:   if (iobuf_get(inp) != 'G')
	.loc 1 1224 7 view .LVU521
	ldr	r3, [r4, #24]	@ _679, inp_5->d.start
	ldr	r2, [r4, #28]	@ inp_5->d.len, inp_5->d.len
	cmp	r3, r2	@ _679, inp_5->d.len
	bcs	.L174		@,
	ldr	r2, [r4, #8]	@ inp_5->nbytes, inp_5->nbytes
	ldr	r1, [r4, #32]	@ _685, inp_5->d.buf
	add	r2, r2, #1	@ tmp997, inp_5->nbytes,
	str	r2, [r4, #8]	@ tmp997, inp_5->nbytes
	add	r2, r3, #1	@ tmp999, _679,
	str	r2, [r4, #24]	@ tmp999, inp_5->d.start
@ src/parse-packet.c:1224:   if (iobuf_get(inp) != 'G')
	.loc 1 1224 6 view .LVU522
	ldrb	r3, [r1, r3]	@ zero_extendqisi2	@ *_687, *_687
	cmp	r3, #71	@ *_687,
	bne	.L176		@,
.L258:
@ src/parse-packet.c:1230:   if (iobuf_get(inp) != 'P')
	.loc 1 1230 7 view .LVU523
	ldr	r3, [r4, #24]	@ _692, inp_5->d.start
	ldr	r2, [r4, #28]	@ inp_5->d.len, inp_5->d.len
	cmp	r3, r2	@ _692, inp_5->d.len
	bcs	.L178		@,
	ldr	r2, [r4, #8]	@ inp_5->nbytes, inp_5->nbytes
	ldr	r1, [r4, #32]	@ _698, inp_5->d.buf
	add	r2, r2, #1	@ tmp1005, inp_5->nbytes,
	str	r2, [r4, #8]	@ tmp1005, inp_5->nbytes
	add	r2, r3, #1	@ tmp1007, _692,
	str	r2, [r4, #24]	@ tmp1007, inp_5->d.start
@ src/parse-packet.c:1230:   if (iobuf_get(inp) != 'P')
	.loc 1 1230 22 view .LVU524
	ldrb	r3, [r1, r3]	@ zero_extendqisi2	@ *_700, *_700
	subs	r3, r3, #80	@ iftmp.90_695, *_700,
	movne	r3, #1	@ iftmp.90_695,
.L180:
@ src/parse-packet.c:1230:   if (iobuf_get(inp) != 'P')
	.loc 1 1230 6 view .LVU525
	cmp	r3, #0	@ iftmp.90_695,
	bne	.L176		@,
.LVL162:
.L169:
	.loc 1 1230 6 view .LVU526
.LBE147:
.LBE146:
	.loc 1 987 3 is_stmt 1 view .LVU527
	mov	r1, r6	@, ctx
	mov	r0, #0	@,
	bl	free_packet(PLT)	@
.LVL163:
	.loc 1 988 3 view .LVU528
.L163:
@ src/parse-packet.c:992:               || pkttype == PKT_SIGNATURE))
	.loc 1 992 15 is_stmt 0 view .LVU529
	cmp	r8, #2	@ pkttype,
	cmpne	r8, #17	@, pkttype,
	beq	.L183		@,
	b	.L184		@
.LVL164:
.L176:
.LBB151:
.LBB148:
@ src/parse-packet.c:1232:     pktlen--;
	.loc 1 1232 11 view .LVU530
	mov	r5, #2	@ pktlen,
.LVL165:
.L170:
	.loc 1 1242 3 is_stmt 1 view .LVU531
	ldr	r0, .L292+140	@,
.LPIC53:
	add	r0, pc, r0	@,
	bl	tfp_printf(PLT)	@
.LVL166:
	.loc 1 1243 3 view .LVU532
	.loc 1 1245 3 view .LVU533
	mov	r2, #0	@,
	mov	r0, r4	@, inp
	mov	r1, r5	@, pktlen
	bl	iobuf_skip_rest(PLT)	@
.LVL167:
	.loc 1 1246 3 view .LVU534
	.loc 1 1246 3 is_stmt 0 view .LVU535
.LBE148:
.LBE151:
	.loc 1 987 3 is_stmt 1 view .LVU536
	mov	r1, r6	@, ctx
	mov	r0, #0	@,
	bl	free_packet(PLT)	@
.LVL168:
	.loc 1 988 3 view .LVU537
	.loc 1 1006 1 view .LVU538
	ldr	r0, .L292+144	@,
	mov	r1, r9	@, hdrlen
.LPIC54:
	add	r0, pc, r0	@,
.LVL169:
.L268:
	.loc 1 1006 1 is_stmt 0 view .LVU539
	bl	tfp_printf(PLT)	@
.LVL170:
	.loc 1 1007 1 is_stmt 1 view .LVU540
	mov	r1, r9	@, hdrlen
	add	r0, sp, #44	@,,
	bl	log_hexdump(PLT)	@
.LVL171:
	.loc 1 1010 3 view .LVU541
@ src/parse-packet.c:1007: log_hexdump(hdr, hdrlen);
	.loc 1 1007 1 is_stmt 0 view .LVU542
	mov	r0, #14	@ <retval>,
	b	.L1		@
.LVL172:
.L25:
.LBB152:
@ src/parse-packet.c:718:               if ((c = iobuf_get (inp)) == -1)
	.loc 1 718 24 view .LVU543
	bl	iobuf_readbyte(PLT)	@
.LVL173:
@ src/parse-packet.c:718:               if ((c = iobuf_get (inp)) == -1)
	.loc 1 718 18 view .LVU544
	cmn	r0, #1	@ iftmp.10_64,
@ src/parse-packet.c:724:               value[i] = hdr[hdrlen++] = c;
	.loc 1 724 40 view .LVU545
	uxtb	r3, r0	@ _937, iftmp.10_64
@ src/parse-packet.c:718:               if ((c = iobuf_get (inp)) == -1)
	.loc 1 718 18 view .LVU546
	bne	.L29		@,
	.loc 1 720 19 is_stmt 1 view .LVU547
	ldr	r1, .L292+148	@,
	ldr	r0, .L292+152	@,
.LVL174:
	.loc 1 720 19 is_stmt 0 view .LVU548
.LPIC7:
	add	r1, pc, r1	@,
.LPIC8:
	add	r0, pc, r0	@,
	bl	tfp_printf(PLT)	@
.LVL175:
	.loc 1 721 19 is_stmt 1 view .LVU549
	.loc 1 721 19 is_stmt 0 view .LVU550
.LBE152:
	.loc 2 966 3 is_stmt 1 view .LVU551
	.loc 2 951 3 view .LVU552
.LBB153:
	.loc 1 722 19 view .LVU553
	.loc 1 722 19 is_stmt 0 view .LVU554
.LBE153:
	.loc 1 1010 3 is_stmt 1 view .LVU555
	.loc 1 1016 3 view .LVU556
.LBB154:
@ src/parse-packet.c:722:                   goto leave;
	.loc 1 722 19 is_stmt 0 view .LVU557
	mov	r0, #14	@ <retval>,
	b	.L1		@
.LVL176:
.L276:
	.loc 1 722 19 view .LVU558
.LBE154:
	.loc 1 837 2 is_stmt 1 view .LVU559
.LBB155:
.LBI155:
	.loc 1 1053 1 view .LVU560
.LBB156:
	.loc 1 1056 3 view .LVU561
	.loc 1 1057 3 view .LVU562
	.loc 1 1058 3 view .LVU563
	.loc 1 1060 3 view .LVU564
	.loc 1 1066 8 view .LVU565
@ src/parse-packet.c:1066:   else if (!pktlen && pkttype == PKT_COMPRESSED)
	.loc 1 1066 11 is_stmt 0 view .LVU566
	cmp	r5, #0	@ pktlen,
	cmpeq	r8, #8	@, pkttype,
	beq	.L46		@,
	.loc 1 1076 12 is_stmt 1 view .LVU567
@ src/parse-packet.c:1076:     for (; pktlen; pktlen -= n)
	.loc 1 1076 5 is_stmt 0 view .LVU568
	cmp	r5, #0	@ pktlen,
	beq	.L266		@,
	add	r7, sp, #52	@ tmp1067,,
	b	.L47		@
.LVL177:
.L286:
@ src/parse-packet.c:1082:       if ((rc = iobuf_write(out, buf, n)))
	.loc 1 1082 17 view .LVU569
	ldr	r0, [sp, #196]	@, out
.LVL178:
	.loc 1 1082 17 view .LVU570
	bl	iobuf_write(PLT)	@
.LVL179:
	.loc 1 1076 20 is_stmt 1 view .LVU571
	.loc 1 1076 12 view .LVU572
@ src/parse-packet.c:1082:       if ((rc = iobuf_write(out, buf, n)))
	.loc 1 1082 10 is_stmt 0 view .LVU573
	cmp	r0, #0	@ rc
	.loc 1 1082 10 view .LVU574
	bne	.L45		@,
@ src/parse-packet.c:1076:     for (; pktlen; pktlen -= n)
	.loc 1 1076 5 view .LVU575
	subs	r5, r5, r6	@ pktlen, pktlen, n
.LVL180:
	.loc 1 1076 5 view .LVU576
	beq	.L266		@,
.LVL181:
.L47:
	.loc 1 1078 7 is_stmt 1 view .LVU577
	.loc 1 1079 7 view .LVU578
@ src/parse-packet.c:1079:       n = iobuf_read(inp, buf, n);
	.loc 1 1079 11 is_stmt 0 view .LVU579
	cmp	r5, #100	@ pktlen,
	mov	r1, r7	@, tmp1067
	movcc	r2, r5	@, pktlen
	movcs	r2, #100	@,
	mov	r0, r4	@, inp
	bl	iobuf_read(PLT)	@
.LVL182:
	.loc 1 1082 7 is_stmt 1 view .LVU580
@ src/parse-packet.c:1080:       if (n == -1)
	.loc 1 1080 10 is_stmt 0 view .LVU581
	cmn	r0, #1	@ n,
@ src/parse-packet.c:1082:       if ((rc = iobuf_write(out, buf, n)))
	.loc 1 1082 17 view .LVU582
	mov	r1, r7	@, tmp1067
@ src/parse-packet.c:1079:       n = iobuf_read(inp, buf, n);
	.loc 1 1079 11 view .LVU583
	mov	r6, r0	@ n, tmp1085
.LVL183:
	.loc 1 1080 7 is_stmt 1 view .LVU584
@ src/parse-packet.c:1082:       if ((rc = iobuf_write(out, buf, n)))
	.loc 1 1082 17 is_stmt 0 view .LVU585
	mov	r2, r0	@, n
@ src/parse-packet.c:1080:       if (n == -1)
	.loc 1 1080 10 view .LVU586
	bne	.L286		@,
.LVL184:
@ src/parse-packet.c:1081:         return gpg_error(GPG_ERR_EOF);
	.loc 1 1081 16 view .LVU587
	movw	r0, #16383	@ rc,
.LVL185:
	.loc 1 1081 16 view .LVU588
	movt	r0, 512	@ rc,
.LVL186:
	.loc 1 1081 16 view .LVU589
.LBE156:
.LBE155:
	.loc 1 1010 3 is_stmt 1 view .LVU590
	b	.L185		@
.LVL187:
.L133:
.LBB158:
.LBB138:
.LBB134:
.LBB130:
@ src/parse-packet.c:107:   a = (unsigned long)iobuf_get_noeof(inp) << 24;
	.loc 1 107 22 is_stmt 0 view .LVU591
	ldr	r7, [sp, #12]	@ iftmp.53_459, %sfp
	mov	r5, #0	@ pktlen,
	ldr	r2, [r4, #16]	@ prephitmp_286, inp_5->nofast
.LVL188:
.L130:
	.loc 1 107 22 view .LVU592
.LBE130:
.LBE134:
	.loc 1 3353 10 is_stmt 1 view .LVU593
@ src/parse-packet.c:3353:   for (; i < namelen; i++)
	.loc 1 3353 3 is_stmt 0 view .LVU594
	cmp	r7, r10	@ iftmp.53_459, i
	ble	.L136		@,
	add	r3, r10, #24	@ tmp868, i,
	add	r1, r7, #24	@ tmp869, iftmp.53_459,
	add	r3, fp, r3	@ ivtmp.158, _1135, tmp868
@ src/parse-packet.c:3354:     pt->name[i] = 0;
	.loc 1 3354 17 view .LVU595
	mov	r0, #0	@ tmp870,
	add	r1, fp, r1	@ _1089, _1135, tmp869
.LVL189:
.L138:
	.loc 1 3354 5 is_stmt 1 view .LVU596
@ src/parse-packet.c:3354:     pt->name[i] = 0;
	.loc 1 3354 17 is_stmt 0 view .LVU597
	strb	r0, [r3], #1	@ tmp870, MEM[base: _1098, offset: 0B]
	.loc 1 3353 23 is_stmt 1 view .LVU598
	.loc 1 3353 10 view .LVU599
@ src/parse-packet.c:3353:   for (; i < namelen; i++)
	.loc 1 3353 3 is_stmt 0 view .LVU600
	cmp	r1, r3	@ _1089, ivtmp.158
	bne	.L138		@,
.L136:
.LVL190:
	.loc 1 3356 3 is_stmt 1 view .LVU601
.LBB135:
.LBI128:
	.loc 1 104 1 view .LVU602
.LBB131:
	.loc 1 106 3 view .LVU603
	.loc 1 107 3 view .LVU604
@ src/parse-packet.c:107:   a = (unsigned long)iobuf_get_noeof(inp) << 24;
	.loc 1 107 43 is_stmt 0 view .LVU605
	cmp	r2, #0	@ prephitmp_286,
	bne	.L140		@,
@ src/parse-packet.c:107:   a = (unsigned long)iobuf_get_noeof(inp) << 24;
	.loc 1 107 22 view .LVU606
	ldr	r1, [r4, #24]	@ _540, inp_5->d.start
	ldr	r3, [r4, #28]	@ _541, inp_5->d.len
	cmp	r1, r3	@ _540, _541
	bcs	.L140		@,
	ldr	r2, [r4, #8]	@ inp_5->nbytes, inp_5->nbytes
	ldr	r0, [r4, #32]	@ _547, inp_5->d.buf
	add	r2, r2, #1	@ tmp873, inp_5->nbytes,
	str	r2, [r4, #8]	@ tmp873, inp_5->nbytes
	add	r2, r1, #1	@ _548, _540,
	str	r2, [r4, #24]	@ _548, inp_5->d.start
	ldrb	r1, [r0, r1]	@ zero_extendqisi2	@ *_549, *_549
@ src/parse-packet.c:107:   a = (unsigned long)iobuf_get_noeof(inp) << 24;
	.loc 1 107 43 view .LVU607
	lsl	r8, r1, #24	@ iftmp.66_175, *_549,
.LVL191:
	.loc 1 108 3 is_stmt 1 view .LVU608
.L143:
@ src/parse-packet.c:108:   a |= iobuf_get_noeof(inp) << 16;
	.loc 1 108 8 is_stmt 0 view .LVU609
	cmp	r3, r2	@ _541, _548
	bls	.L142		@,
	.loc 1 108 8 view .LVU610
	ldr	r1, [r4, #8]	@ inp_5->nbytes, inp_5->nbytes
	ldr	r0, [r4, #32]	@ _561, inp_5->d.buf
	add	r1, r1, #1	@ tmp879, inp_5->nbytes,
	str	r1, [r4, #8]	@ tmp879, inp_5->nbytes
	add	r1, r2, #1	@ prephitmp_429, _548,
	str	r1, [r4, #24]	@ prephitmp_429, inp_5->d.start
	ldrb	r7, [r0, r2]	@ zero_extendqisi2	@ *_563, *_563
@ src/parse-packet.c:108:   a |= iobuf_get_noeof(inp) << 16;
	.loc 1 108 5 view .LVU611
	orr	r7, r8, r7, lsl #16	@ a, iftmp.66_175, *_563,
.LVL192:
	.loc 1 109 3 is_stmt 1 view .LVU612
.L146:
@ src/parse-packet.c:109:   a |= iobuf_get_noeof(inp) << 8;
	.loc 1 109 8 is_stmt 0 view .LVU613
	cmp	r3, r1	@ _541, prephitmp_429
	bls	.L145		@,
	.loc 1 109 8 view .LVU614
	ldr	r2, [r4, #8]	@ inp_5->nbytes, inp_5->nbytes
	ldr	r0, [r4, #32]	@ _579, inp_5->d.buf
	add	r2, r2, #1	@ tmp887, inp_5->nbytes,
	str	r2, [r4, #8]	@ tmp887, inp_5->nbytes
	add	r2, r1, #1	@ prephitmp_131, prephitmp_429,
	str	r2, [r4, #24]	@ prephitmp_131, inp_5->d.start
	ldrb	r1, [r0, r1]	@ zero_extendqisi2	@ *_581, *_581
@ src/parse-packet.c:109:   a |= iobuf_get_noeof(inp) << 8;
	.loc 1 109 5 view .LVU615
	orr	r7, r7, r1, lsl #8	@ a, a, *_581,
.LVL193:
	.loc 1 110 3 is_stmt 1 view .LVU616
.L149:
@ src/parse-packet.c:110:   a |= iobuf_get_noeof(inp);
	.loc 1 110 8 is_stmt 0 view .LVU617
	cmp	r2, r3	@ prephitmp_131, _541
	bcs	.L148		@,
	.loc 1 110 8 view .LVU618
	ldr	r3, [r4, #8]	@ inp_5->nbytes, inp_5->nbytes
	ldr	r1, [r4, #32]	@ _595, inp_5->d.buf
	add	r3, r3, #1	@ tmp891, inp_5->nbytes,
	str	r3, [r4, #8]	@ tmp891, inp_5->nbytes
	add	r3, r2, #1	@ tmp893, prephitmp_131,
	str	r3, [r4, #24]	@ tmp893, inp_5->d.start
	ldrb	r3, [r1, r2]	@ zero_extendqisi2	@ iftmp.73_592, *_597
.L151:
.LVL194:
	.loc 1 111 3 is_stmt 1 view .LVU619
@ src/parse-packet.c:110:   a |= iobuf_get_noeof(inp);
	.loc 1 110 5 is_stmt 0 view .LVU620
	orr	r3, r3, r7	@ a, iftmp.73_592, a
.LBE131:
.LBE135:
@ src/parse-packet.c:3357:   if (pktlen)
	.loc 1 3357 6 view .LVU621
	cmp	r5, #0	@ pktlen,
@ src/parse-packet.c:3356:   pt->timestamp = read_32(inp);
	.loc 1 3356 17 view .LVU622
	str	r3, [fp, #16]	@ a, MEM[(struct PKT_plaintext *)_1136].timestamp
	.loc 1 3357 3 is_stmt 1 view .LVU623
	.loc 1 3358 5 view .LVU624
@ src/parse-packet.c:3358:     pktlen -= 4;
	.loc 1 3358 12 is_stmt 0 view .LVU625
	subne	r5, r5, #4	@ pktlen, pktlen,
.LVL195:
	.loc 1 3359 3 is_stmt 1 view .LVU626
@ src/parse-packet.c:3359:   pt->len = pktlen;
	.loc 1 3359 11 is_stmt 0 view .LVU627
	str	r5, [fp]	@ pktlen, MEM[(struct PKT_plaintext *)_1136].len
	.loc 1 3360 3 is_stmt 1 view .LVU628
.LBE138:
.LBE158:
@ src/parse-packet.c:987:   free_packet (NULL, ctx);
	.loc 1 987 3 is_stmt 0 view .LVU629
	mov	r1, r6	@, ctx
.LBB159:
.LBB139:
@ src/parse-packet.c:3360:   pt->buf = inp;
	.loc 1 3360 11 view .LVU630
	str	r4, [fp, #4]	@ inp, MEM[(struct PKT_plaintext *)_1136].buf
	.loc 1 3362 3 is_stmt 1 view .LVU631
.LVL196:
	.loc 1 3362 3 is_stmt 0 view .LVU632
.LBE139:
.LBE159:
	.loc 1 987 3 is_stmt 1 view .LVU633
	mov	r0, #0	@,
	bl	free_packet(PLT)	@
.LVL197:
	.loc 1 988 3 view .LVU634
	b	.L184		@
.LVL198:
.L114:
	.loc 1 988 3 is_stmt 0 view .LVU635
	str	r3, [sp, #16]	@ _25, %sfp
.LBB160:
.LBB140:
@ src/parse-packet.c:3324:   mode = iobuf_get_noeof(inp);
	.loc 1 3324 10 view .LVU636
	mov	r0, r4	@, inp
	bl	iobuf_readbyte(PLT)	@
.LVL199:
@ src/parse-packet.c:3327:   namelen = iobuf_get_noeof(inp);
	.loc 1 3327 13 view .LVU637
	ldr	r2, [r4, #16]	@ pretmp_719, inp_5->nofast
@ src/parse-packet.c:3325:   if (pktlen)
	.loc 1 3325 6 view .LVU638
	cmp	r5, #0	@ pktlen,
	ldr	r3, [sp, #16]	@ _25, %sfp
@ src/parse-packet.c:3326:     pktlen--;
	.loc 1 3326 11 view .LVU639
	subne	r5, r5, #1	@ pktlen, pktlen,
.LVL200:
@ src/parse-packet.c:3327:   namelen = iobuf_get_noeof(inp);
	.loc 1 3327 13 view .LVU640
	cmp	r2, #0	@ pretmp_719,
@ src/parse-packet.c:3324:   mode = iobuf_get_noeof(inp);
	.loc 1 3324 10 view .LVU641
	uxtb	r8, r0	@ iftmp.52_446, tmp1096
.LVL201:
	.loc 1 3325 3 is_stmt 1 view .LVU642
	.loc 1 3326 5 view .LVU643
	.loc 1 3327 3 view .LVU644
@ src/parse-packet.c:3327:   namelen = iobuf_get_noeof(inp);
	.loc 1 3327 13 is_stmt 0 view .LVU645
	beq	.L287		@,
.L120:
	.loc 1 3327 13 view .LVU646
	str	r3, [sp, #16]	@ _25, %sfp
	mov	r0, r4	@, inp
	bl	iobuf_readbyte(PLT)	@
.LVL202:
	ldr	r3, [sp, #16]	@ _25, %sfp
	uxtb	r7, r0	@ iftmp.53_459, tmp1097
.LVL203:
	.loc 1 3327 13 view .LVU647
	b	.L122		@
.LVL204:
.L145:
.LBB136:
.LBB132:
@ src/parse-packet.c:109:   a |= iobuf_get_noeof(inp) << 8;
	.loc 1 109 8 view .LVU648
	mov	r0, r4	@, inp
	bl	iobuf_readbyte(PLT)	@
.LVL205:
@ src/parse-packet.c:110:   a |= iobuf_get_noeof(inp);
	.loc 1 110 8 view .LVU649
	ldr	r2, [r4, #16]	@ inp_5->nofast, inp_5->nofast
@ src/parse-packet.c:109:   a |= iobuf_get_noeof(inp) << 8;
	.loc 1 109 29 view .LVU650
	lsl	r3, r0, #8	@ tmp883, tmp1103,
@ src/parse-packet.c:110:   a |= iobuf_get_noeof(inp);
	.loc 1 110 8 view .LVU651
	cmp	r2, #0	@ inp_5->nofast,
@ src/parse-packet.c:109:   a |= iobuf_get_noeof(inp) << 8;
	.loc 1 109 29 view .LVU652
	uxth	r3, r3	@ tmp884, tmp883
@ src/parse-packet.c:109:   a |= iobuf_get_noeof(inp) << 8;
	.loc 1 109 5 view .LVU653
	orr	r7, r3, r7	@ a, tmp884, a
.LVL206:
	.loc 1 110 3 is_stmt 1 view .LVU654
@ src/parse-packet.c:110:   a |= iobuf_get_noeof(inp);
	.loc 1 110 8 is_stmt 0 view .LVU655
	ldrdeq	r2, [r4, #24]	@, inp,
	beq	.L149		@,
.L148:
	.loc 1 110 8 view .LVU656
	mov	r0, r4	@, inp
	bl	iobuf_readbyte(PLT)	@
.LVL207:
	uxtb	r3, r0	@ iftmp.73_592, tmp1104
	b	.L151		@
.LVL208:
.L140:
@ src/parse-packet.c:107:   a = (unsigned long)iobuf_get_noeof(inp) << 24;
	.loc 1 107 22 view .LVU657
	mov	r0, r4	@, inp
	bl	iobuf_readbyte(PLT)	@
.LVL209:
@ src/parse-packet.c:108:   a |= iobuf_get_noeof(inp) << 16;
	.loc 1 108 29 view .LVU658
	ldr	r3, [r4, #16]	@ inp_5->nofast, inp_5->nofast
@ src/parse-packet.c:107:   a = (unsigned long)iobuf_get_noeof(inp) << 24;
	.loc 1 107 43 view .LVU659
	lsl	r8, r0, #24	@ iftmp.66_175, tmp1101,
.LVL210:
	.loc 1 108 3 is_stmt 1 view .LVU660
@ src/parse-packet.c:108:   a |= iobuf_get_noeof(inp) << 16;
	.loc 1 108 29 is_stmt 0 view .LVU661
	cmp	r3, #0	@ inp_5->nofast,
@ src/parse-packet.c:108:   a |= iobuf_get_noeof(inp) << 16;
	.loc 1 108 8 view .LVU662
	ldrdeq	r2, [r4, #24]	@, inp,
@ src/parse-packet.c:108:   a |= iobuf_get_noeof(inp) << 16;
	.loc 1 108 29 view .LVU663
	beq	.L143		@,
.L142:
@ src/parse-packet.c:108:   a |= iobuf_get_noeof(inp) << 16;
	.loc 1 108 8 view .LVU664
	mov	r0, r4	@, inp
	bl	iobuf_readbyte(PLT)	@
.LVL211:
@ src/parse-packet.c:109:   a |= iobuf_get_noeof(inp) << 8;
	.loc 1 109 29 view .LVU665
	ldr	r3, [r4, #16]	@ inp_5->nofast, inp_5->nofast
@ src/parse-packet.c:108:   a |= iobuf_get_noeof(inp) << 16;
	.loc 1 108 29 view .LVU666
	lsl	r7, r0, #16	@ tmp876, tmp1102,
@ src/parse-packet.c:109:   a |= iobuf_get_noeof(inp) << 8;
	.loc 1 109 29 view .LVU667
	cmp	r3, #0	@ inp_5->nofast,
@ src/parse-packet.c:108:   a |= iobuf_get_noeof(inp) << 16;
	.loc 1 108 29 view .LVU668
	and	r7, r7, #16711680	@ tmp877, tmp876,
@ src/parse-packet.c:108:   a |= iobuf_get_noeof(inp) << 16;
	.loc 1 108 5 view .LVU669
	orr	r7, r7, r8	@ a, tmp877, iftmp.66_175
.LVL212:
	.loc 1 109 3 is_stmt 1 view .LVU670
@ src/parse-packet.c:109:   a |= iobuf_get_noeof(inp) << 8;
	.loc 1 109 29 is_stmt 0 view .LVU671
	bne	.L145		@,
@ src/parse-packet.c:109:   a |= iobuf_get_noeof(inp) << 8;
	.loc 1 109 8 view .LVU672
	ldr	r1, [r4, #24]	@ prephitmp_429, inp_5->d.start
	ldr	r3, [r4, #28]	@ _541, inp_5->d.len
	b	.L146		@
.LVL213:
.L68:
	.loc 1 109 8 view .LVU673
.LBE132:
.LBE136:
.LBE140:
.LBE160:
.LBB161:
.LBB113:
@ src/parse-packet.c:1262:   version = iobuf_get_noeof(inp);
	.loc 1 1262 13 view .LVU674
	mov	r0, r4	@, inp
	bl	iobuf_readbyte(PLT)	@
.LVL214:
	uxtb	fp, r0	@ iftmp.29_275, tmp1087
	b	.L70		@
.LVL215:
.L123:
	.loc 1 1262 13 view .LVU675
.LBE113:
.LBE161:
.LBB162:
.LBB141:
	.loc 1 3331 3 is_stmt 1 view .LVU676
@ src/parse-packet.c:3332:       xmalloc(sizeof *pkt->pkt.plaintext + namelen - 1);
	.loc 1 3332 7 is_stmt 0 view .LVU677
	add	r0, r7, #27	@, iftmp.53_459,
	bl	xmalloc(PLT)	@
.LVL216:
@ src/parse-packet.c:3331:   pt = pkt->pkt.plaintext =
	.loc 1 3331 27 view .LVU678
	ldr	r3, [sp, #12]	@ pkt, %sfp
@ src/parse-packet.c:3332:       xmalloc(sizeof *pkt->pkt.plaintext + namelen - 1);
	.loc 1 3332 7 view .LVU679
	mov	fp, r0	@ _1135, tmp1113
@ src/parse-packet.c:3331:   pt = pkt->pkt.plaintext =
	.loc 1 3331 27 view .LVU680
	str	r0, [r3, #4]	@ _1135, pkt_152(D)->pkt.plaintext
.LVL217:
	.loc 1 3333 3 is_stmt 1 view .LVU681
@ src/parse-packet.c:3333:   pt->new_ctb = new_ctb;
	.loc 1 3333 15 is_stmt 0 view .LVU682
	ldr	r3, [sp, #16]	@ _25, %sfp
@ src/parse-packet.c:3334:   pt->mode = mode;
	.loc 1 3334 12 view .LVU683
	str	r8, [r0, #12]	@ iftmp.52_446, MEM[(struct PKT_plaintext *)_1057].mode
@ src/parse-packet.c:3333:   pt->new_ctb = new_ctb;
	.loc 1 3333 15 view .LVU684
	strb	r3, [r0, #8]	@ _25, MEM[(struct PKT_plaintext *)_1057].new_ctb
	.loc 1 3334 3 is_stmt 1 view .LVU685
	.loc 1 3335 3 view .LVU686
@ src/parse-packet.c:3336:   pt->is_partial = partial;
	.loc 1 3336 18 is_stmt 0 view .LVU687
	strb	r10, [r0, #9]	@ partial, MEM[(struct PKT_plaintext *)_1057].is_partial
@ src/parse-packet.c:3335:   pt->namelen = namelen;
	.loc 1 3335 15 view .LVU688
	str	r7, [r0, #20]	@ iftmp.53_459, MEM[(struct PKT_plaintext *)_1057].namelen
	.loc 1 3336 3 is_stmt 1 view .LVU689
	.loc 1 3337 3 view .LVU690
.LVL218:
.L124:
	.loc 1 3344 17 view .LVU691
@ src/parse-packet.c:3345:       if ((c = iobuf_get(inp)) == -1)
	.loc 1 3345 16 is_stmt 0 view .LVU692
	ldr	r2, [r4, #16]	@ prephitmp_286, inp_5->nofast
@ src/parse-packet.c:3344:     for (i = 0; i < namelen; i++)
	.loc 1 3344 5 view .LVU693
	cmp	r7, #0	@ iftmp.53_459,
	beq	.L267		@,
	str	r7, [sp, #12]	@ iftmp.53_459, %sfp
.LVL219:
	.loc 1 3344 5 view .LVU694
	add	r3, r7, #23	@ tmp860, iftmp.53_459,
	add	r3, r3, fp	@ _677, tmp860, _1135
	movw	r5, #65513	@ tmp1066,
	movt	r5, 65535	@ tmp1066,
	add	r8, fp, #23	@ ivtmp.173, _1135,
.LVL220:
	.loc 1 3344 5 view .LVU695
	sub	r5, r5, fp	@ tmp1066, tmp1066, _1135
	mov	r7, r8	@ ivtmp.173, ivtmp.173
.LVL221:
	.loc 1 3344 5 view .LVU696
	mov	r8, r3	@ _677, _677
	b	.L135		@
.LVL222:
.L132:
@ src/parse-packet.c:3345:       if ((c = iobuf_get(inp)) == -1)
	.loc 1 3345 16 view .LVU697
	ldr	r0, [r4, #8]	@ inp_5->nbytes, inp_5->nbytes
.LVL223:
	.loc 1 3345 16 view .LVU698
	ldr	ip, [r4, #32]	@ _502, inp_5->d.buf
	add	r0, r0, #1	@ tmp864, inp_5->nbytes,
	str	r0, [r4, #8]	@ tmp864, inp_5->nbytes
	add	r0, r1, #1	@ tmp866, _497,
	str	r0, [r4, #24]	@ tmp866, inp_5->d.start
	ldrb	r0, [ip, r1]	@ zero_extendqisi2	@ prephitmp_353, *_504
.LVL224:
.L134:
	.loc 1 3348 9 is_stmt 1 view .LVU699
@ src/parse-packet.c:3348:         pt->name[i] = c;
	.loc 1 3348 21 is_stmt 0 view .LVU700
	strb	r0, [r7, #1]!	@ prephitmp_353, MEM[base: _764, offset: 0B]
	.loc 1 3344 30 is_stmt 1 view .LVU701
.LVL225:
	.loc 1 3344 17 view .LVU702
@ src/parse-packet.c:3344:     for (i = 0; i < namelen; i++)
	.loc 1 3344 5 is_stmt 0 view .LVU703
	cmp	r8, r7	@ _677, ivtmp.173
	beq	.L267		@,
.L135:
	.loc 1 3344 5 view .LVU704
	add	r10, r5, r7	@ i, tmp1066, ivtmp.173
.LVL226:
	.loc 1 3345 7 is_stmt 1 view .LVU705
@ src/parse-packet.c:3345:       if ((c = iobuf_get(inp)) == -1)
	.loc 1 3345 16 is_stmt 0 view .LVU706
	cmp	r2, #0	@ prephitmp_286,
	mov	r0, r4	@, inp
	bne	.L131		@,
.LVL227:
	.loc 1 3345 16 view .LVU707
	ldr	r1, [r4, #24]	@ _497, inp_5->d.start
	ldr	ip, [r4, #28]	@ inp_5->d.len, inp_5->d.len
	cmp	r1, ip	@ _497, inp_5->d.len
	bcc	.L132		@,
.L131:
	bl	iobuf_readbyte(PLT)	@
.LVL228:
@ src/parse-packet.c:3345:       if ((c = iobuf_get(inp)) == -1)
	.loc 1 3345 10 view .LVU708
	cmn	r0, #1	@ iftmp.56_499,
@ src/parse-packet.c:3348:         pt->name[i] = c;
	.loc 1 3348 21 view .LVU709
	uxtb	r0, r0	@ prephitmp_353, iftmp.56_499
.LVL229:
@ src/parse-packet.c:3345:       if ((c = iobuf_get(inp)) == -1)
	.loc 1 3345 10 view .LVU710
	beq	.L133		@,
.LBB137:
.LBB133:
@ src/parse-packet.c:107:   a = (unsigned long)iobuf_get_noeof(inp) << 24;
	.loc 1 107 22 view .LVU711
	ldr	r2, [r4, #16]	@ prephitmp_286, inp_5->nofast
	b	.L134		@
.LVL230:
.L171:
	.loc 1 107 22 view .LVU712
.LBE133:
.LBE137:
.LBE141:
.LBE162:
.LBB163:
.LBB149:
@ src/parse-packet.c:1218:   if (iobuf_get(inp) != 'P')
	.loc 1 1218 7 view .LVU713
	mov	r0, r4	@, inp
	bl	iobuf_readbyte(PLT)	@
.LVL231:
@ src/parse-packet.c:1218:   if (iobuf_get(inp) != 'P')
	.loc 1 1218 22 view .LVU714
	subs	r3, r0, #80	@ iftmp.88_669, tmp1109,
	movne	r3, #1	@ iftmp.88_669,
	b	.L173		@
.LVL232:
.L46:
	.loc 1 1218 22 view .LVU715
.LBE149:
.LBE163:
.LBB164:
.LBB157:
	.loc 1 1068 5 is_stmt 1 view .LVU716
	ldr	r0, .L292+156	@,
.LVL233:
	.loc 1 1068 5 is_stmt 0 view .LVU717
	add	r7, sp, #52	@ tmp1067,,
.LPIC18:
	add	r0, pc, r0	@,
	bl	tfp_printf(PLT)	@
.LVL234:
	.loc 1 1070 5 is_stmt 1 view .LVU718
@ src/parse-packet.c:1070:     while ((n = iobuf_read(inp, buf, sizeof(buf))) != -1)
	.loc 1 1070 11 is_stmt 0 view .LVU719
	b	.L49		@
.LVL235:
.L51:
@ src/parse-packet.c:1071:       if ((rc = iobuf_write(out, buf, n)))
	.loc 1 1071 17 view .LVU720
	bl	iobuf_write(PLT)	@
.LVL236:
@ src/parse-packet.c:1071:       if ((rc = iobuf_write(out, buf, n)))
	.loc 1 1071 10 view .LVU721
	cmp	r0, #0	@ rc
	.loc 1 1071 10 view .LVU722
	bne	.L45		@,
.LVL237:
.L49:
	.loc 1 1070 11 is_stmt 1 view .LVU723
@ src/parse-packet.c:1070:     while ((n = iobuf_read(inp, buf, sizeof(buf))) != -1)
	.loc 1 1070 17 is_stmt 0 view .LVU724
	mov	r2, #100	@,
	mov	r1, r7	@, tmp1067
	mov	r0, r4	@, inp
	bl	iobuf_read(PLT)	@
.LVL238:
	.loc 1 1071 7 is_stmt 1 view .LVU725
@ src/parse-packet.c:1070:     while ((n = iobuf_read(inp, buf, sizeof(buf))) != -1)
	.loc 1 1070 17 is_stmt 0 view .LVU726
	mov	r2, r0	@ tmp1084,
@ src/parse-packet.c:1071:       if ((rc = iobuf_write(out, buf, n)))
	.loc 1 1071 17 view .LVU727
	mov	r1, r7	@, tmp1067
	ldr	r0, [sp, #196]	@, out
.LVL239:
@ src/parse-packet.c:1070:     while ((n = iobuf_read(inp, buf, sizeof(buf))) != -1)
	.loc 1 1070 11 view .LVU728
	cmn	r2, #1	@ n,
	bne	.L51		@,
.LVL240:
	.loc 1 1070 11 view .LVU729
	b	.L266		@
.LVL241:
.L74:
	.loc 1 1070 11 view .LVU730
.LBE157:
.LBE164:
.LBB165:
.LBB114:
@ src/parse-packet.c:1284:   cipher_algo = iobuf_get_noeof(inp);
	.loc 1 1284 17 view .LVU731
	mov	r0, r4	@, inp
	bl	iobuf_readbyte(PLT)	@
.LVL242:
@ src/parse-packet.c:1286:   if (version == 5)
	.loc 1 1286 6 view .LVU732
	cmp	fp, #5	@ iftmp.29_275,
@ src/parse-packet.c:1284:   cipher_algo = iobuf_get_noeof(inp);
	.loc 1 1284 17 view .LVU733
	uxtb	r3, r0	@ iftmp.34_936, tmp1088
	str	r3, [sp, #16]	@ iftmp.34_936, %sfp
.LVL243:
	.loc 1 1285 3 is_stmt 1 view .LVU734
	.loc 1 1286 3 view .LVU735
@ src/parse-packet.c:1286:   if (version == 5)
	.loc 1 1286 6 is_stmt 0 view .LVU736
	beq	.L288		@,
@ src/parse-packet.c:1295:   s2kmode = iobuf_get_noeof(inp);
	.loc 1 1295 13 view .LVU737
	ldr	r3, [r4, #16]	@ prephitmp_960, inp_5->nofast
.LVL244:
@ src/parse-packet.c:1285:   pktlen--;
	.loc 1 1285 9 view .LVU738
	sub	r8, r5, #2	@ pktlen, pktlen,
.LVL245:
@ src/parse-packet.c:1292:     aead_algo = 0;
	.loc 1 1292 15 view .LVU739
	mov	r10, #0	@ aead_algo,
.L83:
.LVL246:
	.loc 1 1295 3 is_stmt 1 view .LVU740
@ src/parse-packet.c:1295:   s2kmode = iobuf_get_noeof(inp);
	.loc 1 1295 13 is_stmt 0 view .LVU741
	cmp	r3, #0	@ prephitmp_960,
	.loc 1 1295 13 view .LVU742
	ldreq	r2, [r4, #28]	@ pretmp_942, inp_5->d.len
	beq	.L79		@
.L86:
	.loc 1 1295 13 view .LVU743
	mov	r0, r4	@, inp
	bl	iobuf_readbyte(PLT)	@
.LVL247:
@ src/parse-packet.c:1297:   hash_algo = iobuf_get_noeof(inp);
	.loc 1 1297 15 view .LVU744
	ldr	r3, [r4, #16]	@ inp_5->nofast, inp_5->nofast
@ src/parse-packet.c:1295:   s2kmode = iobuf_get_noeof(inp);
	.loc 1 1295 13 view .LVU745
	uxtb	r7, r0	@ iftmp.36_157, tmp1090
.LVL248:
	.loc 1 1296 3 is_stmt 1 view .LVU746
	.loc 1 1297 3 view .LVU747
@ src/parse-packet.c:1297:   hash_algo = iobuf_get_noeof(inp);
	.loc 1 1297 15 is_stmt 0 view .LVU748
	cmp	r3, #0	@ inp_5->nofast,
	ldrdeq	r2, [r4, #24]	@, inp,
	beq	.L89		@,
.LVL249:
.L88:
	.loc 1 1297 15 view .LVU749
	mov	r0, r4	@, inp
	bl	iobuf_readbyte(PLT)	@
.LVL250:
	uxtb	r3, r0	@ iftmp.37_332, tmp1091
	str	r3, [sp, #24]	@ iftmp.37_332, %sfp
	b	.L91		@
.LVL251:
.L174:
	.loc 1 1297 15 view .LVU750
.LBE114:
.LBE165:
.LBB166:
.LBB150:
@ src/parse-packet.c:1224:   if (iobuf_get(inp) != 'G')
	.loc 1 1224 7 view .LVU751
	mov	r0, r4	@, inp
	bl	iobuf_readbyte(PLT)	@
.LVL252:
@ src/parse-packet.c:1224:   if (iobuf_get(inp) != 'G')
	.loc 1 1224 6 view .LVU752
	cmp	r0, #71	@ tmp1110,
	bne	.L176		@,
	ldr	r3, [r4, #16]	@ inp_5->nofast, inp_5->nofast
	.loc 1 1230 3 is_stmt 1 view .LVU753
@ src/parse-packet.c:1230:   if (iobuf_get(inp) != 'P')
	.loc 1 1230 22 is_stmt 0 view .LVU754
	cmp	r3, #0	@ inp_5->nofast,
	beq	.L258		@,
.L178:
@ src/parse-packet.c:1230:   if (iobuf_get(inp) != 'P')
	.loc 1 1230 7 view .LVU755
	mov	r0, r4	@, inp
	bl	iobuf_readbyte(PLT)	@
.LVL253:
@ src/parse-packet.c:1230:   if (iobuf_get(inp) != 'P')
	.loc 1 1230 22 view .LVU756
	subs	r3, r0, #80	@ iftmp.90_695, tmp1111,
	movne	r3, #1	@ iftmp.90_695,
	b	.L180		@
.L293:
	.align	2
.L292:
	.word	.LC0-(.LPIC0+8)
	.word	.LC1-(.LPIC13+8)
	.word	.LC8-(.LPIC14+8)
	.word	.LC1-(.LPIC1+8)
	.word	.LC2-(.LPIC2+8)
	.word	.LANCHOR0-(.LPIC19+8)
	.word	.LC12-(.LPIC20+8)
	.word	.LC1-(.LPIC15+8)
	.word	.LC9-(.LPIC16+8)
	.word	.LC10-(.LPIC17+8)
	.word	.LC39-(.LPIC56+8)
	.word	.LC12-(.LPIC57+8)
	.word	.LC13-(.LPIC21+8)
	.word	.LC1-(.LPIC3+8)
	.word	.LC3-(.LPIC4+8)
	.word	.LC25-(.LPIC34+8)
	.word	.LC26-(.LPIC35+8)
	.word	.LC27-(.LPIC36+8)
	.word	.LC28-(.LPIC37+8)
	.word	.LC29-(.LPIC38+8)
	.word	.LC30-(.LPIC39+8)
	.word	.LC31-(.LPIC40+8)
	.word	.LC33-(.LPIC45+8)
	.word	.LC34-(.LPIC47+8)
	.word	.LC35-(.LPIC48+8)
	.word	.LC36-(.LPIC49+8)
	.word	.LC13-(.LPIC50+8)
	.word	.LC1-(.LPIC5+8)
	.word	.LC4-(.LPIC6+8)
	.word	.LC1-(.LPIC9+8)
	.word	.LC6-(.LPIC10+8)
	.word	.LC1-(.LPIC11+8)
	.word	.LC7-(.LPIC12+8)
	.word	.LC16-(.LPIC24+8)
	.word	.LC13-(.LPIC55+8)
	.word	.LC38-(.LPIC53+8)
	.word	.LC13-(.LPIC54+8)
	.word	.LC1-(.LPIC7+8)
	.word	.LC5-(.LPIC8+8)
	.word	.LC11-(.LPIC18+8)
	.word	.LC32-(.LPIC41+8)
	.word	.LC13-(.LPIC42+8)
	.word	.LC23-(.LPIC31+8)
	.word	.LC13-(.LPIC58+8)
	.word	.LC23-(.LPIC43+8)
	.word	.LC13-(.LPIC44+8)
	.word	.LC18-(.LPIC26+8)
	.word	.LC19-(.LPIC27+8)
	.word	.LC22-(.LPIC30+8)
	.word	.LC19-(.LPIC59+8)
	.word	.LC20-(.LPIC28+8)
	.word	.LC37-(.LPIC51+8)
	.word	.LC13-(.LPIC52+8)
	.word	.LC24-(.LPIC32+8)
	.word	.LC13-(.LPIC33+8)
	.word	.LC14-(.LPIC22+8)
	.word	.LC17-(.LPIC25+8)
	.word	.LC15-(.LPIC23+8)
	.word	.LC21-(.LPIC29+8)
.LVL254:
.L279:
	.loc 1 1230 22 view .LVU757
.LBE150:
.LBE166:
.LBB167:
.LBB106:
.LBB103:
	.loc 1 3446 5 is_stmt 1 view .LVU758
	.loc 1 3448 5 view .LVU759
@ src/parse-packet.c:3448:     version = iobuf_get_noeof(inp);
	.loc 1 3448 15 is_stmt 0 view .LVU760
	ldr	r3, [r4, #16]	@ inp_5->nofast, inp_5->nofast
	cmp	r3, #0	@ inp_5->nofast,
	bne	.L155		@,
	ldr	r3, [r4, #24]	@ _611, inp_5->d.start
	ldr	r2, [r4, #28]	@ inp_5->d.len, inp_5->d.len
	cmp	r3, r2	@ _611, inp_5->d.len
	bcs	.L155		@,
	ldr	r2, [r4, #8]	@ inp_5->nbytes, inp_5->nbytes
	ldr	r1, [r4, #32]	@ _617, inp_5->d.buf
	add	r2, r2, #1	@ tmp922, inp_5->nbytes,
	str	r2, [r4, #8]	@ tmp922, inp_5->nbytes
	add	r2, r3, #1	@ tmp924, _611,
	str	r2, [r4, #24]	@ tmp924, inp_5->d.start
	ldrb	r1, [r1, r3]	@ zero_extendqisi2	@ iftmp.76_614, *_619
.LVL255:
.L157:
	.loc 1 3449 5 is_stmt 1 view .LVU761
@ src/parse-packet.c:3449:     if (orig_pktlen)
	.loc 1 3449 8 is_stmt 0 view .LVU762
	cmp	r5, #0	@ pktlen,
	.loc 1 3450 7 is_stmt 1 view .LVU763
@ src/parse-packet.c:3450:       pktlen--;
	.loc 1 3450 13 is_stmt 0 view .LVU764
	subne	r3, r5, #1	@ pktlen, pktlen,
.LVL256:
	.loc 1 3450 13 view .LVU765
	moveq	r3, r5	@ pktlen, pktlen
.LVL257:
	.loc 1 3451 5 is_stmt 1 view .LVU766
@ src/parse-packet.c:3451:     if (version != 1)
	.loc 1 3451 8 is_stmt 0 view .LVU767
	cmp	r1, #1	@ iftmp.76_614,
@ src/parse-packet.c:3461:     ed->mdc_method = DIGEST_ALGO_SHA1;
	.loc 1 3461 20 view .LVU768
	moveq	r2, #2	@ tmp930,
	strbeq	r2, [r7, #10]	@ tmp930, MEM[(struct PKT_encrypted *)_607].mdc_method
@ src/parse-packet.c:3451:     if (version != 1)
	.loc 1 3451 8 view .LVU769
	beq	.L160		@,
	.loc 1 3453 7 is_stmt 1 view .LVU770
	ldr	r0, .L292+160	@,
.LPIC41:
	add	r0, pc, r0	@,
	bl	tfp_printf(PLT)	@
.LVL258:
	.loc 1 3455 7 view .LVU771
	.loc 1 3458 7 view .LVU772
	.loc 1 3458 7 is_stmt 0 view .LVU773
.LBE103:
.LBE106:
.LBE167:
	.loc 2 966 3 is_stmt 1 view .LVU774
	.loc 2 951 3 view .LVU775
.LBB168:
.LBB107:
.LBB104:
	.loc 1 3459 7 view .LVU776
	.loc 1 3459 7 is_stmt 0 view .LVU777
.LBE104:
.LBE107:
.LBE168:
	.loc 1 987 3 is_stmt 1 view .LVU778
	mov	r1, r6	@, ctx
	mov	r0, #0	@,
	bl	free_packet(PLT)	@
.LVL259:
	.loc 1 988 3 view .LVU779
	.loc 1 1006 1 view .LVU780
	ldr	r0, .L292+164	@,
	mov	r1, r9	@, hdrlen
.LPIC42:
	add	r0, pc, r0	@,
	b	.L268		@
.LVL260:
.L80:
.LBB169:
.LBB115:
@ src/parse-packet.c:1288:     aead_algo = iobuf_get_noeof(inp);
	.loc 1 1288 17 is_stmt 0 view .LVU781
	mov	r0, r4	@, inp
@ src/parse-packet.c:1289:     pktlen--;
	.loc 1 1289 11 view .LVU782
	sub	r8, r5, #3	@ pktlen, pktlen,
@ src/parse-packet.c:1288:     aead_algo = iobuf_get_noeof(inp);
	.loc 1 1288 17 view .LVU783
	bl	iobuf_readbyte(PLT)	@
.LVL261:
@ src/parse-packet.c:1293:   if (pktlen < 2)
	.loc 1 1293 6 view .LVU784
	cmp	r5, #4	@ pktlen,
.LVL262:
	.loc 1 1289 5 is_stmt 1 view .LVU785
	.loc 1 1293 3 view .LVU786
@ src/parse-packet.c:1288:     aead_algo = iobuf_get_noeof(inp);
	.loc 1 1288 17 is_stmt 0 view .LVU787
	uxtbne	r10, r0	@ aead_algo, _305
@ src/parse-packet.c:1295:   s2kmode = iobuf_get_noeof(inp);
	.loc 1 1295 13 view .LVU788
	ldrne	r3, [r4, #16]	@ prephitmp_960, inp_5->nofast
@ src/parse-packet.c:1293:   if (pktlen < 2)
	.loc 1 1293 6 view .LVU789
	bne	.L83		@,
.LVL263:
.L84:
@ src/parse-packet.c:1344:     for (i = 0; i < seskeylen && pktlen; i++, pktlen--)
	.loc 1 1344 53 view .LVU790
	mov	r5, #1	@ pktlen,
.LVL264:
.L67:
	.loc 1 1394 3 is_stmt 1 view .LVU791
	ldr	r0, .L292+168	@,
	mov	r1, #3	@,
.LPIC31:
	add	r0, pc, r0	@,
	bl	tfp_printf(PLT)	@
.LVL265:
	.loc 1 1395 3 view .LVU792
	.loc 1 1397 3 view .LVU793
	.loc 1 1397 3 is_stmt 0 view .LVU794
.LBE115:
.LBE169:
	.loc 2 966 3 is_stmt 1 view .LVU795
	.loc 2 951 3 view .LVU796
.LBB170:
.LBB116:
	.loc 1 1398 3 view .LVU797
.L72:
	.loc 1 1390 3 view .LVU798
	mov	r2, #0	@,
	mov	r0, r4	@, inp
	mov	r1, r5	@, pktlen
	bl	iobuf_skip_rest(PLT)	@
.LVL266:
	.loc 1 1391 3 view .LVU799
	.loc 1 1391 3 is_stmt 0 view .LVU800
.LBE116:
.LBE170:
	.loc 1 928 7 is_stmt 1 view .LVU801
	.loc 1 987 3 view .LVU802
	mov	r1, r6	@, ctx
	mov	r0, #0	@,
	bl	free_packet(PLT)	@
.LVL267:
	.loc 1 988 3 view .LVU803
	.loc 1 1006 1 view .LVU804
	ldr	r0, .L292+172	@,
	mov	r1, r9	@, hdrlen
.LPIC58:
	add	r0, pc, r0	@,
	bl	tfp_printf(PLT)	@
.LVL268:
	.loc 1 1007 1 view .LVU805
	mov	r1, r9	@, hdrlen
	add	r0, sp, #44	@,,
	bl	log_hexdump(PLT)	@
.LVL269:
	.loc 1 1010 3 view .LVU806
	.loc 1 1016 3 view .LVU807
@ src/parse-packet.c:1007: log_hexdump(hdr, hdrlen);
	.loc 1 1007 1 is_stmt 0 view .LVU808
	mov	r0, #14	@ rc,
	movt	r0, 512	@ rc,
	b	.L185		@
.LVL270:
.L287:
	.loc 1 1007 1 view .LVU809
	ldr	r2, [r4, #28]	@ pretmp_942, inp_5->d.len
	b	.L119		@
.LVL271:
.L281:
.LBB171:
.LBB108:
	.loc 1 3489 5 is_stmt 1 view .LVU810
	mov	r0, r5	@, tmp947
	bl	tfp_printf(PLT)	@
.LVL272:
	b	.L162		@
.LVL273:
.L267:
	.loc 1 3489 5 is_stmt 0 view .LVU811
.LBE108:
.LBE171:
.LBB172:
.LBB142:
	mov	r5, #0	@ pktlen,
	b	.L136		@
.LVL274:
.L155:
	.loc 1 3489 5 view .LVU812
.LBE142:
.LBE172:
.LBB173:
.LBB109:
.LBB105:
@ src/parse-packet.c:3448:     version = iobuf_get_noeof(inp);
	.loc 1 3448 15 view .LVU813
	mov	r0, r4	@, inp
.LVL275:
	.loc 1 3448 15 view .LVU814
	bl	iobuf_readbyte(PLT)	@
.LVL276:
	uxtb	r1, r0	@ iftmp.76_614, tmp1106
	b	.L157		@
.LVL277:
.L280:
	.loc 1 3448 15 view .LVU815
.LBE105:
	.loc 1 3472 5 is_stmt 1 view .LVU816
	ldr	r0, .L292+176	@,
	mov	r1, r8	@, pkttype
	str	r3, [sp, #12]	@ pktlen, %sfp
.LVL278:
	.loc 1 3472 5 is_stmt 0 view .LVU817
.LPIC43:
	add	r0, pc, r0	@,
	bl	tfp_printf(PLT)	@
.LVL279:
	.loc 1 3473 5 is_stmt 1 view .LVU818
	.loc 1 3475 5 view .LVU819
	.loc 1 3476 5 view .LVU820
	ldr	r3, [sp, #12]	@ pktlen, %sfp
	mov	r2, r10	@, partial
	mov	r0, r4	@, inp
	mov	r1, r3	@, pktlen
	bl	iobuf_skip_rest(PLT)	@
.LVL280:
	.loc 1 3477 5 view .LVU821
	.loc 1 3477 5 is_stmt 0 view .LVU822
.LBE109:
.LBE173:
	.loc 1 987 3 is_stmt 1 view .LVU823
	mov	r1, r6	@, ctx
	mov	r0, #0	@,
	bl	free_packet(PLT)	@
.LVL281:
	.loc 1 988 3 view .LVU824
	.loc 1 1006 1 view .LVU825
	ldr	r0, .L292+180	@,
	mov	r1, r9	@, hdrlen
.LPIC44:
	add	r0, pc, r0	@,
	b	.L268		@
.LVL282:
.L196:
.LBB174:
.LBB117:
@ src/parse-packet.c:1299:   switch (s2kmode)
	.loc 1 1299 3 is_stmt 0 view .LVU826
	mov	r3, #9	@ prephitmp_955,
.L92:
	.loc 1 1316 3 is_stmt 1 view .LVU827
@ src/parse-packet.c:1316:   if (minlen > pktlen)
	.loc 1 1316 6 is_stmt 0 view .LVU828
	cmp	r5, r3	@ pktlen, prephitmp_955
	bcc	.L289		@,
	.loc 1 1324 3 is_stmt 1 view .LVU829
@ src/parse-packet.c:1324:   seskeylen = pktlen - minlen;
	.loc 1 1324 22 is_stmt 0 view .LVU830
	sub	r3, r5, r3	@ _348, pktlen, prephitmp_955
@ src/parse-packet.c:1331:   if (s2kmode == 1 || s2kmode == 3)
	.loc 1 1331 31 view .LVU831
	sub	r2, r7, #3	@ _143, iftmp.36_157,
	clz	r2, r2	@ _143, _143
@ src/parse-packet.c:1325:   k = packet->pkt.symkey_enc = xmalloc_clear(sizeof *packet->pkt.symkey_enc + seskeylen - 1);
	.loc 1 1325 32 view .LVU832
	add	r0, r3, #27	@, _348,
	str	r3, [sp, #32]	@ _348, %sfp
@ src/parse-packet.c:1331:   if (s2kmode == 1 || s2kmode == 3)
	.loc 1 1331 31 view .LVU833
	lsr	r2, r2, #5	@ _143, _143,
	str	r2, [sp, #20]	@ _143, %sfp
@ src/parse-packet.c:1325:   k = packet->pkt.symkey_enc = xmalloc_clear(sizeof *packet->pkt.symkey_enc + seskeylen - 1);
	.loc 1 1325 32 view .LVU834
	bl	xmalloc_clear(PLT)	@
.LVL283:
@ src/parse-packet.c:1325:   k = packet->pkt.symkey_enc = xmalloc_clear(sizeof *packet->pkt.symkey_enc + seskeylen - 1);
	.loc 1 1325 30 view .LVU835
	ldr	r1, [sp, #12]	@ pkt, %sfp
@ src/parse-packet.c:1331:   if (s2kmode == 1 || s2kmode == 3)
	.loc 1 1331 15 view .LVU836
	bic	r3, r7, #2	@ tmp756, iftmp.36_157,
@ src/parse-packet.c:1325:   k = packet->pkt.symkey_enc = xmalloc_clear(sizeof *packet->pkt.symkey_enc + seskeylen - 1);
	.loc 1 1325 30 view .LVU837
	str	r0, [r1, #4]	@ _159, pkt_152(D)->pkt.symkey_enc
@ src/parse-packet.c:1331:   if (s2kmode == 1 || s2kmode == 3)
	.loc 1 1331 6 view .LVU838
	cmp	r3, #1	@ tmp756,
@ src/parse-packet.c:1327:   k->cipher_algo = cipher_algo;
	.loc 1 1327 18 view .LVU839
	ldr	r1, [sp, #16]	@ iftmp.34_936, %sfp
@ src/parse-packet.c:1324:   seskeylen = pktlen - minlen;
	.loc 1 1324 13 view .LVU840
	ldr	r2, [sp, #32]	@ _348, %sfp
@ src/parse-packet.c:1327:   k->cipher_algo = cipher_algo;
	.loc 1 1327 18 view .LVU841
	strb	r1, [r0, #1]	@ iftmp.34_936, MEM[(struct PKT_symkey_enc *)_351].cipher_algo
@ src/parse-packet.c:1330:   k->s2k.hash_algo = hash_algo;
	.loc 1 1330 20 view .LVU842
	ldr	r1, [sp, #24]	@ iftmp.37_332, %sfp
@ src/parse-packet.c:1325:   k = packet->pkt.symkey_enc = xmalloc_clear(sizeof *packet->pkt.symkey_enc + seskeylen - 1);
	.loc 1 1325 32 view .LVU843
	str	r0, [sp, #28]	@ _159, %sfp
@ src/parse-packet.c:1326:   k->version = version;
	.loc 1 1326 14 view .LVU844
	strb	fp, [r0]	@ iftmp.29_275, MEM[(struct PKT_symkey_enc *)_351].version
@ src/parse-packet.c:1328:   k->aead_algo = aead_algo;
	.loc 1 1328 16 view .LVU845
	strb	r10, [r0, #2]	@ aead_algo, MEM[(struct PKT_symkey_enc *)_351].aead_algo
@ src/parse-packet.c:1329:   k->s2k.mode = s2kmode;
	.loc 1 1329 15 view .LVU846
	str	r7, [r0, #4]	@ iftmp.36_157, MEM[(struct PKT_symkey_enc *)_351].s2k.mode
@ src/parse-packet.c:1330:   k->s2k.hash_algo = hash_algo;
	.loc 1 1330 20 view .LVU847
	strb	r1, [r0, #8]	@ iftmp.37_332, MEM[(struct PKT_symkey_enc *)_351].s2k.hash_algo
@ src/parse-packet.c:1324:   seskeylen = pktlen - minlen;
	.loc 1 1324 13 view .LVU848
	str	r2, [sp, #12]	@ _348, %sfp
.LVL284:
	.loc 1 1325 3 is_stmt 1 view .LVU849
	.loc 1 1326 3 view .LVU850
	.loc 1 1327 3 view .LVU851
	.loc 1 1328 3 view .LVU852
	.loc 1 1329 3 view .LVU853
	.loc 1 1330 3 view .LVU854
	.loc 1 1331 3 view .LVU855
@ src/parse-packet.c:1331:   if (s2kmode == 1 || s2kmode == 3)
	.loc 1 1331 6 is_stmt 0 view .LVU856
	bne	.L96		@,
.LVL285:
	.loc 1 1333 17 is_stmt 1 view .LVU857
	str	r6, [sp, #36]	@ ctx, %sfp
	add	r2, r0, #8	@ ivtmp.150, _159,
.LVL286:
	.loc 1 1333 17 is_stmt 0 view .LVU858
	mov	r6, r5	@ pktlen, pktlen
.LVL287:
	.loc 1 1333 17 view .LVU859
	mov	r5, r2	@ ivtmp.150, ivtmp.150
.LVL288:
	.loc 1 1333 17 view .LVU860
	b	.L100		@
.LVL289:
.L98:
@ src/parse-packet.c:1334:       k->s2k.salt[i] = iobuf_get_noeof(inp);
	.loc 1 1334 24 view .LVU861
	str	r1, [r4, #24]	@ tmp761, inp_5->d.start
	ldr	r1, [r4, #8]	@ inp_5->nbytes, inp_5->nbytes
	ldr	r0, [r4, #32]	@ _369, inp_5->d.buf
.LVL290:
	.loc 1 1334 24 view .LVU862
	add	r1, r1, #1	@ tmp759, inp_5->nbytes,
	str	r1, [r4, #8]	@ tmp759, inp_5->nbytes
@ src/parse-packet.c:1334:       k->s2k.salt[i] = iobuf_get_noeof(inp);
	.loc 1 1334 22 view .LVU863
	ldrb	r3, [r0, r3]	@ zero_extendqisi2	@ iftmp.45_366, *_371
.L99:
	.loc 1 1334 22 view .LVU864
	strb	r3, [r5, #1]!	@ iftmp.45_366, MEM[base: _344, offset: 0B]
	.loc 1 1333 34 is_stmt 1 view .LVU865
@ src/parse-packet.c:1333:     for (i = 0; i < 8 && pktlen; i++, pktlen--)
	.loc 1 1333 19 is_stmt 0 view .LVU866
	movw	r3, #65534	@ tmp764,
	movt	r3, 65535	@ tmp764,
@ src/parse-packet.c:1333:     for (i = 0; i < 8 && pktlen; i++, pktlen--)
	.loc 1 1333 45 view .LVU867
	sub	r1, r6, #1	@ pktlen, pktlen,
.LVL291:
	.loc 1 1333 17 is_stmt 1 view .LVU868
@ src/parse-packet.c:1333:     for (i = 0; i < 8 && pktlen; i++, pktlen--)
	.loc 1 1333 19 is_stmt 0 view .LVU869
	sub	r3, r3, r1	@ tmp764, tmp764, pktlen
	add	r3, r3, r8	@ i, tmp764, pktlen
@ src/parse-packet.c:1333:     for (i = 0; i < 8 && pktlen; i++, pktlen--)
	.loc 1 1333 23 view .LVU870
	cmp	r3, #7	@ _143,
	movgt	r3, #0	@ _143,
	movle	r3, #1	@ _143,
	cmp	r1, #0	@ pktlen,
	moveq	r3, #0	@ _143,
@ src/parse-packet.c:1333:     for (i = 0; i < 8 && pktlen; i++, pktlen--)
	.loc 1 1333 5 view .LVU871
	cmp	r3, #0	@ _143,
	beq	.L290		@,
	mov	r6, r1	@ pktlen, pktlen
.LVL292:
.L100:
	.loc 1 1334 7 is_stmt 1 view .LVU872
@ src/parse-packet.c:1334:       k->s2k.salt[i] = iobuf_get_noeof(inp);
	.loc 1 1334 22 is_stmt 0 view .LVU873
	ldr	r3, [r4, #16]	@ inp_5->nofast, inp_5->nofast
@ src/parse-packet.c:1334:       k->s2k.salt[i] = iobuf_get_noeof(inp);
	.loc 1 1334 24 view .LVU874
	mov	r0, r4	@, inp
@ src/parse-packet.c:1334:       k->s2k.salt[i] = iobuf_get_noeof(inp);
	.loc 1 1334 22 view .LVU875
	cmp	r3, #0	@ inp_5->nofast,
	bne	.L97		@,
.LVL293:
@ src/parse-packet.c:1334:       k->s2k.salt[i] = iobuf_get_noeof(inp);
	.loc 1 1334 24 view .LVU876
	ldr	r3, [r4, #24]	@ _363, inp_5->d.start
	ldr	r1, [r4, #28]	@ inp_5->d.len, inp_5->d.len
	cmp	r3, r1	@ _363, inp_5->d.len
	add	r1, r3, #1	@ tmp761, _363,
	bcc	.L98		@,
.L97:
	bl	iobuf_readbyte(PLT)	@
.LVL294:
@ src/parse-packet.c:1334:       k->s2k.salt[i] = iobuf_get_noeof(inp);
	.loc 1 1334 22 view .LVU877
	uxtb	r3, r0	@ iftmp.45_366, tmp1093
	b	.L99		@
.LVL295:
.L93:
	.loc 1 1316 3 is_stmt 1 view .LVU878
	.loc 1 1324 3 view .LVU879
@ src/parse-packet.c:1325:   k = packet->pkt.symkey_enc = xmalloc_clear(sizeof *packet->pkt.symkey_enc + seskeylen - 1);
	.loc 1 1325 32 is_stmt 0 view .LVU880
	add	r0, r8, #25	@, pktlen,
	bl	xmalloc_clear(PLT)	@
.LVL296:
@ src/parse-packet.c:1325:   k = packet->pkt.symkey_enc = xmalloc_clear(sizeof *packet->pkt.symkey_enc + seskeylen - 1);
	.loc 1 1325 30 view .LVU881
	ldr	r3, [sp, #12]	@ pkt, %sfp
@ src/parse-packet.c:1325:   k = packet->pkt.symkey_enc = xmalloc_clear(sizeof *packet->pkt.symkey_enc + seskeylen - 1);
	.loc 1 1325 32 view .LVU882
	str	r0, [sp, #28]	@ _159, %sfp
@ src/parse-packet.c:1325:   k = packet->pkt.symkey_enc = xmalloc_clear(sizeof *packet->pkt.symkey_enc + seskeylen - 1);
	.loc 1 1325 30 view .LVU883
	str	r0, [r3, #4]	@ _159, pkt_152(D)->pkt.symkey_enc
@ src/parse-packet.c:1327:   k->cipher_algo = cipher_algo;
	.loc 1 1327 18 view .LVU884
	ldr	r3, [sp, #16]	@ iftmp.34_936, %sfp
@ src/parse-packet.c:1326:   k->version = version;
	.loc 1 1326 14 view .LVU885
	strb	fp, [r0]	@ iftmp.29_275, MEM[(struct PKT_symkey_enc *)_1092].version
@ src/parse-packet.c:1327:   k->cipher_algo = cipher_algo;
	.loc 1 1327 18 view .LVU886
	strb	r3, [r0, #1]	@ iftmp.34_936, MEM[(struct PKT_symkey_enc *)_1092].cipher_algo
@ src/parse-packet.c:1330:   k->s2k.hash_algo = hash_algo;
	.loc 1 1330 20 view .LVU887
	ldr	r3, [sp, #24]	@ iftmp.37_332, %sfp
@ src/parse-packet.c:1328:   k->aead_algo = aead_algo;
	.loc 1 1328 16 view .LVU888
	strb	r10, [r0, #2]	@ aead_algo, MEM[(struct PKT_symkey_enc *)_1092].aead_algo
@ src/parse-packet.c:1329:   k->s2k.mode = s2kmode;
	.loc 1 1329 15 view .LVU889
	str	r7, [r0, #4]	@ iftmp.36_157, MEM[(struct PKT_symkey_enc *)_1092].s2k.mode
@ src/parse-packet.c:1330:   k->s2k.hash_algo = hash_algo;
	.loc 1 1330 20 view .LVU890
	strb	r3, [r0, #8]	@ iftmp.37_332, MEM[(struct PKT_symkey_enc *)_1092].s2k.hash_algo
@ src/parse-packet.c:1324:   seskeylen = pktlen - minlen;
	.loc 1 1324 13 view .LVU891
	str	r5, [sp, #12]	@ pktlen, %sfp
.LVL297:
	.loc 1 1325 3 is_stmt 1 view .LVU892
	.loc 1 1326 3 view .LVU893
	.loc 1 1327 3 view .LVU894
	.loc 1 1328 3 view .LVU895
	.loc 1 1329 3 view .LVU896
	.loc 1 1330 3 view .LVU897
	.loc 1 1331 3 view .LVU898
@ src/parse-packet.c:1298:   pktlen--;
	.loc 1 1298 9 is_stmt 0 view .LVU899
	str	r5, [sp, #32]	@ pktlen, %sfp
.LVL298:
.L96:
	.loc 1 1341 3 is_stmt 1 view .LVU900
@ src/parse-packet.c:1341:   k->seskeylen = seskeylen;
	.loc 1 1341 16 is_stmt 0 view .LVU901
	ldrb	r3, [sp, #32]	@ zero_extendqisi2	@ _397, %sfp
	ldr	r2, [sp, #28]	@ _159, %sfp
@ src/parse-packet.c:1342:   if (k->seskeylen)
	.loc 1 1342 6 view .LVU902
	cmp	r3, #0	@ _397,
@ src/parse-packet.c:1341:   k->seskeylen = seskeylen;
	.loc 1 1341 16 view .LVU903
	strb	r3, [r2, #24]	@ _397, MEM[(struct PKT_symkey_enc *)_159].seskeylen
	.loc 1 1342 3 is_stmt 1 view .LVU904
@ src/parse-packet.c:1342:   if (k->seskeylen)
	.loc 1 1342 6 is_stmt 0 view .LVU905
	beq	.L104		@,
.LVL299:
	.loc 1 1344 17 is_stmt 1 view .LVU906
@ src/parse-packet.c:1344:     for (i = 0; i < seskeylen && pktlen; i++, pktlen--)
	.loc 1 1344 5 is_stmt 0 view .LVU907
	ldr	r3, [sp, #12]	@ seskeylen, %sfp
	cmp	r5, #0	@ pktlen,
	cmpne	r3, #0	@, seskeylen,
	ble	.L105		@,
	str	r7, [sp, #32]	@ iftmp.36_157, %sfp
	add	r2, r2, #24	@ ivtmp.140, _159,
	str	r6, [sp, #36]	@ ctx, %sfp
	mov	r8, r5	@ pktlen, pktlen
	mov	r7, r2	@ ivtmp.140, ivtmp.140
.LVL300:
	.loc 1 1344 5 view .LVU908
	mov	r6, r3	@ seskeylen, seskeylen
	b	.L109		@
.LVL301:
.L107:
@ src/parse-packet.c:1345:       k->seskey[i] = iobuf_get_noeof(inp);
	.loc 1 1345 22 view .LVU909
	ldr	r0, [r4, #8]	@ inp_5->nbytes, inp_5->nbytes
.LVL302:
	.loc 1 1345 22 view .LVU910
	str	ip, [r4, #24]	@ tmp788, inp_5->d.start
	ldr	ip, [r4, #32]	@ _405, inp_5->d.buf
	add	r0, r0, #1	@ tmp786, inp_5->nbytes,
	str	r0, [r4, #8]	@ tmp786, inp_5->nbytes
@ src/parse-packet.c:1345:       k->seskey[i] = iobuf_get_noeof(inp);
	.loc 1 1345 20 view .LVU911
	ldrb	r1, [ip, r1]	@ zero_extendqisi2	@ iftmp.47_402, *_407
.L108:
	.loc 1 1345 20 view .LVU912
	strb	r1, [r7, #1]!	@ iftmp.47_402, MEM[base: _88, offset: 0B]
	.loc 1 1344 42 is_stmt 1 view .LVU913
@ src/parse-packet.c:1344:     for (i = 0; i < seskeylen && pktlen; i++, pktlen--)
	.loc 1 1344 53 is_stmt 0 view .LVU914
	sub	r8, r8, #1	@ pktlen, pktlen,
.LVL303:
	.loc 1 1344 17 is_stmt 1 view .LVU915
@ src/parse-packet.c:1344:     for (i = 0; i < seskeylen && pktlen; i++, pktlen--)
	.loc 1 1344 19 is_stmt 0 view .LVU916
	sub	r1, r5, r8	@ i, pktlen, pktlen
@ src/parse-packet.c:1344:     for (i = 0; i < seskeylen && pktlen; i++, pktlen--)
	.loc 1 1344 5 view .LVU917
	cmp	r8, #0	@ pktlen,
	cmpne	r1, r6	@, i, seskeylen
	bge	.L291		@,
.L109:
	.loc 1 1345 7 is_stmt 1 view .LVU918
@ src/parse-packet.c:1345:       k->seskey[i] = iobuf_get_noeof(inp);
	.loc 1 1345 20 is_stmt 0 view .LVU919
	ldr	r1, [r4, #16]	@ inp_5->nofast, inp_5->nofast
@ src/parse-packet.c:1345:       k->seskey[i] = iobuf_get_noeof(inp);
	.loc 1 1345 22 view .LVU920
	mov	r0, r4	@, inp
@ src/parse-packet.c:1345:       k->seskey[i] = iobuf_get_noeof(inp);
	.loc 1 1345 20 view .LVU921
	cmp	r1, #0	@ inp_5->nofast,
	bne	.L106		@,
.LVL304:
@ src/parse-packet.c:1345:       k->seskey[i] = iobuf_get_noeof(inp);
	.loc 1 1345 22 view .LVU922
	ldr	r1, [r4, #24]	@ _399, inp_5->d.start
	ldr	ip, [r4, #28]	@ inp_5->d.len, inp_5->d.len
	cmp	r1, ip	@ _399, inp_5->d.len
	add	ip, r1, #1	@ tmp788, _399,
	bcc	.L107		@,
.L106:
	bl	iobuf_readbyte(PLT)	@
.LVL305:
@ src/parse-packet.c:1345:       k->seskey[i] = iobuf_get_noeof(inp);
	.loc 1 1345 20 view .LVU923
	uxtb	r1, r0	@ iftmp.47_402, tmp1095
	b	.L108		@
.LVL306:
.L105:
	.loc 1 1350 5 is_stmt 1 view .LVU924
@ src/parse-packet.c:1350:     if (s2kmode != 1 && s2kmode != 3)
	.loc 1 1350 17 is_stmt 0 view .LVU925
	bic	r3, r7, #2	@ tmp798, iftmp.36_157,
@ src/parse-packet.c:1350:     if (s2kmode != 1 && s2kmode != 3)
	.loc 1 1350 8 view .LVU926
	cmp	r3, #1	@ tmp798,
	beq	.L104		@,
	mov	r8, r5	@ pktlen, pktlen
.LVL307:
.L187:
	.loc 1 1351 7 is_stmt 1 view .LVU927
	ldr	r0, .L292+184	@,
	mov	r5, r8	@ pktlen, pktlen
.LPIC26:
	add	r0, pc, r0	@,
	bl	tfp_printf(PLT)	@
.LVL308:
.L104:
	.loc 1 1356 3 view .LVU928
	.loc 1 1358 5 view .LVU929
	ldr	r3, [sp, #24]	@ iftmp.37_332, %sfp
	mov	r1, fp	@, iftmp.29_275
	ldr	r0, .L292+188	@,
	str	r3, [sp, #4]	@ iftmp.37_332,
	mov	r3, r10	@, aead_algo
.LPIC27:
	add	r0, pc, r0	@,
	ldr	r2, [sp, #16]	@, %sfp
	str	r7, [sp]	@ iftmp.36_157,
	bl	tfp_printf(PLT)	@
.LVL309:
	.loc 1 1362 5 view .LVU930
@ src/parse-packet.c:1362:     if (seskeylen)
	.loc 1 1362 8 is_stmt 0 view .LVU931
	ldr	r3, [sp, #12]	@ seskeylen, %sfp
	cmp	r3, #0	@ seskeylen,
	bne	.L186		@,
.L111:
	.loc 1 1376 5 is_stmt 1 view .LVU932
	.loc 1 1380 7 view .LVU933
@ src/parse-packet.c:1380:       if (s2kmode == 3)
	.loc 1 1380 10 is_stmt 0 view .LVU934
	ldr	r3, [sp, #20]	@ _143, %sfp
	cmp	r3, #0	@ _143,
	beq	.L94		@,
	.loc 1 1381 9 is_stmt 1 view .LVU935
@ src/parse-packet.c:1383:             S2K_DECODE_COUNT((ulong)k->s2k.count),
	.loc 1 1383 13 is_stmt 0 view .LVU936
	ldr	r3, [sp, #28]	@ _159, %sfp
@ src/parse-packet.c:1381:         printf( // listfp,
	.loc 1 1381 9 view .LVU937
	ldr	r0, .L292+192	@,
@ src/parse-packet.c:1383:             S2K_DECODE_COUNT((ulong)k->s2k.count),
	.loc 1 1383 13 view .LVU938
	ldr	r2, [r3, #20]	@ _422, MEM[(struct PKT_symkey_enc *)_159].s2k.count
@ src/parse-packet.c:1381:         printf( // listfp,
	.loc 1 1381 9 view .LVU939
.LPIC30:
	add	r0, pc, r0	@,
@ src/parse-packet.c:1383:             S2K_DECODE_COUNT((ulong)k->s2k.count),
	.loc 1 1383 13 view .LVU940
	lsr	r3, r2, #4	@ tmp811, _422,
	and	r1, r2, #15	@ tmp809, _422,
	add	r3, r3, #6	@ tmp812, tmp811,
	add	r1, r1, #16	@ tmp810, tmp809,
@ src/parse-packet.c:1381:         printf( // listfp,
	.loc 1 1381 9 view .LVU941
	lsl	r1, r1, r3	@, tmp810, tmp812
	bl	tfp_printf(PLT)	@
.LVL310:
	b	.L94		@
.LVL311:
.L290:
@ src/parse-packet.c:1336:   if (s2kmode == 3)
	.loc 1 1336 6 view .LVU942
	str	r3, [sp, #20]	@ _143, %sfp
	cmp	r7, #3	@ iftmp.36_157,
	mov	r5, r6	@ pktlen, pktlen
@ src/parse-packet.c:1333:     for (i = 0; i < 8 && pktlen; i++, pktlen--)
	.loc 1 1333 45 view .LVU943
	movne	r5, r1	@ pktlen, pktlen
@ src/parse-packet.c:1336:   if (s2kmode == 3)
	.loc 1 1336 6 view .LVU944
	ldr	r6, [sp, #36]	@ ctx, %sfp
	.loc 1 1336 3 is_stmt 1 view .LVU945
@ src/parse-packet.c:1336:   if (s2kmode == 3)
	.loc 1 1336 6 is_stmt 0 view .LVU946
	bne	.L96		@,
	.loc 1 1338 5 is_stmt 1 view .LVU947
@ src/parse-packet.c:1338:     k->s2k.count = iobuf_get_noeof(inp);
	.loc 1 1338 20 is_stmt 0 view .LVU948
	ldr	r3, [r4, #16]	@ inp_5->nofast, inp_5->nofast
	cmp	r3, #0	@ inp_5->nofast,
	bne	.L101		@,
	ldr	r3, [r4, #24]	@ _382, inp_5->d.start
	ldr	r2, [r4, #28]	@ inp_5->d.len, inp_5->d.len
	cmp	r3, r2	@ _382, inp_5->d.len
	bcs	.L101		@,
	ldr	r2, [r4, #8]	@ inp_5->nbytes, inp_5->nbytes
	ldr	r1, [r4, #32]	@ _389, inp_5->d.buf
.LVL312:
	.loc 1 1338 20 view .LVU949
	add	r2, r2, #1	@ tmp773, inp_5->nbytes,
	str	r2, [r4, #8]	@ tmp773, inp_5->nbytes
	add	r2, r3, #1	@ tmp775, _382,
	str	r2, [r4, #24]	@ tmp775, inp_5->d.start
	ldrb	r3, [r1, r3]	@ zero_extendqisi2	@ iftmp.46_386, *_391
.L103:
@ src/parse-packet.c:1338:     k->s2k.count = iobuf_get_noeof(inp);
	.loc 1 1338 18 view .LVU950
	ldr	r2, [sp, #28]	@ _159, %sfp
@ src/parse-packet.c:1339:     pktlen--;
	.loc 1 1339 11 view .LVU951
	sub	r5, r5, #2	@ pktlen, pktlen,
@ src/parse-packet.c:1338:     k->s2k.count = iobuf_get_noeof(inp);
	.loc 1 1338 18 view .LVU952
	str	r3, [r2, #20]	@ iftmp.46_386, MEM[(struct PKT_symkey_enc *)_351].s2k.count
	.loc 1 1339 5 is_stmt 1 view .LVU953
.LVL313:
@ src/parse-packet.c:1331:   if (s2kmode == 1 || s2kmode == 3)
	.loc 1 1331 31 is_stmt 0 view .LVU954
	mov	r3, #1	@ _143,
	str	r3, [sp, #20]	@ _143, %sfp
	b	.L96		@
.LVL314:
.L291:
	.loc 1 1331 31 view .LVU955
	ldr	r7, [sp, #32]	@ iftmp.36_157, %sfp
	ldr	r6, [sp, #36]	@ ctx, %sfp
	.loc 1 1350 5 is_stmt 1 view .LVU956
@ src/parse-packet.c:1350:     if (s2kmode != 1 && s2kmode != 3)
	.loc 1 1350 17 is_stmt 0 view .LVU957
	bic	r3, r7, #2	@ tmp1051, iftmp.36_157,
@ src/parse-packet.c:1350:     if (s2kmode != 1 && s2kmode != 3)
	.loc 1 1350 8 view .LVU958
	cmp	r3, #1	@ tmp1051,
	bne	.L187		@,
	.loc 1 1356 3 is_stmt 1 view .LVU959
	.loc 1 1358 5 view .LVU960
	ldr	r3, [sp, #24]	@ iftmp.37_332, %sfp
	mov	r1, fp	@, iftmp.29_275
	ldr	r0, .L292+196	@,
@ src/parse-packet.c:1344:     for (i = 0; i < seskeylen && pktlen; i++, pktlen--)
	.loc 1 1344 53 is_stmt 0 view .LVU961
	mov	r5, r8	@ pktlen, pktlen
@ src/parse-packet.c:1358:     printf( // listfp,
	.loc 1 1358 5 view .LVU962
	str	r3, [sp, #4]	@ iftmp.37_332,
	mov	r3, r10	@, aead_algo
.LPIC59:
	add	r0, pc, r0	@,
	ldr	r2, [sp, #16]	@, %sfp
	str	r7, [sp]	@ iftmp.36_157,
	bl	tfp_printf(PLT)	@
.LVL315:
	.loc 1 1362 5 is_stmt 1 view .LVU963
.L186:
	.loc 1 1368 7 view .LVU964
@ src/parse-packet.c:1368:       if (aead_algo)
	.loc 1 1368 10 is_stmt 0 view .LVU965
	cmp	r10, #0	@ aead_algo,
	beq	.L112		@,
	.loc 1 1369 9 is_stmt 1 view .LVU966
	ldr	r0, .L292+200	@,
	ldr	r1, [sp, #12]	@, %sfp
.LPIC28:
	add	r0, pc, r0	@,
	bl	tfp_printf(PLT)	@
.LVL316:
	b	.L111		@
.LVL317:
.L288:
	.loc 1 1288 5 view .LVU967
@ src/parse-packet.c:1288:     aead_algo = iobuf_get_noeof(inp);
	.loc 1 1288 17 is_stmt 0 view .LVU968
	ldr	r3, [r4, #16]	@ inp_5->nofast, inp_5->nofast
.LVL318:
	.loc 1 1288 17 view .LVU969
	cmp	r3, #0	@ inp_5->nofast,
	bne	.L80		@,
	ldr	r0, [r4, #24]	@ prephitmp_185, inp_5->d.start
	ldr	r3, [r4, #28]	@ pretmp_958, inp_5->d.len
.LVL319:
.L78:
	.loc 1 1288 17 view .LVU970
	cmp	r0, r3	@ prephitmp_185, pretmp_958
	bcs	.L80		@,
	ldr	r2, [r4, #8]	@ inp_5->nbytes, inp_5->nbytes
@ src/parse-packet.c:1293:   if (pktlen < 2)
	.loc 1 1293 6 view .LVU971
	cmp	r5, #4	@ pktlen,
@ src/parse-packet.c:1288:     aead_algo = iobuf_get_noeof(inp);
	.loc 1 1288 17 view .LVU972
	ldr	ip, [r4, #32]	@ _309, inp_5->d.buf
	add	r1, r0, #1	@ pretmp_735, prephitmp_185,
	str	r1, [r4, #24]	@ pretmp_735, inp_5->d.start
.LVL320:
	.loc 1 1289 5 is_stmt 1 view .LVU973
@ src/parse-packet.c:1288:     aead_algo = iobuf_get_noeof(inp);
	.loc 1 1288 17 is_stmt 0 view .LVU974
	add	r2, r2, #1	@ tmp737, inp_5->nbytes,
	str	r2, [r4, #8]	@ tmp737, inp_5->nbytes
.LVL321:
@ src/parse-packet.c:1289:     pktlen--;
	.loc 1 1289 11 view .LVU975
	sub	r8, r5, #3	@ pktlen, pktlen,
.LVL322:
	.loc 1 1293 3 is_stmt 1 view .LVU976
@ src/parse-packet.c:1293:   if (pktlen < 2)
	.loc 1 1293 6 is_stmt 0 view .LVU977
	beq	.L84		@,
@ src/parse-packet.c:1288:     aead_algo = iobuf_get_noeof(inp);
	.loc 1 1288 17 view .LVU978
	ldrb	r10, [ip, r0]	@ zero_extendqisi2	@ aead_algo, *_311
	b	.L85		@
.LVL323:
.L195:
@ src/parse-packet.c:1299:   switch (s2kmode)
	.loc 1 1299 3 view .LVU979
	mov	r3, #8	@ prephitmp_955,
	b	.L92		@
.LVL324:
.L284:
	.loc 1 1299 3 view .LVU980
.LBE117:
.LBE174:
.LBB175:
.LBB124:
	.loc 1 3534 5 is_stmt 1 view .LVU981
	ldr	r0, .L292+204	@,
.LVL325:
	.loc 1 3534 5 is_stmt 0 view .LVU982
.LPIC51:
	add	r0, pc, r0	@,
	bl	tfp_printf(PLT)	@
.LVL326:
	.loc 1 3535 5 is_stmt 1 view .LVU983
	.loc 1 3535 5 is_stmt 0 view .LVU984
.LBE124:
.LBE175:
	.loc 2 966 3 is_stmt 1 view .LVU985
	.loc 2 951 3 view .LVU986
.LBB176:
.LBB125:
	.loc 1 3536 5 view .LVU987
	.loc 1 3536 5 is_stmt 0 view .LVU988
.LBE125:
.LBE176:
	.loc 1 987 3 is_stmt 1 view .LVU989
	mov	r1, r6	@, ctx
	mov	r0, #0	@,
	bl	free_packet(PLT)	@
.LVL327:
	.loc 1 988 3 view .LVU990
	.loc 1 1006 1 view .LVU991
	ldr	r0, .L292+208	@,
	mov	r1, r9	@, hdrlen
.LPIC52:
	add	r0, pc, r0	@,
	b	.L268		@
.LVL328:
.L285:
.LBB177:
.LBB143:
	.loc 1 3318 5 view .LVU992
	ldr	r0, .L292+212	@,
	mov	r2, r5	@, pktlen
	mov	r1, #11	@,
.LPIC32:
	add	r0, pc, r0	@,
	bl	tfp_printf(PLT)	@
.LVL329:
	.loc 1 3319 5 view .LVU993
	.loc 1 3321 5 view .LVU994
	.loc 1 3321 5 is_stmt 0 view .LVU995
.LBE143:
.LBE177:
	.loc 2 966 3 is_stmt 1 view .LVU996
	.loc 2 951 3 view .LVU997
.LBB178:
.LBB144:
	.loc 1 3322 5 view .LVU998
	.loc 1 3322 5 is_stmt 0 view .LVU999
.LBE144:
.LBE178:
	.loc 1 987 3 is_stmt 1 view .LVU1000
	mov	r1, r6	@, ctx
	mov	r0, #0	@,
	bl	free_packet(PLT)	@
.LVL330:
	.loc 1 988 3 view .LVU1001
	.loc 1 1006 1 view .LVU1002
	ldr	r0, .L292+216	@,
	mov	r1, r9	@, hdrlen
.LPIC33:
	add	r0, pc, r0	@,
	b	.L268		@
.LVL331:
.L282:
.LBB179:
.LBB118:
	.loc 1 1270 5 view .LVU1003
	ldr	r0, .L292+220	@,
	mov	r2, fp	@, iftmp.29_275
	mov	r1, #3	@,
@ src/parse-packet.c:1263:   pktlen--;
	.loc 1 1263 9 is_stmt 0 view .LVU1004
	mov	r5, r7	@ pktlen, pktlen
@ src/parse-packet.c:1270:     printf("packet(%d) with unknown version %d\n", pkttype, version);
	.loc 1 1270 5 view .LVU1005
.LPIC22:
	add	r0, pc, r0	@,
	bl	tfp_printf(PLT)	@
.LVL332:
	.loc 1 1271 5 is_stmt 1 view .LVU1006
	.loc 1 1273 5 view .LVU1007
	.loc 1 1273 5 is_stmt 0 view .LVU1008
.LBE118:
.LBE179:
	.loc 2 966 3 is_stmt 1 view .LVU1009
	.loc 2 951 3 view .LVU1010
.LBB180:
.LBB119:
	.loc 1 1274 5 view .LVU1011
	b	.L72		@
.LVL333:
.L289:
	.loc 1 1318 5 view .LVU1012
	ldr	r0, .L292+224	@,
	mov	r1, r7	@, iftmp.36_157
.LPIC25:
	add	r0, pc, r0	@,
	bl	tfp_printf(PLT)	@
.LVL334:
	.loc 1 1319 5 view .LVU1013
	.loc 1 1321 5 view .LVU1014
	.loc 1 1321 5 is_stmt 0 view .LVU1015
.LBE119:
.LBE180:
	.loc 2 966 3 is_stmt 1 view .LVU1016
	.loc 2 951 3 view .LVU1017
.LBB181:
.LBB120:
	.loc 1 1322 5 view .LVU1018
	b	.L72		@
.LVL335:
.L283:
	.loc 1 1278 5 view .LVU1019
	ldr	r0, .L292+228	@,
	mov	r1, #3	@,
@ src/parse-packet.c:1282:     goto leave;
	.loc 1 1282 5 is_stmt 0 view .LVU1020
	mov	r5, r7	@ pktlen, pktlen
@ src/parse-packet.c:1278:     printf("packet(%d) too large\n", pkttype);
	.loc 1 1278 5 view .LVU1021
.LPIC23:
	add	r0, pc, r0	@,
	bl	tfp_printf(PLT)	@
.LVL336:
	.loc 1 1279 5 is_stmt 1 view .LVU1022
	.loc 1 1281 5 view .LVU1023
	.loc 1 1281 5 is_stmt 0 view .LVU1024
.LBE120:
.LBE181:
	.loc 2 966 3 is_stmt 1 view .LVU1025
	.loc 2 951 3 view .LVU1026
.LBB182:
.LBB121:
	.loc 1 1282 5 view .LVU1027
	b	.L72		@
.LVL337:
.L112:
	.loc 1 1372 9 view .LVU1028
@ src/parse-packet.c:1373:             ", seskey %d bits\n", (seskeylen - 1) * 8);
	.loc 1 1373 46 is_stmt 0 view .LVU1029
	ldr	r3, [sp, #12]	@ seskeylen, %sfp
@ src/parse-packet.c:1372:         printf( // listfp,
	.loc 1 1372 9 view .LVU1030
	ldr	r0, .L292+232	@,
@ src/parse-packet.c:1373:             ", seskey %d bits\n", (seskeylen - 1) * 8);
	.loc 1 1373 46 view .LVU1031
	sub	r1, r3, #1	@ tmp805, seskeylen,
@ src/parse-packet.c:1372:         printf( // listfp,
	.loc 1 1372 9 view .LVU1032
.LPIC29:
	add	r0, pc, r0	@,
	lsl	r1, r1, #3	@, tmp805,
	bl	tfp_printf(PLT)	@
.LVL338:
	b	.L111		@
.LVL339:
.L101:
@ src/parse-packet.c:1338:     k->s2k.count = iobuf_get_noeof(inp);
	.loc 1 1338 20 view .LVU1033
	mov	r0, r4	@, inp
	bl	iobuf_readbyte(PLT)	@
.LVL340:
	.loc 1 1338 20 view .LVU1034
	uxtb	r3, r0	@ iftmp.46_386, tmp1094
	b	.L103		@
.LVL341:
.L125:
	.loc 1 1338 20 view .LVU1035
.LBE121:
.LBE182:
.LBB183:
.LBB145:
@ src/parse-packet.c:3339:     for (i = 0; pktlen > 4 && i < namelen; pktlen--, i++)
	.loc 1 3339 12 view .LVU1036
	mov	r10, r3	@ i, tmp847
.LVL342:
	.loc 1 3339 12 view .LVU1037
	b	.L130		@
.LBE145:
.LBE183:
	.cfi_endproc
.LFE50:
	.size	parse.constprop.0, .-parse.constprop.0
	.section	.rodata.dbg_parse_packet.str1.4,"aMS",%progbits,1
	.align	2
.LC40:
	.ascii	"dbg_parse_packet\012\000"
	.section	.text.dbg_parse_packet,"ax",%progbits
	.align	2
	.global	dbg_parse_packet
	.syntax unified
	.arm
	.fpu softvfp
	.type	dbg_parse_packet, %function
dbg_parse_packet:
.LVL343:
.LFB29:
	.loc 1 381 1 is_stmt 1 view -0
	.cfi_startproc
	@ args = 0, pretend = 0, frame = 8
	@ frame_needed = 0, uses_anonymous_args = 0
	.loc 1 382 3 view .LVU1039
@ src/parse-packet.c:381: {
	.loc 1 381 1 is_stmt 0 view .LVU1040
	push	{r4, r5, r6, r7, lr}	@
	.cfi_def_cfa_offset 20
	.cfi_offset 4, -20
	.cfi_offset 5, -16
	.cfi_offset 6, -12
	.cfi_offset 7, -8
	.cfi_offset 14, -4
	mov	r6, r0	@ tmp137, ctx
@ src/parse-packet.c:382:   printf("dbg_parse_packet\n");
	.loc 1 382 3 view .LVU1041
	ldr	r0, .L298	@,
.LVL344:
@ src/parse-packet.c:381: {
	.loc 1 381 1 view .LVU1042
	sub	sp, sp, #28	@,,
	.cfi_def_cfa_offset 48
	add	r7, sp, #20	@ tmp136,,
@ src/parse-packet.c:387:     rc = parse(ctx, pkt, 0, NULL, &skip, NULL, 0, "parse", dbg_f, dbg_l);
	.loc 1 387 10 view .LVU1043
	mov	r4, #0	@ tmp124,
@ src/parse-packet.c:382:   printf("dbg_parse_packet\n");
	.loc 1 382 3 view .LVU1044
.LPIC60:
	add	r0, pc, r0	@,
@ src/parse-packet.c:381: {
	.loc 1 381 1 view .LVU1045
	mov	r5, r1	@ pkt, tmp138
@ src/parse-packet.c:382:   printf("dbg_parse_packet\n");
	.loc 1 382 3 view .LVU1046
	bl	tfp_printf(PLT)	@
.LVL345:
.L295:
	.loc 1 383 3 is_stmt 1 discriminator 2 view .LVU1047
	.loc 1 385 3 discriminator 2 view .LVU1048
	.loc 1 387 5 discriminator 2 view .LVU1049
@ src/parse-packet.c:387:     rc = parse(ctx, pkt, 0, NULL, &skip, NULL, 0, "parse", dbg_f, dbg_l);
	.loc 1 387 10 is_stmt 0 discriminator 2 view .LVU1050
	str	r4, [sp, #8]	@ tmp124,
	mov	r3, #0	@,
	str	r4, [sp, #4]	@ tmp124,
	mov	r2, r3	@,
	str	r7, [sp]	@ tmp136,
	mov	r1, r5	@, pkt
	mov	r0, r6	@, ctx
	bl	parse.constprop.0(PLT)	@
.LVL346:
	.loc 1 388 11 is_stmt 1 discriminator 2 view .LVU1051
@ src/parse-packet.c:388:   } while (skip && !rc);
	.loc 1 388 3 is_stmt 0 discriminator 2 view .LVU1052
	ldr	r3, [sp, #20]	@ skip, skip
@ src/parse-packet.c:388:   } while (skip && !rc);
	.loc 1 388 17 discriminator 2 view .LVU1053
	subs	r3, r3, #0	@ tmp134, tmp134,
	movne	r3, #1	@ tmp134,
	cmp	r0, #0	@ tmp139,
	movne	r3, #0	@ tmp134,
	cmp	r3, #0	@ tmp134,
	bne	.L295		@,
	.loc 1 389 3 is_stmt 1 view .LVU1054
@ src/parse-packet.c:390: }
	.loc 1 390 1 is_stmt 0 view .LVU1055
	add	sp, sp, #28	@,,
	.cfi_def_cfa_offset 20
	@ sp needed	@
	pop	{r4, r5, r6, r7, pc}	@
.LVL347:
.L299:
	.loc 1 390 1 view .LVU1056
	.align	2
.L298:
	.word	.LC40-(.LPIC60+8)
	.cfi_endproc
.LFE29:
	.size	dbg_parse_packet, .-dbg_parse_packet
	.section	.text.dbg_search_packet,"ax",%progbits
	.align	2
	.global	dbg_search_packet
	.syntax unified
	.arm
	.fpu softvfp
	.type	dbg_search_packet, %function
dbg_search_packet:
.LVL348:
.LFB30:
	.loc 1 412 1 is_stmt 1 view -0
	.cfi_startproc
	@ args = 8, pretend = 0, frame = 8
	@ frame_needed = 0, uses_anonymous_args = 0
	.loc 1 412 1 is_stmt 0 view .LVU1058
	push	{r4, r5, r6, r7, r8, r9, lr}	@
	.cfi_def_cfa_offset 28
	.cfi_offset 4, -28
	.cfi_offset 5, -24
	.cfi_offset 6, -20
	.cfi_offset 7, -16
	.cfi_offset 8, -12
	.cfi_offset 9, -8
	.cfi_offset 14, -4
	cmp	r3, #0	@ tmp142,
	sub	sp, sp, #28	@,,
	.cfi_def_cfa_offset 56
@ src/parse-packet.c:412: {
	.loc 1 412 1 view .LVU1059
	mov	r7, r0	@ ctx, tmp139
	mov	r6, r1	@ pkt, tmp140
	mov	r5, r2	@ retpos, tmp141
	movne	r9, #2	@ iftmp.95_2,
	moveq	r9, #1	@ iftmp.95_2,
	add	r8, sp, #20	@ tmp138,,
@ src/parse-packet.c:417:     rc = parse(ctx, pkt, with_uid ? 2 : 1, retpos, &skip, NULL, 0, "search",
	.loc 1 417 10 view .LVU1060
	mov	r4, #0	@ tmp126,
.LVL349:
.L301:
	.loc 1 413 3 is_stmt 1 view .LVU1061
	.loc 1 415 3 view .LVU1062
	.loc 1 417 5 view .LVU1063
@ src/parse-packet.c:417:     rc = parse(ctx, pkt, with_uid ? 2 : 1, retpos, &skip, NULL, 0, "search",
	.loc 1 417 10 is_stmt 0 view .LVU1064
	str	r4, [sp, #8]	@ tmp126,
	mov	r3, r5	@, retpos
	str	r4, [sp, #4]	@ tmp126,
	mov	r2, r9	@, iftmp.95_2
	str	r8, [sp]	@ tmp138,
	mov	r1, r6	@, pkt
	mov	r0, r7	@, ctx
	bl	parse.constprop.0(PLT)	@
.LVL350:
@ src/parse-packet.c:419:   } while (skip && !rc);
	.loc 1 419 3 view .LVU1065
	ldr	ip, [sp, #20]	@ skip, skip
@ src/parse-packet.c:417:     rc = parse(ctx, pkt, with_uid ? 2 : 1, retpos, &skip, NULL, 0, "search",
	.loc 1 417 10 view .LVU1066
	mov	lr, r0	@ tmp143,
.LVL351:
	.loc 1 419 11 is_stmt 1 view .LVU1067
@ src/parse-packet.c:419:   } while (skip && !rc);
	.loc 1 419 17 is_stmt 0 view .LVU1068
	subs	ip, ip, #0	@ tmp136, tmp136,
	movne	ip, #1	@ tmp136,
	cmp	r0, #0	@ tmp143,
	movne	ip, #0	@ tmp136,
	cmp	ip, #0	@ tmp136,
	bne	.L301		@,
	.loc 1 420 3 is_stmt 1 view .LVU1069
@ src/parse-packet.c:421: }
	.loc 1 421 1 is_stmt 0 view .LVU1070
	add	sp, sp, #28	@,,
	.cfi_def_cfa_offset 28
	@ sp needed	@
	pop	{r4, r5, r6, r7, r8, r9, pc}	@
	.loc 1 421 1 view .LVU1071
	.cfi_endproc
.LFE30:
	.size	dbg_search_packet, .-dbg_search_packet
	.section	.rodata.dbg_copy_all_packets.str1.4,"aMS",%progbits,1
	.align	2
.LC41:
	.ascii	"copy_all_packets: OUT may not be NULL.\012\000"
	.section	.text.dbg_copy_all_packets,"ax",%progbits
	.align	2
	.global	dbg_copy_all_packets
	.syntax unified
	.arm
	.fpu softvfp
	.type	dbg_copy_all_packets, %function
dbg_copy_all_packets:
.LVL352:
.LFB31:
	.loc 1 441 1 is_stmt 1 view -0
	.cfi_startproc
	@ args = 0, pretend = 0, frame = 40
	@ frame_needed = 0, uses_anonymous_args = 0
	.loc 1 442 3 view .LVU1073
	.loc 1 443 3 view .LVU1074
	.loc 1 444 3 view .LVU1075
	.loc 1 446 3 view .LVU1076
@ src/parse-packet.c:441: {
	.loc 1 441 1 is_stmt 0 view .LVU1077
	push	{r4, r5, r6, r7, r8, r9, lr}	@
	.cfi_def_cfa_offset 28
	.cfi_offset 4, -28
	.cfi_offset 5, -24
	.cfi_offset 6, -20
	.cfi_offset 7, -16
	.cfi_offset 8, -12
	.cfi_offset 9, -8
	.cfi_offset 14, -4
@ src/parse-packet.c:446:   if (!out)
	.loc 1 446 6 view .LVU1078
	subs	r6, r1, #0	@ out, tmp141
@ src/parse-packet.c:441: {
	.loc 1 441 1 view .LVU1079
	sub	sp, sp, #60	@,,
	.cfi_def_cfa_offset 88
@ src/parse-packet.c:441: {
	.loc 1 441 1 view .LVU1080
	mov	r4, r0	@ inp, tmp140
@ src/parse-packet.c:446:   if (!out)
	.loc 1 446 6 view .LVU1081
	beq	.L314		@,
.LVL353:
.L305:
	.loc 1 449 3 is_stmt 1 view .LVU1082
	.loc 1 449 3 view .LVU1083
	str	r4, [sp, #32]	@ inp, parsectx.inp
	.loc 1 449 3 view .LVU1084
	add	r9, sp, #24	@ tmp138,,
	add	r7, sp, #32	@ tmp139,,
	add	r8, sp, #20	@ tmp137,,
	mov	r5, #0	@ tmp121,
	strb	r5, [sp, #36]	@ tmp121, parsectx.last_pkt.pkttype
	.loc 1 449 3 view .LVU1085
	str	r5, [sp, #40]	@ tmp121, parsectx.last_pkt.pkt.generic
	.loc 1 449 3 view .LVU1086
	str	r5, [sp, #44]	@ tmp121, parsectx.free_last_pkt
	.loc 1 449 3 view .LVU1087
	str	r5, [sp, #48]	@ tmp121, parsectx.skip_meta
	.loc 1 449 3 view .LVU1088
	str	r5, [sp, #52]	@ tmp121, parsectx.n_parsed_packets
.LVL354:
.L306:
	.loc 1 449 3 discriminator 1 view .LVU1089
	.loc 1 451 3 discriminator 1 view .LVU1090
	.loc 1 453 5 discriminator 1 view .LVU1091
	.loc 1 453 5 discriminator 1 view .LVU1092
@ src/parse-packet.c:455:                  parse(&parsectx, &pkt, 0, NULL, &skip, out, 0, "copy",
	.loc 1 455 18 is_stmt 0 discriminator 1 view .LVU1093
	str	r5, [sp, #8]	@ tmp121,
	mov	r3, #0	@,
	str	r6, [sp, #4]	@ out,
	mov	r2, r3	@,
	str	r8, [sp]	@ tmp137,
	mov	r1, r9	@, tmp138
@ src/parse-packet.c:453:     init_packet(&pkt);
	.loc 1 453 5 discriminator 1 view .LVU1094
	strb	r5, [sp, #24]	@ tmp121, pkt.pkttype
	.loc 1 453 5 is_stmt 1 discriminator 1 view .LVU1095
@ src/parse-packet.c:455:                  parse(&parsectx, &pkt, 0, NULL, &skip, out, 0, "copy",
	.loc 1 455 18 is_stmt 0 discriminator 1 view .LVU1096
	mov	r0, r7	@, tmp139
@ src/parse-packet.c:453:     init_packet(&pkt);
	.loc 1 453 5 discriminator 1 view .LVU1097
	str	r5, [sp, #28]	@ tmp121, pkt.pkt.generic
	.loc 1 453 5 is_stmt 1 discriminator 1 view .LVU1098
	.loc 1 454 11 discriminator 1 view .LVU1099
@ src/parse-packet.c:455:                  parse(&parsectx, &pkt, 0, NULL, &skip, out, 0, "copy",
	.loc 1 455 18 is_stmt 0 discriminator 1 view .LVU1100
	bl	parse.constprop.0(PLT)	@
.LVL355:
@ src/parse-packet.c:456:                        dbg_f, dbg_l)));
	.loc 1 456 24 discriminator 1 view .LVU1101
	subs	r4, r0, #0	@ <retval>, tmp142
	beq	.L306		@,
	.loc 1 458 3 is_stmt 1 view .LVU1102
	.loc 1 458 3 view .LVU1103
	ldr	r3, [sp, #44]	@ parsectx.free_last_pkt, parsectx.free_last_pkt
	cmp	r3, #0	@ parsectx.free_last_pkt,
	bne	.L315		@,
@ src/parse-packet.c:461: }
	.loc 1 461 1 is_stmt 0 view .LVU1104
	mov	r0, r4	@, <retval>
	.loc 1 461 1 view .LVU1105
	add	sp, sp, #60	@,,
	.cfi_remember_state
	.cfi_def_cfa_offset 28
	@ sp needed	@
	pop	{r4, r5, r6, r7, r8, r9, pc}	@
.LVL356:
.L315:
	.cfi_restore_state
	.loc 1 458 3 is_stmt 1 discriminator 1 view .LVU1106
	mov	r1, r7	@, tmp139
	mov	r0, #0	@,
.LVL357:
	.loc 1 458 3 is_stmt 0 discriminator 1 view .LVU1107
	bl	free_packet(PLT)	@
.LVL358:
	.loc 1 458 3 is_stmt 1 discriminator 1 view .LVU1108
	.loc 1 460 3 discriminator 1 view .LVU1109
@ src/parse-packet.c:461: }
	.loc 1 461 1 is_stmt 0 discriminator 1 view .LVU1110
	mov	r0, r4	@, <retval>
	add	sp, sp, #60	@,,
	.cfi_remember_state
	.cfi_def_cfa_offset 28
	@ sp needed	@
	pop	{r4, r5, r6, r7, r8, r9, pc}	@
.LVL359:
.L314:
	.cfi_restore_state
	.loc 1 447 5 is_stmt 1 view .LVU1111
	ldr	r0, .L316	@,
.LVL360:
	.loc 1 447 5 is_stmt 0 view .LVU1112
.LPIC61:
	add	r0, pc, r0	@,
	bl	tfp_printf(PLT)	@
.LVL361:
	.loc 1 447 5 view .LVU1113
	b	.L305		@
.L317:
	.align	2
.L316:
	.word	.LC41-(.LPIC61+8)
	.cfi_endproc
.LFE31:
	.size	dbg_copy_all_packets, .-dbg_copy_all_packets
	.section	.text.dbg_copy_some_packets,"ax",%progbits
	.align	2
	.global	dbg_copy_some_packets
	.syntax unified
	.arm
	.fpu softvfp
	.type	dbg_copy_some_packets, %function
dbg_copy_some_packets:
.LVL362:
.LFB32:
	.loc 1 493 1 is_stmt 1 view -0
	.cfi_startproc
	@ args = 4, pretend = 0, frame = 40
	@ frame_needed = 0, uses_anonymous_args = 0
	.loc 1 494 3 view .LVU1115
	.loc 1 495 3 view .LVU1116
	.loc 1 496 3 view .LVU1117
	.loc 1 497 3 view .LVU1118
	.loc 1 499 3 view .LVU1119
	.loc 1 499 3 view .LVU1120
@ src/parse-packet.c:493: {
	.loc 1 493 1 is_stmt 0 view .LVU1121
	push	{r4, r5, r6, r7, r8, r9, r10, lr}	@
	.cfi_def_cfa_offset 32
	.cfi_offset 4, -32
	.cfi_offset 5, -28
	.cfi_offset 6, -24
	.cfi_offset 7, -20
	.cfi_offset 8, -16
	.cfi_offset 9, -12
	.cfi_offset 10, -8
	.cfi_offset 14, -4
	sub	sp, sp, #56	@,,
	.cfi_def_cfa_offset 88
@ src/parse-packet.c:499:   init_parse_packet(&parsectx, inp);
	.loc 1 499 3 view .LVU1122
	mov	r5, #0	@ tmp121,
@ src/parse-packet.c:493: {
	.loc 1 493 1 view .LVU1123
	mov	r8, r1	@ out, tmp142
@ src/parse-packet.c:499:   init_parse_packet(&parsectx, inp);
	.loc 1 499 3 view .LVU1124
	strb	r5, [sp, #36]	@ tmp121, parsectx.last_pkt.pkttype
@ src/parse-packet.c:493: {
	.loc 1 493 1 view .LVU1125
	mov	r7, r2	@ stopoff, tmp143
@ src/parse-packet.c:499:   init_parse_packet(&parsectx, inp);
	.loc 1 499 3 view .LVU1126
	str	r0, [sp, #32]	@ inp, parsectx.inp
	.loc 1 499 3 is_stmt 1 view .LVU1127
	.loc 1 499 3 view .LVU1128
@ src/parse-packet.c:509:   } while (!(rc = parse(&parsectx, &pkt, 0, NULL, &skip, out, 0,
	.loc 1 509 19 is_stmt 0 view .LVU1129
	add	r10, sp, #24	@ tmp139,,
@ src/parse-packet.c:499:   init_parse_packet(&parsectx, inp);
	.loc 1 499 3 view .LVU1130
	str	r5, [sp, #40]	@ tmp121, parsectx.last_pkt.pkt.generic
	.loc 1 499 3 is_stmt 1 view .LVU1131
@ src/parse-packet.c:509:   } while (!(rc = parse(&parsectx, &pkt, 0, NULL, &skip, out, 0,
	.loc 1 509 19 is_stmt 0 view .LVU1132
	add	r9, sp, #32	@ tmp140,,
@ src/parse-packet.c:499:   init_parse_packet(&parsectx, inp);
	.loc 1 499 3 view .LVU1133
	str	r5, [sp, #44]	@ tmp121, parsectx.free_last_pkt
	.loc 1 499 3 is_stmt 1 view .LVU1134
@ src/parse-packet.c:493: {
	.loc 1 493 1 is_stmt 0 view .LVU1135
	mov	r6, r0	@ inp, tmp141
@ src/parse-packet.c:499:   init_parse_packet(&parsectx, inp);
	.loc 1 499 3 view .LVU1136
	str	r5, [sp, #48]	@ tmp121, parsectx.skip_meta
	.loc 1 499 3 is_stmt 1 view .LVU1137
	str	r5, [sp, #52]	@ tmp121, parsectx.n_parsed_packets
	b	.L321		@
.LVL363:
.L319:
@ src/parse-packet.c:509:   } while (!(rc = parse(&parsectx, &pkt, 0, NULL, &skip, out, 0,
	.loc 1 509 19 is_stmt 0 view .LVU1138
	str	r5, [sp, #8]	@ tmp121,
	str	r8, [sp, #4]	@ out,
	str	ip, [sp]	@ tmp134,
@ src/parse-packet.c:508:     init_packet(&pkt);
	.loc 1 508 5 view .LVU1139
	strb	r5, [sp, #24]	@ tmp121, pkt.pkttype
	.loc 1 508 5 is_stmt 1 view .LVU1140
	str	r5, [sp, #28]	@ tmp121, pkt.pkt.generic
	.loc 1 508 5 view .LVU1141
	.loc 1 509 11 view .LVU1142
@ src/parse-packet.c:509:   } while (!(rc = parse(&parsectx, &pkt, 0, NULL, &skip, out, 0,
	.loc 1 509 19 is_stmt 0 view .LVU1143
	bl	parse.constprop.0(PLT)	@
.LVL364:
@ src/parse-packet.c:510:                         "some", dbg_f, dbg_l)));
	.loc 1 510 25 view .LVU1144
	subs	r4, r0, #0	@ <retval>, tmp145
	bne	.L331		@,
.LVL365:
.L321:
	.loc 1 499 3 is_stmt 1 discriminator 1 view .LVU1145
	.loc 1 501 3 discriminator 1 view .LVU1146
	.loc 1 503 5 discriminator 1 view .LVU1147
@ src/parse-packet.c:503:     if (iobuf_tell(inp) >= stopoff)
	.loc 1 503 9 is_stmt 0 discriminator 1 view .LVU1148
	mov	r0, r6	@, inp
	bl	iobuf_tell(PLT)	@
.LVL366:
	.loc 1 508 5 is_stmt 1 discriminator 1 view .LVU1149
	.loc 1 508 5 discriminator 1 view .LVU1150
@ src/parse-packet.c:503:     if (iobuf_tell(inp) >= stopoff)
	.loc 1 503 8 is_stmt 0 discriminator 1 view .LVU1151
	cmp	r0, r7	@ tmp144, stopoff
@ src/parse-packet.c:509:   } while (!(rc = parse(&parsectx, &pkt, 0, NULL, &skip, out, 0,
	.loc 1 509 19 discriminator 1 view .LVU1152
	mov	r3, #0	@,
	add	ip, sp, #20	@ tmp134,,
	mov	r2, r3	@,
	mov	r1, r10	@, tmp139
	mov	r0, r9	@, tmp140
@ src/parse-packet.c:503:     if (iobuf_tell(inp) >= stopoff)
	.loc 1 503 8 discriminator 1 view .LVU1153
	blt	.L319		@,
	.loc 1 505 7 is_stmt 1 view .LVU1154
	.loc 1 505 7 view .LVU1155
	ldr	r4, [sp, #44]	@ <retval>, parsectx.free_last_pkt
	cmp	r4, r3	@ <retval>, tmp2
	bne	.L332		@,
.L318:
@ src/parse-packet.c:515: }
	.loc 1 515 1 is_stmt 0 view .LVU1156
	mov	r0, r4	@, <retval>
	add	sp, sp, #56	@,,
	.cfi_remember_state
	.cfi_def_cfa_offset 32
	@ sp needed	@
	pop	{r4, r5, r6, r7, r8, r9, r10, pc}	@
.LVL367:
.L331:
	.cfi_restore_state
	.loc 1 512 3 is_stmt 1 view .LVU1157
	.loc 1 512 3 view .LVU1158
	ldr	r3, [sp, #44]	@ parsectx.free_last_pkt, parsectx.free_last_pkt
	cmp	r3, #0	@ parsectx.free_last_pkt,
	beq	.L318		@,
	.loc 1 512 3 discriminator 1 view .LVU1159
	mov	r1, r9	@, tmp140
	mov	r0, #0	@,
.LVL368:
	.loc 1 512 3 is_stmt 0 discriminator 1 view .LVU1160
	bl	free_packet(PLT)	@
.LVL369:
@ src/parse-packet.c:515: }
	.loc 1 515 1 discriminator 1 view .LVU1161
	mov	r0, r4	@, <retval>
	add	sp, sp, #56	@,,
	.cfi_remember_state
	.cfi_def_cfa_offset 32
	@ sp needed	@
	pop	{r4, r5, r6, r7, r8, r9, r10, pc}	@
.LVL370:
.L332:
	.cfi_restore_state
	.loc 1 505 7 is_stmt 1 discriminator 1 view .LVU1162
	mov	r0, r3	@, tmp2
	add	r1, sp, #32	@,,
@ src/parse-packet.c:506:       return 0;
	.loc 1 506 14 is_stmt 0 discriminator 1 view .LVU1163
	mov	r4, r3	@ <retval>,
@ src/parse-packet.c:505:       deinit_parse_packet(&parsectx);
	.loc 1 505 7 discriminator 1 view .LVU1164
	bl	free_packet(PLT)	@
.LVL371:
@ src/parse-packet.c:515: }
	.loc 1 515 1 discriminator 1 view .LVU1165
	mov	r0, r4	@, <retval>
	add	sp, sp, #56	@,,
	.cfi_def_cfa_offset 32
	@ sp needed	@
	pop	{r4, r5, r6, r7, r8, r9, r10, pc}	@
	.loc 1 515 1 discriminator 1 view .LVU1166
	.cfi_endproc
.LFE32:
	.size	dbg_copy_some_packets, .-dbg_copy_some_packets
	.section	.text.dbg_skip_some_packets,"ax",%progbits
	.align	2
	.global	dbg_skip_some_packets
	.syntax unified
	.arm
	.fpu softvfp
	.type	dbg_skip_some_packets, %function
dbg_skip_some_packets:
.LVL372:
.LFB33:
	.loc 1 547 1 is_stmt 1 view -0
	.cfi_startproc
	@ args = 0, pretend = 0, frame = 40
	@ frame_needed = 0, uses_anonymous_args = 0
	.loc 1 548 3 view .LVU1168
	.loc 1 549 3 view .LVU1169
	.loc 1 550 3 view .LVU1170
	.loc 1 551 3 view .LVU1171
	.loc 1 553 3 view .LVU1172
	.loc 1 553 3 view .LVU1173
@ src/parse-packet.c:547: {
	.loc 1 547 1 is_stmt 0 view .LVU1174
	push	{r4, r5, r6, r7, r8, r9, r10, lr}	@
	.cfi_def_cfa_offset 32
	.cfi_offset 4, -32
	.cfi_offset 5, -28
	.cfi_offset 6, -24
	.cfi_offset 7, -20
	.cfi_offset 8, -16
	.cfi_offset 9, -12
	.cfi_offset 10, -8
	.cfi_offset 14, -4
@ src/parse-packet.c:555:   for (; n && !rc; n--)
	.loc 1 555 3 view .LVU1175
	subs	r6, r1, #0	@ n, tmp150
@ src/parse-packet.c:547: {
	.loc 1 547 1 view .LVU1176
	sub	sp, sp, #56	@,,
	.cfi_def_cfa_offset 88
@ src/parse-packet.c:553:   init_parse_packet(&parsectx, inp);
	.loc 1 553 3 view .LVU1177
	mov	r5, #0	@ tmp122,
	strb	r5, [sp, #36]	@ tmp122, parsectx.last_pkt.pkttype
	str	r5, [sp, #40]	@ tmp122, parsectx.last_pkt.pkt.generic
	str	r0, [sp, #32]	@ tmp149, parsectx.inp
	.loc 1 553 3 is_stmt 1 view .LVU1178
	.loc 1 553 3 view .LVU1179
	.loc 1 553 3 view .LVU1180
	str	r5, [sp, #44]	@ tmp122, parsectx.free_last_pkt
	.loc 1 553 3 view .LVU1181
	str	r5, [sp, #48]	@ tmp122, parsectx.skip_meta
	.loc 1 553 3 view .LVU1182
	str	r5, [sp, #52]	@ tmp122, parsectx.n_parsed_packets
	.loc 1 553 3 view .LVU1183
	.loc 1 555 3 view .LVU1184
	.loc 1 555 10 view .LVU1185
@ src/parse-packet.c:555:   for (; n && !rc; n--)
	.loc 1 555 3 is_stmt 0 view .LVU1186
	beq	.L336		@,
	add	r10, sp, #24	@ tmp147,,
	add	r7, sp, #32	@ tmp148,,
	add	r9, sp, #20	@ tmp146,,
@ src/parse-packet.c:558:     rc = parse(&parsectx, &pkt, 0, NULL, &skip, NULL, 1, "skip",
	.loc 1 558 10 view .LVU1187
	mov	r8, #1	@ tmp133,
.LVL373:
.L335:
	.loc 1 557 5 is_stmt 1 discriminator 2 view .LVU1188
	.loc 1 557 5 discriminator 2 view .LVU1189
@ src/parse-packet.c:558:     rc = parse(&parsectx, &pkt, 0, NULL, &skip, NULL, 1, "skip",
	.loc 1 558 10 is_stmt 0 discriminator 2 view .LVU1190
	str	r8, [sp, #8]	@ tmp133,
	mov	r3, #0	@,
	str	r5, [sp, #4]	@ tmp122,
	mov	r2, r3	@,
	str	r9, [sp]	@ tmp146,
	mov	r1, r10	@, tmp147
@ src/parse-packet.c:557:     init_packet(&pkt);
	.loc 1 557 5 discriminator 2 view .LVU1191
	strb	r5, [sp, #24]	@ tmp122, pkt.pkttype
	.loc 1 557 5 is_stmt 1 discriminator 2 view .LVU1192
@ src/parse-packet.c:558:     rc = parse(&parsectx, &pkt, 0, NULL, &skip, NULL, 1, "skip",
	.loc 1 558 10 is_stmt 0 discriminator 2 view .LVU1193
	mov	r0, r7	@, tmp148
@ src/parse-packet.c:557:     init_packet(&pkt);
	.loc 1 557 5 discriminator 2 view .LVU1194
	str	r5, [sp, #28]	@ tmp122, pkt.pkt.generic
	.loc 1 557 5 is_stmt 1 discriminator 2 view .LVU1195
	.loc 1 558 5 discriminator 2 view .LVU1196
@ src/parse-packet.c:558:     rc = parse(&parsectx, &pkt, 0, NULL, &skip, NULL, 1, "skip",
	.loc 1 558 10 is_stmt 0 discriminator 2 view .LVU1197
	bl	parse.constprop.0(PLT)	@
.LVL374:
	.loc 1 555 20 is_stmt 1 discriminator 2 view .LVU1198
	.loc 1 555 10 discriminator 2 view .LVU1199
	subs	r6, r6, #1	@ n, n,
.LVL375:
@ src/parse-packet.c:555:   for (; n && !rc; n--)
	.loc 1 555 15 is_stmt 0 discriminator 2 view .LVU1200
	mov	r4, r0	@ <retval>, tmp151
@ src/parse-packet.c:555:   for (; n && !rc; n--)
	.loc 1 555 10 discriminator 2 view .LVU1201
	movne	r0, #1	@ tmp137,
.LVL376:
	.loc 1 555 10 discriminator 2 view .LVU1202
	moveq	r0, #0	@ tmp137,
@ src/parse-packet.c:555:   for (; n && !rc; n--)
	.loc 1 555 3 discriminator 2 view .LVU1203
	cmp	r4, #0	@ <retval>,
	movne	r0, #0	@, tmp142
	andeq	r0, r0, #1	@,, tmp142, tmp137
	cmp	r0, #0	@ tmp142,
	bne	.L335		@,
	.loc 1 562 3 is_stmt 1 view .LVU1204
	.loc 1 562 3 view .LVU1205
	ldr	r3, [sp, #44]	@ parsectx.free_last_pkt, parsectx.free_last_pkt
	cmp	r3, #0	@ parsectx.free_last_pkt,
	beq	.L333		@,
	.loc 1 562 3 discriminator 1 view .LVU1206
	mov	r1, r7	@, tmp148
	bl	free_packet(PLT)	@
.LVL377:
.L333:
@ src/parse-packet.c:565: }
	.loc 1 565 1 is_stmt 0 view .LVU1207
	mov	r0, r4	@, <retval>
	add	sp, sp, #56	@,,
	.cfi_remember_state
	.cfi_def_cfa_offset 32
	@ sp needed	@
	pop	{r4, r5, r6, r7, r8, r9, r10, pc}	@
.LVL378:
.L336:
	.cfi_restore_state
@ src/parse-packet.c:548:   int rc = 0;
	.loc 1 548 7 view .LVU1208
	mov	r4, r6	@ <retval>, n
	.loc 1 562 3 is_stmt 1 view .LVU1209
	.loc 1 564 3 view .LVU1210
@ src/parse-packet.c:565: }
	.loc 1 565 1 is_stmt 0 view .LVU1211
	mov	r0, r4	@, <retval>
.LVL379:
	.loc 1 565 1 view .LVU1212
	add	sp, sp, #56	@,,
	.cfi_def_cfa_offset 32
	@ sp needed	@
	pop	{r4, r5, r6, r7, r8, r9, r10, pc}	@
	.cfi_endproc
.LFE33:
	.size	dbg_skip_some_packets, .-dbg_skip_some_packets
	.section	.text.create_gpg_control,"ax",%progbits
	.align	2
	.global	create_gpg_control
	.syntax unified
	.arm
	.fpu softvfp
	.type	create_gpg_control, %function
create_gpg_control:
.LVL380:
.LFB46:
	.loc 1 3699 1 is_stmt 1 view -0
	.cfi_startproc
	@ args = 0, pretend = 0, frame = 0
	@ frame_needed = 0, uses_anonymous_args = 0
	.loc 1 3699 1 is_stmt 0 view .LVU1214
	push	{r4, r5, r6, r7, r8, lr}	@
	.cfi_def_cfa_offset 24
	.cfi_offset 4, -24
	.cfi_offset 5, -20
	.cfi_offset 6, -16
	.cfi_offset 7, -12
	.cfi_offset 8, -8
	.cfi_offset 14, -4
@ src/parse-packet.c:3699: {
	.loc 1 3699 1 view .LVU1215
	mov	r7, r0	@ tmp130, type
@ src/parse-packet.c:3703:   packet = xmalloc(sizeof *packet);
	.loc 1 3703 12 view .LVU1216
	mov	r0, #8	@,
.LVL381:
@ src/parse-packet.c:3699: {
	.loc 1 3699 1 view .LVU1217
	mov	r5, r2	@ datalen, tmp132
	mov	r4, r1	@ data, tmp131
	.loc 1 3700 3 is_stmt 1 view .LVU1218
	.loc 1 3701 3 view .LVU1219
	.loc 1 3703 3 view .LVU1220
@ src/parse-packet.c:3703:   packet = xmalloc(sizeof *packet);
	.loc 1 3703 12 is_stmt 0 view .LVU1221
	bl	xmalloc(PLT)	@
.LVL382:
@ src/parse-packet.c:3704:   init_packet(packet);
	.loc 1 3704 3 view .LVU1222
	mov	r3, #0	@ tmp123,
@ src/parse-packet.c:3703:   packet = xmalloc(sizeof *packet);
	.loc 1 3703 12 view .LVU1223
	mov	r6, r0	@ <retval>, tmp133
.LVL383:
	.loc 1 3704 3 is_stmt 1 view .LVU1224
	.loc 1 3704 3 view .LVU1225
	.loc 1 3704 3 view .LVU1226
	str	r3, [r0, #4]	@ tmp123, packet_11->pkt.generic
	.loc 1 3704 3 view .LVU1227
	.loc 1 3705 3 view .LVU1228
@ src/parse-packet.c:3705:   packet->pkttype = PKT_GPG_CONTROL;
	.loc 1 3705 19 is_stmt 0 view .LVU1229
	mov	r3, #63	@ tmp124,
	strb	r3, [r0]	@ tmp124, packet_11->pkttype
	.loc 1 3706 3 is_stmt 1 view .LVU1230
@ src/parse-packet.c:3706:   packet->pkt.gpg_control = xmalloc(sizeof *packet->pkt.gpg_control + datalen - 1);
	.loc 1 3706 29 is_stmt 0 view .LVU1231
	add	r0, r5, #11	@, datalen,
.LVL384:
	.loc 1 3706 29 view .LVU1232
	bl	xmalloc(PLT)	@
.LVL385:
@ src/parse-packet.c:3706:   packet->pkt.gpg_control = xmalloc(sizeof *packet->pkt.gpg_control + datalen - 1);
	.loc 1 3706 27 view .LVU1233
	str	r0, [r6, #4]	@ _2, packet_11->pkt.gpg_control
	.loc 1 3707 3 is_stmt 1 view .LVU1234
@ src/parse-packet.c:3710:   for (; datalen; datalen--, p++)
	.loc 1 3710 3 is_stmt 0 view .LVU1235
	cmp	r5, #0	@ datalen,
@ src/parse-packet.c:3707:   packet->pkt.gpg_control->control = type;
	.loc 1 3707 36 view .LVU1236
	str	r7, [r0]	@ type, MEM[(struct PKT_gpg_control *)_2].control
	.loc 1 3708 3 is_stmt 1 view .LVU1237
@ src/parse-packet.c:3708:   packet->pkt.gpg_control->datalen = datalen;
	.loc 1 3708 36 is_stmt 0 view .LVU1238
	str	r5, [r0, #4]	@ datalen, MEM[(struct PKT_gpg_control *)_2].datalen
	.loc 1 3709 3 is_stmt 1 view .LVU1239
.LVL386:
	.loc 1 3710 3 view .LVU1240
	.loc 1 3710 10 view .LVU1241
@ src/parse-packet.c:3710:   for (; datalen; datalen--, p++)
	.loc 1 3710 3 is_stmt 0 view .LVU1242
	beq	.L342		@,
	add	r1, r4, r5	@ _34, data, datalen
	add	r3, r0, #8	@ p, _2,
.LVL387:
.L344:
	.loc 1 3711 5 is_stmt 1 discriminator 2 view .LVU1243
@ src/parse-packet.c:3711:     *p = *data++;
	.loc 1 3711 10 is_stmt 0 discriminator 2 view .LVU1244
	ldrb	r2, [r4], #1	@ zero_extendqisi2	@ _4, MEM[base: data_22, offset: 4294967295B]
.LVL388:
@ src/parse-packet.c:3710:   for (; datalen; datalen--, p++)
	.loc 1 3710 3 discriminator 2 view .LVU1245
	cmp	r4, r1	@ data, _34
@ src/parse-packet.c:3711:     *p = *data++;
	.loc 1 3711 8 discriminator 2 view .LVU1246
	strb	r2, [r3], #1	@ _4, MEM[base: p_32, offset: 0B]
.LVL389:
	.loc 1 3710 19 is_stmt 1 discriminator 2 view .LVU1247
	.loc 1 3710 10 discriminator 2 view .LVU1248
@ src/parse-packet.c:3710:   for (; datalen; datalen--, p++)
	.loc 1 3710 3 is_stmt 0 discriminator 2 view .LVU1249
	bne	.L344		@,
.LVL390:
.L342:
@ src/parse-packet.c:3714: }
	.loc 1 3714 1 view .LVU1250
	mov	r0, r6	@, <retval>
	pop	{r4, r5, r6, r7, r8, pc}	@
	.cfi_endproc
.LFE46:
	.size	create_gpg_control, .-create_gpg_control
	.section	.rodata.str1.4,"aMS",%progbits,1
	.align	2
.LC42:
	.ascii	"PUBKEY_ENC\000"
	.align	2
.LC43:
	.ascii	"SIGNATURE\000"
	.align	2
.LC44:
	.ascii	"SYMKEY_ENC\000"
	.align	2
.LC45:
	.ascii	"ONEPASS_SIG\000"
	.align	2
.LC46:
	.ascii	"SECRET_KEY\000"
	.align	2
.LC47:
	.ascii	"PUBLIC_KEY\000"
	.align	2
.LC48:
	.ascii	"SECRET_SUBKEY\000"
	.align	2
.LC49:
	.ascii	"COMPRESSED\000"
	.align	2
.LC50:
	.ascii	"ENCRYPTED\000"
	.align	2
.LC51:
	.ascii	"MARKER\000"
	.align	2
.LC52:
	.ascii	"PLAINTEXT\000"
	.align	2
.LC53:
	.ascii	"RING_TRUST\000"
	.align	2
.LC54:
	.ascii	"PUBLIC_SUBKEY\000"
	.align	2
.LC55:
	.ascii	"OLD_COMMENT\000"
	.align	2
.LC56:
	.ascii	"ATTRIBUTE\000"
	.align	2
.LC57:
	.ascii	"ENCRYPTED_MDC\000"
	.align	2
.LC58:
	.ascii	"MDC\000"
	.align	2
.LC59:
	.ascii	"ENCRYPTED_AEAD\000"
	.align	2
.LC60:
	.ascii	"COMMENT\000"
	.align	2
.LC61:
	.ascii	"GPG_CONTROL\000"
	.section	.data.rel.ro.local.pkt_type_str.0,"aw"
	.align	2
	.set	.LANCHOR0,. + 0
	.type	pkt_type_str.0, %object
	.size	pkt_type_str.0, 256
pkt_type_str.0:
	.space	4
	.word	.LC42
	.word	.LC43
	.word	.LC44
	.word	.LC45
	.word	.LC46
	.word	.LC47
	.word	.LC48
	.word	.LC49
	.word	.LC50
	.word	.LC51
	.word	.LC52
	.word	.LC53
	.word	.LC39
	.word	.LC54
	.space	4
	.word	.LC55
	.word	.LC56
	.word	.LC57
	.word	.LC58
	.word	.LC59
	.space	160
	.word	.LC60
	.space	4
	.word	.LC61
	.text
.Letext0:
	.file 4 "/usr/lib/gcc/arm-none-eabi/10.3.1/include/stddef.h"
	.file 5 "/usr/include/newlib/sys/_types.h"
	.file 6 "/usr/include/newlib/sys/types.h"
	.file 7 "src/libgcrypt.h"
	.file 8 "src/common/../common/strlist.h"
	.file 9 "src/common/iobuf.h"
	.file 10 "src/common/openpgpdefs.h"
	.file 11 "src/gcrypt.h"
	.file 12 "src/packet.h"
	.file 13 "src/memory.h"
	.file 14 "src/printf.h"
	.file 15 "src/filter.h"
	.section	.debug_info,"",%progbits
.Ldebug_info0:
	.4byte	0x3ced
	.2byte	0x4
	.4byte	.Ldebug_abbrev0
	.byte	0x4
	.uleb128 0x1
	.4byte	.LASF907
	.byte	0xc
	.4byte	.LASF908
	.4byte	.LASF909
	.4byte	.Ldebug_ranges0+0x1b0
	.4byte	0
	.4byte	.Ldebug_line0
	.uleb128 0x2
	.byte	0x1
	.byte	0x6
	.4byte	.LASF0
	.uleb128 0x2
	.byte	0x1
	.byte	0x8
	.4byte	.LASF1
	.uleb128 0x3
	.4byte	0x2c
	.uleb128 0x2
	.byte	0x2
	.byte	0x5
	.4byte	.LASF2
	.uleb128 0x2
	.byte	0x2
	.byte	0x7
	.4byte	.LASF3
	.uleb128 0x2
	.byte	0x4
	.byte	0x5
	.4byte	.LASF4
	.uleb128 0x2
	.byte	0x4
	.byte	0x7
	.4byte	.LASF5
	.uleb128 0x2
	.byte	0x8
	.byte	0x5
	.4byte	.LASF6
	.uleb128 0x2
	.byte	0x8
	.byte	0x7
	.4byte	.LASF7
	.uleb128 0x4
	.byte	0x4
	.byte	0x5
	.ascii	"int\000"
	.uleb128 0x2
	.byte	0x4
	.byte	0x7
	.4byte	.LASF8
	.uleb128 0x5
	.4byte	.LASF10
	.byte	0x4
	.byte	0xd1
	.byte	0x17
	.4byte	0x69
	.uleb128 0x2
	.byte	0x8
	.byte	0x4
	.4byte	.LASF9
	.uleb128 0x6
	.byte	0x4
	.uleb128 0x5
	.4byte	.LASF11
	.byte	0x5
	.byte	0x2e
	.byte	0xe
	.4byte	0x46
	.uleb128 0x5
	.4byte	.LASF12
	.byte	0x5
	.byte	0x66
	.byte	0x10
	.4byte	0x85
	.uleb128 0x7
	.byte	0x4
	.4byte	0x2c
	.uleb128 0x7
	.byte	0x4
	.4byte	0xa9
	.uleb128 0x2
	.byte	0x1
	.byte	0x8
	.4byte	.LASF13
	.uleb128 0x3
	.4byte	0xa9
	.uleb128 0x7
	.byte	0x4
	.4byte	0xb0
	.uleb128 0x5
	.4byte	.LASF14
	.byte	0x6
	.byte	0x5d
	.byte	0x17
	.4byte	0x4d
	.uleb128 0x5
	.4byte	.LASF15
	.byte	0x6
	.byte	0x9d
	.byte	0x12
	.4byte	0x91
	.uleb128 0x7
	.byte	0x4
	.4byte	0xc7
	.uleb128 0x7
	.byte	0x4
	.4byte	0xdf
	.uleb128 0x8
	.uleb128 0x9
	.ascii	"u16\000"
	.byte	0x7
	.byte	0xb
	.byte	0x1c
	.4byte	0x3f
	.uleb128 0x9
	.ascii	"u32\000"
	.byte	0x7
	.byte	0xc
	.byte	0x16
	.4byte	0x69
	.uleb128 0x5
	.4byte	.LASF16
	.byte	0x7
	.byte	0xd
	.byte	0x17
	.4byte	0x2c
	.uleb128 0x3
	.4byte	0xf8
	.uleb128 0xa
	.4byte	0xa9
	.4byte	0x119
	.uleb128 0xb
	.4byte	0x69
	.byte	0
	.byte	0
	.uleb128 0x2
	.byte	0x4
	.byte	0x4
	.4byte	.LASF17
	.uleb128 0x2
	.byte	0x8
	.byte	0x4
	.4byte	.LASF18
	.uleb128 0xc
	.4byte	.LASF636
	.byte	0xc
	.byte	0x8
	.byte	0x22
	.byte	0x8
	.4byte	0x15a
	.uleb128 0xd
	.4byte	.LASF19
	.byte	0x8
	.byte	0x24
	.byte	0x17
	.4byte	0x15a
	.byte	0
	.uleb128 0xd
	.4byte	.LASF20
	.byte	0x8
	.byte	0x25
	.byte	0x10
	.4byte	0x69
	.byte	0x4
	.uleb128 0xe
	.ascii	"d\000"
	.byte	0x8
	.byte	0x26
	.byte	0x8
	.4byte	0x109
	.byte	0x8
	.byte	0
	.uleb128 0x7
	.byte	0x4
	.4byte	0x127
	.uleb128 0x5
	.4byte	.LASF21
	.byte	0x8
	.byte	0x28
	.byte	0x1d
	.4byte	0x15a
	.uleb128 0xf
	.byte	0x7
	.byte	0x1
	.4byte	0x2c
	.byte	0x2
	.byte	0x6c
	.byte	0x3
	.4byte	0x211
	.uleb128 0x10
	.4byte	.LASF22
	.byte	0
	.uleb128 0x10
	.4byte	.LASF23
	.byte	0x1
	.uleb128 0x10
	.4byte	.LASF24
	.byte	0x2
	.uleb128 0x10
	.4byte	.LASF25
	.byte	0x3
	.uleb128 0x10
	.4byte	.LASF26
	.byte	0x4
	.uleb128 0x10
	.4byte	.LASF27
	.byte	0x5
	.uleb128 0x10
	.4byte	.LASF28
	.byte	0x6
	.uleb128 0x10
	.4byte	.LASF29
	.byte	0x7
	.uleb128 0x10
	.4byte	.LASF30
	.byte	0x8
	.uleb128 0x10
	.4byte	.LASF31
	.byte	0x9
	.uleb128 0x10
	.4byte	.LASF32
	.byte	0xa
	.uleb128 0x10
	.4byte	.LASF33
	.byte	0xb
	.uleb128 0x10
	.4byte	.LASF34
	.byte	0xc
	.uleb128 0x10
	.4byte	.LASF35
	.byte	0xd
	.uleb128 0x10
	.4byte	.LASF36
	.byte	0xe
	.uleb128 0x10
	.4byte	.LASF37
	.byte	0xf
	.uleb128 0x10
	.4byte	.LASF38
	.byte	0x10
	.uleb128 0x10
	.4byte	.LASF39
	.byte	0x11
	.uleb128 0x10
	.4byte	.LASF40
	.byte	0x12
	.uleb128 0x10
	.4byte	.LASF41
	.byte	0x1f
	.uleb128 0x10
	.4byte	.LASF42
	.byte	0x20
	.uleb128 0x10
	.4byte	.LASF43
	.byte	0x21
	.uleb128 0x10
	.4byte	.LASF44
	.byte	0x22
	.uleb128 0x10
	.4byte	.LASF45
	.byte	0x23
	.uleb128 0x10
	.4byte	.LASF46
	.byte	0x80
	.byte	0
	.uleb128 0x5
	.4byte	.LASF47
	.byte	0x2
	.byte	0x88
	.byte	0x5
	.4byte	0x16c
	.uleb128 0xf
	.byte	0x7
	.byte	0x4
	.4byte	0x69
	.byte	0x2
	.byte	0x90
	.byte	0x3
	.4byte	0x1122
	.uleb128 0x10
	.4byte	.LASF48
	.byte	0
	.uleb128 0x10
	.4byte	.LASF49
	.byte	0x1
	.uleb128 0x10
	.4byte	.LASF50
	.byte	0x2
	.uleb128 0x10
	.4byte	.LASF51
	.byte	0x3
	.uleb128 0x10
	.4byte	.LASF52
	.byte	0x4
	.uleb128 0x10
	.4byte	.LASF53
	.byte	0x5
	.uleb128 0x10
	.4byte	.LASF54
	.byte	0x6
	.uleb128 0x10
	.4byte	.LASF55
	.byte	0x7
	.uleb128 0x10
	.4byte	.LASF56
	.byte	0x8
	.uleb128 0x10
	.4byte	.LASF57
	.byte	0x9
	.uleb128 0x10
	.4byte	.LASF58
	.byte	0xa
	.uleb128 0x10
	.4byte	.LASF59
	.byte	0xb
	.uleb128 0x10
	.4byte	.LASF60
	.byte	0xc
	.uleb128 0x10
	.4byte	.LASF61
	.byte	0xd
	.uleb128 0x10
	.4byte	.LASF62
	.byte	0xe
	.uleb128 0x10
	.4byte	.LASF63
	.byte	0xf
	.uleb128 0x10
	.4byte	.LASF64
	.byte	0x10
	.uleb128 0x10
	.4byte	.LASF65
	.byte	0x11
	.uleb128 0x10
	.4byte	.LASF66
	.byte	0x12
	.uleb128 0x10
	.4byte	.LASF67
	.byte	0x13
	.uleb128 0x10
	.4byte	.LASF68
	.byte	0x14
	.uleb128 0x10
	.4byte	.LASF69
	.byte	0x15
	.uleb128 0x10
	.4byte	.LASF70
	.byte	0x16
	.uleb128 0x10
	.4byte	.LASF71
	.byte	0x17
	.uleb128 0x10
	.4byte	.LASF72
	.byte	0x18
	.uleb128 0x10
	.4byte	.LASF73
	.byte	0x19
	.uleb128 0x10
	.4byte	.LASF74
	.byte	0x1a
	.uleb128 0x10
	.4byte	.LASF75
	.byte	0x1b
	.uleb128 0x10
	.4byte	.LASF76
	.byte	0x1c
	.uleb128 0x10
	.4byte	.LASF77
	.byte	0x1d
	.uleb128 0x10
	.4byte	.LASF78
	.byte	0x1e
	.uleb128 0x10
	.4byte	.LASF79
	.byte	0x1f
	.uleb128 0x10
	.4byte	.LASF80
	.byte	0x20
	.uleb128 0x10
	.4byte	.LASF81
	.byte	0x21
	.uleb128 0x10
	.4byte	.LASF82
	.byte	0x22
	.uleb128 0x10
	.4byte	.LASF83
	.byte	0x23
	.uleb128 0x10
	.4byte	.LASF84
	.byte	0x24
	.uleb128 0x10
	.4byte	.LASF85
	.byte	0x25
	.uleb128 0x10
	.4byte	.LASF86
	.byte	0x26
	.uleb128 0x10
	.4byte	.LASF87
	.byte	0x27
	.uleb128 0x10
	.4byte	.LASF88
	.byte	0x28
	.uleb128 0x10
	.4byte	.LASF89
	.byte	0x29
	.uleb128 0x10
	.4byte	.LASF90
	.byte	0x2a
	.uleb128 0x10
	.4byte	.LASF91
	.byte	0x2b
	.uleb128 0x10
	.4byte	.LASF92
	.byte	0x2c
	.uleb128 0x10
	.4byte	.LASF93
	.byte	0x2d
	.uleb128 0x10
	.4byte	.LASF94
	.byte	0x2e
	.uleb128 0x10
	.4byte	.LASF95
	.byte	0x2f
	.uleb128 0x10
	.4byte	.LASF96
	.byte	0x30
	.uleb128 0x10
	.4byte	.LASF97
	.byte	0x31
	.uleb128 0x10
	.4byte	.LASF98
	.byte	0x32
	.uleb128 0x10
	.4byte	.LASF99
	.byte	0x33
	.uleb128 0x10
	.4byte	.LASF100
	.byte	0x34
	.uleb128 0x10
	.4byte	.LASF101
	.byte	0x35
	.uleb128 0x10
	.4byte	.LASF102
	.byte	0x36
	.uleb128 0x10
	.4byte	.LASF103
	.byte	0x37
	.uleb128 0x10
	.4byte	.LASF104
	.byte	0x38
	.uleb128 0x10
	.4byte	.LASF105
	.byte	0x39
	.uleb128 0x10
	.4byte	.LASF106
	.byte	0x3a
	.uleb128 0x10
	.4byte	.LASF107
	.byte	0x3b
	.uleb128 0x10
	.4byte	.LASF108
	.byte	0x3c
	.uleb128 0x10
	.4byte	.LASF109
	.byte	0x3d
	.uleb128 0x10
	.4byte	.LASF110
	.byte	0x3e
	.uleb128 0x10
	.4byte	.LASF111
	.byte	0x3f
	.uleb128 0x10
	.4byte	.LASF112
	.byte	0x40
	.uleb128 0x10
	.4byte	.LASF113
	.byte	0x41
	.uleb128 0x10
	.4byte	.LASF114
	.byte	0x42
	.uleb128 0x10
	.4byte	.LASF115
	.byte	0x43
	.uleb128 0x10
	.4byte	.LASF116
	.byte	0x44
	.uleb128 0x10
	.4byte	.LASF117
	.byte	0x45
	.uleb128 0x10
	.4byte	.LASF118
	.byte	0x46
	.uleb128 0x10
	.4byte	.LASF119
	.byte	0x47
	.uleb128 0x10
	.4byte	.LASF120
	.byte	0x48
	.uleb128 0x10
	.4byte	.LASF121
	.byte	0x49
	.uleb128 0x10
	.4byte	.LASF122
	.byte	0x4a
	.uleb128 0x10
	.4byte	.LASF123
	.byte	0x4b
	.uleb128 0x10
	.4byte	.LASF124
	.byte	0x4c
	.uleb128 0x10
	.4byte	.LASF125
	.byte	0x4d
	.uleb128 0x10
	.4byte	.LASF126
	.byte	0x4e
	.uleb128 0x10
	.4byte	.LASF127
	.byte	0x4f
	.uleb128 0x10
	.4byte	.LASF128
	.byte	0x50
	.uleb128 0x10
	.4byte	.LASF129
	.byte	0x51
	.uleb128 0x10
	.4byte	.LASF130
	.byte	0x52
	.uleb128 0x10
	.4byte	.LASF131
	.byte	0x53
	.uleb128 0x10
	.4byte	.LASF132
	.byte	0x54
	.uleb128 0x10
	.4byte	.LASF133
	.byte	0x55
	.uleb128 0x10
	.4byte	.LASF134
	.byte	0x56
	.uleb128 0x10
	.4byte	.LASF135
	.byte	0x57
	.uleb128 0x10
	.4byte	.LASF136
	.byte	0x58
	.uleb128 0x10
	.4byte	.LASF137
	.byte	0x59
	.uleb128 0x10
	.4byte	.LASF138
	.byte	0x5a
	.uleb128 0x10
	.4byte	.LASF139
	.byte	0x5b
	.uleb128 0x10
	.4byte	.LASF140
	.byte	0x5c
	.uleb128 0x10
	.4byte	.LASF141
	.byte	0x5d
	.uleb128 0x10
	.4byte	.LASF142
	.byte	0x5e
	.uleb128 0x10
	.4byte	.LASF143
	.byte	0x5f
	.uleb128 0x10
	.4byte	.LASF144
	.byte	0x60
	.uleb128 0x10
	.4byte	.LASF145
	.byte	0x61
	.uleb128 0x10
	.4byte	.LASF146
	.byte	0x62
	.uleb128 0x10
	.4byte	.LASF147
	.byte	0x63
	.uleb128 0x10
	.4byte	.LASF148
	.byte	0x64
	.uleb128 0x10
	.4byte	.LASF149
	.byte	0x65
	.uleb128 0x10
	.4byte	.LASF150
	.byte	0x66
	.uleb128 0x10
	.4byte	.LASF151
	.byte	0x67
	.uleb128 0x10
	.4byte	.LASF152
	.byte	0x68
	.uleb128 0x10
	.4byte	.LASF153
	.byte	0x69
	.uleb128 0x10
	.4byte	.LASF154
	.byte	0x6a
	.uleb128 0x10
	.4byte	.LASF155
	.byte	0x6b
	.uleb128 0x10
	.4byte	.LASF156
	.byte	0x6c
	.uleb128 0x10
	.4byte	.LASF157
	.byte	0x6d
	.uleb128 0x10
	.4byte	.LASF158
	.byte	0x6e
	.uleb128 0x10
	.4byte	.LASF159
	.byte	0x6f
	.uleb128 0x10
	.4byte	.LASF160
	.byte	0x70
	.uleb128 0x10
	.4byte	.LASF161
	.byte	0x71
	.uleb128 0x10
	.4byte	.LASF162
	.byte	0x72
	.uleb128 0x10
	.4byte	.LASF163
	.byte	0x73
	.uleb128 0x10
	.4byte	.LASF164
	.byte	0x74
	.uleb128 0x10
	.4byte	.LASF165
	.byte	0x75
	.uleb128 0x10
	.4byte	.LASF166
	.byte	0x76
	.uleb128 0x10
	.4byte	.LASF167
	.byte	0x77
	.uleb128 0x10
	.4byte	.LASF168
	.byte	0x78
	.uleb128 0x10
	.4byte	.LASF169
	.byte	0x79
	.uleb128 0x10
	.4byte	.LASF170
	.byte	0x7a
	.uleb128 0x10
	.4byte	.LASF171
	.byte	0x7b
	.uleb128 0x10
	.4byte	.LASF172
	.byte	0x7c
	.uleb128 0x10
	.4byte	.LASF173
	.byte	0x7d
	.uleb128 0x10
	.4byte	.LASF174
	.byte	0x7e
	.uleb128 0x10
	.4byte	.LASF175
	.byte	0x7f
	.uleb128 0x10
	.4byte	.LASF176
	.byte	0x80
	.uleb128 0x10
	.4byte	.LASF177
	.byte	0x81
	.uleb128 0x10
	.4byte	.LASF178
	.byte	0x82
	.uleb128 0x10
	.4byte	.LASF179
	.byte	0x83
	.uleb128 0x10
	.4byte	.LASF180
	.byte	0x84
	.uleb128 0x10
	.4byte	.LASF181
	.byte	0x85
	.uleb128 0x10
	.4byte	.LASF182
	.byte	0x86
	.uleb128 0x10
	.4byte	.LASF183
	.byte	0x87
	.uleb128 0x10
	.4byte	.LASF184
	.byte	0x88
	.uleb128 0x10
	.4byte	.LASF185
	.byte	0x89
	.uleb128 0x10
	.4byte	.LASF186
	.byte	0x8a
	.uleb128 0x10
	.4byte	.LASF187
	.byte	0x8b
	.uleb128 0x10
	.4byte	.LASF188
	.byte	0x8c
	.uleb128 0x10
	.4byte	.LASF189
	.byte	0x8d
	.uleb128 0x10
	.4byte	.LASF190
	.byte	0x8e
	.uleb128 0x10
	.4byte	.LASF191
	.byte	0x8f
	.uleb128 0x10
	.4byte	.LASF192
	.byte	0x90
	.uleb128 0x10
	.4byte	.LASF193
	.byte	0x91
	.uleb128 0x10
	.4byte	.LASF194
	.byte	0x92
	.uleb128 0x10
	.4byte	.LASF195
	.byte	0x93
	.uleb128 0x10
	.4byte	.LASF196
	.byte	0x94
	.uleb128 0x10
	.4byte	.LASF197
	.byte	0x95
	.uleb128 0x10
	.4byte	.LASF198
	.byte	0x96
	.uleb128 0x10
	.4byte	.LASF199
	.byte	0x97
	.uleb128 0x10
	.4byte	.LASF200
	.byte	0x98
	.uleb128 0x10
	.4byte	.LASF201
	.byte	0x99
	.uleb128 0x10
	.4byte	.LASF202
	.byte	0x9a
	.uleb128 0x10
	.4byte	.LASF203
	.byte	0x9b
	.uleb128 0x10
	.4byte	.LASF204
	.byte	0x9c
	.uleb128 0x10
	.4byte	.LASF205
	.byte	0x9d
	.uleb128 0x10
	.4byte	.LASF206
	.byte	0x9e
	.uleb128 0x10
	.4byte	.LASF207
	.byte	0x9f
	.uleb128 0x10
	.4byte	.LASF208
	.byte	0xa0
	.uleb128 0x10
	.4byte	.LASF209
	.byte	0xa1
	.uleb128 0x10
	.4byte	.LASF210
	.byte	0xa2
	.uleb128 0x10
	.4byte	.LASF211
	.byte	0xa3
	.uleb128 0x10
	.4byte	.LASF212
	.byte	0xa4
	.uleb128 0x10
	.4byte	.LASF213
	.byte	0xa5
	.uleb128 0x10
	.4byte	.LASF214
	.byte	0xa6
	.uleb128 0x10
	.4byte	.LASF215
	.byte	0xa7
	.uleb128 0x10
	.4byte	.LASF216
	.byte	0xa8
	.uleb128 0x10
	.4byte	.LASF217
	.byte	0xa9
	.uleb128 0x10
	.4byte	.LASF218
	.byte	0xaa
	.uleb128 0x10
	.4byte	.LASF219
	.byte	0xab
	.uleb128 0x10
	.4byte	.LASF220
	.byte	0xac
	.uleb128 0x10
	.4byte	.LASF221
	.byte	0xad
	.uleb128 0x10
	.4byte	.LASF222
	.byte	0xae
	.uleb128 0x10
	.4byte	.LASF223
	.byte	0xaf
	.uleb128 0x10
	.4byte	.LASF224
	.byte	0xb0
	.uleb128 0x10
	.4byte	.LASF225
	.byte	0xb1
	.uleb128 0x10
	.4byte	.LASF226
	.byte	0xb2
	.uleb128 0x10
	.4byte	.LASF227
	.byte	0xb3
	.uleb128 0x10
	.4byte	.LASF228
	.byte	0xb4
	.uleb128 0x10
	.4byte	.LASF229
	.byte	0xb5
	.uleb128 0x10
	.4byte	.LASF230
	.byte	0xb6
	.uleb128 0x10
	.4byte	.LASF231
	.byte	0xb7
	.uleb128 0x10
	.4byte	.LASF232
	.byte	0xb8
	.uleb128 0x10
	.4byte	.LASF233
	.byte	0xb9
	.uleb128 0x10
	.4byte	.LASF234
	.byte	0xba
	.uleb128 0x10
	.4byte	.LASF235
	.byte	0xbb
	.uleb128 0x10
	.4byte	.LASF236
	.byte	0xbc
	.uleb128 0x10
	.4byte	.LASF237
	.byte	0xbd
	.uleb128 0x10
	.4byte	.LASF238
	.byte	0xbe
	.uleb128 0x10
	.4byte	.LASF239
	.byte	0xbf
	.uleb128 0x10
	.4byte	.LASF240
	.byte	0xc0
	.uleb128 0x10
	.4byte	.LASF241
	.byte	0xc1
	.uleb128 0x10
	.4byte	.LASF242
	.byte	0xc2
	.uleb128 0x10
	.4byte	.LASF243
	.byte	0xc3
	.uleb128 0x10
	.4byte	.LASF244
	.byte	0xc4
	.uleb128 0x10
	.4byte	.LASF245
	.byte	0xc5
	.uleb128 0x10
	.4byte	.LASF246
	.byte	0xc6
	.uleb128 0x10
	.4byte	.LASF247
	.byte	0xc7
	.uleb128 0x10
	.4byte	.LASF248
	.byte	0xc8
	.uleb128 0x10
	.4byte	.LASF249
	.byte	0xc9
	.uleb128 0x10
	.4byte	.LASF250
	.byte	0xca
	.uleb128 0x10
	.4byte	.LASF251
	.byte	0xcb
	.uleb128 0x10
	.4byte	.LASF252
	.byte	0xcc
	.uleb128 0x10
	.4byte	.LASF253
	.byte	0xcd
	.uleb128 0x10
	.4byte	.LASF254
	.byte	0xce
	.uleb128 0x10
	.4byte	.LASF255
	.byte	0xcf
	.uleb128 0x10
	.4byte	.LASF256
	.byte	0xd0
	.uleb128 0x10
	.4byte	.LASF257
	.byte	0xd1
	.uleb128 0x10
	.4byte	.LASF258
	.byte	0xd2
	.uleb128 0x10
	.4byte	.LASF259
	.byte	0xd3
	.uleb128 0x10
	.4byte	.LASF260
	.byte	0xd4
	.uleb128 0x10
	.4byte	.LASF261
	.byte	0xd5
	.uleb128 0x10
	.4byte	.LASF262
	.byte	0xd9
	.uleb128 0x10
	.4byte	.LASF263
	.byte	0xda
	.uleb128 0x10
	.4byte	.LASF264
	.byte	0xdb
	.uleb128 0x10
	.4byte	.LASF265
	.byte	0xdc
	.uleb128 0x10
	.4byte	.LASF266
	.byte	0xdd
	.uleb128 0x10
	.4byte	.LASF267
	.byte	0xde
	.uleb128 0x10
	.4byte	.LASF268
	.byte	0xdf
	.uleb128 0x10
	.4byte	.LASF269
	.byte	0xe0
	.uleb128 0x10
	.4byte	.LASF270
	.byte	0xe1
	.uleb128 0x10
	.4byte	.LASF271
	.byte	0xe2
	.uleb128 0x10
	.4byte	.LASF272
	.byte	0xe3
	.uleb128 0x10
	.4byte	.LASF273
	.byte	0xe4
	.uleb128 0x10
	.4byte	.LASF274
	.byte	0xe5
	.uleb128 0x10
	.4byte	.LASF275
	.byte	0xe6
	.uleb128 0x10
	.4byte	.LASF276
	.byte	0xe7
	.uleb128 0x10
	.4byte	.LASF277
	.byte	0xe8
	.uleb128 0x10
	.4byte	.LASF278
	.byte	0xe9
	.uleb128 0x10
	.4byte	.LASF279
	.byte	0xea
	.uleb128 0x10
	.4byte	.LASF280
	.byte	0xeb
	.uleb128 0x10
	.4byte	.LASF281
	.byte	0xec
	.uleb128 0x10
	.4byte	.LASF282
	.byte	0xed
	.uleb128 0x10
	.4byte	.LASF283
	.byte	0xee
	.uleb128 0x10
	.4byte	.LASF284
	.byte	0xef
	.uleb128 0x10
	.4byte	.LASF285
	.byte	0xf0
	.uleb128 0x10
	.4byte	.LASF286
	.byte	0xf1
	.uleb128 0x10
	.4byte	.LASF287
	.byte	0xf2
	.uleb128 0x10
	.4byte	.LASF288
	.byte	0xf3
	.uleb128 0x10
	.4byte	.LASF289
	.byte	0xf4
	.uleb128 0x10
	.4byte	.LASF290
	.byte	0xf5
	.uleb128 0x10
	.4byte	.LASF291
	.byte	0xf6
	.uleb128 0x10
	.4byte	.LASF292
	.byte	0xf7
	.uleb128 0x10
	.4byte	.LASF293
	.byte	0xf8
	.uleb128 0x10
	.4byte	.LASF294
	.byte	0xf9
	.uleb128 0x10
	.4byte	.LASF295
	.byte	0xfa
	.uleb128 0x10
	.4byte	.LASF296
	.byte	0xfb
	.uleb128 0x10
	.4byte	.LASF297
	.byte	0xfc
	.uleb128 0x10
	.4byte	.LASF298
	.byte	0xfd
	.uleb128 0x10
	.4byte	.LASF299
	.byte	0xfe
	.uleb128 0x10
	.4byte	.LASF300
	.byte	0xff
	.uleb128 0x11
	.4byte	.LASF301
	.2byte	0x100
	.uleb128 0x11
	.4byte	.LASF302
	.2byte	0x101
	.uleb128 0x11
	.4byte	.LASF303
	.2byte	0x102
	.uleb128 0x11
	.4byte	.LASF304
	.2byte	0x103
	.uleb128 0x11
	.4byte	.LASF305
	.2byte	0x104
	.uleb128 0x11
	.4byte	.LASF306
	.2byte	0x105
	.uleb128 0x11
	.4byte	.LASF307
	.2byte	0x106
	.uleb128 0x11
	.4byte	.LASF308
	.2byte	0x107
	.uleb128 0x11
	.4byte	.LASF309
	.2byte	0x108
	.uleb128 0x11
	.4byte	.LASF310
	.2byte	0x109
	.uleb128 0x11
	.4byte	.LASF311
	.2byte	0x10a
	.uleb128 0x11
	.4byte	.LASF312
	.2byte	0x10b
	.uleb128 0x11
	.4byte	.LASF313
	.2byte	0x10c
	.uleb128 0x11
	.4byte	.LASF314
	.2byte	0x10d
	.uleb128 0x11
	.4byte	.LASF315
	.2byte	0x10e
	.uleb128 0x11
	.4byte	.LASF316
	.2byte	0x10f
	.uleb128 0x11
	.4byte	.LASF317
	.2byte	0x111
	.uleb128 0x11
	.4byte	.LASF318
	.2byte	0x112
	.uleb128 0x11
	.4byte	.LASF319
	.2byte	0x113
	.uleb128 0x11
	.4byte	.LASF320
	.2byte	0x114
	.uleb128 0x11
	.4byte	.LASF321
	.2byte	0x115
	.uleb128 0x11
	.4byte	.LASF322
	.2byte	0x116
	.uleb128 0x11
	.4byte	.LASF323
	.2byte	0x117
	.uleb128 0x11
	.4byte	.LASF324
	.2byte	0x118
	.uleb128 0x11
	.4byte	.LASF325
	.2byte	0x119
	.uleb128 0x11
	.4byte	.LASF326
	.2byte	0x12c
	.uleb128 0x11
	.4byte	.LASF327
	.2byte	0x12d
	.uleb128 0x11
	.4byte	.LASF328
	.2byte	0x12e
	.uleb128 0x11
	.4byte	.LASF329
	.2byte	0x12f
	.uleb128 0x11
	.4byte	.LASF330
	.2byte	0x130
	.uleb128 0x11
	.4byte	.LASF331
	.2byte	0x131
	.uleb128 0x11
	.4byte	.LASF332
	.2byte	0x132
	.uleb128 0x11
	.4byte	.LASF333
	.2byte	0x133
	.uleb128 0x11
	.4byte	.LASF334
	.2byte	0x134
	.uleb128 0x11
	.4byte	.LASF335
	.2byte	0x135
	.uleb128 0x11
	.4byte	.LASF336
	.2byte	0x136
	.uleb128 0x11
	.4byte	.LASF337
	.2byte	0x137
	.uleb128 0x11
	.4byte	.LASF338
	.2byte	0x138
	.uleb128 0x11
	.4byte	.LASF339
	.2byte	0x139
	.uleb128 0x11
	.4byte	.LASF340
	.2byte	0x13a
	.uleb128 0x11
	.4byte	.LASF341
	.2byte	0x13b
	.uleb128 0x11
	.4byte	.LASF342
	.2byte	0x13c
	.uleb128 0x11
	.4byte	.LASF343
	.2byte	0x13d
	.uleb128 0x11
	.4byte	.LASF344
	.2byte	0x13e
	.uleb128 0x11
	.4byte	.LASF345
	.2byte	0x13f
	.uleb128 0x11
	.4byte	.LASF346
	.2byte	0x140
	.uleb128 0x11
	.4byte	.LASF347
	.2byte	0x141
	.uleb128 0x11
	.4byte	.LASF348
	.2byte	0x142
	.uleb128 0x11
	.4byte	.LASF349
	.2byte	0x29a
	.uleb128 0x11
	.4byte	.LASF350
	.2byte	0x2c7
	.uleb128 0x11
	.4byte	.LASF351
	.2byte	0x2c8
	.uleb128 0x11
	.4byte	.LASF352
	.2byte	0x2c9
	.uleb128 0x11
	.4byte	.LASF353
	.2byte	0x2ca
	.uleb128 0x11
	.4byte	.LASF354
	.2byte	0x2cb
	.uleb128 0x11
	.4byte	.LASF355
	.2byte	0x2cc
	.uleb128 0x11
	.4byte	.LASF356
	.2byte	0x2cd
	.uleb128 0x11
	.4byte	.LASF357
	.2byte	0x2ce
	.uleb128 0x11
	.4byte	.LASF358
	.2byte	0x2d1
	.uleb128 0x11
	.4byte	.LASF359
	.2byte	0x2d2
	.uleb128 0x11
	.4byte	.LASF360
	.2byte	0x2d3
	.uleb128 0x11
	.4byte	.LASF361
	.2byte	0x2d4
	.uleb128 0x11
	.4byte	.LASF362
	.2byte	0x2d5
	.uleb128 0x11
	.4byte	.LASF363
	.2byte	0x2d6
	.uleb128 0x11
	.4byte	.LASF364
	.2byte	0x2d7
	.uleb128 0x11
	.4byte	.LASF365
	.2byte	0x2d8
	.uleb128 0x11
	.4byte	.LASF366
	.2byte	0x2d9
	.uleb128 0x11
	.4byte	.LASF367
	.2byte	0x2ee
	.uleb128 0x11
	.4byte	.LASF368
	.2byte	0x2ef
	.uleb128 0x11
	.4byte	.LASF369
	.2byte	0x2f0
	.uleb128 0x11
	.4byte	.LASF370
	.2byte	0x2f2
	.uleb128 0x11
	.4byte	.LASF371
	.2byte	0x2f3
	.uleb128 0x11
	.4byte	.LASF372
	.2byte	0x2f4
	.uleb128 0x11
	.4byte	.LASF373
	.2byte	0x2f5
	.uleb128 0x11
	.4byte	.LASF374
	.2byte	0x2f6
	.uleb128 0x11
	.4byte	.LASF375
	.2byte	0x2f7
	.uleb128 0x11
	.4byte	.LASF376
	.2byte	0x2f8
	.uleb128 0x11
	.4byte	.LASF377
	.2byte	0x2f9
	.uleb128 0x11
	.4byte	.LASF378
	.2byte	0x2fa
	.uleb128 0x11
	.4byte	.LASF379
	.2byte	0x2fb
	.uleb128 0x11
	.4byte	.LASF380
	.2byte	0x2fc
	.uleb128 0x11
	.4byte	.LASF381
	.2byte	0x2fd
	.uleb128 0x11
	.4byte	.LASF382
	.2byte	0x2fe
	.uleb128 0x11
	.4byte	.LASF383
	.2byte	0x2ff
	.uleb128 0x11
	.4byte	.LASF384
	.2byte	0x300
	.uleb128 0x11
	.4byte	.LASF385
	.2byte	0x301
	.uleb128 0x11
	.4byte	.LASF386
	.2byte	0x302
	.uleb128 0x11
	.4byte	.LASF387
	.2byte	0x303
	.uleb128 0x11
	.4byte	.LASF388
	.2byte	0x304
	.uleb128 0x11
	.4byte	.LASF389
	.2byte	0x305
	.uleb128 0x11
	.4byte	.LASF390
	.2byte	0x306
	.uleb128 0x11
	.4byte	.LASF391
	.2byte	0x307
	.uleb128 0x11
	.4byte	.LASF392
	.2byte	0x308
	.uleb128 0x11
	.4byte	.LASF393
	.2byte	0x309
	.uleb128 0x11
	.4byte	.LASF394
	.2byte	0x30a
	.uleb128 0x11
	.4byte	.LASF395
	.2byte	0x30b
	.uleb128 0x11
	.4byte	.LASF396
	.2byte	0x30c
	.uleb128 0x11
	.4byte	.LASF397
	.2byte	0x30d
	.uleb128 0x11
	.4byte	.LASF398
	.2byte	0x30e
	.uleb128 0x11
	.4byte	.LASF399
	.2byte	0x310
	.uleb128 0x11
	.4byte	.LASF400
	.2byte	0x311
	.uleb128 0x11
	.4byte	.LASF401
	.2byte	0x312
	.uleb128 0x11
	.4byte	.LASF402
	.2byte	0x313
	.uleb128 0x11
	.4byte	.LASF403
	.2byte	0x314
	.uleb128 0x11
	.4byte	.LASF404
	.2byte	0x315
	.uleb128 0x11
	.4byte	.LASF405
	.2byte	0x320
	.uleb128 0x11
	.4byte	.LASF406
	.2byte	0x321
	.uleb128 0x11
	.4byte	.LASF407
	.2byte	0x322
	.uleb128 0x11
	.4byte	.LASF408
	.2byte	0x323
	.uleb128 0x11
	.4byte	.LASF409
	.2byte	0x324
	.uleb128 0x11
	.4byte	.LASF410
	.2byte	0x32f
	.uleb128 0x11
	.4byte	.LASF411
	.2byte	0x330
	.uleb128 0x11
	.4byte	.LASF412
	.2byte	0x331
	.uleb128 0x11
	.4byte	.LASF413
	.2byte	0x332
	.uleb128 0x11
	.4byte	.LASF414
	.2byte	0x333
	.uleb128 0x11
	.4byte	.LASF415
	.2byte	0x334
	.uleb128 0x11
	.4byte	.LASF416
	.2byte	0x335
	.uleb128 0x11
	.4byte	.LASF417
	.2byte	0x336
	.uleb128 0x11
	.4byte	.LASF418
	.2byte	0x340
	.uleb128 0x11
	.4byte	.LASF419
	.2byte	0x341
	.uleb128 0x11
	.4byte	.LASF420
	.2byte	0x342
	.uleb128 0x11
	.4byte	.LASF421
	.2byte	0x343
	.uleb128 0x11
	.4byte	.LASF422
	.2byte	0x344
	.uleb128 0x11
	.4byte	.LASF423
	.2byte	0x345
	.uleb128 0x11
	.4byte	.LASF424
	.2byte	0x346
	.uleb128 0x11
	.4byte	.LASF425
	.2byte	0x347
	.uleb128 0x11
	.4byte	.LASF426
	.2byte	0x34c
	.uleb128 0x11
	.4byte	.LASF427
	.2byte	0x350
	.uleb128 0x11
	.4byte	.LASF428
	.2byte	0x371
	.uleb128 0x11
	.4byte	.LASF429
	.2byte	0x372
	.uleb128 0x11
	.4byte	.LASF430
	.2byte	0x373
	.uleb128 0x11
	.4byte	.LASF431
	.2byte	0x374
	.uleb128 0x11
	.4byte	.LASF432
	.2byte	0x375
	.uleb128 0x11
	.4byte	.LASF433
	.2byte	0x376
	.uleb128 0x11
	.4byte	.LASF434
	.2byte	0x377
	.uleb128 0x11
	.4byte	.LASF435
	.2byte	0x378
	.uleb128 0x11
	.4byte	.LASF436
	.2byte	0x379
	.uleb128 0x11
	.4byte	.LASF437
	.2byte	0x37a
	.uleb128 0x11
	.4byte	.LASF438
	.2byte	0x37b
	.uleb128 0x11
	.4byte	.LASF439
	.2byte	0x400
	.uleb128 0x11
	.4byte	.LASF440
	.2byte	0x401
	.uleb128 0x11
	.4byte	.LASF441
	.2byte	0x402
	.uleb128 0x11
	.4byte	.LASF442
	.2byte	0x403
	.uleb128 0x11
	.4byte	.LASF443
	.2byte	0x404
	.uleb128 0x11
	.4byte	.LASF444
	.2byte	0x405
	.uleb128 0x11
	.4byte	.LASF445
	.2byte	0x406
	.uleb128 0x11
	.4byte	.LASF446
	.2byte	0x407
	.uleb128 0x11
	.4byte	.LASF447
	.2byte	0x408
	.uleb128 0x11
	.4byte	.LASF448
	.2byte	0x409
	.uleb128 0x11
	.4byte	.LASF449
	.2byte	0x40a
	.uleb128 0x11
	.4byte	.LASF450
	.2byte	0x40b
	.uleb128 0x11
	.4byte	.LASF451
	.2byte	0x40c
	.uleb128 0x11
	.4byte	.LASF452
	.2byte	0x40d
	.uleb128 0x11
	.4byte	.LASF453
	.2byte	0x40e
	.uleb128 0x11
	.4byte	.LASF454
	.2byte	0x40f
	.uleb128 0x11
	.4byte	.LASF455
	.2byte	0x5dc
	.uleb128 0x11
	.4byte	.LASF456
	.2byte	0x5dd
	.uleb128 0x11
	.4byte	.LASF457
	.2byte	0x5de
	.uleb128 0x11
	.4byte	.LASF458
	.2byte	0x5df
	.uleb128 0x11
	.4byte	.LASF459
	.2byte	0x5e0
	.uleb128 0x11
	.4byte	.LASF460
	.2byte	0x5e1
	.uleb128 0x11
	.4byte	.LASF461
	.2byte	0x5e2
	.uleb128 0x11
	.4byte	.LASF462
	.2byte	0x5e3
	.uleb128 0x11
	.4byte	.LASF463
	.2byte	0x5e4
	.uleb128 0x11
	.4byte	.LASF464
	.2byte	0x5e5
	.uleb128 0x11
	.4byte	.LASF465
	.2byte	0x5e6
	.uleb128 0x11
	.4byte	.LASF466
	.2byte	0x5e7
	.uleb128 0x11
	.4byte	.LASF467
	.2byte	0x5e8
	.uleb128 0x11
	.4byte	.LASF468
	.2byte	0x5e9
	.uleb128 0x11
	.4byte	.LASF469
	.2byte	0x5ea
	.uleb128 0x11
	.4byte	.LASF470
	.2byte	0x5eb
	.uleb128 0x11
	.4byte	.LASF471
	.2byte	0x5ec
	.uleb128 0x11
	.4byte	.LASF472
	.2byte	0x5ed
	.uleb128 0x11
	.4byte	.LASF473
	.2byte	0x5ee
	.uleb128 0x11
	.4byte	.LASF474
	.2byte	0x5ef
	.uleb128 0x11
	.4byte	.LASF475
	.2byte	0x5f0
	.uleb128 0x11
	.4byte	.LASF476
	.2byte	0x5f1
	.uleb128 0x11
	.4byte	.LASF477
	.2byte	0x5f2
	.uleb128 0x11
	.4byte	.LASF478
	.2byte	0x5f3
	.uleb128 0x11
	.4byte	.LASF479
	.2byte	0x5f4
	.uleb128 0x11
	.4byte	.LASF480
	.2byte	0x5f5
	.uleb128 0x11
	.4byte	.LASF481
	.2byte	0x5f6
	.uleb128 0x11
	.4byte	.LASF482
	.2byte	0x5f7
	.uleb128 0x11
	.4byte	.LASF483
	.2byte	0x5f8
	.uleb128 0x11
	.4byte	.LASF484
	.2byte	0x640
	.uleb128 0x11
	.4byte	.LASF485
	.2byte	0x641
	.uleb128 0x11
	.4byte	.LASF486
	.2byte	0x3ffd
	.uleb128 0x11
	.4byte	.LASF487
	.2byte	0x3ffe
	.uleb128 0x11
	.4byte	.LASF488
	.2byte	0x3fff
	.uleb128 0x11
	.4byte	.LASF489
	.2byte	0x8000
	.uleb128 0x11
	.4byte	.LASF490
	.2byte	0x8001
	.uleb128 0x11
	.4byte	.LASF491
	.2byte	0x8002
	.uleb128 0x11
	.4byte	.LASF492
	.2byte	0x8003
	.uleb128 0x11
	.4byte	.LASF493
	.2byte	0x8004
	.uleb128 0x11
	.4byte	.LASF494
	.2byte	0x8005
	.uleb128 0x11
	.4byte	.LASF495
	.2byte	0x8006
	.uleb128 0x11
	.4byte	.LASF496
	.2byte	0x8007
	.uleb128 0x11
	.4byte	.LASF497
	.2byte	0x8008
	.uleb128 0x11
	.4byte	.LASF498
	.2byte	0x8009
	.uleb128 0x11
	.4byte	.LASF499
	.2byte	0x800a
	.uleb128 0x11
	.4byte	.LASF500
	.2byte	0x800b
	.uleb128 0x11
	.4byte	.LASF501
	.2byte	0x800c
	.uleb128 0x11
	.4byte	.LASF502
	.2byte	0x800d
	.uleb128 0x11
	.4byte	.LASF503
	.2byte	0x800e
	.uleb128 0x11
	.4byte	.LASF504
	.2byte	0x800f
	.uleb128 0x11
	.4byte	.LASF505
	.2byte	0x8010
	.uleb128 0x11
	.4byte	.LASF506
	.2byte	0x8011
	.uleb128 0x11
	.4byte	.LASF507
	.2byte	0x8012
	.uleb128 0x11
	.4byte	.LASF508
	.2byte	0x8013
	.uleb128 0x11
	.4byte	.LASF509
	.2byte	0x8014
	.uleb128 0x11
	.4byte	.LASF510
	.2byte	0x8015
	.uleb128 0x11
	.4byte	.LASF511
	.2byte	0x8016
	.uleb128 0x11
	.4byte	.LASF512
	.2byte	0x8017
	.uleb128 0x11
	.4byte	.LASF513
	.2byte	0x8018
	.uleb128 0x11
	.4byte	.LASF514
	.2byte	0x8019
	.uleb128 0x11
	.4byte	.LASF515
	.2byte	0x801a
	.uleb128 0x11
	.4byte	.LASF516
	.2byte	0x801b
	.uleb128 0x11
	.4byte	.LASF517
	.2byte	0x801c
	.uleb128 0x11
	.4byte	.LASF518
	.2byte	0x801d
	.uleb128 0x11
	.4byte	.LASF519
	.2byte	0x801e
	.uleb128 0x11
	.4byte	.LASF520
	.2byte	0x801f
	.uleb128 0x11
	.4byte	.LASF521
	.2byte	0x8020
	.uleb128 0x11
	.4byte	.LASF522
	.2byte	0x8021
	.uleb128 0x11
	.4byte	.LASF523
	.2byte	0x8022
	.uleb128 0x11
	.4byte	.LASF524
	.2byte	0x8023
	.uleb128 0x11
	.4byte	.LASF525
	.2byte	0x8024
	.uleb128 0x11
	.4byte	.LASF526
	.2byte	0x8025
	.uleb128 0x11
	.4byte	.LASF527
	.2byte	0x8026
	.uleb128 0x11
	.4byte	.LASF528
	.2byte	0x8027
	.uleb128 0x11
	.4byte	.LASF529
	.2byte	0x8028
	.uleb128 0x11
	.4byte	.LASF530
	.2byte	0x8029
	.uleb128 0x11
	.4byte	.LASF531
	.2byte	0x802a
	.uleb128 0x11
	.4byte	.LASF532
	.2byte	0x802b
	.uleb128 0x11
	.4byte	.LASF533
	.2byte	0x802c
	.uleb128 0x11
	.4byte	.LASF534
	.2byte	0x802d
	.uleb128 0x11
	.4byte	.LASF535
	.2byte	0x802e
	.uleb128 0x11
	.4byte	.LASF536
	.2byte	0x802f
	.uleb128 0x11
	.4byte	.LASF537
	.2byte	0x8030
	.uleb128 0x11
	.4byte	.LASF538
	.2byte	0x8031
	.uleb128 0x11
	.4byte	.LASF539
	.2byte	0x8032
	.uleb128 0x11
	.4byte	.LASF540
	.2byte	0x8033
	.uleb128 0x11
	.4byte	.LASF541
	.2byte	0x8034
	.uleb128 0x11
	.4byte	.LASF542
	.2byte	0x8035
	.uleb128 0x11
	.4byte	.LASF543
	.2byte	0x8036
	.uleb128 0x11
	.4byte	.LASF544
	.2byte	0x8037
	.uleb128 0x11
	.4byte	.LASF545
	.2byte	0x8038
	.uleb128 0x11
	.4byte	.LASF546
	.2byte	0x8039
	.uleb128 0x11
	.4byte	.LASF547
	.2byte	0x803a
	.uleb128 0x11
	.4byte	.LASF548
	.2byte	0x803b
	.uleb128 0x11
	.4byte	.LASF549
	.2byte	0x803c
	.uleb128 0x11
	.4byte	.LASF550
	.2byte	0x803d
	.uleb128 0x11
	.4byte	.LASF551
	.2byte	0x803e
	.uleb128 0x11
	.4byte	.LASF552
	.2byte	0x803f
	.uleb128 0x11
	.4byte	.LASF553
	.2byte	0x8040
	.uleb128 0x11
	.4byte	.LASF554
	.2byte	0x8041
	.uleb128 0x11
	.4byte	.LASF555
	.2byte	0x8042
	.uleb128 0x11
	.4byte	.LASF556
	.2byte	0x8043
	.uleb128 0x11
	.4byte	.LASF557
	.2byte	0x8044
	.uleb128 0x11
	.4byte	.LASF558
	.2byte	0x8045
	.uleb128 0x11
	.4byte	.LASF559
	.2byte	0x8046
	.uleb128 0x11
	.4byte	.LASF560
	.2byte	0x8047
	.uleb128 0x11
	.4byte	.LASF561
	.2byte	0x8048
	.uleb128 0x11
	.4byte	.LASF562
	.2byte	0x8049
	.uleb128 0x11
	.4byte	.LASF563
	.2byte	0x804a
	.uleb128 0x11
	.4byte	.LASF564
	.2byte	0x804b
	.uleb128 0x11
	.4byte	.LASF565
	.2byte	0x804c
	.uleb128 0x11
	.4byte	.LASF566
	.2byte	0x804d
	.uleb128 0x11
	.4byte	.LASF567
	.2byte	0x804e
	.uleb128 0x11
	.4byte	.LASF568
	.2byte	0x804f
	.uleb128 0x11
	.4byte	.LASF569
	.2byte	0x8050
	.uleb128 0x11
	.4byte	.LASF570
	.2byte	0x8051
	.uleb128 0x11
	.4byte	.LASF571
	.2byte	0x8052
	.uleb128 0x11
	.4byte	.LASF572
	.2byte	0x8053
	.uleb128 0x11
	.4byte	.LASF573
	.2byte	0x8054
	.uleb128 0x11
	.4byte	.LASF574
	.2byte	0x8055
	.uleb128 0x11
	.4byte	.LASF575
	.2byte	0x8056
	.uleb128 0x11
	.4byte	.LASF576
	.2byte	0x8057
	.uleb128 0x11
	.4byte	.LASF577
	.2byte	0x8058
	.uleb128 0x11
	.4byte	.LASF578
	.2byte	0x8059
	.uleb128 0x11
	.4byte	.LASF579
	.2byte	0x805a
	.uleb128 0x11
	.4byte	.LASF580
	.2byte	0x805b
	.uleb128 0x11
	.4byte	.LASF581
	.2byte	0x805c
	.uleb128 0x11
	.4byte	.LASF582
	.2byte	0x805d
	.uleb128 0x11
	.4byte	.LASF583
	.2byte	0x805e
	.uleb128 0x11
	.4byte	.LASF584
	.2byte	0x805f
	.uleb128 0x11
	.4byte	.LASF585
	.2byte	0x8060
	.uleb128 0x11
	.4byte	.LASF586
	.2byte	0x8061
	.uleb128 0x11
	.4byte	.LASF587
	.2byte	0x8062
	.uleb128 0x11
	.4byte	.LASF588
	.2byte	0x8063
	.uleb128 0x11
	.4byte	.LASF589
	.2byte	0x8064
	.uleb128 0x11
	.4byte	.LASF590
	.2byte	0x8065
	.uleb128 0x11
	.4byte	.LASF591
	.2byte	0x8066
	.uleb128 0x11
	.4byte	.LASF592
	.2byte	0x8067
	.uleb128 0x11
	.4byte	.LASF593
	.2byte	0x8068
	.uleb128 0x11
	.4byte	.LASF594
	.2byte	0x8069
	.uleb128 0x11
	.4byte	.LASF595
	.2byte	0x806a
	.uleb128 0x11
	.4byte	.LASF596
	.2byte	0x806b
	.uleb128 0x11
	.4byte	.LASF597
	.2byte	0x806c
	.uleb128 0x11
	.4byte	.LASF598
	.2byte	0x806d
	.uleb128 0x11
	.4byte	.LASF599
	.2byte	0x806e
	.uleb128 0x11
	.4byte	.LASF600
	.2byte	0x806f
	.uleb128 0x11
	.4byte	.LASF601
	.2byte	0x8070
	.uleb128 0x11
	.4byte	.LASF602
	.2byte	0x8071
	.uleb128 0x11
	.4byte	.LASF603
	.2byte	0x8072
	.uleb128 0x11
	.4byte	.LASF604
	.2byte	0x8073
	.uleb128 0x11
	.4byte	.LASF605
	.2byte	0x8074
	.uleb128 0x11
	.4byte	.LASF606
	.2byte	0x8075
	.uleb128 0x11
	.4byte	.LASF607
	.2byte	0x8076
	.uleb128 0x11
	.4byte	.LASF608
	.2byte	0x8077
	.uleb128 0x11
	.4byte	.LASF609
	.2byte	0x8078
	.uleb128 0x11
	.4byte	.LASF610
	.2byte	0x8079
	.uleb128 0x11
	.4byte	.LASF611
	.2byte	0x807a
	.uleb128 0x11
	.4byte	.LASF612
	.2byte	0x807b
	.uleb128 0x11
	.4byte	.LASF613
	.2byte	0x807c
	.uleb128 0x11
	.4byte	.LASF614
	.2byte	0x807d
	.uleb128 0x11
	.4byte	.LASF615
	.2byte	0x807e
	.uleb128 0x11
	.4byte	.LASF616
	.2byte	0x807f
	.uleb128 0x11
	.4byte	.LASF617
	.2byte	0x8080
	.uleb128 0x11
	.4byte	.LASF618
	.2byte	0x8081
	.uleb128 0x11
	.4byte	.LASF619
	.2byte	0x8082
	.uleb128 0x11
	.4byte	.LASF620
	.2byte	0x8083
	.uleb128 0x11
	.4byte	.LASF621
	.2byte	0x8084
	.uleb128 0x11
	.4byte	.LASF622
	.2byte	0x8085
	.uleb128 0x11
	.4byte	.LASF623
	.2byte	0x8086
	.uleb128 0x11
	.4byte	.LASF624
	.2byte	0x8087
	.uleb128 0x11
	.4byte	.LASF625
	.2byte	0x8088
	.uleb128 0x11
	.4byte	.LASF626
	.2byte	0x8089
	.uleb128 0x11
	.4byte	.LASF627
	.2byte	0x808a
	.uleb128 0x11
	.4byte	.LASF628
	.2byte	0x808b
	.uleb128 0x11
	.4byte	.LASF629
	.2byte	0x808c
	.uleb128 0x12
	.4byte	.LASF630
	.4byte	0x10000
	.byte	0
	.uleb128 0x13
	.4byte	.LASF631
	.byte	0x2
	.2byte	0x2dd
	.byte	0x5
	.4byte	0x21d
	.uleb128 0x13
	.4byte	.LASF632
	.byte	0x2
	.2byte	0x2e6
	.byte	0x16
	.4byte	0x69
	.uleb128 0x14
	.byte	0x4
	.byte	0x2
	.2byte	0x495
	.byte	0x3
	.4byte	0x117a
	.uleb128 0x15
	.4byte	.LASF633
	.byte	0x2
	.2byte	0x496
	.byte	0x12
	.4byte	0x69
	.byte	0x4
	.byte	0x10
	.byte	0x10
	.byte	0
	.uleb128 0x15
	.4byte	.LASF634
	.byte	0x2
	.2byte	0x497
	.byte	0x12
	.4byte	0x69
	.byte	0x4
	.byte	0x1
	.byte	0xf
	.byte	0
	.uleb128 0x15
	.4byte	.LASF635
	.byte	0x2
	.2byte	0x498
	.byte	0x12
	.4byte	0x69
	.byte	0x4
	.byte	0xf
	.byte	0
	.byte	0
	.byte	0
	.uleb128 0x16
	.4byte	.LASF637
	.byte	0x28
	.byte	0x2
	.2byte	0x48e
	.byte	0x8
	.4byte	0x1215
	.uleb128 0x17
	.4byte	.LASF20
	.byte	0x2
	.2byte	0x499
	.byte	0x5
	.4byte	0x113c
	.byte	0
	.uleb128 0x17
	.4byte	.LASF638
	.byte	0x2
	.2byte	0x49c
	.byte	0x12
	.4byte	0x9d
	.byte	0x4
	.uleb128 0x17
	.4byte	.LASF639
	.byte	0x2
	.2byte	0x49f
	.byte	0xa
	.4byte	0x70
	.byte	0x8
	.uleb128 0x17
	.4byte	.LASF640
	.byte	0x2
	.2byte	0x4a3
	.byte	0xa
	.4byte	0x70
	.byte	0xc
	.uleb128 0x17
	.4byte	.LASF641
	.byte	0x2
	.2byte	0x4a7
	.byte	0xa
	.4byte	0x70
	.byte	0x10
	.uleb128 0x17
	.4byte	.LASF642
	.byte	0x2
	.2byte	0x4a9
	.byte	0xa
	.4byte	0x70
	.byte	0x14
	.uleb128 0x17
	.4byte	.LASF643
	.byte	0x2
	.2byte	0x4aa
	.byte	0x12
	.4byte	0x9d
	.byte	0x18
	.uleb128 0x17
	.4byte	.LASF644
	.byte	0x2
	.2byte	0x4ab
	.byte	0xa
	.4byte	0x70
	.byte	0x1c
	.uleb128 0x17
	.4byte	.LASF645
	.byte	0x2
	.2byte	0x4ae
	.byte	0xa
	.4byte	0x70
	.byte	0x20
	.uleb128 0x17
	.4byte	.LASF646
	.byte	0x2
	.2byte	0x4b1
	.byte	0x22
	.4byte	0x121a
	.byte	0x24
	.byte	0
	.uleb128 0x18
	.4byte	.LASF701
	.uleb128 0x7
	.byte	0x4
	.4byte	0x1215
	.uleb128 0x7
	.byte	0x4
	.4byte	0x117a
	.uleb128 0x13
	.4byte	.LASF647
	.byte	0x2
	.2byte	0x4b7
	.byte	0x20
	.4byte	0x1220
	.uleb128 0x7
	.byte	0x4
	.4byte	0x62
	.uleb128 0x19
	.4byte	.LASF910
	.byte	0x7
	.byte	0x1
	.4byte	0x2c
	.byte	0x9
	.byte	0x8c
	.byte	0x6
	.4byte	0x1264
	.uleb128 0x10
	.4byte	.LASF648
	.byte	0
	.uleb128 0x10
	.4byte	.LASF649
	.byte	0x1
	.uleb128 0x10
	.4byte	.LASF650
	.byte	0x2
	.uleb128 0x10
	.4byte	.LASF651
	.byte	0x3
	.byte	0
	.uleb128 0x5
	.4byte	.LASF652
	.byte	0x9
	.byte	0xa0
	.byte	0x1e
	.4byte	0x1270
	.uleb128 0x7
	.byte	0x4
	.4byte	0x1276
	.uleb128 0xc
	.4byte	.LASF653
	.byte	0x48
	.byte	0x9
	.byte	0xa4
	.byte	0x8
	.4byte	0x1346
	.uleb128 0xe
	.ascii	"use\000"
	.byte	0x9
	.byte	0xa8
	.byte	0x12
	.4byte	0x1239
	.byte	0
	.uleb128 0xd
	.4byte	.LASF654
	.byte	0x9
	.byte	0xad
	.byte	0x9
	.4byte	0xc7
	.byte	0x4
	.uleb128 0xd
	.4byte	.LASF655
	.byte	0x9
	.byte	0xb1
	.byte	0x9
	.4byte	0xc7
	.byte	0x8
	.uleb128 0xd
	.4byte	.LASF656
	.byte	0x9
	.byte	0xb6
	.byte	0x9
	.4byte	0xc7
	.byte	0xc
	.uleb128 0xd
	.4byte	.LASF657
	.byte	0x9
	.byte	0xbb
	.byte	0x7
	.4byte	0x62
	.byte	0x10
	.uleb128 0xe
	.ascii	"d\000"
	.byte	0x9
	.byte	0xdd
	.byte	0x5
	.4byte	0x1352
	.byte	0x14
	.uleb128 0xd
	.4byte	.LASF658
	.byte	0x9
	.byte	0xe3
	.byte	0x7
	.4byte	0x62
	.byte	0x24
	.uleb128 0xd
	.4byte	.LASF659
	.byte	0x9
	.byte	0xe9
	.byte	0x7
	.4byte	0x62
	.byte	0x28
	.uleb128 0xd
	.4byte	.LASF660
	.byte	0x9
	.byte	0xed
	.byte	0x9
	.4byte	0x13bf
	.byte	0x2c
	.uleb128 0xd
	.4byte	.LASF661
	.byte	0x9
	.byte	0xf1
	.byte	0x9
	.4byte	0x83
	.byte	0x30
	.uleb128 0xd
	.4byte	.LASF662
	.byte	0x9
	.byte	0xf4
	.byte	0x7
	.4byte	0x62
	.byte	0x34
	.uleb128 0xd
	.4byte	.LASF663
	.byte	0x9
	.byte	0xfa
	.byte	0x9
	.4byte	0xa3
	.byte	0x38
	.uleb128 0xd
	.4byte	.LASF664
	.byte	0x9
	.byte	0xfd
	.byte	0xb
	.4byte	0x1264
	.byte	0x3c
	.uleb128 0x1a
	.ascii	"no\000"
	.byte	0x9
	.2byte	0x103
	.byte	0x7
	.4byte	0x62
	.byte	0x40
	.uleb128 0x17
	.4byte	.LASF665
	.byte	0x9
	.2byte	0x10b
	.byte	0x7
	.4byte	0x62
	.byte	0x44
	.byte	0
	.uleb128 0x5
	.4byte	.LASF666
	.byte	0x9
	.byte	0xa1
	.byte	0x1e
	.4byte	0x1270
	.uleb128 0x1b
	.byte	0x10
	.byte	0x9
	.byte	0xcf
	.byte	0x3
	.4byte	0x1390
	.uleb128 0xd
	.4byte	.LASF667
	.byte	0x9
	.byte	0xd2
	.byte	0xc
	.4byte	0x70
	.byte	0
	.uleb128 0xd
	.4byte	.LASF668
	.byte	0x9
	.byte	0xd7
	.byte	0xc
	.4byte	0x70
	.byte	0x4
	.uleb128 0xe
	.ascii	"len\000"
	.byte	0x9
	.byte	0xda
	.byte	0xc
	.4byte	0x70
	.byte	0x8
	.uleb128 0xe
	.ascii	"buf\000"
	.byte	0x9
	.byte	0xdc
	.byte	0xb
	.4byte	0x1390
	.byte	0xc
	.byte	0
	.uleb128 0x7
	.byte	0x4
	.4byte	0xf8
	.uleb128 0x1c
	.4byte	0x62
	.4byte	0x13b9
	.uleb128 0x1d
	.4byte	0x83
	.uleb128 0x1d
	.4byte	0x62
	.uleb128 0x1d
	.4byte	0x1264
	.uleb128 0x1d
	.4byte	0x1390
	.uleb128 0x1d
	.4byte	0x13b9
	.byte	0
	.uleb128 0x7
	.byte	0x4
	.4byte	0x70
	.uleb128 0x7
	.byte	0x4
	.4byte	0x1396
	.uleb128 0xa
	.4byte	0xf8
	.4byte	0x13d5
	.uleb128 0xb
	.4byte	0x69
	.byte	0xf
	.byte	0
	.uleb128 0xf
	.byte	0x7
	.byte	0x1
	.4byte	0x2c
	.byte	0xa
	.byte	0x22
	.byte	0x3
	.4byte	0x1468
	.uleb128 0x10
	.4byte	.LASF669
	.byte	0
	.uleb128 0x10
	.4byte	.LASF670
	.byte	0x1
	.uleb128 0x10
	.4byte	.LASF671
	.byte	0x2
	.uleb128 0x10
	.4byte	.LASF672
	.byte	0x3
	.uleb128 0x10
	.4byte	.LASF673
	.byte	0x4
	.uleb128 0x10
	.4byte	.LASF674
	.byte	0x5
	.uleb128 0x10
	.4byte	.LASF675
	.byte	0x6
	.uleb128 0x10
	.4byte	.LASF676
	.byte	0x7
	.uleb128 0x10
	.4byte	.LASF677
	.byte	0x8
	.uleb128 0x10
	.4byte	.LASF678
	.byte	0x9
	.uleb128 0x10
	.4byte	.LASF679
	.byte	0xa
	.uleb128 0x10
	.4byte	.LASF680
	.byte	0xb
	.uleb128 0x10
	.4byte	.LASF681
	.byte	0xc
	.uleb128 0x10
	.4byte	.LASF682
	.byte	0xd
	.uleb128 0x10
	.4byte	.LASF683
	.byte	0xe
	.uleb128 0x10
	.4byte	.LASF684
	.byte	0x10
	.uleb128 0x10
	.4byte	.LASF685
	.byte	0x11
	.uleb128 0x10
	.4byte	.LASF686
	.byte	0x12
	.uleb128 0x10
	.4byte	.LASF687
	.byte	0x13
	.uleb128 0x10
	.4byte	.LASF688
	.byte	0x14
	.uleb128 0x10
	.4byte	.LASF689
	.byte	0x3d
	.uleb128 0x10
	.4byte	.LASF690
	.byte	0x3f
	.byte	0
	.uleb128 0x5
	.4byte	.LASF691
	.byte	0xa
	.byte	0x3a
	.byte	0x1
	.4byte	0x13d5
	.uleb128 0xf
	.byte	0x7
	.byte	0x1
	.4byte	0x2c
	.byte	0xa
	.byte	0xb1
	.byte	0x3
	.4byte	0x14b3
	.uleb128 0x10
	.4byte	.LASF692
	.byte	0x1
	.uleb128 0x10
	.4byte	.LASF693
	.byte	0x2
	.uleb128 0x10
	.4byte	.LASF694
	.byte	0x3
	.uleb128 0x10
	.4byte	.LASF695
	.byte	0x8
	.uleb128 0x10
	.4byte	.LASF696
	.byte	0x9
	.uleb128 0x10
	.4byte	.LASF697
	.byte	0xa
	.uleb128 0x10
	.4byte	.LASF698
	.byte	0xb
	.uleb128 0x10
	.4byte	.LASF699
	.byte	0x6e
	.byte	0
	.uleb128 0x5
	.4byte	.LASF700
	.byte	0xb
	.byte	0xe4
	.byte	0x1a
	.4byte	0x14bf
	.uleb128 0x7
	.byte	0x4
	.4byte	0x14c5
	.uleb128 0x18
	.4byte	.LASF702
	.uleb128 0x5
	.4byte	.LASF703
	.byte	0xc
	.byte	0x46
	.byte	0x1e
	.4byte	0x14d6
	.uleb128 0x16
	.4byte	.LASF704
	.byte	0x8
	.byte	0xc
	.2byte	0x22e
	.byte	0x8
	.4byte	0x1501
	.uleb128 0x17
	.4byte	.LASF705
	.byte	0xc
	.2byte	0x22f
	.byte	0xf
	.4byte	0x1468
	.byte	0
	.uleb128 0x1a
	.ascii	"pkt\000"
	.byte	0xc
	.2byte	0x23f
	.byte	0x7
	.4byte	0x213f
	.byte	0x4
	.byte	0
	.uleb128 0xf
	.byte	0x7
	.byte	0x1
	.4byte	0x2c
	.byte	0xc
	.byte	0x49
	.byte	0xe
	.4byte	0x1522
	.uleb128 0x10
	.4byte	.LASF706
	.byte	0x1
	.uleb128 0x10
	.4byte	.LASF707
	.byte	0x2
	.uleb128 0x10
	.4byte	.LASF708
	.byte	0x3
	.byte	0
	.uleb128 0x5
	.4byte	.LASF709
	.byte	0xc
	.byte	0x4d
	.byte	0x3
	.4byte	0x1501
	.uleb128 0x1b
	.byte	0x2
	.byte	0xc
	.byte	0x57
	.byte	0x9
	.4byte	0x1552
	.uleb128 0xd
	.4byte	.LASF710
	.byte	0xc
	.byte	0x58
	.byte	0xa
	.4byte	0xf8
	.byte	0
	.uleb128 0xd
	.4byte	.LASF711
	.byte	0xc
	.byte	0x59
	.byte	0xa
	.4byte	0xf8
	.byte	0x1
	.byte	0
	.uleb128 0x5
	.4byte	.LASF712
	.byte	0xc
	.byte	0x5a
	.byte	0x3
	.4byte	0x152e
	.uleb128 0x1b
	.byte	0x14
	.byte	0xc
	.byte	0x5d
	.byte	0x9
	.4byte	0x159c
	.uleb128 0xd
	.4byte	.LASF713
	.byte	0xc
	.byte	0x5f
	.byte	0x8
	.4byte	0x62
	.byte	0
	.uleb128 0xd
	.4byte	.LASF714
	.byte	0xc
	.byte	0x60
	.byte	0x8
	.4byte	0xf8
	.byte	0x4
	.uleb128 0xd
	.4byte	.LASF715
	.byte	0xc
	.byte	0x61
	.byte	0x8
	.4byte	0x159c
	.byte	0x5
	.uleb128 0xd
	.4byte	.LASF716
	.byte	0xc
	.byte	0x63
	.byte	0x8
	.4byte	0xec
	.byte	0x10
	.byte	0
	.uleb128 0xa
	.4byte	0xf8
	.4byte	0x15ac
	.uleb128 0xb
	.4byte	0x69
	.byte	0x7
	.byte	0
	.uleb128 0x5
	.4byte	.LASF717
	.byte	0xc
	.byte	0x64
	.byte	0x3
	.4byte	0x155e
	.uleb128 0x1b
	.byte	0x1c
	.byte	0xc
	.byte	0x68
	.byte	0x9
	.4byte	0x1610
	.uleb128 0xd
	.4byte	.LASF718
	.byte	0xc
	.byte	0x6a
	.byte	0x8
	.4byte	0xf8
	.byte	0
	.uleb128 0xd
	.4byte	.LASF719
	.byte	0xc
	.byte	0x6e
	.byte	0x8
	.4byte	0xf8
	.byte	0x1
	.uleb128 0xd
	.4byte	.LASF720
	.byte	0xc
	.byte	0x70
	.byte	0x8
	.4byte	0xf8
	.byte	0x2
	.uleb128 0xe
	.ascii	"s2k\000"
	.byte	0xc
	.byte	0x72
	.byte	0xe
	.4byte	0x15ac
	.byte	0x4
	.uleb128 0xd
	.4byte	.LASF721
	.byte	0xc
	.byte	0x77
	.byte	0x8
	.4byte	0xf8
	.byte	0x18
	.uleb128 0xd
	.4byte	.LASF722
	.byte	0xc
	.byte	0x7a
	.byte	0x8
	.4byte	0x1610
	.byte	0x19
	.byte	0
	.uleb128 0xa
	.4byte	0xf8
	.4byte	0x1620
	.uleb128 0xb
	.4byte	0x69
	.byte	0
	.byte	0
	.uleb128 0x5
	.4byte	.LASF723
	.byte	0xc
	.byte	0x7b
	.byte	0x3
	.4byte	0x15b8
	.uleb128 0x1b
	.byte	0x14
	.byte	0xc
	.byte	0x7f
	.byte	0x9
	.4byte	0x1677
	.uleb128 0xd
	.4byte	.LASF724
	.byte	0xc
	.byte	0x81
	.byte	0xb
	.4byte	0x1677
	.byte	0
	.uleb128 0xd
	.4byte	.LASF718
	.byte	0xc
	.byte	0x83
	.byte	0xb
	.4byte	0xf8
	.byte	0x8
	.uleb128 0xd
	.4byte	.LASF725
	.byte	0xc
	.byte	0x85
	.byte	0xb
	.4byte	0xf8
	.byte	0x9
	.uleb128 0xd
	.4byte	.LASF726
	.byte	0xc
	.byte	0x88
	.byte	0xb
	.4byte	0xf8
	.byte	0xa
	.uleb128 0xd
	.4byte	.LASF727
	.byte	0xc
	.byte	0x8a
	.byte	0x12
	.4byte	0x1687
	.byte	0xc
	.byte	0
	.uleb128 0xa
	.4byte	0xec
	.4byte	0x1687
	.uleb128 0xb
	.4byte	0x69
	.byte	0x1
	.byte	0
	.uleb128 0xa
	.4byte	0x14b3
	.4byte	0x1697
	.uleb128 0xb
	.4byte	0x69
	.byte	0x1
	.byte	0
	.uleb128 0x5
	.4byte	.LASF728
	.byte	0xc
	.byte	0x8b
	.byte	0x3
	.4byte	0x162c
	.uleb128 0x1b
	.byte	0xc
	.byte	0xc
	.byte	0x90
	.byte	0x9
	.4byte	0x16ee
	.uleb128 0xd
	.4byte	.LASF724
	.byte	0xc
	.byte	0x91
	.byte	0xd
	.4byte	0x1677
	.byte	0
	.uleb128 0xd
	.4byte	.LASF729
	.byte	0xc
	.byte	0x93
	.byte	0xd
	.4byte	0xf8
	.byte	0x8
	.uleb128 0xd
	.4byte	.LASF730
	.byte	0xc
	.byte	0x94
	.byte	0xd
	.4byte	0xf8
	.byte	0x9
	.uleb128 0xd
	.4byte	.LASF725
	.byte	0xc
	.byte	0x95
	.byte	0xd
	.4byte	0xf8
	.byte	0xa
	.uleb128 0xd
	.4byte	.LASF731
	.byte	0xc
	.byte	0x9e
	.byte	0xd
	.4byte	0xf8
	.byte	0xb
	.byte	0
	.uleb128 0x5
	.4byte	.LASF732
	.byte	0xc
	.byte	0x9f
	.byte	0x3
	.4byte	0x16a3
	.uleb128 0x1b
	.byte	0xc
	.byte	0xc
	.byte	0xa6
	.byte	0x9
	.4byte	0x172b
	.uleb128 0xd
	.4byte	.LASF667
	.byte	0xc
	.byte	0xa7
	.byte	0xc
	.4byte	0x70
	.byte	0
	.uleb128 0xe
	.ascii	"len\000"
	.byte	0xc
	.byte	0xa8
	.byte	0xc
	.4byte	0x70
	.byte	0x4
	.uleb128 0xd
	.4byte	.LASF727
	.byte	0xc
	.byte	0xa9
	.byte	0xa
	.4byte	0x1610
	.byte	0x8
	.byte	0
	.uleb128 0x5
	.4byte	.LASF733
	.byte	0xc
	.byte	0xaa
	.byte	0x3
	.4byte	0x16fa
	.uleb128 0x1b
	.byte	0x24
	.byte	0xc
	.byte	0xbb
	.byte	0x9
	.4byte	0x1782
	.uleb128 0xd
	.4byte	.LASF734
	.byte	0xc
	.byte	0xbd
	.byte	0x7
	.4byte	0x62
	.byte	0
	.uleb128 0xd
	.4byte	.LASF735
	.byte	0xc
	.byte	0xbe
	.byte	0x7
	.4byte	0x62
	.byte	0x4
	.uleb128 0xe
	.ascii	"uri\000"
	.byte	0xc
	.byte	0xc0
	.byte	0x9
	.4byte	0xa3
	.byte	0x8
	.uleb128 0xe
	.ascii	"fpr\000"
	.byte	0xc
	.byte	0xc2
	.byte	0x11
	.4byte	0x1782
	.byte	0xc
	.uleb128 0xd
	.4byte	.LASF736
	.byte	0xc
	.byte	0xc3
	.byte	0x8
	.4byte	0x109
	.byte	0x20
	.byte	0
	.uleb128 0xa
	.4byte	0x2c
	.4byte	0x1792
	.uleb128 0xb
	.4byte	0x69
	.byte	0x13
	.byte	0
	.uleb128 0x5
	.4byte	.LASF737
	.byte	0xc
	.byte	0xc4
	.byte	0x3
	.4byte	0x1737
	.uleb128 0x1b
	.byte	0x4
	.byte	0xc
	.byte	0xce
	.byte	0x3
	.4byte	0x1868
	.uleb128 0x1e
	.4byte	.LASF735
	.byte	0xc
	.byte	0xd0
	.byte	0xe
	.4byte	0x69
	.byte	0x4
	.byte	0x1
	.byte	0x1f
	.byte	0
	.uleb128 0x1e
	.4byte	.LASF734
	.byte	0xc
	.byte	0xd1
	.byte	0xe
	.4byte	0x69
	.byte	0x4
	.byte	0x1
	.byte	0x1e
	.byte	0
	.uleb128 0x1e
	.4byte	.LASF738
	.byte	0xc
	.byte	0xd2
	.byte	0xe
	.4byte	0x69
	.byte	0x4
	.byte	0x1
	.byte	0x1d
	.byte	0
	.uleb128 0x1e
	.4byte	.LASF739
	.byte	0xc
	.byte	0xd3
	.byte	0xe
	.4byte	0x69
	.byte	0x4
	.byte	0x1
	.byte	0x1c
	.byte	0
	.uleb128 0x1e
	.4byte	.LASF740
	.byte	0xc
	.byte	0xd4
	.byte	0xe
	.4byte	0x69
	.byte	0x4
	.byte	0x1
	.byte	0x1b
	.byte	0
	.uleb128 0x1e
	.4byte	.LASF741
	.byte	0xc
	.byte	0xd5
	.byte	0xe
	.4byte	0x69
	.byte	0x4
	.byte	0x1
	.byte	0x1a
	.byte	0
	.uleb128 0x1e
	.4byte	.LASF742
	.byte	0xc
	.byte	0xd6
	.byte	0xe
	.4byte	0x69
	.byte	0x4
	.byte	0x1
	.byte	0x19
	.byte	0
	.uleb128 0x1e
	.4byte	.LASF743
	.byte	0xc
	.byte	0xd7
	.byte	0xe
	.4byte	0x69
	.byte	0x4
	.byte	0x1
	.byte	0x18
	.byte	0
	.uleb128 0x1e
	.4byte	.LASF744
	.byte	0xc
	.byte	0xd8
	.byte	0xe
	.4byte	0x69
	.byte	0x4
	.byte	0x1
	.byte	0x17
	.byte	0
	.uleb128 0x1e
	.4byte	.LASF745
	.byte	0xc
	.byte	0xd9
	.byte	0xe
	.4byte	0x69
	.byte	0x4
	.byte	0x1
	.byte	0x16
	.byte	0
	.uleb128 0x1e
	.4byte	.LASF746
	.byte	0xc
	.byte	0xda
	.byte	0xe
	.4byte	0x69
	.byte	0x4
	.byte	0x1
	.byte	0x15
	.byte	0
	.uleb128 0x1e
	.4byte	.LASF747
	.byte	0xc
	.byte	0xdb
	.byte	0xe
	.4byte	0x69
	.byte	0x4
	.byte	0x1
	.byte	0x14
	.byte	0
	.byte	0
	.uleb128 0x1b
	.byte	0x8c
	.byte	0xc
	.byte	0xcc
	.byte	0x9
	.4byte	0x1994
	.uleb128 0xd
	.4byte	.LASF20
	.byte	0xc
	.byte	0xdc
	.byte	0x5
	.4byte	0x179e
	.byte	0
	.uleb128 0xd
	.4byte	.LASF724
	.byte	0xc
	.byte	0xe0
	.byte	0xb
	.4byte	0x1677
	.byte	0x4
	.uleb128 0xd
	.4byte	.LASF748
	.byte	0xc
	.byte	0xe4
	.byte	0xb
	.4byte	0xec
	.byte	0xc
	.uleb128 0xd
	.4byte	.LASF749
	.byte	0xc
	.byte	0xe5
	.byte	0xb
	.4byte	0xec
	.byte	0x10
	.uleb128 0xd
	.4byte	.LASF718
	.byte	0xc
	.byte	0xe8
	.byte	0xb
	.4byte	0xf8
	.byte	0x14
	.uleb128 0xd
	.4byte	.LASF729
	.byte	0xc
	.byte	0xea
	.byte	0xb
	.4byte	0xf8
	.byte	0x15
	.uleb128 0xd
	.4byte	.LASF725
	.byte	0xc
	.byte	0xed
	.byte	0xb
	.4byte	0xf8
	.byte	0x16
	.uleb128 0xd
	.4byte	.LASF730
	.byte	0xc
	.byte	0xf0
	.byte	0xb
	.4byte	0xf8
	.byte	0x17
	.uleb128 0xd
	.4byte	.LASF750
	.byte	0xc
	.byte	0xf1
	.byte	0xb
	.4byte	0xf8
	.byte	0x18
	.uleb128 0xd
	.4byte	.LASF751
	.byte	0xc
	.byte	0xf2
	.byte	0xb
	.4byte	0xf8
	.byte	0x19
	.uleb128 0xd
	.4byte	.LASF752
	.byte	0xc
	.byte	0xf3
	.byte	0xf
	.4byte	0x1994
	.byte	0x1c
	.uleb128 0xd
	.4byte	.LASF753
	.byte	0xc
	.byte	0xf4
	.byte	0x1a
	.4byte	0x199f
	.byte	0x20
	.uleb128 0xd
	.4byte	.LASF754
	.byte	0xc
	.byte	0xf5
	.byte	0x7
	.4byte	0x62
	.byte	0x24
	.uleb128 0xd
	.4byte	.LASF755
	.byte	0xc
	.byte	0xf6
	.byte	0x7
	.4byte	0x62
	.byte	0x28
	.uleb128 0xd
	.4byte	.LASF756
	.byte	0xc
	.byte	0xf7
	.byte	0xf
	.4byte	0x19a5
	.byte	0x2c
	.uleb128 0xd
	.4byte	.LASF757
	.byte	0xc
	.byte	0xf9
	.byte	0x9
	.4byte	0xa3
	.byte	0x30
	.uleb128 0xd
	.4byte	.LASF758
	.byte	0xc
	.byte	0xfc
	.byte	0x11
	.4byte	0x19ab
	.byte	0x34
	.uleb128 0xd
	.4byte	.LASF759
	.byte	0xc
	.byte	0xfd
	.byte	0x11
	.4byte	0x19ab
	.byte	0x38
	.uleb128 0x17
	.4byte	.LASF760
	.byte	0xc
	.2byte	0x100
	.byte	0x8
	.4byte	0x19b1
	.byte	0x3c
	.uleb128 0x17
	.4byte	.LASF727
	.byte	0xc
	.2byte	0x102
	.byte	0xf
	.4byte	0x1687
	.byte	0x40
	.uleb128 0x17
	.4byte	.LASF761
	.byte	0xc
	.2byte	0x106
	.byte	0x8
	.4byte	0x19c1
	.byte	0x48
	.uleb128 0x17
	.4byte	.LASF762
	.byte	0xc
	.2byte	0x107
	.byte	0x7
	.4byte	0x62
	.byte	0x88
	.byte	0
	.uleb128 0x7
	.byte	0x4
	.4byte	0x104
	.uleb128 0x18
	.4byte	.LASF763
	.uleb128 0x7
	.byte	0x4
	.4byte	0x199a
	.uleb128 0x7
	.byte	0x4
	.4byte	0x1792
	.uleb128 0x7
	.byte	0x4
	.4byte	0x172b
	.uleb128 0xa
	.4byte	0xf8
	.4byte	0x19c1
	.uleb128 0xb
	.4byte	0x69
	.byte	0x1
	.byte	0
	.uleb128 0xa
	.4byte	0xf8
	.4byte	0x19d1
	.uleb128 0xb
	.4byte	0x69
	.byte	0x3f
	.byte	0
	.uleb128 0x13
	.4byte	.LASF764
	.byte	0xc
	.2byte	0x108
	.byte	0x3
	.4byte	0x1868
	.uleb128 0x16
	.4byte	.LASF765
	.byte	0xc
	.byte	0xc
	.2byte	0x10d
	.byte	0x8
	.4byte	0x1a17
	.uleb128 0x17
	.4byte	.LASF710
	.byte	0xc
	.2byte	0x10e
	.byte	0x8
	.4byte	0xf8
	.byte	0
	.uleb128 0x17
	.4byte	.LASF727
	.byte	0xc
	.2byte	0x10f
	.byte	0xf
	.4byte	0x1994
	.byte	0x4
	.uleb128 0x1a
	.ascii	"len\000"
	.byte	0xc
	.2byte	0x110
	.byte	0x7
	.4byte	0xec
	.byte	0x8
	.byte	0
	.uleb128 0x14
	.byte	0x4
	.byte	0xc
	.2byte	0x130
	.byte	0x3
	.4byte	0x1a99
	.uleb128 0x1f
	.ascii	"mdc\000"
	.byte	0xc
	.2byte	0x132
	.byte	0x12
	.4byte	0x69
	.byte	0x4
	.byte	0x1
	.byte	0x1f
	.byte	0
	.uleb128 0x15
	.4byte	.LASF766
	.byte	0xc
	.2byte	0x133
	.byte	0x12
	.4byte	0x69
	.byte	0x4
	.byte	0x1
	.byte	0x1e
	.byte	0
	.uleb128 0x15
	.4byte	.LASF767
	.byte	0xc
	.2byte	0x134
	.byte	0x12
	.4byte	0x69
	.byte	0x4
	.byte	0x1
	.byte	0x1d
	.byte	0
	.uleb128 0x15
	.4byte	.LASF768
	.byte	0xc
	.2byte	0x135
	.byte	0x12
	.4byte	0x69
	.byte	0x4
	.byte	0x1
	.byte	0x1c
	.byte	0
	.uleb128 0x15
	.4byte	.LASF769
	.byte	0xc
	.2byte	0x136
	.byte	0x12
	.4byte	0x69
	.byte	0x4
	.byte	0x2
	.byte	0x1a
	.byte	0
	.uleb128 0x15
	.4byte	.LASF770
	.byte	0xc
	.2byte	0x137
	.byte	0x12
	.4byte	0x69
	.byte	0x4
	.byte	0x1
	.byte	0x19
	.byte	0
	.uleb128 0x15
	.4byte	.LASF746
	.byte	0xc
	.2byte	0x138
	.byte	0x12
	.4byte	0x69
	.byte	0x4
	.byte	0x1
	.byte	0x18
	.byte	0
	.byte	0
	.uleb128 0x14
	.byte	0x50
	.byte	0xc
	.2byte	0x118
	.byte	0x9
	.4byte	0x1bca
	.uleb128 0x1a
	.ascii	"ref\000"
	.byte	0xc
	.2byte	0x11a
	.byte	0x7
	.4byte	0x62
	.byte	0
	.uleb128 0x1a
	.ascii	"len\000"
	.byte	0xc
	.2byte	0x11c
	.byte	0x7
	.4byte	0x62
	.byte	0x4
	.uleb128 0x17
	.4byte	.LASF771
	.byte	0xc
	.2byte	0x11d
	.byte	0x1a
	.4byte	0x1bca
	.byte	0x8
	.uleb128 0x17
	.4byte	.LASF772
	.byte	0xc
	.2byte	0x11e
	.byte	0x7
	.4byte	0x62
	.byte	0xc
	.uleb128 0x17
	.4byte	.LASF773
	.byte	0xc
	.2byte	0x121
	.byte	0x9
	.4byte	0x1390
	.byte	0x10
	.uleb128 0x17
	.4byte	.LASF774
	.byte	0xc
	.2byte	0x123
	.byte	0x11
	.4byte	0x4d
	.byte	0x14
	.uleb128 0x17
	.4byte	.LASF775
	.byte	0xc
	.2byte	0x124
	.byte	0x9
	.4byte	0x1390
	.byte	0x18
	.uleb128 0x17
	.4byte	.LASF776
	.byte	0xc
	.2byte	0x125
	.byte	0x7
	.4byte	0xe0
	.byte	0x1c
	.uleb128 0x17
	.4byte	.LASF777
	.byte	0xc
	.2byte	0x126
	.byte	0x7
	.4byte	0xec
	.byte	0x20
	.uleb128 0x17
	.4byte	.LASF778
	.byte	0xc
	.2byte	0x127
	.byte	0x7
	.4byte	0x62
	.byte	0x24
	.uleb128 0x17
	.4byte	.LASF779
	.byte	0xc
	.2byte	0x128
	.byte	0x7
	.4byte	0x62
	.byte	0x28
	.uleb128 0x17
	.4byte	.LASF749
	.byte	0xc
	.2byte	0x129
	.byte	0x7
	.4byte	0xec
	.byte	0x2c
	.uleb128 0x17
	.4byte	.LASF780
	.byte	0xc
	.2byte	0x12a
	.byte	0xf
	.4byte	0x1bd0
	.byte	0x30
	.uleb128 0x17
	.4byte	.LASF781
	.byte	0xc
	.2byte	0x12b
	.byte	0x7
	.4byte	0xec
	.byte	0x34
	.uleb128 0x17
	.4byte	.LASF782
	.byte	0xc
	.2byte	0x12c
	.byte	0x7
	.4byte	0xec
	.byte	0x38
	.uleb128 0x17
	.4byte	.LASF783
	.byte	0xc
	.2byte	0x12d
	.byte	0x9
	.4byte	0xa3
	.byte	0x3c
	.uleb128 0x17
	.4byte	.LASF784
	.byte	0xc
	.2byte	0x12e
	.byte	0x8
	.4byte	0xf8
	.byte	0x40
	.uleb128 0x17
	.4byte	.LASF785
	.byte	0xc
	.2byte	0x12f
	.byte	0x8
	.4byte	0xf8
	.byte	0x41
	.uleb128 0x17
	.4byte	.LASF20
	.byte	0xc
	.2byte	0x139
	.byte	0x5
	.4byte	0x1a17
	.byte	0x44
	.uleb128 0x17
	.4byte	.LASF786
	.byte	0xc
	.2byte	0x13b
	.byte	0x9
	.4byte	0xa3
	.byte	0x48
	.uleb128 0x17
	.4byte	.LASF787
	.byte	0xc
	.2byte	0x140
	.byte	0x8
	.4byte	0x109
	.byte	0x4c
	.byte	0
	.uleb128 0x7
	.byte	0x4
	.4byte	0x19de
	.uleb128 0x7
	.byte	0x4
	.4byte	0x1552
	.uleb128 0x13
	.4byte	.LASF788
	.byte	0xc
	.2byte	0x141
	.byte	0x3
	.4byte	0x1a99
	.uleb128 0x16
	.4byte	.LASF789
	.byte	0x10
	.byte	0xc
	.2byte	0x145
	.byte	0x8
	.4byte	0x1c1c
	.uleb128 0x17
	.4byte	.LASF790
	.byte	0xc
	.2byte	0x148
	.byte	0x7
	.4byte	0xec
	.byte	0
	.uleb128 0x17
	.4byte	.LASF724
	.byte	0xc
	.2byte	0x14a
	.byte	0x7
	.4byte	0x1677
	.byte	0x4
	.uleb128 0x17
	.4byte	.LASF791
	.byte	0xc
	.2byte	0x14c
	.byte	0x8
	.4byte	0xf8
	.byte	0xc
	.byte	0
	.uleb128 0x16
	.4byte	.LASF792
	.byte	0x30
	.byte	0xc
	.2byte	0x151
	.byte	0x8
	.4byte	0x1c92
	.uleb128 0x15
	.4byte	.LASF793
	.byte	0xc
	.2byte	0x153
	.byte	0x7
	.4byte	0x62
	.byte	0x4
	.byte	0x1
	.byte	0x1f
	.byte	0
	.uleb128 0x15
	.4byte	.LASF794
	.byte	0xc
	.2byte	0x157
	.byte	0x7
	.4byte	0x62
	.byte	0x4
	.byte	0x1
	.byte	0x1e
	.byte	0
	.uleb128 0x17
	.4byte	.LASF795
	.byte	0xc
	.2byte	0x158
	.byte	0x7
	.4byte	0xe0
	.byte	0x2
	.uleb128 0x17
	.4byte	.LASF791
	.byte	0xc
	.2byte	0x159
	.byte	0x8
	.4byte	0xf8
	.byte	0x4
	.uleb128 0x1a
	.ascii	"s2k\000"
	.byte	0xc
	.2byte	0x15a
	.byte	0xe
	.4byte	0x15ac
	.byte	0x8
	.uleb128 0x17
	.4byte	.LASF796
	.byte	0xc
	.2byte	0x15b
	.byte	0x8
	.4byte	0xf8
	.byte	0x1c
	.uleb128 0x1a
	.ascii	"iv\000"
	.byte	0xc
	.2byte	0x15c
	.byte	0x8
	.4byte	0x13c5
	.byte	0x1d
	.byte	0
	.uleb128 0x14
	.byte	0x4
	.byte	0xc
	.2byte	0x191
	.byte	0x3
	.4byte	0x1d69
	.uleb128 0x1f
	.ascii	"mdc\000"
	.byte	0xc
	.2byte	0x193
	.byte	0x12
	.4byte	0x69
	.byte	0x4
	.byte	0x1
	.byte	0x1f
	.byte	0
	.uleb128 0x15
	.4byte	.LASF766
	.byte	0xc
	.2byte	0x194
	.byte	0x12
	.4byte	0x69
	.byte	0x4
	.byte	0x1
	.byte	0x1e
	.byte	0
	.uleb128 0x15
	.4byte	.LASF797
	.byte	0xc
	.2byte	0x195
	.byte	0x12
	.4byte	0x69
	.byte	0x4
	.byte	0x1
	.byte	0x1d
	.byte	0
	.uleb128 0x15
	.4byte	.LASF798
	.byte	0xc
	.2byte	0x196
	.byte	0x12
	.4byte	0x69
	.byte	0x4
	.byte	0x1
	.byte	0x1c
	.byte	0
	.uleb128 0x15
	.4byte	.LASF769
	.byte	0xc
	.2byte	0x197
	.byte	0x12
	.4byte	0x69
	.byte	0x4
	.byte	0x1
	.byte	0x1b
	.byte	0
	.uleb128 0x15
	.4byte	.LASF770
	.byte	0xc
	.2byte	0x198
	.byte	0x12
	.4byte	0x69
	.byte	0x4
	.byte	0x2
	.byte	0x19
	.byte	0
	.uleb128 0x15
	.4byte	.LASF799
	.byte	0xc
	.2byte	0x19b
	.byte	0x12
	.4byte	0x69
	.byte	0x4
	.byte	0x1
	.byte	0x18
	.byte	0
	.uleb128 0x15
	.4byte	.LASF734
	.byte	0xc
	.2byte	0x19e
	.byte	0x12
	.4byte	0x69
	.byte	0x4
	.byte	0x1
	.byte	0x17
	.byte	0
	.uleb128 0x15
	.4byte	.LASF800
	.byte	0xc
	.2byte	0x19f
	.byte	0x12
	.4byte	0x69
	.byte	0x4
	.byte	0x1
	.byte	0x16
	.byte	0
	.uleb128 0x15
	.4byte	.LASF801
	.byte	0xc
	.2byte	0x1a0
	.byte	0x12
	.4byte	0x69
	.byte	0x4
	.byte	0x2
	.byte	0x14
	.byte	0
	.uleb128 0x15
	.4byte	.LASF802
	.byte	0xc
	.2byte	0x1a1
	.byte	0x12
	.4byte	0x69
	.byte	0x4
	.byte	0x1
	.byte	0x13
	.byte	0
	.uleb128 0x15
	.4byte	.LASF803
	.byte	0xc
	.2byte	0x1a2
	.byte	0x12
	.4byte	0x69
	.byte	0x4
	.byte	0x1
	.byte	0x12
	.byte	0
	.byte	0
	.uleb128 0x14
	.byte	0x84
	.byte	0xc
	.2byte	0x175
	.byte	0x9
	.4byte	0x1efc
	.uleb128 0x17
	.4byte	.LASF748
	.byte	0xc
	.2byte	0x178
	.byte	0xb
	.4byte	0xec
	.byte	0
	.uleb128 0x17
	.4byte	.LASF749
	.byte	0xc
	.2byte	0x179
	.byte	0xb
	.4byte	0xec
	.byte	0x4
	.uleb128 0x17
	.4byte	.LASF804
	.byte	0xc
	.2byte	0x17a
	.byte	0xb
	.4byte	0xec
	.byte	0x8
	.uleb128 0x17
	.4byte	.LASF770
	.byte	0xc
	.2byte	0x17b
	.byte	0x16
	.4byte	0x1be3
	.byte	0xc
	.uleb128 0x17
	.4byte	.LASF805
	.byte	0xc
	.2byte	0x180
	.byte	0xb
	.4byte	0xf8
	.byte	0x1c
	.uleb128 0x17
	.4byte	.LASF718
	.byte	0xc
	.2byte	0x183
	.byte	0xb
	.4byte	0xf8
	.byte	0x1d
	.uleb128 0x17
	.4byte	.LASF785
	.byte	0xc
	.2byte	0x184
	.byte	0xb
	.4byte	0xf8
	.byte	0x1e
	.uleb128 0x17
	.4byte	.LASF725
	.byte	0xc
	.2byte	0x186
	.byte	0xb
	.4byte	0xf8
	.byte	0x1f
	.uleb128 0x17
	.4byte	.LASF806
	.byte	0xc
	.2byte	0x187
	.byte	0xb
	.4byte	0xe0
	.byte	0x20
	.uleb128 0x17
	.4byte	.LASF807
	.byte	0xc
	.2byte	0x188
	.byte	0xb
	.4byte	0xf8
	.byte	0x22
	.uleb128 0x17
	.4byte	.LASF808
	.byte	0xc
	.2byte	0x189
	.byte	0xb
	.4byte	0xec
	.byte	0x24
	.uleb128 0x17
	.4byte	.LASF809
	.byte	0xc
	.2byte	0x18c
	.byte	0xb
	.4byte	0x1677
	.byte	0x28
	.uleb128 0x17
	.4byte	.LASF724
	.byte	0xc
	.2byte	0x18f
	.byte	0xb
	.4byte	0x1677
	.byte	0x30
	.uleb128 0x17
	.4byte	.LASF780
	.byte	0xc
	.2byte	0x190
	.byte	0xf
	.4byte	0x1bd0
	.byte	0x38
	.uleb128 0x17
	.4byte	.LASF20
	.byte	0xc
	.2byte	0x1a3
	.byte	0x5
	.4byte	0x1c92
	.byte	0x3c
	.uleb128 0x17
	.4byte	.LASF810
	.byte	0xc
	.2byte	0x1a4
	.byte	0x10
	.4byte	0x1efc
	.byte	0x40
	.uleb128 0x17
	.4byte	.LASF753
	.byte	0xc
	.2byte	0x1a5
	.byte	0x1a
	.4byte	0x199f
	.byte	0x44
	.uleb128 0x17
	.4byte	.LASF754
	.byte	0xc
	.2byte	0x1a6
	.byte	0xb
	.4byte	0x62
	.byte	0x48
	.uleb128 0x17
	.4byte	.LASF811
	.byte	0xc
	.2byte	0x1a7
	.byte	0xb
	.4byte	0xec
	.byte	0x4c
	.uleb128 0x17
	.4byte	.LASF750
	.byte	0xc
	.2byte	0x1a8
	.byte	0xb
	.4byte	0xf8
	.byte	0x50
	.uleb128 0x17
	.4byte	.LASF751
	.byte	0xc
	.2byte	0x1a9
	.byte	0xb
	.4byte	0xf8
	.byte	0x51
	.uleb128 0x17
	.4byte	.LASF784
	.byte	0xc
	.2byte	0x1aa
	.byte	0xb
	.4byte	0xf8
	.byte	0x52
	.uleb128 0x17
	.4byte	.LASF782
	.byte	0xc
	.2byte	0x1ab
	.byte	0xb
	.4byte	0xec
	.byte	0x54
	.uleb128 0x17
	.4byte	.LASF783
	.byte	0xc
	.2byte	0x1ac
	.byte	0xc
	.4byte	0xa3
	.byte	0x58
	.uleb128 0x17
	.4byte	.LASF752
	.byte	0xc
	.2byte	0x1ad
	.byte	0xf
	.4byte	0x1994
	.byte	0x5c
	.uleb128 0x17
	.4byte	.LASF812
	.byte	0xc
	.2byte	0x1ae
	.byte	0xc
	.4byte	0xa3
	.byte	0x60
	.uleb128 0x17
	.4byte	.LASF792
	.byte	0xc
	.2byte	0x1b3
	.byte	0x17
	.4byte	0x1f02
	.byte	0x64
	.uleb128 0x17
	.4byte	.LASF813
	.byte	0xc
	.2byte	0x1b8
	.byte	0xf
	.4byte	0x1f08
	.byte	0x68
	.byte	0
	.uleb128 0x7
	.byte	0x4
	.4byte	0x1bd6
	.uleb128 0x7
	.byte	0x4
	.4byte	0x1c1c
	.uleb128 0xa
	.4byte	0x14b3
	.4byte	0x1f18
	.uleb128 0xb
	.4byte	0x69
	.byte	0x6
	.byte	0
	.uleb128 0x13
	.4byte	.LASF814
	.byte	0xc
	.2byte	0x1b9
	.byte	0x3
	.4byte	0x1d69
	.uleb128 0x14
	.byte	0x8
	.byte	0xc
	.2byte	0x1c2
	.byte	0x9
	.4byte	0x1f4c
	.uleb128 0x1a
	.ascii	"len\000"
	.byte	0xc
	.2byte	0x1c3
	.byte	0xa
	.4byte	0x62
	.byte	0
	.uleb128 0x17
	.4byte	.LASF727
	.byte	0xc
	.2byte	0x1c4
	.byte	0xa
	.4byte	0x109
	.byte	0x4
	.byte	0
	.uleb128 0x13
	.4byte	.LASF815
	.byte	0xc
	.2byte	0x1c5
	.byte	0x3
	.4byte	0x1f25
	.uleb128 0x14
	.byte	0xc
	.byte	0xc
	.2byte	0x1c8
	.byte	0x9
	.4byte	0x1f9c
	.uleb128 0x1a
	.ascii	"len\000"
	.byte	0xc
	.2byte	0x1ca
	.byte	0x7
	.4byte	0xec
	.byte	0
	.uleb128 0x17
	.4byte	.LASF816
	.byte	0xc
	.2byte	0x1cd
	.byte	0x9
	.4byte	0xf8
	.byte	0x4
	.uleb128 0x17
	.4byte	.LASF817
	.byte	0xc
	.2byte	0x1cf
	.byte	0x9
	.4byte	0xf8
	.byte	0x5
	.uleb128 0x1a
	.ascii	"buf\000"
	.byte	0xc
	.2byte	0x1d2
	.byte	0xb
	.4byte	0x1264
	.byte	0x8
	.byte	0
	.uleb128 0x13
	.4byte	.LASF818
	.byte	0xc
	.2byte	0x1d3
	.byte	0x3
	.4byte	0x1f59
	.uleb128 0x14
	.byte	0x14
	.byte	0xc
	.2byte	0x1d8
	.byte	0x9
	.4byte	0x2032
	.uleb128 0x1a
	.ascii	"len\000"
	.byte	0xc
	.2byte	0x1da
	.byte	0x8
	.4byte	0xec
	.byte	0
	.uleb128 0x17
	.4byte	.LASF819
	.byte	0xc
	.2byte	0x1e2
	.byte	0x8
	.4byte	0x62
	.byte	0x4
	.uleb128 0x17
	.4byte	.LASF816
	.byte	0xc
	.2byte	0x1e5
	.byte	0x8
	.4byte	0xf8
	.byte	0x8
	.uleb128 0x17
	.4byte	.LASF820
	.byte	0xc
	.2byte	0x1e9
	.byte	0x8
	.4byte	0xf8
	.byte	0x9
	.uleb128 0x17
	.4byte	.LASF821
	.byte	0xc
	.2byte	0x1ec
	.byte	0x8
	.4byte	0xf8
	.byte	0xa
	.uleb128 0x17
	.4byte	.LASF720
	.byte	0xc
	.2byte	0x1ef
	.byte	0x8
	.4byte	0xf8
	.byte	0xb
	.uleb128 0x17
	.4byte	.LASF719
	.byte	0xc
	.2byte	0x1f2
	.byte	0x8
	.4byte	0xf8
	.byte	0xc
	.uleb128 0x17
	.4byte	.LASF822
	.byte	0xc
	.2byte	0x1f4
	.byte	0x8
	.4byte	0xf8
	.byte	0xd
	.uleb128 0x1a
	.ascii	"buf\000"
	.byte	0xc
	.2byte	0x1f8
	.byte	0xb
	.4byte	0x1264
	.byte	0x10
	.byte	0
	.uleb128 0x13
	.4byte	.LASF823
	.byte	0xc
	.2byte	0x1f9
	.byte	0x3
	.4byte	0x1fa9
	.uleb128 0x14
	.byte	0x14
	.byte	0xc
	.2byte	0x1fb
	.byte	0x9
	.4byte	0x2058
	.uleb128 0x17
	.4byte	.LASF824
	.byte	0xc
	.2byte	0x1fc
	.byte	0xa
	.4byte	0x2058
	.byte	0
	.byte	0
	.uleb128 0xa
	.4byte	0xf8
	.4byte	0x2068
	.uleb128 0xb
	.4byte	0x69
	.byte	0x13
	.byte	0
	.uleb128 0x13
	.4byte	.LASF825
	.byte	0xc
	.2byte	0x1fd
	.byte	0x3
	.4byte	0x203f
	.uleb128 0x14
	.byte	0x1c
	.byte	0xc
	.2byte	0x216
	.byte	0x9
	.4byte	0x20f0
	.uleb128 0x1a
	.ascii	"len\000"
	.byte	0xc
	.2byte	0x218
	.byte	0x8
	.4byte	0xec
	.byte	0
	.uleb128 0x1a
	.ascii	"buf\000"
	.byte	0xc
	.2byte	0x21a
	.byte	0xb
	.4byte	0x1264
	.byte	0x4
	.uleb128 0x17
	.4byte	.LASF816
	.byte	0xc
	.2byte	0x21b
	.byte	0x8
	.4byte	0xf8
	.byte	0x8
	.uleb128 0x17
	.4byte	.LASF820
	.byte	0xc
	.2byte	0x21c
	.byte	0x8
	.4byte	0xf8
	.byte	0x9
	.uleb128 0x17
	.4byte	.LASF713
	.byte	0xc
	.2byte	0x21f
	.byte	0x7
	.4byte	0x62
	.byte	0xc
	.uleb128 0x17
	.4byte	.LASF748
	.byte	0xc
	.2byte	0x220
	.byte	0x7
	.4byte	0xec
	.byte	0x10
	.uleb128 0x17
	.4byte	.LASF826
	.byte	0xc
	.2byte	0x223
	.byte	0x8
	.4byte	0x62
	.byte	0x14
	.uleb128 0x17
	.4byte	.LASF787
	.byte	0xc
	.2byte	0x224
	.byte	0x8
	.4byte	0x109
	.byte	0x18
	.byte	0
	.uleb128 0x13
	.4byte	.LASF827
	.byte	0xc
	.2byte	0x225
	.byte	0x3
	.4byte	0x2075
	.uleb128 0x14
	.byte	0xc
	.byte	0xc
	.2byte	0x227
	.byte	0x9
	.4byte	0x2132
	.uleb128 0x17
	.4byte	.LASF828
	.byte	0xc
	.2byte	0x228
	.byte	0xa
	.4byte	0x62
	.byte	0
	.uleb128 0x17
	.4byte	.LASF829
	.byte	0xc
	.2byte	0x229
	.byte	0xc
	.4byte	0x70
	.byte	0x4
	.uleb128 0x17
	.4byte	.LASF727
	.byte	0xc
	.2byte	0x22a
	.byte	0xa
	.4byte	0x109
	.byte	0x8
	.byte	0
	.uleb128 0x13
	.4byte	.LASF830
	.byte	0xc
	.2byte	0x22b
	.byte	0x3
	.4byte	0x20fd
	.uleb128 0x20
	.byte	0x4
	.byte	0xc
	.2byte	0x230
	.byte	0x5
	.4byte	0x2200
	.uleb128 0x21
	.4byte	.LASF831
	.byte	0xc
	.2byte	0x231
	.byte	0x8
	.4byte	0x83
	.uleb128 0x21
	.4byte	.LASF832
	.byte	0xc
	.2byte	0x232
	.byte	0x12
	.4byte	0x2200
	.uleb128 0x21
	.4byte	.LASF833
	.byte	0xc
	.2byte	0x233
	.byte	0x12
	.4byte	0x2206
	.uleb128 0x21
	.4byte	.LASF834
	.byte	0xc
	.2byte	0x234
	.byte	0x13
	.4byte	0x220c
	.uleb128 0x21
	.4byte	.LASF835
	.byte	0xc
	.2byte	0x235
	.byte	0x11
	.4byte	0x2212
	.uleb128 0x21
	.4byte	.LASF836
	.byte	0xc
	.2byte	0x236
	.byte	0x12
	.4byte	0x2218
	.uleb128 0x21
	.4byte	.LASF837
	.byte	0xc
	.2byte	0x237
	.byte	0x12
	.4byte	0x2218
	.uleb128 0x21
	.4byte	.LASF838
	.byte	0xc
	.2byte	0x238
	.byte	0xf
	.4byte	0x221e
	.uleb128 0x21
	.4byte	.LASF810
	.byte	0xc
	.2byte	0x239
	.byte	0xf
	.4byte	0x1efc
	.uleb128 0x21
	.4byte	.LASF839
	.byte	0xc
	.2byte	0x23a
	.byte	0x12
	.4byte	0x2224
	.uleb128 0x21
	.4byte	.LASF840
	.byte	0xc
	.2byte	0x23b
	.byte	0x11
	.4byte	0x222a
	.uleb128 0x22
	.ascii	"mdc\000"
	.byte	0xc
	.2byte	0x23c
	.byte	0xc
	.4byte	0x2230
	.uleb128 0x21
	.4byte	.LASF841
	.byte	0xc
	.2byte	0x23d
	.byte	0x11
	.4byte	0x2236
	.uleb128 0x21
	.4byte	.LASF842
	.byte	0xc
	.2byte	0x23e
	.byte	0x1a
	.4byte	0x223c
	.byte	0
	.uleb128 0x7
	.byte	0x4
	.4byte	0x1620
	.uleb128 0x7
	.byte	0x4
	.4byte	0x1697
	.uleb128 0x7
	.byte	0x4
	.4byte	0x16ee
	.uleb128 0x7
	.byte	0x4
	.4byte	0x19d1
	.uleb128 0x7
	.byte	0x4
	.4byte	0x1f18
	.uleb128 0x7
	.byte	0x4
	.4byte	0x1f4c
	.uleb128 0x7
	.byte	0x4
	.4byte	0x1f9c
	.uleb128 0x7
	.byte	0x4
	.4byte	0x2032
	.uleb128 0x7
	.byte	0x4
	.4byte	0x2068
	.uleb128 0x7
	.byte	0x4
	.4byte	0x20f0
	.uleb128 0x7
	.byte	0x4
	.4byte	0x2132
	.uleb128 0x16
	.4byte	.LASF843
	.byte	0x18
	.byte	0xc
	.2byte	0x28d
	.byte	0x8
	.4byte	0x2297
	.uleb128 0x1a
	.ascii	"inp\000"
	.byte	0xc
	.2byte	0x28f
	.byte	0xb
	.4byte	0x1264
	.byte	0
	.uleb128 0x17
	.4byte	.LASF844
	.byte	0xc
	.2byte	0x290
	.byte	0x18
	.4byte	0x14d6
	.byte	0x4
	.uleb128 0x17
	.4byte	.LASF845
	.byte	0xc
	.2byte	0x291
	.byte	0x7
	.4byte	0x62
	.byte	0xc
	.uleb128 0x17
	.4byte	.LASF846
	.byte	0xc
	.2byte	0x292
	.byte	0x7
	.4byte	0x62
	.byte	0x10
	.uleb128 0x17
	.4byte	.LASF847
	.byte	0xc
	.2byte	0x293
	.byte	0x10
	.4byte	0x69
	.byte	0x14
	.byte	0
	.uleb128 0x13
	.4byte	.LASF848
	.byte	0xc
	.2byte	0x295
	.byte	0x24
	.4byte	0x22a4
	.uleb128 0x7
	.byte	0x4
	.4byte	0x2242
	.uleb128 0x23
	.4byte	.LASF849
	.byte	0x1
	.byte	0x29
	.byte	0xc
	.4byte	0x62
	.uleb128 0x23
	.4byte	.LASF850
	.byte	0x1
	.byte	0x2a
	.byte	0xc
	.4byte	0x62
	.uleb128 0x23
	.4byte	.LASF851
	.byte	0x1
	.byte	0x2b
	.byte	0x12
	.4byte	0x1226
	.uleb128 0x23
	.4byte	.LASF852
	.byte	0x1
	.byte	0x2f
	.byte	0x12
	.4byte	0x160
	.uleb128 0x24
	.4byte	.LASF880
	.byte	0x1
	.2byte	0xe72
	.byte	0x1
	.4byte	0x2380
	.4byte	.LFB46
	.4byte	.LFE46-.LFB46
	.uleb128 0x1
	.byte	0x9c
	.4byte	0x2380
	.uleb128 0x25
	.4byte	.LASF710
	.byte	0x1
	.2byte	0xe72
	.byte	0x22
	.4byte	0x1522
	.4byte	.LLST98
	.4byte	.LVUS98
	.uleb128 0x25
	.4byte	.LASF727
	.byte	0x1
	.2byte	0xe72
	.byte	0x34
	.4byte	0x1994
	.4byte	.LLST99
	.4byte	.LVUS99
	.uleb128 0x25
	.4byte	.LASF829
	.byte	0x1
	.2byte	0xe72
	.byte	0x41
	.4byte	0x70
	.4byte	.LLST100
	.4byte	.LVUS100
	.uleb128 0x26
	.4byte	.LASF853
	.byte	0x1
	.2byte	0xe74
	.byte	0xb
	.4byte	0x2380
	.4byte	.LLST101
	.4byte	.LVUS101
	.uleb128 0x27
	.ascii	"p\000"
	.byte	0x1
	.2byte	0xe75
	.byte	0x9
	.4byte	0x1390
	.4byte	.LLST102
	.4byte	.LVUS102
	.uleb128 0x28
	.4byte	.LVL382
	.4byte	0x3c66
	.4byte	0x236f
	.uleb128 0x29
	.uleb128 0x1
	.byte	0x50
	.uleb128 0x1
	.byte	0x38
	.byte	0
	.uleb128 0x2a
	.4byte	.LVL385
	.4byte	0x3c66
	.uleb128 0x29
	.uleb128 0x1
	.byte	0x50
	.uleb128 0x2
	.byte	0x75
	.sleb128 11
	.byte	0
	.byte	0
	.uleb128 0x7
	.byte	0x4
	.4byte	0x14ca
	.uleb128 0x2b
	.4byte	.LASF855
	.byte	0x1
	.2byte	0xdc0
	.byte	0x1
	.4byte	0x62
	.byte	0x1
	.4byte	0x2407
	.uleb128 0x2c
	.ascii	"inp\000"
	.byte	0x1
	.2byte	0xdc0
	.byte	0x11
	.4byte	0x1346
	.uleb128 0x2d
	.4byte	.LASF705
	.byte	0x1
	.2byte	0xdc0
	.byte	0x1a
	.4byte	0x62
	.uleb128 0x2d
	.4byte	.LASF854
	.byte	0x1
	.2byte	0xdc0
	.byte	0x31
	.4byte	0x4d
	.uleb128 0x2c
	.ascii	"pkt\000"
	.byte	0x1
	.2byte	0xdc1
	.byte	0x13
	.4byte	0x2380
	.uleb128 0x2d
	.4byte	.LASF816
	.byte	0x1
	.2byte	0xdc1
	.byte	0x1c
	.4byte	0x62
	.uleb128 0x2e
	.ascii	"rc\000"
	.byte	0x1
	.2byte	0xdc3
	.byte	0x7
	.4byte	0x62
	.uleb128 0x2e
	.ascii	"mdc\000"
	.byte	0x1
	.2byte	0xdc4
	.byte	0xc
	.4byte	0x2230
	.uleb128 0x2e
	.ascii	"p\000"
	.byte	0x1
	.2byte	0xdc5
	.byte	0x9
	.4byte	0x1390
	.uleb128 0x2f
	.4byte	.LASF859
	.byte	0x1
	.2byte	0xdd6
	.byte	0x1
	.byte	0
	.uleb128 0x2b
	.4byte	.LASF856
	.byte	0x1
	.2byte	0xd51
	.byte	0x1
	.4byte	0x62
	.byte	0x1
	.4byte	0x24a5
	.uleb128 0x2c
	.ascii	"inp\000"
	.byte	0x1
	.2byte	0xd51
	.byte	0x17
	.4byte	0x1346
	.uleb128 0x2d
	.4byte	.LASF705
	.byte	0x1
	.2byte	0xd51
	.byte	0x20
	.4byte	0x62
	.uleb128 0x2d
	.4byte	.LASF854
	.byte	0x1
	.2byte	0xd51
	.byte	0x37
	.4byte	0x4d
	.uleb128 0x2c
	.ascii	"pkt\000"
	.byte	0x1
	.2byte	0xd52
	.byte	0x19
	.4byte	0x2380
	.uleb128 0x2d
	.4byte	.LASF816
	.byte	0x1
	.2byte	0xd52
	.byte	0x22
	.4byte	0x62
	.uleb128 0x2d
	.4byte	.LASF857
	.byte	0x1
	.2byte	0xd52
	.byte	0x2f
	.4byte	0x62
	.uleb128 0x2e
	.ascii	"rc\000"
	.byte	0x1
	.2byte	0xd66
	.byte	0x7
	.4byte	0x62
	.uleb128 0x2e
	.ascii	"ed\000"
	.byte	0x1
	.2byte	0xd67
	.byte	0x12
	.4byte	0x222a
	.uleb128 0x30
	.4byte	.LASF858
	.byte	0x1
	.2byte	0xd68
	.byte	0x11
	.4byte	0x4d
	.uleb128 0x2f
	.4byte	.LASF859
	.byte	0x1
	.2byte	0xdb8
	.byte	0x1
	.uleb128 0x31
	.uleb128 0x30
	.4byte	.LASF718
	.byte	0x1
	.2byte	0xd76
	.byte	0x9
	.4byte	0x62
	.byte	0
	.byte	0
	.uleb128 0x2b
	.4byte	.LASF860
	.byte	0x1
	.2byte	0xceb
	.byte	0x1
	.4byte	0x62
	.byte	0x1
	.4byte	0x2562
	.uleb128 0x2c
	.ascii	"inp\000"
	.byte	0x1
	.2byte	0xceb
	.byte	0x17
	.4byte	0x1346
	.uleb128 0x2d
	.4byte	.LASF705
	.byte	0x1
	.2byte	0xceb
	.byte	0x20
	.4byte	0x62
	.uleb128 0x2d
	.4byte	.LASF854
	.byte	0x1
	.2byte	0xceb
	.byte	0x37
	.4byte	0x4d
	.uleb128 0x2c
	.ascii	"pkt\000"
	.byte	0x1
	.2byte	0xcec
	.byte	0x19
	.4byte	0x2380
	.uleb128 0x2d
	.4byte	.LASF816
	.byte	0x1
	.2byte	0xcec
	.byte	0x22
	.4byte	0x62
	.uleb128 0x2d
	.4byte	.LASF857
	.byte	0x1
	.2byte	0xcec
	.byte	0x2f
	.4byte	0x62
	.uleb128 0x2e
	.ascii	"rc\000"
	.byte	0x1
	.2byte	0xcee
	.byte	0x7
	.4byte	0x62
	.uleb128 0x30
	.4byte	.LASF713
	.byte	0x1
	.2byte	0xcef
	.byte	0x7
	.4byte	0x62
	.uleb128 0x30
	.4byte	.LASF826
	.byte	0x1
	.2byte	0xcef
	.byte	0xd
	.4byte	0x62
	.uleb128 0x2e
	.ascii	"pt\000"
	.byte	0x1
	.2byte	0xcf0
	.byte	0x12
	.4byte	0x2236
	.uleb128 0x2e
	.ascii	"p\000"
	.byte	0x1
	.2byte	0xcf1
	.byte	0x9
	.4byte	0x1390
	.uleb128 0x2e
	.ascii	"c\000"
	.byte	0x1
	.2byte	0xcf2
	.byte	0x7
	.4byte	0x62
	.uleb128 0x2e
	.ascii	"i\000"
	.byte	0x1
	.2byte	0xcf2
	.byte	0xa
	.4byte	0x62
	.uleb128 0x2f
	.4byte	.LASF859
	.byte	0x1
	.2byte	0xd36
	.byte	0x1
	.byte	0
	.uleb128 0x2b
	.4byte	.LASF861
	.byte	0x1
	.2byte	0x4e5
	.byte	0x1
	.4byte	0x62
	.byte	0x1
	.4byte	0x2638
	.uleb128 0x2c
	.ascii	"inp\000"
	.byte	0x1
	.2byte	0x4e5
	.byte	0x17
	.4byte	0x1346
	.uleb128 0x2d
	.4byte	.LASF705
	.byte	0x1
	.2byte	0x4e5
	.byte	0x20
	.4byte	0x62
	.uleb128 0x2d
	.4byte	.LASF854
	.byte	0x1
	.2byte	0x4e5
	.byte	0x37
	.4byte	0x4d
	.uleb128 0x2d
	.4byte	.LASF853
	.byte	0x1
	.2byte	0x4e6
	.byte	0x19
	.4byte	0x2380
	.uleb128 0x2e
	.ascii	"k\000"
	.byte	0x1
	.2byte	0x4e8
	.byte	0x13
	.4byte	0x2200
	.uleb128 0x2e
	.ascii	"rc\000"
	.byte	0x1
	.2byte	0x4e9
	.byte	0x7
	.4byte	0x62
	.uleb128 0x2e
	.ascii	"i\000"
	.byte	0x1
	.2byte	0x4ea
	.byte	0x7
	.4byte	0x62
	.uleb128 0x30
	.4byte	.LASF718
	.byte	0x1
	.2byte	0x4ea
	.byte	0xa
	.4byte	0x62
	.uleb128 0x30
	.4byte	.LASF862
	.byte	0x1
	.2byte	0x4ea
	.byte	0x13
	.4byte	0x62
	.uleb128 0x30
	.4byte	.LASF719
	.byte	0x1
	.2byte	0x4ea
	.byte	0x1c
	.4byte	0x62
	.uleb128 0x30
	.4byte	.LASF720
	.byte	0x1
	.2byte	0x4ea
	.byte	0x29
	.4byte	0x62
	.uleb128 0x30
	.4byte	.LASF714
	.byte	0x1
	.2byte	0x4ea
	.byte	0x34
	.4byte	0x62
	.uleb128 0x30
	.4byte	.LASF721
	.byte	0x1
	.2byte	0x4ea
	.byte	0x3f
	.4byte	0x62
	.uleb128 0x30
	.4byte	.LASF863
	.byte	0x1
	.2byte	0x4ea
	.byte	0x4a
	.4byte	0x62
	.uleb128 0x2f
	.4byte	.LASF864
	.byte	0x1
	.2byte	0x571
	.byte	0x1
	.uleb128 0x2f
	.4byte	.LASF859
	.byte	0x1
	.2byte	0x56d
	.byte	0x1
	.byte	0
	.uleb128 0x2b
	.4byte	.LASF865
	.byte	0x1
	.2byte	0x4bb
	.byte	0x1
	.4byte	0x62
	.byte	0x1
	.4byte	0x267b
	.uleb128 0x2c
	.ascii	"inp\000"
	.byte	0x1
	.2byte	0x4bb
	.byte	0x14
	.4byte	0x1346
	.uleb128 0x2d
	.4byte	.LASF705
	.byte	0x1
	.2byte	0x4bb
	.byte	0x1d
	.4byte	0x62
	.uleb128 0x2d
	.4byte	.LASF854
	.byte	0x1
	.2byte	0x4bb
	.byte	0x34
	.4byte	0x4d
	.uleb128 0x2f
	.4byte	.LASF866
	.byte	0x1
	.2byte	0x4d9
	.byte	0x1
	.byte	0
	.uleb128 0x2b
	.4byte	.LASF867
	.byte	0x1
	.2byte	0x41d
	.byte	0x1
	.4byte	0x62
	.byte	0x1
	.4byte	0x26f3
	.uleb128 0x2c
	.ascii	"inp\000"
	.byte	0x1
	.2byte	0x41d
	.byte	0x13
	.4byte	0x1346
	.uleb128 0x2c
	.ascii	"out\000"
	.byte	0x1
	.2byte	0x41d
	.byte	0x1e
	.4byte	0x1346
	.uleb128 0x2d
	.4byte	.LASF705
	.byte	0x1
	.2byte	0x41d
	.byte	0x27
	.4byte	0x62
	.uleb128 0x2d
	.4byte	.LASF854
	.byte	0x1
	.2byte	0x41e
	.byte	0x1b
	.4byte	0x4d
	.uleb128 0x2d
	.4byte	.LASF857
	.byte	0x1
	.2byte	0x41e
	.byte	0x27
	.4byte	0x62
	.uleb128 0x2e
	.ascii	"rc\000"
	.byte	0x1
	.2byte	0x420
	.byte	0x7
	.4byte	0x62
	.uleb128 0x2e
	.ascii	"n\000"
	.byte	0x1
	.2byte	0x421
	.byte	0x7
	.4byte	0x62
	.uleb128 0x2e
	.ascii	"buf\000"
	.byte	0x1
	.2byte	0x422
	.byte	0x8
	.4byte	0x26f3
	.byte	0
	.uleb128 0xa
	.4byte	0xa9
	.4byte	0x2703
	.uleb128 0xb
	.4byte	0x69
	.byte	0x63
	.byte	0
	.uleb128 0x2b
	.4byte	.LASF868
	.byte	0x1
	.2byte	0x269
	.byte	0x1
	.4byte	0x62
	.byte	0x1
	.4byte	0x2890
	.uleb128 0x2c
	.ascii	"ctx\000"
	.byte	0x1
	.2byte	0x269
	.byte	0x1b
	.4byte	0x2297
	.uleb128 0x2c
	.ascii	"pkt\000"
	.byte	0x1
	.2byte	0x269
	.byte	0x28
	.4byte	0x2380
	.uleb128 0x2d
	.4byte	.LASF869
	.byte	0x1
	.2byte	0x269
	.byte	0x31
	.4byte	0x62
	.uleb128 0x2d
	.4byte	.LASF870
	.byte	0x1
	.2byte	0x269
	.byte	0x46
	.4byte	0xd3
	.uleb128 0x2d
	.4byte	.LASF871
	.byte	0x1
	.2byte	0x26a
	.byte	0xd
	.4byte	0x1233
	.uleb128 0x2c
	.ascii	"out\000"
	.byte	0x1
	.2byte	0x26a
	.byte	0x19
	.4byte	0x1346
	.uleb128 0x2d
	.4byte	.LASF872
	.byte	0x1
	.2byte	0x26a
	.byte	0x22
	.4byte	0x62
	.uleb128 0x2d
	.4byte	.LASF873
	.byte	0x1
	.2byte	0x26c
	.byte	0x16
	.4byte	0xb5
	.uleb128 0x2d
	.4byte	.LASF874
	.byte	0x1
	.2byte	0x26c
	.byte	0x29
	.4byte	0xb5
	.uleb128 0x2d
	.4byte	.LASF875
	.byte	0x1
	.2byte	0x26c
	.byte	0x34
	.4byte	0x62
	.uleb128 0x2e
	.ascii	"rc\000"
	.byte	0x1
	.2byte	0x271
	.byte	0x7
	.4byte	0x62
	.uleb128 0x2e
	.ascii	"inp\000"
	.byte	0x1
	.2byte	0x272
	.byte	0xb
	.4byte	0x1264
	.uleb128 0x2e
	.ascii	"c\000"
	.byte	0x1
	.2byte	0x273
	.byte	0x7
	.4byte	0x62
	.uleb128 0x2e
	.ascii	"ctb\000"
	.byte	0x1
	.2byte	0x273
	.byte	0xa
	.4byte	0x62
	.uleb128 0x30
	.4byte	.LASF705
	.byte	0x1
	.2byte	0x273
	.byte	0xf
	.4byte	0x62
	.uleb128 0x30
	.4byte	.LASF876
	.byte	0x1
	.2byte	0x273
	.byte	0x18
	.4byte	0x62
	.uleb128 0x30
	.4byte	.LASF854
	.byte	0x1
	.2byte	0x274
	.byte	0x11
	.4byte	0x4d
	.uleb128 0x2e
	.ascii	"hdr\000"
	.byte	0x1
	.2byte	0x275
	.byte	0x8
	.4byte	0x159c
	.uleb128 0x30
	.4byte	.LASF877
	.byte	0x1
	.2byte	0x276
	.byte	0x7
	.4byte	0x62
	.uleb128 0x30
	.4byte	.LASF816
	.byte	0x1
	.2byte	0x277
	.byte	0x7
	.4byte	0x62
	.uleb128 0x30
	.4byte	.LASF857
	.byte	0x1
	.2byte	0x277
	.byte	0x14
	.4byte	0x62
	.uleb128 0x30
	.4byte	.LASF878
	.byte	0x1
	.2byte	0x278
	.byte	0x7
	.4byte	0x62
	.uleb128 0x2e
	.ascii	"pos\000"
	.byte	0x1
	.2byte	0x279
	.byte	0x9
	.4byte	0xc7
	.uleb128 0x2f
	.4byte	.LASF879
	.byte	0x1
	.2byte	0x27e
	.byte	0x2
	.uleb128 0x2f
	.4byte	.LASF859
	.byte	0x1
	.2byte	0x3f0
	.byte	0x2
	.uleb128 0x32
	.4byte	.LASF882
	.byte	0x1
	.2byte	0x374
	.byte	0x14
	.4byte	0x2890
	.uleb128 0x5
	.byte	0x3
	.4byte	pkt_type_str.0
	.uleb128 0x33
	.4byte	.LASF905
	.byte	0x1
	.2byte	0x3ef
	.byte	0x1
	.4byte	0x62
	.4byte	0x2875
	.uleb128 0x34
	.byte	0
	.uleb128 0x31
	.uleb128 0x2e
	.ascii	"i\000"
	.byte	0x1
	.2byte	0x2c9
	.byte	0x8
	.4byte	0x62
	.uleb128 0x30
	.4byte	.LASF711
	.byte	0x1
	.2byte	0x2ca
	.byte	0x9
	.4byte	0x28a0
	.byte	0
	.byte	0
	.uleb128 0xa
	.4byte	0xb5
	.4byte	0x28a0
	.uleb128 0xb
	.4byte	0x69
	.byte	0x3f
	.byte	0
	.uleb128 0xa
	.4byte	0xa9
	.4byte	0x28b0
	.uleb128 0xb
	.4byte	0x69
	.byte	0x3
	.byte	0
	.uleb128 0x24
	.4byte	.LASF881
	.byte	0x1
	.2byte	0x222
	.byte	0x5
	.4byte	0x62
	.4byte	.LFB33
	.4byte	.LFE33-.LFB33
	.uleb128 0x1
	.byte	0x9c
	.4byte	0x29e4
	.uleb128 0x35
	.ascii	"inp\000"
	.byte	0x1
	.2byte	0x222
	.byte	0x23
	.4byte	0x1264
	.4byte	.LLST93
	.4byte	.LVUS93
	.uleb128 0x35
	.ascii	"n\000"
	.byte	0x1
	.2byte	0x222
	.byte	0x31
	.4byte	0x69
	.4byte	.LLST94
	.4byte	.LVUS94
	.uleb128 0x25
	.4byte	.LASF874
	.byte	0x1
	.2byte	0x222
	.byte	0x40
	.4byte	0xb5
	.4byte	.LLST95
	.4byte	.LVUS95
	.uleb128 0x25
	.4byte	.LASF875
	.byte	0x1
	.2byte	0x222
	.byte	0x4b
	.4byte	0x62
	.4byte	.LLST96
	.4byte	.LVUS96
	.uleb128 0x27
	.ascii	"rc\000"
	.byte	0x1
	.2byte	0x224
	.byte	0x7
	.4byte	0x62
	.4byte	.LLST97
	.4byte	.LVUS97
	.uleb128 0x32
	.4byte	.LASF871
	.byte	0x1
	.2byte	0x225
	.byte	0x7
	.4byte	0x62
	.uleb128 0x3
	.byte	0x91
	.sleb128 -68
	.uleb128 0x36
	.ascii	"pkt\000"
	.byte	0x1
	.2byte	0x226
	.byte	0xa
	.4byte	0x14ca
	.uleb128 0x2
	.byte	0x91
	.sleb128 -64
	.uleb128 0x32
	.4byte	.LASF883
	.byte	0x1
	.2byte	0x227
	.byte	0x1d
	.4byte	0x2242
	.uleb128 0x2
	.byte	0x91
	.sleb128 -56
	.uleb128 0x28
	.4byte	.LVL374
	.4byte	0x2efa
	.4byte	0x29b4
	.uleb128 0x29
	.uleb128 0x1
	.byte	0x50
	.uleb128 0x2
	.byte	0x77
	.sleb128 0
	.uleb128 0x29
	.uleb128 0x1
	.byte	0x51
	.uleb128 0x2
	.byte	0x7a
	.sleb128 0
	.uleb128 0x29
	.uleb128 0x1
	.byte	0x52
	.uleb128 0x2
	.byte	0x75
	.sleb128 0
	.uleb128 0x29
	.uleb128 0x1
	.byte	0x53
	.uleb128 0x2
	.byte	0x75
	.sleb128 0
	.uleb128 0x29
	.uleb128 0x2
	.byte	0x7d
	.sleb128 0
	.uleb128 0x2
	.byte	0x79
	.sleb128 0
	.uleb128 0x29
	.uleb128 0x2
	.byte	0x7d
	.sleb128 4
	.uleb128 0x2
	.byte	0x75
	.sleb128 0
	.uleb128 0x29
	.uleb128 0x2
	.byte	0x7d
	.sleb128 8
	.uleb128 0x2
	.byte	0x78
	.sleb128 0
	.uleb128 0x37
	.4byte	0x2770
	.uleb128 0x38
	.4byte	0x277d
	.uleb128 0x3
	.byte	0xf3
	.uleb128 0x1
	.byte	0x52
	.uleb128 0x38
	.4byte	0x278a
	.uleb128 0x3
	.byte	0xf3
	.uleb128 0x1
	.byte	0x53
	.byte	0
	.uleb128 0x2a
	.4byte	.LVL377
	.4byte	0x3c72
	.uleb128 0x29
	.uleb128 0x1
	.byte	0x50
	.uleb128 0x1b
	.byte	0x74
	.sleb128 0
	.byte	0x30
	.byte	0x29
	.byte	0x30
	.byte	0x31
	.byte	0x74
	.sleb128 0
	.byte	0x76
	.sleb128 0
	.byte	0x30
	.byte	0x2e
	.byte	0x28
	.2byte	0x1
	.byte	0x16
	.byte	0x13
	.byte	0x76
	.sleb128 0
	.byte	0x30
	.byte	0x29
	.byte	0x28
	.2byte	0x1
	.byte	0x16
	.byte	0x13
	.byte	0x1a
	.uleb128 0x29
	.uleb128 0x1
	.byte	0x51
	.uleb128 0x2
	.byte	0x77
	.sleb128 0
	.byte	0
	.byte	0
	.uleb128 0x24
	.4byte	.LASF884
	.byte	0x1
	.2byte	0x1eb
	.byte	0x5
	.4byte	0x62
	.4byte	.LFB32
	.4byte	.LFE32-.LFB32
	.uleb128 0x1
	.byte	0x9c
	.4byte	0x2b20
	.uleb128 0x35
	.ascii	"inp\000"
	.byte	0x1
	.2byte	0x1eb
	.byte	0x23
	.4byte	0x1264
	.4byte	.LLST88
	.4byte	.LVUS88
	.uleb128 0x35
	.ascii	"out\000"
	.byte	0x1
	.2byte	0x1eb
	.byte	0x30
	.4byte	0x1264
	.4byte	.LLST89
	.4byte	.LVUS89
	.uleb128 0x25
	.4byte	.LASF885
	.byte	0x1
	.2byte	0x1eb
	.byte	0x3b
	.4byte	0xc7
	.4byte	.LLST90
	.4byte	.LVUS90
	.uleb128 0x25
	.4byte	.LASF874
	.byte	0x1
	.2byte	0x1ec
	.byte	0x27
	.4byte	0xb5
	.4byte	.LLST91
	.4byte	.LVUS91
	.uleb128 0x39
	.4byte	.LASF875
	.byte	0x1
	.2byte	0x1ec
	.byte	0x32
	.4byte	0x62
	.uleb128 0x2
	.byte	0x91
	.sleb128 0
	.uleb128 0x27
	.ascii	"rc\000"
	.byte	0x1
	.2byte	0x1ee
	.byte	0x7
	.4byte	0x62
	.4byte	.LLST92
	.4byte	.LVUS92
	.uleb128 0x36
	.ascii	"pkt\000"
	.byte	0x1
	.2byte	0x1ef
	.byte	0xa
	.4byte	0x14ca
	.uleb128 0x2
	.byte	0x91
	.sleb128 -64
	.uleb128 0x32
	.4byte	.LASF871
	.byte	0x1
	.2byte	0x1f0
	.byte	0x7
	.4byte	0x62
	.uleb128 0x3
	.byte	0x91
	.sleb128 -68
	.uleb128 0x32
	.4byte	.LASF883
	.byte	0x1
	.2byte	0x1f1
	.byte	0x1d
	.4byte	0x2242
	.uleb128 0x2
	.byte	0x91
	.sleb128 -56
	.uleb128 0x28
	.4byte	.LVL364
	.4byte	0x2efa
	.4byte	0x2adb
	.uleb128 0x29
	.uleb128 0x2
	.byte	0x7d
	.sleb128 4
	.uleb128 0x2
	.byte	0x78
	.sleb128 0
	.uleb128 0x29
	.uleb128 0x2
	.byte	0x7d
	.sleb128 8
	.uleb128 0x2
	.byte	0x75
	.sleb128 0
	.uleb128 0x37
	.4byte	0x2770
	.uleb128 0x38
	.4byte	0x277d
	.uleb128 0x3
	.byte	0xf3
	.uleb128 0x1
	.byte	0x53
	.uleb128 0x38
	.4byte	0x278a
	.uleb128 0x3
	.byte	0x91
	.sleb128 -8
	.byte	0x6
	.byte	0
	.uleb128 0x28
	.4byte	.LVL366
	.4byte	0x3c7f
	.4byte	0x2aef
	.uleb128 0x29
	.uleb128 0x1
	.byte	0x50
	.uleb128 0x2
	.byte	0x76
	.sleb128 0
	.byte	0
	.uleb128 0x28
	.4byte	.LVL369
	.4byte	0x3c72
	.4byte	0x2b09
	.uleb128 0x29
	.uleb128 0x1
	.byte	0x50
	.uleb128 0x2
	.byte	0x75
	.sleb128 0
	.uleb128 0x29
	.uleb128 0x1
	.byte	0x51
	.uleb128 0x2
	.byte	0x79
	.sleb128 0
	.byte	0
	.uleb128 0x2a
	.4byte	.LVL371
	.4byte	0x3c72
	.uleb128 0x29
	.uleb128 0x1
	.byte	0x50
	.uleb128 0x2
	.byte	0x74
	.sleb128 0
	.uleb128 0x29
	.uleb128 0x1
	.byte	0x51
	.uleb128 0x2
	.byte	0x91
	.sleb128 -64
	.byte	0
	.byte	0
	.uleb128 0x24
	.4byte	.LASF886
	.byte	0x1
	.2byte	0x1b8
	.byte	0x5
	.4byte	0x62
	.4byte	.LFB31
	.4byte	.LFE31-.LFB31
	.uleb128 0x1
	.byte	0x9c
	.4byte	0x2c4a
	.uleb128 0x35
	.ascii	"inp\000"
	.byte	0x1
	.2byte	0x1b8
	.byte	0x22
	.4byte	0x1264
	.4byte	.LLST83
	.4byte	.LVUS83
	.uleb128 0x35
	.ascii	"out\000"
	.byte	0x1
	.2byte	0x1b8
	.byte	0x2f
	.4byte	0x1264
	.4byte	.LLST84
	.4byte	.LVUS84
	.uleb128 0x25
	.4byte	.LASF874
	.byte	0x1
	.2byte	0x1b8
	.byte	0x40
	.4byte	0xb5
	.4byte	.LLST85
	.4byte	.LVUS85
	.uleb128 0x25
	.4byte	.LASF875
	.byte	0x1
	.2byte	0x1b8
	.byte	0x4b
	.4byte	0x62
	.4byte	.LLST86
	.4byte	.LVUS86
	.uleb128 0x36
	.ascii	"pkt\000"
	.byte	0x1
	.2byte	0x1ba
	.byte	0xa
	.4byte	0x14ca
	.uleb128 0x2
	.byte	0x91
	.sleb128 -64
	.uleb128 0x32
	.4byte	.LASF883
	.byte	0x1
	.2byte	0x1bb
	.byte	0x1d
	.4byte	0x2242
	.uleb128 0x2
	.byte	0x91
	.sleb128 -56
	.uleb128 0x32
	.4byte	.LASF871
	.byte	0x1
	.2byte	0x1bc
	.byte	0x7
	.4byte	0x62
	.uleb128 0x3
	.byte	0x91
	.sleb128 -68
	.uleb128 0x27
	.ascii	"rc\000"
	.byte	0x1
	.2byte	0x1bc
	.byte	0xd
	.4byte	0x62
	.4byte	.LLST87
	.4byte	.LVUS87
	.uleb128 0x28
	.4byte	.LVL355
	.4byte	0x2efa
	.4byte	0x2c26
	.uleb128 0x29
	.uleb128 0x1
	.byte	0x50
	.uleb128 0x2
	.byte	0x77
	.sleb128 0
	.uleb128 0x29
	.uleb128 0x1
	.byte	0x51
	.uleb128 0x2
	.byte	0x79
	.sleb128 0
	.uleb128 0x29
	.uleb128 0x1
	.byte	0x52
	.uleb128 0x2
	.byte	0x75
	.sleb128 0
	.uleb128 0x29
	.uleb128 0x1
	.byte	0x53
	.uleb128 0x2
	.byte	0x75
	.sleb128 0
	.uleb128 0x29
	.uleb128 0x2
	.byte	0x7d
	.sleb128 0
	.uleb128 0x2
	.byte	0x78
	.sleb128 0
	.uleb128 0x29
	.uleb128 0x2
	.byte	0x7d
	.sleb128 4
	.uleb128 0x2
	.byte	0x76
	.sleb128 0
	.uleb128 0x29
	.uleb128 0x2
	.byte	0x7d
	.sleb128 8
	.uleb128 0x2
	.byte	0x75
	.sleb128 0
	.uleb128 0x37
	.4byte	0x2770
	.uleb128 0x38
	.4byte	0x277d
	.uleb128 0x3
	.byte	0xf3
	.uleb128 0x1
	.byte	0x52
	.uleb128 0x38
	.4byte	0x278a
	.uleb128 0x3
	.byte	0xf3
	.uleb128 0x1
	.byte	0x53
	.byte	0
	.uleb128 0x28
	.4byte	.LVL358
	.4byte	0x3c72
	.4byte	0x2c40
	.uleb128 0x29
	.uleb128 0x1
	.byte	0x50
	.uleb128 0x2
	.byte	0x75
	.sleb128 0
	.uleb128 0x29
	.uleb128 0x1
	.byte	0x51
	.uleb128 0x2
	.byte	0x77
	.sleb128 0
	.byte	0
	.uleb128 0x3a
	.4byte	.LVL361
	.4byte	0x3c8c
	.byte	0
	.uleb128 0x24
	.4byte	.LASF887
	.byte	0x1
	.2byte	0x199
	.byte	0x5
	.4byte	0x62
	.4byte	.LFB30
	.4byte	.LFE30-.LFB30
	.uleb128 0x1
	.byte	0x9c
	.4byte	0x2d4c
	.uleb128 0x35
	.ascii	"ctx\000"
	.byte	0x1
	.2byte	0x199
	.byte	0x2a
	.4byte	0x2297
	.4byte	.LLST78
	.4byte	.LVUS78
	.uleb128 0x35
	.ascii	"pkt\000"
	.byte	0x1
	.2byte	0x199
	.byte	0x37
	.4byte	0x2380
	.4byte	.LLST79
	.4byte	.LVUS79
	.uleb128 0x25
	.4byte	.LASF870
	.byte	0x1
	.2byte	0x19a
	.byte	0x1e
	.4byte	0xd3
	.4byte	.LLST80
	.4byte	.LVUS80
	.uleb128 0x25
	.4byte	.LASF878
	.byte	0x1
	.2byte	0x19a
	.byte	0x2a
	.4byte	0x62
	.4byte	.LLST81
	.4byte	.LVUS81
	.uleb128 0x39
	.4byte	.LASF874
	.byte	0x1
	.2byte	0x19b
	.byte	0x23
	.4byte	0xb5
	.uleb128 0x2
	.byte	0x91
	.sleb128 0
	.uleb128 0x39
	.4byte	.LASF875
	.byte	0x1
	.2byte	0x19b
	.byte	0x2e
	.4byte	0x62
	.uleb128 0x2
	.byte	0x91
	.sleb128 4
	.uleb128 0x32
	.4byte	.LASF871
	.byte	0x1
	.2byte	0x19d
	.byte	0x7
	.4byte	0x62
	.uleb128 0x2
	.byte	0x91
	.sleb128 -36
	.uleb128 0x27
	.ascii	"rc\000"
	.byte	0x1
	.2byte	0x19d
	.byte	0xd
	.4byte	0x62
	.4byte	.LLST82
	.4byte	.LVUS82
	.uleb128 0x2a
	.4byte	.LVL350
	.4byte	0x2efa
	.uleb128 0x29
	.uleb128 0x1
	.byte	0x50
	.uleb128 0x2
	.byte	0x77
	.sleb128 0
	.uleb128 0x29
	.uleb128 0x1
	.byte	0x51
	.uleb128 0x2
	.byte	0x76
	.sleb128 0
	.uleb128 0x29
	.uleb128 0x1
	.byte	0x52
	.uleb128 0x2
	.byte	0x79
	.sleb128 0
	.uleb128 0x29
	.uleb128 0x1
	.byte	0x53
	.uleb128 0x2
	.byte	0x75
	.sleb128 0
	.uleb128 0x29
	.uleb128 0x2
	.byte	0x7d
	.sleb128 0
	.uleb128 0x2
	.byte	0x78
	.sleb128 0
	.uleb128 0x29
	.uleb128 0x2
	.byte	0x7d
	.sleb128 4
	.uleb128 0x2
	.byte	0x74
	.sleb128 0
	.uleb128 0x29
	.uleb128 0x2
	.byte	0x7d
	.sleb128 8
	.uleb128 0x2
	.byte	0x74
	.sleb128 0
	.uleb128 0x37
	.4byte	0x2770
	.uleb128 0x38
	.4byte	0x277d
	.uleb128 0x3
	.byte	0x91
	.sleb128 -8
	.byte	0x6
	.uleb128 0x38
	.4byte	0x278a
	.uleb128 0x3
	.byte	0x91
	.sleb128 -4
	.byte	0x6
	.byte	0
	.byte	0
	.uleb128 0x24
	.4byte	.LASF888
	.byte	0x1
	.2byte	0x17b
	.byte	0x5
	.4byte	0x62
	.4byte	.LFB29
	.4byte	.LFE29-.LFB29
	.uleb128 0x1
	.byte	0x9c
	.4byte	0x2e37
	.uleb128 0x35
	.ascii	"ctx\000"
	.byte	0x1
	.2byte	0x17b
	.byte	0x29
	.4byte	0x2297
	.4byte	.LLST73
	.4byte	.LVUS73
	.uleb128 0x35
	.ascii	"pkt\000"
	.byte	0x1
	.2byte	0x17b
	.byte	0x36
	.4byte	0x2380
	.4byte	.LLST74
	.4byte	.LVUS74
	.uleb128 0x25
	.4byte	.LASF874
	.byte	0x1
	.2byte	0x17c
	.byte	0x22
	.4byte	0xb5
	.4byte	.LLST75
	.4byte	.LVUS75
	.uleb128 0x25
	.4byte	.LASF875
	.byte	0x1
	.2byte	0x17c
	.byte	0x2d
	.4byte	0x62
	.4byte	.LLST76
	.4byte	.LVUS76
	.uleb128 0x32
	.4byte	.LASF871
	.byte	0x1
	.2byte	0x17f
	.byte	0x7
	.4byte	0x62
	.uleb128 0x2
	.byte	0x91
	.sleb128 -28
	.uleb128 0x27
	.ascii	"rc\000"
	.byte	0x1
	.2byte	0x17f
	.byte	0xd
	.4byte	0x62
	.4byte	.LLST77
	.4byte	.LVUS77
	.uleb128 0x3a
	.4byte	.LVL345
	.4byte	0x3c8c
	.uleb128 0x2a
	.4byte	.LVL346
	.4byte	0x2efa
	.uleb128 0x29
	.uleb128 0x1
	.byte	0x50
	.uleb128 0x2
	.byte	0x76
	.sleb128 0
	.uleb128 0x29
	.uleb128 0x1
	.byte	0x51
	.uleb128 0x2
	.byte	0x75
	.sleb128 0
	.uleb128 0x29
	.uleb128 0x1
	.byte	0x52
	.uleb128 0x2
	.byte	0x74
	.sleb128 0
	.uleb128 0x29
	.uleb128 0x1
	.byte	0x53
	.uleb128 0x2
	.byte	0x74
	.sleb128 0
	.uleb128 0x29
	.uleb128 0x2
	.byte	0x7d
	.sleb128 0
	.uleb128 0x2
	.byte	0x77
	.sleb128 0
	.uleb128 0x29
	.uleb128 0x2
	.byte	0x7d
	.sleb128 4
	.uleb128 0x2
	.byte	0x74
	.sleb128 0
	.uleb128 0x29
	.uleb128 0x2
	.byte	0x7d
	.sleb128 8
	.uleb128 0x2
	.byte	0x74
	.sleb128 0
	.uleb128 0x37
	.4byte	0x2770
	.uleb128 0x38
	.4byte	0x277d
	.uleb128 0x3
	.byte	0xf3
	.uleb128 0x1
	.byte	0x52
	.uleb128 0x38
	.4byte	0x278a
	.uleb128 0x3
	.byte	0xf3
	.uleb128 0x1
	.byte	0x53
	.byte	0
	.byte	0
	.uleb128 0x3b
	.4byte	.LASF889
	.byte	0x1
	.byte	0x68
	.byte	0x1
	.4byte	0x4d
	.byte	0x1
	.4byte	0x2e5f
	.uleb128 0x3c
	.ascii	"inp\000"
	.byte	0x1
	.byte	0x68
	.byte	0xf
	.4byte	0x1346
	.uleb128 0x3d
	.ascii	"a\000"
	.byte	0x1
	.byte	0x6a
	.byte	0x11
	.4byte	0x4d
	.byte	0
	.uleb128 0x3b
	.4byte	.LASF890
	.byte	0x3
	.byte	0x58
	.byte	0x1
	.4byte	0x4d
	.byte	0x3
	.4byte	0x2e87
	.uleb128 0x3e
	.4byte	.LASF638
	.byte	0x3
	.byte	0x58
	.byte	0x1d
	.4byte	0xd9
	.uleb128 0x3d
	.ascii	"p\000"
	.byte	0x3
	.byte	0x5a
	.byte	0x18
	.4byte	0x2e87
	.byte	0
	.uleb128 0x7
	.byte	0x4
	.4byte	0x33
	.uleb128 0x2b
	.4byte	.LASF891
	.byte	0x2
	.2byte	0x3cc
	.byte	0x1
	.4byte	0x1122
	.byte	0x3
	.4byte	0x2ead
	.uleb128 0x2c
	.ascii	"err\000"
	.byte	0x2
	.2byte	0x3cc
	.byte	0x1b
	.4byte	0x112f
	.byte	0
	.uleb128 0x2b
	.4byte	.LASF892
	.byte	0x2
	.2byte	0x3c4
	.byte	0x1
	.4byte	0x112f
	.byte	0x3
	.4byte	0x2ecd
	.uleb128 0x2d
	.4byte	.LASF893
	.byte	0x2
	.2byte	0x3c4
	.byte	0x1b
	.4byte	0x1122
	.byte	0
	.uleb128 0x2b
	.4byte	.LASF894
	.byte	0x2
	.2byte	0x3b5
	.byte	0x1
	.4byte	0x112f
	.byte	0x3
	.4byte	0x2efa
	.uleb128 0x2d
	.4byte	.LASF895
	.byte	0x2
	.2byte	0x3b5
	.byte	0x20
	.4byte	0x211
	.uleb128 0x2d
	.4byte	.LASF893
	.byte	0x2
	.2byte	0x3b5
	.byte	0x37
	.4byte	0x1122
	.byte	0
	.uleb128 0x3f
	.4byte	0x2703
	.4byte	.LFB50
	.4byte	.LFE50-.LFB50
	.uleb128 0x1
	.byte	0x9c
	.4byte	0x3c66
	.uleb128 0x40
	.4byte	0x2715
	.4byte	.LLST0
	.4byte	.LVUS0
	.uleb128 0x40
	.4byte	0x2722
	.4byte	.LLST1
	.4byte	.LVUS1
	.uleb128 0x40
	.4byte	0x272f
	.4byte	.LLST2
	.4byte	.LVUS2
	.uleb128 0x40
	.4byte	0x273c
	.4byte	.LLST3
	.4byte	.LVUS3
	.uleb128 0x41
	.4byte	0x2749
	.uleb128 0x2
	.byte	0x91
	.sleb128 0
	.uleb128 0x41
	.4byte	0x2756
	.uleb128 0x2
	.byte	0x91
	.sleb128 4
	.uleb128 0x41
	.4byte	0x2763
	.uleb128 0x2
	.byte	0x91
	.sleb128 8
	.uleb128 0x42
	.4byte	0x2797
	.4byte	.LLST4
	.4byte	.LVUS4
	.uleb128 0x42
	.4byte	0x27a3
	.4byte	.LLST5
	.4byte	.LVUS5
	.uleb128 0x42
	.4byte	0x27b0
	.4byte	.LLST6
	.4byte	.LVUS6
	.uleb128 0x42
	.4byte	0x27bb
	.4byte	.LLST7
	.4byte	.LVUS7
	.uleb128 0x42
	.4byte	0x27c8
	.4byte	.LLST8
	.4byte	.LVUS8
	.uleb128 0x42
	.4byte	0x27d5
	.4byte	.LLST9
	.4byte	.LVUS9
	.uleb128 0x42
	.4byte	0x27e2
	.4byte	.LLST10
	.4byte	.LVUS10
	.uleb128 0x43
	.4byte	0x27ef
	.uleb128 0x3
	.byte	0x91
	.sleb128 -148
	.uleb128 0x42
	.4byte	0x27fc
	.4byte	.LLST11
	.4byte	.LVUS11
	.uleb128 0x42
	.4byte	0x2809
	.4byte	.LLST12
	.4byte	.LVUS12
	.uleb128 0x42
	.4byte	0x2816
	.4byte	.LLST13
	.4byte	.LVUS13
	.uleb128 0x42
	.4byte	0x2823
	.4byte	.LLST14
	.4byte	.LVUS14
	.uleb128 0x42
	.4byte	0x2830
	.4byte	.LLST15
	.4byte	.LVUS15
	.uleb128 0x44
	.4byte	0x283d
	.4byte	.LDL1
	.uleb128 0x45
	.4byte	0x2846
	.uleb128 0x40
	.4byte	0x278a
	.4byte	.LLST16
	.4byte	.LVUS16
	.uleb128 0x40
	.4byte	0x277d
	.4byte	.LLST17
	.4byte	.LVUS17
	.uleb128 0x40
	.4byte	0x2770
	.4byte	.LLST18
	.4byte	.LVUS18
	.uleb128 0x46
	.4byte	0x2e8d
	.4byte	.LBB99
	.4byte	.LBE99-.LBB99
	.byte	0x1
	.2byte	0x3f8
	.byte	0x19
	.4byte	0x304e
	.uleb128 0x47
	.4byte	0x2e9f
	.byte	0
	.uleb128 0x48
	.4byte	0x2407
	.4byte	.LBI101
	.2byte	.LVU241
	.4byte	.Ldebug_ranges0+0
	.byte	0x1
	.2byte	0x3c6
	.byte	0xc
	.4byte	0x322d
	.uleb128 0x40
	.4byte	0x245a
	.4byte	.LLST19
	.4byte	.LVUS19
	.uleb128 0x47
	.4byte	0x244d
	.uleb128 0x40
	.4byte	0x2440
	.4byte	.LLST20
	.4byte	.LVUS20
	.uleb128 0x40
	.4byte	0x2433
	.4byte	.LLST21
	.4byte	.LVUS21
	.uleb128 0x40
	.4byte	0x2426
	.4byte	.LLST22
	.4byte	.LVUS22
	.uleb128 0x40
	.4byte	0x2419
	.4byte	.LLST23
	.4byte	.LVUS23
	.uleb128 0x49
	.4byte	.Ldebug_ranges0+0
	.uleb128 0x42
	.4byte	0x2467
	.4byte	.LLST24
	.4byte	.LVUS24
	.uleb128 0x42
	.4byte	0x2473
	.4byte	.LLST25
	.4byte	.LVUS25
	.uleb128 0x42
	.4byte	0x247f
	.4byte	.LLST26
	.4byte	.LVUS26
	.uleb128 0x45
	.4byte	0x248c
	.uleb128 0x4a
	.4byte	0x2495
	.4byte	.Ldebug_ranges0+0x30
	.4byte	0x3110
	.uleb128 0x42
	.4byte	0x2496
	.4byte	.LLST27
	.4byte	.LVUS27
	.uleb128 0x3a
	.4byte	.LVL258
	.4byte	0x3c8c
	.uleb128 0x2a
	.4byte	.LVL276
	.4byte	0x3c98
	.uleb128 0x29
	.uleb128 0x1
	.byte	0x50
	.uleb128 0x2
	.byte	0x74
	.sleb128 0
	.byte	0
	.byte	0
	.uleb128 0x3a
	.4byte	.LVL77
	.4byte	0x3c8c
	.uleb128 0x28
	.4byte	.LVL78
	.4byte	0x3c8c
	.4byte	0x312d
	.uleb128 0x29
	.uleb128 0x1
	.byte	0x51
	.uleb128 0x2
	.byte	0x75
	.sleb128 0
	.byte	0
	.uleb128 0x3a
	.4byte	.LVL79
	.4byte	0x3c8c
	.uleb128 0x28
	.4byte	.LVL80
	.4byte	0x3c8c
	.4byte	0x314a
	.uleb128 0x29
	.uleb128 0x1
	.byte	0x51
	.uleb128 0x2
	.byte	0x74
	.sleb128 0
	.byte	0
	.uleb128 0x28
	.4byte	.LVL81
	.4byte	0x3c8c
	.4byte	0x3166
	.uleb128 0x29
	.uleb128 0x1
	.byte	0x51
	.uleb128 0x2
	.byte	0x78
	.sleb128 0
	.uleb128 0x29
	.uleb128 0x1
	.byte	0x52
	.uleb128 0x4
	.byte	0x78
	.sleb128 0
	.byte	0x42
	.byte	0x29
	.byte	0
	.uleb128 0x28
	.4byte	.LVL82
	.4byte	0x3c8c
	.4byte	0x317a
	.uleb128 0x29
	.uleb128 0x1
	.byte	0x51
	.uleb128 0x2
	.byte	0x7a
	.sleb128 0
	.byte	0
	.uleb128 0x3a
	.4byte	.LVL83
	.4byte	0x3c8c
	.uleb128 0x28
	.4byte	.LVL84
	.4byte	0x3c66
	.4byte	0x3196
	.uleb128 0x29
	.uleb128 0x1
	.byte	0x50
	.uleb128 0x1
	.byte	0x44
	.byte	0
	.uleb128 0x28
	.4byte	.LVL89
	.4byte	0x3c8c
	.4byte	0x31aa
	.uleb128 0x29
	.uleb128 0x1
	.byte	0x50
	.uleb128 0x2
	.byte	0x75
	.sleb128 0
	.byte	0
	.uleb128 0x28
	.4byte	.LVL90
	.4byte	0x3c8c
	.4byte	0x31be
	.uleb128 0x29
	.uleb128 0x1
	.byte	0x51
	.uleb128 0x2
	.byte	0x77
	.sleb128 0
	.byte	0
	.uleb128 0x28
	.4byte	.LVL91
	.4byte	0x3c8c
	.4byte	0x31d2
	.uleb128 0x29
	.uleb128 0x1
	.byte	0x51
	.uleb128 0x2
	.byte	0x74
	.sleb128 0
	.byte	0
	.uleb128 0x28
	.4byte	.LVL92
	.4byte	0x3c8c
	.4byte	0x31e5
	.uleb128 0x29
	.uleb128 0x1
	.byte	0x51
	.uleb128 0x1
	.byte	0x30
	.byte	0
	.uleb128 0x28
	.4byte	.LVL272
	.4byte	0x3c8c
	.4byte	0x31f9
	.uleb128 0x29
	.uleb128 0x1
	.byte	0x50
	.uleb128 0x2
	.byte	0x75
	.sleb128 0
	.byte	0
	.uleb128 0x28
	.4byte	.LVL279
	.4byte	0x3c8c
	.4byte	0x320d
	.uleb128 0x29
	.uleb128 0x1
	.byte	0x51
	.uleb128 0x2
	.byte	0x78
	.sleb128 0
	.byte	0
	.uleb128 0x2a
	.4byte	.LVL280
	.4byte	0x3ca5
	.uleb128 0x29
	.uleb128 0x1
	.byte	0x50
	.uleb128 0x2
	.byte	0x74
	.sleb128 0
	.uleb128 0x29
	.uleb128 0x1
	.byte	0x51
	.uleb128 0x4
	.byte	0x91
	.sleb128 -188
	.byte	0x6
	.uleb128 0x29
	.uleb128 0x1
	.byte	0x52
	.uleb128 0x2
	.byte	0x7a
	.sleb128 0
	.byte	0
	.byte	0
	.byte	0
	.uleb128 0x4a
	.4byte	0x2875
	.4byte	.Ldebug_ranges0+0x50
	.4byte	0x3263
	.uleb128 0x42
	.4byte	0x2876
	.4byte	.LLST28
	.4byte	.LVUS28
	.uleb128 0x43
	.4byte	0x2881
	.uleb128 0x3
	.byte	0x91
	.sleb128 -140
	.uleb128 0x3a
	.4byte	.LVL173
	.4byte	0x3c98
	.uleb128 0x3a
	.4byte	.LVL175
	.4byte	0x3c8c
	.byte	0
	.uleb128 0x48
	.4byte	0x2562
	.4byte	.LBI111
	.2byte	.LVU362
	.4byte	.Ldebug_ranges0+0x78
	.byte	0x1
	.2byte	0x39f
	.byte	0xc
	.4byte	0x3542
	.uleb128 0x40
	.4byte	0x259b
	.4byte	.LLST29
	.4byte	.LVUS29
	.uleb128 0x40
	.4byte	0x258e
	.4byte	.LLST30
	.4byte	.LVUS30
	.uleb128 0x40
	.4byte	0x2581
	.4byte	.LLST31
	.4byte	.LVUS31
	.uleb128 0x40
	.4byte	0x2574
	.4byte	.LLST32
	.4byte	.LVUS32
	.uleb128 0x49
	.4byte	.Ldebug_ranges0+0x78
	.uleb128 0x42
	.4byte	0x25a8
	.4byte	.LLST33
	.4byte	.LVUS33
	.uleb128 0x42
	.4byte	0x25b3
	.4byte	.LLST34
	.4byte	.LVUS34
	.uleb128 0x42
	.4byte	0x25bf
	.4byte	.LLST35
	.4byte	.LVUS35
	.uleb128 0x42
	.4byte	0x25ca
	.4byte	.LLST36
	.4byte	.LVUS36
	.uleb128 0x42
	.4byte	0x25d7
	.4byte	.LLST37
	.4byte	.LVUS37
	.uleb128 0x42
	.4byte	0x25e4
	.4byte	.LLST38
	.4byte	.LVUS38
	.uleb128 0x42
	.4byte	0x25f1
	.4byte	.LLST39
	.4byte	.LVUS39
	.uleb128 0x42
	.4byte	0x25fe
	.4byte	.LLST40
	.4byte	.LVUS40
	.uleb128 0x42
	.4byte	0x260b
	.4byte	.LLST41
	.4byte	.LVUS41
	.uleb128 0x42
	.4byte	0x2618
	.4byte	.LLST42
	.4byte	.LVUS42
	.uleb128 0x44
	.4byte	0x2625
	.4byte	.L67
	.uleb128 0x45
	.4byte	0x262e
	.uleb128 0x28
	.4byte	.LVL126
	.4byte	0x3c8c
	.4byte	0x3357
	.uleb128 0x29
	.uleb128 0x1
	.byte	0x51
	.uleb128 0x2
	.byte	0x77
	.sleb128 0
	.byte	0
	.uleb128 0x28
	.4byte	.LVL127
	.4byte	0x3ca5
	.4byte	0x3376
	.uleb128 0x29
	.uleb128 0x1
	.byte	0x50
	.uleb128 0x2
	.byte	0x74
	.sleb128 0
	.uleb128 0x29
	.uleb128 0x1
	.byte	0x51
	.uleb128 0x2
	.byte	0x75
	.sleb128 0
	.uleb128 0x29
	.uleb128 0x1
	.byte	0x52
	.uleb128 0x1
	.byte	0x30
	.byte	0
	.uleb128 0x28
	.4byte	.LVL214
	.4byte	0x3c98
	.4byte	0x338a
	.uleb128 0x29
	.uleb128 0x1
	.byte	0x50
	.uleb128 0x2
	.byte	0x74
	.sleb128 0
	.byte	0
	.uleb128 0x28
	.4byte	.LVL242
	.4byte	0x3c98
	.4byte	0x339e
	.uleb128 0x29
	.uleb128 0x1
	.byte	0x50
	.uleb128 0x2
	.byte	0x74
	.sleb128 0
	.byte	0
	.uleb128 0x28
	.4byte	.LVL247
	.4byte	0x3c98
	.4byte	0x33b2
	.uleb128 0x29
	.uleb128 0x1
	.byte	0x50
	.uleb128 0x2
	.byte	0x74
	.sleb128 0
	.byte	0
	.uleb128 0x28
	.4byte	.LVL250
	.4byte	0x3c98
	.4byte	0x33c6
	.uleb128 0x29
	.uleb128 0x1
	.byte	0x50
	.uleb128 0x2
	.byte	0x74
	.sleb128 0
	.byte	0
	.uleb128 0x28
	.4byte	.LVL261
	.4byte	0x3c98
	.4byte	0x33da
	.uleb128 0x29
	.uleb128 0x1
	.byte	0x50
	.uleb128 0x2
	.byte	0x74
	.sleb128 0
	.byte	0
	.uleb128 0x28
	.4byte	.LVL265
	.4byte	0x3c8c
	.4byte	0x33ed
	.uleb128 0x29
	.uleb128 0x1
	.byte	0x51
	.uleb128 0x1
	.byte	0x33
	.byte	0
	.uleb128 0x28
	.4byte	.LVL266
	.4byte	0x3ca5
	.4byte	0x340c
	.uleb128 0x29
	.uleb128 0x1
	.byte	0x50
	.uleb128 0x2
	.byte	0x74
	.sleb128 0
	.uleb128 0x29
	.uleb128 0x1
	.byte	0x51
	.uleb128 0x2
	.byte	0x75
	.sleb128 0
	.uleb128 0x29
	.uleb128 0x1
	.byte	0x52
	.uleb128 0x1
	.byte	0x30
	.byte	0
	.uleb128 0x28
	.4byte	.LVL283
	.4byte	0x3cb2
	.4byte	0x3424
	.uleb128 0x29
	.uleb128 0x1
	.byte	0x50
	.uleb128 0x6
	.byte	0x91
	.sleb128 -168
	.byte	0x6
	.byte	0x23
	.uleb128 0x1b
	.byte	0
	.uleb128 0x3a
	.4byte	.LVL294
	.4byte	0x3c98
	.uleb128 0x28
	.4byte	.LVL296
	.4byte	0x3cb2
	.4byte	0x3441
	.uleb128 0x29
	.uleb128 0x1
	.byte	0x50
	.uleb128 0x2
	.byte	0x78
	.sleb128 25
	.byte	0
	.uleb128 0x3a
	.4byte	.LVL305
	.4byte	0x3c98
	.uleb128 0x3a
	.4byte	.LVL308
	.4byte	0x3c8c
	.uleb128 0x28
	.4byte	.LVL309
	.4byte	0x3c8c
	.4byte	0x3485
	.uleb128 0x29
	.uleb128 0x1
	.byte	0x51
	.uleb128 0x2
	.byte	0x7b
	.sleb128 0
	.uleb128 0x29
	.uleb128 0x1
	.byte	0x52
	.uleb128 0x4
	.byte	0x91
	.sleb128 -184
	.byte	0x6
	.uleb128 0x29
	.uleb128 0x1
	.byte	0x53
	.uleb128 0x2
	.byte	0x7a
	.sleb128 0
	.uleb128 0x29
	.uleb128 0x2
	.byte	0x7d
	.sleb128 0
	.uleb128 0x2
	.byte	0x77
	.sleb128 0
	.uleb128 0x29
	.uleb128 0x2
	.byte	0x7d
	.sleb128 4
	.uleb128 0x4
	.byte	0x91
	.sleb128 -176
	.byte	0x6
	.byte	0
	.uleb128 0x3a
	.4byte	.LVL310
	.4byte	0x3c8c
	.uleb128 0x28
	.4byte	.LVL315
	.4byte	0x3c8c
	.4byte	0x34c0
	.uleb128 0x29
	.uleb128 0x1
	.byte	0x51
	.uleb128 0x2
	.byte	0x7b
	.sleb128 0
	.uleb128 0x29
	.uleb128 0x1
	.byte	0x52
	.uleb128 0x4
	.byte	0x91
	.sleb128 -184
	.byte	0x6
	.uleb128 0x29
	.uleb128 0x1
	.byte	0x53
	.uleb128 0x2
	.byte	0x7a
	.sleb128 0
	.uleb128 0x29
	.uleb128 0x2
	.byte	0x7d
	.sleb128 0
	.uleb128 0x2
	.byte	0x77
	.sleb128 0
	.uleb128 0x29
	.uleb128 0x2
	.byte	0x7d
	.sleb128 4
	.uleb128 0x4
	.byte	0x91
	.sleb128 -176
	.byte	0x6
	.byte	0
	.uleb128 0x28
	.4byte	.LVL316
	.4byte	0x3c8c
	.4byte	0x34d6
	.uleb128 0x29
	.uleb128 0x1
	.byte	0x51
	.uleb128 0x4
	.byte	0x91
	.sleb128 -188
	.byte	0x6
	.byte	0
	.uleb128 0x28
	.4byte	.LVL332
	.4byte	0x3c8c
	.4byte	0x34ef
	.uleb128 0x29
	.uleb128 0x1
	.byte	0x51
	.uleb128 0x1
	.byte	0x33
	.uleb128 0x29
	.uleb128 0x1
	.byte	0x52
	.uleb128 0x2
	.byte	0x7b
	.sleb128 0
	.byte	0
	.uleb128 0x28
	.4byte	.LVL334
	.4byte	0x3c8c
	.4byte	0x3503
	.uleb128 0x29
	.uleb128 0x1
	.byte	0x51
	.uleb128 0x2
	.byte	0x77
	.sleb128 0
	.byte	0
	.uleb128 0x28
	.4byte	.LVL336
	.4byte	0x3c8c
	.4byte	0x3516
	.uleb128 0x29
	.uleb128 0x1
	.byte	0x51
	.uleb128 0x1
	.byte	0x33
	.byte	0
	.uleb128 0x28
	.4byte	.LVL338
	.4byte	0x3c8c
	.4byte	0x3530
	.uleb128 0x29
	.uleb128 0x1
	.byte	0x51
	.uleb128 0x8
	.byte	0x91
	.sleb128 -188
	.byte	0x6
	.byte	0x31
	.byte	0x1c
	.byte	0x33
	.byte	0x24
	.byte	0
	.uleb128 0x2a
	.4byte	.LVL340
	.4byte	0x3c98
	.uleb128 0x29
	.uleb128 0x1
	.byte	0x50
	.uleb128 0x2
	.byte	0x74
	.sleb128 0
	.byte	0
	.byte	0
	.byte	0
	.uleb128 0x48
	.4byte	0x2386
	.4byte	.LBI122
	.2byte	.LVU412
	.4byte	.Ldebug_ranges0+0xd0
	.byte	0x1
	.2byte	0x3c9
	.byte	0xc
	.4byte	0x35ea
	.uleb128 0x40
	.4byte	0x23a5
	.4byte	.LLST43
	.4byte	.LVUS43
	.uleb128 0x47
	.4byte	0x23cc
	.uleb128 0x40
	.4byte	0x23bf
	.4byte	.LLST44
	.4byte	.LVUS44
	.uleb128 0x40
	.4byte	0x23b2
	.4byte	.LLST45
	.4byte	.LVUS45
	.uleb128 0x40
	.4byte	0x2398
	.4byte	.LLST46
	.4byte	.LVUS46
	.uleb128 0x49
	.4byte	.Ldebug_ranges0+0xd0
	.uleb128 0x42
	.4byte	0x23d9
	.4byte	.LLST47
	.4byte	.LVUS47
	.uleb128 0x42
	.4byte	0x23e5
	.4byte	.LLST48
	.4byte	.LVUS48
	.uleb128 0x42
	.4byte	0x23f2
	.4byte	.LLST49
	.4byte	.LVUS49
	.uleb128 0x45
	.4byte	0x23fd
	.uleb128 0x28
	.4byte	.LVL132
	.4byte	0x3c66
	.4byte	0x35d6
	.uleb128 0x29
	.uleb128 0x1
	.byte	0x50
	.uleb128 0x1
	.byte	0x44
	.byte	0
	.uleb128 0x3a
	.4byte	.LVL142
	.4byte	0x3c98
	.uleb128 0x3a
	.4byte	.LVL326
	.4byte	0x3c8c
	.byte	0
	.byte	0
	.uleb128 0x48
	.4byte	0x24a5
	.4byte	.LBI126
	.2byte	.LVU444
	.4byte	.Ldebug_ranges0+0xf0
	.byte	0x1
	.2byte	0x3bf
	.byte	0xc
	.4byte	0x37a1
	.uleb128 0x40
	.4byte	0x24f8
	.4byte	.LLST50
	.4byte	.LVUS50
	.uleb128 0x47
	.4byte	0x24eb
	.uleb128 0x40
	.4byte	0x24de
	.4byte	.LLST51
	.4byte	.LVUS51
	.uleb128 0x40
	.4byte	0x24d1
	.4byte	.LLST52
	.4byte	.LVUS52
	.uleb128 0x40
	.4byte	0x24c4
	.4byte	.LLST53
	.4byte	.LVUS53
	.uleb128 0x40
	.4byte	0x24b7
	.4byte	.LLST54
	.4byte	.LVUS54
	.uleb128 0x49
	.4byte	.Ldebug_ranges0+0xf0
	.uleb128 0x42
	.4byte	0x2505
	.4byte	.LLST55
	.4byte	.LVUS55
	.uleb128 0x42
	.4byte	0x2511
	.4byte	.LLST56
	.4byte	.LVUS56
	.uleb128 0x42
	.4byte	0x251e
	.4byte	.LLST57
	.4byte	.LVUS57
	.uleb128 0x42
	.4byte	0x252b
	.4byte	.LLST58
	.4byte	.LVUS58
	.uleb128 0x4b
	.4byte	0x2537
	.uleb128 0x42
	.4byte	0x2542
	.4byte	.LLST59
	.4byte	.LVUS59
	.uleb128 0x42
	.4byte	0x254d
	.4byte	.LLST60
	.4byte	.LVUS60
	.uleb128 0x45
	.4byte	0x2558
	.uleb128 0x48
	.4byte	0x2e37
	.4byte	.LBI128
	.2byte	.LVU602
	.4byte	.Ldebug_ranges0+0x140
	.byte	0x1
	.2byte	0xd1c
	.byte	0x13
	.4byte	0x3728
	.uleb128 0x40
	.4byte	0x2e48
	.4byte	.LLST61
	.4byte	.LVUS61
	.uleb128 0x49
	.4byte	.Ldebug_ranges0+0x140
	.uleb128 0x42
	.4byte	0x2e54
	.4byte	.LLST62
	.4byte	.LVUS62
	.uleb128 0x28
	.4byte	.LVL205
	.4byte	0x3c98
	.4byte	0x36ee
	.uleb128 0x29
	.uleb128 0x1
	.byte	0x50
	.uleb128 0x2
	.byte	0x74
	.sleb128 0
	.byte	0
	.uleb128 0x28
	.4byte	.LVL207
	.4byte	0x3c98
	.4byte	0x3702
	.uleb128 0x29
	.uleb128 0x1
	.byte	0x50
	.uleb128 0x2
	.byte	0x74
	.sleb128 0
	.byte	0
	.uleb128 0x28
	.4byte	.LVL209
	.4byte	0x3c98
	.4byte	0x3716
	.uleb128 0x29
	.uleb128 0x1
	.byte	0x50
	.uleb128 0x2
	.byte	0x74
	.sleb128 0
	.byte	0
	.uleb128 0x2a
	.4byte	.LVL211
	.4byte	0x3c98
	.uleb128 0x29
	.uleb128 0x1
	.byte	0x50
	.uleb128 0x2
	.byte	0x74
	.sleb128 0
	.byte	0
	.byte	0
	.byte	0
	.uleb128 0x28
	.4byte	.LVL149
	.4byte	0x3c66
	.4byte	0x373c
	.uleb128 0x29
	.uleb128 0x1
	.byte	0x50
	.uleb128 0x2
	.byte	0x77
	.sleb128 27
	.byte	0
	.uleb128 0x3a
	.4byte	.LVL160
	.4byte	0x3c98
	.uleb128 0x28
	.4byte	.LVL199
	.4byte	0x3c98
	.4byte	0x3759
	.uleb128 0x29
	.uleb128 0x1
	.byte	0x50
	.uleb128 0x2
	.byte	0x74
	.sleb128 0
	.byte	0
	.uleb128 0x28
	.4byte	.LVL202
	.4byte	0x3c98
	.4byte	0x376d
	.uleb128 0x29
	.uleb128 0x1
	.byte	0x50
	.uleb128 0x2
	.byte	0x74
	.sleb128 0
	.byte	0
	.uleb128 0x28
	.4byte	.LVL216
	.4byte	0x3c66
	.4byte	0x3781
	.uleb128 0x29
	.uleb128 0x1
	.byte	0x50
	.uleb128 0x2
	.byte	0x77
	.sleb128 27
	.byte	0
	.uleb128 0x3a
	.4byte	.LVL228
	.4byte	0x3c98
	.uleb128 0x2a
	.4byte	.LVL329
	.4byte	0x3c8c
	.uleb128 0x29
	.uleb128 0x1
	.byte	0x51
	.uleb128 0x1
	.byte	0x3b
	.uleb128 0x29
	.uleb128 0x1
	.byte	0x52
	.uleb128 0x2
	.byte	0x75
	.sleb128 0
	.byte	0
	.byte	0
	.byte	0
	.uleb128 0x48
	.4byte	0x2638
	.4byte	.LBI146
	.2byte	.LVU510
	.4byte	.Ldebug_ranges0+0x170
	.byte	0x1
	.2byte	0x3d2
	.byte	0xc
	.4byte	0x384f
	.uleb128 0x40
	.4byte	0x2657
	.4byte	.LLST63
	.4byte	.LVUS63
	.uleb128 0x40
	.4byte	0x2664
	.4byte	.LLST64
	.4byte	.LVUS64
	.uleb128 0x40
	.4byte	0x264a
	.4byte	.LLST65
	.4byte	.LVUS65
	.uleb128 0x49
	.4byte	.Ldebug_ranges0+0x170
	.uleb128 0x44
	.4byte	0x2671
	.4byte	.L170
	.uleb128 0x3a
	.4byte	.LVL166
	.4byte	0x3c8c
	.uleb128 0x28
	.4byte	.LVL167
	.4byte	0x3ca5
	.4byte	0x3815
	.uleb128 0x29
	.uleb128 0x1
	.byte	0x50
	.uleb128 0x2
	.byte	0x74
	.sleb128 0
	.uleb128 0x29
	.uleb128 0x1
	.byte	0x51
	.uleb128 0x2
	.byte	0x75
	.sleb128 0
	.uleb128 0x29
	.uleb128 0x1
	.byte	0x52
	.uleb128 0x1
	.byte	0x30
	.byte	0
	.uleb128 0x28
	.4byte	.LVL231
	.4byte	0x3c98
	.4byte	0x3829
	.uleb128 0x29
	.uleb128 0x1
	.byte	0x50
	.uleb128 0x2
	.byte	0x74
	.sleb128 0
	.byte	0
	.uleb128 0x28
	.4byte	.LVL252
	.4byte	0x3c98
	.4byte	0x383d
	.uleb128 0x29
	.uleb128 0x1
	.byte	0x50
	.uleb128 0x2
	.byte	0x74
	.sleb128 0
	.byte	0
	.uleb128 0x2a
	.4byte	.LVL253
	.4byte	0x3c98
	.uleb128 0x29
	.uleb128 0x1
	.byte	0x50
	.uleb128 0x2
	.byte	0x74
	.sleb128 0
	.byte	0
	.byte	0
	.byte	0
	.uleb128 0x48
	.4byte	0x267b
	.4byte	.LBI155
	.2byte	.LVU560
	.4byte	.Ldebug_ranges0+0x198
	.byte	0x1
	.2byte	0x345
	.byte	0x7
	.4byte	0x392e
	.uleb128 0x40
	.4byte	0x26c1
	.4byte	.LLST66
	.4byte	.LVUS66
	.uleb128 0x40
	.4byte	0x26b4
	.4byte	.LLST67
	.4byte	.LVUS67
	.uleb128 0x40
	.4byte	0x26a7
	.4byte	.LLST68
	.4byte	.LVUS68
	.uleb128 0x40
	.4byte	0x269a
	.4byte	.LLST69
	.4byte	.LVUS69
	.uleb128 0x40
	.4byte	0x268d
	.4byte	.LLST70
	.4byte	.LVUS70
	.uleb128 0x49
	.4byte	.Ldebug_ranges0+0x198
	.uleb128 0x42
	.4byte	0x26ce
	.4byte	.LLST71
	.4byte	.LVUS71
	.uleb128 0x42
	.4byte	0x26da
	.4byte	.LLST72
	.4byte	.LVUS72
	.uleb128 0x43
	.4byte	0x26e5
	.uleb128 0x3
	.byte	0x91
	.sleb128 -140
	.uleb128 0x28
	.4byte	.LVL179
	.4byte	0x3cbe
	.4byte	0x38e4
	.uleb128 0x29
	.uleb128 0x1
	.byte	0x50
	.uleb128 0x3
	.byte	0x91
	.sleb128 -4
	.byte	0x6
	.byte	0
	.uleb128 0x28
	.4byte	.LVL182
	.4byte	0x3cca
	.4byte	0x38fe
	.uleb128 0x29
	.uleb128 0x1
	.byte	0x50
	.uleb128 0x2
	.byte	0x74
	.sleb128 0
	.uleb128 0x29
	.uleb128 0x1
	.byte	0x51
	.uleb128 0x2
	.byte	0x77
	.sleb128 0
	.byte	0
	.uleb128 0x3a
	.4byte	.LVL234
	.4byte	0x3c8c
	.uleb128 0x3a
	.4byte	.LVL236
	.4byte	0x3cbe
	.uleb128 0x2a
	.4byte	.LVL238
	.4byte	0x3cca
	.uleb128 0x29
	.uleb128 0x1
	.byte	0x50
	.uleb128 0x2
	.byte	0x74
	.sleb128 0
	.uleb128 0x29
	.uleb128 0x1
	.byte	0x51
	.uleb128 0x2
	.byte	0x77
	.sleb128 0
	.uleb128 0x29
	.uleb128 0x1
	.byte	0x52
	.uleb128 0x2
	.byte	0x8
	.byte	0x64
	.byte	0
	.byte	0
	.byte	0
	.uleb128 0x28
	.4byte	.LVL6
	.4byte	0x3c7f
	.4byte	0x3942
	.uleb128 0x29
	.uleb128 0x1
	.byte	0x50
	.uleb128 0x2
	.byte	0x74
	.sleb128 0
	.byte	0
	.uleb128 0x28
	.4byte	.LVL8
	.4byte	0x3c8c
	.4byte	0x3956
	.uleb128 0x29
	.uleb128 0x1
	.byte	0x51
	.uleb128 0x2
	.byte	0x75
	.sleb128 0
	.byte	0
	.uleb128 0x28
	.4byte	.LVL10
	.4byte	0x3c98
	.4byte	0x396a
	.uleb128 0x29
	.uleb128 0x1
	.byte	0x50
	.uleb128 0x2
	.byte	0x74
	.sleb128 0
	.byte	0
	.uleb128 0x3a
	.4byte	.LVL24
	.4byte	0x3c98
	.uleb128 0x3a
	.4byte	.LVL26
	.4byte	0x3c8c
	.uleb128 0x3a
	.4byte	.LVL30
	.4byte	0x3c8c
	.uleb128 0x28
	.4byte	.LVL34
	.4byte	0x3c98
	.4byte	0x3999
	.uleb128 0x29
	.uleb128 0x1
	.byte	0x50
	.uleb128 0x2
	.byte	0x74
	.sleb128 0
	.byte	0
	.uleb128 0x28
	.4byte	.LVL41
	.4byte	0x3c8c
	.4byte	0x39ad
	.uleb128 0x29
	.uleb128 0x1
	.byte	0x52
	.uleb128 0x2
	.byte	0x78
	.sleb128 0
	.byte	0
	.uleb128 0x3a
	.4byte	.LVL44
	.4byte	0x3c8c
	.uleb128 0x28
	.4byte	.LVL54
	.4byte	0x3cbe
	.4byte	0x39d8
	.uleb128 0x29
	.uleb128 0x1
	.byte	0x50
	.uleb128 0x3
	.byte	0x91
	.sleb128 -4
	.byte	0x6
	.uleb128 0x29
	.uleb128 0x1
	.byte	0x51
	.uleb128 0x3
	.byte	0x91
	.sleb128 -156
	.uleb128 0x29
	.uleb128 0x1
	.byte	0x52
	.uleb128 0x2
	.byte	0x79
	.sleb128 0
	.byte	0
	.uleb128 0x3a
	.4byte	.LVL63
	.4byte	0x3c8c
	.uleb128 0x28
	.4byte	.LVL66
	.4byte	0x3c8c
	.4byte	0x39f4
	.uleb128 0x29
	.uleb128 0x1
	.byte	0x52
	.uleb128 0x1
	.byte	0x3d
	.byte	0
	.uleb128 0x28
	.4byte	.LVL67
	.4byte	0x3c72
	.4byte	0x3a0d
	.uleb128 0x29
	.uleb128 0x1
	.byte	0x50
	.uleb128 0x1
	.byte	0x30
	.uleb128 0x29
	.uleb128 0x1
	.byte	0x51
	.uleb128 0x2
	.byte	0x76
	.sleb128 0
	.byte	0
	.uleb128 0x28
	.4byte	.LVL68
	.4byte	0x3c8c
	.4byte	0x3a21
	.uleb128 0x29
	.uleb128 0x1
	.byte	0x51
	.uleb128 0x2
	.byte	0x79
	.sleb128 0
	.byte	0
	.uleb128 0x28
	.4byte	.LVL69
	.4byte	0x3cd6
	.4byte	0x3a3c
	.uleb128 0x29
	.uleb128 0x1
	.byte	0x50
	.uleb128 0x3
	.byte	0x91
	.sleb128 -156
	.uleb128 0x29
	.uleb128 0x1
	.byte	0x51
	.uleb128 0x2
	.byte	0x79
	.sleb128 0
	.byte	0
	.uleb128 0x3a
	.4byte	.LVL72
	.4byte	0x3c8c
	.uleb128 0x28
	.4byte	.LVL75
	.4byte	0x3ce3
	.4byte	0x3a59
	.uleb128 0x29
	.uleb128 0x1
	.byte	0x50
	.uleb128 0x2
	.byte	0x74
	.sleb128 0
	.byte	0
	.uleb128 0x28
	.4byte	.LVL93
	.4byte	0x3c72
	.4byte	0x3a72
	.uleb128 0x29
	.uleb128 0x1
	.byte	0x50
	.uleb128 0x1
	.byte	0x30
	.uleb128 0x29
	.uleb128 0x1
	.byte	0x51
	.uleb128 0x2
	.byte	0x76
	.sleb128 0
	.byte	0
	.uleb128 0x28
	.4byte	.LVL95
	.4byte	0x3c8c
	.4byte	0x3a86
	.uleb128 0x29
	.uleb128 0x1
	.byte	0x51
	.uleb128 0x2
	.byte	0x79
	.sleb128 0
	.byte	0
	.uleb128 0x28
	.4byte	.LVL96
	.4byte	0x3cd6
	.4byte	0x3aa1
	.uleb128 0x29
	.uleb128 0x1
	.byte	0x50
	.uleb128 0x3
	.byte	0x91
	.sleb128 -156
	.uleb128 0x29
	.uleb128 0x1
	.byte	0x51
	.uleb128 0x2
	.byte	0x79
	.sleb128 0
	.byte	0
	.uleb128 0x28
	.4byte	.LVL107
	.4byte	0x3c98
	.4byte	0x3ab5
	.uleb128 0x29
	.uleb128 0x1
	.byte	0x50
	.uleb128 0x2
	.byte	0x74
	.sleb128 0
	.byte	0
	.uleb128 0x3a
	.4byte	.LVL109
	.4byte	0x3c8c
	.uleb128 0x28
	.4byte	.LVL112
	.4byte	0x3c8c
	.4byte	0x3ad2
	.uleb128 0x29
	.uleb128 0x1
	.byte	0x52
	.uleb128 0x2
	.byte	0x78
	.sleb128 0
	.byte	0
	.uleb128 0x28
	.4byte	.LVL114
	.4byte	0x3ca5
	.4byte	0x3af2
	.uleb128 0x29
	.uleb128 0x1
	.byte	0x50
	.uleb128 0x2
	.byte	0x74
	.sleb128 0
	.uleb128 0x29
	.uleb128 0x1
	.byte	0x51
	.uleb128 0x2
	.byte	0x75
	.sleb128 0
	.uleb128 0x29
	.uleb128 0x1
	.byte	0x52
	.uleb128 0x2
	.byte	0x7a
	.sleb128 0
	.byte	0
	.uleb128 0x28
	.4byte	.LVL116
	.4byte	0x3c8c
	.4byte	0x3b06
	.uleb128 0x29
	.uleb128 0x1
	.byte	0x52
	.uleb128 0x2
	.byte	0x78
	.sleb128 0
	.byte	0
	.uleb128 0x28
	.4byte	.LVL128
	.4byte	0x3c72
	.4byte	0x3b1f
	.uleb128 0x29
	.uleb128 0x1
	.byte	0x50
	.uleb128 0x1
	.byte	0x30
	.uleb128 0x29
	.uleb128 0x1
	.byte	0x51
	.uleb128 0x2
	.byte	0x76
	.sleb128 0
	.byte	0
	.uleb128 0x28
	.4byte	.LVL129
	.4byte	0x3c8c
	.4byte	0x3b33
	.uleb128 0x29
	.uleb128 0x1
	.byte	0x51
	.uleb128 0x2
	.byte	0x79
	.sleb128 0
	.byte	0
	.uleb128 0x28
	.4byte	.LVL130
	.4byte	0x3cd6
	.4byte	0x3b4e
	.uleb128 0x29
	.uleb128 0x1
	.byte	0x50
	.uleb128 0x3
	.byte	0x91
	.sleb128 -156
	.uleb128 0x29
	.uleb128 0x1
	.byte	0x51
	.uleb128 0x2
	.byte	0x79
	.sleb128 0
	.byte	0
	.uleb128 0x28
	.4byte	.LVL163
	.4byte	0x3c72
	.4byte	0x3b67
	.uleb128 0x29
	.uleb128 0x1
	.byte	0x50
	.uleb128 0x1
	.byte	0x30
	.uleb128 0x29
	.uleb128 0x1
	.byte	0x51
	.uleb128 0x2
	.byte	0x76
	.sleb128 0
	.byte	0
	.uleb128 0x28
	.4byte	.LVL168
	.4byte	0x3c72
	.4byte	0x3b80
	.uleb128 0x29
	.uleb128 0x1
	.byte	0x50
	.uleb128 0x1
	.byte	0x30
	.uleb128 0x29
	.uleb128 0x1
	.byte	0x51
	.uleb128 0x2
	.byte	0x76
	.sleb128 0
	.byte	0
	.uleb128 0x3a
	.4byte	.LVL170
	.4byte	0x3c8c
	.uleb128 0x28
	.4byte	.LVL171
	.4byte	0x3cd6
	.4byte	0x3ba4
	.uleb128 0x29
	.uleb128 0x1
	.byte	0x50
	.uleb128 0x3
	.byte	0x91
	.sleb128 -156
	.uleb128 0x29
	.uleb128 0x1
	.byte	0x51
	.uleb128 0x2
	.byte	0x79
	.sleb128 0
	.byte	0
	.uleb128 0x28
	.4byte	.LVL197
	.4byte	0x3c72
	.4byte	0x3bbd
	.uleb128 0x29
	.uleb128 0x1
	.byte	0x50
	.uleb128 0x1
	.byte	0x30
	.uleb128 0x29
	.uleb128 0x1
	.byte	0x51
	.uleb128 0x2
	.byte	0x76
	.sleb128 0
	.byte	0
	.uleb128 0x28
	.4byte	.LVL259
	.4byte	0x3c72
	.4byte	0x3bd6
	.uleb128 0x29
	.uleb128 0x1
	.byte	0x50
	.uleb128 0x1
	.byte	0x30
	.uleb128 0x29
	.uleb128 0x1
	.byte	0x51
	.uleb128 0x2
	.byte	0x76
	.sleb128 0
	.byte	0
	.uleb128 0x28
	.4byte	.LVL267
	.4byte	0x3c72
	.4byte	0x3bef
	.uleb128 0x29
	.uleb128 0x1
	.byte	0x50
	.uleb128 0x1
	.byte	0x30
	.uleb128 0x29
	.uleb128 0x1
	.byte	0x51
	.uleb128 0x2
	.byte	0x76
	.sleb128 0
	.byte	0
	.uleb128 0x28
	.4byte	.LVL268
	.4byte	0x3c8c
	.4byte	0x3c03
	.uleb128 0x29
	.uleb128 0x1
	.byte	0x51
	.uleb128 0x2
	.byte	0x79
	.sleb128 0
	.byte	0
	.uleb128 0x28
	.4byte	.LVL269
	.4byte	0x3cd6
	.4byte	0x3c1e
	.uleb128 0x29
	.uleb128 0x1
	.byte	0x50
	.uleb128 0x3
	.byte	0x91
	.sleb128 -156
	.uleb128 0x29
	.uleb128 0x1
	.byte	0x51
	.uleb128 0x2
	.byte	0x79
	.sleb128 0
	.byte	0
	.uleb128 0x28
	.4byte	.LVL281
	.4byte	0x3c72
	.4byte	0x3c37
	.uleb128 0x29
	.uleb128 0x1
	.byte	0x50
	.uleb128 0x1
	.byte	0x30
	.uleb128 0x29
	.uleb128 0x1
	.byte	0x51
	.uleb128 0x2
	.byte	0x76
	.sleb128 0
	.byte	0
	.uleb128 0x28
	.4byte	.LVL327
	.4byte	0x3c72
	.4byte	0x3c50
	.uleb128 0x29
	.uleb128 0x1
	.byte	0x50
	.uleb128 0x1
	.byte	0x30
	.uleb128 0x29
	.uleb128 0x1
	.byte	0x51
	.uleb128 0x2
	.byte	0x76
	.sleb128 0
	.byte	0
	.uleb128 0x2a
	.4byte	.LVL330
	.4byte	0x3c72
	.uleb128 0x29
	.uleb128 0x1
	.byte	0x50
	.uleb128 0x1
	.byte	0x30
	.uleb128 0x29
	.uleb128 0x1
	.byte	0x51
	.uleb128 0x2
	.byte	0x76
	.sleb128 0
	.byte	0
	.byte	0
	.uleb128 0x4c
	.4byte	.LASF896
	.4byte	.LASF896
	.byte	0xd
	.byte	0xb
	.byte	0x7
	.uleb128 0x4d
	.4byte	.LASF897
	.4byte	.LASF897
	.byte	0xc
	.2byte	0x36d
	.byte	0x6
	.uleb128 0x4d
	.4byte	.LASF898
	.4byte	.LASF898
	.byte	0x9
	.2byte	0x1ca
	.byte	0x7
	.uleb128 0x4c
	.4byte	.LASF899
	.4byte	.LASF899
	.byte	0xe
	.byte	0x4c
	.byte	0x6
	.uleb128 0x4d
	.4byte	.LASF900
	.4byte	.LASF900
	.byte	0x9
	.2byte	0x1e3
	.byte	0x5
	.uleb128 0x4d
	.4byte	.LASF901
	.4byte	.LASF901
	.byte	0x9
	.2byte	0x266
	.byte	0x6
	.uleb128 0x4c
	.4byte	.LASF902
	.4byte	.LASF902
	.byte	0xd
	.byte	0xc
	.byte	0x7
	.uleb128 0x4c
	.4byte	.LASF903
	.4byte	.LASF903
	.byte	0xf
	.byte	0x44
	.byte	0x5
	.uleb128 0x4c
	.4byte	.LASF904
	.4byte	.LASF904
	.byte	0xf
	.byte	0x45
	.byte	0x5
	.uleb128 0x4d
	.4byte	.LASF905
	.4byte	.LASF905
	.byte	0x1
	.2byte	0x3ef
	.byte	0x1
	.uleb128 0x4d
	.4byte	.LASF906
	.4byte	.LASF906
	.byte	0x9
	.2byte	0x25b
	.byte	0x6
	.byte	0
	.section	.debug_abbrev,"",%progbits
.Ldebug_abbrev0:
	.uleb128 0x1
	.uleb128 0x11
	.byte	0x1
	.uleb128 0x25
	.uleb128 0xe
	.uleb128 0x13
	.uleb128 0xb
	.uleb128 0x3
	.uleb128 0xe
	.uleb128 0x1b
	.uleb128 0xe
	.uleb128 0x55
	.uleb128 0x17
	.uleb128 0x11
	.uleb128 0x1
	.uleb128 0x10
	.uleb128 0x17
	.byte	0
	.byte	0
	.uleb128 0x2
	.uleb128 0x24
	.byte	0
	.uleb128 0xb
	.uleb128 0xb
	.uleb128 0x3e
	.uleb128 0xb
	.uleb128 0x3
	.uleb128 0xe
	.byte	0
	.byte	0
	.uleb128 0x3
	.uleb128 0x26
	.byte	0
	.uleb128 0x49
	.uleb128 0x13
	.byte	0
	.byte	0
	.uleb128 0x4
	.uleb128 0x24
	.byte	0
	.uleb128 0xb
	.uleb128 0xb
	.uleb128 0x3e
	.uleb128 0xb
	.uleb128 0x3
	.uleb128 0x8
	.byte	0
	.byte	0
	.uleb128 0x5
	.uleb128 0x16
	.byte	0
	.uleb128 0x3
	.uleb128 0xe
	.uleb128 0x3a
	.uleb128 0xb
	.uleb128 0x3b
	.uleb128 0xb
	.uleb128 0x39
	.uleb128 0xb
	.uleb128 0x49
	.uleb128 0x13
	.byte	0
	.byte	0
	.uleb128 0x6
	.uleb128 0xf
	.byte	0
	.uleb128 0xb
	.uleb128 0xb
	.byte	0
	.byte	0
	.uleb128 0x7
	.uleb128 0xf
	.byte	0
	.uleb128 0xb
	.uleb128 0xb
	.uleb128 0x49
	.uleb128 0x13
	.byte	0
	.byte	0
	.uleb128 0x8
	.uleb128 0x26
	.byte	0
	.byte	0
	.byte	0
	.uleb128 0x9
	.uleb128 0x16
	.byte	0
	.uleb128 0x3
	.uleb128 0x8
	.uleb128 0x3a
	.uleb128 0xb
	.uleb128 0x3b
	.uleb128 0xb
	.uleb128 0x39
	.uleb128 0xb
	.uleb128 0x49
	.uleb128 0x13
	.byte	0
	.byte	0
	.uleb128 0xa
	.uleb128 0x1
	.byte	0x1
	.uleb128 0x49
	.uleb128 0x13
	.uleb128 0x1
	.uleb128 0x13
	.byte	0
	.byte	0
	.uleb128 0xb
	.uleb128 0x21
	.byte	0
	.uleb128 0x49
	.uleb128 0x13
	.uleb128 0x2f
	.uleb128 0xb
	.byte	0
	.byte	0
	.uleb128 0xc
	.uleb128 0x13
	.byte	0x1
	.uleb128 0x3
	.uleb128 0xe
	.uleb128 0xb
	.uleb128 0xb
	.uleb128 0x3a
	.uleb128 0xb
	.uleb128 0x3b
	.uleb128 0xb
	.uleb128 0x39
	.uleb128 0xb
	.uleb128 0x1
	.uleb128 0x13
	.byte	0
	.byte	0
	.uleb128 0xd
	.uleb128 0xd
	.byte	0
	.uleb128 0x3
	.uleb128 0xe
	.uleb128 0x3a
	.uleb128 0xb
	.uleb128 0x3b
	.uleb128 0xb
	.uleb128 0x39
	.uleb128 0xb
	.uleb128 0x49
	.uleb128 0x13
	.uleb128 0x38
	.uleb128 0xb
	.byte	0
	.byte	0
	.uleb128 0xe
	.uleb128 0xd
	.byte	0
	.uleb128 0x3
	.uleb128 0x8
	.uleb128 0x3a
	.uleb128 0xb
	.uleb128 0x3b
	.uleb128 0xb
	.uleb128 0x39
	.uleb128 0xb
	.uleb128 0x49
	.uleb128 0x13
	.uleb128 0x38
	.uleb128 0xb
	.byte	0
	.byte	0
	.uleb128 0xf
	.uleb128 0x4
	.byte	0x1
	.uleb128 0x3e
	.uleb128 0xb
	.uleb128 0xb
	.uleb128 0xb
	.uleb128 0x49
	.uleb128 0x13
	.uleb128 0x3a
	.uleb128 0xb
	.uleb128 0x3b
	.uleb128 0xb
	.uleb128 0x39
	.uleb128 0xb
	.uleb128 0x1
	.uleb128 0x13
	.byte	0
	.byte	0
	.uleb128 0x10
	.uleb128 0x28
	.byte	0
	.uleb128 0x3
	.uleb128 0xe
	.uleb128 0x1c
	.uleb128 0xb
	.byte	0
	.byte	0
	.uleb128 0x11
	.uleb128 0x28
	.byte	0
	.uleb128 0x3
	.uleb128 0xe
	.uleb128 0x1c
	.uleb128 0x5
	.byte	0
	.byte	0
	.uleb128 0x12
	.uleb128 0x28
	.byte	0
	.uleb128 0x3
	.uleb128 0xe
	.uleb128 0x1c
	.uleb128 0x6
	.byte	0
	.byte	0
	.uleb128 0x13
	.uleb128 0x16
	.byte	0
	.uleb128 0x3
	.uleb128 0xe
	.uleb128 0x3a
	.uleb128 0xb
	.uleb128 0x3b
	.uleb128 0x5
	.uleb128 0x39
	.uleb128 0xb
	.uleb128 0x49
	.uleb128 0x13
	.byte	0
	.byte	0
	.uleb128 0x14
	.uleb128 0x13
	.byte	0x1
	.uleb128 0xb
	.uleb128 0xb
	.uleb128 0x3a
	.uleb128 0xb
	.uleb128 0x3b
	.uleb128 0x5
	.uleb128 0x39
	.uleb128 0xb
	.uleb128 0x1
	.uleb128 0x13
	.byte	0
	.byte	0
	.uleb128 0x15
	.uleb128 0xd
	.byte	0
	.uleb128 0x3
	.uleb128 0xe
	.uleb128 0x3a
	.uleb128 0xb
	.uleb128 0x3b
	.uleb128 0x5
	.uleb128 0x39
	.uleb128 0xb
	.uleb128 0x49
	.uleb128 0x13
	.uleb128 0xb
	.uleb128 0xb
	.uleb128 0xd
	.uleb128 0xb
	.uleb128 0xc
	.uleb128 0xb
	.uleb128 0x38
	.uleb128 0xb
	.byte	0
	.byte	0
	.uleb128 0x16
	.uleb128 0x13
	.byte	0x1
	.uleb128 0x3
	.uleb128 0xe
	.uleb128 0xb
	.uleb128 0xb
	.uleb128 0x3a
	.uleb128 0xb
	.uleb128 0x3b
	.uleb128 0x5
	.uleb128 0x39
	.uleb128 0xb
	.uleb128 0x1
	.uleb128 0x13
	.byte	0
	.byte	0
	.uleb128 0x17
	.uleb128 0xd
	.byte	0
	.uleb128 0x3
	.uleb128 0xe
	.uleb128 0x3a
	.uleb128 0xb
	.uleb128 0x3b
	.uleb128 0x5
	.uleb128 0x39
	.uleb128 0xb
	.uleb128 0x49
	.uleb128 0x13
	.uleb128 0x38
	.uleb128 0xb
	.byte	0
	.byte	0
	.uleb128 0x18
	.uleb128 0x13
	.byte	0
	.uleb128 0x3
	.uleb128 0xe
	.uleb128 0x3c
	.uleb128 0x19
	.byte	0
	.byte	0
	.uleb128 0x19
	.uleb128 0x4
	.byte	0x1
	.uleb128 0x3
	.uleb128 0xe
	.uleb128 0x3e
	.uleb128 0xb
	.uleb128 0xb
	.uleb128 0xb
	.uleb128 0x49
	.uleb128 0x13
	.uleb128 0x3a
	.uleb128 0xb
	.uleb128 0x3b
	.uleb128 0xb
	.uleb128 0x39
	.uleb128 0xb
	.uleb128 0x1
	.uleb128 0x13
	.byte	0
	.byte	0
	.uleb128 0x1a
	.uleb128 0xd
	.byte	0
	.uleb128 0x3
	.uleb128 0x8
	.uleb128 0x3a
	.uleb128 0xb
	.uleb128 0x3b
	.uleb128 0x5
	.uleb128 0x39
	.uleb128 0xb
	.uleb128 0x49
	.uleb128 0x13
	.uleb128 0x38
	.uleb128 0xb
	.byte	0
	.byte	0
	.uleb128 0x1b
	.uleb128 0x13
	.byte	0x1
	.uleb128 0xb
	.uleb128 0xb
	.uleb128 0x3a
	.uleb128 0xb
	.uleb128 0x3b
	.uleb128 0xb
	.uleb128 0x39
	.uleb128 0xb
	.uleb128 0x1
	.uleb128 0x13
	.byte	0
	.byte	0
	.uleb128 0x1c
	.uleb128 0x15
	.byte	0x1
	.uleb128 0x27
	.uleb128 0x19
	.uleb128 0x49
	.uleb128 0x13
	.uleb128 0x1
	.uleb128 0x13
	.byte	0
	.byte	0
	.uleb128 0x1d
	.uleb128 0x5
	.byte	0
	.uleb128 0x49
	.uleb128 0x13
	.byte	0
	.byte	0
	.uleb128 0x1e
	.uleb128 0xd
	.byte	0
	.uleb128 0x3
	.uleb128 0xe
	.uleb128 0x3a
	.uleb128 0xb
	.uleb128 0x3b
	.uleb128 0xb
	.uleb128 0x39
	.uleb128 0xb
	.uleb128 0x49
	.uleb128 0x13
	.uleb128 0xb
	.uleb128 0xb
	.uleb128 0xd
	.uleb128 0xb
	.uleb128 0xc
	.uleb128 0xb
	.uleb128 0x38
	.uleb128 0xb
	.byte	0
	.byte	0
	.uleb128 0x1f
	.uleb128 0xd
	.byte	0
	.uleb128 0x3
	.uleb128 0x8
	.uleb128 0x3a
	.uleb128 0xb
	.uleb128 0x3b
	.uleb128 0x5
	.uleb128 0x39
	.uleb128 0xb
	.uleb128 0x49
	.uleb128 0x13
	.uleb128 0xb
	.uleb128 0xb
	.uleb128 0xd
	.uleb128 0xb
	.uleb128 0xc
	.uleb128 0xb
	.uleb128 0x38
	.uleb128 0xb
	.byte	0
	.byte	0
	.uleb128 0x20
	.uleb128 0x17
	.byte	0x1
	.uleb128 0xb
	.uleb128 0xb
	.uleb128 0x3a
	.uleb128 0xb
	.uleb128 0x3b
	.uleb128 0x5
	.uleb128 0x39
	.uleb128 0xb
	.uleb128 0x1
	.uleb128 0x13
	.byte	0
	.byte	0
	.uleb128 0x21
	.uleb128 0xd
	.byte	0
	.uleb128 0x3
	.uleb128 0xe
	.uleb128 0x3a
	.uleb128 0xb
	.uleb128 0x3b
	.uleb128 0x5
	.uleb128 0x39
	.uleb128 0xb
	.uleb128 0x49
	.uleb128 0x13
	.byte	0
	.byte	0
	.uleb128 0x22
	.uleb128 0xd
	.byte	0
	.uleb128 0x3
	.uleb128 0x8
	.uleb128 0x3a
	.uleb128 0xb
	.uleb128 0x3b
	.uleb128 0x5
	.uleb128 0x39
	.uleb128 0xb
	.uleb128 0x49
	.uleb128 0x13
	.byte	0
	.byte	0
	.uleb128 0x23
	.uleb128 0x34
	.byte	0
	.uleb128 0x3
	.uleb128 0xe
	.uleb128 0x3a
	.uleb128 0xb
	.uleb128 0x3b
	.uleb128 0xb
	.uleb128 0x39
	.uleb128 0xb
	.uleb128 0x49
	.uleb128 0x13
	.byte	0
	.byte	0
	.uleb128 0x24
	.uleb128 0x2e
	.byte	0x1
	.uleb128 0x3f
	.uleb128 0x19
	.uleb128 0x3
	.uleb128 0xe
	.uleb128 0x3a
	.uleb128 0xb
	.uleb128 0x3b
	.uleb128 0x5
	.uleb128 0x39
	.uleb128 0xb
	.uleb128 0x27
	.uleb128 0x19
	.uleb128 0x49
	.uleb128 0x13
	.uleb128 0x11
	.uleb128 0x1
	.uleb128 0x12
	.uleb128 0x6
	.uleb128 0x40
	.uleb128 0x18
	.uleb128 0x2117
	.uleb128 0x19
	.uleb128 0x1
	.uleb128 0x13
	.byte	0
	.byte	0
	.uleb128 0x25
	.uleb128 0x5
	.byte	0
	.uleb128 0x3
	.uleb128 0xe
	.uleb128 0x3a
	.uleb128 0xb
	.uleb128 0x3b
	.uleb128 0x5
	.uleb128 0x39
	.uleb128 0xb
	.uleb128 0x49
	.uleb128 0x13
	.uleb128 0x2
	.uleb128 0x17
	.uleb128 0x2137
	.uleb128 0x17
	.byte	0
	.byte	0
	.uleb128 0x26
	.uleb128 0x34
	.byte	0
	.uleb128 0x3
	.uleb128 0xe
	.uleb128 0x3a
	.uleb128 0xb
	.uleb128 0x3b
	.uleb128 0x5
	.uleb128 0x39
	.uleb128 0xb
	.uleb128 0x49
	.uleb128 0x13
	.uleb128 0x2
	.uleb128 0x17
	.uleb128 0x2137
	.uleb128 0x17
	.byte	0
	.byte	0
	.uleb128 0x27
	.uleb128 0x34
	.byte	0
	.uleb128 0x3
	.uleb128 0x8
	.uleb128 0x3a
	.uleb128 0xb
	.uleb128 0x3b
	.uleb128 0x5
	.uleb128 0x39
	.uleb128 0xb
	.uleb128 0x49
	.uleb128 0x13
	.uleb128 0x2
	.uleb128 0x17
	.uleb128 0x2137
	.uleb128 0x17
	.byte	0
	.byte	0
	.uleb128 0x28
	.uleb128 0x4109
	.byte	0x1
	.uleb128 0x11
	.uleb128 0x1
	.uleb128 0x31
	.uleb128 0x13
	.uleb128 0x1
	.uleb128 0x13
	.byte	0
	.byte	0
	.uleb128 0x29
	.uleb128 0x410a
	.byte	0
	.uleb128 0x2
	.uleb128 0x18
	.uleb128 0x2111
	.uleb128 0x18
	.byte	0
	.byte	0
	.uleb128 0x2a
	.uleb128 0x4109
	.byte	0x1
	.uleb128 0x11
	.uleb128 0x1
	.uleb128 0x31
	.uleb128 0x13
	.byte	0
	.byte	0
	.uleb128 0x2b
	.uleb128 0x2e
	.byte	0x1
	.uleb128 0x3
	.uleb128 0xe
	.uleb128 0x3a
	.uleb128 0xb
	.uleb128 0x3b
	.uleb128 0x5
	.uleb128 0x39
	.uleb128 0xb
	.uleb128 0x27
	.uleb128 0x19
	.uleb128 0x49
	.uleb128 0x13
	.uleb128 0x20
	.uleb128 0xb
	.uleb128 0x1
	.uleb128 0x13
	.byte	0
	.byte	0
	.uleb128 0x2c
	.uleb128 0x5
	.byte	0
	.uleb128 0x3
	.uleb128 0x8
	.uleb128 0x3a
	.uleb128 0xb
	.uleb128 0x3b
	.uleb128 0x5
	.uleb128 0x39
	.uleb128 0xb
	.uleb128 0x49
	.uleb128 0x13
	.byte	0
	.byte	0
	.uleb128 0x2d
	.uleb128 0x5
	.byte	0
	.uleb128 0x3
	.uleb128 0xe
	.uleb128 0x3a
	.uleb128 0xb
	.uleb128 0x3b
	.uleb128 0x5
	.uleb128 0x39
	.uleb128 0xb
	.uleb128 0x49
	.uleb128 0x13
	.byte	0
	.byte	0
	.uleb128 0x2e
	.uleb128 0x34
	.byte	0
	.uleb128 0x3
	.uleb128 0x8
	.uleb128 0x3a
	.uleb128 0xb
	.uleb128 0x3b
	.uleb128 0x5
	.uleb128 0x39
	.uleb128 0xb
	.uleb128 0x49
	.uleb128 0x13
	.byte	0
	.byte	0
	.uleb128 0x2f
	.uleb128 0xa
	.byte	0
	.uleb128 0x3
	.uleb128 0xe
	.uleb128 0x3a
	.uleb128 0xb
	.uleb128 0x3b
	.uleb128 0x5
	.uleb128 0x39
	.uleb128 0xb
	.byte	0
	.byte	0
	.uleb128 0x30
	.uleb128 0x34
	.byte	0
	.uleb128 0x3
	.uleb128 0xe
	.uleb128 0x3a
	.uleb128 0xb
	.uleb128 0x3b
	.uleb128 0x5
	.uleb128 0x39
	.uleb128 0xb
	.uleb128 0x49
	.uleb128 0x13
	.byte	0
	.byte	0
	.uleb128 0x31
	.uleb128 0xb
	.byte	0x1
	.byte	0
	.byte	0
	.uleb128 0x32
	.uleb128 0x34
	.byte	0
	.uleb128 0x3
	.uleb128 0xe
	.uleb128 0x3a
	.uleb128 0xb
	.uleb128 0x3b
	.uleb128 0x5
	.uleb128 0x39
	.uleb128 0xb
	.uleb128 0x49
	.uleb128 0x13
	.uleb128 0x2
	.uleb128 0x18
	.byte	0
	.byte	0
	.uleb128 0x33
	.uleb128 0x2e
	.byte	0x1
	.uleb128 0x3f
	.uleb128 0x19
	.uleb128 0x3
	.uleb128 0xe
	.uleb128 0x3a
	.uleb128 0xb
	.uleb128 0x3b
	.uleb128 0x5
	.uleb128 0x39
	.uleb128 0xb
	.uleb128 0x49
	.uleb128 0x13
	.uleb128 0x3c
	.uleb128 0x19
	.uleb128 0x1
	.uleb128 0x13
	.byte	0
	.byte	0
	.uleb128 0x34
	.uleb128 0x18
	.byte	0
	.byte	0
	.byte	0
	.uleb128 0x35
	.uleb128 0x5
	.byte	0
	.uleb128 0x3
	.uleb128 0x8
	.uleb128 0x3a
	.uleb128 0xb
	.uleb128 0x3b
	.uleb128 0x5
	.uleb128 0x39
	.uleb128 0xb
	.uleb128 0x49
	.uleb128 0x13
	.uleb128 0x2
	.uleb128 0x17
	.uleb128 0x2137
	.uleb128 0x17
	.byte	0
	.byte	0
	.uleb128 0x36
	.uleb128 0x34
	.byte	0
	.uleb128 0x3
	.uleb128 0x8
	.uleb128 0x3a
	.uleb128 0xb
	.uleb128 0x3b
	.uleb128 0x5
	.uleb128 0x39
	.uleb128 0xb
	.uleb128 0x49
	.uleb128 0x13
	.uleb128 0x2
	.uleb128 0x18
	.byte	0
	.byte	0
	.uleb128 0x37
	.uleb128 0x410a
	.byte	0
	.uleb128 0x31
	.uleb128 0x13
	.byte	0
	.byte	0
	.uleb128 0x38
	.uleb128 0x410a
	.byte	0
	.uleb128 0x31
	.uleb128 0x13
	.uleb128 0x2111
	.uleb128 0x18
	.byte	0
	.byte	0
	.uleb128 0x39
	.uleb128 0x5
	.byte	0
	.uleb128 0x3
	.uleb128 0xe
	.uleb128 0x3a
	.uleb128 0xb
	.uleb128 0x3b
	.uleb128 0x5
	.uleb128 0x39
	.uleb128 0xb
	.uleb128 0x49
	.uleb128 0x13
	.uleb128 0x2
	.uleb128 0x18
	.byte	0
	.byte	0
	.uleb128 0x3a
	.uleb128 0x4109
	.byte	0
	.uleb128 0x11
	.uleb128 0x1
	.uleb128 0x31
	.uleb128 0x13
	.byte	0
	.byte	0
	.uleb128 0x3b
	.uleb128 0x2e
	.byte	0x1
	.uleb128 0x3
	.uleb128 0xe
	.uleb128 0x3a
	.uleb128 0xb
	.uleb128 0x3b
	.uleb128 0xb
	.uleb128 0x39
	.uleb128 0xb
	.uleb128 0x27
	.uleb128 0x19
	.uleb128 0x49
	.uleb128 0x13
	.uleb128 0x20
	.uleb128 0xb
	.uleb128 0x1
	.uleb128 0x13
	.byte	0
	.byte	0
	.uleb128 0x3c
	.uleb128 0x5
	.byte	0
	.uleb128 0x3
	.uleb128 0x8
	.uleb128 0x3a
	.uleb128 0xb
	.uleb128 0x3b
	.uleb128 0xb
	.uleb128 0x39
	.uleb128 0xb
	.uleb128 0x49
	.uleb128 0x13
	.byte	0
	.byte	0
	.uleb128 0x3d
	.uleb128 0x34
	.byte	0
	.uleb128 0x3
	.uleb128 0x8
	.uleb128 0x3a
	.uleb128 0xb
	.uleb128 0x3b
	.uleb128 0xb
	.uleb128 0x39
	.uleb128 0xb
	.uleb128 0x49
	.uleb128 0x13
	.byte	0
	.byte	0
	.uleb128 0x3e
	.uleb128 0x5
	.byte	0
	.uleb128 0x3
	.uleb128 0xe
	.uleb128 0x3a
	.uleb128 0xb
	.uleb128 0x3b
	.uleb128 0xb
	.uleb128 0x39
	.uleb128 0xb
	.uleb128 0x49
	.uleb128 0x13
	.byte	0
	.byte	0
	.uleb128 0x3f
	.uleb128 0x2e
	.byte	0x1
	.uleb128 0x31
	.uleb128 0x13
	.uleb128 0x11
	.uleb128 0x1
	.uleb128 0x12
	.uleb128 0x6
	.uleb128 0x40
	.uleb128 0x18
	.uleb128 0x2117
	.uleb128 0x19
	.uleb128 0x1
	.uleb128 0x13
	.byte	0
	.byte	0
	.uleb128 0x40
	.uleb128 0x5
	.byte	0
	.uleb128 0x31
	.uleb128 0x13
	.uleb128 0x2
	.uleb128 0x17
	.uleb128 0x2137
	.uleb128 0x17
	.byte	0
	.byte	0
	.uleb128 0x41
	.uleb128 0x5
	.byte	0
	.uleb128 0x31
	.uleb128 0x13
	.uleb128 0x2
	.uleb128 0x18
	.byte	0
	.byte	0
	.uleb128 0x42
	.uleb128 0x34
	.byte	0
	.uleb128 0x31
	.uleb128 0x13
	.uleb128 0x2
	.uleb128 0x17
	.uleb128 0x2137
	.uleb128 0x17
	.byte	0
	.byte	0
	.uleb128 0x43
	.uleb128 0x34
	.byte	0
	.uleb128 0x31
	.uleb128 0x13
	.uleb128 0x2
	.uleb128 0x18
	.byte	0
	.byte	0
	.uleb128 0x44
	.uleb128 0xa
	.byte	0
	.uleb128 0x31
	.uleb128 0x13
	.uleb128 0x11
	.uleb128 0x1
	.byte	0
	.byte	0
	.uleb128 0x45
	.uleb128 0xa
	.byte	0
	.uleb128 0x31
	.uleb128 0x13
	.byte	0
	.byte	0
	.uleb128 0x46
	.uleb128 0x1d
	.byte	0x1
	.uleb128 0x31
	.uleb128 0x13
	.uleb128 0x11
	.uleb128 0x1
	.uleb128 0x12
	.uleb128 0x6
	.uleb128 0x58
	.uleb128 0xb
	.uleb128 0x59
	.uleb128 0x5
	.uleb128 0x57
	.uleb128 0xb
	.uleb128 0x1
	.uleb128 0x13
	.byte	0
	.byte	0
	.uleb128 0x47
	.uleb128 0x5
	.byte	0
	.uleb128 0x31
	.uleb128 0x13
	.byte	0
	.byte	0
	.uleb128 0x48
	.uleb128 0x1d
	.byte	0x1
	.uleb128 0x31
	.uleb128 0x13
	.uleb128 0x52
	.uleb128 0x1
	.uleb128 0x2138
	.uleb128 0x5
	.uleb128 0x55
	.uleb128 0x17
	.uleb128 0x58
	.uleb128 0xb
	.uleb128 0x59
	.uleb128 0x5
	.uleb128 0x57
	.uleb128 0xb
	.uleb128 0x1
	.uleb128 0x13
	.byte	0
	.byte	0
	.uleb128 0x49
	.uleb128 0xb
	.byte	0x1
	.uleb128 0x55
	.uleb128 0x17
	.byte	0
	.byte	0
	.uleb128 0x4a
	.uleb128 0xb
	.byte	0x1
	.uleb128 0x31
	.uleb128 0x13
	.uleb128 0x55
	.uleb128 0x17
	.uleb128 0x1
	.uleb128 0x13
	.byte	0
	.byte	0
	.uleb128 0x4b
	.uleb128 0x34
	.byte	0
	.uleb128 0x31
	.uleb128 0x13
	.byte	0
	.byte	0
	.uleb128 0x4c
	.uleb128 0x2e
	.byte	0
	.uleb128 0x3f
	.uleb128 0x19
	.uleb128 0x3c
	.uleb128 0x19
	.uleb128 0x6e
	.uleb128 0xe
	.uleb128 0x3
	.uleb128 0xe
	.uleb128 0x3a
	.uleb128 0xb
	.uleb128 0x3b
	.uleb128 0xb
	.uleb128 0x39
	.uleb128 0xb
	.byte	0
	.byte	0
	.uleb128 0x4d
	.uleb128 0x2e
	.byte	0
	.uleb128 0x3f
	.uleb128 0x19
	.uleb128 0x3c
	.uleb128 0x19
	.uleb128 0x6e
	.uleb128 0xe
	.uleb128 0x3
	.uleb128 0xe
	.uleb128 0x3a
	.uleb128 0xb
	.uleb128 0x3b
	.uleb128 0x5
	.uleb128 0x39
	.uleb128 0xb
	.byte	0
	.byte	0
	.byte	0
	.section	.debug_loc,"",%progbits
.Ldebug_loc0:
.LVUS98:
	.uleb128 0
	.uleb128 .LVU1217
	.uleb128 .LVU1217
	.uleb128 0
.LLST98:
	.4byte	.LVL380
	.4byte	.LVL381
	.2byte	0x1
	.byte	0x50
	.4byte	.LVL381
	.4byte	.LFE46
	.2byte	0x4
	.byte	0xf3
	.uleb128 0x1
	.byte	0x50
	.byte	0x9f
	.4byte	0
	.4byte	0
.LVUS99:
	.uleb128 0
	.uleb128 .LVU1222
	.uleb128 .LVU1222
	.uleb128 .LVU1244
	.uleb128 .LVU1244
	.uleb128 .LVU1245
	.uleb128 .LVU1245
	.uleb128 0
.LLST99:
	.4byte	.LVL380
	.4byte	.LVL382-1
	.2byte	0x1
	.byte	0x51
	.4byte	.LVL382-1
	.4byte	.LVL387
	.2byte	0x1
	.byte	0x54
	.4byte	.LVL387
	.4byte	.LVL388
	.2byte	0x3
	.byte	0x74
	.sleb128 1
	.byte	0x9f
	.4byte	.LVL388
	.4byte	.LFE46
	.2byte	0x1
	.byte	0x54
	.4byte	0
	.4byte	0
.LVUS100:
	.uleb128 0
	.uleb128 .LVU1222
	.uleb128 .LVU1222
	.uleb128 .LVU1250
.LLST100:
	.4byte	.LVL380
	.4byte	.LVL382-1
	.2byte	0x1
	.byte	0x52
	.4byte	.LVL382-1
	.4byte	.LVL390
	.2byte	0x1
	.byte	0x55
	.4byte	0
	.4byte	0
.LVUS101:
	.uleb128 .LVU1224
	.uleb128 .LVU1232
	.uleb128 .LVU1232
	.uleb128 0
.LLST101:
	.4byte	.LVL383
	.4byte	.LVL384
	.2byte	0x1
	.byte	0x50
	.4byte	.LVL384
	.4byte	.LFE46
	.2byte	0x1
	.byte	0x56
	.4byte	0
	.4byte	0
.LVUS102:
	.uleb128 .LVU1240
	.uleb128 .LVU1243
	.uleb128 .LVU1243
	.uleb128 .LVU1247
	.uleb128 .LVU1247
	.uleb128 .LVU1248
	.uleb128 .LVU1248
	.uleb128 .LVU1250
.LLST102:
	.4byte	.LVL386
	.4byte	.LVL387
	.2byte	0x3
	.byte	0x70
	.sleb128 8
	.byte	0x9f
	.4byte	.LVL387
	.4byte	.LVL389
	.2byte	0x1
	.byte	0x53
	.4byte	.LVL389
	.4byte	.LVL389
	.2byte	0x3
	.byte	0x73
	.sleb128 -1
	.byte	0x9f
	.4byte	.LVL389
	.4byte	.LVL390
	.2byte	0x1
	.byte	0x53
	.4byte	0
	.4byte	0
.LVUS93:
	.uleb128 0
	.uleb128 .LVU1188
	.uleb128 .LVU1188
	.uleb128 .LVU1208
	.uleb128 .LVU1208
	.uleb128 .LVU1212
	.uleb128 .LVU1212
	.uleb128 0
.LLST93:
	.4byte	.LVL372
	.4byte	.LVL373
	.2byte	0x1
	.byte	0x50
	.4byte	.LVL373
	.4byte	.LVL378
	.2byte	0x4
	.byte	0xf3
	.uleb128 0x1
	.byte	0x50
	.byte	0x9f
	.4byte	.LVL378
	.4byte	.LVL379
	.2byte	0x1
	.byte	0x50
	.4byte	.LVL379
	.4byte	.LFE33
	.2byte	0x2
	.byte	0x91
	.sleb128 -64
	.4byte	0
	.4byte	0
.LVUS94:
	.uleb128 0
	.uleb128 .LVU1188
	.uleb128 .LVU1188
	.uleb128 .LVU1199
	.uleb128 .LVU1199
	.uleb128 .LVU1200
	.uleb128 .LVU1200
	.uleb128 .LVU1208
	.uleb128 .LVU1208
	.uleb128 0
.LLST94:
	.4byte	.LVL372
	.4byte	.LVL373
	.2byte	0x1
	.byte	0x51
	.4byte	.LVL373
	.4byte	.LVL374
	.2byte	0x1
	.byte	0x56
	.4byte	.LVL374
	.4byte	.LVL375
	.2byte	0x3
	.byte	0x76
	.sleb128 -1
	.byte	0x9f
	.4byte	.LVL375
	.4byte	.LVL378
	.2byte	0x1
	.byte	0x56
	.4byte	.LVL378
	.4byte	.LFE33
	.2byte	0x1
	.byte	0x51
	.4byte	0
	.4byte	0
.LVUS95:
	.uleb128 0
	.uleb128 .LVU1188
	.uleb128 .LVU1188
	.uleb128 .LVU1208
	.uleb128 .LVU1208
	.uleb128 0
.LLST95:
	.4byte	.LVL372
	.4byte	.LVL373
	.2byte	0x1
	.byte	0x52
	.4byte	.LVL373
	.4byte	.LVL378
	.2byte	0x4
	.byte	0xf3
	.uleb128 0x1
	.byte	0x52
	.byte	0x9f
	.4byte	.LVL378
	.4byte	.LFE33
	.2byte	0x1
	.byte	0x52
	.4byte	0
	.4byte	0
.LVUS96:
	.uleb128 0
	.uleb128 .LVU1188
	.uleb128 .LVU1188
	.uleb128 .LVU1208
	.uleb128 .LVU1208
	.uleb128 0
.LLST96:
	.4byte	.LVL372
	.4byte	.LVL373
	.2byte	0x1
	.byte	0x53
	.4byte	.LVL373
	.4byte	.LVL378
	.2byte	0x4
	.byte	0xf3
	.uleb128 0x1
	.byte	0x53
	.byte	0x9f
	.4byte	.LVL378
	.4byte	.LFE33
	.2byte	0x1
	.byte	0x53
	.4byte	0
	.4byte	0
.LVUS97:
	.uleb128 .LVU1169
	.uleb128 .LVU1198
	.uleb128 .LVU1198
	.uleb128 .LVU1202
	.uleb128 .LVU1202
	.uleb128 .LVU1208
	.uleb128 .LVU1208
	.uleb128 0
.LLST97:
	.4byte	.LVL372
	.4byte	.LVL374
	.2byte	0x2
	.byte	0x30
	.byte	0x9f
	.4byte	.LVL374
	.4byte	.LVL376
	.2byte	0x1
	.byte	0x50
	.4byte	.LVL376
	.4byte	.LVL378
	.2byte	0x1
	.byte	0x54
	.4byte	.LVL378
	.4byte	.LFE33
	.2byte	0x2
	.byte	0x30
	.byte	0x9f
	.4byte	0
	.4byte	0
.LVUS88:
	.uleb128 0
	.uleb128 .LVU1138
	.uleb128 .LVU1138
	.uleb128 0
.LLST88:
	.4byte	.LVL362
	.4byte	.LVL363
	.2byte	0x1
	.byte	0x50
	.4byte	.LVL363
	.4byte	.LFE32
	.2byte	0x1
	.byte	0x56
	.4byte	0
	.4byte	0
.LVUS89:
	.uleb128 0
	.uleb128 .LVU1138
	.uleb128 .LVU1138
	.uleb128 0
.LLST89:
	.4byte	.LVL362
	.4byte	.LVL363
	.2byte	0x1
	.byte	0x51
	.4byte	.LVL363
	.4byte	.LFE32
	.2byte	0x1
	.byte	0x58
	.4byte	0
	.4byte	0
.LVUS90:
	.uleb128 0
	.uleb128 .LVU1138
	.uleb128 .LVU1138
	.uleb128 0
.LLST90:
	.4byte	.LVL362
	.4byte	.LVL363
	.2byte	0x1
	.byte	0x52
	.4byte	.LVL363
	.4byte	.LFE32
	.2byte	0x1
	.byte	0x57
	.4byte	0
	.4byte	0
.LVUS91:
	.uleb128 0
	.uleb128 .LVU1138
	.uleb128 .LVU1138
	.uleb128 0
.LLST91:
	.4byte	.LVL362
	.4byte	.LVL363
	.2byte	0x1
	.byte	0x53
	.4byte	.LVL363
	.4byte	.LFE32
	.2byte	0x4
	.byte	0xf3
	.uleb128 0x1
	.byte	0x53
	.byte	0x9f
	.4byte	0
	.4byte	0
.LVUS92:
	.uleb128 .LVU1116
	.uleb128 .LVU1138
	.uleb128 .LVU1144
	.uleb128 .LVU1145
	.uleb128 .LVU1157
	.uleb128 .LVU1160
	.uleb128 .LVU1160
	.uleb128 .LVU1162
.LLST92:
	.4byte	.LVL362
	.4byte	.LVL363
	.2byte	0x2
	.byte	0x30
	.byte	0x9f
	.4byte	.LVL364
	.4byte	.LVL365
	.2byte	0x1
	.byte	0x50
	.4byte	.LVL367
	.4byte	.LVL368
	.2byte	0x1
	.byte	0x50
	.4byte	.LVL368
	.4byte	.LVL370
	.2byte	0x1
	.byte	0x54
	.4byte	0
	.4byte	0
.LVUS83:
	.uleb128 0
	.uleb128 .LVU1082
	.uleb128 .LVU1082
	.uleb128 .LVU1089
	.uleb128 .LVU1089
	.uleb128 .LVU1111
	.uleb128 .LVU1111
	.uleb128 .LVU1112
	.uleb128 .LVU1112
	.uleb128 0
.LLST83:
	.4byte	.LVL352
	.4byte	.LVL353
	.2byte	0x1
	.byte	0x50
	.4byte	.LVL353
	.4byte	.LVL354
	.2byte	0x1
	.byte	0x54
	.4byte	.LVL354
	.4byte	.LVL359
	.2byte	0x4
	.byte	0xf3
	.uleb128 0x1
	.byte	0x50
	.byte	0x9f
	.4byte	.LVL359
	.4byte	.LVL360
	.2byte	0x1
	.byte	0x50
	.4byte	.LVL360
	.4byte	.LFE31
	.2byte	0x1
	.byte	0x54
	.4byte	0
	.4byte	0
.LVUS84:
	.uleb128 0
	.uleb128 .LVU1082
	.uleb128 .LVU1082
	.uleb128 .LVU1111
	.uleb128 .LVU1111
	.uleb128 .LVU1113
	.uleb128 .LVU1113
	.uleb128 0
.LLST84:
	.4byte	.LVL352
	.4byte	.LVL353
	.2byte	0x1
	.byte	0x51
	.4byte	.LVL353
	.4byte	.LVL359
	.2byte	0x1
	.byte	0x56
	.4byte	.LVL359
	.4byte	.LVL361-1
	.2byte	0x1
	.byte	0x51
	.4byte	.LVL361-1
	.4byte	.LFE31
	.2byte	0x1
	.byte	0x56
	.4byte	0
	.4byte	0
.LVUS85:
	.uleb128 0
	.uleb128 .LVU1082
	.uleb128 .LVU1082
	.uleb128 .LVU1111
	.uleb128 .LVU1111
	.uleb128 .LVU1113
	.uleb128 .LVU1113
	.uleb128 0
.LLST85:
	.4byte	.LVL352
	.4byte	.LVL353
	.2byte	0x1
	.byte	0x52
	.4byte	.LVL353
	.4byte	.LVL359
	.2byte	0x4
	.byte	0xf3
	.uleb128 0x1
	.byte	0x52
	.byte	0x9f
	.4byte	.LVL359
	.4byte	.LVL361-1
	.2byte	0x1
	.byte	0x52
	.4byte	.LVL361-1
	.4byte	.LFE31
	.2byte	0x4
	.byte	0xf3
	.uleb128 0x1
	.byte	0x52
	.byte	0x9f
	.4byte	0
	.4byte	0
.LVUS86:
	.uleb128 0
	.uleb128 .LVU1082
	.uleb128 .LVU1082
	.uleb128 .LVU1111
	.uleb128 .LVU1111
	.uleb128 .LVU1113
	.uleb128 .LVU1113
	.uleb128 0
.LLST86:
	.4byte	.LVL352
	.4byte	.LVL353
	.2byte	0x1
	.byte	0x53
	.4byte	.LVL353
	.4byte	.LVL359
	.2byte	0x4
	.byte	0xf3
	.uleb128 0x1
	.byte	0x53
	.byte	0x9f
	.4byte	.LVL359
	.4byte	.LVL361-1
	.2byte	0x1
	.byte	0x53
	.4byte	.LVL361-1
	.4byte	.LFE31
	.2byte	0x4
	.byte	0xf3
	.uleb128 0x1
	.byte	0x53
	.byte	0x9f
	.4byte	0
	.4byte	0
.LVUS87:
	.uleb128 .LVU1076
	.uleb128 .LVU1089
	.uleb128 .LVU1101
	.uleb128 .LVU1107
	.uleb128 .LVU1107
	.uleb128 .LVU1111
	.uleb128 .LVU1111
	.uleb128 0
.LLST87:
	.4byte	.LVL352
	.4byte	.LVL354
	.2byte	0x2
	.byte	0x30
	.byte	0x9f
	.4byte	.LVL355
	.4byte	.LVL357
	.2byte	0x1
	.byte	0x50
	.4byte	.LVL357
	.4byte	.LVL359
	.2byte	0x1
	.byte	0x54
	.4byte	.LVL359
	.4byte	.LFE31
	.2byte	0x2
	.byte	0x30
	.byte	0x9f
	.4byte	0
	.4byte	0
.LVUS78:
	.uleb128 0
	.uleb128 .LVU1061
	.uleb128 .LVU1061
	.uleb128 0
.LLST78:
	.4byte	.LVL348
	.4byte	.LVL349
	.2byte	0x1
	.byte	0x50
	.4byte	.LVL349
	.4byte	.LFE30
	.2byte	0x1
	.byte	0x57
	.4byte	0
	.4byte	0
.LVUS79:
	.uleb128 0
	.uleb128 .LVU1061
	.uleb128 .LVU1061
	.uleb128 0
.LLST79:
	.4byte	.LVL348
	.4byte	.LVL349
	.2byte	0x1
	.byte	0x51
	.4byte	.LVL349
	.4byte	.LFE30
	.2byte	0x1
	.byte	0x56
	.4byte	0
	.4byte	0
.LVUS80:
	.uleb128 0
	.uleb128 .LVU1061
	.uleb128 .LVU1061
	.uleb128 0
.LLST80:
	.4byte	.LVL348
	.4byte	.LVL349
	.2byte	0x1
	.byte	0x52
	.4byte	.LVL349
	.4byte	.LFE30
	.2byte	0x1
	.byte	0x55
	.4byte	0
	.4byte	0
.LVUS81:
	.uleb128 0
	.uleb128 .LVU1061
	.uleb128 .LVU1061
	.uleb128 0
.LLST81:
	.4byte	.LVL348
	.4byte	.LVL349
	.2byte	0x1
	.byte	0x53
	.4byte	.LVL349
	.4byte	.LFE30
	.2byte	0x4
	.byte	0xf3
	.uleb128 0x1
	.byte	0x53
	.byte	0x9f
	.4byte	0
	.4byte	0
.LVUS82:
	.uleb128 .LVU1067
	.uleb128 0
.LLST82:
	.4byte	.LVL351
	.4byte	.LFE30
	.2byte	0x1
	.byte	0x50
	.4byte	0
	.4byte	0
.LVUS73:
	.uleb128 0
	.uleb128 .LVU1042
	.uleb128 .LVU1042
	.uleb128 .LVU1056
	.uleb128 .LVU1056
	.uleb128 0
.LLST73:
	.4byte	.LVL343
	.4byte	.LVL344
	.2byte	0x1
	.byte	0x50
	.4byte	.LVL344
	.4byte	.LVL347
	.2byte	0x1
	.byte	0x56
	.4byte	.LVL347
	.4byte	.LFE29
	.2byte	0x4
	.byte	0xf3
	.uleb128 0x1
	.byte	0x50
	.byte	0x9f
	.4byte	0
	.4byte	0
.LVUS74:
	.uleb128 0
	.uleb128 .LVU1047
	.uleb128 .LVU1047
	.uleb128 .LVU1056
	.uleb128 .LVU1056
	.uleb128 0
.LLST74:
	.4byte	.LVL343
	.4byte	.LVL345-1
	.2byte	0x1
	.byte	0x51
	.4byte	.LVL345-1
	.4byte	.LVL347
	.2byte	0x1
	.byte	0x55
	.4byte	.LVL347
	.4byte	.LFE29
	.2byte	0x4
	.byte	0xf3
	.uleb128 0x1
	.byte	0x51
	.byte	0x9f
	.4byte	0
	.4byte	0
.LVUS75:
	.uleb128 0
	.uleb128 .LVU1047
	.uleb128 .LVU1047
	.uleb128 0
.LLST75:
	.4byte	.LVL343
	.4byte	.LVL345-1
	.2byte	0x1
	.byte	0x52
	.4byte	.LVL345-1
	.4byte	.LFE29
	.2byte	0x4
	.byte	0xf3
	.uleb128 0x1
	.byte	0x52
	.byte	0x9f
	.4byte	0
	.4byte	0
.LVUS76:
	.uleb128 0
	.uleb128 .LVU1047
	.uleb128 .LVU1047
	.uleb128 0
.LLST76:
	.4byte	.LVL343
	.4byte	.LVL345-1
	.2byte	0x1
	.byte	0x53
	.4byte	.LVL345-1
	.4byte	.LFE29
	.2byte	0x4
	.byte	0xf3
	.uleb128 0x1
	.byte	0x53
	.byte	0x9f
	.4byte	0
	.4byte	0
.LVUS77:
	.uleb128 .LVU1051
	.uleb128 0
.LLST77:
	.4byte	.LVL346
	.4byte	.LFE29
	.2byte	0x1
	.byte	0x50
	.4byte	0
	.4byte	0
.LVUS0:
	.uleb128 0
	.uleb128 .LVU24
	.uleb128 .LVU24
	.uleb128 .LVU151
	.uleb128 .LVU151
	.uleb128 .LVU154
	.uleb128 .LVU154
	.uleb128 .LVU174
	.uleb128 .LVU174
	.uleb128 .LVU177
	.uleb128 .LVU177
	.uleb128 .LVU303
	.uleb128 .LVU303
	.uleb128 .LVU310
	.uleb128 .LVU310
	.uleb128 .LVU402
	.uleb128 .LVU402
	.uleb128 .LVU411
	.uleb128 .LVU411
	.uleb128 .LVU569
	.uleb128 .LVU569
	.uleb128 .LVU591
	.uleb128 .LVU591
	.uleb128 .LVU859
	.uleb128 .LVU859
	.uleb128 .LVU878
	.uleb128 .LVU878
	.uleb128 .LVU900
	.uleb128 .LVU900
	.uleb128 .LVU942
	.uleb128 .LVU942
	.uleb128 .LVU955
	.uleb128 .LVU955
	.uleb128 .LVU967
	.uleb128 .LVU967
	.uleb128 .LVU1028
	.uleb128 .LVU1028
	.uleb128 .LVU1033
	.uleb128 .LVU1033
	.uleb128 .LVU1035
	.uleb128 .LVU1035
	.uleb128 0
.LLST0:
	.4byte	.LVL0
	.4byte	.LVL5
	.2byte	0x1
	.byte	0x50
	.4byte	.LVL5
	.4byte	.LVL44
	.2byte	0x1
	.byte	0x56
	.4byte	.LVL44
	.4byte	.LVL46
	.2byte	0x4
	.byte	0xf3
	.uleb128 0x1
	.byte	0x50
	.byte	0x9f
	.4byte	.LVL46
	.4byte	.LVL55
	.2byte	0x1
	.byte	0x56
	.4byte	.LVL55
	.4byte	.LVL57
	.2byte	0x4
	.byte	0xf3
	.uleb128 0x1
	.byte	0x50
	.byte	0x9f
	.4byte	.LVL57
	.4byte	.LVL96
	.2byte	0x1
	.byte	0x56
	.4byte	.LVL96
	.4byte	.LVL97
	.2byte	0x4
	.byte	0xf3
	.uleb128 0x1
	.byte	0x50
	.byte	0x9f
	.4byte	.LVL97
	.4byte	.LVL126
	.2byte	0x1
	.byte	0x56
	.4byte	.LVL126
	.4byte	.LVL131
	.2byte	0x4
	.byte	0xf3
	.uleb128 0x1
	.byte	0x50
	.byte	0x9f
	.4byte	.LVL131
	.4byte	.LVL177
	.2byte	0x1
	.byte	0x56
	.4byte	.LVL177
	.4byte	.LVL187
	.2byte	0x4
	.byte	0xf3
	.uleb128 0x1
	.byte	0x50
	.byte	0x9f
	.4byte	.LVL187
	.4byte	.LVL287
	.2byte	0x1
	.byte	0x56
	.4byte	.LVL287
	.4byte	.LVL295
	.2byte	0x3
	.byte	0x91
	.sleb128 -164
	.4byte	.LVL295
	.4byte	.LVL298
	.2byte	0x1
	.byte	0x56
	.4byte	.LVL298
	.4byte	.LVL311
	.2byte	0x4
	.byte	0xf3
	.uleb128 0x1
	.byte	0x50
	.byte	0x9f
	.4byte	.LVL311
	.4byte	.LVL314
	.2byte	0x3
	.byte	0x91
	.sleb128 -164
	.4byte	.LVL314
	.4byte	.LVL317
	.2byte	0x4
	.byte	0xf3
	.uleb128 0x1
	.byte	0x50
	.byte	0x9f
	.4byte	.LVL317
	.4byte	.LVL337
	.2byte	0x1
	.byte	0x56
	.4byte	.LVL337
	.4byte	.LVL339
	.2byte	0x4
	.byte	0xf3
	.uleb128 0x1
	.byte	0x50
	.byte	0x9f
	.4byte	.LVL339
	.4byte	.LVL341
	.2byte	0x3
	.byte	0x91
	.sleb128 -164
	.4byte	.LVL341
	.4byte	.LFE50
	.2byte	0x1
	.byte	0x56
	.4byte	0
	.4byte	0
.LVUS1:
	.uleb128 0
	.uleb128 .LVU25
	.uleb128 .LVU25
	.uleb128 .LVU153
	.uleb128 .LVU153
	.uleb128 .LVU154
	.uleb128 .LVU154
	.uleb128 .LVU303
	.uleb128 .LVU303
	.uleb128 .LVU310
	.uleb128 .LVU310
	.uleb128 .LVU402
	.uleb128 .LVU402
	.uleb128 .LVU411
	.uleb128 .LVU411
	.uleb128 .LVU539
	.uleb128 .LVU539
	.uleb128 .LVU543
	.uleb128 .LVU543
	.uleb128 .LVU591
	.uleb128 .LVU591
	.uleb128 .LVU635
	.uleb128 .LVU635
	.uleb128 .LVU648
	.uleb128 .LVU648
	.uleb128 .LVU673
	.uleb128 .LVU673
	.uleb128 .LVU694
	.uleb128 .LVU694
	.uleb128 .LVU712
	.uleb128 .LVU712
	.uleb128 .LVU811
	.uleb128 .LVU811
	.uleb128 .LVU812
	.uleb128 .LVU812
	.uleb128 .LVU817
	.uleb128 .LVU817
	.uleb128 .LVU826
	.uleb128 .LVU826
	.uleb128 .LVU849
	.uleb128 .LVU849
	.uleb128 .LVU878
	.uleb128 .LVU878
	.uleb128 .LVU892
	.uleb128 .LVU892
	.uleb128 .LVU967
	.uleb128 .LVU967
	.uleb128 .LVU1028
	.uleb128 .LVU1028
	.uleb128 .LVU1035
	.uleb128 .LVU1035
	.uleb128 0
.LLST1:
	.4byte	.LVL0
	.4byte	.LVL6-1
	.2byte	0x1
	.byte	0x51
	.4byte	.LVL6-1
	.4byte	.LVL45
	.2byte	0x3
	.byte	0x91
	.sleb128 -188
	.4byte	.LVL45
	.4byte	.LVL46
	.2byte	0x4
	.byte	0xf3
	.uleb128 0x1
	.byte	0x51
	.byte	0x9f
	.4byte	.LVL46
	.4byte	.LVL96
	.2byte	0x3
	.byte	0x91
	.sleb128 -188
	.4byte	.LVL96
	.4byte	.LVL97
	.2byte	0x4
	.byte	0xf3
	.uleb128 0x1
	.byte	0x51
	.byte	0x9f
	.4byte	.LVL97
	.4byte	.LVL126
	.2byte	0x3
	.byte	0x91
	.sleb128 -188
	.4byte	.LVL126
	.4byte	.LVL131
	.2byte	0x4
	.byte	0xf3
	.uleb128 0x1
	.byte	0x51
	.byte	0x9f
	.4byte	.LVL131
	.4byte	.LVL169
	.2byte	0x3
	.byte	0x91
	.sleb128 -188
	.4byte	.LVL169
	.4byte	.LVL172
	.2byte	0x4
	.byte	0xf3
	.uleb128 0x1
	.byte	0x51
	.byte	0x9f
	.4byte	.LVL172
	.4byte	.LVL187
	.2byte	0x3
	.byte	0x91
	.sleb128 -188
	.4byte	.LVL187
	.4byte	.LVL198
	.2byte	0x4
	.byte	0xf3
	.uleb128 0x1
	.byte	0x51
	.byte	0x9f
	.4byte	.LVL198
	.4byte	.LVL204
	.2byte	0x3
	.byte	0x91
	.sleb128 -188
	.4byte	.LVL204
	.4byte	.LVL213
	.2byte	0x4
	.byte	0xf3
	.uleb128 0x1
	.byte	0x51
	.byte	0x9f
	.4byte	.LVL213
	.4byte	.LVL219
	.2byte	0x3
	.byte	0x91
	.sleb128 -188
	.4byte	.LVL219
	.4byte	.LVL230
	.2byte	0x4
	.byte	0xf3
	.uleb128 0x1
	.byte	0x51
	.byte	0x9f
	.4byte	.LVL230
	.4byte	.LVL273
	.2byte	0x3
	.byte	0x91
	.sleb128 -188
	.4byte	.LVL273
	.4byte	.LVL274
	.2byte	0x4
	.byte	0xf3
	.uleb128 0x1
	.byte	0x51
	.byte	0x9f
	.4byte	.LVL274
	.4byte	.LVL278
	.2byte	0x3
	.byte	0x91
	.sleb128 -188
	.4byte	.LVL278
	.4byte	.LVL282
	.2byte	0x4
	.byte	0xf3
	.uleb128 0x1
	.byte	0x51
	.byte	0x9f
	.4byte	.LVL282
	.4byte	.LVL284
	.2byte	0x3
	.byte	0x91
	.sleb128 -188
	.4byte	.LVL284
	.4byte	.LVL295
	.2byte	0x4
	.byte	0xf3
	.uleb128 0x1
	.byte	0x51
	.byte	0x9f
	.4byte	.LVL295
	.4byte	.LVL297
	.2byte	0x3
	.byte	0x91
	.sleb128 -188
	.4byte	.LVL297
	.4byte	.LVL317
	.2byte	0x4
	.byte	0xf3
	.uleb128 0x1
	.byte	0x51
	.byte	0x9f
	.4byte	.LVL317
	.4byte	.LVL337
	.2byte	0x3
	.byte	0x91
	.sleb128 -188
	.4byte	.LVL337
	.4byte	.LVL341
	.2byte	0x4
	.byte	0xf3
	.uleb128 0x1
	.byte	0x51
	.byte	0x9f
	.4byte	.LVL341
	.4byte	.LFE50
	.2byte	0x3
	.byte	0x91
	.sleb128 -188
	.4byte	0
	.4byte	0
.LVUS2:
	.uleb128 0
	.uleb128 .LVU16
	.uleb128 .LVU16
	.uleb128 .LVU153
	.uleb128 .LVU153
	.uleb128 .LVU154
	.uleb128 .LVU154
	.uleb128 .LVU176
	.uleb128 .LVU176
	.uleb128 .LVU177
	.uleb128 .LVU177
	.uleb128 .LVU257
	.uleb128 .LVU257
	.uleb128 .LVU310
	.uleb128 .LVU310
	.uleb128 .LVU373
	.uleb128 .LVU373
	.uleb128 .LVU411
	.uleb128 .LVU411
	.uleb128 .LVU425
	.uleb128 .LVU425
	.uleb128 .LVU442
	.uleb128 .LVU442
	.uleb128 .LVU463
	.uleb128 .LVU463
	.uleb128 .LVU508
	.uleb128 .LVU508
	.uleb128 .LVU526
	.uleb128 .LVU526
	.uleb128 .LVU530
	.uleb128 .LVU530
	.uleb128 .LVU539
	.uleb128 .LVU539
	.uleb128 .LVU543
	.uleb128 .LVU543
	.uleb128 .LVU569
	.uleb128 .LVU569
	.uleb128 .LVU571
	.uleb128 .LVU571
	.uleb128 .LVU587
	.uleb128 .LVU587
	.uleb128 .LVU591
	.uleb128 .LVU591
	.uleb128 .LVU635
	.uleb128 .LVU635
	.uleb128 .LVU647
	.uleb128 .LVU647
	.uleb128 .LVU673
	.uleb128 .LVU673
	.uleb128 .LVU675
	.uleb128 .LVU675
	.uleb128 .LVU712
	.uleb128 .LVU712
	.uleb128 .LVU720
	.uleb128 .LVU720
	.uleb128 .LVU721
	.uleb128 .LVU721
	.uleb128 .LVU729
	.uleb128 .LVU729
	.uleb128 .LVU730
	.uleb128 .LVU730
	.uleb128 .LVU750
	.uleb128 .LVU750
	.uleb128 .LVU757
	.uleb128 .LVU757
	.uleb128 .LVU809
	.uleb128 .LVU809
	.uleb128 .LVU810
	.uleb128 .LVU810
	.uleb128 .LVU992
	.uleb128 .LVU992
	.uleb128 .LVU1003
	.uleb128 .LVU1003
	.uleb128 0
.LLST2:
	.4byte	.LVL0
	.4byte	.LVL2
	.2byte	0x1
	.byte	0x52
	.4byte	.LVL2
	.4byte	.LVL45
	.2byte	0x1
	.byte	0x57
	.4byte	.LVL45
	.4byte	.LVL46
	.2byte	0x4
	.byte	0xf3
	.uleb128 0x1
	.byte	0x52
	.byte	0x9f
	.4byte	.LVL46
	.4byte	.LVL56
	.2byte	0x1
	.byte	0x57
	.4byte	.LVL56
	.4byte	.LVL57
	.2byte	0x4
	.byte	0xf3
	.uleb128 0x1
	.byte	0x52
	.byte	0x9f
	.4byte	.LVL57
	.4byte	.LVL85
	.2byte	0x1
	.byte	0x57
	.4byte	.LVL85
	.4byte	.LVL97
	.2byte	0x4
	.byte	0xf3
	.uleb128 0x1
	.byte	0x52
	.byte	0x9f
	.4byte	.LVL97
	.4byte	.LVL119
	.2byte	0x1
	.byte	0x57
	.4byte	.LVL119
	.4byte	.LVL131
	.2byte	0x4
	.byte	0xf3
	.uleb128 0x1
	.byte	0x52
	.byte	0x9f
	.4byte	.LVL131
	.4byte	.LVL135
	.2byte	0x1
	.byte	0x57
	.4byte	.LVL135
	.4byte	.LVL143
	.2byte	0x4
	.byte	0xf3
	.uleb128 0x1
	.byte	0x52
	.byte	0x9f
	.4byte	.LVL143
	.4byte	.LVL147
	.2byte	0x1
	.byte	0x57
	.4byte	.LVL147
	.4byte	.LVL161
	.2byte	0x4
	.byte	0xf3
	.uleb128 0x1
	.byte	0x52
	.byte	0x9f
	.4byte	.LVL161
	.4byte	.LVL162
	.2byte	0x1
	.byte	0x57
	.4byte	.LVL162
	.4byte	.LVL164
	.2byte	0x4
	.byte	0xf3
	.uleb128 0x1
	.byte	0x52
	.byte	0x9f
	.4byte	.LVL164
	.4byte	.LVL169
	.2byte	0x1
	.byte	0x57
	.4byte	.LVL169
	.4byte	.LVL172
	.2byte	0x4
	.byte	0xf3
	.uleb128 0x1
	.byte	0x52
	.byte	0x9f
	.4byte	.LVL172
	.4byte	.LVL177
	.2byte	0x1
	.byte	0x57
	.4byte	.LVL177
	.4byte	.LVL179-1
	.2byte	0x1
	.byte	0x51
	.4byte	.LVL179-1
	.4byte	.LVL184
	.2byte	0x1
	.byte	0x57
	.4byte	.LVL184
	.4byte	.LVL187
	.2byte	0x1
	.byte	0x51
	.4byte	.LVL187
	.4byte	.LVL198
	.2byte	0x4
	.byte	0xf3
	.uleb128 0x1
	.byte	0x52
	.byte	0x9f
	.4byte	.LVL198
	.4byte	.LVL203
	.2byte	0x1
	.byte	0x57
	.4byte	.LVL203
	.4byte	.LVL213
	.2byte	0x4
	.byte	0xf3
	.uleb128 0x1
	.byte	0x52
	.byte	0x9f
	.4byte	.LVL213
	.4byte	.LVL215
	.2byte	0x1
	.byte	0x57
	.4byte	.LVL215
	.4byte	.LVL230
	.2byte	0x4
	.byte	0xf3
	.uleb128 0x1
	.byte	0x52
	.byte	0x9f
	.4byte	.LVL230
	.4byte	.LVL235
	.2byte	0x1
	.byte	0x57
	.4byte	.LVL235
	.4byte	.LVL236-1
	.2byte	0x1
	.byte	0x51
	.4byte	.LVL236-1
	.4byte	.LVL240
	.2byte	0x1
	.byte	0x57
	.4byte	.LVL240
	.4byte	.LVL241
	.2byte	0x1
	.byte	0x51
	.4byte	.LVL241
	.4byte	.LVL251
	.2byte	0x4
	.byte	0xf3
	.uleb128 0x1
	.byte	0x52
	.byte	0x9f
	.4byte	.LVL251
	.4byte	.LVL254
	.2byte	0x1
	.byte	0x57
	.4byte	.LVL254
	.4byte	.LVL270
	.2byte	0x4
	.byte	0xf3
	.uleb128 0x1
	.byte	0x52
	.byte	0x9f
	.4byte	.LVL270
	.4byte	.LVL271
	.2byte	0x1
	.byte	0x57
	.4byte	.LVL271
	.4byte	.LVL328
	.2byte	0x4
	.byte	0xf3
	.uleb128 0x1
	.byte	0x52
	.byte	0x9f
	.4byte	.LVL328
	.4byte	.LVL331
	.2byte	0x1
	.byte	0x57
	.4byte	.LVL331
	.4byte	.LFE50
	.2byte	0x4
	.byte	0xf3
	.uleb128 0x1
	.byte	0x52
	.byte	0x9f
	.4byte	0
	.4byte	0
.LVUS3:
	.uleb128 0
	.uleb128 .LVU17
	.uleb128 .LVU17
	.uleb128 .LVU50
	.uleb128 .LVU50
	.uleb128 .LVU86
	.uleb128 .LVU86
	.uleb128 .LVU106
	.uleb128 .LVU106
	.uleb128 0
.LLST3:
	.4byte	.LVL0
	.4byte	.LVL3
	.2byte	0x1
	.byte	0x53
	.4byte	.LVL3
	.4byte	.LVL14
	.2byte	0x1
	.byte	0x58
	.4byte	.LVL14
	.4byte	.LVL27
	.2byte	0x4
	.byte	0xf3
	.uleb128 0x1
	.byte	0x53
	.byte	0x9f
	.4byte	.LVL27
	.4byte	.LVL32
	.2byte	0x1
	.byte	0x58
	.4byte	.LVL32
	.4byte	.LFE50
	.2byte	0x4
	.byte	0xf3
	.uleb128 0x1
	.byte	0x53
	.byte	0x9f
	.4byte	0
	.4byte	0
.LVUS4:
	.uleb128 .LVU2
	.uleb128 .LVU81
	.uleb128 .LVU81
	.uleb128 .LVU86
	.uleb128 .LVU86
	.uleb128 .LVU98
	.uleb128 .LVU98
	.uleb128 .LVU103
	.uleb128 .LVU103
	.uleb128 .LVU147
	.uleb128 .LVU147
	.uleb128 .LVU150
	.uleb128 .LVU150
	.uleb128 .LVU151
	.uleb128 .LVU154
	.uleb128 .LVU171
	.uleb128 .LVU171
	.uleb128 .LVU176
	.uleb128 .LVU177
	.uleb128 .LVU200
	.uleb128 .LVU200
	.uleb128 .LVU205
	.uleb128 .LVU205
	.uleb128 .LVU215
	.uleb128 .LVU215
	.uleb128 .LVU224
	.uleb128 .LVU224
	.uleb128 .LVU229
	.uleb128 .LVU229
	.uleb128 .LVU233
	.uleb128 .LVU233
	.uleb128 .LVU240
	.uleb128 .LVU240
	.uleb128 .LVU293
	.uleb128 .LVU293
	.uleb128 .LVU296
	.uleb128 .LVU302
	.uleb128 .LVU303
	.uleb128 .LVU304
	.uleb128 .LVU337
	.uleb128 .LVU337
	.uleb128 .LVU341
	.uleb128 .LVU341
	.uleb128 .LVU346
	.uleb128 .LVU346
	.uleb128 .LVU350
	.uleb128 .LVU350
	.uleb128 .LVU357
	.uleb128 .LVU357
	.uleb128 .LVU361
	.uleb128 .LVU361
	.uleb128 .LVU404
	.uleb128 .LVU404
	.uleb128 .LVU408
	.uleb128 .LVU410
	.uleb128 .LVU411
	.uleb128 .LVU411
	.uleb128 .LVU526
	.uleb128 .LVU526
	.uleb128 .LVU529
	.uleb128 .LVU530
	.uleb128 .LVU535
	.uleb128 .LVU535
	.uleb128 .LVU539
	.uleb128 .LVU541
	.uleb128 .LVU543
	.uleb128 .LVU543
	.uleb128 .LVU553
	.uleb128 .LVU553
	.uleb128 .LVU558
	.uleb128 .LVU558
	.uleb128 .LVU569
	.uleb128 .LVU589
	.uleb128 .LVU591
	.uleb128 .LVU591
	.uleb128 .LVU632
	.uleb128 .LVU632
	.uleb128 .LVU635
	.uleb128 .LVU635
	.uleb128 .LVU715
	.uleb128 .LVU715
	.uleb128 .LVU717
	.uleb128 .LVU730
	.uleb128 .LVU777
	.uleb128 .LVU777
	.uleb128 .LVU781
	.uleb128 .LVU781
	.uleb128 .LVU800
	.uleb128 .LVU800
	.uleb128 .LVU809
	.uleb128 .LVU809
	.uleb128 .LVU822
	.uleb128 .LVU822
	.uleb128 .LVU826
	.uleb128 .LVU826
	.uleb128 .LVU988
	.uleb128 .LVU988
	.uleb128 .LVU992
	.uleb128 .LVU992
	.uleb128 .LVU999
	.uleb128 .LVU999
	.uleb128 .LVU1003
	.uleb128 .LVU1003
	.uleb128 0
.LLST4:
	.4byte	.LVL0
	.4byte	.LVL26
	.2byte	0x2
	.byte	0x30
	.byte	0x9f
	.4byte	.LVL26
	.4byte	.LVL27
	.2byte	0x6
	.byte	0xc
	.4byte	0x200000e
	.byte	0x9f
	.4byte	.LVL27
	.4byte	.LVL30
	.2byte	0x2
	.byte	0x30
	.byte	0x9f
	.4byte	.LVL30
	.4byte	.LVL31
	.2byte	0x6
	.byte	0xc
	.4byte	0x200000e
	.byte	0x9f
	.4byte	.LVL31
	.4byte	.LVL42
	.2byte	0x2
	.byte	0x30
	.byte	0x9f
	.4byte	.LVL42
	.4byte	.LVL43
	.2byte	0x2
	.byte	0x32
	.byte	0x9f
	.4byte	.LVL43
	.4byte	.LVL44
	.2byte	0x2
	.byte	0x30
	.byte	0x9f
	.4byte	.LVL46
	.4byte	.LVL54
	.2byte	0x2
	.byte	0x30
	.byte	0x9f
	.4byte	.LVL54
	.4byte	.LVL56
	.2byte	0x1
	.byte	0x50
	.4byte	.LVL57
	.4byte	.LVL63
	.2byte	0x2
	.byte	0x30
	.byte	0x9f
	.4byte	.LVL63
	.4byte	.LVL64
	.2byte	0x6
	.byte	0xc
	.4byte	0x200000e
	.byte	0x9f
	.4byte	.LVL64
	.4byte	.LVL65
	.2byte	0x2
	.byte	0x30
	.byte	0x9f
	.4byte	.LVL65
	.4byte	.LVL70
	.2byte	0x2
	.byte	0x32
	.byte	0x9f
	.4byte	.LVL70
	.4byte	.LVL72
	.2byte	0x2
	.byte	0x30
	.byte	0x9f
	.4byte	.LVL72
	.4byte	.LVL73
	.2byte	0x6
	.byte	0xc
	.4byte	0x200000e
	.byte	0x9f
	.4byte	.LVL73
	.4byte	.LVL76
	.2byte	0x2
	.byte	0x30
	.byte	0x9f
	.4byte	.LVL76
	.4byte	.LVL92
	.2byte	0x2
	.byte	0x32
	.byte	0x9f
	.4byte	.LVL92
	.4byte	.LVL93
	.2byte	0x2
	.byte	0x30
	.byte	0x9f
	.4byte	.LVL96
	.4byte	.LVL96
	.2byte	0x2
	.byte	0x30
	.byte	0x9f
	.4byte	.LVL96
	.4byte	.LVL109
	.2byte	0x2
	.byte	0x30
	.byte	0x9f
	.4byte	.LVL109
	.4byte	.LVL110
	.2byte	0x6
	.byte	0xc
	.4byte	0x200000e
	.byte	0x9f
	.4byte	.LVL110
	.4byte	.LVL112
	.2byte	0x2
	.byte	0x30
	.byte	0x9f
	.4byte	.LVL112
	.4byte	.LVL113
	.2byte	0x6
	.byte	0xc
	.4byte	0x200000e
	.byte	0x9f
	.4byte	.LVL113
	.4byte	.LVL116
	.2byte	0x2
	.byte	0x30
	.byte	0x9f
	.4byte	.LVL116
	.4byte	.LVL117
	.2byte	0x6
	.byte	0xc
	.4byte	0x200000e
	.byte	0x9f
	.4byte	.LVL117
	.4byte	.LVL127
	.2byte	0x2
	.byte	0x32
	.byte	0x9f
	.4byte	.LVL127
	.4byte	.LVL128
	.2byte	0x2
	.byte	0x30
	.byte	0x9f
	.4byte	.LVL130
	.4byte	.LVL131
	.2byte	0x2
	.byte	0x30
	.byte	0x9f
	.4byte	.LVL131
	.4byte	.LVL162
	.2byte	0x2
	.byte	0x32
	.byte	0x9f
	.4byte	.LVL162
	.4byte	.LVL163
	.2byte	0x2
	.byte	0x30
	.byte	0x9f
	.4byte	.LVL164
	.4byte	.LVL167
	.2byte	0x2
	.byte	0x32
	.byte	0x9f
	.4byte	.LVL167
	.4byte	.LVL169
	.2byte	0x2
	.byte	0x3e
	.byte	0x9f
	.4byte	.LVL171
	.4byte	.LVL172
	.2byte	0x2
	.byte	0x3e
	.byte	0x9f
	.4byte	.LVL172
	.4byte	.LVL175
	.2byte	0x2
	.byte	0x30
	.byte	0x9f
	.4byte	.LVL175
	.4byte	.LVL176
	.2byte	0x6
	.byte	0xc
	.4byte	0x200000e
	.byte	0x9f
	.4byte	.LVL176
	.4byte	.LVL177
	.2byte	0x1
	.byte	0x50
	.4byte	.LVL186
	.4byte	.LVL187
	.2byte	0x6
	.byte	0xc
	.4byte	0x2003fff
	.byte	0x9f
	.4byte	.LVL187
	.4byte	.LVL196
	.2byte	0x2
	.byte	0x32
	.byte	0x9f
	.4byte	.LVL196
	.4byte	.LVL198
	.2byte	0x2
	.byte	0x30
	.byte	0x9f
	.4byte	.LVL198
	.4byte	.LVL232
	.2byte	0x2
	.byte	0x32
	.byte	0x9f
	.4byte	.LVL232
	.4byte	.LVL233
	.2byte	0x1
	.byte	0x50
	.4byte	.LVL241
	.4byte	.LVL258
	.2byte	0x2
	.byte	0x32
	.byte	0x9f
	.4byte	.LVL258
	.4byte	.LVL260
	.2byte	0x6
	.byte	0xc
	.4byte	0x200000e
	.byte	0x9f
	.4byte	.LVL260
	.4byte	.LVL266
	.2byte	0x2
	.byte	0x32
	.byte	0x9f
	.4byte	.LVL266
	.4byte	.LVL270
	.2byte	0x6
	.byte	0xc
	.4byte	0x200000e
	.byte	0x9f
	.4byte	.LVL270
	.4byte	.LVL280
	.2byte	0x2
	.byte	0x32
	.byte	0x9f
	.4byte	.LVL280
	.4byte	.LVL282
	.2byte	0x2
	.byte	0x3e
	.byte	0x9f
	.4byte	.LVL282
	.4byte	.LVL326
	.2byte	0x2
	.byte	0x32
	.byte	0x9f
	.4byte	.LVL326
	.4byte	.LVL328
	.2byte	0x6
	.byte	0xc
	.4byte	0x200000e
	.byte	0x9f
	.4byte	.LVL328
	.4byte	.LVL329
	.2byte	0x2
	.byte	0x32
	.byte	0x9f
	.4byte	.LVL329
	.4byte	.LVL331
	.2byte	0x6
	.byte	0xc
	.4byte	0x200000e
	.byte	0x9f
	.4byte	.LVL331
	.4byte	.LFE50
	.2byte	0x2
	.byte	0x32
	.byte	0x9f
	.4byte	0
	.4byte	0
.LVUS5:
	.uleb128 .LVU20
	.uleb128 .LVU57
	.uleb128 .LVU57
	.uleb128 .LVU58
	.uleb128 .LVU58
	.uleb128 .LVU72
	.uleb128 .LVU72
	.uleb128 .LVU73
	.uleb128 .LVU73
	.uleb128 .LVU314
	.uleb128 .LVU314
	.uleb128 .LVU315
	.uleb128 .LVU315
	.uleb128 .LVU430
	.uleb128 .LVU430
	.uleb128 .LVU432
	.uleb128 .LVU432
	.uleb128 .LVU440
	.uleb128 .LVU440
	.uleb128 .LVU441
	.uleb128 .LVU441
	.uleb128 .LVU491
	.uleb128 .LVU491
	.uleb128 .LVU492
	.uleb128 .LVU492
	.uleb128 .LVU505
	.uleb128 .LVU505
	.uleb128 .LVU506
	.uleb128 .LVU506
	.uleb128 .LVU543
	.uleb128 .LVU543
	.uleb128 .LVU544
	.uleb128 .LVU544
	.uleb128 .LVU697
	.uleb128 .LVU697
	.uleb128 .LVU698
	.uleb128 .LVU698
	.uleb128 .LVU707
	.uleb128 .LVU707
	.uleb128 .LVU708
	.uleb128 .LVU708
	.uleb128 .LVU861
	.uleb128 .LVU861
	.uleb128 .LVU862
	.uleb128 .LVU862
	.uleb128 .LVU876
	.uleb128 .LVU876
	.uleb128 .LVU877
	.uleb128 .LVU877
	.uleb128 .LVU909
	.uleb128 .LVU909
	.uleb128 .LVU910
	.uleb128 .LVU910
	.uleb128 .LVU922
	.uleb128 .LVU922
	.uleb128 .LVU923
	.uleb128 .LVU923
	.uleb128 0
.LLST5:
	.4byte	.LVL4
	.4byte	.LVL17
	.2byte	0x1
	.byte	0x54
	.4byte	.LVL17
	.4byte	.LVL18
	.2byte	0x1
	.byte	0x50
	.4byte	.LVL18
	.4byte	.LVL23
	.2byte	0x1
	.byte	0x54
	.4byte	.LVL23
	.4byte	.LVL24-1
	.2byte	0x1
	.byte	0x50
	.4byte	.LVL24-1
	.4byte	.LVL99
	.2byte	0x1
	.byte	0x54
	.4byte	.LVL99
	.4byte	.LVL100
	.2byte	0x1
	.byte	0x50
	.4byte	.LVL100
	.4byte	.LVL137
	.2byte	0x1
	.byte	0x54
	.4byte	.LVL137
	.4byte	.LVL138
	.2byte	0x1
	.byte	0x50
	.4byte	.LVL138
	.4byte	.LVL141
	.2byte	0x1
	.byte	0x54
	.4byte	.LVL141
	.4byte	.LVL142-1
	.2byte	0x1
	.byte	0x50
	.4byte	.LVL142-1
	.4byte	.LVL154
	.2byte	0x1
	.byte	0x54
	.4byte	.LVL154
	.4byte	.LVL155
	.2byte	0x1
	.byte	0x50
	.4byte	.LVL155
	.4byte	.LVL159
	.2byte	0x1
	.byte	0x54
	.4byte	.LVL159
	.4byte	.LVL160-1
	.2byte	0x1
	.byte	0x50
	.4byte	.LVL160-1
	.4byte	.LVL172
	.2byte	0x1
	.byte	0x54
	.4byte	.LVL172
	.4byte	.LVL173-1
	.2byte	0x1
	.byte	0x50
	.4byte	.LVL173-1
	.4byte	.LVL222
	.2byte	0x1
	.byte	0x54
	.4byte	.LVL222
	.4byte	.LVL223
	.2byte	0x1
	.byte	0x50
	.4byte	.LVL223
	.4byte	.LVL227
	.2byte	0x1
	.byte	0x54
	.4byte	.LVL227
	.4byte	.LVL228-1
	.2byte	0x1
	.byte	0x50
	.4byte	.LVL228-1
	.4byte	.LVL289
	.2byte	0x1
	.byte	0x54
	.4byte	.LVL289
	.4byte	.LVL290
	.2byte	0x1
	.byte	0x50
	.4byte	.LVL290
	.4byte	.LVL293
	.2byte	0x1
	.byte	0x54
	.4byte	.LVL293
	.4byte	.LVL294-1
	.2byte	0x1
	.byte	0x50
	.4byte	.LVL294-1
	.4byte	.LVL301
	.2byte	0x1
	.byte	0x54
	.4byte	.LVL301
	.4byte	.LVL302
	.2byte	0x1
	.byte	0x50
	.4byte	.LVL302
	.4byte	.LVL304
	.2byte	0x1
	.byte	0x54
	.4byte	.LVL304
	.4byte	.LVL305-1
	.2byte	0x1
	.byte	0x50
	.4byte	.LVL305-1
	.4byte	.LFE50
	.2byte	0x1
	.byte	0x54
	.4byte	0
	.4byte	0
.LVUS6:
	.uleb128 .LVU58
	.uleb128 .LVU59
	.uleb128 .LVU73
	.uleb128 .LVU76
	.uleb128 .LVU110
	.uleb128 .LVU120
	.uleb128 .LVU154
	.uleb128 .LVU167
	.uleb128 .LVU168
	.uleb128 .LVU169
	.uleb128 .LVU188
	.uleb128 .LVU191
	.uleb128 .LVU224
	.uleb128 .LVU225
	.uleb128 .LVU233
	.uleb128 .LVU234
	.uleb128 .LVU310
	.uleb128 .LVU312
	.uleb128 .LVU327
	.uleb128 .LVU328
	.uleb128 .LVU329
	.uleb128 .LVU333
	.uleb128 .LVU341
	.uleb128 .LVU342
	.uleb128 .LVU544
	.uleb128 .LVU548
.LLST6:
	.4byte	.LVL18
	.4byte	.LVL18
	.2byte	0x1
	.byte	0x50
	.4byte	.LVL24
	.4byte	.LVL25
	.2byte	0x1
	.byte	0x50
	.4byte	.LVL34
	.4byte	.LVL37
	.2byte	0x1
	.byte	0x50
	.4byte	.LVL46
	.4byte	.LVL51
	.2byte	0x1
	.byte	0x50
	.4byte	.LVL52
	.4byte	.LVL53
	.2byte	0x1
	.byte	0x50
	.4byte	.LVL59
	.4byte	.LVL60
	.2byte	0x1
	.byte	0x50
	.4byte	.LVL70
	.4byte	.LVL71
	.2byte	0x1
	.byte	0x50
	.4byte	.LVL73
	.4byte	.LVL74
	.2byte	0x1
	.byte	0x50
	.4byte	.LVL97
	.4byte	.LVL98
	.2byte	0x1
	.byte	0x50
	.4byte	.LVL105
	.4byte	.LVL106
	.2byte	0x1
	.byte	0x50
	.4byte	.LVL107
	.4byte	.LVL108
	.2byte	0x1
	.byte	0x50
	.4byte	.LVL110
	.4byte	.LVL111
	.2byte	0x1
	.byte	0x50
	.4byte	.LVL173
	.4byte	.LVL174
	.2byte	0x1
	.byte	0x50
	.4byte	0
	.4byte	0
.LVUS7:
	.uleb128 .LVU33
	.uleb128 .LVU48
	.uleb128 .LVU89
	.uleb128 .LVU94
	.uleb128 .LVU94
	.uleb128 .LVU95
	.uleb128 .LVU103
	.uleb128 .LVU109
	.uleb128 .LVU167
	.uleb128 .LVU168
.LLST7:
	.4byte	.LVL10
	.4byte	.LVL13
	.2byte	0x1
	.byte	0x50
	.4byte	.LVL28
	.4byte	.LVL29
	.2byte	0x1
	.byte	0x50
	.4byte	.LVL29
	.4byte	.LVL30-1
	.2byte	0x1
	.byte	0x52
	.4byte	.LVL31
	.4byte	.LVL33
	.2byte	0x1
	.byte	0x50
	.4byte	.LVL51
	.4byte	.LVL52
	.2byte	0x1
	.byte	0x50
	.4byte	0
	.4byte	0
.LVUS8:
	.uleb128 .LVU50
	.uleb128 .LVU86
	.uleb128 .LVU106
	.uleb128 .LVU127
	.uleb128 .LVU150
	.uleb128 .LVU151
	.uleb128 .LVU154
	.uleb128 .LVU176
	.uleb128 .LVU177
	.uleb128 .LVU184
	.uleb128 .LVU184
	.uleb128 .LVU188
	.uleb128 .LVU188
	.uleb128 .LVU196
	.uleb128 .LVU205
	.uleb128 .LVU218
	.uleb128 .LVU224
	.uleb128 .LVU240
	.uleb128 .LVU310
	.uleb128 .LVU350
	.uleb128 .LVU353
	.uleb128 .LVU361
	.uleb128 .LVU543
	.uleb128 .LVU591
	.uleb128 .LVU715
	.uleb128 .LVU730
.LLST8:
	.4byte	.LVL14
	.4byte	.LVL27
	.2byte	0x1
	.byte	0x58
	.4byte	.LVL32
	.4byte	.LVL40
	.2byte	0x1
	.byte	0x58
	.4byte	.LVL43
	.4byte	.LVL44
	.2byte	0x1
	.byte	0x58
	.4byte	.LVL46
	.4byte	.LVL56
	.2byte	0x1
	.byte	0x58
	.4byte	.LVL57
	.4byte	.LVL58
	.2byte	0x1
	.byte	0x58
	.4byte	.LVL58
	.4byte	.LVL59
	.2byte	0x2
	.byte	0x38
	.byte	0x9f
	.4byte	.LVL59
	.4byte	.LVL62
	.2byte	0x1
	.byte	0x58
	.4byte	.LVL64
	.4byte	.LVL66
	.2byte	0x1
	.byte	0x58
	.4byte	.LVL70
	.4byte	.LVL76
	.2byte	0x1
	.byte	0x58
	.4byte	.LVL97
	.4byte	.LVL113
	.2byte	0x1
	.byte	0x58
	.4byte	.LVL115
	.4byte	.LVL117
	.2byte	0x1
	.byte	0x58
	.4byte	.LVL172
	.4byte	.LVL187
	.2byte	0x1
	.byte	0x58
	.4byte	.LVL232
	.4byte	.LVL241
	.2byte	0x1
	.byte	0x58
	.4byte	0
	.4byte	0
.LVUS9:
	.uleb128 .LVU52
	.uleb128 .LVU56
	.uleb128 .LVU56
	.uleb128 .LVU57
.LLST9:
	.4byte	.LVL15
	.4byte	.LVL16
	.2byte	0x5
	.byte	0x31
	.byte	0x73
	.sleb128 0
	.byte	0x24
	.byte	0x9f
	.4byte	.LVL16
	.4byte	.LVL17
	.2byte	0x1
	.byte	0x53
	.4byte	0
	.4byte	0
.LVUS10:
	.uleb128 .LVU42
	.uleb128 .LVU57
	.uleb128 .LVU57
	.uleb128 .LVU61
	.uleb128 .LVU62
	.uleb128 .LVU86
	.uleb128 .LVU103
	.uleb128 .LVU118
	.uleb128 .LVU118
	.uleb128 .LVU120
	.uleb128 .LVU120
	.uleb128 .LVU124
	.uleb128 .LVU150
	.uleb128 .LVU151
	.uleb128 .LVU154
	.uleb128 .LVU160
	.uleb128 .LVU160
	.uleb128 .LVU165
	.uleb128 .LVU165
	.uleb128 .LVU166
	.uleb128 .LVU166
	.uleb128 .LVU167
	.uleb128 .LVU167
	.uleb128 .LVU169
	.uleb128 .LVU169
	.uleb128 .LVU174
	.uleb128 .LVU177
	.uleb128 .LVU188
	.uleb128 .LVU188
	.uleb128 .LVU191
	.uleb128 .LVU191
	.uleb128 .LVU205
	.uleb128 .LVU224
	.uleb128 .LVU233
	.uleb128 .LVU233
	.uleb128 .LVU234
	.uleb128 .LVU238
	.uleb128 .LVU240
	.uleb128 .LVU310
	.uleb128 .LVU312
	.uleb128 .LVU326
	.uleb128 .LVU327
	.uleb128 .LVU327
	.uleb128 .LVU341
	.uleb128 .LVU341
	.uleb128 .LVU342
	.uleb128 .LVU353
	.uleb128 .LVU361
	.uleb128 .LVU558
	.uleb128 .LVU569
	.uleb128 .LVU715
	.uleb128 .LVU730
.LLST10:
	.4byte	.LVL12
	.4byte	.LVL17
	.2byte	0x2
	.byte	0x30
	.byte	0x9f
	.4byte	.LVL17
	.4byte	.LVL19
	.2byte	0x1
	.byte	0x55
	.4byte	.LVL20
	.4byte	.LVL27
	.2byte	0x1
	.byte	0x55
	.4byte	.LVL31
	.4byte	.LVL36
	.2byte	0x2
	.byte	0x30
	.byte	0x9f
	.4byte	.LVL36
	.4byte	.LVL37
	.2byte	0x1
	.byte	0x50
	.4byte	.LVL37
	.4byte	.LVL39
	.2byte	0x1
	.byte	0x55
	.4byte	.LVL43
	.4byte	.LVL44
	.2byte	0x1
	.byte	0x55
	.4byte	.LVL46
	.4byte	.LVL47
	.2byte	0x1
	.byte	0x50
	.4byte	.LVL47
	.4byte	.LVL49
	.2byte	0x1
	.byte	0x55
	.4byte	.LVL49
	.4byte	.LVL50
	.2byte	0x4
	.byte	0x75
	.sleb128 -192
	.byte	0x9f
	.4byte	.LVL50
	.4byte	.LVL51
	.2byte	0x1
	.byte	0x55
	.4byte	.LVL51
	.4byte	.LVL53
	.2byte	0x2
	.byte	0x30
	.byte	0x9f
	.4byte	.LVL53
	.4byte	.LVL55
	.2byte	0x1
	.byte	0x55
	.4byte	.LVL57
	.4byte	.LVL59
	.2byte	0x2
	.byte	0x30
	.byte	0x9f
	.4byte	.LVL59
	.4byte	.LVL60
	.2byte	0x1
	.byte	0x50
	.4byte	.LVL60
	.4byte	.LVL64
	.2byte	0x2
	.byte	0x30
	.byte	0x9f
	.4byte	.LVL70
	.4byte	.LVL73
	.2byte	0x2
	.byte	0x30
	.byte	0x9f
	.4byte	.LVL73
	.4byte	.LVL74
	.2byte	0x1
	.byte	0x50
	.4byte	.LVL75
	.4byte	.LVL76
	.2byte	0x2
	.byte	0x30
	.byte	0x9f
	.4byte	.LVL97
	.4byte	.LVL98
	.2byte	0x1
	.byte	0x50
	.4byte	.LVL104
	.4byte	.LVL105
	.2byte	0x2a
	.byte	0x91
	.sleb128 -148
	.byte	0x94
	.byte	0x1
	.byte	0x8
	.byte	0xff
	.byte	0x1a
	.byte	0x48
	.byte	0x24
	.byte	0x91
	.sleb128 -147
	.byte	0x94
	.byte	0x1
	.byte	0x8
	.byte	0xff
	.byte	0x1a
	.byte	0x40
	.byte	0x24
	.byte	0x21
	.byte	0x91
	.sleb128 -146
	.byte	0x94
	.byte	0x1
	.byte	0x8
	.byte	0xff
	.byte	0x1a
	.byte	0x38
	.byte	0x24
	.byte	0x21
	.byte	0x91
	.sleb128 -145
	.byte	0x94
	.byte	0x1
	.byte	0x8
	.byte	0xff
	.byte	0x1a
	.byte	0x21
	.byte	0x9f
	.4byte	.LVL105
	.4byte	.LVL110
	.2byte	0x1
	.byte	0x55
	.4byte	.LVL110
	.4byte	.LVL111
	.2byte	0x1
	.byte	0x50
	.4byte	.LVL115
	.4byte	.LVL117
	.2byte	0x2
	.byte	0x30
	.byte	0x9f
	.4byte	.LVL176
	.4byte	.LVL177
	.2byte	0x1
	.byte	0x55
	.4byte	.LVL232
	.4byte	.LVL241
	.2byte	0x1
	.byte	0x55
	.4byte	0
	.4byte	0
.LVUS11:
	.uleb128 .LVU37
	.uleb128 .LVU38
	.uleb128 .LVU38
	.uleb128 .LVU57
	.uleb128 .LVU57
	.uleb128 .LVU86
	.uleb128 .LVU90
	.uleb128 .LVU91
	.uleb128 .LVU91
	.uleb128 .LVU114
	.uleb128 .LVU114
	.uleb128 .LVU120
	.uleb128 .LVU120
	.uleb128 .LVU127
	.uleb128 .LVU150
	.uleb128 .LVU151
	.uleb128 .LVU154
	.uleb128 .LVU163
	.uleb128 .LVU163
	.uleb128 .LVU167
	.uleb128 .LVU167
	.uleb128 .LVU169
	.uleb128 .LVU169
	.uleb128 .LVU176
	.uleb128 .LVU177
	.uleb128 .LVU188
	.uleb128 .LVU188
	.uleb128 .LVU191
	.uleb128 .LVU191
	.uleb128 .LVU194
	.uleb128 .LVU194
	.uleb128 .LVU196
	.uleb128 .LVU205
	.uleb128 .LVU218
	.uleb128 .LVU224
	.uleb128 .LVU233
	.uleb128 .LVU233
	.uleb128 .LVU240
	.uleb128 .LVU310
	.uleb128 .LVU312
	.uleb128 .LVU312
	.uleb128 .LVU327
	.uleb128 .LVU327
	.uleb128 .LVU350
	.uleb128 .LVU353
	.uleb128 .LVU361
	.uleb128 .LVU543
	.uleb128 .LVU591
	.uleb128 .LVU715
	.uleb128 .LVU730
.LLST11:
	.4byte	.LVL11
	.4byte	.LVL11
	.2byte	0x2
	.byte	0x30
	.byte	0x9f
	.4byte	.LVL11
	.4byte	.LVL17
	.2byte	0x2
	.byte	0x31
	.byte	0x9f
	.4byte	.LVL17
	.4byte	.LVL27
	.2byte	0x1
	.byte	0x5a
	.4byte	.LVL28
	.4byte	.LVL28
	.2byte	0x2
	.byte	0x30
	.byte	0x9f
	.4byte	.LVL28
	.4byte	.LVL35
	.2byte	0x2
	.byte	0x31
	.byte	0x9f
	.4byte	.LVL35
	.4byte	.LVL37
	.2byte	0x2
	.byte	0x32
	.byte	0x9f
	.4byte	.LVL37
	.4byte	.LVL40
	.2byte	0x1
	.byte	0x59
	.4byte	.LVL43
	.4byte	.LVL44
	.2byte	0x1
	.byte	0x59
	.4byte	.LVL46
	.4byte	.LVL48
	.2byte	0x2
	.byte	0x32
	.byte	0x9f
	.4byte	.LVL48
	.4byte	.LVL51
	.2byte	0x2
	.byte	0x33
	.byte	0x9f
	.4byte	.LVL51
	.4byte	.LVL53
	.2byte	0x2
	.byte	0x31
	.byte	0x9f
	.4byte	.LVL53
	.4byte	.LVL56
	.2byte	0x1
	.byte	0x59
	.4byte	.LVL57
	.4byte	.LVL59
	.2byte	0x2
	.byte	0x31
	.byte	0x9f
	.4byte	.LVL59
	.4byte	.LVL60
	.2byte	0x2
	.byte	0x32
	.byte	0x9f
	.4byte	.LVL60
	.4byte	.LVL61
	.2byte	0x2
	.byte	0x31
	.byte	0x9f
	.4byte	.LVL61
	.4byte	.LVL62
	.2byte	0x1
	.byte	0x59
	.4byte	.LVL64
	.4byte	.LVL66
	.2byte	0x1
	.byte	0x59
	.4byte	.LVL70
	.4byte	.LVL73
	.2byte	0x2
	.byte	0x31
	.byte	0x9f
	.4byte	.LVL73
	.4byte	.LVL76
	.2byte	0x2
	.byte	0x32
	.byte	0x9f
	.4byte	.LVL97
	.4byte	.LVL98
	.2byte	0x2
	.byte	0x32
	.byte	0x9f
	.4byte	.LVL98
	.4byte	.LVL105
	.2byte	0x1
	.byte	0x59
	.4byte	.LVL105
	.4byte	.LVL113
	.2byte	0x2
	.byte	0x32
	.byte	0x9f
	.4byte	.LVL115
	.4byte	.LVL117
	.2byte	0x2
	.byte	0x31
	.byte	0x9f
	.4byte	.LVL172
	.4byte	.LVL187
	.2byte	0x1
	.byte	0x59
	.4byte	.LVL232
	.4byte	.LVL241
	.2byte	0x1
	.byte	0x59
	.4byte	0
	.4byte	0
.LVUS12:
	.uleb128 .LVU8
	.uleb128 .LVU43
	.uleb128 .LVU43
	.uleb128 .LVU48
	.uleb128 .LVU86
	.uleb128 .LVU103
	.uleb128 .LVU103
	.uleb128 .LVU109
	.uleb128 .LVU167
	.uleb128 .LVU168
.LLST12:
	.4byte	.LVL0
	.4byte	.LVL12
	.2byte	0x2
	.byte	0x30
	.byte	0x9f
	.4byte	.LVL12
	.4byte	.LVL13
	.2byte	0xb
	.byte	0x70
	.sleb128 0
	.byte	0x8
	.byte	0x40
	.byte	0x1a
	.byte	0x30
	.byte	0x2e
	.byte	0x8
	.byte	0xff
	.byte	0x1a
	.byte	0x9f
	.4byte	.LVL27
	.4byte	.LVL31
	.2byte	0x2
	.byte	0x30
	.byte	0x9f
	.4byte	.LVL31
	.4byte	.LVL33
	.2byte	0xb
	.byte	0x70
	.sleb128 0
	.byte	0x8
	.byte	0x40
	.byte	0x1a
	.byte	0x30
	.byte	0x2e
	.byte	0x8
	.byte	0xff
	.byte	0x1a
	.byte	0x9f
	.4byte	.LVL51
	.4byte	.LVL52
	.2byte	0xb
	.byte	0x70
	.sleb128 0
	.byte	0x8
	.byte	0x40
	.byte	0x1a
	.byte	0x30
	.byte	0x2e
	.byte	0x8
	.byte	0xff
	.byte	0x1a
	.byte	0x9f
	.4byte	0
	.4byte	0
.LVUS13:
	.uleb128 .LVU8
	.uleb128 .LVU124
	.uleb128 .LVU150
	.uleb128 .LVU153
	.uleb128 .LVU154
	.uleb128 .LVU176
	.uleb128 .LVU177
	.uleb128 .LVU180
	.uleb128 .LVU180
	.uleb128 .LVU188
	.uleb128 .LVU188
	.uleb128 .LVU191
	.uleb128 .LVU191
	.uleb128 .LVU205
	.uleb128 .LVU224
	.uleb128 .LVU239
	.uleb128 .LVU239
	.uleb128 .LVU240
	.uleb128 .LVU310
	.uleb128 .LVU350
	.uleb128 .LVU353
	.uleb128 .LVU361
	.uleb128 .LVU543
	.uleb128 .LVU591
	.uleb128 .LVU715
	.uleb128 .LVU730
.LLST13:
	.4byte	.LVL0
	.4byte	.LVL39
	.2byte	0x2
	.byte	0x30
	.byte	0x9f
	.4byte	.LVL43
	.4byte	.LVL45
	.2byte	0x2
	.byte	0x30
	.byte	0x9f
	.4byte	.LVL46
	.4byte	.LVL56
	.2byte	0x2
	.byte	0x30
	.byte	0x9f
	.4byte	.LVL57
	.4byte	.LVL57
	.2byte	0x2
	.byte	0x30
	.byte	0x9f
	.4byte	.LVL57
	.4byte	.LVL59
	.2byte	0x2
	.byte	0x31
	.byte	0x9f
	.4byte	.LVL59
	.4byte	.LVL60
	.2byte	0x2
	.byte	0x30
	.byte	0x9f
	.4byte	.LVL60
	.4byte	.LVL64
	.2byte	0x2
	.byte	0x31
	.byte	0x9f
	.4byte	.LVL70
	.4byte	.LVL75
	.2byte	0x2
	.byte	0x30
	.byte	0x9f
	.4byte	.LVL75
	.4byte	.LVL76
	.2byte	0x2
	.byte	0x31
	.byte	0x9f
	.4byte	.LVL97
	.4byte	.LVL113
	.2byte	0x2
	.byte	0x30
	.byte	0x9f
	.4byte	.LVL115
	.4byte	.LVL117
	.2byte	0x2
	.byte	0x31
	.byte	0x9f
	.4byte	.LVL172
	.4byte	.LVL187
	.2byte	0x2
	.byte	0x30
	.byte	0x9f
	.4byte	.LVL232
	.4byte	.LVL241
	.2byte	0x2
	.byte	0x30
	.byte	0x9f
	.4byte	0
	.4byte	0
.LVUS14:
	.uleb128 .LVU13
	.uleb128 .LVU16
	.uleb128 .LVU16
	.uleb128 .LVU153
	.uleb128 .LVU153
	.uleb128 .LVU154
	.uleb128 .LVU154
	.uleb128 .LVU176
	.uleb128 .LVU176
	.uleb128 .LVU177
	.uleb128 .LVU177
	.uleb128 .LVU257
	.uleb128 .LVU257
	.uleb128 .LVU310
	.uleb128 .LVU310
	.uleb128 .LVU373
	.uleb128 .LVU373
	.uleb128 .LVU411
	.uleb128 .LVU411
	.uleb128 .LVU425
	.uleb128 .LVU425
	.uleb128 .LVU442
	.uleb128 .LVU442
	.uleb128 .LVU463
	.uleb128 .LVU463
	.uleb128 .LVU508
	.uleb128 .LVU508
	.uleb128 .LVU526
	.uleb128 .LVU526
	.uleb128 .LVU530
	.uleb128 .LVU530
	.uleb128 .LVU539
	.uleb128 .LVU539
	.uleb128 .LVU543
	.uleb128 .LVU543
	.uleb128 .LVU569
	.uleb128 .LVU569
	.uleb128 .LVU571
	.uleb128 .LVU571
	.uleb128 .LVU587
	.uleb128 .LVU587
	.uleb128 .LVU591
	.uleb128 .LVU591
	.uleb128 .LVU635
	.uleb128 .LVU635
	.uleb128 .LVU647
	.uleb128 .LVU647
	.uleb128 .LVU673
	.uleb128 .LVU673
	.uleb128 .LVU675
	.uleb128 .LVU675
	.uleb128 .LVU712
	.uleb128 .LVU712
	.uleb128 .LVU720
	.uleb128 .LVU720
	.uleb128 .LVU721
	.uleb128 .LVU721
	.uleb128 .LVU729
	.uleb128 .LVU729
	.uleb128 .LVU730
	.uleb128 .LVU730
	.uleb128 .LVU750
	.uleb128 .LVU750
	.uleb128 .LVU757
	.uleb128 .LVU757
	.uleb128 .LVU809
	.uleb128 .LVU809
	.uleb128 .LVU810
	.uleb128 .LVU810
	.uleb128 .LVU992
	.uleb128 .LVU992
	.uleb128 .LVU1003
	.uleb128 .LVU1003
	.uleb128 0
.LLST14:
	.4byte	.LVL1
	.4byte	.LVL2
	.2byte	0x8
	.byte	0x72
	.sleb128 0
	.byte	0x32
	.byte	0x29
	.byte	0x8
	.byte	0xff
	.byte	0x1a
	.byte	0x9f
	.4byte	.LVL2
	.4byte	.LVL45
	.2byte	0x8
	.byte	0x77
	.sleb128 0
	.byte	0x32
	.byte	0x29
	.byte	0x8
	.byte	0xff
	.byte	0x1a
	.byte	0x9f
	.4byte	.LVL45
	.4byte	.LVL46
	.2byte	0x9
	.byte	0xf3
	.uleb128 0x1
	.byte	0x52
	.byte	0x32
	.byte	0x29
	.byte	0x8
	.byte	0xff
	.byte	0x1a
	.byte	0x9f
	.4byte	.LVL46
	.4byte	.LVL56
	.2byte	0x8
	.byte	0x77
	.sleb128 0
	.byte	0x32
	.byte	0x29
	.byte	0x8
	.byte	0xff
	.byte	0x1a
	.byte	0x9f
	.4byte	.LVL56
	.4byte	.LVL57
	.2byte	0x9
	.byte	0xf3
	.uleb128 0x1
	.byte	0x52
	.byte	0x32
	.byte	0x29
	.byte	0x8
	.byte	0xff
	.byte	0x1a
	.byte	0x9f
	.4byte	.LVL57
	.4byte	.LVL85
	.2byte	0x8
	.byte	0x77
	.sleb128 0
	.byte	0x32
	.byte	0x29
	.byte	0x8
	.byte	0xff
	.byte	0x1a
	.byte	0x9f
	.4byte	.LVL85
	.4byte	.LVL97
	.2byte	0x9
	.byte	0xf3
	.uleb128 0x1
	.byte	0x52
	.byte	0x32
	.byte	0x29
	.byte	0x8
	.byte	0xff
	.byte	0x1a
	.byte	0x9f
	.4byte	.LVL97
	.4byte	.LVL119
	.2byte	0x8
	.byte	0x77
	.sleb128 0
	.byte	0x32
	.byte	0x29
	.byte	0x8
	.byte	0xff
	.byte	0x1a
	.byte	0x9f
	.4byte	.LVL119
	.4byte	.LVL131
	.2byte	0x9
	.byte	0xf3
	.uleb128 0x1
	.byte	0x52
	.byte	0x32
	.byte	0x29
	.byte	0x8
	.byte	0xff
	.byte	0x1a
	.byte	0x9f
	.4byte	.LVL131
	.4byte	.LVL135
	.2byte	0x8
	.byte	0x77
	.sleb128 0
	.byte	0x32
	.byte	0x29
	.byte	0x8
	.byte	0xff
	.byte	0x1a
	.byte	0x9f
	.4byte	.LVL135
	.4byte	.LVL143
	.2byte	0x9
	.byte	0xf3
	.uleb128 0x1
	.byte	0x52
	.byte	0x32
	.byte	0x29
	.byte	0x8
	.byte	0xff
	.byte	0x1a
	.byte	0x9f
	.4byte	.LVL143
	.4byte	.LVL147
	.2byte	0x8
	.byte	0x77
	.sleb128 0
	.byte	0x32
	.byte	0x29
	.byte	0x8
	.byte	0xff
	.byte	0x1a
	.byte	0x9f
	.4byte	.LVL147
	.4byte	.LVL161
	.2byte	0x9
	.byte	0xf3
	.uleb128 0x1
	.byte	0x52
	.byte	0x32
	.byte	0x29
	.byte	0x8
	.byte	0xff
	.byte	0x1a
	.byte	0x9f
	.4byte	.LVL161
	.4byte	.LVL162
	.2byte	0x8
	.byte	0x77
	.sleb128 0
	.byte	0x32
	.byte	0x29
	.byte	0x8
	.byte	0xff
	.byte	0x1a
	.byte	0x9f
	.4byte	.LVL162
	.4byte	.LVL164
	.2byte	0x9
	.byte	0xf3
	.uleb128 0x1
	.byte	0x52
	.byte	0x32
	.byte	0x29
	.byte	0x8
	.byte	0xff
	.byte	0x1a
	.byte	0x9f
	.4byte	.LVL164
	.4byte	.LVL169
	.2byte	0x8
	.byte	0x77
	.sleb128 0
	.byte	0x32
	.byte	0x29
	.byte	0x8
	.byte	0xff
	.byte	0x1a
	.byte	0x9f
	.4byte	.LVL169
	.4byte	.LVL172
	.2byte	0x9
	.byte	0xf3
	.uleb128 0x1
	.byte	0x52
	.byte	0x32
	.byte	0x29
	.byte	0x8
	.byte	0xff
	.byte	0x1a
	.byte	0x9f
	.4byte	.LVL172
	.4byte	.LVL177
	.2byte	0x8
	.byte	0x77
	.sleb128 0
	.byte	0x32
	.byte	0x29
	.byte	0x8
	.byte	0xff
	.byte	0x1a
	.byte	0x9f
	.4byte	.LVL177
	.4byte	.LVL179-1
	.2byte	0x8
	.byte	0x71
	.sleb128 0
	.byte	0x32
	.byte	0x29
	.byte	0x8
	.byte	0xff
	.byte	0x1a
	.byte	0x9f
	.4byte	.LVL179-1
	.4byte	.LVL184
	.2byte	0x8
	.byte	0x77
	.sleb128 0
	.byte	0x32
	.byte	0x29
	.byte	0x8
	.byte	0xff
	.byte	0x1a
	.byte	0x9f
	.4byte	.LVL184
	.4byte	.LVL187
	.2byte	0x8
	.byte	0x71
	.sleb128 0
	.byte	0x32
	.byte	0x29
	.byte	0x8
	.byte	0xff
	.byte	0x1a
	.byte	0x9f
	.4byte	.LVL187
	.4byte	.LVL198
	.2byte	0x9
	.byte	0xf3
	.uleb128 0x1
	.byte	0x52
	.byte	0x32
	.byte	0x29
	.byte	0x8
	.byte	0xff
	.byte	0x1a
	.byte	0x9f
	.4byte	.LVL198
	.4byte	.LVL203
	.2byte	0x8
	.byte	0x77
	.sleb128 0
	.byte	0x32
	.byte	0x29
	.byte	0x8
	.byte	0xff
	.byte	0x1a
	.byte	0x9f
	.4byte	.LVL203
	.4byte	.LVL213
	.2byte	0x9
	.byte	0xf3
	.uleb128 0x1
	.byte	0x52
	.byte	0x32
	.byte	0x29
	.byte	0x8
	.byte	0xff
	.byte	0x1a
	.byte	0x9f
	.4byte	.LVL213
	.4byte	.LVL215
	.2byte	0x8
	.byte	0x77
	.sleb128 0
	.byte	0x32
	.byte	0x29
	.byte	0x8
	.byte	0xff
	.byte	0x1a
	.byte	0x9f
	.4byte	.LVL215
	.4byte	.LVL230
	.2byte	0x9
	.byte	0xf3
	.uleb128 0x1
	.byte	0x52
	.byte	0x32
	.byte	0x29
	.byte	0x8
	.byte	0xff
	.byte	0x1a
	.byte	0x9f
	.4byte	.LVL230
	.4byte	.LVL235
	.2byte	0x8
	.byte	0x77
	.sleb128 0
	.byte	0x32
	.byte	0x29
	.byte	0x8
	.byte	0xff
	.byte	0x1a
	.byte	0x9f
	.4byte	.LVL235
	.4byte	.LVL236-1
	.2byte	0x8
	.byte	0x71
	.sleb128 0
	.byte	0x32
	.byte	0x29
	.byte	0x8
	.byte	0xff
	.byte	0x1a
	.byte	0x9f
	.4byte	.LVL236-1
	.4byte	.LVL240
	.2byte	0x8
	.byte	0x77
	.sleb128 0
	.byte	0x32
	.byte	0x29
	.byte	0x8
	.byte	0xff
	.byte	0x1a
	.byte	0x9f
	.4byte	.LVL240
	.4byte	.LVL241
	.2byte	0x8
	.byte	0x71
	.sleb128 0
	.byte	0x32
	.byte	0x29
	.byte	0x8
	.byte	0xff
	.byte	0x1a
	.byte	0x9f
	.4byte	.LVL241
	.4byte	.LVL251
	.2byte	0x9
	.byte	0xf3
	.uleb128 0x1
	.byte	0x52
	.byte	0x32
	.byte	0x29
	.byte	0x8
	.byte	0xff
	.byte	0x1a
	.byte	0x9f
	.4byte	.LVL251
	.4byte	.LVL254
	.2byte	0x8
	.byte	0x77
	.sleb128 0
	.byte	0x32
	.byte	0x29
	.byte	0x8
	.byte	0xff
	.byte	0x1a
	.byte	0x9f
	.4byte	.LVL254
	.4byte	.LVL270
	.2byte	0x9
	.byte	0xf3
	.uleb128 0x1
	.byte	0x52
	.byte	0x32
	.byte	0x29
	.byte	0x8
	.byte	0xff
	.byte	0x1a
	.byte	0x9f
	.4byte	.LVL270
	.4byte	.LVL271
	.2byte	0x8
	.byte	0x77
	.sleb128 0
	.byte	0x32
	.byte	0x29
	.byte	0x8
	.byte	0xff
	.byte	0x1a
	.byte	0x9f
	.4byte	.LVL271
	.4byte	.LVL328
	.2byte	0x9
	.byte	0xf3
	.uleb128 0x1
	.byte	0x52
	.byte	0x32
	.byte	0x29
	.byte	0x8
	.byte	0xff
	.byte	0x1a
	.byte	0x9f
	.4byte	.LVL328
	.4byte	.LVL331
	.2byte	0x8
	.byte	0x77
	.sleb128 0
	.byte	0x32
	.byte	0x29
	.byte	0x8
	.byte	0xff
	.byte	0x1a
	.byte	0x9f
	.4byte	.LVL331
	.4byte	.LFE50
	.2byte	0x9
	.byte	0xf3
	.uleb128 0x1
	.byte	0x52
	.byte	0x32
	.byte	0x29
	.byte	0x8
	.byte	0xff
	.byte	0x1a
	.byte	0x9f
	.4byte	0
	.4byte	0
.LVUS15:
	.uleb128 .LVU27
	.uleb128 .LVU28
	.uleb128 .LVU28
	.uleb128 .LVU31
.LLST15:
	.4byte	.LVL7
	.4byte	.LVL8-1
	.2byte	0x1
	.byte	0x51
	.4byte	.LVL8-1
	.4byte	.LVL9
	.2byte	0x1
	.byte	0x55
	.4byte	0
	.4byte	0
.LVUS16:
	.uleb128 .LVU1
	.uleb128 0
.LLST16:
	.4byte	.LVL0
	.4byte	.LFE50
	.2byte	0x6
	.byte	0xfa
	.4byte	0x278a
	.byte	0x9f
	.4byte	0
	.4byte	0
.LVUS17:
	.uleb128 .LVU1
	.uleb128 0
.LLST17:
	.4byte	.LVL0
	.4byte	.LFE50
	.2byte	0x6
	.byte	0xfa
	.4byte	0x277d
	.byte	0x9f
	.4byte	0
	.4byte	0
.LVUS18:
	.uleb128 .LVU1
	.uleb128 0
.LLST18:
	.4byte	.LVL0
	.4byte	.LFE50
	.2byte	0x6
	.byte	0xfa
	.4byte	0x2770
	.byte	0x9f
	.4byte	0
	.4byte	0
.LVUS19:
	.uleb128 .LVU241
	.uleb128 .LVU293
	.uleb128 .LVU757
	.uleb128 .LVU777
	.uleb128 .LVU810
	.uleb128 .LVU811
	.uleb128 .LVU812
	.uleb128 .LVU822
.LLST19:
	.4byte	.LVL76
	.4byte	.LVL92
	.2byte	0x1
	.byte	0x5a
	.4byte	.LVL254
	.4byte	.LVL258
	.2byte	0x1
	.byte	0x5a
	.4byte	.LVL271
	.4byte	.LVL273
	.2byte	0x1
	.byte	0x5a
	.4byte	.LVL274
	.4byte	.LVL280
	.2byte	0x1
	.byte	0x5a
	.4byte	0
	.4byte	0
.LVUS20:
	.uleb128 .LVU241
	.uleb128 .LVU293
	.uleb128 .LVU757
	.uleb128 .LVU777
	.uleb128 .LVU810
	.uleb128 .LVU811
	.uleb128 .LVU812
	.uleb128 .LVU817
.LLST20:
	.4byte	.LVL76
	.4byte	.LVL92
	.2byte	0x3
	.byte	0x91
	.sleb128 -188
	.4byte	.LVL254
	.4byte	.LVL258
	.2byte	0x3
	.byte	0x91
	.sleb128 -188
	.4byte	.LVL271
	.4byte	.LVL273
	.2byte	0x3
	.byte	0x91
	.sleb128 -188
	.4byte	.LVL274
	.4byte	.LVL278
	.2byte	0x3
	.byte	0x91
	.sleb128 -188
	.4byte	0
	.4byte	0
.LVUS21:
	.uleb128 .LVU241
	.uleb128 .LVU275
	.uleb128 .LVU275
	.uleb128 .LVU283
	.uleb128 .LVU757
	.uleb128 .LVU765
	.uleb128 .LVU765
	.uleb128 .LVU771
	.uleb128 .LVU812
	.uleb128 .LVU815
	.uleb128 .LVU815
	.uleb128 .LVU818
	.uleb128 .LVU818
	.uleb128 .LVU822
.LLST21:
	.4byte	.LVL76
	.4byte	.LVL87
	.2byte	0x1
	.byte	0x55
	.4byte	.LVL87
	.4byte	.LVL89-1
	.2byte	0x1
	.byte	0x53
	.4byte	.LVL254
	.4byte	.LVL256
	.2byte	0x1
	.byte	0x55
	.4byte	.LVL256
	.4byte	.LVL258-1
	.2byte	0x1
	.byte	0x53
	.4byte	.LVL274
	.4byte	.LVL277
	.2byte	0x1
	.byte	0x55
	.4byte	.LVL277
	.4byte	.LVL279-1
	.2byte	0x1
	.byte	0x53
	.4byte	.LVL279-1
	.4byte	.LVL280
	.2byte	0x3
	.byte	0x91
	.sleb128 -188
	.4byte	0
	.4byte	0
.LVUS22:
	.uleb128 .LVU241
	.uleb128 .LVU293
	.uleb128 .LVU757
	.uleb128 .LVU777
	.uleb128 .LVU810
	.uleb128 .LVU811
	.uleb128 .LVU812
	.uleb128 .LVU822
.LLST22:
	.4byte	.LVL76
	.4byte	.LVL92
	.2byte	0x1
	.byte	0x58
	.4byte	.LVL254
	.4byte	.LVL258
	.2byte	0x1
	.byte	0x58
	.4byte	.LVL271
	.4byte	.LVL273
	.2byte	0x1
	.byte	0x58
	.4byte	.LVL274
	.4byte	.LVL280
	.2byte	0x1
	.byte	0x58
	.4byte	0
	.4byte	0
.LVUS23:
	.uleb128 .LVU241
	.uleb128 .LVU293
	.uleb128 .LVU757
	.uleb128 .LVU777
	.uleb128 .LVU810
	.uleb128 .LVU811
	.uleb128 .LVU812
	.uleb128 .LVU822
.LLST23:
	.4byte	.LVL76
	.4byte	.LVL92
	.2byte	0x1
	.byte	0x54
	.4byte	.LVL254
	.4byte	.LVL258
	.2byte	0x1
	.byte	0x54
	.4byte	.LVL271
	.4byte	.LVL273
	.2byte	0x1
	.byte	0x54
	.4byte	.LVL274
	.4byte	.LVL280
	.2byte	0x1
	.byte	0x54
	.4byte	0
	.4byte	0
.LVUS24:
	.uleb128 .LVU250
	.uleb128 .LVU293
	.uleb128 .LVU757
	.uleb128 .LVU776
	.uleb128 .LVU776
	.uleb128 .LVU777
	.uleb128 .LVU810
	.uleb128 .LVU811
	.uleb128 .LVU812
	.uleb128 .LVU820
	.uleb128 .LVU820
	.uleb128 .LVU822
.LLST24:
	.4byte	.LVL83
	.4byte	.LVL92
	.2byte	0x2
	.byte	0x30
	.byte	0x9f
	.4byte	.LVL254
	.4byte	.LVL258
	.2byte	0x2
	.byte	0x30
	.byte	0x9f
	.4byte	.LVL258
	.4byte	.LVL258
	.2byte	0x6
	.byte	0xc
	.4byte	0x200000e
	.byte	0x9f
	.4byte	.LVL271
	.4byte	.LVL273
	.2byte	0x2
	.byte	0x30
	.byte	0x9f
	.4byte	.LVL274
	.4byte	.LVL279
	.2byte	0x2
	.byte	0x30
	.byte	0x9f
	.4byte	.LVL279
	.4byte	.LVL280
	.2byte	0x2
	.byte	0x3e
	.byte	0x9f
	.4byte	0
	.4byte	0
.LVUS25:
	.uleb128 .LVU258
	.uleb128 .LVU275
	.uleb128 .LVU275
	.uleb128 .LVU298
	.uleb128 .LVU757
	.uleb128 .LVU761
	.uleb128 .LVU761
	.uleb128 .LVU781
	.uleb128 .LVU810
	.uleb128 .LVU811
	.uleb128 .LVU812
	.uleb128 .LVU814
	.uleb128 .LVU814
	.uleb128 .LVU826
.LLST25:
	.4byte	.LVL86
	.4byte	.LVL87
	.2byte	0x1
	.byte	0x50
	.4byte	.LVL87
	.4byte	.LVL94
	.2byte	0x1
	.byte	0x57
	.4byte	.LVL254
	.4byte	.LVL255
	.2byte	0x1
	.byte	0x50
	.4byte	.LVL255
	.4byte	.LVL260
	.2byte	0x1
	.byte	0x57
	.4byte	.LVL271
	.4byte	.LVL273
	.2byte	0x1
	.byte	0x57
	.4byte	.LVL274
	.4byte	.LVL275
	.2byte	0x1
	.byte	0x50
	.4byte	.LVL275
	.4byte	.LVL282
	.2byte	0x1
	.byte	0x57
	.4byte	0
	.4byte	0
.LVUS26:
	.uleb128 .LVU252
	.uleb128 .LVU278
	.uleb128 .LVU757
	.uleb128 .LVU781
	.uleb128 .LVU812
	.uleb128 .LVU815
.LLST26:
	.4byte	.LVL83
	.4byte	.LVL88
	.2byte	0x1
	.byte	0x55
	.4byte	.LVL254
	.4byte	.LVL260
	.2byte	0x1
	.byte	0x55
	.4byte	.LVL274
	.4byte	.LVL277
	.2byte	0x1
	.byte	0x55
	.4byte	0
	.4byte	0
.LVUS27:
	.uleb128 .LVU761
	.uleb128 .LVU771
.LLST27:
	.4byte	.LVL255
	.4byte	.LVL258-1
	.2byte	0x1
	.byte	0x51
	.4byte	0
	.4byte	0
.LVUS28:
	.uleb128 .LVU312
	.uleb128 .LVU318
	.uleb128 .LVU318
	.uleb128 .LVU320
	.uleb128 .LVU320
	.uleb128 .LVU327
	.uleb128 .LVU543
	.uleb128 .LVU558
.LLST28:
	.4byte	.LVL98
	.4byte	.LVL101
	.2byte	0x3
	.byte	0x79
	.sleb128 -2
	.byte	0x9f
	.4byte	.LVL101
	.4byte	.LVL102
	.2byte	0x3
	.byte	0x79
	.sleb128 -3
	.byte	0x9f
	.4byte	.LVL102
	.4byte	.LVL105
	.2byte	0x3
	.byte	0x79
	.sleb128 -2
	.byte	0x9f
	.4byte	.LVL172
	.4byte	.LVL176
	.2byte	0x3
	.byte	0x79
	.sleb128 -2
	.byte	0x9f
	.4byte	0
	.4byte	0
.LVUS29:
	.uleb128 .LVU362
	.uleb128 .LVU402
	.uleb128 .LVU673
	.uleb128 .LVU675
	.uleb128 .LVU730
	.uleb128 .LVU750
	.uleb128 .LVU781
	.uleb128 .LVU800
	.uleb128 .LVU826
	.uleb128 .LVU849
	.uleb128 .LVU878
	.uleb128 .LVU892
	.uleb128 .LVU967
	.uleb128 .LVU980
	.uleb128 .LVU1003
	.uleb128 .LVU1028
.LLST29:
	.4byte	.LVL117
	.4byte	.LVL126
	.2byte	0x3
	.byte	0x91
	.sleb128 -188
	.4byte	.LVL213
	.4byte	.LVL215
	.2byte	0x3
	.byte	0x91
	.sleb128 -188
	.4byte	.LVL241
	.4byte	.LVL251
	.2byte	0x3
	.byte	0x91
	.sleb128 -188
	.4byte	.LVL260
	.4byte	.LVL266
	.2byte	0x3
	.byte	0x91
	.sleb128 -188
	.4byte	.LVL282
	.4byte	.LVL284
	.2byte	0x3
	.byte	0x91
	.sleb128 -188
	.4byte	.LVL295
	.4byte	.LVL297
	.2byte	0x3
	.byte	0x91
	.sleb128 -188
	.4byte	.LVL317
	.4byte	.LVL324
	.2byte	0x3
	.byte	0x91
	.sleb128 -188
	.4byte	.LVL331
	.4byte	.LVL337
	.2byte	0x3
	.byte	0x91
	.sleb128 -188
	.4byte	0
	.4byte	0
.LVUS30:
	.uleb128 .LVU362
	.uleb128 .LVU373
	.uleb128 .LVU373
	.uleb128 .LVU385
	.uleb128 .LVU385
	.uleb128 .LVU387
	.uleb128 .LVU387
	.uleb128 .LVU391
	.uleb128 .LVU391
	.uleb128 .LVU394
	.uleb128 .LVU397
	.uleb128 .LVU404
	.uleb128 .LVU673
	.uleb128 .LVU675
	.uleb128 .LVU730
	.uleb128 .LVU735
	.uleb128 .LVU735
	.uleb128 .LVU739
	.uleb128 .LVU739
	.uleb128 .LVU747
	.uleb128 .LVU747
	.uleb128 .LVU749
	.uleb128 .LVU786
	.uleb128 .LVU791
	.uleb128 .LVU791
	.uleb128 .LVU800
	.uleb128 .LVU826
	.uleb128 .LVU860
	.uleb128 .LVU860
	.uleb128 .LVU868
	.uleb128 .LVU868
	.uleb128 .LVU872
	.uleb128 .LVU872
	.uleb128 .LVU878
	.uleb128 .LVU878
	.uleb128 .LVU909
	.uleb128 .LVU909
	.uleb128 .LVU924
	.uleb128 .LVU924
	.uleb128 .LVU927
	.uleb128 .LVU927
	.uleb128 .LVU928
	.uleb128 .LVU928
	.uleb128 .LVU942
	.uleb128 .LVU942
	.uleb128 .LVU949
	.uleb128 .LVU954
	.uleb128 .LVU955
	.uleb128 .LVU955
	.uleb128 .LVU964
	.uleb128 .LVU964
	.uleb128 .LVU967
	.uleb128 .LVU967
	.uleb128 .LVU970
	.uleb128 .LVU976
	.uleb128 .LVU979
	.uleb128 .LVU979
	.uleb128 .LVU980
	.uleb128 .LVU1003
	.uleb128 .LVU1012
	.uleb128 .LVU1012
	.uleb128 .LVU1019
	.uleb128 .LVU1019
	.uleb128 .LVU1028
	.uleb128 .LVU1028
	.uleb128 .LVU1033
	.uleb128 .LVU1033
	.uleb128 .LVU1034
.LLST30:
	.4byte	.LVL117
	.4byte	.LVL119
	.2byte	0x1
	.byte	0x55
	.4byte	.LVL119
	.4byte	.LVL120
	.2byte	0x1
	.byte	0x57
	.4byte	.LVL120
	.4byte	.LVL121
	.2byte	0x3
	.byte	0x75
	.sleb128 -2
	.byte	0x9f
	.4byte	.LVL121
	.4byte	.LVL123
	.2byte	0x1
	.byte	0x58
	.4byte	.LVL123
	.4byte	.LVL124
	.2byte	0x3
	.byte	0x78
	.sleb128 -1
	.byte	0x9f
	.4byte	.LVL125
	.4byte	.LVL127
	.2byte	0x1
	.byte	0x55
	.4byte	.LVL213
	.4byte	.LVL215
	.2byte	0x1
	.byte	0x55
	.4byte	.LVL241
	.4byte	.LVL243
	.2byte	0x1
	.byte	0x57
	.4byte	.LVL243
	.4byte	.LVL245
	.2byte	0x3
	.byte	0x75
	.sleb128 -2
	.byte	0x9f
	.4byte	.LVL245
	.4byte	.LVL248
	.2byte	0x1
	.byte	0x58
	.4byte	.LVL248
	.4byte	.LVL249
	.2byte	0x3
	.byte	0x78
	.sleb128 -1
	.byte	0x9f
	.4byte	.LVL262
	.4byte	.LVL264
	.2byte	0x1
	.byte	0x58
	.4byte	.LVL264
	.4byte	.LVL266
	.2byte	0x1
	.byte	0x55
	.4byte	.LVL282
	.4byte	.LVL288
	.2byte	0x1
	.byte	0x55
	.4byte	.LVL288
	.4byte	.LVL291
	.2byte	0x1
	.byte	0x56
	.4byte	.LVL291
	.4byte	.LVL292
	.2byte	0x1
	.byte	0x51
	.4byte	.LVL292
	.4byte	.LVL295
	.2byte	0x1
	.byte	0x56
	.4byte	.LVL295
	.4byte	.LVL301
	.2byte	0x1
	.byte	0x55
	.4byte	.LVL301
	.4byte	.LVL306
	.2byte	0x1
	.byte	0x58
	.4byte	.LVL306
	.4byte	.LVL307
	.2byte	0x1
	.byte	0x55
	.4byte	.LVL307
	.4byte	.LVL308
	.2byte	0x1
	.byte	0x58
	.4byte	.LVL308
	.4byte	.LVL311
	.2byte	0x1
	.byte	0x55
	.4byte	.LVL311
	.4byte	.LVL312
	.2byte	0x1
	.byte	0x51
	.4byte	.LVL313
	.4byte	.LVL314
	.2byte	0x1
	.byte	0x55
	.4byte	.LVL314
	.4byte	.LVL315
	.2byte	0x1
	.byte	0x58
	.4byte	.LVL315
	.4byte	.LVL317
	.2byte	0x1
	.byte	0x55
	.4byte	.LVL317
	.4byte	.LVL319
	.2byte	0x3
	.byte	0x75
	.sleb128 -2
	.byte	0x9f
	.4byte	.LVL322
	.4byte	.LVL323
	.2byte	0x1
	.byte	0x58
	.4byte	.LVL323
	.4byte	.LVL324
	.2byte	0x1
	.byte	0x55
	.4byte	.LVL331
	.4byte	.LVL333
	.2byte	0x1
	.byte	0x57
	.4byte	.LVL333
	.4byte	.LVL335
	.2byte	0x1
	.byte	0x55
	.4byte	.LVL335
	.4byte	.LVL337
	.2byte	0x1
	.byte	0x57
	.4byte	.LVL337
	.4byte	.LVL339
	.2byte	0x1
	.byte	0x55
	.4byte	.LVL339
	.4byte	.LVL340-1
	.2byte	0x1
	.byte	0x51
	.4byte	0
	.4byte	0
.LVUS31:
	.uleb128 .LVU362
	.uleb128 .LVU404
	.uleb128 .LVU673
	.uleb128 .LVU675
	.uleb128 .LVU730
	.uleb128 .LVU750
	.uleb128 .LVU781
	.uleb128 .LVU800
	.uleb128 .LVU826
	.uleb128 .LVU980
	.uleb128 .LVU1003
	.uleb128 .LVU1035
.LLST31:
	.4byte	.LVL117
	.4byte	.LVL127
	.2byte	0x2
	.byte	0x33
	.byte	0x9f
	.4byte	.LVL213
	.4byte	.LVL215
	.2byte	0x2
	.byte	0x33
	.byte	0x9f
	.4byte	.LVL241
	.4byte	.LVL251
	.2byte	0x2
	.byte	0x33
	.byte	0x9f
	.4byte	.LVL260
	.4byte	.LVL266
	.2byte	0x2
	.byte	0x33
	.byte	0x9f
	.4byte	.LVL282
	.4byte	.LVL324
	.2byte	0x2
	.byte	0x33
	.byte	0x9f
	.4byte	.LVL331
	.4byte	.LVL341
	.2byte	0x2
	.byte	0x33
	.byte	0x9f
	.4byte	0
	.4byte	0
.LVUS32:
	.uleb128 .LVU362
	.uleb128 .LVU404
	.uleb128 .LVU673
	.uleb128 .LVU675
	.uleb128 .LVU730
	.uleb128 .LVU750
	.uleb128 .LVU781
	.uleb128 .LVU800
	.uleb128 .LVU826
	.uleb128 .LVU861
	.uleb128 .LVU861
	.uleb128 .LVU862
	.uleb128 .LVU862
	.uleb128 .LVU876
	.uleb128 .LVU876
	.uleb128 .LVU877
	.uleb128 .LVU877
	.uleb128 .LVU909
	.uleb128 .LVU909
	.uleb128 .LVU910
	.uleb128 .LVU910
	.uleb128 .LVU922
	.uleb128 .LVU922
	.uleb128 .LVU923
	.uleb128 .LVU923
	.uleb128 .LVU980
	.uleb128 .LVU1003
	.uleb128 .LVU1035
.LLST32:
	.4byte	.LVL117
	.4byte	.LVL127
	.2byte	0x1
	.byte	0x54
	.4byte	.LVL213
	.4byte	.LVL215
	.2byte	0x1
	.byte	0x54
	.4byte	.LVL241
	.4byte	.LVL251
	.2byte	0x1
	.byte	0x54
	.4byte	.LVL260
	.4byte	.LVL266
	.2byte	0x1
	.byte	0x54
	.4byte	.LVL282
	.4byte	.LVL289
	.2byte	0x1
	.byte	0x54
	.4byte	.LVL289
	.4byte	.LVL290
	.2byte	0x1
	.byte	0x50
	.4byte	.LVL290
	.4byte	.LVL293
	.2byte	0x1
	.byte	0x54
	.4byte	.LVL293
	.4byte	.LVL294-1
	.2byte	0x1
	.byte	0x50
	.4byte	.LVL294-1
	.4byte	.LVL301
	.2byte	0x1
	.byte	0x54
	.4byte	.LVL301
	.4byte	.LVL302
	.2byte	0x1
	.byte	0x50
	.4byte	.LVL302
	.4byte	.LVL304
	.2byte	0x1
	.byte	0x54
	.4byte	.LVL304
	.4byte	.LVL305-1
	.2byte	0x1
	.byte	0x50
	.4byte	.LVL305-1
	.4byte	.LVL324
	.2byte	0x1
	.byte	0x54
	.4byte	.LVL331
	.4byte	.LVL341
	.2byte	0x1
	.byte	0x54
	.4byte	0
	.4byte	0
.LVUS33:
	.uleb128 .LVU850
	.uleb128 .LVU861
	.uleb128 .LVU861
	.uleb128 .LVU878
	.uleb128 .LVU893
	.uleb128 .LVU900
	.uleb128 .LVU900
	.uleb128 .LVU967
	.uleb128 .LVU1028
	.uleb128 .LVU1035
.LLST33:
	.4byte	.LVL284
	.4byte	.LVL289
	.2byte	0x1
	.byte	0x50
	.4byte	.LVL289
	.4byte	.LVL295
	.2byte	0x3
	.byte	0x91
	.sleb128 -172
	.4byte	.LVL297
	.4byte	.LVL298
	.2byte	0x1
	.byte	0x50
	.4byte	.LVL298
	.4byte	.LVL317
	.2byte	0x3
	.byte	0x91
	.sleb128 -172
	.4byte	.LVL337
	.4byte	.LVL341
	.2byte	0x3
	.byte	0x91
	.sleb128 -172
	.4byte	0
	.4byte	0
.LVUS34:
	.uleb128 .LVU365
	.uleb128 .LVU404
	.uleb128 .LVU673
	.uleb128 .LVU675
	.uleb128 .LVU730
	.uleb128 .LVU750
	.uleb128 .LVU781
	.uleb128 .LVU797
	.uleb128 .LVU797
	.uleb128 .LVU800
	.uleb128 .LVU826
	.uleb128 .LVU980
	.uleb128 .LVU1003
	.uleb128 .LVU1011
	.uleb128 .LVU1011
	.uleb128 .LVU1012
	.uleb128 .LVU1012
	.uleb128 .LVU1018
	.uleb128 .LVU1018
	.uleb128 .LVU1019
	.uleb128 .LVU1019
	.uleb128 .LVU1027
	.uleb128 .LVU1027
	.uleb128 .LVU1028
	.uleb128 .LVU1028
	.uleb128 .LVU1035
.LLST34:
	.4byte	.LVL117
	.4byte	.LVL127
	.2byte	0x2
	.byte	0x30
	.byte	0x9f
	.4byte	.LVL213
	.4byte	.LVL215
	.2byte	0x2
	.byte	0x30
	.byte	0x9f
	.4byte	.LVL241
	.4byte	.LVL251
	.2byte	0x2
	.byte	0x30
	.byte	0x9f
	.4byte	.LVL260
	.4byte	.LVL265
	.2byte	0x2
	.byte	0x30
	.byte	0x9f
	.4byte	.LVL265
	.4byte	.LVL266
	.2byte	0x6
	.byte	0xc
	.4byte	0x200000e
	.byte	0x9f
	.4byte	.LVL282
	.4byte	.LVL324
	.2byte	0x2
	.byte	0x30
	.byte	0x9f
	.4byte	.LVL331
	.4byte	.LVL332
	.2byte	0x2
	.byte	0x30
	.byte	0x9f
	.4byte	.LVL332
	.4byte	.LVL333
	.2byte	0x6
	.byte	0xc
	.4byte	0x200000e
	.byte	0x9f
	.4byte	.LVL333
	.4byte	.LVL334
	.2byte	0x2
	.byte	0x30
	.byte	0x9f
	.4byte	.LVL334
	.4byte	.LVL335
	.2byte	0x6
	.byte	0xc
	.4byte	0x200000e
	.byte	0x9f
	.4byte	.LVL335
	.4byte	.LVL336
	.2byte	0x2
	.byte	0x30
	.byte	0x9f
	.4byte	.LVL336
	.4byte	.LVL337
	.2byte	0x6
	.byte	0xc
	.4byte	0x200000e
	.byte	0x9f
	.4byte	.LVL337
	.4byte	.LVL341
	.2byte	0x2
	.byte	0x30
	.byte	0x9f
	.4byte	0
	.4byte	0
.LVUS35:
	.uleb128 .LVU857
	.uleb128 .LVU861
	.uleb128 .LVU906
	.uleb128 .LVU909
	.uleb128 .LVU924
	.uleb128 .LVU927
.LLST35:
	.4byte	.LVL285
	.4byte	.LVL289
	.2byte	0x2
	.byte	0x30
	.byte	0x9f
	.4byte	.LVL299
	.4byte	.LVL301
	.2byte	0x2
	.byte	0x30
	.byte	0x9f
	.4byte	.LVL306
	.4byte	.LVL307
	.2byte	0x2
	.byte	0x30
	.byte	0x9f
	.4byte	0
	.4byte	0
.LVUS36:
	.uleb128 .LVU370
	.uleb128 .LVU408
	.uleb128 .LVU730
	.uleb128 .LVU750
	.uleb128 .LVU781
	.uleb128 .LVU791
	.uleb128 .LVU826
	.uleb128 .LVU980
	.uleb128 .LVU1003
	.uleb128 .LVU1035
.LLST36:
	.4byte	.LVL118
	.4byte	.LVL128
	.2byte	0x1
	.byte	0x5b
	.4byte	.LVL241
	.4byte	.LVL251
	.2byte	0x1
	.byte	0x5b
	.4byte	.LVL260
	.4byte	.LVL264
	.2byte	0x1
	.byte	0x5b
	.4byte	.LVL282
	.4byte	.LVL324
	.2byte	0x1
	.byte	0x5b
	.4byte	.LVL331
	.4byte	.LVL341
	.2byte	0x1
	.byte	0x5b
	.4byte	0
	.4byte	0
.LVUS37:
	.uleb128 .LVU390
	.uleb128 .LVU402
	.uleb128 .LVU746
	.uleb128 .LVU750
	.uleb128 .LVU826
	.uleb128 .LVU908
	.uleb128 .LVU908
	.uleb128 .LVU924
	.uleb128 .LVU924
	.uleb128 .LVU927
	.uleb128 .LVU942
	.uleb128 .LVU955
	.uleb128 .LVU955
	.uleb128 .LVU964
	.uleb128 .LVU979
	.uleb128 .LVU980
	.uleb128 .LVU1012
	.uleb128 .LVU1019
	.uleb128 .LVU1033
	.uleb128 .LVU1035
.LLST37:
	.4byte	.LVL123
	.4byte	.LVL126
	.2byte	0x1
	.byte	0x57
	.4byte	.LVL248
	.4byte	.LVL251
	.2byte	0x1
	.byte	0x57
	.4byte	.LVL282
	.4byte	.LVL300
	.2byte	0x1
	.byte	0x57
	.4byte	.LVL300
	.4byte	.LVL306
	.2byte	0x3
	.byte	0x91
	.sleb128 -168
	.4byte	.LVL306
	.4byte	.LVL307
	.2byte	0x1
	.byte	0x57
	.4byte	.LVL311
	.4byte	.LVL314
	.2byte	0x1
	.byte	0x57
	.4byte	.LVL314
	.4byte	.LVL315
	.2byte	0x3
	.byte	0x91
	.sleb128 -168
	.4byte	.LVL323
	.4byte	.LVL324
	.2byte	0x1
	.byte	0x57
	.4byte	.LVL333
	.4byte	.LVL335
	.2byte	0x1
	.byte	0x57
	.4byte	.LVL339
	.4byte	.LVL341
	.2byte	0x1
	.byte	0x57
	.4byte	0
	.4byte	0
.LVUS38:
	.uleb128 .LVU384
	.uleb128 .LVU387
	.uleb128 .LVU387
	.uleb128 .LVU408
	.uleb128 .LVU734
	.uleb128 .LVU738
	.uleb128 .LVU738
	.uleb128 .LVU750
	.uleb128 .LVU781
	.uleb128 .LVU791
	.uleb128 .LVU826
	.uleb128 .LVU967
	.uleb128 .LVU967
	.uleb128 .LVU969
	.uleb128 .LVU969
	.uleb128 .LVU980
	.uleb128 .LVU1012
	.uleb128 .LVU1019
	.uleb128 .LVU1028
	.uleb128 .LVU1035
.LLST38:
	.4byte	.LVL120
	.4byte	.LVL121
	.2byte	0x1
	.byte	0x51
	.4byte	.LVL121
	.4byte	.LVL128
	.2byte	0x3
	.byte	0x91
	.sleb128 -184
	.4byte	.LVL243
	.4byte	.LVL244
	.2byte	0x1
	.byte	0x53
	.4byte	.LVL244
	.4byte	.LVL251
	.2byte	0x3
	.byte	0x91
	.sleb128 -184
	.4byte	.LVL260
	.4byte	.LVL264
	.2byte	0x3
	.byte	0x91
	.sleb128 -184
	.4byte	.LVL282
	.4byte	.LVL317
	.2byte	0x3
	.byte	0x91
	.sleb128 -184
	.4byte	.LVL317
	.4byte	.LVL318
	.2byte	0x1
	.byte	0x53
	.4byte	.LVL318
	.4byte	.LVL324
	.2byte	0x3
	.byte	0x91
	.sleb128 -184
	.4byte	.LVL333
	.4byte	.LVL335
	.2byte	0x3
	.byte	0x91
	.sleb128 -184
	.4byte	.LVL337
	.4byte	.LVL341
	.2byte	0x3
	.byte	0x91
	.sleb128 -184
	.4byte	0
	.4byte	0
.LVUS39:
	.uleb128 .LVU387
	.uleb128 .LVU404
	.uleb128 .LVU740
	.uleb128 .LVU750
	.uleb128 .LVU785
	.uleb128 .LVU790
	.uleb128 .LVU826
	.uleb128 .LVU967
	.uleb128 .LVU973
	.uleb128 .LVU975
	.uleb128 .LVU979
	.uleb128 .LVU980
	.uleb128 .LVU1012
	.uleb128 .LVU1019
	.uleb128 .LVU1028
	.uleb128 .LVU1035
.LLST39:
	.4byte	.LVL121
	.4byte	.LVL127
	.2byte	0x1
	.byte	0x5a
	.4byte	.LVL246
	.4byte	.LVL251
	.2byte	0x1
	.byte	0x5a
	.4byte	.LVL262
	.4byte	.LVL263
	.2byte	0x6
	.byte	0x70
	.sleb128 0
	.byte	0x8
	.byte	0xff
	.byte	0x1a
	.byte	0x9f
	.4byte	.LVL282
	.4byte	.LVL317
	.2byte	0x1
	.byte	0x5a
	.4byte	.LVL320
	.4byte	.LVL321
	.2byte	0xb
	.byte	0x7c
	.sleb128 0
	.byte	0x70
	.sleb128 0
	.byte	0x22
	.byte	0x94
	.byte	0x1
	.byte	0x8
	.byte	0xff
	.byte	0x1a
	.byte	0x9f
	.4byte	.LVL323
	.4byte	.LVL324
	.2byte	0x1
	.byte	0x5a
	.4byte	.LVL333
	.4byte	.LVL335
	.2byte	0x1
	.byte	0x5a
	.4byte	.LVL337
	.4byte	.LVL341
	.2byte	0x1
	.byte	0x5a
	.4byte	0
	.4byte	0
.LVUS40:
	.uleb128 .LVU394
	.uleb128 .LVU408
	.uleb128 .LVU826
	.uleb128 .LVU967
	.uleb128 .LVU979
	.uleb128 .LVU980
	.uleb128 .LVU1012
	.uleb128 .LVU1019
	.uleb128 .LVU1028
	.uleb128 .LVU1035
.LLST40:
	.4byte	.LVL124
	.4byte	.LVL128
	.2byte	0x3
	.byte	0x91
	.sleb128 -176
	.4byte	.LVL282
	.4byte	.LVL317
	.2byte	0x3
	.byte	0x91
	.sleb128 -176
	.4byte	.LVL323
	.4byte	.LVL324
	.2byte	0x3
	.byte	0x91
	.sleb128 -176
	.4byte	.LVL333
	.4byte	.LVL335
	.2byte	0x3
	.byte	0x91
	.sleb128 -176
	.4byte	.LVL337
	.4byte	.LVL341
	.2byte	0x3
	.byte	0x91
	.sleb128 -176
	.4byte	0
	.4byte	0
.LVUS41:
	.uleb128 .LVU849
	.uleb128 .LVU858
	.uleb128 .LVU858
	.uleb128 .LVU878
	.uleb128 .LVU892
	.uleb128 .LVU967
	.uleb128 .LVU1028
	.uleb128 .LVU1035
.LLST41:
	.4byte	.LVL284
	.4byte	.LVL286
	.2byte	0x1
	.byte	0x52
	.4byte	.LVL286
	.4byte	.LVL295
	.2byte	0x3
	.byte	0x91
	.sleb128 -188
	.4byte	.LVL297
	.4byte	.LVL317
	.2byte	0x3
	.byte	0x91
	.sleb128 -188
	.4byte	.LVL337
	.4byte	.LVL341
	.2byte	0x3
	.byte	0x91
	.sleb128 -188
	.4byte	0
	.4byte	0
.LVUS42:
	.uleb128 .LVU878
	.uleb128 .LVU879
.LLST42:
	.4byte	.LVL295
	.4byte	.LVL295
	.2byte	0x2
	.byte	0x30
	.byte	0x9f
	.4byte	0
	.4byte	0
.LVUS43:
	.uleb128 .LVU413
	.uleb128 .LVU442
	.uleb128 .LVU980
	.uleb128 .LVU988
.LLST43:
	.4byte	.LVL131
	.4byte	.LVL143
	.2byte	0x2
	.byte	0x43
	.byte	0x9f
	.4byte	.LVL324
	.4byte	.LVL326
	.2byte	0x2
	.byte	0x43
	.byte	0x9f
	.4byte	0
	.4byte	0
.LVUS44:
	.uleb128 .LVU412
	.uleb128 .LVU442
	.uleb128 .LVU980
	.uleb128 .LVU988
.LLST44:
	.4byte	.LVL131
	.4byte	.LVL143
	.2byte	0x3
	.byte	0x91
	.sleb128 -188
	.4byte	.LVL324
	.4byte	.LVL326
	.2byte	0x3
	.byte	0x91
	.sleb128 -188
	.4byte	0
	.4byte	0
.LVUS45:
	.uleb128 .LVU412
	.uleb128 .LVU420
	.uleb128 .LVU420
	.uleb128 .LVU422
.LLST45:
	.4byte	.LVL131
	.4byte	.LVL133
	.2byte	0x1
	.byte	0x55
	.4byte	.LVL133
	.4byte	.LVL134
	.2byte	0x3
	.byte	0x75
	.sleb128 20
	.byte	0x9f
	.4byte	0
	.4byte	0
.LVUS46:
	.uleb128 .LVU412
	.uleb128 .LVU430
	.uleb128 .LVU430
	.uleb128 .LVU432
	.uleb128 .LVU432
	.uleb128 .LVU440
	.uleb128 .LVU440
	.uleb128 .LVU441
	.uleb128 .LVU441
	.uleb128 .LVU442
	.uleb128 .LVU980
	.uleb128 .LVU988
.LLST46:
	.4byte	.LVL131
	.4byte	.LVL137
	.2byte	0x1
	.byte	0x54
	.4byte	.LVL137
	.4byte	.LVL138
	.2byte	0x1
	.byte	0x50
	.4byte	.LVL138
	.4byte	.LVL141
	.2byte	0x1
	.byte	0x54
	.4byte	.LVL141
	.4byte	.LVL142-1
	.2byte	0x1
	.byte	0x50
	.4byte	.LVL142-1
	.4byte	.LVL143
	.2byte	0x1
	.byte	0x54
	.4byte	.LVL324
	.4byte	.LVL326
	.2byte	0x1
	.byte	0x54
	.4byte	0
	.4byte	0
.LVUS47:
	.uleb128 .LVU414
	.uleb128 .LVU442
	.uleb128 .LVU980
	.uleb128 .LVU987
	.uleb128 .LVU987
	.uleb128 .LVU988
.LLST47:
	.4byte	.LVL131
	.4byte	.LVL143
	.2byte	0x2
	.byte	0x30
	.byte	0x9f
	.4byte	.LVL324
	.4byte	.LVL326
	.2byte	0x2
	.byte	0x30
	.byte	0x9f
	.4byte	.LVL326
	.4byte	.LVL326
	.2byte	0x6
	.byte	0xc
	.4byte	0x200000e
	.byte	0x9f
	.4byte	0
	.4byte	0
.LVUS48:
	.uleb128 .LVU427
	.uleb128 .LVU430
	.uleb128 .LVU980
	.uleb128 .LVU982
	.uleb128 .LVU982
	.uleb128 .LVU992
.LLST48:
	.4byte	.LVL136
	.4byte	.LVL137
	.2byte	0x1
	.byte	0x50
	.4byte	.LVL324
	.4byte	.LVL325
	.2byte	0x1
	.byte	0x50
	.4byte	.LVL325
	.4byte	.LVL328
	.2byte	0x1
	.byte	0x55
	.4byte	0
	.4byte	0
.LVUS49:
	.uleb128 .LVU430
	.uleb128 .LVU433
	.uleb128 .LVU433
	.uleb128 .LVU434
	.uleb128 .LVU434
	.uleb128 .LVU442
.LLST49:
	.4byte	.LVL137
	.4byte	.LVL139
	.2byte	0x1
	.byte	0x55
	.4byte	.LVL139
	.4byte	.LVL139
	.2byte	0x3
	.byte	0x75
	.sleb128 -1
	.byte	0x9f
	.4byte	.LVL139
	.4byte	.LVL143
	.2byte	0x1
	.byte	0x55
	.4byte	0
	.4byte	0
.LVUS50:
	.uleb128 .LVU444
	.uleb128 .LVU490
	.uleb128 .LVU635
	.uleb128 .LVU648
	.uleb128 .LVU675
	.uleb128 .LVU697
	.uleb128 .LVU809
	.uleb128 .LVU810
	.uleb128 .LVU992
	.uleb128 .LVU999
	.uleb128 .LVU1035
	.uleb128 .LVU1037
.LLST50:
	.4byte	.LVL143
	.4byte	.LVL153
	.2byte	0x1
	.byte	0x5a
	.4byte	.LVL198
	.4byte	.LVL204
	.2byte	0x1
	.byte	0x5a
	.4byte	.LVL215
	.4byte	.LVL222
	.2byte	0x1
	.byte	0x5a
	.4byte	.LVL270
	.4byte	.LVL271
	.2byte	0x1
	.byte	0x5a
	.4byte	.LVL328
	.4byte	.LVL329
	.2byte	0x1
	.byte	0x5a
	.4byte	.LVL341
	.4byte	.LVL342
	.2byte	0x1
	.byte	0x5a
	.4byte	0
	.4byte	0
.LVUS51:
	.uleb128 .LVU444
	.uleb128 .LVU508
	.uleb128 .LVU635
	.uleb128 .LVU648
	.uleb128 .LVU675
	.uleb128 .LVU694
	.uleb128 .LVU809
	.uleb128 .LVU810
	.uleb128 .LVU992
	.uleb128 .LVU999
	.uleb128 .LVU1035
	.uleb128 0
.LLST51:
	.4byte	.LVL143
	.4byte	.LVL161
	.2byte	0x3
	.byte	0x91
	.sleb128 -188
	.4byte	.LVL198
	.4byte	.LVL204
	.2byte	0x3
	.byte	0x91
	.sleb128 -188
	.4byte	.LVL215
	.4byte	.LVL219
	.2byte	0x3
	.byte	0x91
	.sleb128 -188
	.4byte	.LVL270
	.4byte	.LVL271
	.2byte	0x3
	.byte	0x91
	.sleb128 -188
	.4byte	.LVL328
	.4byte	.LVL329
	.2byte	0x3
	.byte	0x91
	.sleb128 -188
	.4byte	.LVL341
	.4byte	.LFE50
	.2byte	0x3
	.byte	0x91
	.sleb128 -188
	.4byte	0
	.4byte	0
.LVUS52:
	.uleb128 .LVU444
	.uleb128 .LVU458
	.uleb128 .LVU462
	.uleb128 .LVU508
	.uleb128 .LVU592
	.uleb128 .LVU596
	.uleb128 .LVU601
	.uleb128 .LVU632
	.uleb128 .LVU635
	.uleb128 .LVU640
	.uleb128 .LVU644
	.uleb128 .LVU673
	.uleb128 .LVU675
	.uleb128 .LVU691
	.uleb128 .LVU809
	.uleb128 .LVU810
	.uleb128 .LVU992
	.uleb128 .LVU999
	.uleb128 .LVU1035
	.uleb128 0
.LLST52:
	.4byte	.LVL143
	.4byte	.LVL144
	.2byte	0x1
	.byte	0x55
	.4byte	.LVL146
	.4byte	.LVL161
	.2byte	0x1
	.byte	0x55
	.4byte	.LVL188
	.4byte	.LVL189
	.2byte	0x1
	.byte	0x55
	.4byte	.LVL190
	.4byte	.LVL196
	.2byte	0x1
	.byte	0x55
	.4byte	.LVL198
	.4byte	.LVL200
	.2byte	0x1
	.byte	0x55
	.4byte	.LVL201
	.4byte	.LVL213
	.2byte	0x1
	.byte	0x55
	.4byte	.LVL215
	.4byte	.LVL218
	.2byte	0x2
	.byte	0x30
	.byte	0x9f
	.4byte	.LVL270
	.4byte	.LVL271
	.2byte	0x1
	.byte	0x55
	.4byte	.LVL328
	.4byte	.LVL329
	.2byte	0x1
	.byte	0x55
	.4byte	.LVL341
	.4byte	.LFE50
	.2byte	0x1
	.byte	0x55
	.4byte	0
	.4byte	0
.LVUS53:
	.uleb128 .LVU444
	.uleb128 .LVU508
	.uleb128 .LVU591
	.uleb128 .LVU632
	.uleb128 .LVU635
	.uleb128 .LVU673
	.uleb128 .LVU675
	.uleb128 .LVU712
	.uleb128 .LVU809
	.uleb128 .LVU810
	.uleb128 .LVU811
	.uleb128 .LVU812
	.uleb128 .LVU992
	.uleb128 .LVU999
	.uleb128 .LVU1035
	.uleb128 0
.LLST53:
	.4byte	.LVL143
	.4byte	.LVL161
	.2byte	0x2
	.byte	0x3b
	.byte	0x9f
	.4byte	.LVL187
	.4byte	.LVL196
	.2byte	0x2
	.byte	0x3b
	.byte	0x9f
	.4byte	.LVL198
	.4byte	.LVL213
	.2byte	0x2
	.byte	0x3b
	.byte	0x9f
	.4byte	.LVL215
	.4byte	.LVL230
	.2byte	0x2
	.byte	0x3b
	.byte	0x9f
	.4byte	.LVL270
	.4byte	.LVL271
	.2byte	0x2
	.byte	0x3b
	.byte	0x9f
	.4byte	.LVL273
	.4byte	.LVL274
	.2byte	0x2
	.byte	0x3b
	.byte	0x9f
	.4byte	.LVL328
	.4byte	.LVL329
	.2byte	0x2
	.byte	0x3b
	.byte	0x9f
	.4byte	.LVL341
	.4byte	.LFE50
	.2byte	0x2
	.byte	0x3b
	.byte	0x9f
	.4byte	0
	.4byte	0
.LVUS54:
	.uleb128 .LVU444
	.uleb128 .LVU491
	.uleb128 .LVU491
	.uleb128 .LVU492
	.uleb128 .LVU492
	.uleb128 .LVU505
	.uleb128 .LVU505
	.uleb128 .LVU506
	.uleb128 .LVU506
	.uleb128 .LVU508
	.uleb128 .LVU591
	.uleb128 .LVU632
	.uleb128 .LVU635
	.uleb128 .LVU673
	.uleb128 .LVU675
	.uleb128 .LVU697
	.uleb128 .LVU697
	.uleb128 .LVU698
	.uleb128 .LVU698
	.uleb128 .LVU707
	.uleb128 .LVU707
	.uleb128 .LVU708
	.uleb128 .LVU708
	.uleb128 .LVU712
	.uleb128 .LVU809
	.uleb128 .LVU810
	.uleb128 .LVU811
	.uleb128 .LVU812
	.uleb128 .LVU992
	.uleb128 .LVU999
	.uleb128 .LVU1035
	.uleb128 0
.LLST54:
	.4byte	.LVL143
	.4byte	.LVL154
	.2byte	0x1
	.byte	0x54
	.4byte	.LVL154
	.4byte	.LVL155
	.2byte	0x1
	.byte	0x50
	.4byte	.LVL155
	.4byte	.LVL159
	.2byte	0x1
	.byte	0x54
	.4byte	.LVL159
	.4byte	.LVL160-1
	.2byte	0x1
	.byte	0x50
	.4byte	.LVL160-1
	.4byte	.LVL161
	.2byte	0x1
	.byte	0x54
	.4byte	.LVL187
	.4byte	.LVL196
	.2byte	0x1
	.byte	0x54
	.4byte	.LVL198
	.4byte	.LVL213
	.2byte	0x1
	.byte	0x54
	.4byte	.LVL215
	.4byte	.LVL222
	.2byte	0x1
	.byte	0x54
	.4byte	.LVL222
	.4byte	.LVL223
	.2byte	0x1
	.byte	0x50
	.4byte	.LVL223
	.4byte	.LVL227
	.2byte	0x1
	.byte	0x54
	.4byte	.LVL227
	.4byte	.LVL228-1
	.2byte	0x1
	.byte	0x50
	.4byte	.LVL228-1
	.4byte	.LVL230
	.2byte	0x1
	.byte	0x54
	.4byte	.LVL270
	.4byte	.LVL271
	.2byte	0x1
	.byte	0x54
	.4byte	.LVL273
	.4byte	.LVL274
	.2byte	0x1
	.byte	0x54
	.4byte	.LVL328
	.4byte	.LVL329
	.2byte	0x1
	.byte	0x54
	.4byte	.LVL341
	.4byte	.LFE50
	.2byte	0x1
	.byte	0x54
	.4byte	0
	.4byte	0
.LVUS55:
	.uleb128 .LVU446
	.uleb128 .LVU508
	.uleb128 .LVU591
	.uleb128 .LVU632
	.uleb128 .LVU635
	.uleb128 .LVU673
	.uleb128 .LVU675
	.uleb128 .LVU712
	.uleb128 .LVU809
	.uleb128 .LVU810
	.uleb128 .LVU811
	.uleb128 .LVU812
	.uleb128 .LVU992
	.uleb128 .LVU998
	.uleb128 .LVU998
	.uleb128 .LVU999
	.uleb128 .LVU1035
	.uleb128 0
.LLST55:
	.4byte	.LVL143
	.4byte	.LVL161
	.2byte	0x2
	.byte	0x30
	.byte	0x9f
	.4byte	.LVL187
	.4byte	.LVL196
	.2byte	0x2
	.byte	0x30
	.byte	0x9f
	.4byte	.LVL198
	.4byte	.LVL213
	.2byte	0x2
	.byte	0x30
	.byte	0x9f
	.4byte	.LVL215
	.4byte	.LVL230
	.2byte	0x2
	.byte	0x30
	.byte	0x9f
	.4byte	.LVL270
	.4byte	.LVL271
	.2byte	0x2
	.byte	0x30
	.byte	0x9f
	.4byte	.LVL273
	.4byte	.LVL274
	.2byte	0x2
	.byte	0x30
	.byte	0x9f
	.4byte	.LVL328
	.4byte	.LVL329
	.2byte	0x2
	.byte	0x30
	.byte	0x9f
	.4byte	.LVL329
	.4byte	.LVL329
	.2byte	0x6
	.byte	0xc
	.4byte	0x200000e
	.byte	0x9f
	.4byte	.LVL341
	.4byte	.LFE50
	.2byte	0x2
	.byte	0x30
	.byte	0x9f
	.4byte	0
	.4byte	0
.LVUS56:
	.uleb128 .LVU459
	.uleb128 .LVU489
	.uleb128 .LVU489
	.uleb128 .LVU491
	.uleb128 .LVU642
	.uleb128 .LVU648
	.uleb128 .LVU675
	.uleb128 .LVU695
	.uleb128 .LVU809
	.uleb128 .LVU810
	.uleb128 .LVU1035
	.uleb128 0
.LLST56:
	.4byte	.LVL145
	.4byte	.LVL152
	.2byte	0x1
	.byte	0x58
	.4byte	.LVL152
	.4byte	.LVL154
	.2byte	0x2
	.byte	0x70
	.sleb128 12
	.4byte	.LVL201
	.4byte	.LVL204
	.2byte	0x1
	.byte	0x58
	.4byte	.LVL215
	.4byte	.LVL220
	.2byte	0x1
	.byte	0x58
	.4byte	.LVL270
	.4byte	.LVL271
	.2byte	0x1
	.byte	0x58
	.4byte	.LVL341
	.4byte	.LFE50
	.2byte	0x1
	.byte	0x58
	.4byte	0
	.4byte	0
.LVUS57:
	.uleb128 .LVU463
	.uleb128 .LVU508
	.uleb128 .LVU591
	.uleb128 .LVU592
	.uleb128 .LVU675
	.uleb128 .LVU696
	.uleb128 .LVU696
	.uleb128 .LVU712
	.uleb128 .LVU1035
	.uleb128 0
.LLST57:
	.4byte	.LVL147
	.4byte	.LVL161
	.2byte	0x1
	.byte	0x57
	.4byte	.LVL187
	.4byte	.LVL188
	.2byte	0x3
	.byte	0x91
	.sleb128 -188
	.4byte	.LVL215
	.4byte	.LVL221
	.2byte	0x1
	.byte	0x57
	.4byte	.LVL221
	.4byte	.LVL230
	.2byte	0x3
	.byte	0x91
	.sleb128 -188
	.4byte	.LVL341
	.4byte	.LFE50
	.2byte	0x1
	.byte	0x57
	.4byte	0
	.4byte	0
.LVUS58:
	.uleb128 .LVU474
	.uleb128 .LVU491
	.uleb128 .LVU491
	.uleb128 .LVU508
	.uleb128 .LVU591
	.uleb128 .LVU635
	.uleb128 .LVU648
	.uleb128 .LVU673
	.uleb128 .LVU681
	.uleb128 .LVU697
	.uleb128 .LVU697
	.uleb128 .LVU712
	.uleb128 .LVU811
	.uleb128 .LVU812
	.uleb128 .LVU1035
	.uleb128 0
.LLST58:
	.4byte	.LVL150
	.4byte	.LVL154
	.2byte	0x1
	.byte	0x50
	.4byte	.LVL154
	.4byte	.LVL161
	.2byte	0x1
	.byte	0x5b
	.4byte	.LVL187
	.4byte	.LVL198
	.2byte	0x1
	.byte	0x5b
	.4byte	.LVL204
	.4byte	.LVL213
	.2byte	0x1
	.byte	0x5b
	.4byte	.LVL217
	.4byte	.LVL222
	.2byte	0x1
	.byte	0x50
	.4byte	.LVL222
	.4byte	.LVL230
	.2byte	0x1
	.byte	0x5b
	.4byte	.LVL273
	.4byte	.LVL274
	.2byte	0x1
	.byte	0x5b
	.4byte	.LVL341
	.4byte	.LFE50
	.2byte	0x1
	.byte	0x50
	.4byte	0
	.4byte	0
.LVUS59:
	.uleb128 .LVU708
	.uleb128 .LVU710
.LLST59:
	.4byte	.LVL228
	.4byte	.LVL229
	.2byte	0x1
	.byte	0x50
	.4byte	0
	.4byte	0
.LVUS60:
	.uleb128 .LVU485
	.uleb128 .LVU491
	.uleb128 .LVU491
	.uleb128 .LVU508
	.uleb128 .LVU591
	.uleb128 .LVU596
	.uleb128 .LVU691
	.uleb128 .LVU697
	.uleb128 .LVU697
	.uleb128 .LVU702
	.uleb128 .LVU705
	.uleb128 .LVU712
	.uleb128 .LVU1035
	.uleb128 0
.LLST60:
	.4byte	.LVL151
	.4byte	.LVL154
	.2byte	0x2
	.byte	0x30
	.byte	0x9f
	.4byte	.LVL154
	.4byte	.LVL161
	.2byte	0x1
	.byte	0x5a
	.4byte	.LVL187
	.4byte	.LVL189
	.2byte	0x1
	.byte	0x5a
	.4byte	.LVL218
	.4byte	.LVL222
	.2byte	0x2
	.byte	0x30
	.byte	0x9f
	.4byte	.LVL222
	.4byte	.LVL225
	.2byte	0x1
	.byte	0x5a
	.4byte	.LVL226
	.4byte	.LVL230
	.2byte	0x1
	.byte	0x5a
	.4byte	.LVL341
	.4byte	.LFE50
	.2byte	0x2
	.byte	0x30
	.byte	0x9f
	.4byte	0
	.4byte	0
.LVUS61:
	.uleb128 .LVU602
	.uleb128 .LVU620
	.uleb128 .LVU648
	.uleb128 .LVU673
.LLST61:
	.4byte	.LVL190
	.4byte	.LVL194
	.2byte	0x1
	.byte	0x54
	.4byte	.LVL204
	.4byte	.LVL213
	.2byte	0x1
	.byte	0x54
	.4byte	0
	.4byte	0
.LVUS62:
	.uleb128 .LVU608
	.uleb128 .LVU612
	.uleb128 .LVU612
	.uleb128 .LVU619
	.uleb128 .LVU619
	.uleb128 .LVU620
	.uleb128 .LVU648
	.uleb128 .LVU657
	.uleb128 .LVU660
	.uleb128 .LVU670
	.uleb128 .LVU670
	.uleb128 .LVU673
.LLST62:
	.4byte	.LVL191
	.4byte	.LVL192
	.2byte	0x1
	.byte	0x58
	.4byte	.LVL192
	.4byte	.LVL194
	.2byte	0x1
	.byte	0x57
	.4byte	.LVL194
	.4byte	.LVL194
	.2byte	0x6
	.byte	0x73
	.sleb128 0
	.byte	0x77
	.sleb128 0
	.byte	0x21
	.byte	0x9f
	.4byte	.LVL204
	.4byte	.LVL208
	.2byte	0x1
	.byte	0x57
	.4byte	.LVL210
	.4byte	.LVL212
	.2byte	0x1
	.byte	0x58
	.4byte	.LVL212
	.4byte	.LVL213
	.2byte	0x1
	.byte	0x57
	.4byte	0
	.4byte	0
.LVUS63:
	.uleb128 .LVU511
	.uleb128 .LVU526
	.uleb128 .LVU530
	.uleb128 .LVU535
	.uleb128 .LVU712
	.uleb128 .LVU715
	.uleb128 .LVU750
	.uleb128 .LVU757
.LLST63:
	.4byte	.LVL161
	.4byte	.LVL162
	.2byte	0x2
	.byte	0x3a
	.byte	0x9f
	.4byte	.LVL164
	.4byte	.LVL167
	.2byte	0x2
	.byte	0x3a
	.byte	0x9f
	.4byte	.LVL230
	.4byte	.LVL232
	.2byte	0x2
	.byte	0x3a
	.byte	0x9f
	.4byte	.LVL251
	.4byte	.LVL254
	.2byte	0x2
	.byte	0x3a
	.byte	0x9f
	.4byte	0
	.4byte	0
.LVUS64:
	.uleb128 .LVU510
	.uleb128 .LVU526
	.uleb128 .LVU530
	.uleb128 .LVU535
	.uleb128 .LVU712
	.uleb128 .LVU715
	.uleb128 .LVU750
	.uleb128 .LVU757
.LLST64:
	.4byte	.LVL161
	.4byte	.LVL162
	.2byte	0x1
	.byte	0x55
	.4byte	.LVL164
	.4byte	.LVL167
	.2byte	0x1
	.byte	0x55
	.4byte	.LVL230
	.4byte	.LVL232
	.2byte	0x1
	.byte	0x55
	.4byte	.LVL251
	.4byte	.LVL254
	.2byte	0x1
	.byte	0x55
	.4byte	0
	.4byte	0
.LVUS65:
	.uleb128 .LVU510
	.uleb128 .LVU526
	.uleb128 .LVU530
	.uleb128 .LVU535
	.uleb128 .LVU712
	.uleb128 .LVU715
	.uleb128 .LVU750
	.uleb128 .LVU757
.LLST65:
	.4byte	.LVL161
	.4byte	.LVL162
	.2byte	0x1
	.byte	0x54
	.4byte	.LVL164
	.4byte	.LVL167
	.2byte	0x1
	.byte	0x54
	.4byte	.LVL230
	.4byte	.LVL232
	.2byte	0x1
	.byte	0x54
	.4byte	.LVL251
	.4byte	.LVL254
	.2byte	0x1
	.byte	0x54
	.4byte	0
	.4byte	0
.LVUS66:
	.uleb128 .LVU561
	.uleb128 .LVU589
	.uleb128 .LVU715
	.uleb128 .LVU730
.LLST66:
	.4byte	.LVL176
	.4byte	.LVL186
	.2byte	0x2
	.byte	0x30
	.byte	0x9f
	.4byte	.LVL232
	.4byte	.LVL241
	.2byte	0x2
	.byte	0x30
	.byte	0x9f
	.4byte	0
	.4byte	0
.LVUS67:
	.uleb128 .LVU560
	.uleb128 .LVU572
	.uleb128 .LVU572
	.uleb128 .LVU576
	.uleb128 .LVU576
	.uleb128 .LVU589
	.uleb128 .LVU715
	.uleb128 .LVU730
.LLST67:
	.4byte	.LVL176
	.4byte	.LVL179
	.2byte	0x1
	.byte	0x55
	.4byte	.LVL179
	.4byte	.LVL180
	.2byte	0x6
	.byte	0x75
	.sleb128 0
	.byte	0x76
	.sleb128 0
	.byte	0x1c
	.byte	0x9f
	.4byte	.LVL180
	.4byte	.LVL186
	.2byte	0x1
	.byte	0x55
	.4byte	.LVL232
	.4byte	.LVL241
	.2byte	0x1
	.byte	0x55
	.4byte	0
	.4byte	0
.LVUS68:
	.uleb128 .LVU560
	.uleb128 .LVU589
	.uleb128 .LVU715
	.uleb128 .LVU730
.LLST68:
	.4byte	.LVL176
	.4byte	.LVL186
	.2byte	0x1
	.byte	0x58
	.4byte	.LVL232
	.4byte	.LVL241
	.2byte	0x1
	.byte	0x58
	.4byte	0
	.4byte	0
.LVUS69:
	.uleb128 .LVU560
	.uleb128 .LVU589
	.uleb128 .LVU715
	.uleb128 .LVU730
.LLST69:
	.4byte	.LVL176
	.4byte	.LVL186
	.2byte	0x2
	.byte	0x91
	.sleb128 -4
	.4byte	.LVL232
	.4byte	.LVL241
	.2byte	0x2
	.byte	0x91
	.sleb128 -4
	.4byte	0
	.4byte	0
.LVUS70:
	.uleb128 .LVU560
	.uleb128 .LVU589
	.uleb128 .LVU715
	.uleb128 .LVU730
.LLST70:
	.4byte	.LVL176
	.4byte	.LVL186
	.2byte	0x1
	.byte	0x54
	.4byte	.LVL232
	.4byte	.LVL241
	.2byte	0x1
	.byte	0x54
	.4byte	0
	.4byte	0
.LVUS71:
	.uleb128 .LVU573
	.uleb128 .LVU577
	.uleb128 .LVU721
	.uleb128 .LVU723
.LLST71:
	.4byte	.LVL179
	.4byte	.LVL181
	.2byte	0x1
	.byte	0x50
	.4byte	.LVL236
	.4byte	.LVL237
	.2byte	0x1
	.byte	0x50
	.4byte	0
	.4byte	0
.LVUS72:
	.uleb128 .LVU569
	.uleb128 .LVU570
	.uleb128 .LVU570
	.uleb128 .LVU571
	.uleb128 .LVU571
	.uleb128 .LVU577
	.uleb128 .LVU578
	.uleb128 .LVU584
	.uleb128 .LVU584
	.uleb128 .LVU588
	.uleb128 .LVU588
	.uleb128 .LVU589
	.uleb128 .LVU720
	.uleb128 .LVU721
	.uleb128 .LVU728
	.uleb128 .LVU730
.LLST72:
	.4byte	.LVL177
	.4byte	.LVL178
	.2byte	0x1
	.byte	0x50
	.4byte	.LVL178
	.4byte	.LVL179-1
	.2byte	0x1
	.byte	0x52
	.4byte	.LVL179-1
	.4byte	.LVL181
	.2byte	0x1
	.byte	0x56
	.4byte	.LVL181
	.4byte	.LVL183
	.2byte	0x16
	.byte	0x75
	.sleb128 0
	.byte	0x12
	.byte	0x40
	.byte	0x4b
	.byte	0x24
	.byte	0x22
	.byte	0x8
	.byte	0x64
	.byte	0x16
	.byte	0x14
	.byte	0x40
	.byte	0x4b
	.byte	0x24
	.byte	0x22
	.byte	0x2d
	.byte	0x28
	.2byte	0x1
	.byte	0x16
	.byte	0x13
	.byte	0x9f
	.4byte	.LVL183
	.4byte	.LVL185
	.2byte	0x1
	.byte	0x50
	.4byte	.LVL185
	.4byte	.LVL186
	.2byte	0x1
	.byte	0x52
	.4byte	.LVL235
	.4byte	.LVL236-1
	.2byte	0x1
	.byte	0x52
	.4byte	.LVL239
	.4byte	.LVL241
	.2byte	0x1
	.byte	0x52
	.4byte	0
	.4byte	0
	.section	.debug_aranges,"",%progbits
	.4byte	0x4c
	.2byte	0x2
	.4byte	.Ldebug_info0
	.byte	0x4
	.byte	0
	.2byte	0
	.2byte	0
	.4byte	.LFB50
	.4byte	.LFE50-.LFB50
	.4byte	.LFB29
	.4byte	.LFE29-.LFB29
	.4byte	.LFB30
	.4byte	.LFE30-.LFB30
	.4byte	.LFB31
	.4byte	.LFE31-.LFB31
	.4byte	.LFB32
	.4byte	.LFE32-.LFB32
	.4byte	.LFB33
	.4byte	.LFE33-.LFB33
	.4byte	.LFB46
	.4byte	.LFE46-.LFB46
	.4byte	0
	.4byte	0
	.section	.debug_ranges,"",%progbits
.Ldebug_ranges0:
	.4byte	.LBB101
	.4byte	.LBE101
	.4byte	.LBB167
	.4byte	.LBE167
	.4byte	.LBB168
	.4byte	.LBE168
	.4byte	.LBB171
	.4byte	.LBE171
	.4byte	.LBB173
	.4byte	.LBE173
	.4byte	0
	.4byte	0
	.4byte	.LBB103
	.4byte	.LBE103
	.4byte	.LBB104
	.4byte	.LBE104
	.4byte	.LBB105
	.4byte	.LBE105
	.4byte	0
	.4byte	0
	.4byte	.LBB110
	.4byte	.LBE110
	.4byte	.LBB152
	.4byte	.LBE152
	.4byte	.LBB153
	.4byte	.LBE153
	.4byte	.LBB154
	.4byte	.LBE154
	.4byte	0
	.4byte	0
	.4byte	.LBB111
	.4byte	.LBE111
	.4byte	.LBB161
	.4byte	.LBE161
	.4byte	.LBB165
	.4byte	.LBE165
	.4byte	.LBB169
	.4byte	.LBE169
	.4byte	.LBB170
	.4byte	.LBE170
	.4byte	.LBB174
	.4byte	.LBE174
	.4byte	.LBB179
	.4byte	.LBE179
	.4byte	.LBB180
	.4byte	.LBE180
	.4byte	.LBB181
	.4byte	.LBE181
	.4byte	.LBB182
	.4byte	.LBE182
	.4byte	0
	.4byte	0
	.4byte	.LBB122
	.4byte	.LBE122
	.4byte	.LBB175
	.4byte	.LBE175
	.4byte	.LBB176
	.4byte	.LBE176
	.4byte	0
	.4byte	0
	.4byte	.LBB126
	.4byte	.LBE126
	.4byte	.LBB158
	.4byte	.LBE158
	.4byte	.LBB159
	.4byte	.LBE159
	.4byte	.LBB160
	.4byte	.LBE160
	.4byte	.LBB162
	.4byte	.LBE162
	.4byte	.LBB172
	.4byte	.LBE172
	.4byte	.LBB177
	.4byte	.LBE177
	.4byte	.LBB178
	.4byte	.LBE178
	.4byte	.LBB183
	.4byte	.LBE183
	.4byte	0
	.4byte	0
	.4byte	.LBB128
	.4byte	.LBE128
	.4byte	.LBB134
	.4byte	.LBE134
	.4byte	.LBB135
	.4byte	.LBE135
	.4byte	.LBB136
	.4byte	.LBE136
	.4byte	.LBB137
	.4byte	.LBE137
	.4byte	0
	.4byte	0
	.4byte	.LBB146
	.4byte	.LBE146
	.4byte	.LBB151
	.4byte	.LBE151
	.4byte	.LBB163
	.4byte	.LBE163
	.4byte	.LBB166
	.4byte	.LBE166
	.4byte	0
	.4byte	0
	.4byte	.LBB155
	.4byte	.LBE155
	.4byte	.LBB164
	.4byte	.LBE164
	.4byte	0
	.4byte	0
	.4byte	.LFB50
	.4byte	.LFE50
	.4byte	.LFB29
	.4byte	.LFE29
	.4byte	.LFB30
	.4byte	.LFE30
	.4byte	.LFB31
	.4byte	.LFE31
	.4byte	.LFB32
	.4byte	.LFE32
	.4byte	.LFB33
	.4byte	.LFE33
	.4byte	.LFB46
	.4byte	.LFE46
	.4byte	0
	.4byte	0
	.section	.debug_line,"",%progbits
.Ldebug_line0:
	.section	.debug_str,"MS",%progbits,1
.LASF872:
	.ascii	"do_skip\000"
.LASF374:
	.ascii	"GPG_ERR_LDAP_NO_MEMORY\000"
.LASF905:
	.ascii	"log_hexdump\000"
.LASF675:
	.ascii	"PKT_PUBLIC_KEY\000"
.LASF181:
	.ascii	"GPG_ERR_INV_CRL\000"
.LASF224:
	.ascii	"GPG_ERR_NOT_OPERATIONAL\000"
.LASF316:
	.ascii	"GPG_ERR_ASS_WRITE_ERROR\000"
.LASF693:
	.ascii	"DIGEST_ALGO_SHA1\000"
.LASF635:
	.ascii	"reserved\000"
.LASF640:
	.ascii	"data_len\000"
.LASF128:
	.ascii	"GPG_ERR_ASSUAN_SERVER_FAULT\000"
.LASF249:
	.ascii	"GPG_ERR_SEXP_INV_LEN_SPEC\000"
.LASF471:
	.ascii	"GPG_ERR_SQL_EMPTY\000"
.LASF804:
	.ascii	"max_expiredate\000"
.LASF489:
	.ascii	"GPG_ERR_E2BIG\000"
.LASF215:
	.ascii	"GPG_ERR_NOT_LOCKED\000"
.LASF209:
	.ascii	"GPG_ERR_INV_TIME\000"
.LASF245:
	.ascii	"GPG_ERR_MAC_ALGO\000"
.LASF440:
	.ascii	"GPG_ERR_USER_2\000"
.LASF287:
	.ascii	"GPG_ERR_BAD_HS_CERT_VER\000"
.LASF192:
	.ascii	"GPG_ERR_INV_CMS_OBJ\000"
.LASF627:
	.ascii	"GPG_ERR_EWOULDBLOCK\000"
.LASF544:
	.ascii	"GPG_ERR_EL3HLT\000"
.LASF445:
	.ascii	"GPG_ERR_USER_7\000"
.LASF774:
	.ascii	"attrib_len\000"
.LASF691:
	.ascii	"pkttype_t\000"
.LASF423:
	.ascii	"GPG_ERR_LDAP_NO_OBJ_CLASS_MODS\000"
.LASF438:
	.ascii	"GPG_ERR_LDAP_PROX_AUTH_DENIED\000"
.LASF603:
	.ascii	"GPG_ERR_EPROTO\000"
.LASF22:
	.ascii	"GPG_ERR_SOURCE_UNKNOWN\000"
.LASF853:
	.ascii	"packet\000"
.LASF73:
	.ascii	"GPG_ERR_INV_ATTR\000"
.LASF323:
	.ascii	"GPG_ERR_ASS_NO_OUTPUT\000"
.LASF300:
	.ascii	"GPG_ERR_TRUE\000"
.LASF261:
	.ascii	"GPG_ERR_SEXP_BAD_OCT_CHAR\000"
.LASF551:
	.ascii	"GPG_ERR_ELNRNG\000"
.LASF703:
	.ascii	"PACKET\000"
.LASF473:
	.ascii	"GPG_ERR_SQL_TOOBIG\000"
.LASF276:
	.ascii	"GPG_ERR_COMPR_FAILED\000"
.LASF879:
	.ascii	"again\000"
.LASF184:
	.ascii	"GPG_ERR_ELEMENT_NOT_FOUND\000"
.LASF424:
	.ascii	"GPG_ERR_LDAP_RESULTS_TOO_LARGE\000"
.LASF382:
	.ascii	"GPG_ERR_LDAP_LOCAL\000"
.LASF426:
	.ascii	"GPG_ERR_LDAP_VLV\000"
.LASF171:
	.ascii	"GPG_ERR_CARD_NOT_INITIALIZED\000"
.LASF118:
	.ascii	"GPG_ERR_CONFLICT\000"
.LASF269:
	.ascii	"GPG_ERR_REQUEST_TOO_LONG\000"
.LASF665:
	.ascii	"subno\000"
.LASF243:
	.ascii	"GPG_ERR_BROKEN_PUBKEY\000"
.LASF865:
	.ascii	"parse_marker\000"
.LASF886:
	.ascii	"dbg_copy_all_packets\000"
.LASF861:
	.ascii	"parse_symkeyenc\000"
.LASF414:
	.ascii	"GPG_ERR_LDAP_BUSY\000"
.LASF708:
	.ascii	"CTRLPKT_PLAINTEXT_MARK\000"
.LASF355:
	.ascii	"GPG_ERR_DNS_CLOSED\000"
.LASF795:
	.ascii	"csum\000"
.LASF260:
	.ascii	"GPG_ERR_SEXP_ODD_HEX_NUMBERS\000"
.LASF19:
	.ascii	"next\000"
.LASF619:
	.ascii	"GPG_ERR_ESTRPIPE\000"
.LASF594:
	.ascii	"GPG_ERR_EOPNOTSUPP\000"
.LASF146:
	.ascii	"GPG_ERR_NOT_TRUSTED\000"
.LASF12:
	.ascii	"__off_t\000"
.LASF844:
	.ascii	"last_pkt\000"
.LASF393:
	.ascii	"GPG_ERR_LDAP_PARTIAL_RESULTS\000"
.LASF63:
	.ascii	"GPG_ERR_INV_ARMOR\000"
.LASF148:
	.ascii	"GPG_ERR_BAD_CA_CERT\000"
.LASF540:
	.ascii	"GPG_ERR_EISDIR\000"
.LASF166:
	.ascii	"GPG_ERR_INV_ID\000"
.LASF77:
	.ascii	"GPG_ERR_SYNTAX\000"
.LASF626:
	.ascii	"GPG_ERR_EUSERS\000"
.LASF745:
	.ascii	"key_block\000"
.LASF867:
	.ascii	"copy_packet\000"
.LASF141:
	.ascii	"GPG_ERR_DIRMNGR\000"
.LASF85:
	.ascii	"GPG_ERR_INV_USER_ID\000"
.LASF226:
	.ascii	"GPG_ERR_NO_PIN\000"
.LASF381:
	.ascii	"GPG_ERR_LDAP_ENCODING\000"
.LASF402:
	.ascii	"GPG_ERR_LDAP_CONST_VIOLATION\000"
.LASF272:
	.ascii	"GPG_ERR_CERT_TOO_LARGE\000"
.LASF743:
	.ascii	"notation\000"
.LASF767:
	.ascii	"ks_modify\000"
.LASF196:
	.ascii	"GPG_ERR_UNSUPPORTED_CMS_VERSION\000"
.LASF267:
	.ascii	"GPG_ERR_LEGACY_KEY\000"
.LASF643:
	.ascii	"unread_buffer\000"
.LASF907:
	.ascii	"GNU C17 10.3.1 20210621 (release) -mcpu=cortex-a7 -"
	.ascii	"mfloat-abi=soft -marm -march=armv7ve -g -O2 -fpic -"
	.ascii	"ffreestanding -ffunction-sections -fdata-sections -"
	.ascii	"fno-common\000"
.LASF672:
	.ascii	"PKT_SYMKEY_ENC\000"
.LASF738:
	.ascii	"chosen_selfsig\000"
.LASF373:
	.ascii	"GPG_ERR_LDAP_CONNECT\000"
.LASF246:
	.ascii	"GPG_ERR_FULLY_CANCELED\000"
.LASF545:
	.ascii	"GPG_ERR_EL3RST\000"
.LASF352:
	.ascii	"GPG_ERR_DNS_ADDRESS\000"
.LASF849:
	.ascii	"mpi_print_mode\000"
.LASF41:
	.ascii	"GPG_ERR_SOURCE_ANY\000"
.LASF735:
	.ascii	"checked\000"
.LASF310:
	.ascii	"GPG_ERR_ASS_NO_DATA_CB\000"
.LASF585:
	.ascii	"GPG_ERR_ENOTCONN\000"
.LASF894:
	.ascii	"gpg_err_make\000"
.LASF901:
	.ascii	"iobuf_skip_rest\000"
.LASF789:
	.ascii	"revoke_info\000"
.LASF119:
	.ascii	"GPG_ERR_INV_CIPHER_MODE\000"
.LASF613:
	.ascii	"GPG_ERR_ESHUTDOWN\000"
.LASF857:
	.ascii	"partial\000"
.LASF197:
	.ascii	"GPG_ERR_UNKNOWN_ALGORITHM\000"
.LASF728:
	.ascii	"PKT_pubkey_enc\000"
.LASF597:
	.ascii	"GPG_ERR_EPFNOSUPPORT\000"
.LASF320:
	.ascii	"GPG_ERR_ASS_SYNTAX\000"
.LASF701:
	.ascii	"_gpgrt_stream_internal\000"
.LASF439:
	.ascii	"GPG_ERR_USER_1\000"
.LASF392:
	.ascii	"GPG_ERR_LDAP_STRONG_AUTH_RQRD\000"
.LASF441:
	.ascii	"GPG_ERR_USER_3\000"
.LASF442:
	.ascii	"GPG_ERR_USER_4\000"
.LASF443:
	.ascii	"GPG_ERR_USER_5\000"
.LASF444:
	.ascii	"GPG_ERR_USER_6\000"
.LASF290:
	.ascii	"GPG_ERR_BAD_HS_SERVER_HELLO\000"
.LASF446:
	.ascii	"GPG_ERR_USER_8\000"
.LASF447:
	.ascii	"GPG_ERR_USER_9\000"
.LASF106:
	.ascii	"GPG_ERR_NO_DATA\000"
.LASF284:
	.ascii	"GPG_ERR_UNKNOWN_IDENTITY\000"
.LASF159:
	.ascii	"GPG_ERR_INV_CARD\000"
.LASF345:
	.ascii	"GPG_ERR_SERVICE\000"
.LASF251:
	.ascii	"GPG_ERR_SEXP_UNMATCHED_PAREN\000"
.LASF784:
	.ascii	"keyorg\000"
.LASF480:
	.ascii	"GPG_ERR_SQL_RANGE\000"
.LASF715:
	.ascii	"salt\000"
.LASF459:
	.ascii	"GPG_ERR_SQL_ABORT\000"
.LASF688:
	.ascii	"PKT_ENCRYPTED_AEAD\000"
.LASF542:
	.ascii	"GPG_ERR_EL2HLT\000"
.LASF121:
	.ascii	"GPG_ERR_INV_HANDLE\000"
.LASF895:
	.ascii	"source\000"
.LASF170:
	.ascii	"GPG_ERR_BAD_PIN_METHOD\000"
.LASF705:
	.ascii	"pkttype\000"
.LASF706:
	.ascii	"CTRLPKT_CLEARSIGN_START\000"
.LASF278:
	.ascii	"GPG_ERR_FATAL_ALERT\000"
.LASF142:
	.ascii	"GPG_ERR_CERT_REVOKED\000"
.LASF222:
	.ascii	"GPG_ERR_UNKNOWN_OPTION\000"
.LASF729:
	.ascii	"sig_class\000"
.LASF156:
	.ascii	"GPG_ERR_CARD\000"
.LASF104:
	.ascii	"GPG_ERR_BAD_CERT_CHAIN\000"
.LASF16:
	.ascii	"byte\000"
.LASF662:
	.ascii	"filter_ov_owner\000"
.LASF606:
	.ascii	"GPG_ERR_ERANGE\000"
.LASF786:
	.ascii	"mbox\000"
.LASF620:
	.ascii	"GPG_ERR_ETIME\000"
.LASF759:
	.ascii	"unhashed\000"
.LASF730:
	.ascii	"digest_algo\000"
.LASF326:
	.ascii	"GPG_ERR_ENGINE_TOO_OLD\000"
.LASF174:
	.ascii	"GPG_ERR_NOTHING_FOUND\000"
.LASF501:
	.ascii	"GPG_ERR_EBADFD\000"
.LASF563:
	.ascii	"GPG_ERR_ENETUNREACH\000"
.LASF389:
	.ascii	"GPG_ERR_LDAP_COMPARE_FALSE\000"
.LASF322:
	.ascii	"GPG_ERR_ASS_NO_INPUT\000"
.LASF664:
	.ascii	"chain\000"
.LASF133:
	.ascii	"GPG_ERR_NO_PIN_ENTRY\000"
.LASF700:
	.ascii	"gcry_mpi_t\000"
.LASF657:
	.ascii	"nofast\000"
.LASF275:
	.ascii	"GPG_ERR_UNEXPECTED_MSG\000"
.LASF517:
	.ascii	"GPG_ERR_EDEADLK\000"
.LASF906:
	.ascii	"iobuf_set_partial_body_length_mode\000"
.LASF76:
	.ascii	"GPG_ERR_VALUE_NOT_FOUND\000"
.LASF369:
	.ascii	"GPG_ERR_LDAP_CLIENT_LOOP\000"
.LASF329:
	.ascii	"GPG_ERR_MISSING_ENVVAR\000"
.LASF646:
	.ascii	"intern\000"
.LASF830:
	.ascii	"PKT_gpg_control\000"
.LASF216:
	.ascii	"GPG_ERR_PROTOCOL_VIOLATION\000"
.LASF803:
	.ascii	"exact\000"
.LASF574:
	.ascii	"GPG_ERR_ENOMEDIUM\000"
.LASF798:
	.ascii	"disabled\000"
.LASF42:
	.ascii	"GPG_ERR_SOURCE_USER_1\000"
.LASF43:
	.ascii	"GPG_ERR_SOURCE_USER_2\000"
.LASF44:
	.ascii	"GPG_ERR_SOURCE_USER_3\000"
.LASF45:
	.ascii	"GPG_ERR_SOURCE_USER_4\000"
.LASF611:
	.ascii	"GPG_ERR_EROFS\000"
.LASF460:
	.ascii	"GPG_ERR_SQL_BUSY\000"
.LASF207:
	.ascii	"GPG_ERR_MODULE_NOT_FOUND\000"
.LASF274:
	.ascii	"GPG_ERR_BAD_MAC\000"
.LASF242:
	.ascii	"GPG_ERR_CRYPT_CTX_CONFLICT\000"
.LASF182:
	.ascii	"GPG_ERR_BAD_BER\000"
.LASF622:
	.ascii	"GPG_ERR_ETOOMANYREFS\000"
.LASF346:
	.ascii	"GPG_ERR_BAD_PUK\000"
.LASF109:
	.ascii	"GPG_ERR_INV_OP\000"
.LASF821:
	.ascii	"mdc_method\000"
.LASF428:
	.ascii	"GPG_ERR_LDAP_CUP_RESOURCE_LIMIT\000"
.LASF99:
	.ascii	"GPG_ERR_NOT_ENCRYPTED\000"
.LASF432:
	.ascii	"GPG_ERR_LDAP_CUP_RELOAD\000"
.LASF412:
	.ascii	"GPG_ERR_LDAP_INV_CREDENTIALS\000"
.LASF149:
	.ascii	"GPG_ERR_CERT_EXPIRED\000"
.LASF509:
	.ascii	"GPG_ERR_ECANCELED\000"
.LASF600:
	.ascii	"GPG_ERR_EPROCUNAVAIL\000"
.LASF187:
	.ascii	"GPG_ERR_INV_LENGTH\000"
.LASF257:
	.ascii	"GPG_ERR_SEXP_UNMATCHED_DH\000"
.LASF82:
	.ascii	"GPG_ERR_INV_KEYRING\000"
.LASF736:
	.ascii	"email\000"
.LASF661:
	.ascii	"filter_ov\000"
.LASF669:
	.ascii	"PKT_NONE\000"
.LASF791:
	.ascii	"algo\000"
.LASF890:
	.ascii	"buf32_to_ulong\000"
.LASF765:
	.ascii	"user_attribute\000"
.LASF349:
	.ascii	"GPG_ERR_SYSTEM_BUG\000"
.LASF710:
	.ascii	"type\000"
.LASF629:
	.ascii	"GPG_ERR_EXFULL\000"
.LASF587:
	.ascii	"GPG_ERR_ENOTEMPTY\000"
.LASF36:
	.ascii	"GPG_ERR_SOURCE_G13\000"
.LASF124:
	.ascii	"GPG_ERR_INV_RESPONSE\000"
.LASF724:
	.ascii	"keyid\000"
.LASF140:
	.ascii	"GPG_ERR_NO_DIRMNGR\000"
.LASF752:
	.ascii	"trust_regexp\000"
.LASF188:
	.ascii	"GPG_ERR_INV_KEYINFO\000"
.LASF291:
	.ascii	"GPG_ERR_BAD_HS_SERVER_HELLO_DONE\000"
.LASF649:
	.ascii	"IOBUF_INPUT_TEMP\000"
.LASF793:
	.ascii	"is_protected\000"
.LASF361:
	.ascii	"GPG_ERR_LDAP_SECURITY_GENERAL\000"
.LASF68:
	.ascii	"GPG_ERR_COMPR_ALGO\000"
.LASF601:
	.ascii	"GPG_ERR_EPROGMISMATCH\000"
.LASF850:
	.ascii	"list_mode\000"
.LASF238:
	.ascii	"GPG_ERR_AMBIGUOUS\000"
.LASF514:
	.ascii	"GPG_ERR_ECONNREFUSED\000"
.LASF299:
	.ascii	"GPG_ERR_INV_LOCK_OBJ\000"
.LASF58:
	.ascii	"GPG_ERR_CHECKSUM\000"
.LASF229:
	.ascii	"GPG_ERR_MISSING_KEY\000"
.LASF713:
	.ascii	"mode\000"
.LASF180:
	.ascii	"GPG_ERR_PIN_NOT_SYNCED\000"
.LASF155:
	.ascii	"GPG_ERR_AMBIGUOUS_NAME\000"
.LASF130:
	.ascii	"GPG_ERR_INV_SESSION_KEY\000"
.LASF111:
	.ascii	"GPG_ERR_INTERNAL\000"
.LASF250:
	.ascii	"GPG_ERR_SEXP_STRING_TOO_LONG\000"
.LASF303:
	.ascii	"GPG_ERR_ASS_ACCEPT_FAILED\000"
.LASF519:
	.ascii	"GPG_ERR_EDESTADDRREQ\000"
.LASF513:
	.ascii	"GPG_ERR_ECONNABORTED\000"
.LASF734:
	.ascii	"valid\000"
.LASF456:
	.ascii	"GPG_ERR_SQL_ERROR\000"
.LASF179:
	.ascii	"GPG_ERR_USE_CONDITIONS\000"
.LASF571:
	.ascii	"GPG_ERR_ENOEXEC\000"
.LASF484:
	.ascii	"GPG_ERR_SQL_ROW\000"
.LASF823:
	.ascii	"PKT_encrypted\000"
.LASF321:
	.ascii	"GPG_ERR_ASS_CANCELED\000"
.LASF1:
	.ascii	"unsigned char\000"
.LASF53:
	.ascii	"GPG_ERR_DIGEST_ALGO\000"
.LASF546:
	.ascii	"GPG_ERR_ELIBACC\000"
.LASF463:
	.ascii	"GPG_ERR_SQL_READONLY\000"
.LASF384:
	.ascii	"GPG_ERR_LDAP_SUCCESS\000"
.LASF682:
	.ascii	"PKT_USER_ID\000"
.LASF826:
	.ascii	"namelen\000"
.LASF398:
	.ascii	"GPG_ERR_LDAP_SASL_BIND_INPROG\000"
.LASF482:
	.ascii	"GPG_ERR_SQL_NOTICE\000"
.LASF881:
	.ascii	"dbg_skip_some_packets\000"
.LASF277:
	.ascii	"GPG_ERR_WOULD_WRAP\000"
.LASF17:
	.ascii	"float\000"
.LASF590:
	.ascii	"GPG_ERR_ENOTSUP\000"
.LASF86:
	.ascii	"GPG_ERR_UNEXPECTED\000"
.LASF815:
	.ascii	"PKT_comment\000"
.LASF259:
	.ascii	"GPG_ERR_SEXP_BAD_HEX_CHAR\000"
.LASF271:
	.ascii	"GPG_ERR_NO_CERT_CHAIN\000"
.LASF163:
	.ascii	"GPG_ERR_CONFIGURATION\000"
.LASF689:
	.ascii	"PKT_COMMENT\000"
.LASF814:
	.ascii	"PKT_public_key\000"
.LASF837:
	.ascii	"secret_key\000"
.LASF126:
	.ascii	"GPG_ERR_AGENT\000"
.LASF835:
	.ascii	"signature\000"
.LASF409:
	.ascii	"GPG_ERR_LDAP_ALIAS_DEREF\000"
.LASF497:
	.ascii	"GPG_ERR_EAUTH\000"
.LASF50:
	.ascii	"GPG_ERR_UNKNOWN_PACKET\000"
.LASF350:
	.ascii	"GPG_ERR_DNS_UNKNOWN\000"
.LASF203:
	.ascii	"GPG_ERR_ENCODING_PROBLEM\000"
.LASF464:
	.ascii	"GPG_ERR_SQL_INTERRUPT\000"
.LASF391:
	.ascii	"GPG_ERR_LDAP_UNSUPPORTED_AUTH\000"
.LASF827:
	.ascii	"PKT_plaintext\000"
.LASF598:
	.ascii	"GPG_ERR_EPIPE\000"
.LASF228:
	.ascii	"GPG_ERR_NO_ENGINE\000"
.LASF15:
	.ascii	"off_t\000"
.LASF436:
	.ascii	"GPG_ERR_LDAP_CANNOT_CANCEL\000"
.LASF782:
	.ascii	"keyupdate\000"
.LASF770:
	.ascii	"revoked\000"
.LASF671:
	.ascii	"PKT_SIGNATURE\000"
.LASF537:
	.ascii	"GPG_ERR_EINVAL\000"
.LASF297:
	.ascii	"GPG_ERR_KEY_DISABLED\000"
.LASF580:
	.ascii	"GPG_ERR_ENOSPC\000"
.LASF472:
	.ascii	"GPG_ERR_SQL_SCHEMA\000"
.LASF812:
	.ascii	"serialno\000"
.LASF152:
	.ascii	"GPG_ERR_UNKNOWN_SEXP\000"
.LASF515:
	.ascii	"GPG_ERR_ECONNRESET\000"
.LASF435:
	.ascii	"GPG_ERR_LDAP_TOO_LATE\000"
.LASF651:
	.ascii	"IOBUF_OUTPUT_TEMP\000"
.LASF732:
	.ascii	"PKT_onepass_sig\000"
.LASF523:
	.ascii	"GPG_ERR_EDQUOT\000"
.LASF372:
	.ascii	"GPG_ERR_LDAP_NOT_SUPPORTED\000"
.LASF390:
	.ascii	"GPG_ERR_LDAP_COMPARE_TRUE\000"
.LASF692:
	.ascii	"DIGEST_ALGO_MD5\000"
.LASF213:
	.ascii	"GPG_ERR_UNKNOWN_NAME\000"
.LASF69:
	.ascii	"GPG_ERR_NO_PRIME\000"
.LASF219:
	.ascii	"GPG_ERR_UNKNOWN_EXTN\000"
.LASF817:
	.ascii	"algorithm\000"
.LASF288:
	.ascii	"GPG_ERR_BAD_HS_CHANGE_CIPHER\000"
.LASF520:
	.ascii	"GPG_ERR_EDIED\000"
.LASF813:
	.ascii	"pkey\000"
.LASF717:
	.ascii	"STRING2KEY\000"
.LASF298:
	.ascii	"GPG_ERR_KEY_ON_CARD\000"
.LASF547:
	.ascii	"GPG_ERR_ELIBBAD\000"
.LASF368:
	.ascii	"GPG_ERR_LDAP_REFERRAL_LIMIT\000"
.LASF335:
	.ascii	"GPG_ERR_UNKNOWN_FLAG\000"
.LASF573:
	.ascii	"GPG_ERR_ENOLINK\000"
.LASF46:
	.ascii	"GPG_ERR_SOURCE_DIM\000"
.LASF741:
	.ascii	"revocable\000"
.LASF623:
	.ascii	"GPG_ERR_ETXTBSY\000"
.LASF876:
	.ascii	"lenbytes\000"
.LASF888:
	.ascii	"dbg_parse_packet\000"
.LASF608:
	.ascii	"GPG_ERR_EREMOTE\000"
.LASF680:
	.ascii	"PKT_PLAINTEXT\000"
.LASF150:
	.ascii	"GPG_ERR_CERT_TOO_YOUNG\000"
.LASF684:
	.ascii	"PKT_OLD_COMMENT\000"
.LASF262:
	.ascii	"GPG_ERR_SUBKEYS_EXP_OR_REV\000"
.LASF205:
	.ascii	"GPG_ERR_DUP_VALUE\000"
.LASF702:
	.ascii	"gcry_mpi\000"
.LASF23:
	.ascii	"GPG_ERR_SOURCE_GCRYPT\000"
.LASF315:
	.ascii	"GPG_ERR_ASS_READ_ERROR\000"
.LASF231:
	.ascii	"GPG_ERR_LIMIT_REACHED\000"
.LASF511:
	.ascii	"GPG_ERR_ECHRNG\000"
.LASF529:
	.ascii	"GPG_ERR_EGREGIOUS\000"
.LASF266:
	.ascii	"GPG_ERR_NO_KEY\000"
.LASF302:
	.ascii	"GPG_ERR_ASS_GENERAL\000"
.LASF131:
	.ascii	"GPG_ERR_INV_SEXP\000"
.LASF496:
	.ascii	"GPG_ERR_EALREADY\000"
.LASF431:
	.ascii	"GPG_ERR_LDAP_CUP_UNSUP_SCHEME\000"
.LASF667:
	.ascii	"size\000"
.LASF169:
	.ascii	"GPG_ERR_UNSUPPORTED_PROTOCOL\000"
.LASF351:
	.ascii	"GPG_ERR_DNS_SECTION\000"
.LASF337:
	.ascii	"GPG_ERR_ALREADY_FETCHED\000"
.LASF387:
	.ascii	"GPG_ERR_LDAP_TIMELIMIT\000"
.LASF652:
	.ascii	"iobuf_t\000"
.LASF61:
	.ascii	"GPG_ERR_KEYRING_OPEN\000"
.LASF328:
	.ascii	"GPG_ERR_WINDOW_TOO_LARGE\000"
.LASF378:
	.ascii	"GPG_ERR_LDAP_AUTH_UNKNOWN\000"
.LASF410:
	.ascii	"GPG_ERR_LDAP_X_PROXY_AUTH_FAIL\000"
.LASF491:
	.ascii	"GPG_ERR_EADDRINUSE\000"
.LASF899:
	.ascii	"tfp_printf\000"
.LASF129:
	.ascii	"GPG_ERR_ASSUAN\000"
.LASF11:
	.ascii	"_off_t\000"
.LASF417:
	.ascii	"GPG_ERR_LDAP_LOOP_DETECT\000"
.LASF254:
	.ascii	"GPG_ERR_SEXP_BAD_QUOTATION\000"
.LASF625:
	.ascii	"GPG_ERR_EUNATCH\000"
.LASF582:
	.ascii	"GPG_ERR_ENOSTR\000"
.LASF659:
	.ascii	"error\000"
.LASF10:
	.ascii	"size_t\000"
.LASF644:
	.ascii	"unread_buffer_size\000"
.LASF136:
	.ascii	"GPG_ERR_INV_NAME\000"
.LASF353:
	.ascii	"GPG_ERR_DNS_NO_QUERY\000"
.LASF777:
	.ascii	"help_key_expire\000"
.LASF723:
	.ascii	"PKT_symkey_enc\000"
.LASF521:
	.ascii	"GPG_ERR_EDOM\000"
.LASF631:
	.ascii	"gpg_err_code_t\000"
.LASF839:
	.ascii	"compressed\000"
.LASF309:
	.ascii	"GPG_ERR_ASS_NESTED_COMMANDS\000"
.LASF458:
	.ascii	"GPG_ERR_SQL_PERM\000"
.LASF797:
	.ascii	"disabled_valid\000"
.LASF607:
	.ascii	"GPG_ERR_EREMCHG\000"
.LASF615:
	.ascii	"GPG_ERR_ESPIPE\000"
.LASF120:
	.ascii	"GPG_ERR_INV_FLAG\000"
.LASF750:
	.ascii	"trust_depth\000"
.LASF858:
	.ascii	"orig_pktlen\000"
.LASF900:
	.ascii	"iobuf_readbyte\000"
.LASF186:
	.ascii	"GPG_ERR_INV_TAG\000"
.LASF113:
	.ascii	"GPG_ERR_INV_OBJ\000"
.LASF862:
	.ascii	"s2kmode\000"
.LASF313:
	.ascii	"GPG_ERR_ASS_NOT_A_CLIENT\000"
.LASF833:
	.ascii	"pubkey_enc\000"
.LASF295:
	.ascii	"GPG_ERR_BOGUS_STRING\000"
.LASF616:
	.ascii	"GPG_ERR_ESRCH\000"
.LASF549:
	.ascii	"GPG_ERR_ELIBMAX\000"
.LASF105:
	.ascii	"GPG_ERR_MISSING_CERT\000"
.LASF634:
	.ascii	"writing\000"
.LASF270:
	.ascii	"GPG_ERR_OBJ_TERM_STATE\000"
.LASF191:
	.ascii	"GPG_ERR_NO_CMS_OBJ\000"
.LASF829:
	.ascii	"datalen\000"
.LASF783:
	.ascii	"updateurl\000"
.LASF869:
	.ascii	"onlykeypkts\000"
.LASF475:
	.ascii	"GPG_ERR_SQL_MISMATCH\000"
.LASF383:
	.ascii	"GPG_ERR_LDAP_SERVER_DOWN\000"
.LASF658:
	.ascii	"filter_eof\000"
.LASF896:
	.ascii	"xmalloc\000"
.LASF756:
	.ascii	"pka_info\000"
.LASF780:
	.ascii	"prefs\000"
.LASF512:
	.ascii	"GPG_ERR_ECOMM\000"
.LASF614:
	.ascii	"GPG_ERR_ESOCKTNOSUPPORT\000"
.LASF572:
	.ascii	"GPG_ERR_ENOLCK\000"
.LASF504:
	.ascii	"GPG_ERR_EBADRPC\000"
.LASF805:
	.ascii	"hdrbytes\000"
.LASF132:
	.ascii	"GPG_ERR_UNSUPPORTED_ALGORITHM\000"
.LASF610:
	.ascii	"GPG_ERR_ERESTART\000"
.LASF37:
	.ascii	"GPG_ERR_SOURCE_ASSUAN\000"
.LASF533:
	.ascii	"GPG_ERR_EIEIO\000"
.LASF237:
	.ascii	"GPG_ERR_DUP_KEY\000"
.LASF747:
	.ascii	"pka_tried\000"
.LASF893:
	.ascii	"code\000"
.LASF722:
	.ascii	"seskey\000"
.LASF74:
	.ascii	"GPG_ERR_NO_VALUE\000"
.LASF27:
	.ascii	"GPG_ERR_SOURCE_PINENTRY\000"
.LASF720:
	.ascii	"aead_algo\000"
.LASF341:
	.ascii	"GPG_ERR_BAD_AUTH\000"
.LASF641:
	.ascii	"data_offset\000"
.LASF280:
	.ascii	"GPG_ERR_MISSING_CLIENT_CERT\000"
.LASF794:
	.ascii	"sha1chk\000"
.LASF505:
	.ascii	"GPG_ERR_EBADRQC\000"
.LASF366:
	.ascii	"GPG_ERR_LDAP_OTHER_GENERAL\000"
.LASF595:
	.ascii	"GPG_ERR_EOVERFLOW\000"
.LASF138:
	.ascii	"GPG_ERR_INV_PARAMETER\000"
.LASF273:
	.ascii	"GPG_ERR_INV_RECORD\000"
.LASF71:
	.ascii	"GPG_ERR_NO_ENCRYPTION_SCHEME\000"
.LASF405:
	.ascii	"GPG_ERR_LDAP_NO_SUCH_OBJ\000"
.LASF766:
	.ascii	"aead\000"
.LASF748:
	.ascii	"timestamp\000"
.LASF655:
	.ascii	"nbytes\000"
.LASF694:
	.ascii	"DIGEST_ALGO_RMD160\000"
.LASF726:
	.ascii	"throw_keyid\000"
.LASF477:
	.ascii	"GPG_ERR_SQL_NOLFS\000"
.LASF510:
	.ascii	"GPG_ERR_ECHILD\000"
.LASF776:
	.ascii	"help_key_usage\000"
.LASF711:
	.ascii	"value\000"
.LASF506:
	.ascii	"GPG_ERR_EBADSLT\000"
.LASF725:
	.ascii	"pubkey_algo\000"
.LASF676:
	.ascii	"PKT_SECRET_SUBKEY\000"
.LASF698:
	.ascii	"DIGEST_ALGO_SHA224\000"
.LASF318:
	.ascii	"GPG_ERR_ASS_UNEXPECTED_CMD\000"
.LASF175:
	.ascii	"GPG_ERR_WRONG_BLOB_TYPE\000"
.LASF336:
	.ascii	"GPG_ERR_INV_ORDER\000"
.LASF59:
	.ascii	"GPG_ERR_BAD_PASSPHRASE\000"
.LASF583:
	.ascii	"GPG_ERR_ENOSYS\000"
.LASF408:
	.ascii	"GPG_ERR_LDAP_IS_LEAF\000"
.LASF364:
	.ascii	"GPG_ERR_LDAP_E_GENERAL\000"
.LASF605:
	.ascii	"GPG_ERR_EPROTOTYPE\000"
.LASF690:
	.ascii	"PKT_GPG_CONTROL\000"
.LASF588:
	.ascii	"GPG_ERR_ENOTNAM\000"
.LASF67:
	.ascii	"GPG_ERR_BAD_KEY\000"
.LASF418:
	.ascii	"GPG_ERR_LDAP_NAMING_VIOLATION\000"
.LASF296:
	.ascii	"GPG_ERR_FORBIDDEN\000"
.LASF64:
	.ascii	"GPG_ERR_NO_USER_ID\000"
.LASF532:
	.ascii	"GPG_ERR_EIDRM\000"
.LASF591:
	.ascii	"GPG_ERR_ENOTTY\000"
.LASF536:
	.ascii	"GPG_ERR_EINTR\000"
.LASF457:
	.ascii	"GPG_ERR_SQL_INTERNAL\000"
.LASF108:
	.ascii	"GPG_ERR_NOT_SUPPORTED\000"
.LASF618:
	.ascii	"GPG_ERR_ESTALE\000"
.LASF518:
	.ascii	"GPG_ERR_EDEADLOCK\000"
.LASF230:
	.ascii	"GPG_ERR_TOO_MANY\000"
.LASF253:
	.ascii	"GPG_ERR_SEXP_BAD_CHARACTER\000"
.LASF89:
	.ascii	"GPG_ERR_WRONG_PUBKEY_ALGO\000"
.LASF103:
	.ascii	"GPG_ERR_INV_VALUE\000"
.LASF579:
	.ascii	"GPG_ERR_ENOPROTOOPT\000"
.LASF584:
	.ascii	"GPG_ERR_ENOTBLK\000"
.LASF343:
	.ascii	"GPG_ERR_KEYBOXD\000"
.LASF377:
	.ascii	"GPG_ERR_LDAP_FILTER\000"
.LASF904:
	.ascii	"iobuf_read\000"
.LASF395:
	.ascii	"GPG_ERR_LDAP_ADMINLIMIT\000"
.LASF854:
	.ascii	"pktlen\000"
.LASF695:
	.ascii	"DIGEST_ALGO_SHA256\000"
.LASF30:
	.ascii	"GPG_ERR_SOURCE_KEYBOX\000"
.LASF525:
	.ascii	"GPG_ERR_EFAULT\000"
.LASF333:
	.ascii	"GPG_ERR_TOO_YOUNG\000"
.LASF88:
	.ascii	"GPG_ERR_KEYSERVER\000"
.LASF628:
	.ascii	"GPG_ERR_EXDEV\000"
.LASF485:
	.ascii	"GPG_ERR_SQL_DONE\000"
.LASF324:
	.ascii	"GPG_ERR_ASS_PARAMETER\000"
.LASF220:
	.ascii	"GPG_ERR_UNKNOWN_CRIT_EXTN\000"
.LASF744:
	.ascii	"pref_ks\000"
.LASF83:
	.ascii	"GPG_ERR_TRUSTDB\000"
.LASF679:
	.ascii	"PKT_MARKER\000"
.LASF247:
	.ascii	"GPG_ERR_UNFINISHED\000"
.LASF647:
	.ascii	"estream_t\000"
.LASF560:
	.ascii	"GPG_ERR_ENEEDAUTH\000"
.LASF244:
	.ascii	"GPG_ERR_BROKEN_SECKEY\000"
.LASF365:
	.ascii	"GPG_ERR_LDAP_X_GENERAL\000"
.LASF51:
	.ascii	"GPG_ERR_UNKNOWN_VERSION\000"
.LASF399:
	.ascii	"GPG_ERR_LDAP_NO_SUCH_ATTRIBUTE\000"
.LASF822:
	.ascii	"chunkbyte\000"
.LASF481:
	.ascii	"GPG_ERR_SQL_NOTADB\000"
.LASF139:
	.ascii	"GPG_ERR_WRONG_CARD\000"
.LASF633:
	.ascii	"magic\000"
.LASF72:
	.ascii	"GPG_ERR_NO_SIGNATURE_SCHEME\000"
.LASF495:
	.ascii	"GPG_ERR_EAGAIN\000"
.LASF787:
	.ascii	"name\000"
.LASF860:
	.ascii	"parse_plaintext\000"
.LASF808:
	.ascii	"has_expired\000"
.LASF31:
	.ascii	"GPG_ERR_SOURCE_KSBA\000"
.LASF60:
	.ascii	"GPG_ERR_CIPHER_ALGO\000"
.LASF462:
	.ascii	"GPG_ERR_SQL_NOMEM\000"
.LASF746:
	.ascii	"expired\000"
.LASF357:
	.ascii	"GPG_ERR_DNS_TIMEOUT\000"
.LASF375:
	.ascii	"GPG_ERR_LDAP_PARAM\000"
.LASF565:
	.ascii	"GPG_ERR_ENOANO\000"
.LASF285:
	.ascii	"GPG_ERR_BAD_HS_CERT\000"
.LASF386:
	.ascii	"GPG_ERR_LDAP_PROTOCOL\000"
.LASF397:
	.ascii	"GPG_ERR_LDAP_CONFIDENT_RQRD\000"
.LASF771:
	.ascii	"attribs\000"
.LASF902:
	.ascii	"xmalloc_clear\000"
.LASF764:
	.ascii	"PKT_signature\000"
.LASF836:
	.ascii	"public_key\000"
.LASF740:
	.ascii	"exportable\000"
.LASF52:
	.ascii	"GPG_ERR_PUBKEY_ALGO\000"
.LASF102:
	.ascii	"GPG_ERR_UNUSABLE_SECKEY\000"
.LASF401:
	.ascii	"GPG_ERR_LDAP_BAD_MATCHING\000"
.LASF294:
	.ascii	"GPG_ERR_BAD_HS_CLIENT_KEX\000"
.LASF555:
	.ascii	"GPG_ERR_EMLINK\000"
.LASF575:
	.ascii	"GPG_ERR_ENOMEM\000"
.LASF49:
	.ascii	"GPG_ERR_GENERAL\000"
.LASF404:
	.ascii	"GPG_ERR_LDAP_INV_SYNTAX\000"
.LASF185:
	.ascii	"GPG_ERR_IDENTIFIER_NOT_FOUND\000"
.LASF842:
	.ascii	"gpg_control\000"
.LASF891:
	.ascii	"gpg_err_code\000"
.LASF685:
	.ascii	"PKT_ATTRIBUTE\000"
.LASF673:
	.ascii	"PKT_ONEPASS_SIG\000"
.LASF385:
	.ascii	"GPG_ERR_LDAP_OPERATIONS\000"
.LASF466:
	.ascii	"GPG_ERR_SQL_CORRUPT\000"
.LASF201:
	.ascii	"GPG_ERR_KEY_EXPIRED\000"
.LASF371:
	.ascii	"GPG_ERR_LDAP_CONTROL_NOT_FOUND\000"
.LASF531:
	.ascii	"GPG_ERR_EHOSTUNREACH\000"
.LASF556:
	.ascii	"GPG_ERR_EMSGSIZE\000"
.LASF818:
	.ascii	"PKT_compressed\000"
.LASF522:
	.ascii	"GPG_ERR_EDOTDOT\000"
.LASF211:
	.ascii	"GPG_ERR_UNSUPPORTED_CRL_VERSION\000"
.LASF3:
	.ascii	"short unsigned int\000"
.LASF225:
	.ascii	"GPG_ERR_NO_PASSPHRASE\000"
.LASF0:
	.ascii	"signed char\000"
.LASF388:
	.ascii	"GPG_ERR_LDAP_SIZELIMIT\000"
.LASF344:
	.ascii	"GPG_ERR_NO_SERVICE\000"
.LASF474:
	.ascii	"GPG_ERR_SQL_CONSTRAINT\000"
.LASF668:
	.ascii	"start\000"
.LASF189:
	.ascii	"GPG_ERR_UNEXPECTED_TAG\000"
.LASF403:
	.ascii	"GPG_ERR_LDAP_TYPE_VALUE_EXISTS\000"
.LASF870:
	.ascii	"retpos\000"
.LASF761:
	.ascii	"digest\000"
.LASF604:
	.ascii	"GPG_ERR_EPROTONOSUPPORT\000"
.LASF877:
	.ascii	"hdrlen\000"
.LASF499:
	.ascii	"GPG_ERR_EBADE\000"
.LASF500:
	.ascii	"GPG_ERR_EBADF\000"
.LASF863:
	.ascii	"minlen\000"
.LASF319:
	.ascii	"GPG_ERR_ASS_UNKNOWN_CMD\000"
.LASF716:
	.ascii	"count\000"
.LASF503:
	.ascii	"GPG_ERR_EBADR\000"
.LASF566:
	.ascii	"GPG_ERR_ENOBUFS\000"
.LASF29:
	.ascii	"GPG_ERR_SOURCE_GPGME\000"
.LASF65:
	.ascii	"GPG_ERR_NO_SECKEY\000"
.LASF407:
	.ascii	"GPG_ERR_LDAP_INV_DN_SYNTAX\000"
.LASF80:
	.ascii	"GPG_ERR_SIG_CLASS\000"
.LASF75:
	.ascii	"GPG_ERR_NOT_FOUND\000"
.LASF331:
	.ascii	"GPG_ERR_NAME_EXISTS\000"
.LASF433:
	.ascii	"GPG_ERR_LDAP_CANCELLED\000"
.LASF144:
	.ascii	"GPG_ERR_CRL_TOO_OLD\000"
.LASF561:
	.ascii	"GPG_ERR_ENETDOWN\000"
.LASF871:
	.ascii	"skip\000"
.LASF394:
	.ascii	"GPG_ERR_LDAP_REFERRAL\000"
.LASF878:
	.ascii	"with_uid\000"
.LASF342:
	.ascii	"GPG_ERR_NO_KEYBOXD\000"
.LASF866:
	.ascii	"fail\000"
.LASF840:
	.ascii	"encrypted\000"
.LASF354:
	.ascii	"GPG_ERR_DNS_NO_ANSWER\000"
.LASF889:
	.ascii	"read_32\000"
.LASF255:
	.ascii	"GPG_ERR_SEXP_ZERO_PREFIX\000"
.LASF749:
	.ascii	"expiredate\000"
.LASF660:
	.ascii	"filter\000"
.LASF811:
	.ascii	"trust_timestamp\000"
.LASF733:
	.ascii	"subpktarea_t\000"
.LASF887:
	.ascii	"dbg_search_packet\000"
.LASF809:
	.ascii	"main_keyid\000"
.LASF825:
	.ascii	"PKT_mdc\000"
.LASF494:
	.ascii	"GPG_ERR_EAFNOSUPPORT\000"
.LASF62:
	.ascii	"GPG_ERR_INV_PACKET\000"
.LASF554:
	.ascii	"GPG_ERR_EMFILE\000"
.LASF678:
	.ascii	"PKT_ENCRYPTED\000"
.LASF781:
	.ascii	"created\000"
.LASF14:
	.ascii	"ulong\000"
.LASF151:
	.ascii	"GPG_ERR_UNSUPPORTED_CERT\000"
.LASF338:
	.ascii	"GPG_ERR_TRY_LATER\000"
.LASF897:
	.ascii	"free_packet\000"
.LASF256:
	.ascii	"GPG_ERR_SEXP_NESTED_DH\000"
.LASF204:
	.ascii	"GPG_ERR_INV_STATE\000"
.LASF363:
	.ascii	"GPG_ERR_LDAP_UPDATE_GENERAL\000"
.LASF586:
	.ascii	"GPG_ERR_ENOTDIR\000"
.LASF898:
	.ascii	"iobuf_tell\000"
.LASF656:
	.ascii	"ntotal\000"
.LASF712:
	.ascii	"prefitem_t\000"
.LASF4:
	.ascii	"long int\000"
.LASF557:
	.ascii	"GPG_ERR_EMULTIHOP\000"
.LASF832:
	.ascii	"symkey_enc\000"
.LASF492:
	.ascii	"GPG_ERR_EADDRNOTAVAIL\000"
.LASF845:
	.ascii	"free_last_pkt\000"
.LASF592:
	.ascii	"GPG_ERR_ENOTUNIQ\000"
.LASF202:
	.ascii	"GPG_ERR_SIG_EXPIRED\000"
.LASF340:
	.ascii	"GPG_ERR_NO_AUTH\000"
.LASF94:
	.ascii	"GPG_ERR_BAD_URI\000"
.LASF799:
	.ascii	"maybe_revoked\000"
.LASF66:
	.ascii	"GPG_ERR_WRONG_SECKEY\000"
.LASF543:
	.ascii	"GPG_ERR_EL2NSYNC\000"
.LASF577:
	.ascii	"GPG_ERR_ENONET\000"
.LASF421:
	.ascii	"GPG_ERR_LDAP_NOT_ALLOW_ON_RDN\000"
.LASF846:
	.ascii	"skip_meta\000"
.LASF311:
	.ascii	"GPG_ERR_ASS_NO_INQUIRE_CB\000"
.LASF165:
	.ascii	"GPG_ERR_INV_INDEX\000"
.LASF696:
	.ascii	"DIGEST_ALGO_SHA384\000"
.LASF221:
	.ascii	"GPG_ERR_LOCKED\000"
.LASF413:
	.ascii	"GPG_ERR_LDAP_INSUFFICIENT_ACC\000"
.LASF210:
	.ascii	"GPG_ERR_INV_CRL_OBJ\000"
.LASF538:
	.ascii	"GPG_ERR_EIO\000"
.LASF286:
	.ascii	"GPG_ERR_BAD_HS_CERT_REQ\000"
.LASF147:
	.ascii	"GPG_ERR_CANCELED\000"
.LASF731:
	.ascii	"last\000"
.LASF843:
	.ascii	"parse_packet_ctx_s\000"
.LASF848:
	.ascii	"parse_packet_ctx_t\000"
.LASF334:
	.ascii	"GPG_ERR_TOO_OLD\000"
.LASF304:
	.ascii	"GPG_ERR_ASS_CONNECT_FAILED\000"
.LASF763:
	.ascii	"revocation_key\000"
.LASF516:
	.ascii	"GPG_ERR_ED\000"
.LASF332:
	.ascii	"GPG_ERR_DUP_NAME\000"
.LASF91:
	.ascii	"GPG_ERR_WEAK_KEY\000"
.LASF127:
	.ascii	"GPG_ERR_INV_DATA\000"
.LASF855:
	.ascii	"parse_mdc\000"
.LASF123:
	.ascii	"GPG_ERR_INCOMPLETE_LINE\000"
.LASF593:
	.ascii	"GPG_ERR_ENXIO\000"
.LASF589:
	.ascii	"GPG_ERR_ENOTSOCK\000"
.LASF9:
	.ascii	"long double\000"
.LASF609:
	.ascii	"GPG_ERR_EREMOTEIO\000"
.LASF834:
	.ascii	"onepass_sig\000"
.LASF883:
	.ascii	"parsectx\000"
.LASF569:
	.ascii	"GPG_ERR_ENODEV\000"
.LASF101:
	.ascii	"GPG_ERR_UNUSABLE_PUBKEY\000"
.LASF25:
	.ascii	"GPG_ERR_SOURCE_GPGSM\000"
.LASF819:
	.ascii	"extralen\000"
.LASF526:
	.ascii	"GPG_ERR_EFBIG\000"
.LASF775:
	.ascii	"namehash\000"
.LASF868:
	.ascii	"parse\000"
.LASF5:
	.ascii	"long unsigned int\000"
.LASF754:
	.ascii	"numrevkeys\000"
.LASF28:
	.ascii	"GPG_ERR_SOURCE_SCD\000"
.LASF654:
	.ascii	"nlimit\000"
.LASF193:
	.ascii	"GPG_ERR_UNKNOWN_CMS_OBJ\000"
.LASF687:
	.ascii	"PKT_MDC\000"
.LASF55:
	.ascii	"GPG_ERR_BAD_SECKEY\000"
.LASF281:
	.ascii	"GPG_ERR_CLOSE_NOTIFY\000"
.LASF358:
	.ascii	"GPG_ERR_LDAP_GENERAL\000"
.LASF810:
	.ascii	"user_id\000"
.LASF709:
	.ascii	"ctrlpkttype_t\000"
.LASF816:
	.ascii	"new_ctb\000"
.LASF232:
	.ascii	"GPG_ERR_NOT_INITIALIZED\000"
.LASF880:
	.ascii	"create_gpg_control\000"
.LASF13:
	.ascii	"char\000"
.LASF699:
	.ascii	"DIGEST_ALGO_PRIVATE10\000"
.LASF161:
	.ascii	"GPG_ERR_NO_PKCS15_APP\000"
.LASF172:
	.ascii	"GPG_ERR_UNSUPPORTED_OPERATION\000"
.LASF617:
	.ascii	"GPG_ERR_ESRMNT\000"
.LASF162:
	.ascii	"GPG_ERR_NOT_CONFIRMED\000"
.LASF416:
	.ascii	"GPG_ERR_LDAP_UNWILL_TO_PERFORM\000"
.LASF308:
	.ascii	"GPG_ERR_ASS_LINE_TOO_LONG\000"
.LASF535:
	.ascii	"GPG_ERR_EINPROGRESS\000"
.LASF233:
	.ascii	"GPG_ERR_MISSING_ISSUER_CERT\000"
.LASF301:
	.ascii	"GPG_ERR_FALSE\000"
.LASF217:
	.ascii	"GPG_ERR_INV_MAC\000"
.LASF528:
	.ascii	"GPG_ERR_EGRATUITOUS\000"
.LASF57:
	.ascii	"GPG_ERR_NO_PUBKEY\000"
.LASF183:
	.ascii	"GPG_ERR_INV_BER\000"
.LASF490:
	.ascii	"GPG_ERR_EACCES\000"
.LASF653:
	.ascii	"iobuf_struct\000"
.LASF114:
	.ascii	"GPG_ERR_TOO_SHORT\000"
.LASF570:
	.ascii	"GPG_ERR_ENOENT\000"
.LASF758:
	.ascii	"hashed\000"
.LASF753:
	.ascii	"revkey\000"
.LASF751:
	.ascii	"trust_value\000"
.LASF697:
	.ascii	"DIGEST_ALGO_SHA512\000"
.LASF478:
	.ascii	"GPG_ERR_SQL_AUTH\000"
.LASF158:
	.ascii	"GPG_ERR_CARD_REMOVED\000"
.LASF241:
	.ascii	"GPG_ERR_BAD_CRYPT_CTX\000"
.LASF824:
	.ascii	"hash\000"
.LASF81:
	.ascii	"GPG_ERR_RESOURCE_LIMIT\000"
.LASF79:
	.ascii	"GPG_ERR_INV_PASSPHRASE\000"
.LASF177:
	.ascii	"GPG_ERR_HARDWARE\000"
.LASF380:
	.ascii	"GPG_ERR_LDAP_DECODING\000"
.LASF437:
	.ascii	"GPG_ERR_LDAP_ASSERTION_FAILED\000"
.LASF339:
	.ascii	"GPG_ERR_WRONG_NAME\000"
.LASF34:
	.ascii	"GPG_ERR_SOURCE_GPA\000"
.LASF24:
	.ascii	"GPG_ERR_SOURCE_GPG\000"
.LASF160:
	.ascii	"GPG_ERR_CARD_NOT_PRESENT\000"
.LASF602:
	.ascii	"GPG_ERR_EPROGUNAVAIL\000"
.LASF638:
	.ascii	"buffer\000"
.LASF666:
	.ascii	"IOBUF\000"
.LASF806:
	.ascii	"pubkey_usage\000"
.LASF356:
	.ascii	"GPG_ERR_DNS_VERIFY\000"
.LASF200:
	.ascii	"GPG_ERR_DECRYPT_FAILED\000"
.LASF624:
	.ascii	"GPG_ERR_EUCLEAN\000"
.LASF908:
	.ascii	"src/parse-packet.c\000"
.LASF107:
	.ascii	"GPG_ERR_BUG\000"
.LASF314:
	.ascii	"GPG_ERR_ASS_SERVER_START\000"
.LASF268:
	.ascii	"GPG_ERR_REQUEST_TOO_SHORT\000"
.LASF430:
	.ascii	"GPG_ERR_LDAP_CUP_INV_DATA\000"
.LASF153:
	.ascii	"GPG_ERR_UNSUPPORTED_PROTECTION\000"
.LASF234:
	.ascii	"GPG_ERR_NO_KEYSERVER\000"
.LASF650:
	.ascii	"IOBUF_OUTPUT\000"
.LASF508:
	.ascii	"GPG_ERR_EBUSY\000"
.LASF434:
	.ascii	"GPG_ERR_LDAP_NO_SUCH_OPERATION\000"
.LASF847:
	.ascii	"n_parsed_packets\000"
.LASF360:
	.ascii	"GPG_ERR_LDAP_NAME_GENERAL\000"
.LASF714:
	.ascii	"hash_algo\000"
.LASF859:
	.ascii	"leave\000"
.LASF885:
	.ascii	"stopoff\000"
.LASF828:
	.ascii	"control\000"
.LASF755:
	.ascii	"help_counter\000"
.LASF95:
	.ascii	"GPG_ERR_INV_URI\000"
.LASF674:
	.ascii	"PKT_SECRET_KEY\000"
.LASF235:
	.ascii	"GPG_ERR_INV_CURVE\000"
.LASF264:
	.ascii	"GPG_ERR_SERVER_FAILED\000"
.LASF576:
	.ascii	"GPG_ERR_ENOMSG\000"
.LASF92:
	.ascii	"GPG_ERR_INV_KEYLEN\000"
.LASF305:
	.ascii	"GPG_ERR_ASS_INV_RESPONSE\000"
.LASF801:
	.ascii	"backsig\000"
.LASF327:
	.ascii	"GPG_ERR_WINDOW_TOO_SMALL\000"
.LASF176:
	.ascii	"GPG_ERR_MISSING_VALUE\000"
.LASF498:
	.ascii	"GPG_ERR_EBACKGROUND\000"
.LASF218:
	.ascii	"GPG_ERR_INV_REQUEST\000"
.LASF48:
	.ascii	"GPG_ERR_NO_ERROR\000"
.LASF507:
	.ascii	"GPG_ERR_EBFONT\000"
.LASF168:
	.ascii	"GPG_ERR_SCDAEMON\000"
.LASF38:
	.ascii	"GPG_ERR_SOURCE_TPM2D\000"
.LASF851:
	.ascii	"listfp\000"
.LASF527:
	.ascii	"GPG_ERR_EFTYPE\000"
.LASF18:
	.ascii	"double\000"
.LASF642:
	.ascii	"data_flushed\000"
.LASF208:
	.ascii	"GPG_ERR_INV_OID_STRING\000"
.LASF903:
	.ascii	"iobuf_write\000"
.LASF178:
	.ascii	"GPG_ERR_PIN_BLOCKED\000"
.LASF190:
	.ascii	"GPG_ERR_NOT_DER_ENCODED\000"
.LASF568:
	.ascii	"GPG_ERR_ENODATA\000"
.LASF856:
	.ascii	"parse_encrypted\000"
.LASF636:
	.ascii	"string_list\000"
.LASF686:
	.ascii	"PKT_ENCRYPTED_MDC\000"
.LASF838:
	.ascii	"comment\000"
.LASF882:
	.ascii	"pkt_type_str\000"
.LASF330:
	.ascii	"GPG_ERR_USER_ID_EXISTS\000"
.LASF567:
	.ascii	"GPG_ERR_ENOCSI\000"
.LASF306:
	.ascii	"GPG_ERR_ASS_INV_VALUE\000"
.LASF792:
	.ascii	"seckey_info\000"
.LASF796:
	.ascii	"ivlen\000"
.LASF778:
	.ascii	"help_full_count\000"
.LASF727:
	.ascii	"data\000"
.LASF790:
	.ascii	"date\000"
.LASF84:
	.ascii	"GPG_ERR_BAD_CERT\000"
.LASF425:
	.ascii	"GPG_ERR_LDAP_AFFECTS_MULT_DSAS\000"
.LASF157:
	.ascii	"GPG_ERR_CARD_RESET\000"
.LASF773:
	.ascii	"attrib_data\000"
.LASF212:
	.ascii	"GPG_ERR_INV_CERT_OBJ\000"
.LASF429:
	.ascii	"GPG_ERR_LDAP_CUP_SEC_VIOLATION\000"
.LASF802:
	.ascii	"serialno_valid\000"
.LASF115:
	.ascii	"GPG_ERR_TOO_LARGE\000"
.LASF47:
	.ascii	"gpg_err_source_t\000"
.LASF54:
	.ascii	"GPG_ERR_BAD_PUBKEY\000"
.LASF742:
	.ascii	"policy_url\000"
.LASF769:
	.ascii	"primary\000"
.LASF93:
	.ascii	"GPG_ERR_INV_ARG\000"
.LASF78:
	.ascii	"GPG_ERR_BAD_MPI\000"
.LASF143:
	.ascii	"GPG_ERR_NO_CRL_KNOWN\000"
.LASF465:
	.ascii	"GPG_ERR_SQL_IOERR\000"
.LASF117:
	.ascii	"GPG_ERR_NOT_IMPLEMENTED\000"
.LASF227:
	.ascii	"GPG_ERR_NOT_ENABLED\000"
.LASF367:
	.ascii	"GPG_ERR_LDAP_X_CONNECTING\000"
.LASF167:
	.ascii	"GPG_ERR_NO_SCDAEMON\000"
.LASF469:
	.ascii	"GPG_ERR_SQL_CANTOPEN\000"
.LASF248:
	.ascii	"GPG_ERR_BUFFER_TOO_SHORT\000"
.LASF87:
	.ascii	"GPG_ERR_TIME_CONFLICT\000"
.LASF154:
	.ascii	"GPG_ERR_CORRUPTED_PROTECTION\000"
.LASF279:
	.ascii	"GPG_ERR_NO_CIPHER\000"
.LASF265:
	.ascii	"GPG_ERR_NO_NAME\000"
.LASF788:
	.ascii	"PKT_user_id\000"
.LASF110:
	.ascii	"GPG_ERR_TIMEOUT\000"
.LASF293:
	.ascii	"GPG_ERR_BAD_HS_SERVER_KEX\000"
.LASF486:
	.ascii	"GPG_ERR_MISSING_ERRNO\000"
.LASF7:
	.ascii	"long long unsigned int\000"
.LASF194:
	.ascii	"GPG_ERR_UNSUPPORTED_CMS_OBJ\000"
.LASF348:
	.ascii	"GPG_ERR_BAD_RESET_CODE\000"
.LASF820:
	.ascii	"is_partial\000"
.LASF90:
	.ascii	"GPG_ERR_TRIBUTE_TO_D_A\000"
.LASF289:
	.ascii	"GPG_ERR_BAD_HS_CLIENT_HELLO\000"
.LASF864:
	.ascii	"too_short\000"
.LASF677:
	.ascii	"PKT_COMPRESSED\000"
.LASF909:
	.ascii	"/home/fred/code/rpi-qemu-gdb/Claude/raspi3b_qemu_\000"
.LASF449:
	.ascii	"GPG_ERR_USER_11\000"
.LASF737:
	.ascii	"pka_info_t\000"
.LASF359:
	.ascii	"GPG_ERR_LDAP_ATTR_GENERAL\000"
.LASF630:
	.ascii	"GPG_ERR_CODE_DIM\000"
.LASF100:
	.ascii	"GPG_ERR_NOT_PROCESSED\000"
.LASF317:
	.ascii	"GPG_ERR_ASS_TOO_MUCH_DATA\000"
.LASF112:
	.ascii	"GPG_ERR_EOF_GCRYPT\000"
.LASF239:
	.ascii	"GPG_ERR_NO_CRYPT_CTX\000"
.LASF406:
	.ascii	"GPG_ERR_LDAP_ALIAS_PROBLEM\000"
.LASF173:
	.ascii	"GPG_ERR_WRONG_KEY_USAGE\000"
.LASF637:
	.ascii	"_gpgrt__stream\000"
.LASF760:
	.ascii	"digest_start\000"
.LASF97:
	.ascii	"GPG_ERR_UNKNOWN_HOST\000"
.LASF670:
	.ascii	"PKT_PUBKEY_ENC\000"
.LASF621:
	.ascii	"GPG_ERR_ETIMEDOUT\000"
.LASF841:
	.ascii	"plaintext\000"
.LASF461:
	.ascii	"GPG_ERR_SQL_LOCKED\000"
.LASF884:
	.ascii	"dbg_copy_some_packets\000"
.LASF648:
	.ascii	"IOBUF_INPUT\000"
.LASF33:
	.ascii	"GPG_ERR_SOURCE_GSTI\000"
.LASF539:
	.ascii	"GPG_ERR_EISCONN\000"
.LASF362:
	.ascii	"GPG_ERR_LDAP_SERVICE_GENERAL\000"
.LASF214:
	.ascii	"GPG_ERR_LOCALE_PROBLEM\000"
.LASF56:
	.ascii	"GPG_ERR_BAD_SIGNATURE\000"
.LASF35:
	.ascii	"GPG_ERR_SOURCE_KLEO\000"
.LASF116:
	.ascii	"GPG_ERR_NO_OBJ\000"
.LASF422:
	.ascii	"GPG_ERR_LDAP_ALREADY_EXISTS\000"
.LASF553:
	.ascii	"GPG_ERR_EMEDIUMTYPE\000"
.LASF164:
	.ascii	"GPG_ERR_NO_POLICY_MATCH\000"
.LASF479:
	.ascii	"GPG_ERR_SQL_FORMAT\000"
.LASF639:
	.ascii	"buffer_size\000"
.LASF325:
	.ascii	"GPG_ERR_ASS_UNKNOWN_INQUIRE\000"
.LASF493:
	.ascii	"GPG_ERR_EADV\000"
.LASF524:
	.ascii	"GPG_ERR_EEXIST\000"
.LASF420:
	.ascii	"GPG_ERR_LDAP_NOT_ALLOW_NONLEAF\000"
.LASF40:
	.ascii	"GPG_ERR_SOURCE_TKD\000"
.LASF559:
	.ascii	"GPG_ERR_ENAVAIL\000"
.LASF562:
	.ascii	"GPG_ERR_ENETRESET\000"
.LASF772:
	.ascii	"numattribs\000"
.LASF134:
	.ascii	"GPG_ERR_PIN_ENTRY\000"
.LASF199:
	.ascii	"GPG_ERR_PUBKEY_NOT_TRUSTED\000"
.LASF70:
	.ascii	"GPG_ERR_NO_ENCODING_METHOD\000"
.LASF6:
	.ascii	"long long int\000"
.LASF455:
	.ascii	"GPG_ERR_SQL_OK\000"
.LASF739:
	.ascii	"unknown_critical\000"
.LASF283:
	.ascii	"GPG_ERR_BAD_TICKET\000"
.LASF892:
	.ascii	"gpg_error\000"
.LASF564:
	.ascii	"GPG_ERR_ENFILE\000"
.LASF370:
	.ascii	"GPG_ERR_LDAP_NO_RESULTS\000"
.LASF578:
	.ascii	"GPG_ERR_ENOPKG\000"
.LASF552:
	.ascii	"GPG_ERR_ELOOP\000"
.LASF39:
	.ascii	"GPG_ERR_SOURCE_TLS\000"
.LASF800:
	.ascii	"dont_cache\000"
.LASF195:
	.ascii	"GPG_ERR_UNSUPPORTED_ENCODING\000"
.LASF137:
	.ascii	"GPG_ERR_BAD_DATA\000"
.LASF223:
	.ascii	"GPG_ERR_UNKNOWN_COMMAND\000"
.LASF541:
	.ascii	"GPG_ERR_EISNAM\000"
.LASF488:
	.ascii	"GPG_ERR_EOF\000"
.LASF721:
	.ascii	"seskeylen\000"
.LASF596:
	.ascii	"GPG_ERR_EPERM\000"
.LASF240:
	.ascii	"GPG_ERR_WRONG_CRYPT_CTX\000"
.LASF252:
	.ascii	"GPG_ERR_SEXP_NOT_CANONICAL\000"
.LASF145:
	.ascii	"GPG_ERR_LINE_TOO_LONG\000"
.LASF206:
	.ascii	"GPG_ERR_MISSING_ACTION\000"
.LASF419:
	.ascii	"GPG_ERR_LDAP_OBJ_CLS_VIOLATION\000"
.LASF26:
	.ascii	"GPG_ERR_SOURCE_GPGAGENT\000"
.LASF483:
	.ascii	"GPG_ERR_SQL_WARNING\000"
.LASF632:
	.ascii	"gpg_error_t\000"
.LASF558:
	.ascii	"GPG_ERR_ENAMETOOLONG\000"
.LASF448:
	.ascii	"GPG_ERR_USER_10\000"
.LASF125:
	.ascii	"GPG_ERR_NO_AGENT\000"
.LASF450:
	.ascii	"GPG_ERR_USER_12\000"
.LASF451:
	.ascii	"GPG_ERR_USER_13\000"
.LASF452:
	.ascii	"GPG_ERR_USER_14\000"
.LASF453:
	.ascii	"GPG_ERR_USER_15\000"
.LASF454:
	.ascii	"GPG_ERR_USER_16\000"
.LASF307:
	.ascii	"GPG_ERR_ASS_INCOMPLETE_LINE\000"
.LASF396:
	.ascii	"GPG_ERR_LDAP_UNAVAIL_CRIT_EXTN\000"
.LASF21:
	.ascii	"strlist_t\000"
.LASF581:
	.ascii	"GPG_ERR_ENOSR\000"
.LASF96:
	.ascii	"GPG_ERR_NETWORK\000"
.LASF263:
	.ascii	"GPG_ERR_DB_CORRUPTED\000"
.LASF236:
	.ascii	"GPG_ERR_UNKNOWN_CURVE\000"
.LASF683:
	.ascii	"PKT_PUBLIC_SUBKEY\000"
.LASF548:
	.ascii	"GPG_ERR_ELIBEXEC\000"
.LASF470:
	.ascii	"GPG_ERR_SQL_PROTOCOL\000"
.LASF347:
	.ascii	"GPG_ERR_NO_RESET_CODE\000"
.LASF476:
	.ascii	"GPG_ERR_SQL_MISUSE\000"
.LASF534:
	.ascii	"GPG_ERR_EILSEQ\000"
.LASF427:
	.ascii	"GPG_ERR_LDAP_OTHER\000"
.LASF530:
	.ascii	"GPG_ERR_EHOSTDOWN\000"
.LASF198:
	.ascii	"GPG_ERR_INV_ENGINE\000"
.LASF612:
	.ascii	"GPG_ERR_ERPCMISMATCH\000"
.LASF487:
	.ascii	"GPG_ERR_UNKNOWN_ERRNO\000"
.LASF502:
	.ascii	"GPG_ERR_EBADMSG\000"
.LASF718:
	.ascii	"version\000"
.LASF779:
	.ascii	"help_marginal_count\000"
.LASF704:
	.ascii	"packet_struct\000"
.LASF98:
	.ascii	"GPG_ERR_SELFTEST_FAILED\000"
.LASF32:
	.ascii	"GPG_ERR_SOURCE_DIRMNGR\000"
.LASF8:
	.ascii	"unsigned int\000"
.LASF467:
	.ascii	"GPG_ERR_SQL_NOTFOUND\000"
.LASF681:
	.ascii	"PKT_RING_TRUST\000"
.LASF762:
	.ascii	"digest_len\000"
.LASF400:
	.ascii	"GPG_ERR_LDAP_UNDEFINED_TYPE\000"
.LASF645:
	.ascii	"unread_data_len\000"
.LASF768:
	.ascii	"compacted\000"
.LASF910:
	.ascii	"iobuf_use\000"
.LASF415:
	.ascii	"GPG_ERR_LDAP_UNAVAILABLE\000"
.LASF292:
	.ascii	"GPG_ERR_BAD_HS_FINISHED\000"
.LASF719:
	.ascii	"cipher_algo\000"
.LASF258:
	.ascii	"GPG_ERR_SEXP_UNEXPECTED_PUNC\000"
.LASF757:
	.ascii	"signers_uid\000"
.LASF312:
	.ascii	"GPG_ERR_ASS_NOT_A_SERVER\000"
.LASF663:
	.ascii	"real_fname\000"
.LASF2:
	.ascii	"short int\000"
.LASF707:
	.ascii	"CTRLPKT_PIPEMODE\000"
.LASF379:
	.ascii	"GPG_ERR_LDAP_TIMEOUT\000"
.LASF785:
	.ascii	"selfsigversion\000"
.LASF831:
	.ascii	"generic\000"
.LASF122:
	.ascii	"GPG_ERR_TRUNCATED\000"
.LASF468:
	.ascii	"GPG_ERR_SQL_FULL\000"
.LASF376:
	.ascii	"GPG_ERR_LDAP_USER_CANCELLED\000"
.LASF135:
	.ascii	"GPG_ERR_BAD_PIN\000"
.LASF550:
	.ascii	"GPG_ERR_ELIBSCN\000"
.LASF411:
	.ascii	"GPG_ERR_LDAP_BAD_AUTH\000"
.LASF852:
	.ascii	"known_notations_list\000"
.LASF874:
	.ascii	"dbg_f\000"
.LASF599:
	.ascii	"GPG_ERR_EPROCLIM\000"
.LASF875:
	.ascii	"dbg_l\000"
.LASF20:
	.ascii	"flags\000"
.LASF873:
	.ascii	"dbg_w\000"
.LASF807:
	.ascii	"req_usage\000"
.LASF282:
	.ascii	"GPG_ERR_TICKET_EXPIRED\000"
	.ident	"GCC: (15:10.3-2021.07-4) 10.3.1 20210621 (release)"
