	.cpu cortex-a7
	.eabi_attribute 20, 1	@ Tag_ABI_FP_denormal
	.eabi_attribute 21, 1	@ Tag_ABI_FP_exceptions
	.eabi_attribute 23, 3	@ Tag_ABI_FP_number_model
	.eabi_attribute 24, 1	@ Tag_ABI_align8_needed
	.eabi_attribute 25, 1	@ Tag_ABI_align8_preserved
	.eabi_attribute 26, 1	@ Tag_ABI_enum_size
	.eabi_attribute 30, 2	@ Tag_ABI_optimization_goals
	.eabi_attribute 34, 1	@ Tag_CPU_unaligned_access
	.eabi_attribute 18, 4	@ Tag_ABI_PCS_wchar_t
	.file	"sha1.c"
@ GNU C17 (15:10.3-2021.07-4) version 10.3.1 20210621 (release) (arm-none-eabi)
@	compiled by GNU C version 11.2.0, GMP version 6.2.1, MPFR version 4.1.0, MPC version 1.2.1, isl version isl-0.24-GMP

@ GGC heuristics: --param ggc-min-expand=100 --param ggc-min-heapsize=131072
@ options passed:  -I src -I src/common -imultilib thumb/v7-a/nofp
@ -D__USES_INITFINI__ src/sha1.c -mcpu=cortex-a7 -mfloat-abi=soft -marm
@ -mlibarch=armv7ve -march=armv7ve -auxbase-strip build/asm_output/sha1.s
@ -g -O2 -Wall -Wextra -fpic -ffreestanding -ffunction-sections
@ -fdata-sections -fno-common -fverbose-asm
@ options enabled:  -faggressive-loop-optimizations -falign-functions
@ -falign-jumps -falign-labels -falign-loops -fallocation-dce
@ -fauto-inc-dec -fbranch-count-reg -fcaller-saves
@ -fcombine-stack-adjustments -fcompare-elim -fcprop-registers
@ -fcrossjumping -fcse-follow-jumps -fdata-sections -fdefer-pop
@ -fdelete-null-pointer-checks -fdevirtualize -fdevirtualize-speculatively
@ -fdwarf2-cfi-asm -fearly-inlining -feliminate-unused-debug-symbols
@ -feliminate-unused-debug-types -fexpensive-optimizations
@ -fforward-propagate -ffp-int-builtin-inexact -ffunction-cse
@ -ffunction-sections -fgcse -fgcse-lm -fgnu-unique
@ -fguess-branch-probability -fhoist-adjacent-loads -fident -fif-conversion
@ -fif-conversion2 -findirect-inlining -finline -finline-atomics
@ -finline-functions -finline-functions-called-once
@ -finline-small-functions -fipa-bit-cp -fipa-cp -fipa-icf
@ -fipa-icf-functions -fipa-icf-variables -fipa-profile -fipa-pure-const
@ -fipa-ra -fipa-reference -fipa-reference-addressable -fipa-sra
@ -fipa-stack-alignment -fipa-vrp -fira-hoist-pressure
@ -fira-share-save-slots -fira-share-spill-slots
@ -fisolate-erroneous-paths-dereference -fivopts -fkeep-static-consts
@ -fleading-underscore -flifetime-dse -flra-remat -fmath-errno
@ -fmerge-constants -fmerge-debug-strings -fmove-loop-invariants
@ -fomit-frame-pointer -foptimize-sibling-calls -foptimize-strlen
@ -fpartial-inlining -fpeephole -fpeephole2 -fpic -fplt
@ -fprefetch-loop-arrays -freg-struct-return -freorder-blocks
@ -freorder-functions -frerun-cse-after-loop
@ -fsched-critical-path-heuristic -fsched-dep-count-heuristic
@ -fsched-group-heuristic -fsched-interblock -fsched-last-insn-heuristic
@ -fsched-pressure -fsched-rank-heuristic -fsched-spec
@ -fsched-spec-insn-heuristic -fsched-stalled-insns-dep -fschedule-insns
@ -fschedule-insns2 -fsection-anchors -fsemantic-interposition
@ -fshow-column -fshrink-wrap -fshrink-wrap-separate -fsigned-zeros
@ -fsplit-ivs-in-unroller -fsplit-wide-types -fssa-backprop -fssa-phiopt
@ -fstdarg-opt -fstore-merging -fstrict-aliasing
@ -fstrict-volatile-bitfields -fsync-libcalls -fthread-jumps
@ -ftoplevel-reorder -ftrapping-math -ftree-bit-ccp -ftree-builtin-call-dce
@ -ftree-ccp -ftree-ch -ftree-coalesce-vars -ftree-copy-prop -ftree-cselim
@ -ftree-dce -ftree-dominator-opts -ftree-dse -ftree-forwprop -ftree-fre
@ -ftree-loop-if-convert -ftree-loop-im -ftree-loop-ivcanon
@ -ftree-loop-optimize -ftree-parallelize-loops= -ftree-phiprop -ftree-pre
@ -ftree-pta -ftree-reassoc -ftree-scev-cprop -ftree-sink -ftree-slsr
@ -ftree-sra -ftree-switch-conversion -ftree-tail-merge -ftree-ter
@ -ftree-vrp -funit-at-a-time -fvar-tracking -fvar-tracking-assignments
@ -fverbose-asm -fzero-initialized-in-bss -marm -mbe32 -mlittle-endian
@ -mpic-data-is-text-relative -msched-prolog -munaligned-access
@ -mvectorize-with-neon-quad -mword-relocations

	.text
.Ltext0:
	.cfi_sections	.debug_frame
	.section	.text.SHA1Transform,"ax",%progbits
	.align	2
	.global	SHA1Transform
	.arch armv7ve
	.syntax unified
	.arm
	.fpu softvfp
	.type	SHA1Transform, %function
SHA1Transform:
.LVL0:
.LFB3:
	.file 1 "src/sha1.c"
	.loc 1 56 1 view -0
	.cfi_startproc
	@ args = 0, pretend = 0, frame = 160
	@ frame_needed = 0, uses_anonymous_args = 0
	.loc 1 57 5 view .LVU1
	.loc 1 58 5 view .LVU2
	.loc 1 64 5 view .LVU3
	.loc 1 65 5 view .LVU4
@ src/sha1.c:56: {
	.loc 1 56 1 is_stmt 0 view .LVU5
	push	{r4, r5, r6, r7, r8, r9, r10, fp, lr}	@
	.cfi_def_cfa_offset 36
	.cfi_offset 4, -36
	.cfi_offset 5, -32
	.cfi_offset 6, -28
	.cfi_offset 7, -24
	.cfi_offset 8, -20
	.cfi_offset 9, -16
	.cfi_offset 10, -12
	.cfi_offset 11, -8
	.cfi_offset 14, -4
	mov	r4, r0	@ state, tmp1871
	sub	sp, sp, #164	@,,
	.cfi_def_cfa_offset 200
@ src/sha1.c:65:     memcpy(block, buffer, 64);
	.loc 1 65 5 view .LVU6
	mov	r2, #64	@,
	add	r0, sp, #96	@,,
	bl	memcpy(PLT)	@
.LVL1:
	.loc 1 67 5 is_stmt 1 view .LVU7
@ src/sha1.c:69:     c = state[2];
	.loc 1 69 7 is_stmt 0 view .LVU8
	ldr	r5, [r4, #8]	@ c, MEM[(uint32_t *)state_821(D) + 8B]
	movw	r3, #31129	@ tmp1120,
@ src/sha1.c:70:     d = state[3];
	.loc 1 70 7 view .LVU9
	ldr	r1, [r4, #12]	@ d, MEM[(uint32_t *)state_821(D) + 12B]
@ src/sha1.c:68:     b = state[1];
	.loc 1 68 7 view .LVU10
	ldr	r2, [r4, #4]	@ b, MEM[(uint32_t *)state_821(D) + 4B]
@ src/sha1.c:67:     a = state[0];
	.loc 1 67 7 view .LVU11
	ldr	r0, [r4]	@ a, *state_821(D)
.LVL2:
	.loc 1 68 5 is_stmt 1 view .LVU12
	.loc 1 69 5 view .LVU13
	.loc 1 70 5 view .LVU14
	.loc 1 71 5 view .LVU15
@ src/sha1.c:71:     e = state[4];
	.loc 1 71 7 is_stmt 0 view .LVU16
	ldr	ip, [r4, #16]	@ e, MEM[(uint32_t *)state_821(D) + 16B]
.LVL3:
	.loc 1 73 5 is_stmt 1 view .LVU17
	movt	r3, 23170	@ tmp1120,
@ src/sha1.c:67:     a = state[0];
	.loc 1 67 7 is_stmt 0 view .LVU18
	mov	r6, r0	@ a, a
@ src/sha1.c:73:     R0(a, b, c, d, e, 0);
	.loc 1 73 5 view .LVU19
	eor	r7, r5, r1	@ tmp1115, c, d
@ src/sha1.c:67:     a = state[0];
	.loc 1 67 7 view .LVU20
	str	r4, [sp, #92]	@ state, %sfp
@ src/sha1.c:73:     R0(a, b, c, d, e, 0);
	.loc 1 73 5 view .LVU21
	and	r7, r7, r2	@ tmp1116, tmp1115, b
	ror	r4, r2, #2	@ b, b,
.LVL4:
	.loc 1 73 5 view .LVU22
	ldr	fp, [sp, #96]	@ MEM <long unsigned int> [(union  *)&block], MEM <long unsigned int> [(union  *)&block]
@ src/sha1.c:74:     R0(e, a, b, c, d, 1);
	.loc 1 74 5 view .LVU23
	eor	r8, r5, r4	@ tmp1123, c, b
@ src/sha1.c:73:     R0(a, b, c, d, e, 0);
	.loc 1 73 5 view .LVU24
	str	r2, [sp, #76]	@ b, %sfp
@ src/sha1.c:74:     R0(e, a, b, c, d, 1);
	.loc 1 74 5 view .LVU25
	and	r8, r8, r0	@ tmp1124, tmp1123, a
	add	r2, ip, r3	@ tmp1119, e, tmp1120
.LVL5:
	.loc 1 74 5 view .LVU26
	add	r2, r2, r0, ror #27	@ tmp1121, tmp1119, a,
@ src/sha1.c:73:     R0(a, b, c, d, e, 0);
	.loc 1 73 5 view .LVU27
	eor	r7, r7, r1	@ tmp1117, tmp1116, d
	ldr	r0, [sp, #100]	@ MEM <long unsigned int> [(union  *)&block + 4B], MEM <long unsigned int> [(union  *)&block + 4B]
.LVL6:
@ src/sha1.c:74:     R0(e, a, b, c, d, 1);
	.loc 1 74 5 view .LVU28
	ror	r10, r6, #2	@ a, a,
	str	ip, [sp, #88]	@ e, %sfp
	rev	fp, fp	@ _9, MEM <long unsigned int> [(union  *)&block]
	ldr	ip, [sp, #104]	@ MEM <long unsigned int> [(union  *)&block + 8B], MEM <long unsigned int> [(union  *)&block + 8B]
.LVL7:
	.loc 1 74 5 view .LVU29
	add	r7, r7, r2	@ _20, tmp1117, tmp1121
	eor	r8, r8, r5	@ tmp1125, tmp1124, c
	add	r2, r1, r3	@ tmp1126, d, tmp1120
@ src/sha1.c:73:     R0(a, b, c, d, e, 0);
	.loc 1 73 5 view .LVU30
	add	r7, fp, r7	@ e, _9, _20
.LVL8:
	.loc 1 73 5 is_stmt 1 view .LVU31
	.loc 1 73 25 view .LVU32
	.loc 1 74 5 view .LVU33
	str	r1, [sp, #84]	@ d, %sfp
	rev	r0, r0	@ _21, MEM <long unsigned int> [(union  *)&block + 4B]
@ src/sha1.c:75:     R0(d, e, a, b, c, 2);
	.loc 1 75 5 is_stmt 0 view .LVU34
	eor	r1, r4, r10	@ tmp1131, b, a
.LVL9:
	.loc 1 75 5 view .LVU35
	add	r8, r8, r2	@ tmp1128, tmp1125, tmp1126
	and	r1, r1, r7	@ tmp1132, tmp1131, e
	rev	ip, ip	@ _33, MEM <long unsigned int> [(union  *)&block + 8B]
	add	lr, r5, r3	@ tmp1134, c, tmp1120
	add	r8, r8, r0	@ _1495, tmp1128, _21
@ src/sha1.c:74:     R0(e, a, b, c, d, 1);
	.loc 1 74 5 view .LVU36
	add	r8, r8, r7, ror #27	@ d, _1495, e,
.LVL10:
	.loc 1 74 5 is_stmt 1 view .LVU37
	.loc 1 74 25 view .LVU38
	.loc 1 75 5 view .LVU39
	add	lr, lr, ip	@ tmp1136, tmp1134, _33
	ror	r7, r7, #2	@ e, e,
.LVL11:
	.loc 1 75 5 is_stmt 0 view .LVU40
	eor	r1, r1, r4	@ tmp1133, tmp1132, b
	add	r1, r1, lr	@ _1492, tmp1133, tmp1136
@ src/sha1.c:76:     R0(c, d, e, a, b, 3);
	.loc 1 76 5 view .LVU41
	eor	lr, r10, r7	@ tmp1139, a, e
@ src/sha1.c:75:     R0(d, e, a, b, c, 2);
	.loc 1 75 5 view .LVU42
	add	r1, r1, r8, ror #27	@ c, _1492, d,
.LVL12:
	.loc 1 75 5 is_stmt 1 view .LVU43
	.loc 1 75 25 view .LVU44
	.loc 1 76 5 view .LVU45
	and	lr, lr, r8	@ tmp1140, tmp1139, d
@ src/sha1.c:74:     R0(e, a, b, c, d, 1);
	.loc 1 74 5 is_stmt 0 view .LVU46
	str	r6, [sp, #72]	@ a, %sfp
@ src/sha1.c:76:     R0(c, d, e, a, b, 3);
	.loc 1 76 5 view .LVU47
	ror	r8, r8, #2	@ d, d,
.LVL13:
	.loc 1 76 5 view .LVU48
	ldr	r6, [sp, #112]	@ MEM <long unsigned int> [(union  *)&block + 16B], MEM <long unsigned int> [(union  *)&block + 16B]
.LVL14:
@ src/sha1.c:77:     R0(b, c, d, e, a, 4);
	.loc 1 77 5 view .LVU49
	eor	r9, r7, r8	@ tmp1147, e, d
	rev	r6, r6	@ _57, MEM <long unsigned int> [(union  *)&block + 16B]
	and	r9, r9, r1	@ tmp1148, tmp1147, c
	ldr	r2, [sp, #108]	@ MEM <long unsigned int> [(union  *)&block + 12B], MEM <long unsigned int> [(union  *)&block + 12B]
.LVL15:
@ src/sha1.c:76:     R0(c, d, e, a, b, 3);
	.loc 1 76 5 view .LVU50
	eor	lr, lr, r10	@ tmp1141, tmp1140, a
	add	r10, r10, r3	@ tmp1150, a, tmp1120
.LVL16:
	.loc 1 76 5 view .LVU51
	add	r10, r10, r6	@ tmp1152, tmp1150, _57
@ src/sha1.c:77:     R0(b, c, d, e, a, 4);
	.loc 1 77 5 view .LVU52
	eor	r9, r9, r7	@ tmp1149, tmp1148, e
	rev	r2, r2	@ _45, MEM <long unsigned int> [(union  *)&block + 12B]
	add	r4, r4, r3	@ tmp1142, b, tmp1120
.LVL17:
	.loc 1 77 5 view .LVU53
	add	r9, r9, r10	@ _1486, tmp1149, tmp1152
	ldr	r10, [sp, #120]	@ MEM <long unsigned int> [(union  *)&block + 24B], MEM <long unsigned int> [(union  *)&block + 24B]
	add	r4, r4, r2	@ tmp1144, tmp1142, _45
	rev	r10, r10	@ _81, MEM <long unsigned int> [(union  *)&block + 24B]
	str	r5, [sp, #80]	@ c, %sfp
	add	lr, lr, r4	@ _1489, tmp1141, tmp1144
	ldr	r5, [sp, #116]	@ MEM <long unsigned int> [(union  *)&block + 20B], MEM <long unsigned int> [(union  *)&block + 20B]
.LVL18:
@ src/sha1.c:76:     R0(c, d, e, a, b, 3);
	.loc 1 76 5 view .LVU54
	add	lr, lr, r1, ror #27	@ b, _1489, c,
.LVL19:
	.loc 1 76 5 is_stmt 1 view .LVU55
	.loc 1 76 25 view .LVU56
	.loc 1 77 5 view .LVU57
@ src/sha1.c:93:     R2(a, b, c, d, e, 20);
	.loc 1 93 5 is_stmt 0 view .LVU58
	eor	r4, r6, r10	@ tmp1282, _57, _81
@ src/sha1.c:77:     R0(b, c, d, e, a, 4);
	.loc 1 77 5 view .LVU59
	ror	r1, r1, #2	@ c, c,
.LVL20:
	.loc 1 77 5 view .LVU60
	rev	r5, r5	@ _69, MEM <long unsigned int> [(union  *)&block + 20B]
@ src/sha1.c:93:     R2(a, b, c, d, e, 20);
	.loc 1 93 5 view .LVU61
	str	r4, [sp, #4]	@ tmp1282, %sfp
@ src/sha1.c:78:     R0(a, b, c, d, e, 5);
	.loc 1 78 5 view .LVU62
	eor	r4, r8, r1	@ tmp1155, d, c
@ src/sha1.c:89:     R1(e, a, b, c, d, 16);
	.loc 1 89 5 view .LVU63
	eor	fp, fp, ip	@ tmp1242, _9, _33
.LVL21:
@ src/sha1.c:78:     R0(a, b, c, d, e, 5);
	.loc 1 78 5 view .LVU64
	and	r4, r4, lr	@ tmp1156, tmp1155, b
@ src/sha1.c:91:     R1(c, d, e, a, b, 18);
	.loc 1 91 5 view .LVU65
	eor	ip, ip, r6	@ tmp1262, _33, _57
.LVL22:
	.loc 1 91 5 view .LVU66
	add	r6, r5, r3	@ tmp1158, _69, tmp1120
@ src/sha1.c:78:     R0(a, b, c, d, e, 5);
	.loc 1 78 5 view .LVU67
	eor	r4, r4, r8	@ tmp1157, tmp1156, d
	add	r7, r6, r7	@ tmp1160, tmp1158, e
.LVL23:
	.loc 1 78 5 view .LVU68
	add	r7, r4, r7	@ _1483, tmp1157, tmp1160
	ldr	r4, [sp, #124]	@ MEM <long unsigned int> [(union  *)&block + 28B], MEM <long unsigned int> [(union  *)&block + 28B]
@ src/sha1.c:77:     R0(b, c, d, e, a, 4);
	.loc 1 77 5 view .LVU69
	add	r9, r9, lr, ror #27	@ a, _1486, b,
.LVL24:
	.loc 1 77 5 is_stmt 1 view .LVU70
	.loc 1 77 25 view .LVU71
	.loc 1 78 5 view .LVU72
	rev	r4, r4	@ _93, MEM <long unsigned int> [(union  *)&block + 28B]
	ror	lr, lr, #2	@ b, b,
.LVL25:
@ src/sha1.c:94:     R2(e, a, b, c, d, 21);
	.loc 1 94 5 is_stmt 0 view .LVU73
	eor	r6, r5, r4	@ tmp1291, _69, _93
@ src/sha1.c:90:     R1(d, e, a, b, c, 17);
	.loc 1 90 5 view .LVU74
	eor	r0, r0, r2	@ tmp1252, _21, _45
.LVL26:
@ src/sha1.c:92:     R1(b, c, d, e, a, 19);
	.loc 1 92 5 view .LVU75
	eor	r2, r2, r5	@ tmp1272, _45, _69
.LVL27:
	.loc 1 92 5 view .LVU76
	add	r5, r10, r3	@ tmp1166, _81, tmp1120
	add	r5, r5, r8	@ tmp1168, tmp1166, d
@ src/sha1.c:94:     R2(e, a, b, c, d, 21);
	.loc 1 94 5 view .LVU77
	str	r6, [sp, #12]	@ tmp1291, %sfp
	ldr	r8, [sp, #128]	@ MEM <long unsigned int> [(union  *)&block + 32B], MEM <long unsigned int> [(union  *)&block + 32B]
.LVL28:
@ src/sha1.c:79:     R0(e, a, b, c, d, 6);
	.loc 1 79 5 view .LVU78
	eor	r6, r1, lr	@ tmp1163, c, b
	rev	r8, r8	@ _105, MEM <long unsigned int> [(union  *)&block + 32B]
	and	r6, r6, r9	@ tmp1164, tmp1163, a
@ src/sha1.c:78:     R0(a, b, c, d, e, 5);
	.loc 1 78 5 view .LVU79
	add	r7, r7, r9, ror #27	@ e, _1483, a,
.LVL29:
	.loc 1 78 5 is_stmt 1 view .LVU80
	.loc 1 78 25 view .LVU81
	.loc 1 79 5 view .LVU82
	eor	r6, r6, r1	@ tmp1165, tmp1164, c
	ror	r9, r9, #2	@ a, a,
.LVL30:
@ src/sha1.c:95:     R2(d, e, a, b, c, 22);
	.loc 1 95 5 is_stmt 0 view .LVU83
	eor	r10, r10, r8	@ tmp1300, _81, _105
	add	r6, r6, r5	@ _1480, tmp1165, tmp1168
@ src/sha1.c:80:     R0(d, e, a, b, c, 7);
	.loc 1 80 5 view .LVU84
	eor	r5, lr, r9	@ tmp1171, b, a
@ src/sha1.c:95:     R2(d, e, a, b, c, 22);
	.loc 1 95 5 view .LVU85
	str	r10, [sp, #28]	@ tmp1300, %sfp
@ src/sha1.c:80:     R0(d, e, a, b, c, 7);
	.loc 1 80 5 view .LVU86
	and	r5, r5, r7	@ tmp1172, tmp1171, e
	add	r10, r4, r3	@ tmp1174, _93, tmp1120
	add	r1, r10, r1	@ tmp1176, tmp1174, c
.LVL31:
	.loc 1 80 5 view .LVU87
	eor	r5, r5, lr	@ tmp1173, tmp1172, b
	add	r5, r5, r1	@ _1477, tmp1173, tmp1176
	ldr	r1, [sp, #132]	@ MEM <long unsigned int> [(union  *)&block + 36B], MEM <long unsigned int> [(union  *)&block + 36B]
@ src/sha1.c:79:     R0(e, a, b, c, d, 6);
	.loc 1 79 5 view .LVU88
	add	r6, r6, r7, ror #27	@ d, _1480, e,
.LVL32:
	.loc 1 79 5 is_stmt 1 view .LVU89
	.loc 1 79 25 view .LVU90
	.loc 1 80 5 view .LVU91
	rev	r1, r1	@ _117, MEM <long unsigned int> [(union  *)&block + 36B]
@ src/sha1.c:90:     R1(d, e, a, b, c, 17);
	.loc 1 90 5 is_stmt 0 view .LVU92
	eor	r0, r0, r1	@ tmp1253, tmp1252, _117
	str	r0, [sp, #8]	@ tmp1253, %sfp
@ src/sha1.c:96:     R2(c, d, e, a, b, 23);
	.loc 1 96 5 view .LVU93
	eor	r0, r4, r1	@ tmp1309, _93, _117
@ src/sha1.c:80:     R0(d, e, a, b, c, 7);
	.loc 1 80 5 view .LVU94
	ror	r7, r7, #2	@ e, e,
.LVL33:
@ src/sha1.c:96:     R2(c, d, e, a, b, 23);
	.loc 1 96 5 view .LVU95
	str	r0, [sp, #32]	@ tmp1309, %sfp
	add	r0, r8, r3	@ tmp1182, _105, tmp1120
@ src/sha1.c:81:     R0(c, d, e, a, b, 8);
	.loc 1 81 5 view .LVU96
	eor	r4, r9, r7	@ tmp1179, a, e
	add	lr, r0, lr	@ tmp1184, tmp1182, b
.LVL34:
	.loc 1 81 5 view .LVU97
	and	r4, r4, r6	@ tmp1180, tmp1179, d
	ldr	r0, [sp, #136]	@ MEM <long unsigned int> [(union  *)&block + 40B], MEM <long unsigned int> [(union  *)&block + 40B]
	ldr	r10, [sp, #140]	@ MEM <long unsigned int> [(union  *)&block + 44B], MEM <long unsigned int> [(union  *)&block + 44B]
	rev	r0, r0	@ _129, MEM <long unsigned int> [(union  *)&block + 40B]
@ src/sha1.c:80:     R0(d, e, a, b, c, 7);
	.loc 1 80 5 view .LVU98
	add	r5, r5, r6, ror #27	@ c, _1477, d,
.LVL35:
	.loc 1 80 5 is_stmt 1 view .LVU99
	.loc 1 80 25 view .LVU100
	.loc 1 81 5 view .LVU101
@ src/sha1.c:89:     R1(e, a, b, c, d, 16);
	.loc 1 89 5 is_stmt 0 view .LVU102
	eor	fp, fp, r8	@ tmp1243, tmp1242, _105
@ src/sha1.c:81:     R0(c, d, e, a, b, 8);
	.loc 1 81 5 view .LVU103
	ror	r6, r6, #2	@ d, d,
.LVL36:
	.loc 1 81 5 view .LVU104
	eor	r4, r4, r9	@ tmp1181, tmp1180, a
	rev	r10, r10	@ _141, MEM <long unsigned int> [(union  *)&block + 44B]
@ src/sha1.c:89:     R1(e, a, b, c, d, 16);
	.loc 1 89 5 view .LVU105
	str	fp, [sp]	@ tmp1243, %sfp
	add	r4, r4, lr	@ _1474, tmp1181, tmp1184
@ src/sha1.c:91:     R1(c, d, e, a, b, 18);
	.loc 1 91 5 view .LVU106
	eor	fp, ip, r0	@ tmp1263, tmp1262, _129
@ src/sha1.c:82:     R0(b, c, d, e, a, 9);
	.loc 1 82 5 view .LVU107
	eor	lr, r7, r6	@ tmp1187, e, d
	add	ip, r1, r3	@ tmp1190, _117, tmp1120
	and	lr, lr, r5	@ tmp1188, tmp1187, c
	add	ip, ip, r9	@ tmp1192, tmp1190, a
@ src/sha1.c:98:     R2(a, b, c, d, e, 25);
	.loc 1 98 5 view .LVU108
	eor	r9, r1, r10	@ tmp1327, _117, _141
.LVL37:
	.loc 1 98 5 view .LVU109
	add	r1, r0, r3	@ tmp1198, _129, tmp1120
@ src/sha1.c:81:     R0(c, d, e, a, b, 8);
	.loc 1 81 5 view .LVU110
	add	r4, r4, r5, ror #27	@ b, _1474, c,
.LVL38:
	.loc 1 81 5 is_stmt 1 view .LVU111
	.loc 1 81 25 view .LVU112
	.loc 1 82 5 view .LVU113
	add	r1, r1, r7	@ tmp1200, tmp1198, e
	ror	r5, r5, #2	@ c, c,
.LVL39:
	.loc 1 82 5 is_stmt 0 view .LVU114
	eor	lr, lr, r7	@ tmp1189, tmp1188, e
	ldr	r7, [sp, #144]	@ MEM <long unsigned int> [(union  *)&block + 48B], MEM <long unsigned int> [(union  *)&block + 48B]
.LVL40:
@ src/sha1.c:91:     R1(c, d, e, a, b, 18);
	.loc 1 91 5 view .LVU115
	str	fp, [sp, #20]	@ tmp1263, %sfp
	add	lr, lr, ip	@ _1471, tmp1189, tmp1192
@ src/sha1.c:98:     R2(a, b, c, d, e, 25);
	.loc 1 98 5 view .LVU116
	str	r9, [sp, #36]	@ tmp1327, %sfp
@ src/sha1.c:83:     R0(a, b, c, d, e, 10);
	.loc 1 83 5 view .LVU117
	eor	ip, r6, r5	@ tmp1195, d, c
@ src/sha1.c:93:     R2(a, b, c, d, e, 20);
	.loc 1 93 5 view .LVU118
	ldr	r9, [sp, #4]	@ tmp1282, %sfp
@ src/sha1.c:83:     R0(a, b, c, d, e, 10);
	.loc 1 83 5 view .LVU119
	and	ip, ip, r4	@ tmp1196, tmp1195, b
@ src/sha1.c:82:     R0(b, c, d, e, a, 9);
	.loc 1 82 5 view .LVU120
	add	lr, lr, r4, ror #27	@ a, _1471, b,
.LVL41:
	.loc 1 82 5 is_stmt 1 view .LVU121
	.loc 1 82 25 view .LVU122
	.loc 1 83 5 view .LVU123
	rev	r7, r7	@ _153, MEM <long unsigned int> [(union  *)&block + 48B]
	ror	r4, r4, #2	@ b, b,
.LVL42:
@ src/sha1.c:93:     R2(a, b, c, d, e, 20);
	.loc 1 93 5 is_stmt 0 view .LVU124
	eor	fp, r9, r7	@ tmp1283, tmp1282, _153
@ src/sha1.c:97:     R2(b, c, d, e, a, 24);
	.loc 1 97 5 view .LVU125
	eor	r8, r8, r0	@ tmp1318, _105, _129
@ src/sha1.c:99:     R2(e, a, b, c, d, 26);
	.loc 1 99 5 view .LVU126
	eor	r9, r0, r7	@ tmp1336, _129, _153
@ src/sha1.c:83:     R0(a, b, c, d, e, 10);
	.loc 1 83 5 view .LVU127
	eor	ip, ip, r6	@ tmp1197, tmp1196, d
@ src/sha1.c:84:     R0(e, a, b, c, d, 11);
	.loc 1 84 5 view .LVU128
	eor	r0, r5, r4	@ tmp1203, c, b
	add	ip, ip, r1	@ _1468, tmp1197, tmp1200
	and	r0, r0, lr	@ tmp1204, tmp1203, a
	add	r1, r10, r3	@ tmp1206, _141, tmp1120
@ src/sha1.c:99:     R2(e, a, b, c, d, 26);
	.loc 1 99 5 view .LVU129
	str	r9, [sp, #52]	@ tmp1336, %sfp
	add	r1, r1, r6	@ tmp1208, tmp1206, d
	ldr	r9, [sp, #148]	@ MEM <long unsigned int> [(union  *)&block + 52B], MEM <long unsigned int> [(union  *)&block + 52B]
@ src/sha1.c:84:     R0(e, a, b, c, d, 11);
	.loc 1 84 5 view .LVU130
	eor	r0, r0, r5	@ tmp1205, tmp1204, c
	add	r0, r0, r1	@ _1465, tmp1205, tmp1208
@ src/sha1.c:89:     R1(e, a, b, c, d, 16);
	.loc 1 89 5 view .LVU131
	ldr	r1, [sp]	@ tmp1243, %sfp
	rev	r9, r9	@ _165, MEM <long unsigned int> [(union  *)&block + 52B]
	eor	r6, r1, r9	@ tmp1244, tmp1243, _165
.LVL43:
@ src/sha1.c:92:     R1(b, c, d, e, a, 19);
	.loc 1 92 5 view .LVU132
	eor	r2, r2, r10	@ tmp1273, tmp1272, _141
@ src/sha1.c:89:     R1(e, a, b, c, d, 16);
	.loc 1 89 5 view .LVU133
	ror	r6, r6, #31	@ _199, tmp1244,
@ src/sha1.c:94:     R2(e, a, b, c, d, 21);
	.loc 1 94 5 view .LVU134
	ldr	r1, [sp, #12]	@ tmp1291, %sfp
@ src/sha1.c:92:     R1(b, c, d, e, a, 19);
	.loc 1 92 5 view .LVU135
	eor	r2, r2, r6	@ tmp1274, tmp1273, _199
@ src/sha1.c:83:     R0(a, b, c, d, e, 10);
	.loc 1 83 5 view .LVU136
	add	ip, ip, lr, ror #27	@ e, _1468, a,
.LVL44:
	.loc 1 83 5 is_stmt 1 view .LVU137
	.loc 1 83 26 view .LVU138
	.loc 1 84 5 view .LVU139
@ src/sha1.c:94:     R2(e, a, b, c, d, 21);
	.loc 1 94 5 is_stmt 0 view .LVU140
	eor	r1, r1, r9	@ tmp1292, tmp1291, _165
@ src/sha1.c:84:     R0(e, a, b, c, d, 11);
	.loc 1 84 5 view .LVU141
	ror	lr, lr, #2	@ a, a,
.LVL45:
@ src/sha1.c:94:     R2(e, a, b, c, d, 21);
	.loc 1 94 5 view .LVU142
	str	r1, [sp]	@ tmp1292, %sfp
@ src/sha1.c:100:     R2(d, e, a, b, c, 27);
	.loc 1 100 5 view .LVU143
	eor	r10, r10, r9	@ tmp1345, _141, _165
@ src/sha1.c:97:     R2(b, c, d, e, a, 24);
	.loc 1 97 5 view .LVU144
	eor	r8, r8, r6	@ tmp1319, tmp1318, _199
@ src/sha1.c:92:     R1(b, c, d, e, a, 19);
	.loc 1 92 5 view .LVU145
	ror	r2, r2, #31	@ _229, tmp1274,
@ src/sha1.c:85:     R0(d, e, a, b, c, 12);
	.loc 1 85 5 view .LVU146
	eor	r1, r4, lr	@ tmp1211, b, a
@ src/sha1.c:97:     R2(b, c, d, e, a, 24);
	.loc 1 97 5 view .LVU147
	str	r8, [sp, #44]	@ tmp1319, %sfp
@ src/sha1.c:85:     R0(d, e, a, b, c, 12);
	.loc 1 85 5 view .LVU148
	and	r1, r1, ip	@ tmp1212, tmp1211, e
@ src/sha1.c:100:     R2(d, e, a, b, c, 27);
	.loc 1 100 5 view .LVU149
	eor	r8, r10, r2	@ tmp1346, tmp1345, _229
	str	r2, [sp, #24]	@ _229, %sfp
	add	r2, r7, r3	@ tmp1214, _153, tmp1120
@ src/sha1.c:84:     R0(e, a, b, c, d, 11);
	.loc 1 84 5 view .LVU150
	add	r0, r0, ip, ror #27	@ d, _1465, e,
.LVL46:
	.loc 1 84 5 is_stmt 1 view .LVU151
	.loc 1 84 26 view .LVU152
	.loc 1 85 5 view .LVU153
	.loc 1 85 5 view .LVU154
	add	r2, r2, r5	@ tmp1216, tmp1214, c
	eor	r1, r1, r4	@ tmp1213, tmp1212, b
@ src/sha1.c:100:     R2(d, e, a, b, c, 27);
	.loc 1 100 5 is_stmt 0 view .LVU155
	str	r8, [sp, #56]	@ tmp1346, %sfp
	add	r1, r1, r2	@ _1462, tmp1213, tmp1216
	ldr	r8, [sp, #152]	@ MEM <long unsigned int> [(union  *)&block + 56B], MEM <long unsigned int> [(union  *)&block + 56B]
@ src/sha1.c:85:     R0(d, e, a, b, c, 12);
	.loc 1 85 5 view .LVU156
	add	r2, r1, r0, ror #27	@ c, _1462, d,
@ src/sha1.c:90:     R1(d, e, a, b, c, 17);
	.loc 1 90 5 view .LVU157
	ldr	r1, [sp, #8]	@ tmp1253, %sfp
	rev	r8, r8	@ _177, MEM <long unsigned int> [(union  *)&block + 56B]
@ src/sha1.c:95:     R2(d, e, a, b, c, 22);
	.loc 1 95 5 view .LVU158
	ldr	r10, [sp, #28]	@ tmp1300, %sfp
@ src/sha1.c:90:     R1(d, e, a, b, c, 17);
	.loc 1 90 5 view .LVU159
	eor	r5, r1, r8	@ tmp1254, tmp1253, _177
@ src/sha1.c:95:     R2(d, e, a, b, c, 22);
	.loc 1 95 5 view .LVU160
	ldr	r1, [sp, #24]	@ _229, %sfp
	eor	r10, r10, r8	@ tmp1301, tmp1300, _177
	eor	r10, r10, r1	@ tmp1302, tmp1301, _229
@ src/sha1.c:90:     R1(d, e, a, b, c, 17);
	.loc 1 90 5 view .LVU161
	ror	r5, r5, #31	@ _209, tmp1254,
@ src/sha1.c:95:     R2(d, e, a, b, c, 22);
	.loc 1 95 5 view .LVU162
	ror	r1, r10, #31	@ _256, tmp1302,
@ src/sha1.c:98:     R2(a, b, c, d, e, 25);
	.loc 1 98 5 view .LVU163
	ldr	r10, [sp, #36]	@ tmp1327, %sfp
@ src/sha1.c:93:     R2(a, b, c, d, e, 20);
	.loc 1 93 5 view .LVU164
	eor	fp, fp, r5	@ tmp1284, tmp1283, _209
@ src/sha1.c:98:     R2(a, b, c, d, e, 25);
	.loc 1 98 5 view .LVU165
	eor	r10, r10, r5	@ tmp1328, tmp1327, _209
	eor	r10, r10, r1	@ tmp1329, tmp1328, _256
@ src/sha1.c:93:     R2(a, b, c, d, e, 20);
	.loc 1 93 5 view .LVU166
	ror	fp, fp, #31	@ _238, tmp1284,
@ src/sha1.c:101:     R2(c, d, e, a, b, 28);
	.loc 1 101 5 view .LVU167
	eor	r7, r7, r8	@ tmp1354, _153, _177
@ src/sha1.c:98:     R2(a, b, c, d, e, 25);
	.loc 1 98 5 view .LVU168
	ror	r10, r10, #31	@ _283, tmp1329,
@ src/sha1.c:101:     R2(c, d, e, a, b, 28);
	.loc 1 101 5 view .LVU169
	eor	r7, r7, fp	@ tmp1355, tmp1354, _238
	eor	r7, r7, r10	@ tmp1356, tmp1355, _283
@ src/sha1.c:85:     R0(d, e, a, b, c, 12);
	.loc 1 85 5 view .LVU170
	ror	ip, ip, #2	@ e, e,
.LVL47:
	.loc 1 85 26 is_stmt 1 view .LVU171
	.loc 1 86 5 view .LVU172
@ src/sha1.c:85:     R0(d, e, a, b, c, 12);
	.loc 1 85 5 is_stmt 0 view .LVU173
	str	r2, [sp, #4]	@ c, %sfp
.LVL48:
@ src/sha1.c:101:     R2(c, d, e, a, b, 28);
	.loc 1 101 5 view .LVU174
	ror	r7, r7, #31	@ _310, tmp1356,
@ src/sha1.c:86:     R0(c, d, e, a, b, 13);
	.loc 1 86 5 view .LVU175
	eor	r2, lr, ip	@ tmp1219, a, e
@ src/sha1.c:101:     R2(c, d, e, a, b, 28);
	.loc 1 101 5 view .LVU176
	str	r7, [sp, #36]	@ _310, %sfp
@ src/sha1.c:86:     R0(c, d, e, a, b, 13);
	.loc 1 86 5 view .LVU177
	and	r2, r2, r0	@ tmp1220, tmp1219, d
	add	r7, r9, r3	@ tmp1222, _165, tmp1120
	add	r4, r7, r4	@ tmp1224, tmp1222, b
.LVL49:
	.loc 1 86 5 view .LVU178
	eor	r2, r2, lr	@ tmp1221, tmp1220, a
	add	r2, r2, r4	@ _1459, tmp1221, tmp1224
	ldr	r4, [sp, #4]	@ c, %sfp
	ldr	r7, [sp, #156]	@ MEM <long unsigned int> [(union  *)&block + 60B], MEM <long unsigned int> [(union  *)&block + 60B]
	add	r2, r2, r4, ror #27	@ b, _1459, c,
.LVL50:
	.loc 1 86 5 is_stmt 1 view .LVU179
	.loc 1 86 26 view .LVU180
	.loc 1 87 5 view .LVU181
@ src/sha1.c:101:     R2(c, d, e, a, b, 28);
	.loc 1 101 5 is_stmt 0 view .LVU182
	str	r10, [sp, #48]	@ _283, %sfp
@ src/sha1.c:91:     R1(c, d, e, a, b, 18);
	.loc 1 91 5 view .LVU183
	ldr	r4, [sp, #20]	@ tmp1263, %sfp
@ src/sha1.c:96:     R2(c, d, e, a, b, 23);
	.loc 1 96 5 view .LVU184
	ldr	r10, [sp, #32]	@ tmp1309, %sfp
	rev	r7, r7	@ _189, MEM <long unsigned int> [(union  *)&block + 60B]
@ src/sha1.c:91:     R1(c, d, e, a, b, 18);
	.loc 1 91 5 view .LVU185
	eor	r4, r4, r7	@ tmp1264, tmp1263, _189
@ src/sha1.c:96:     R2(c, d, e, a, b, 23);
	.loc 1 96 5 view .LVU186
	eor	r10, r10, r7	@ tmp1310, tmp1309, _189
	eor	r10, r10, fp	@ tmp1311, tmp1310, _238
	str	fp, [sp, #40]	@ _238, %sfp
@ src/sha1.c:94:     R2(e, a, b, c, d, 21);
	.loc 1 94 5 view .LVU187
	ldr	fp, [sp]	@ tmp1292, %sfp
@ src/sha1.c:91:     R1(c, d, e, a, b, 18);
	.loc 1 91 5 view .LVU188
	ror	r4, r4, #31	@ _219, tmp1264,
@ src/sha1.c:94:     R2(e, a, b, c, d, 21);
	.loc 1 94 5 view .LVU189
	eor	fp, fp, r4	@ tmp1293, tmp1292, _219
@ src/sha1.c:98:     R2(a, b, c, d, e, 25);
	.loc 1 98 5 view .LVU190
	str	r1, [sp, #12]	@ _256, %sfp
@ src/sha1.c:96:     R2(c, d, e, a, b, 23);
	.loc 1 96 5 view .LVU191
	ror	r1, r10, #31	@ _265, tmp1311,
@ src/sha1.c:99:     R2(e, a, b, c, d, 26);
	.loc 1 99 5 view .LVU192
	ldr	r10, [sp, #52]	@ tmp1336, %sfp
@ src/sha1.c:94:     R2(e, a, b, c, d, 21);
	.loc 1 94 5 view .LVU193
	ror	fp, fp, #31	@ _247, tmp1293,
	str	fp, [sp]	@ _247, %sfp
@ src/sha1.c:86:     R0(c, d, e, a, b, 13);
	.loc 1 86 5 view .LVU194
	ror	r0, r0, #2	@ d, d,
@ src/sha1.c:99:     R2(e, a, b, c, d, 26);
	.loc 1 99 5 view .LVU195
	eor	r10, r10, r4	@ tmp1337, tmp1336, _219
@ src/sha1.c:86:     R0(c, d, e, a, b, 13);
	.loc 1 86 5 view .LVU196
	str	r0, [sp, #16]	@ d, %sfp
.LVL51:
@ src/sha1.c:99:     R2(e, a, b, c, d, 26);
	.loc 1 99 5 view .LVU197
	str	r1, [sp, #28]	@ _265, %sfp
@ src/sha1.c:97:     R2(b, c, d, e, a, 24);
	.loc 1 97 5 view .LVU198
	ldr	r0, [sp, #44]	@ tmp1319, %sfp
@ src/sha1.c:99:     R2(e, a, b, c, d, 26);
	.loc 1 99 5 view .LVU199
	eor	r10, r10, r1	@ tmp1338, tmp1337, _265
@ src/sha1.c:97:     R2(b, c, d, e, a, 24);
	.loc 1 97 5 view .LVU200
	ldr	r1, [sp]	@ _247, %sfp
@ src/sha1.c:102:     R2(b, c, d, e, a, 29);
	.loc 1 102 5 view .LVU201
	eor	r9, r9, r7	@ tmp1363, _165, _189
@ src/sha1.c:97:     R2(b, c, d, e, a, 24);
	.loc 1 97 5 view .LVU202
	eor	fp, r0, r1	@ tmp1320, tmp1319, _247
@ src/sha1.c:99:     R2(e, a, b, c, d, 26);
	.loc 1 99 5 view .LVU203
	ror	r10, r10, #31	@ _292, tmp1338,
@ src/sha1.c:100:     R2(d, e, a, b, c, 27);
	.loc 1 100 5 view .LVU204
	ldr	r0, [sp, #56]	@ tmp1346, %sfp
@ src/sha1.c:102:     R2(b, c, d, e, a, 29);
	.loc 1 102 5 view .LVU205
	eor	r9, r9, r1	@ tmp1364, tmp1363, _247
@ src/sha1.c:97:     R2(b, c, d, e, a, 24);
	.loc 1 97 5 view .LVU206
	ror	fp, fp, #31	@ _274, tmp1320,
@ src/sha1.c:102:     R2(b, c, d, e, a, 29);
	.loc 1 102 5 view .LVU207
	eor	r9, r9, r10	@ tmp1365, tmp1364, _292
	str	r10, [sp, #32]	@ _292, %sfp
@ src/sha1.c:100:     R2(d, e, a, b, c, 27);
	.loc 1 100 5 view .LVU208
	eor	r10, r0, fp	@ tmp1347, tmp1346, _274
@ src/sha1.c:102:     R2(b, c, d, e, a, 29);
	.loc 1 102 5 view .LVU209
	ror	r9, r9, #31	@ _319, tmp1365,
	str	r9, [sp, #8]	@ _319, %sfp
@ src/sha1.c:87:     R0(b, c, d, e, a, 14);
	.loc 1 87 5 view .LVU210
	ldr	r1, [sp, #16]	@ d, %sfp
@ src/sha1.c:100:     R2(d, e, a, b, c, 27);
	.loc 1 100 5 view .LVU211
	ror	r9, r10, #31	@ _301, tmp1347,
@ src/sha1.c:87:     R0(b, c, d, e, a, 14);
	.loc 1 87 5 view .LVU212
	eor	r10, ip, r1	@ tmp1227, e, d
@ src/sha1.c:100:     R2(d, e, a, b, c, 27);
	.loc 1 100 5 view .LVU213
	mov	r0, r9	@ _301, _301
@ src/sha1.c:87:     R0(b, c, d, e, a, 14);
	.loc 1 87 5 view .LVU214
	ldr	r9, [sp, #4]	@ c, %sfp
@ src/sha1.c:103:     R2(a, b, c, d, e, 30);
	.loc 1 103 5 view .LVU215
	str	r0, [sp, #4]	@ _301, %sfp
@ src/sha1.c:87:     R0(b, c, d, e, a, 14);
	.loc 1 87 5 view .LVU216
	ror	r1, r9, #2	@ c, c,
	and	r10, r10, r9	@ tmp1228, tmp1227, c
	add	r9, r8, r3	@ tmp1230, _177, tmp1120
	add	lr, r9, lr	@ tmp1232, tmp1230, a
.LVL52:
@ src/sha1.c:103:     R2(a, b, c, d, e, 30);
	.loc 1 103 5 view .LVU217
	ldr	r9, [sp, #12]	@ _256, %sfp
	eor	r8, r8, r6	@ tmp1372, _177, _199
	eor	r8, r8, r9	@ tmp1373, tmp1372, _256
	eor	r8, r8, r0	@ tmp1374, tmp1373, _301
@ src/sha1.c:87:     R0(b, c, d, e, a, 14);
	.loc 1 87 5 view .LVU218
	eor	r10, r10, ip	@ tmp1229, tmp1228, e
@ src/sha1.c:103:     R2(a, b, c, d, e, 30);
	.loc 1 103 5 view .LVU219
	ror	r8, r8, #31	@ _328, tmp1374,
	str	r8, [sp, #12]	@ _328, %sfp
	add	r8, r7, r3	@ tmp1238, _189, tmp1120
	add	ip, r8, ip	@ tmp1240, tmp1238, e
.LVL53:
@ src/sha1.c:104:     R2(e, a, b, c, d, 31);
	.loc 1 104 5 view .LVU220
	ldr	r8, [sp, #28]	@ _265, %sfp
	eor	r7, r7, r5	@ tmp1381, _189, _209
	eor	r7, r7, r8	@ tmp1382, tmp1381, _265
	ldr	r8, [sp, #36]	@ _310, %sfp
@ src/sha1.c:88:     R0(a, b, c, d, e, 15);
	.loc 1 88 5 view .LVU221
	ldr	r0, [sp, #16]	@ d, %sfp
@ src/sha1.c:104:     R2(e, a, b, c, d, 31);
	.loc 1 104 5 view .LVU222
	eor	r7, r7, r8	@ tmp1383, tmp1382, _310
	add	r10, r10, lr	@ _1456, tmp1229, tmp1232
@ src/sha1.c:88:     R0(a, b, c, d, e, 15);
	.loc 1 88 5 view .LVU223
	eor	lr, r0, r1	@ tmp1235, d, c
@ src/sha1.c:87:     R0(b, c, d, e, a, 14);
	.loc 1 87 5 view .LVU224
	add	r10, r10, r2, ror #27	@ a, _1456, b,
.LVL54:
	.loc 1 87 5 is_stmt 1 view .LVU225
	.loc 1 87 26 view .LVU226
	.loc 1 88 5 view .LVU227
	and	lr, lr, r2	@ tmp1236, tmp1235, b
@ src/sha1.c:104:     R2(e, a, b, c, d, 31);
	.loc 1 104 5 is_stmt 0 view .LVU228
	ror	r7, r7, #31	@ _337, tmp1383,
@ src/sha1.c:88:     R0(a, b, c, d, e, 15);
	.loc 1 88 5 view .LVU229
	ror	r2, r2, #2	@ b, b,
.LVL55:
@ src/sha1.c:104:     R2(e, a, b, c, d, 31);
	.loc 1 104 5 view .LVU230
	str	r7, [sp, #16]	@ _337, %sfp
@ src/sha1.c:88:     R0(a, b, c, d, e, 15);
	.loc 1 88 5 view .LVU231
	eor	lr, lr, r0	@ tmp1237, tmp1236, d
@ src/sha1.c:89:     R1(e, a, b, c, d, 16);
	.loc 1 89 5 view .LVU232
	eor	r7, r1, r2	@ tmp1245, c, b
	add	lr, lr, ip	@ _1453, tmp1237, tmp1240
	and	r7, r7, r10	@ tmp1246, tmp1245, a
	add	ip, r6, r3	@ tmp1248, _199, tmp1120
	add	r0, ip, r0	@ tmp1250, tmp1248, d
	eor	r7, r7, r1	@ tmp1247, tmp1246, c
	add	r7, r7, r0	@ _1448, tmp1247, tmp1250
@ src/sha1.c:105:     R2(d, e, a, b, c, 32);
	.loc 1 105 5 view .LVU233
	eor	r6, r6, r4	@ tmp1390, _199, _219
	ldr	r0, [sp, #8]	@ _319, %sfp
	eor	r6, r6, fp	@ tmp1391, tmp1390, _274
	eor	r6, r6, r0	@ tmp1392, tmp1391, _319
@ src/sha1.c:106:     R2(c, d, e, a, b, 33);
	.loc 1 106 5 view .LVU234
	ldr	ip, [sp, #24]	@ _229, %sfp
@ src/sha1.c:105:     R2(d, e, a, b, c, 32);
	.loc 1 105 5 view .LVU235
	ror	r0, r6, #31	@ _346, tmp1392,
	add	r6, r5, r3	@ tmp1258, _209, tmp1120
	add	r1, r6, r1	@ tmp1260, tmp1258, c
.LVL56:
@ src/sha1.c:106:     R2(c, d, e, a, b, 33);
	.loc 1 106 5 view .LVU236
	ldr	r6, [sp, #48]	@ _283, %sfp
@ src/sha1.c:88:     R0(a, b, c, d, e, 15);
	.loc 1 88 5 view .LVU237
	add	lr, lr, r10, ror #27	@ e, _1453, a,
.LVL57:
	.loc 1 88 5 is_stmt 1 view .LVU238
	.loc 1 88 26 view .LVU239
	.loc 1 89 5 view .LVU240
@ src/sha1.c:106:     R2(c, d, e, a, b, 33);
	.loc 1 106 5 is_stmt 0 view .LVU241
	ldr	r8, [sp, #12]	@ _328, %sfp
@ src/sha1.c:89:     R1(e, a, b, c, d, 16);
	.loc 1 89 5 view .LVU242
	ror	r10, r10, #2	@ a, a,
.LVL58:
@ src/sha1.c:106:     R2(c, d, e, a, b, 33);
	.loc 1 106 5 view .LVU243
	eor	r5, r5, ip	@ tmp1399, _209, _229
@ src/sha1.c:105:     R2(d, e, a, b, c, 32);
	.loc 1 105 5 view .LVU244
	str	r0, [sp, #20]	@ _346, %sfp
@ src/sha1.c:106:     R2(c, d, e, a, b, 33);
	.loc 1 106 5 view .LVU245
	eor	r5, r5, r6	@ tmp1400, tmp1399, _283
@ src/sha1.c:90:     R1(d, e, a, b, c, 17);
	.loc 1 90 5 view .LVU246
	eor	r0, r2, r10	@ tmp1255, b, a
@ src/sha1.c:106:     R2(c, d, e, a, b, 33);
	.loc 1 106 5 view .LVU247
	eor	r5, r5, r8	@ tmp1401, tmp1400, _328
@ src/sha1.c:90:     R1(d, e, a, b, c, 17);
	.loc 1 90 5 view .LVU248
	and	r0, r0, lr	@ tmp1256, tmp1255, e
@ src/sha1.c:89:     R1(e, a, b, c, d, 16);
	.loc 1 89 5 view .LVU249
	add	r7, r7, lr, ror #27	@ d, _1448, e,
.LVL59:
	.loc 1 89 5 is_stmt 1 view .LVU250
	.loc 1 89 26 view .LVU251
	.loc 1 90 5 view .LVU252
	eor	r0, r0, r2	@ tmp1257, tmp1256, b
	ror	lr, lr, #2	@ e, e,
.LVL60:
	.loc 1 90 5 is_stmt 0 view .LVU253
	add	r0, r0, r1	@ _1443, tmp1257, tmp1260
@ src/sha1.c:106:     R2(c, d, e, a, b, 33);
	.loc 1 106 5 view .LVU254
	ror	r5, r5, #31	@ _355, tmp1401,
@ src/sha1.c:91:     R1(c, d, e, a, b, 18);
	.loc 1 91 5 view .LVU255
	eor	r1, r10, lr	@ tmp1265, a, e
@ src/sha1.c:106:     R2(c, d, e, a, b, 33);
	.loc 1 106 5 view .LVU256
	str	r5, [sp, #24]	@ _355, %sfp
@ src/sha1.c:91:     R1(c, d, e, a, b, 18);
	.loc 1 91 5 view .LVU257
	and	r1, r1, r7	@ tmp1266, tmp1265, d
	add	r5, r4, r3	@ tmp1268, _219, tmp1120
	add	r3, ip, r3	@ tmp1278, _229, tmp1120
	.loc 1 91 5 view .LVU258
	eor	r1, r1, r10	@ tmp1267, tmp1266, a
	add	r2, r5, r2	@ tmp1270, tmp1268, b
.LVL61:
	.loc 1 91 5 view .LVU259
	add	r10, r3, r10	@ tmp1280, tmp1278, a
.LVL62:
@ src/sha1.c:108:     R2(a, b, c, d, e, 35);
	.loc 1 108 5 view .LVU260
	ldr	r3, [sp]	@ _247, %sfp
	add	r2, r1, r2	@ _1438, tmp1267, tmp1270
@ src/sha1.c:107:     R2(b, c, d, e, a, 34);
	.loc 1 107 5 view .LVU261
	ldr	r1, [sp, #40]	@ _238, %sfp
@ src/sha1.c:108:     R2(a, b, c, d, e, 35);
	.loc 1 108 5 view .LVU262
	eor	r3, ip, r3	@ tmp1417, _229, _247
@ src/sha1.c:107:     R2(b, c, d, e, a, 34);
	.loc 1 107 5 view .LVU263
	ldr	ip, [sp, #32]	@ _292, %sfp
	eor	r4, r4, r1	@ tmp1408, _219, _238
	eor	r4, r4, ip	@ tmp1409, tmp1408, _292
@ src/sha1.c:108:     R2(a, b, c, d, e, 35);
	.loc 1 108 5 view .LVU264
	ldr	ip, [sp, #4]	@ _301, %sfp
	ldr	r6, [sp, #20]	@ _346, %sfp
	eor	r3, r3, ip	@ tmp1418, tmp1417, _301
@ src/sha1.c:107:     R2(b, c, d, e, a, 34);
	.loc 1 107 5 view .LVU265
	ldr	ip, [sp, #16]	@ _337, %sfp
@ src/sha1.c:108:     R2(a, b, c, d, e, 35);
	.loc 1 108 5 view .LVU266
	eor	r3, r3, r6	@ tmp1419, tmp1418, _346
@ src/sha1.c:109:     R2(e, a, b, c, d, 36);
	.loc 1 109 5 view .LVU267
	mov	r6, r9	@ _256, _256
@ src/sha1.c:107:     R2(b, c, d, e, a, 34);
	.loc 1 107 5 view .LVU268
	eor	r4, r4, ip	@ tmp1410, tmp1409, _337
	movw	ip, #60321	@ tmp1288,
@ src/sha1.c:90:     R1(d, e, a, b, c, 17);
	.loc 1 90 5 view .LVU269
	add	r0, r0, r7, ror #27	@ c, _1443, d,
.LVL63:
	.loc 1 90 5 is_stmt 1 view .LVU270
	.loc 1 90 26 view .LVU271
	.loc 1 91 5 view .LVU272
	ror	r7, r7, #2	@ d, d,
.LVL64:
@ src/sha1.c:107:     R2(b, c, d, e, a, 34);
	.loc 1 107 5 is_stmt 0 view .LVU273
	ror	r8, r4, #31	@ _364, tmp1410,
@ src/sha1.c:108:     R2(a, b, c, d, e, 35);
	.loc 1 108 5 view .LVU274
	ror	r4, r3, #31	@ _373, tmp1419,
@ src/sha1.c:92:     R1(b, c, d, e, a, 19);
	.loc 1 92 5 view .LVU275
	eor	r3, lr, r7	@ tmp1275, e, d
	movt	ip, 28377	@ tmp1288,
	and	r3, r3, r0	@ tmp1276, tmp1275, c
	eor	r3, r3, lr	@ tmp1277, tmp1276, e
	add	r10, r3, r10	@ _1433, tmp1277, tmp1280
	add	r3, r1, ip	@ tmp1287, _238, tmp1288
	add	lr, r3, lr	@ tmp1289, tmp1287, e
.LVL65:
@ src/sha1.c:109:     R2(e, a, b, c, d, 36);
	.loc 1 109 5 view .LVU276
	ldr	r3, [sp, #36]	@ _310, %sfp
	eor	r1, r1, r9	@ tmp1426, _238, _256
	ldr	r9, [sp, #24]	@ _355, %sfp
@ src/sha1.c:91:     R1(c, d, e, a, b, 18);
	.loc 1 91 5 view .LVU277
	add	r2, r2, r0, ror #27	@ b, _1438, c,
.LVL66:
	.loc 1 91 5 is_stmt 1 view .LVU278
	.loc 1 91 26 view .LVU279
	.loc 1 92 5 view .LVU280
@ src/sha1.c:109:     R2(e, a, b, c, d, 36);
	.loc 1 109 5 is_stmt 0 view .LVU281
	eor	r1, r1, r3	@ tmp1427, tmp1426, _310
@ src/sha1.c:92:     R1(b, c, d, e, a, 19);
	.loc 1 92 5 view .LVU282
	ror	r0, r0, #2	@ c, c,
.LVL67:
	.loc 1 92 5 view .LVU283
	ldr	r3, [sp]	@ _247, %sfp
@ src/sha1.c:108:     R2(a, b, c, d, e, 35);
	.loc 1 108 5 view .LVU284
	str	r4, [sp, #40]	@ _373, %sfp
@ src/sha1.c:109:     R2(e, a, b, c, d, 36);
	.loc 1 109 5 view .LVU285
	eor	r1, r1, r9	@ tmp1428, tmp1427, _355
@ src/sha1.c:93:     R2(a, b, c, d, e, 20);
	.loc 1 93 5 view .LVU286
	eor	r4, r7, r0	@ tmp1285, d, c
@ src/sha1.c:92:     R1(b, c, d, e, a, 19);
	.loc 1 92 5 view .LVU287
	add	r10, r10, r2, ror #27	@ a, _1433, b,
.LVL68:
	.loc 1 92 5 is_stmt 1 view .LVU288
	.loc 1 92 26 view .LVU289
	.loc 1 93 5 view .LVU290
	eor	r4, r4, r2	@ tmp1286, tmp1285, b
	ror	r2, r2, #2	@ b, b,
.LVL69:
@ src/sha1.c:109:     R2(e, a, b, c, d, 36);
	.loc 1 109 5 is_stmt 0 view .LVU291
	ror	r9, r1, #31	@ _382, tmp1428,
	add	r4, r4, lr	@ _1427, tmp1286, tmp1289
	add	r1, r3, ip	@ tmp1296, _247, tmp1288
@ src/sha1.c:94:     R2(e, a, b, c, d, 21);
	.loc 1 94 5 view .LVU292
	eor	lr, r0, r2	@ tmp1294, c, b
	add	r7, r1, r7	@ tmp1298, tmp1296, d
.LVL70:
	.loc 1 94 5 view .LVU293
	eor	lr, lr, r10	@ tmp1295, tmp1294, a
@ src/sha1.c:110:     R2(d, e, a, b, c, 37);
	.loc 1 110 5 view .LVU294
	ldr	r1, [sp, #28]	@ _265, %sfp
	add	lr, lr, r7	@ _1421, tmp1295, tmp1298
	ldr	r7, [sp, #8]	@ _319, %sfp
	eor	r3, r3, r1	@ tmp1435, _247, _265
	eor	r3, r3, r7	@ tmp1436, tmp1435, _319
	eor	r3, r3, r8	@ tmp1437, tmp1436, _364
@ src/sha1.c:94:     R2(e, a, b, c, d, 21);
	.loc 1 94 5 view .LVU295
	ror	r5, r10, #2	@ a, a,
@ src/sha1.c:110:     R2(d, e, a, b, c, 37);
	.loc 1 110 5 view .LVU296
	ror	r7, r3, #31	@ _391, tmp1437,
	mov	r3, r6	@ _256, _256
@ src/sha1.c:93:     R2(a, b, c, d, e, 20);
	.loc 1 93 5 view .LVU297
	add	r4, r4, r10, ror #27	@ e, _1427, a,
.LVL71:
	.loc 1 93 5 is_stmt 1 view .LVU298
	.loc 1 93 26 view .LVU299
	.loc 1 94 5 view .LVU300
@ src/sha1.c:95:     R2(d, e, a, b, c, 22);
	.loc 1 95 5 is_stmt 0 view .LVU301
	eor	r1, r2, r5	@ tmp1303, b, a
	add	r6, r6, ip	@ tmp1305, _256, tmp1288
	add	r0, r6, r0	@ tmp1307, tmp1305, c
.LVL72:
	.loc 1 95 5 view .LVU302
	eor	r1, r1, r4	@ tmp1304, tmp1303, e
	add	r1, r1, r0	@ _1415, tmp1304, tmp1307
@ src/sha1.c:111:     R2(c, d, e, a, b, 38);
	.loc 1 111 5 view .LVU303
	ldr	r0, [sp, #12]	@ _328, %sfp
	eor	r10, r3, fp	@ tmp1444, _256, _274
.LVL73:
	.loc 1 111 5 view .LVU304
	ldr	r3, [sp, #40]	@ _373, %sfp
	eor	r10, r10, r0	@ tmp1445, tmp1444, _328
	eor	r10, r10, r3	@ tmp1446, tmp1445, _373
@ src/sha1.c:94:     R2(e, a, b, c, d, 21);
	.loc 1 94 5 view .LVU305
	add	lr, lr, r4, ror #27	@ d, _1421, e,
.LVL74:
	.loc 1 94 5 is_stmt 1 view .LVU306
	.loc 1 94 26 view .LVU307
	.loc 1 95 5 view .LVU308
@ src/sha1.c:111:     R2(c, d, e, a, b, 38);
	.loc 1 111 5 is_stmt 0 view .LVU309
	ror	r0, r10, #31	@ _400, tmp1446,
	ldr	r10, [sp, #28]	@ _265, %sfp
@ src/sha1.c:95:     R2(d, e, a, b, c, 22);
	.loc 1 95 5 view .LVU310
	ror	r4, r4, #2	@ e, e,
.LVL75:
@ src/sha1.c:96:     R2(c, d, e, a, b, 23);
	.loc 1 96 5 view .LVU311
	eor	r3, r5, r4	@ tmp1312, a, e
@ src/sha1.c:111:     R2(c, d, e, a, b, 38);
	.loc 1 111 5 view .LVU312
	str	r0, [sp, #44]	@ _400, %sfp
	add	r0, r10, ip	@ tmp1314, _265, tmp1288
@ src/sha1.c:112:     R2(b, c, d, e, a, 39);
	.loc 1 112 5 view .LVU313
	ldr	r6, [sp, #48]	@ _283, %sfp
@ src/sha1.c:96:     R2(c, d, e, a, b, 23);
	.loc 1 96 5 view .LVU314
	eor	r3, r3, lr	@ tmp1313, tmp1312, d
	add	r2, r0, r2	@ tmp1316, tmp1314, b
.LVL76:
	.loc 1 96 5 view .LVU315
	add	r2, r3, r2	@ _1409, tmp1313, tmp1316
@ src/sha1.c:112:     R2(b, c, d, e, a, 39);
	.loc 1 112 5 view .LVU316
	ldr	r3, [sp, #16]	@ _337, %sfp
@ src/sha1.c:95:     R2(d, e, a, b, c, 22);
	.loc 1 95 5 view .LVU317
	add	r1, r1, lr, ror #27	@ c, _1415, d,
.LVL77:
	.loc 1 95 5 is_stmt 1 view .LVU318
	.loc 1 95 26 view .LVU319
	.loc 1 96 5 view .LVU320
@ src/sha1.c:112:     R2(b, c, d, e, a, 39);
	.loc 1 112 5 is_stmt 0 view .LVU321
	eor	r10, r10, r6	@ tmp1453, _265, _283
@ src/sha1.c:96:     R2(c, d, e, a, b, 23);
	.loc 1 96 5 view .LVU322
	ror	lr, lr, #2	@ d, d,
.LVL78:
@ src/sha1.c:112:     R2(b, c, d, e, a, 39);
	.loc 1 112 5 view .LVU323
	eor	r0, r10, r3	@ tmp1454, tmp1453, _337
@ src/sha1.c:97:     R2(b, c, d, e, a, 24);
	.loc 1 97 5 view .LVU324
	eor	r3, r4, lr	@ tmp1321, e, d
	add	r10, fp, ip	@ tmp1323, _274, tmp1288
	add	r10, r10, r5	@ tmp1325, tmp1323, a
	eor	r3, r3, r1	@ tmp1322, tmp1321, c
	add	r3, r3, r10	@ _1403, tmp1322, tmp1325
@ src/sha1.c:113:     R3(a, b, c, d, e, 40);
	.loc 1 113 5 view .LVU325
	ldr	r10, [sp, #32]	@ _292, %sfp
	ldr	r5, [sp, #20]	@ _346, %sfp
.LVL79:
@ src/sha1.c:96:     R2(c, d, e, a, b, 23);
	.loc 1 96 5 view .LVU326
	add	r2, r2, r1, ror #27	@ b, _1409, c,
.LVL80:
	.loc 1 96 5 is_stmt 1 view .LVU327
	.loc 1 96 26 view .LVU328
	.loc 1 97 5 view .LVU329
@ src/sha1.c:113:     R3(a, b, c, d, e, 40);
	.loc 1 113 5 is_stmt 0 view .LVU330
	eor	fp, fp, r10	@ tmp1462, _274, _292
	mov	r10, r6	@ _283, _283
@ src/sha1.c:97:     R2(b, c, d, e, a, 24);
	.loc 1 97 5 view .LVU331
	ror	r1, r1, #2	@ c, c,
.LVL81:
	.loc 1 97 5 view .LVU332
	add	r6, r6, ip	@ tmp1332, _283, tmp1288
@ src/sha1.c:113:     R3(a, b, c, d, e, 40);
	.loc 1 113 5 view .LVU333
	eor	fp, fp, r5	@ tmp1463, tmp1462, _346
@ src/sha1.c:98:     R2(a, b, c, d, e, 25);
	.loc 1 98 5 view .LVU334
	eor	r5, lr, r1	@ tmp1330, d, c
	add	r4, r6, r4	@ tmp1334, tmp1332, e
.LVL82:
	.loc 1 98 5 view .LVU335
	eor	r5, r5, r2	@ tmp1331, tmp1330, b
	add	r5, r5, r4	@ _1397, tmp1331, tmp1334
@ src/sha1.c:114:     R3(e, a, b, c, d, 41);
	.loc 1 114 5 view .LVU336
	ldr	r4, [sp, #4]	@ _301, %sfp
	ldr	r6, [sp, #44]	@ _400, %sfp
	eor	r10, r10, r4	@ tmp1473, _283, _301
	ldr	r4, [sp, #24]	@ _355, %sfp
@ src/sha1.c:112:     R2(b, c, d, e, a, 39);
	.loc 1 112 5 view .LVU337
	eor	r0, r0, r9	@ tmp1455, tmp1454, _382
@ src/sha1.c:114:     R3(e, a, b, c, d, 41);
	.loc 1 114 5 view .LVU338
	eor	r10, r10, r4	@ tmp1474, tmp1473, _355
	eor	r10, r10, r6	@ tmp1475, tmp1474, _400
@ src/sha1.c:112:     R2(b, c, d, e, a, 39);
	.loc 1 112 5 view .LVU339
	ror	r0, r0, #31	@ _409, tmp1455,
@ src/sha1.c:114:     R3(e, a, b, c, d, 41);
	.loc 1 114 5 view .LVU340
	ror	r6, r10, #31	@ _431, tmp1475,
	ldr	r10, [sp, #32]	@ _292, %sfp
	str	r6, [sp, #28]	@ _431, %sfp
	add	r6, r10, ip	@ tmp1341, _292, tmp1288
	add	lr, r6, lr	@ tmp1343, tmp1341, d
.LVL83:
@ src/sha1.c:115:     R3(d, e, a, b, c, 42);
	.loc 1 115 5 view .LVU341
	ldr	r6, [sp, #36]	@ _310, %sfp
@ src/sha1.c:97:     R2(b, c, d, e, a, 24);
	.loc 1 97 5 view .LVU342
	add	r3, r3, r2, ror #27	@ a, _1403, b,
.LVL84:
	.loc 1 97 5 is_stmt 1 view .LVU343
	.loc 1 97 26 view .LVU344
	.loc 1 98 5 view .LVU345
@ src/sha1.c:115:     R3(d, e, a, b, c, 42);
	.loc 1 115 5 is_stmt 0 view .LVU346
	eor	r10, r10, r6	@ tmp1484, _292, _310
	eor	r10, r10, r8	@ tmp1485, tmp1484, _364
	eor	r10, r10, r0	@ tmp1486, tmp1485, _409
@ src/sha1.c:98:     R2(a, b, c, d, e, 25);
	.loc 1 98 5 view .LVU347
	ror	r2, r2, #2	@ b, b,
.LVL85:
@ src/sha1.c:115:     R3(d, e, a, b, c, 42);
	.loc 1 115 5 view .LVU348
	ror	r10, r10, #31	@ _442, tmp1486,
	str	r10, [sp, #32]	@ _442, %sfp
@ src/sha1.c:99:     R2(e, a, b, c, d, 26);
	.loc 1 99 5 view .LVU349
	eor	r4, r1, r2	@ tmp1339, c, b
	ldr	r10, [sp, #4]	@ _301, %sfp
@ src/sha1.c:98:     R2(a, b, c, d, e, 25);
	.loc 1 98 5 view .LVU350
	add	r5, r5, r3, ror #27	@ e, _1397, a,
.LVL86:
	.loc 1 98 5 is_stmt 1 view .LVU351
	.loc 1 98 26 view .LVU352
	.loc 1 99 5 view .LVU353
	eor	r4, r4, r3	@ tmp1340, tmp1339, a
	ror	r3, r3, #2	@ a, a,
.LVL87:
	.loc 1 99 5 is_stmt 0 view .LVU354
	add	r10, r10, ip	@ tmp1350, _301, tmp1288
	add	r4, r4, lr	@ _1391, tmp1340, tmp1343
@ src/sha1.c:100:     R2(d, e, a, b, c, 27);
	.loc 1 100 5 view .LVU355
	eor	lr, r2, r3	@ tmp1348, b, a
	eor	lr, lr, r5	@ tmp1349, tmp1348, e
	add	r1, r10, r1	@ tmp1352, tmp1350, c
.LVL88:
	.loc 1 100 5 view .LVU356
	add	r1, lr, r1	@ _1385, tmp1349, tmp1352
@ src/sha1.c:116:     R3(c, d, e, a, b, 43);
	.loc 1 116 5 view .LVU357
	ldmib	sp, {r10, lr}	@,,
@ src/sha1.c:113:     R3(a, b, c, d, e, 40);
	.loc 1 113 5 view .LVU358
	eor	fp, fp, r7	@ tmp1464, tmp1463, _391
@ src/sha1.c:116:     R3(c, d, e, a, b, 43);
	.loc 1 116 5 view .LVU359
	eor	r10, lr, r10	@ tmp1495, _301, _319
	ldr	lr, [sp, #40]	@ _373, %sfp
@ src/sha1.c:113:     R3(a, b, c, d, e, 40);
	.loc 1 113 5 view .LVU360
	ror	fp, fp, #31	@ _420, tmp1464,
@ src/sha1.c:116:     R3(c, d, e, a, b, 43);
	.loc 1 116 5 view .LVU361
	eor	r10, r10, lr	@ tmp1496, tmp1495, _373
	eor	r10, r10, fp	@ tmp1497, tmp1496, _420
@ src/sha1.c:99:     R2(e, a, b, c, d, 26);
	.loc 1 99 5 view .LVU362
	add	r4, r4, r5, ror #27	@ d, _1391, e,
.LVL89:
	.loc 1 99 5 is_stmt 1 view .LVU363
	.loc 1 99 26 view .LVU364
	.loc 1 100 5 view .LVU365
@ src/sha1.c:116:     R3(c, d, e, a, b, 43);
	.loc 1 116 5 is_stmt 0 view .LVU366
	ror	r10, r10, #31	@ _453, tmp1497,
	str	r10, [sp]	@ _453, %sfp
	mov	r10, r6	@ _310, _310
@ src/sha1.c:100:     R2(d, e, a, b, c, 27);
	.loc 1 100 5 view .LVU367
	ror	r5, r5, #2	@ e, e,
.LVL90:
	.loc 1 100 5 view .LVU368
	add	r6, r6, ip	@ tmp1359, _310, tmp1288
@ src/sha1.c:101:     R2(c, d, e, a, b, 28);
	.loc 1 101 5 view .LVU369
	eor	lr, r3, r5	@ tmp1357, a, e
	add	r2, r6, r2	@ tmp1361, tmp1359, b
.LVL91:
@ src/sha1.c:117:     R3(b, c, d, e, a, 44);
	.loc 1 117 5 view .LVU370
	ldr	r6, [sp, #12]	@ _328, %sfp
@ src/sha1.c:101:     R2(c, d, e, a, b, 28);
	.loc 1 101 5 view .LVU371
	eor	lr, lr, r4	@ tmp1358, tmp1357, d
	add	r2, lr, r2	@ _1379, tmp1358, tmp1361
@ src/sha1.c:117:     R3(b, c, d, e, a, 44);
	.loc 1 117 5 view .LVU372
	eor	lr, r10, r6	@ tmp1506, _310, _328
	ldr	r6, [sp, #28]	@ _431, %sfp
	eor	lr, lr, r9	@ tmp1507, tmp1506, _382
	eor	lr, lr, r6	@ tmp1508, tmp1507, _431
	ldr	r10, [sp, #8]	@ _319, %sfp
	ror	r6, lr, #31	@ _464, tmp1508,
@ src/sha1.c:100:     R2(d, e, a, b, c, 27);
	.loc 1 100 5 view .LVU373
	add	r1, r1, r4, ror #27	@ c, _1385, d,
.LVL92:
	.loc 1 100 5 is_stmt 1 view .LVU374
	.loc 1 100 26 view .LVU375
	.loc 1 101 5 view .LVU376
@ src/sha1.c:117:     R3(b, c, d, e, a, 44);
	.loc 1 117 5 is_stmt 0 view .LVU377
	str	r6, [sp, #36]	@ _464, %sfp
@ src/sha1.c:101:     R2(c, d, e, a, b, 28);
	.loc 1 101 5 view .LVU378
	ror	r4, r4, #2	@ d, d,
.LVL93:
	.loc 1 101 5 view .LVU379
	add	r6, r10, ip	@ tmp1368, _319, tmp1288
@ src/sha1.c:102:     R2(b, c, d, e, a, 29);
	.loc 1 102 5 view .LVU380
	eor	lr, r5, r4	@ tmp1366, e, d
	add	r3, r6, r3	@ tmp1370, tmp1368, a
.LVL94:
@ src/sha1.c:118:     R3(a, b, c, d, e, 45);
	.loc 1 118 5 view .LVU381
	ldr	r6, [sp, #16]	@ _337, %sfp
@ src/sha1.c:102:     R2(b, c, d, e, a, 29);
	.loc 1 102 5 view .LVU382
	eor	lr, lr, r1	@ tmp1367, tmp1366, c
	add	r3, lr, r3	@ _1373, tmp1367, tmp1370
@ src/sha1.c:118:     R3(a, b, c, d, e, 45);
	.loc 1 118 5 view .LVU383
	eor	lr, r10, r6	@ tmp1517, _319, _337
	ldr	r10, [sp, #32]	@ _442, %sfp
	eor	lr, lr, r7	@ tmp1518, tmp1517, _391
	eor	lr, lr, r10	@ tmp1519, tmp1518, _442
	ldr	r10, [sp, #12]	@ _328, %sfp
@ src/sha1.c:101:     R2(c, d, e, a, b, 28);
	.loc 1 101 5 view .LVU384
	add	r2, r2, r1, ror #27	@ b, _1379, c,
.LVL95:
	.loc 1 101 5 is_stmt 1 view .LVU385
	.loc 1 101 26 view .LVU386
	.loc 1 102 5 view .LVU387
	add	r6, r10, ip	@ tmp1377, _328, tmp1288
	ror	r1, r1, #2	@ c, c,
.LVL96:
@ src/sha1.c:118:     R3(a, b, c, d, e, 45);
	.loc 1 118 5 is_stmt 0 view .LVU388
	ror	lr, lr, #31	@ _475, tmp1519,
	str	lr, [sp, #4]	@ _475, %sfp
	add	r5, r6, r5	@ tmp1379, tmp1377, e
.LVL97:
@ src/sha1.c:103:     R2(a, b, c, d, e, 30);
	.loc 1 103 5 view .LVU389
	eor	lr, r4, r1	@ tmp1375, d, c
@ src/sha1.c:119:     R3(e, a, b, c, d, 46);
	.loc 1 119 5 view .LVU390
	ldr	r6, [sp, #20]	@ _346, %sfp
@ src/sha1.c:103:     R2(a, b, c, d, e, 30);
	.loc 1 103 5 view .LVU391
	eor	lr, lr, r2	@ tmp1376, tmp1375, b
	add	r5, lr, r5	@ _1367, tmp1376, tmp1379
@ src/sha1.c:119:     R3(e, a, b, c, d, 46);
	.loc 1 119 5 view .LVU392
	eor	lr, r10, r6	@ tmp1528, _328, _346
	ldr	r10, [sp, #44]	@ _400, %sfp
@ src/sha1.c:102:     R2(b, c, d, e, a, 29);
	.loc 1 102 5 view .LVU393
	add	r3, r3, r2, ror #27	@ a, _1373, b,
.LVL98:
	.loc 1 102 5 is_stmt 1 view .LVU394
	.loc 1 102 26 view .LVU395
	.loc 1 103 5 view .LVU396
@ src/sha1.c:119:     R3(e, a, b, c, d, 46);
	.loc 1 119 5 is_stmt 0 view .LVU397
	eor	lr, lr, r10	@ tmp1529, tmp1528, _400
	ldr	r10, [sp]	@ _453, %sfp
@ src/sha1.c:103:     R2(a, b, c, d, e, 30);
	.loc 1 103 5 view .LVU398
	ror	r2, r2, #2	@ b, b,
.LVL99:
@ src/sha1.c:119:     R3(e, a, b, c, d, 46);
	.loc 1 119 5 view .LVU399
	eor	lr, lr, r10	@ tmp1530, tmp1529, _453
@ src/sha1.c:103:     R2(a, b, c, d, e, 30);
	.loc 1 103 5 view .LVU400
	add	r5, r5, r3, ror #27	@ e, _1367, a,
.LVL100:
	.loc 1 103 5 is_stmt 1 view .LVU401
	.loc 1 103 26 view .LVU402
	.loc 1 104 5 view .LVU403
@ src/sha1.c:119:     R3(e, a, b, c, d, 46);
	.loc 1 119 5 is_stmt 0 view .LVU404
	ror	r10, lr, #31	@ _486, tmp1530,
	str	r10, [sp, #48]	@ _486, %sfp
	ldr	r10, [sp, #16]	@ _337, %sfp
@ src/sha1.c:104:     R2(e, a, b, c, d, 31);
	.loc 1 104 5 view .LVU405
	eor	lr, r1, r2	@ tmp1384, c, b
	add	r6, r10, ip	@ tmp1386, _337, tmp1288
	add	r4, r6, r4	@ tmp1388, tmp1386, d
.LVL101:
@ src/sha1.c:120:     R3(d, e, a, b, c, 47);
	.loc 1 120 5 view .LVU406
	ldr	r6, [sp, #24]	@ _355, %sfp
@ src/sha1.c:104:     R2(e, a, b, c, d, 31);
	.loc 1 104 5 view .LVU407
	eor	lr, lr, r3	@ tmp1385, tmp1384, a
	add	r4, lr, r4	@ _1361, tmp1385, tmp1388
@ src/sha1.c:120:     R3(d, e, a, b, c, 47);
	.loc 1 120 5 view .LVU408
	eor	lr, r10, r6	@ tmp1539, _337, _355
	ldr	r10, [sp, #36]	@ _464, %sfp
	eor	lr, lr, r0	@ tmp1540, tmp1539, _409
	eor	lr, lr, r10	@ tmp1541, tmp1540, _464
@ src/sha1.c:104:     R2(e, a, b, c, d, 31);
	.loc 1 104 5 view .LVU409
	ror	r3, r3, #2	@ a, a,
.LVL102:
@ src/sha1.c:120:     R3(d, e, a, b, c, 47);
	.loc 1 120 5 view .LVU410
	ror	r6, lr, #31	@ _497, tmp1541,
	ldr	lr, [sp, #20]	@ _346, %sfp
@ src/sha1.c:105:     R2(d, e, a, b, c, 32);
	.loc 1 105 5 view .LVU411
	eor	r10, r2, r3	@ tmp1393, b, a
@ src/sha1.c:120:     R3(d, e, a, b, c, 47);
	.loc 1 120 5 view .LVU412
	str	r6, [sp, #52]	@ _497, %sfp
	add	r6, lr, ip	@ tmp1395, _346, tmp1288
	add	r1, r6, r1	@ tmp1397, tmp1395, c
.LVL103:
@ src/sha1.c:105:     R2(d, e, a, b, c, 32);
	.loc 1 105 5 view .LVU413
	eor	r10, r10, r5	@ tmp1394, tmp1393, e
@ src/sha1.c:121:     R3(c, d, e, a, b, 48);
	.loc 1 121 5 view .LVU414
	eor	r6, lr, r8	@ tmp1550, _346, _364
	add	r10, r10, r1	@ _1355, tmp1394, tmp1397
	ldr	r1, [sp, #4]	@ _475, %sfp
	eor	r6, r6, fp	@ tmp1551, tmp1550, _420
	eor	r6, r6, r1	@ tmp1552, tmp1551, _475
@ src/sha1.c:104:     R2(e, a, b, c, d, 31);
	.loc 1 104 5 view .LVU415
	add	r4, r4, r5, ror #27	@ d, _1361, e,
.LVL104:
	.loc 1 104 5 is_stmt 1 view .LVU416
	.loc 1 104 26 view .LVU417
	.loc 1 105 5 view .LVU418
@ src/sha1.c:121:     R3(c, d, e, a, b, 48);
	.loc 1 121 5 is_stmt 0 view .LVU419
	ror	r1, r6, #31	@ _508, tmp1552,
@ src/sha1.c:105:     R2(d, e, a, b, c, 32);
	.loc 1 105 5 view .LVU420
	ror	r5, r5, #2	@ e, e,
.LVL105:
@ src/sha1.c:121:     R3(c, d, e, a, b, 48);
	.loc 1 121 5 view .LVU421
	str	r1, [sp, #56]	@ _508, %sfp
@ src/sha1.c:106:     R2(c, d, e, a, b, 33);
	.loc 1 106 5 view .LVU422
	eor	r1, r3, r5	@ tmp1402, a, e
@ src/sha1.c:105:     R2(d, e, a, b, c, 32);
	.loc 1 105 5 view .LVU423
	add	r10, r10, r4, ror #27	@ c, _1355, d,
.LVL106:
	.loc 1 105 5 is_stmt 1 view .LVU424
	.loc 1 105 26 view .LVU425
	.loc 1 106 5 view .LVU426
	eor	r1, r1, r4	@ tmp1403, tmp1402, d
	ror	r4, r4, #2	@ d, d,
.LVL107:
	.loc 1 106 5 is_stmt 0 view .LVU427
	str	r4, [sp, #8]	@ d, %sfp
	ldr	r4, [sp, #24]	@ _355, %sfp
@ src/sha1.c:122:     R3(b, c, d, e, a, 49);
	.loc 1 122 5 view .LVU428
	ldr	r6, [sp, #40]	@ _373, %sfp
	add	lr, r4, ip	@ tmp1404, _355, tmp1288
	add	r2, lr, r2	@ tmp1406, tmp1404, b
.LVL108:
	.loc 1 122 5 view .LVU429
	add	r1, r1, r2	@ _1349, tmp1403, tmp1406
	ldr	r2, [sp, #28]	@ _431, %sfp
	eor	r4, r4, r6	@ tmp1561, _355, _373
	eor	r4, r4, r2	@ tmp1562, tmp1561, _431
	ldr	r2, [sp, #48]	@ _486, %sfp
@ src/sha1.c:107:     R2(b, c, d, e, a, 34);
	.loc 1 107 5 view .LVU430
	ldr	lr, [sp, #8]	@ d, %sfp
@ src/sha1.c:122:     R3(b, c, d, e, a, 49);
	.loc 1 122 5 view .LVU431
	eor	r4, r4, r2	@ tmp1563, tmp1562, _486
@ src/sha1.c:107:     R2(b, c, d, e, a, 34);
	.loc 1 107 5 view .LVU432
	eor	r2, r5, lr	@ tmp1411, e, d
@ src/sha1.c:122:     R3(b, c, d, e, a, 49);
	.loc 1 122 5 view .LVU433
	ror	r4, r4, #31	@ _519, tmp1563,
	str	r4, [sp, #40]	@ _519, %sfp
	add	r4, r8, ip	@ tmp1413, _364, tmp1288
	add	r3, r4, r3	@ tmp1415, tmp1413, a
.LVL109:
@ src/sha1.c:107:     R2(b, c, d, e, a, 34);
	.loc 1 107 5 view .LVU434
	eor	r2, r2, r10	@ tmp1412, tmp1411, c
	add	r2, r2, r3	@ _1343, tmp1412, tmp1415
@ src/sha1.c:123:     R3(a, b, c, d, e, 50);
	.loc 1 123 5 view .LVU435
	ldr	r3, [sp, #32]	@ _442, %sfp
	eor	r4, r8, r9	@ tmp1572, _364, _382
	eor	r4, r4, r3	@ tmp1573, tmp1572, _442
	ldr	r3, [sp, #52]	@ _497, %sfp
@ src/sha1.c:106:     R2(c, d, e, a, b, 33);
	.loc 1 106 5 view .LVU436
	add	r1, r1, r10, ror #27	@ b, _1349, c,
.LVL110:
	.loc 1 106 5 is_stmt 1 view .LVU437
	.loc 1 106 26 view .LVU438
	.loc 1 107 5 view .LVU439
@ src/sha1.c:123:     R3(a, b, c, d, e, 50);
	.loc 1 123 5 is_stmt 0 view .LVU440
	eor	r4, r4, r3	@ tmp1574, tmp1573, _497
@ src/sha1.c:107:     R2(b, c, d, e, a, 34);
	.loc 1 107 5 view .LVU441
	ror	r10, r10, #2	@ c, c,
.LVL111:
@ src/sha1.c:108:     R2(a, b, c, d, e, 35);
	.loc 1 108 5 view .LVU442
	eor	r3, lr, r10	@ tmp1420, d, c
@ src/sha1.c:107:     R2(b, c, d, e, a, 34);
	.loc 1 107 5 view .LVU443
	add	r2, r2, r1, ror #27	@ a, _1343, b,
.LVL112:
	.loc 1 107 5 is_stmt 1 view .LVU444
	.loc 1 107 26 view .LVU445
	.loc 1 108 5 view .LVU446
@ src/sha1.c:123:     R3(a, b, c, d, e, 50);
	.loc 1 123 5 is_stmt 0 view .LVU447
	ror	r8, r4, #31	@ _530, tmp1574,
@ src/sha1.c:108:     R2(a, b, c, d, e, 35);
	.loc 1 108 5 view .LVU448
	mov	r4, lr	@ d, d
	eor	r3, r3, r1	@ tmp1421, tmp1420, b
	ror	lr, r1, #2	@ b, b,
.LVL113:
	.loc 1 108 5 view .LVU449
	mov	r1, r6	@ _373, _373
.LVL114:
	.loc 1 108 5 view .LVU450
	add	r6, r6, ip	@ tmp1422, _373, tmp1288
	add	r5, r6, r5	@ tmp1424, tmp1422, e
.LVL115:
	.loc 1 108 5 view .LVU451
	add	r5, r3, r5	@ _1337, tmp1421, tmp1424
@ src/sha1.c:124:     R3(e, a, b, c, d, 51);
	.loc 1 124 5 view .LVU452
	eor	r3, r1, r7	@ tmp1583, _373, _391
	ldr	r1, [sp]	@ _453, %sfp
	ldr	r6, [sp, #56]	@ _508, %sfp
	eor	r3, r3, r1	@ tmp1584, tmp1583, _453
	eor	r3, r3, r6	@ tmp1585, tmp1584, _508
	add	r1, r9, ip	@ tmp1431, _382, tmp1288
	ror	r6, r3, #31	@ _541, tmp1585,
	str	r6, [sp, #64]	@ _541, %sfp
@ src/sha1.c:109:     R2(e, a, b, c, d, 36);
	.loc 1 109 5 view .LVU453
	eor	r6, r10, lr	@ tmp1429, c, b
	add	r4, r1, r4	@ tmp1433, tmp1431, d
.LVL116:
	.loc 1 109 5 view .LVU454
	eor	r6, r6, r2	@ tmp1430, tmp1429, a
	add	r6, r6, r4	@ _1331, tmp1430, tmp1433
@ src/sha1.c:125:     R3(d, e, a, b, c, 52);
	.loc 1 125 5 view .LVU455
	ldr	r4, [sp, #44]	@ _400, %sfp
@ src/sha1.c:123:     R3(a, b, c, d, e, 50);
	.loc 1 123 5 view .LVU456
	str	r8, [sp, #60]	@ _530, %sfp
@ src/sha1.c:125:     R3(d, e, a, b, c, 52);
	.loc 1 125 5 view .LVU457
	ldr	r8, [sp, #36]	@ _464, %sfp
	eor	r1, r9, r4	@ tmp1594, _382, _400
	ldr	r9, [sp, #40]	@ _519, %sfp
	eor	r1, r1, r8	@ tmp1595, tmp1594, _464
	eor	r1, r1, r9	@ tmp1596, tmp1595, _519
@ src/sha1.c:108:     R2(a, b, c, d, e, 35);
	.loc 1 108 5 view .LVU458
	add	r5, r5, r2, ror #27	@ e, _1337, a,
.LVL117:
	.loc 1 108 5 is_stmt 1 view .LVU459
	.loc 1 108 26 view .LVU460
	.loc 1 109 5 view .LVU461
@ src/sha1.c:125:     R3(d, e, a, b, c, 52);
	.loc 1 125 5 is_stmt 0 view .LVU462
	ror	r9, r1, #31	@ _552, tmp1596,
	str	r9, [sp, #44]	@ _552, %sfp
	add	r1, r7, ip	@ tmp1440, _391, tmp1288
@ src/sha1.c:126:     R3(c, d, e, a, b, 53);
	.loc 1 126 5 view .LVU463
	ldr	r9, [sp, #4]	@ _475, %sfp
	add	r10, r1, r10	@ tmp1442, tmp1440, c
.LVL118:
	.loc 1 126 5 view .LVU464
	eor	r7, r7, r0	@ tmp1605, _391, _409
	ldr	r1, [sp, #60]	@ _530, %sfp
	eor	r7, r7, r9	@ tmp1606, tmp1605, _475
@ src/sha1.c:109:     R2(e, a, b, c, d, 36);
	.loc 1 109 5 view .LVU465
	ror	r2, r2, #2	@ a, a,
.LVL119:
@ src/sha1.c:126:     R3(c, d, e, a, b, 53);
	.loc 1 126 5 view .LVU466
	eor	r7, r7, r1	@ tmp1607, tmp1606, _530
@ src/sha1.c:110:     R2(d, e, a, b, c, 37);
	.loc 1 110 5 view .LVU467
	eor	r3, lr, r2	@ tmp1438, b, a
@ src/sha1.c:109:     R2(e, a, b, c, d, 36);
	.loc 1 109 5 view .LVU468
	add	r6, r6, r5, ror #27	@ d, _1331, e,
.LVL120:
	.loc 1 109 5 is_stmt 1 view .LVU469
	.loc 1 109 26 view .LVU470
	.loc 1 110 5 view .LVU471
@ src/sha1.c:126:     R3(c, d, e, a, b, 53);
	.loc 1 126 5 is_stmt 0 view .LVU472
	ror	r1, r7, #31	@ _563, tmp1607,
@ src/sha1.c:110:     R2(d, e, a, b, c, 37);
	.loc 1 110 5 view .LVU473
	eor	r3, r3, r5	@ tmp1439, tmp1438, e
@ src/sha1.c:126:     R3(c, d, e, a, b, 53);
	.loc 1 126 5 view .LVU474
	mov	r9, r1	@ _563, _563
@ src/sha1.c:128:     R3(a, b, c, d, e, 55);
	.loc 1 128 5 view .LVU475
	ldr	r7, [sp, #28]	@ _431, %sfp
@ src/sha1.c:110:     R2(d, e, a, b, c, 37);
	.loc 1 110 5 view .LVU476
	ror	r5, r5, #2	@ e, e,
.LVL121:
	.loc 1 110 5 view .LVU477
	add	r3, r3, r10	@ _1325, tmp1439, tmp1442
	add	r1, r4, ip	@ tmp1449, _400, tmp1288
	add	ip, r0, ip	@ tmp1458, _409, tmp1288
	add	r8, r3, r6, ror #27	@ c, _1325, d,
.LVL122:
	.loc 1 110 5 is_stmt 1 view .LVU478
	.loc 1 110 26 view .LVU479
	.loc 1 111 5 view .LVU480
	eor	r3, r2, r5	@ tmp1447, a, e
	add	r2, ip, r2	@ tmp1460, tmp1458, a
.LVL123:
@ src/sha1.c:128:     R3(a, b, c, d, e, 55);
	.loc 1 128 5 is_stmt 0 view .LVU481
	ldr	ip, [sp, #52]	@ _497, %sfp
	eor	r0, r0, r7	@ tmp1627, _409, _431
@ src/sha1.c:111:     R2(c, d, e, a, b, 38);
	.loc 1 111 5 view .LVU482
	eor	r3, r3, r6	@ tmp1448, tmp1447, d
@ src/sha1.c:127:     R3(b, c, d, e, a, 54);
	.loc 1 127 5 view .LVU483
	eor	r10, r4, fp	@ tmp1616, _400, _420
	add	r1, r1, lr	@ tmp1451, tmp1449, b
	ldr	r4, [sp, #48]	@ _486, %sfp
@ src/sha1.c:128:     R3(a, b, c, d, e, 55);
	.loc 1 128 5 view .LVU484
	eor	r0, r0, ip	@ tmp1628, tmp1627, _497
	ldr	ip, [sp, #44]	@ _552, %sfp
@ src/sha1.c:111:     R2(c, d, e, a, b, 38);
	.loc 1 111 5 view .LVU485
	ror	r6, r6, #2	@ d, d,
.LVL124:
	.loc 1 111 5 view .LVU486
	add	r1, r3, r1	@ _1319, tmp1448, tmp1451
@ src/sha1.c:127:     R3(b, c, d, e, a, 54);
	.loc 1 127 5 view .LVU487
	ldr	r3, [sp, #64]	@ _541, %sfp
	eor	r10, r10, r4	@ tmp1617, tmp1616, _486
@ src/sha1.c:128:     R3(a, b, c, d, e, 55);
	.loc 1 128 5 view .LVU488
	eor	r0, r0, ip	@ tmp1629, tmp1628, _552
@ src/sha1.c:112:     R2(b, c, d, e, a, 39);
	.loc 1 112 5 view .LVU489
	eor	ip, r5, r6	@ tmp1456, e, d
@ src/sha1.c:111:     R2(c, d, e, a, b, 38);
	.loc 1 111 5 view .LVU490
	add	r1, r1, r8, ror #27	@ b, _1319, c,
.LVL125:
	.loc 1 111 5 is_stmt 1 view .LVU491
	.loc 1 111 26 view .LVU492
	.loc 1 112 5 view .LVU493
@ src/sha1.c:127:     R3(b, c, d, e, a, 54);
	.loc 1 127 5 is_stmt 0 view .LVU494
	eor	r10, r10, r3	@ tmp1618, tmp1617, _541
@ src/sha1.c:112:     R2(b, c, d, e, a, 39);
	.loc 1 112 5 view .LVU495
	eor	ip, ip, r8	@ tmp1457, tmp1456, c
@ src/sha1.c:128:     R3(a, b, c, d, e, 55);
	.loc 1 128 5 view .LVU496
	ror	r0, r0, #31	@ _585, tmp1629,
@ src/sha1.c:112:     R2(b, c, d, e, a, 39);
	.loc 1 112 5 view .LVU497
	ror	r8, r8, #2	@ c, c,
.LVL126:
	.loc 1 112 5 view .LVU498
	add	r2, ip, r2	@ _1313, tmp1457, tmp1460
	add	ip, r2, r1, ror #27	@ a, _1313, b,
.LVL127:
	.loc 1 112 5 is_stmt 1 view .LVU499
	.loc 1 112 26 view .LVU500
	.loc 1 113 5 view .LVU501
	movw	r2, #48348	@ tmp1470,
@ src/sha1.c:127:     R3(b, c, d, e, a, 54);
	.loc 1 127 5 is_stmt 0 view .LVU502
	ror	r4, r10, #31	@ _574, tmp1618,
@ src/sha1.c:128:     R3(a, b, c, d, e, 55);
	.loc 1 128 5 view .LVU503
	str	r0, [sp, #8]	@ _585, %sfp
@ src/sha1.c:127:     R3(b, c, d, e, a, 54);
	.loc 1 127 5 view .LVU504
	mov	lr, r4	@ _574, _574
@ src/sha1.c:113:     R3(a, b, c, d, e, 40);
	.loc 1 113 5 view .LVU505
	orr	r0, r1, r8	@ tmp1465, b, c
	movt	r2, 36635	@ tmp1470,
	and	r0, r0, r6	@ tmp1466, tmp1465, d
	ror	r4, r1, #2	@ b, b,
	and	r1, r1, r8	@ tmp1467, b, c
.LVL128:
	.loc 1 113 5 view .LVU506
	orr	r1, r0, r1	@ tmp1468, tmp1466, tmp1467
	add	r0, fp, r2	@ tmp1469, _420, tmp1470
	add	r5, r0, r5	@ tmp1471, tmp1469, e
.LVL129:
	.loc 1 113 5 view .LVU507
	add	r1, r1, r5	@ _1308, tmp1468, tmp1471
@ src/sha1.c:129:     R3(e, a, b, c, d, 56);
	.loc 1 129 5 view .LVU508
	ldr	r5, [sp, #32]	@ _442, %sfp
	ldr	r3, [sp, #56]	@ _508, %sfp
@ src/sha1.c:114:     R3(e, a, b, c, d, 41);
	.loc 1 114 5 view .LVU509
	orr	r0, ip, r4	@ tmp1476, a, b
@ src/sha1.c:129:     R3(e, a, b, c, d, 56);
	.loc 1 129 5 view .LVU510
	eor	fp, fp, r5	@ tmp1638, _420, _442
@ src/sha1.c:114:     R3(e, a, b, c, d, 41);
	.loc 1 114 5 view .LVU511
	and	r0, r0, r8	@ tmp1477, tmp1476, c
@ src/sha1.c:129:     R3(e, a, b, c, d, 56);
	.loc 1 129 5 view .LVU512
	eor	fp, fp, r3	@ tmp1639, tmp1638, _508
@ src/sha1.c:114:     R3(e, a, b, c, d, 41);
	.loc 1 114 5 view .LVU513
	and	r3, ip, r4	@ tmp1478, a, b
	orr	r0, r0, r3	@ tmp1479, tmp1477, tmp1478
	add	r3, r7, r2	@ tmp1480, _431, tmp1470
	add	r6, r3, r6	@ tmp1482, tmp1480, d
.LVL130:
@ src/sha1.c:130:     R3(d, e, a, b, c, 57);
	.loc 1 130 5 view .LVU514
	ldr	r3, [sp]	@ _453, %sfp
@ src/sha1.c:113:     R3(a, b, c, d, e, 40);
	.loc 1 113 5 view .LVU515
	add	r1, r1, ip, ror #27	@ e, _1308, a,
.LVL131:
	.loc 1 113 5 is_stmt 1 view .LVU516
	.loc 1 113 26 view .LVU517
	.loc 1 114 5 view .LVU518
	ror	ip, ip, #2	@ a, a,
.LVL132:
@ src/sha1.c:130:     R3(d, e, a, b, c, 57);
	.loc 1 130 5 is_stmt 0 view .LVU519
	eor	r10, r7, r3	@ tmp1649, _431, _453
	add	r0, r0, r6	@ _1303, tmp1479, tmp1482
@ src/sha1.c:115:     R3(d, e, a, b, c, 42);
	.loc 1 115 5 view .LVU520
	orr	r3, r1, ip	@ tmp1487, e, a
@ src/sha1.c:130:     R3(d, e, a, b, c, 57);
	.loc 1 130 5 view .LVU521
	ldr	r6, [sp, #40]	@ _519, %sfp
@ src/sha1.c:115:     R3(d, e, a, b, c, 42);
	.loc 1 115 5 view .LVU522
	and	r3, r3, r4	@ tmp1488, tmp1487, b
@ src/sha1.c:114:     R3(e, a, b, c, d, 41);
	.loc 1 114 5 view .LVU523
	add	r0, r0, r1, ror #27	@ d, _1303, e,
.LVL133:
	.loc 1 114 5 is_stmt 1 view .LVU524
	.loc 1 114 26 view .LVU525
	.loc 1 115 5 view .LVU526
@ src/sha1.c:129:     R3(e, a, b, c, d, 56);
	.loc 1 129 5 is_stmt 0 view .LVU527
	str	r9, [sp, #32]	@ _563, %sfp
	eor	fp, fp, r9	@ tmp1640, tmp1639, _563
@ src/sha1.c:115:     R3(d, e, a, b, c, 42);
	.loc 1 115 5 view .LVU528
	ror	r9, r1, #2	@ e, e,
	and	r1, r1, ip	@ tmp1489, e, a
.LVL134:
@ src/sha1.c:130:     R3(d, e, a, b, c, 57);
	.loc 1 130 5 view .LVU529
	eor	r10, r10, r6	@ tmp1650, tmp1649, _519
@ src/sha1.c:115:     R3(d, e, a, b, c, 42);
	.loc 1 115 5 view .LVU530
	orr	r1, r3, r1	@ tmp1490, tmp1488, tmp1489
	add	r3, r5, r2	@ tmp1491, _442, tmp1470
	add	r8, r3, r8	@ tmp1493, tmp1491, c
.LVL135:
@ src/sha1.c:130:     R3(d, e, a, b, c, 57);
	.loc 1 130 5 view .LVU531
	eor	r10, r10, lr	@ tmp1651, tmp1650, _574
	str	lr, [sp, #68]	@ _574, %sfp
	add	r1, r1, r8	@ _1298, tmp1490, tmp1493
@ src/sha1.c:131:     R3(c, d, e, a, b, 58);
	.loc 1 131 5 view .LVU532
	ldr	r8, [sp, #36]	@ _464, %sfp
	ldr	r7, [sp, #60]	@ _530, %sfp
@ src/sha1.c:130:     R3(d, e, a, b, c, 57);
	.loc 1 130 5 view .LVU533
	ror	r10, r10, #31	@ _607, tmp1651,
	str	r10, [sp, #12]	@ _607, %sfp
@ src/sha1.c:131:     R3(c, d, e, a, b, 58);
	.loc 1 131 5 view .LVU534
	ldr	r6, [sp, #8]	@ _585, %sfp
	eor	r10, r5, r8	@ tmp1660, _442, _464
@ src/sha1.c:116:     R3(c, d, e, a, b, 43);
	.loc 1 116 5 view .LVU535
	orr	r5, r0, r9	@ tmp1498, d, e
	and	r3, r0, r9	@ tmp1500, d, e
	and	r5, r5, ip	@ tmp1499, tmp1498, a
@ src/sha1.c:131:     R3(c, d, e, a, b, 58);
	.loc 1 131 5 view .LVU536
	eor	r10, r10, r7	@ tmp1661, tmp1660, _530
	eor	lr, r10, r6	@ tmp1662, tmp1661, _585
@ src/sha1.c:116:     R3(c, d, e, a, b, 43);
	.loc 1 116 5 view .LVU537
	orr	r5, r5, r3	@ tmp1501, tmp1499, tmp1500
	ldr	r3, [sp]	@ _453, %sfp
@ src/sha1.c:131:     R3(c, d, e, a, b, 58);
	.loc 1 131 5 view .LVU538
	ror	r10, lr, #31	@ _618, tmp1662,
	add	lr, r3, r2	@ tmp1502, _453, tmp1470
	add	lr, lr, r4	@ tmp1504, tmp1502, b
@ src/sha1.c:132:     R3(b, c, d, e, a, 59);
	.loc 1 132 5 view .LVU539
	ldr	r4, [sp, #4]	@ _475, %sfp
.LVL136:
@ src/sha1.c:131:     R3(c, d, e, a, b, 58);
	.loc 1 131 5 view .LVU540
	str	r10, [sp, #16]	@ _618, %sfp
@ src/sha1.c:132:     R3(b, c, d, e, a, 59);
	.loc 1 132 5 view .LVU541
	eor	r10, r3, r4	@ tmp1671, _453, _475
	ldr	r3, [sp, #64]	@ _541, %sfp
@ src/sha1.c:129:     R3(e, a, b, c, d, 56);
	.loc 1 129 5 view .LVU542
	ror	fp, fp, #31	@ _596, tmp1640,
@ src/sha1.c:132:     R3(b, c, d, e, a, 59);
	.loc 1 132 5 view .LVU543
	eor	r10, r10, r3	@ tmp1672, tmp1671, _541
@ src/sha1.c:115:     R3(d, e, a, b, c, 42);
	.loc 1 115 5 view .LVU544
	add	r1, r1, r0, ror #27	@ c, _1298, d,
.LVL137:
	.loc 1 115 5 is_stmt 1 view .LVU545
	.loc 1 115 26 view .LVU546
	.loc 1 116 5 view .LVU547
@ src/sha1.c:132:     R3(b, c, d, e, a, 59);
	.loc 1 132 5 is_stmt 0 view .LVU548
	eor	r7, r10, fp	@ tmp1673, tmp1672, _596
@ src/sha1.c:116:     R3(c, d, e, a, b, 43);
	.loc 1 116 5 view .LVU549
	ror	r0, r0, #2	@ d, d,
.LVL138:
@ src/sha1.c:133:     R4(a, b, c, d, e, 60);
	.loc 1 133 5 view .LVU550
	ldr	r10, [sp, #48]	@ _486, %sfp
	add	r5, r5, lr	@ _1293, tmp1501, tmp1504
@ src/sha1.c:117:     R3(b, c, d, e, a, 44);
	.loc 1 117 5 view .LVU551
	orr	lr, r1, r0	@ tmp1509, c, d
	ror	r6, r1, #2	@ c, c,
	and	lr, lr, r9	@ tmp1510, tmp1509, e
@ src/sha1.c:116:     R3(c, d, e, a, b, 43);
	.loc 1 116 5 view .LVU552
	add	r5, r5, r1, ror #27	@ b, _1293, c,
.LVL139:
	.loc 1 116 5 is_stmt 1 view .LVU553
	.loc 1 116 26 view .LVU554
	.loc 1 117 5 view .LVU555
	and	r1, r1, r0	@ tmp1511, c, d
.LVL140:
@ src/sha1.c:133:     R4(a, b, c, d, e, 60);
	.loc 1 133 5 is_stmt 0 view .LVU556
	ldr	r4, [sp, #44]	@ _552, %sfp
@ src/sha1.c:132:     R3(b, c, d, e, a, 59);
	.loc 1 132 5 view .LVU557
	ror	r3, r7, #31	@ _629, tmp1673,
	str	r3, [sp, #20]	@ _629, %sfp
@ src/sha1.c:117:     R3(b, c, d, e, a, 44);
	.loc 1 117 5 view .LVU558
	orr	r1, lr, r1	@ tmp1512, tmp1510, tmp1511
	add	r3, r8, r2	@ tmp1513, _464, tmp1470
@ src/sha1.c:133:     R4(a, b, c, d, e, 60);
	.loc 1 133 5 view .LVU559
	eor	lr, r8, r10	@ tmp1682, _464, _486
	ldr	r8, [sp, #12]	@ _607, %sfp
	eor	lr, lr, r4	@ tmp1683, tmp1682, _552
	eor	r4, lr, r8	@ tmp1684, tmp1683, _607
	add	ip, r3, ip	@ tmp1515, tmp1513, a
.LVL141:
	.loc 1 133 5 view .LVU560
	add	r1, r1, ip	@ _1288, tmp1512, tmp1515
@ src/sha1.c:118:     R3(a, b, c, d, e, 45);
	.loc 1 118 5 view .LVU561
	orr	r3, r5, r6	@ tmp1520, b, c
@ src/sha1.c:133:     R4(a, b, c, d, e, 60);
	.loc 1 133 5 view .LVU562
	ror	ip, r4, #31	@ _638, tmp1684,
@ src/sha1.c:118:     R3(a, b, c, d, e, 45);
	.loc 1 118 5 view .LVU563
	and	r3, r3, r0	@ tmp1521, tmp1520, d
@ src/sha1.c:133:     R4(a, b, c, d, e, 60);
	.loc 1 133 5 view .LVU564
	str	ip, [sp]	@ _638, %sfp
@ src/sha1.c:118:     R3(a, b, c, d, e, 45);
	.loc 1 118 5 view .LVU565
	and	ip, r5, r6	@ tmp1522, b, c
	orr	r3, r3, ip	@ tmp1523, tmp1521, tmp1522
	ldr	ip, [sp, #4]	@ _475, %sfp
@ src/sha1.c:134:     R4(e, a, b, c, d, 61);
	.loc 1 134 5 view .LVU566
	ldr	r4, [sp, #16]	@ _618, %sfp
	add	r7, ip, r2	@ tmp1524, _475, tmp1470
	add	r7, r7, r9	@ tmp1526, tmp1524, e
	add	r3, r3, r7	@ _1283, tmp1523, tmp1526
	ldr	r7, [sp, #52]	@ _497, %sfp
@ src/sha1.c:117:     R3(b, c, d, e, a, 44);
	.loc 1 117 5 view .LVU567
	add	r1, r1, r5, ror #27	@ a, _1288, b,
.LVL142:
	.loc 1 117 5 is_stmt 1 view .LVU568
	.loc 1 117 26 view .LVU569
	.loc 1 118 5 view .LVU570
@ src/sha1.c:134:     R4(e, a, b, c, d, 61);
	.loc 1 134 5 is_stmt 0 view .LVU571
	eor	lr, ip, r7	@ tmp1691, _475, _497
	ldr	ip, [sp, #32]	@ _563, %sfp
@ src/sha1.c:118:     R3(a, b, c, d, e, 45);
	.loc 1 118 5 view .LVU572
	ror	r5, r5, #2	@ b, b,
.LVL143:
@ src/sha1.c:134:     R4(e, a, b, c, d, 61);
	.loc 1 134 5 view .LVU573
	eor	lr, lr, ip	@ tmp1692, tmp1691, _563
	eor	lr, lr, r4	@ tmp1693, tmp1692, _618
@ src/sha1.c:135:     R4(d, e, a, b, c, 62);
	.loc 1 135 5 view .LVU574
	ldr	r8, [sp, #56]	@ _508, %sfp
@ src/sha1.c:134:     R4(e, a, b, c, d, 61);
	.loc 1 134 5 view .LVU575
	ror	r4, lr, #31	@ _647, tmp1693,
@ src/sha1.c:119:     R3(e, a, b, c, d, 46);
	.loc 1 119 5 view .LVU576
	orr	lr, r1, r5	@ tmp1531, a, b
@ src/sha1.c:118:     R3(a, b, c, d, e, 45);
	.loc 1 118 5 view .LVU577
	add	r3, r3, r1, ror #27	@ e, _1283, a,
.LVL144:
	.loc 1 118 5 is_stmt 1 view .LVU578
	.loc 1 118 26 view .LVU579
	.loc 1 119 5 view .LVU580
	and	lr, lr, r6	@ tmp1532, tmp1531, c
	add	ip, r10, r2	@ tmp1535, _486, tmp1470
@ src/sha1.c:134:     R4(e, a, b, c, d, 61);
	.loc 1 134 5 is_stmt 0 view .LVU581
	str	r4, [sp, #4]	@ _647, %sfp
@ src/sha1.c:119:     R3(e, a, b, c, d, 46);
	.loc 1 119 5 view .LVU582
	ror	r4, r1, #2	@ a, a,
	and	r1, r1, r5	@ tmp1533, a, b
.LVL145:
	.loc 1 119 5 view .LVU583
	orr	r1, lr, r1	@ tmp1534, tmp1532, tmp1533
	add	r0, ip, r0	@ tmp1537, tmp1535, d
.LVL146:
@ src/sha1.c:135:     R4(d, e, a, b, c, 62);
	.loc 1 135 5 view .LVU584
	eor	lr, r10, r8	@ tmp1700, _486, _508
	ldr	r10, [sp, #68]	@ _574, %sfp
	add	r0, r1, r0	@ _1278, tmp1534, tmp1537
	ldr	r1, [sp, #20]	@ _629, %sfp
	eor	lr, lr, r10	@ tmp1701, tmp1700, _574
	eor	lr, lr, r1	@ tmp1702, tmp1701, _629
@ src/sha1.c:120:     R3(d, e, a, b, c, 47);
	.loc 1 120 5 view .LVU585
	orr	ip, r3, r4	@ tmp1542, e, a
@ src/sha1.c:135:     R4(d, e, a, b, c, 62);
	.loc 1 135 5 view .LVU586
	ror	r1, lr, #31	@ _656, tmp1702,
@ src/sha1.c:120:     R3(d, e, a, b, c, 47);
	.loc 1 120 5 view .LVU587
	and	ip, ip, r5	@ tmp1543, tmp1542, b
@ src/sha1.c:135:     R4(d, e, a, b, c, 62);
	.loc 1 135 5 view .LVU588
	str	r1, [sp, #24]	@ _656, %sfp
@ src/sha1.c:120:     R3(d, e, a, b, c, 47);
	.loc 1 120 5 view .LVU589
	and	r1, r3, r4	@ tmp1544, e, a
@ src/sha1.c:136:     R4(c, d, e, a, b, 63);
	.loc 1 136 5 view .LVU590
	ldr	r9, [sp, #40]	@ _519, %sfp
@ src/sha1.c:120:     R3(d, e, a, b, c, 47);
	.loc 1 120 5 view .LVU591
	orr	ip, ip, r1	@ tmp1545, tmp1543, tmp1544
	add	r1, r7, r2	@ tmp1546, _497, tmp1470
	add	r1, r1, r6	@ tmp1548, tmp1546, c
@ src/sha1.c:136:     R4(c, d, e, a, b, 63);
	.loc 1 136 5 view .LVU592
	ldr	r6, [sp, #8]	@ _585, %sfp
.LVL147:
	.loc 1 136 5 view .LVU593
	eor	lr, r7, r9	@ tmp1709, _497, _519
	add	r1, ip, r1	@ _1273, tmp1545, tmp1548
	ldr	ip, [sp]	@ _638, %sfp
	eor	lr, lr, r6	@ tmp1710, tmp1709, _585
	eor	lr, lr, ip	@ tmp1711, tmp1710, _638
@ src/sha1.c:119:     R3(e, a, b, c, d, 46);
	.loc 1 119 5 view .LVU594
	add	r0, r0, r3, ror #27	@ d, _1278, e,
.LVL148:
	.loc 1 119 5 is_stmt 1 view .LVU595
	.loc 1 119 26 view .LVU596
	.loc 1 120 5 view .LVU597
	ror	r3, r3, #2	@ e, e,
.LVL149:
@ src/sha1.c:136:     R4(c, d, e, a, b, 63);
	.loc 1 136 5 is_stmt 0 view .LVU598
	ror	r6, lr, #31	@ _665, tmp1711,
@ src/sha1.c:121:     R3(c, d, e, a, b, 48);
	.loc 1 121 5 view .LVU599
	orr	lr, r0, r3	@ tmp1553, d, e
	ror	ip, r0, #2	@ d, d,
	and	lr, lr, r4	@ tmp1554, tmp1553, a
@ src/sha1.c:120:     R3(d, e, a, b, c, 47);
	.loc 1 120 5 view .LVU600
	add	r1, r1, r0, ror #27	@ c, _1273, d,
.LVL150:
	.loc 1 120 5 is_stmt 1 view .LVU601
	.loc 1 120 26 view .LVU602
	.loc 1 121 5 view .LVU603
	and	r0, r0, r3	@ tmp1555, d, e
.LVL151:
@ src/sha1.c:137:     R4(b, c, d, e, a, 64);
	.loc 1 137 5 is_stmt 0 view .LVU604
	ldr	r7, [sp, #60]	@ _530, %sfp
@ src/sha1.c:121:     R3(c, d, e, a, b, 48);
	.loc 1 121 5 view .LVU605
	orr	r0, lr, r0	@ tmp1556, tmp1554, tmp1555
	add	lr, r8, r2	@ tmp1557, _508, tmp1470
	add	r5, lr, r5	@ tmp1559, tmp1557, b
.LVL152:
@ src/sha1.c:136:     R4(c, d, e, a, b, 63);
	.loc 1 136 5 view .LVU606
	str	r6, [sp, #28]	@ _665, %sfp
	add	r5, r0, r5	@ _1268, tmp1556, tmp1559
@ src/sha1.c:137:     R4(b, c, d, e, a, 64);
	.loc 1 137 5 view .LVU607
	eor	r6, r8, r7	@ tmp1718, _508, _530
	ldr	r0, [sp, #4]	@ _647, %sfp
	eor	r6, r6, fp	@ tmp1719, tmp1718, _596
	eor	lr, r6, r0	@ tmp1720, tmp1719, _647
@ src/sha1.c:122:     R3(b, c, d, e, a, 49);
	.loc 1 122 5 view .LVU608
	and	r10, r1, ip	@ tmp1566, c, d
@ src/sha1.c:137:     R4(b, c, d, e, a, 64);
	.loc 1 137 5 view .LVU609
	ror	r0, lr, #31	@ _674, tmp1720,
	str	r0, [sp, #36]	@ _674, %sfp
	str	r0, [sp, #96]	@ _674, block[0].l[0]
@ src/sha1.c:122:     R3(b, c, d, e, a, 49);
	.loc 1 122 5 view .LVU610
	orr	r0, r1, ip	@ tmp1564, c, d
@ src/sha1.c:138:     R4(a, b, c, d, e, 65);
	.loc 1 138 5 view .LVU611
	ldr	r8, [sp, #64]	@ _541, %sfp
@ src/sha1.c:122:     R3(b, c, d, e, a, 49);
	.loc 1 122 5 view .LVU612
	and	r0, r0, r3	@ tmp1565, tmp1564, e
	orr	r0, r0, r10	@ tmp1567, tmp1565, tmp1566
	add	r10, r9, r2	@ tmp1568, _519, tmp1470
	add	r10, r10, r4	@ tmp1570, tmp1568, a
	add	r10, r0, r10	@ _1263, tmp1567, tmp1570
@ src/sha1.c:138:     R4(a, b, c, d, e, 65);
	.loc 1 138 5 view .LVU613
	ldr	r0, [sp, #12]	@ _607, %sfp
	eor	r4, r9, r8	@ tmp1727, _519, _541
.LVL153:
	.loc 1 138 5 view .LVU614
	ldr	r9, [sp, #24]	@ _656, %sfp
	eor	r4, r4, r0	@ tmp1728, tmp1727, _607
	eor	r4, r4, r9	@ tmp1729, tmp1728, _656
@ src/sha1.c:121:     R3(c, d, e, a, b, 48);
	.loc 1 121 5 view .LVU615
	add	r5, r5, r1, ror #27	@ b, _1268, c,
.LVL154:
	.loc 1 121 5 is_stmt 1 view .LVU616
	.loc 1 121 26 view .LVU617
	.loc 1 122 5 view .LVU618
	ror	r1, r1, #2	@ c, c,
.LVL155:
@ src/sha1.c:138:     R4(a, b, c, d, e, 65);
	.loc 1 138 5 is_stmt 0 view .LVU619
	ror	r9, r4, #31	@ _683, tmp1729,
@ src/sha1.c:123:     R3(a, b, c, d, e, 50);
	.loc 1 123 5 view .LVU620
	orr	lr, r5, r1	@ tmp1575, b, c
@ src/sha1.c:122:     R3(b, c, d, e, a, 49);
	.loc 1 122 5 view .LVU621
	add	r10, r10, r5, ror #27	@ a, _1263, b,
.LVL156:
	.loc 1 122 5 is_stmt 1 view .LVU622
	.loc 1 122 26 view .LVU623
	.loc 1 123 5 view .LVU624
	and	lr, lr, ip	@ tmp1576, tmp1575, d
@ src/sha1.c:138:     R4(a, b, c, d, e, 65);
	.loc 1 138 5 is_stmt 0 view .LVU625
	str	r9, [sp, #40]	@ _683, %sfp
	add	r0, r7, r2	@ tmp1579, _530, tmp1470
	str	r9, [sp, #100]	@ _683, block[0].l[1]
@ src/sha1.c:123:     R3(a, b, c, d, e, 50);
	.loc 1 123 5 view .LVU626
	ror	r9, r5, #2	@ b, b,
	and	r5, r5, r1	@ tmp1577, b, c
.LVL157:
	.loc 1 123 5 view .LVU627
	orr	r5, lr, r5	@ tmp1578, tmp1576, tmp1577
	add	r0, r0, r3	@ tmp1581, tmp1579, e
	add	r0, r5, r0	@ _1258, tmp1578, tmp1581
@ src/sha1.c:139:     R4(e, a, b, c, d, 66);
	.loc 1 139 5 view .LVU628
	ldr	r5, [sp, #44]	@ _552, %sfp
	ldr	r3, [sp, #16]	@ _618, %sfp
.LVL158:
	.loc 1 139 5 view .LVU629
	eor	r4, r7, r5	@ tmp1736, _530, _552
	eor	r4, r4, r3	@ tmp1737, tmp1736, _618
	ldr	r7, [sp, #28]	@ _665, %sfp
@ src/sha1.c:124:     R3(e, a, b, c, d, 51);
	.loc 1 124 5 view .LVU630
	orr	r3, r10, r9	@ tmp1586, a, b
	and	r6, r10, r9	@ tmp1588, a, b
	and	r3, r3, r1	@ tmp1587, tmp1586, c
	orr	r3, r3, r6	@ tmp1589, tmp1587, tmp1588
@ src/sha1.c:139:     R4(e, a, b, c, d, 66);
	.loc 1 139 5 view .LVU631
	eor	r4, r4, r7	@ tmp1738, tmp1737, _665
	add	r6, r8, r2	@ tmp1590, _541, tmp1470
	add	r6, r6, ip	@ tmp1592, tmp1590, d
@ src/sha1.c:140:     R4(d, e, a, b, c, 67);
	.loc 1 140 5 view .LVU632
	ldr	ip, [sp, #32]	@ _563, %sfp
.LVL159:
	.loc 1 140 5 view .LVU633
	ldr	r7, [sp, #20]	@ _629, %sfp
@ src/sha1.c:139:     R4(e, a, b, c, d, 66);
	.loc 1 139 5 view .LVU634
	ror	r4, r4, #31	@ _692, tmp1738,
@ src/sha1.c:123:     R3(a, b, c, d, e, 50);
	.loc 1 123 5 view .LVU635
	add	r0, r0, r10, ror #27	@ e, _1258, a,
.LVL160:
	.loc 1 123 5 is_stmt 1 view .LVU636
	.loc 1 123 26 view .LVU637
	.loc 1 124 5 view .LVU638
@ src/sha1.c:139:     R4(e, a, b, c, d, 66);
	.loc 1 139 5 is_stmt 0 view .LVU639
	str	r4, [sp, #44]	@ _692, %sfp
@ src/sha1.c:124:     R3(e, a, b, c, d, 51);
	.loc 1 124 5 view .LVU640
	ror	r10, r10, #2	@ a, a,
.LVL161:
@ src/sha1.c:139:     R4(e, a, b, c, d, 66);
	.loc 1 139 5 view .LVU641
	str	r4, [sp, #104]	@ _692, block[0].l[2]
	add	r6, r3, r6	@ _1253, tmp1589, tmp1592
@ src/sha1.c:140:     R4(d, e, a, b, c, 67);
	.loc 1 140 5 view .LVU642
	ldr	r4, [sp, #36]	@ _674, %sfp
	eor	r3, r8, ip	@ tmp1745, _541, _563
	eor	ip, r3, r7	@ tmp1746, tmp1745, _629
@ src/sha1.c:141:     R4(c, d, e, a, b, 68);
	.loc 1 141 5 view .LVU643
	ldr	r8, [sp, #68]	@ _574, %sfp
@ src/sha1.c:125:     R3(d, e, a, b, c, 52);
	.loc 1 125 5 view .LVU644
	orr	lr, r0, r10	@ tmp1597, e, a
	ror	r7, r0, #2	@ e, e,
	and	lr, lr, r9	@ tmp1598, tmp1597, b
@ src/sha1.c:124:     R3(e, a, b, c, d, 51);
	.loc 1 124 5 view .LVU645
	add	r6, r6, r0, ror #27	@ d, _1253, e,
.LVL162:
	.loc 1 124 5 is_stmt 1 view .LVU646
	.loc 1 124 26 view .LVU647
	.loc 1 125 5 view .LVU648
	and	r0, r0, r10	@ tmp1599, e, a
.LVL163:
@ src/sha1.c:141:     R4(c, d, e, a, b, 68);
	.loc 1 141 5 is_stmt 0 view .LVU649
	ldr	r3, [sp]	@ _638, %sfp
@ src/sha1.c:140:     R4(d, e, a, b, c, 67);
	.loc 1 140 5 view .LVU650
	eor	ip, ip, r4	@ tmp1747, tmp1746, _674
	add	r4, r5, r2	@ tmp1601, _552, tmp1470
@ src/sha1.c:125:     R3(d, e, a, b, c, 52);
	.loc 1 125 5 view .LVU651
	orr	r0, lr, r0	@ tmp1600, tmp1598, tmp1599
	add	r4, r4, r1	@ tmp1603, tmp1601, c
@ src/sha1.c:141:     R4(c, d, e, a, b, 68);
	.loc 1 141 5 view .LVU652
	eor	r1, r5, r8	@ tmp1754, _552, _574
.LVL164:
	.loc 1 141 5 view .LVU653
	add	r4, r0, r4	@ _1248, tmp1600, tmp1603
	eor	r0, r1, r3	@ tmp1755, tmp1754, _638
	ldr	r3, [sp, #40]	@ _683, %sfp
	ldr	r1, [sp, #32]	@ _563, %sfp
	eor	r0, r0, r3	@ tmp1756, tmp1755, _683
@ src/sha1.c:126:     R3(c, d, e, a, b, 53);
	.loc 1 126 5 view .LVU654
	orr	r3, r6, r7	@ tmp1608, d, e
	and	lr, r6, r7	@ tmp1610, d, e
	and	r3, r3, r10	@ tmp1609, tmp1608, a
	orr	r3, r3, lr	@ tmp1611, tmp1609, tmp1610
	add	lr, r1, r2	@ tmp1612, _563, tmp1470
	add	lr, lr, r9	@ tmp1614, tmp1612, b
	add	lr, r3, lr	@ _1243, tmp1611, tmp1614
@ src/sha1.c:142:     R4(b, c, d, e, a, 69);
	.loc 1 142 5 view .LVU655
	ldr	r3, [sp, #8]	@ _585, %sfp
	ldr	r9, [sp, #4]	@ _647, %sfp
.LVL165:
@ src/sha1.c:125:     R3(d, e, a, b, c, 52);
	.loc 1 125 5 view .LVU656
	add	r4, r4, r6, ror #27	@ c, _1248, d,
.LVL166:
	.loc 1 125 5 is_stmt 1 view .LVU657
	.loc 1 125 26 view .LVU658
	.loc 1 126 5 view .LVU659
@ src/sha1.c:142:     R4(b, c, d, e, a, 69);
	.loc 1 142 5 is_stmt 0 view .LVU660
	eor	r3, r1, r3	@ tmp1763, _563, _585
@ src/sha1.c:126:     R3(c, d, e, a, b, 53);
	.loc 1 126 5 view .LVU661
	ror	r6, r6, #2	@ d, d,
.LVL167:
@ src/sha1.c:142:     R4(b, c, d, e, a, 69);
	.loc 1 142 5 view .LVU662
	eor	r5, r3, r9	@ tmp1764, tmp1763, _647
@ src/sha1.c:127:     R3(b, c, d, e, a, 54);
	.loc 1 127 5 view .LVU663
	orr	r3, r4, r6	@ tmp1619, c, d
	ror	r1, r4, #2	@ c, c,
	and	r3, r3, r7	@ tmp1620, tmp1619, e
@ src/sha1.c:126:     R3(c, d, e, a, b, 53);
	.loc 1 126 5 view .LVU664
	add	lr, lr, r4, ror #27	@ b, _1243, c,
.LVL168:
	.loc 1 126 5 is_stmt 1 view .LVU665
	.loc 1 126 26 view .LVU666
	.loc 1 127 5 view .LVU667
	and	r4, r4, r6	@ tmp1621, c, d
.LVL169:
	.loc 1 127 5 is_stmt 0 view .LVU668
	orr	r4, r3, r4	@ tmp1622, tmp1620, tmp1621
	mov	r3, r8	@ _574, _574
	add	r8, r8, r2	@ tmp1623, _574, tmp1470
	add	r8, r8, r10	@ tmp1625, tmp1623, a
	add	r8, r4, r8	@ _1238, tmp1622, tmp1625
@ src/sha1.c:143:     R4(a, b, c, d, e, 70);
	.loc 1 143 5 view .LVU669
	ldr	r4, [sp, #24]	@ _656, %sfp
	eor	r10, r3, fp	@ tmp1772, _574, _596
.LVL170:
@ src/sha1.c:140:     R4(d, e, a, b, c, 67);
	.loc 1 140 5 view .LVU670
	ror	ip, ip, #31	@ _701, tmp1747,
@ src/sha1.c:143:     R4(a, b, c, d, e, 70);
	.loc 1 143 5 view .LVU671
	eor	r10, r10, r4	@ tmp1773, tmp1772, _656
@ src/sha1.c:142:     R4(b, c, d, e, a, 69);
	.loc 1 142 5 view .LVU672
	ldr	r9, [sp, #44]	@ _692, %sfp
@ src/sha1.c:143:     R4(a, b, c, d, e, 70);
	.loc 1 143 5 view .LVU673
	eor	r10, r10, ip	@ tmp1774, tmp1773, _701
@ src/sha1.c:128:     R3(a, b, c, d, e, 55);
	.loc 1 128 5 view .LVU674
	orr	r3, lr, r1	@ tmp1630, b, c
@ src/sha1.c:142:     R4(b, c, d, e, a, 69);
	.loc 1 142 5 view .LVU675
	eor	r5, r5, r9	@ tmp1765, tmp1764, _692
@ src/sha1.c:128:     R3(a, b, c, d, e, 55);
	.loc 1 128 5 view .LVU676
	and	r3, r3, r6	@ tmp1631, tmp1630, d
@ src/sha1.c:143:     R4(a, b, c, d, e, 70);
	.loc 1 143 5 view .LVU677
	ror	r9, r10, #31	@ _728, tmp1774,
	ldr	r10, [sp, #8]	@ _585, %sfp
@ src/sha1.c:128:     R3(a, b, c, d, e, 55);
	.loc 1 128 5 view .LVU678
	and	r4, lr, r1	@ tmp1632, b, c
	orr	r3, r3, r4	@ tmp1633, tmp1631, tmp1632
	add	r4, r10, r2	@ tmp1634, _585, tmp1470
	add	r4, r4, r7	@ tmp1636, tmp1634, e
	add	r4, r3, r4	@ _1233, tmp1633, tmp1636
@ src/sha1.c:144:     R4(e, a, b, c, d, 71);
	.loc 1 144 5 view .LVU679
	ldr	r3, [sp, #12]	@ _607, %sfp
@ src/sha1.c:141:     R4(c, d, e, a, b, 68);
	.loc 1 141 5 view .LVU680
	ror	r0, r0, #31	@ _710, tmp1756,
@ src/sha1.c:144:     R4(e, a, b, c, d, 71);
	.loc 1 144 5 view .LVU681
	eor	r3, r10, r3	@ tmp1781, _585, _607
	ldr	r10, [sp, #28]	@ _665, %sfp
	add	r7, fp, r2	@ tmp1645, _596, tmp1470
.LVL171:
	.loc 1 144 5 view .LVU682
	eor	r3, r3, r10	@ tmp1782, tmp1781, _665
	eor	r3, r3, r0	@ tmp1783, tmp1782, _710
@ src/sha1.c:127:     R3(b, c, d, e, a, 54);
	.loc 1 127 5 view .LVU683
	add	r8, r8, lr, ror #27	@ a, _1238, b,
.LVL172:
	.loc 1 127 5 is_stmt 1 view .LVU684
	.loc 1 127 26 view .LVU685
	.loc 1 128 5 view .LVU686
	add	r7, r7, r6	@ tmp1647, tmp1645, d
	ror	lr, lr, #2	@ b, b,
.LVL173:
@ src/sha1.c:145:     R4(d, e, a, b, c, 72);
	.loc 1 145 5 is_stmt 0 view .LVU687
	ldr	r6, [sp, #16]	@ _618, %sfp
.LVL174:
@ src/sha1.c:144:     R4(e, a, b, c, d, 71);
	.loc 1 144 5 view .LVU688
	ror	r10, r3, #31	@ _737, tmp1783,
@ src/sha1.c:129:     R3(e, a, b, c, d, 56);
	.loc 1 129 5 view .LVU689
	orr	r3, r8, lr	@ tmp1641, a, b
@ src/sha1.c:128:     R3(a, b, c, d, e, 55);
	.loc 1 128 5 view .LVU690
	add	r4, r4, r8, ror #27	@ e, _1233, a,
.LVL175:
	.loc 1 128 5 is_stmt 1 view .LVU691
	.loc 1 128 26 view .LVU692
	.loc 1 129 5 view .LVU693
	and	r3, r3, r1	@ tmp1642, tmp1641, c
@ src/sha1.c:144:     R4(e, a, b, c, d, 71);
	.loc 1 144 5 is_stmt 0 view .LVU694
	str	r10, [sp, #8]	@ _737, %sfp
	str	r10, [sp, #124]	@ _737, block[0].l[7]
@ src/sha1.c:145:     R4(d, e, a, b, c, 72);
	.loc 1 145 5 view .LVU695
	eor	fp, fp, r6	@ tmp1790, _596, _618
@ src/sha1.c:129:     R3(e, a, b, c, d, 56);
	.loc 1 129 5 view .LVU696
	ror	r10, r8, #2	@ a, a,
	and	r8, r8, lr	@ tmp1643, a, b
.LVL176:
@ src/sha1.c:145:     R4(d, e, a, b, c, 72);
	.loc 1 145 5 view .LVU697
	ldr	r6, [sp, #36]	@ _674, %sfp
@ src/sha1.c:129:     R3(e, a, b, c, d, 56);
	.loc 1 129 5 view .LVU698
	orr	r8, r3, r8	@ tmp1644, tmp1642, tmp1643
@ src/sha1.c:142:     R4(b, c, d, e, a, 69);
	.loc 1 142 5 view .LVU699
	ror	r5, r5, #31	@ _719, tmp1765,
@ src/sha1.c:130:     R3(d, e, a, b, c, 57);
	.loc 1 130 5 view .LVU700
	orr	r3, r4, r10	@ tmp1652, e, a
	add	r7, r8, r7	@ _1228, tmp1644, tmp1647
	and	r3, r3, lr	@ tmp1653, tmp1652, b
	ldr	r8, [sp, #12]	@ _607, %sfp
@ src/sha1.c:145:     R4(d, e, a, b, c, 72);
	.loc 1 145 5 view .LVU701
	eor	fp, fp, r6	@ tmp1791, tmp1790, _674
	eor	fp, fp, r5	@ tmp1792, tmp1791, _719
@ src/sha1.c:130:     R3(d, e, a, b, c, 57);
	.loc 1 130 5 view .LVU702
	and	r6, r4, r10	@ tmp1654, e, a
	orr	r3, r3, r6	@ tmp1655, tmp1653, tmp1654
	add	r6, r8, r2	@ tmp1656, _607, tmp1470
@ src/sha1.c:145:     R4(d, e, a, b, c, 72);
	.loc 1 145 5 view .LVU703
	ror	fp, fp, #31	@ _746, tmp1792,
	add	r6, r6, r1	@ tmp1658, tmp1656, c
@ src/sha1.c:140:     R4(d, e, a, b, c, 67);
	.loc 1 140 5 view .LVU704
	str	ip, [sp, #108]	@ _701, block[0].l[3]
@ src/sha1.c:141:     R4(c, d, e, a, b, 68);
	.loc 1 141 5 view .LVU705
	str	r0, [sp, #112]	@ _710, block[0].l[4]
@ src/sha1.c:142:     R4(b, c, d, e, a, 69);
	.loc 1 142 5 view .LVU706
	str	r5, [sp, #116]	@ _719, block[0].l[5]
@ src/sha1.c:143:     R4(a, b, c, d, e, 70);
	.loc 1 143 5 view .LVU707
	str	r9, [sp, #120]	@ _728, block[0].l[6]
@ src/sha1.c:145:     R4(d, e, a, b, c, 72);
	.loc 1 145 5 view .LVU708
	str	fp, [sp, #128]	@ _746, block[0].l[8]
	add	r6, r3, r6	@ _1223, tmp1655, tmp1658
@ src/sha1.c:146:     R4(c, d, e, a, b, 73);
	.loc 1 146 5 view .LVU709
	ldr	r3, [sp, #20]	@ _629, %sfp
	ldr	r1, [sp, #40]	@ _683, %sfp
.LVL177:
	.loc 1 146 5 view .LVU710
	eor	r8, r8, r3	@ tmp1799, _607, _629
	eor	r8, r8, r1	@ tmp1800, tmp1799, _683
	eor	r8, r8, r9	@ tmp1801, tmp1800, _728
@ src/sha1.c:129:     R3(e, a, b, c, d, 56);
	.loc 1 129 5 view .LVU711
	add	r7, r7, r4, ror #27	@ d, _1228, e,
.LVL178:
	.loc 1 129 5 is_stmt 1 view .LVU712
	.loc 1 129 26 view .LVU713
	.loc 1 130 5 view .LVU714
	ror	r4, r4, #2	@ e, e,
.LVL179:
@ src/sha1.c:146:     R4(c, d, e, a, b, 73);
	.loc 1 146 5 is_stmt 0 view .LVU715
	ror	r8, r8, #31	@ _755, tmp1801,
@ src/sha1.c:131:     R3(c, d, e, a, b, 58);
	.loc 1 131 5 view .LVU716
	orr	r1, r7, r4	@ tmp1663, d, e
@ src/sha1.c:130:     R3(d, e, a, b, c, 57);
	.loc 1 130 5 view .LVU717
	add	r6, r6, r7, ror #27	@ c, _1223, d,
.LVL180:
	.loc 1 130 5 is_stmt 1 view .LVU718
	.loc 1 130 26 view .LVU719
	.loc 1 131 5 view .LVU720
	and	r1, r1, r10	@ tmp1664, tmp1663, a
@ src/sha1.c:146:     R4(c, d, e, a, b, 73);
	.loc 1 146 5 is_stmt 0 view .LVU721
	str	r8, [sp, #12]	@ _755, %sfp
	str	r8, [sp, #132]	@ _755, block[0].l[9]
@ src/sha1.c:131:     R3(c, d, e, a, b, 58);
	.loc 1 131 5 view .LVU722
	ror	r8, r7, #2	@ d, d,
	and	r7, r7, r4	@ tmp1665, d, e
.LVL181:
	.loc 1 131 5 view .LVU723
	orr	r7, r1, r7	@ tmp1666, tmp1664, tmp1665
	ldr	r1, [sp, #16]	@ _618, %sfp
	add	r3, r1, r2	@ tmp1667, _618, tmp1470
	add	r3, r3, lr	@ tmp1669, tmp1667, b
	add	r3, r7, r3	@ _1218, tmp1666, tmp1669
	ldr	r7, [sp, #20]	@ _629, %sfp
	add	r3, r3, r6, ror #27	@ b, _1218, c,
.LVL182:
	.loc 1 131 5 is_stmt 1 view .LVU724
	.loc 1 131 26 view .LVU725
	.loc 1 132 5 view .LVU726
	add	r2, r7, r2	@ tmp1678, _629, tmp1470
	add	r2, r2, r10	@ tmp1680, tmp1678, a
@ src/sha1.c:147:     R4(b, c, d, e, a, 74);
	.loc 1 147 5 is_stmt 0 view .LVU727
	ldr	r10, [sp]	@ _638, %sfp
.LVL183:
	.loc 1 147 5 view .LVU728
	eor	lr, r1, r10	@ tmp1808, _618, _638
	ldr	r10, [sp, #44]	@ _692, %sfp
@ src/sha1.c:148:     R4(a, b, c, d, e, 75);
	.loc 1 148 5 view .LVU729
	ldr	r1, [sp, #4]	@ _647, %sfp
@ src/sha1.c:147:     R4(b, c, d, e, a, 74);
	.loc 1 147 5 view .LVU730
	eor	lr, lr, r10	@ tmp1809, tmp1808, _692
	ldr	r10, [sp, #8]	@ _737, %sfp
@ src/sha1.c:148:     R4(a, b, c, d, e, 75);
	.loc 1 148 5 view .LVU731
	eor	r7, r7, r1	@ tmp1817, _629, _647
@ src/sha1.c:132:     R3(b, c, d, e, a, 59);
	.loc 1 132 5 view .LVU732
	orr	r1, r6, r8	@ tmp1674, c, d
@ src/sha1.c:147:     R4(b, c, d, e, a, 74);
	.loc 1 147 5 view .LVU733
	eor	lr, lr, r10	@ tmp1810, tmp1809, _737
@ src/sha1.c:132:     R3(b, c, d, e, a, 59);
	.loc 1 132 5 view .LVU734
	and	r1, r1, r4	@ tmp1675, tmp1674, e
	and	r10, r6, r8	@ tmp1676, c, d
	orr	r1, r1, r10	@ tmp1677, tmp1675, tmp1676
	add	r1, r1, r2	@ _1213, tmp1677, tmp1680
	movw	r2, #49622	@ tmp1688,
	movt	r2, 51810	@ tmp1688,
@ src/sha1.c:148:     R4(a, b, c, d, e, 75);
	.loc 1 148 5 view .LVU735
	eor	r7, r7, ip	@ tmp1818, tmp1817, _701
	eor	r7, r7, fp	@ tmp1819, tmp1818, _746
	add	fp, fp, r2	@ tmp1795, _746, tmp1688
	str	fp, [sp, #20]	@ tmp1795, %sfp
@ src/sha1.c:154:     state[0] += a;
	.loc 1 154 14 view .LVU736
	ldr	fp, [sp, #72]	@ a, %sfp
@ src/sha1.c:132:     R3(b, c, d, e, a, 59);
	.loc 1 132 5 view .LVU737
	ror	r6, r6, #2	@ c, c,
.LVL184:
	.loc 1 132 5 view .LVU738
	add	ip, ip, r2	@ tmp1750, _701, tmp1688
@ src/sha1.c:154:     state[0] += a;
	.loc 1 154 14 view .LVU739
	add	fp, fp, r2	@ tmp1856, a, tmp1688
	str	ip, [sp, #16]	@ tmp1750, %sfp
@ src/sha1.c:133:     R4(a, b, c, d, e, 60);
	.loc 1 133 5 view .LVU740
	eor	ip, r8, r6	@ tmp1685, d, c
@ src/sha1.c:132:     R3(b, c, d, e, a, 59);
	.loc 1 132 5 view .LVU741
	add	r1, r1, r3, ror #27	@ a, _1213, b,
.LVL185:
	.loc 1 132 5 is_stmt 1 view .LVU742
	.loc 1 132 26 view .LVU743
	.loc 1 133 5 view .LVU744
	ldr	r10, [sp, #44]	@ _692, %sfp
	eor	ip, ip, r3	@ tmp1686, tmp1685, b
@ src/sha1.c:154:     state[0] += a;
	.loc 1 154 14 is_stmt 0 view .LVU745
	str	fp, [sp, #44]	@ tmp1856, %sfp
@ src/sha1.c:133:     R4(a, b, c, d, e, 60);
	.loc 1 133 5 view .LVU746
	ror	fp, r3, #2	@ b, b,
	ldr	r3, [sp]	@ _638, %sfp
.LVL186:
@ src/sha1.c:147:     R4(b, c, d, e, a, 74);
	.loc 1 147 5 view .LVU747
	ror	lr, lr, #31	@ _764, tmp1810,
	add	r3, r3, r2	@ tmp1687, _638, tmp1688
	add	r3, r3, r4	@ tmp1689, tmp1687, e
	add	ip, ip, r3	@ _1207, tmp1686, tmp1689
@ src/sha1.c:149:     R4(e, a, b, c, d, 76);
	.loc 1 149 5 view .LVU748
	ldr	r4, [sp, #24]	@ _656, %sfp
.LVL187:
	.loc 1 149 5 view .LVU749
	ldr	r3, [sp]	@ _638, %sfp
@ src/sha1.c:133:     R4(a, b, c, d, e, 60);
	.loc 1 133 5 view .LVU750
	add	ip, ip, r1, ror #27	@ e, _1207, a,
.LVL188:
	.loc 1 133 5 is_stmt 1 view .LVU751
	.loc 1 133 26 view .LVU752
	.loc 1 134 5 view .LVU753
@ src/sha1.c:149:     R4(e, a, b, c, d, 76);
	.loc 1 149 5 is_stmt 0 view .LVU754
	eor	r4, r3, r4	@ tmp1826, _638, _656
	eor	r4, r4, r0	@ tmp1827, tmp1826, _710
	add	r0, r0, r2	@ tmp1759, _710, tmp1688
	str	r0, [sp]	@ tmp1759, %sfp
	ldr	r0, [sp, #12]	@ _755, %sfp
	ldr	r3, [sp, #4]	@ _647, %sfp
	eor	r4, r4, r0	@ tmp1828, tmp1827, _755
	add	r0, r0, r2	@ tmp1804, _755, tmp1688
	str	r0, [sp, #12]	@ tmp1804, %sfp
	add	r3, r3, r2	@ tmp1696, _647, tmp1688
@ src/sha1.c:134:     R4(e, a, b, c, d, 61);
	.loc 1 134 5 view .LVU755
	eor	r0, r6, fp	@ tmp1694, c, b
	add	r3, r3, r8	@ tmp1698, tmp1696, d
	eor	r0, r0, r1	@ tmp1695, tmp1694, a
@ src/sha1.c:150:     R4(d, e, a, b, c, 77);
	.loc 1 150 5 view .LVU756
	ldr	r8, [sp, #28]	@ _665, %sfp
.LVL189:
	.loc 1 150 5 view .LVU757
	add	r0, r0, r3	@ _1201, tmp1695, tmp1698
	ldr	r3, [sp, #4]	@ _647, %sfp
@ src/sha1.c:134:     R4(e, a, b, c, d, 61);
	.loc 1 134 5 view .LVU758
	ror	r1, r1, #2	@ a, a,
.LVL190:
@ src/sha1.c:150:     R4(d, e, a, b, c, 77);
	.loc 1 150 5 view .LVU759
	eor	r3, r3, r8	@ tmp1835, _647, _665
	eor	r3, r3, r5	@ tmp1836, tmp1835, _719
	eor	r3, r3, lr	@ tmp1837, tmp1836, _764
	add	r8, lr, r2	@ tmp1813, _764, tmp1688
	ror	r3, r3, #31	@ _791, tmp1837,
	str	r8, [sp, #4]	@ tmp1813, %sfp
	ldr	r8, [sp, #24]	@ _656, %sfp
@ src/sha1.c:147:     R4(b, c, d, e, a, 74);
	.loc 1 147 5 view .LVU760
	str	lr, [sp, #136]	@ _764, block[0].l[10]
	add	lr, r3, r2	@ tmp1840, _791, tmp1688
@ src/sha1.c:150:     R4(d, e, a, b, c, 77);
	.loc 1 150 5 view .LVU761
	str	r3, [sp, #148]	@ _791, block[0].l[13]
	str	lr, [sp, #32]	@ tmp1840, %sfp
@ src/sha1.c:135:     R4(d, e, a, b, c, 62);
	.loc 1 135 5 view .LVU762
	eor	r3, fp, r1	@ tmp1703, b, a
	add	lr, r8, r2	@ tmp1705, _656, tmp1688
	eor	r3, r3, ip	@ tmp1704, tmp1703, e
	add	r6, lr, r6	@ tmp1707, tmp1705, c
.LVL191:
	.loc 1 135 5 view .LVU763
	add	r6, r3, r6	@ _1195, tmp1704, tmp1707
@ src/sha1.c:151:     R4(c, d, e, a, b, 78);
	.loc 1 151 5 view .LVU764
	ldr	r3, [sp, #36]	@ _674, %sfp
@ src/sha1.c:148:     R4(a, b, c, d, e, 75);
	.loc 1 148 5 view .LVU765
	ror	r7, r7, #31	@ _773, tmp1819,
@ src/sha1.c:151:     R4(c, d, e, a, b, 78);
	.loc 1 151 5 view .LVU766
	eor	r8, r8, r3	@ tmp1844, _656, _674
	eor	r8, r8, r9	@ tmp1845, tmp1844, _728
	eor	r8, r8, r7	@ tmp1846, tmp1845, _773
@ src/sha1.c:149:     R4(e, a, b, c, d, 76);
	.loc 1 149 5 view .LVU767
	ror	r4, r4, #31	@ _782, tmp1828,
@ src/sha1.c:151:     R4(c, d, e, a, b, 78);
	.loc 1 151 5 view .LVU768
	ror	r8, r8, #31	@ _800, tmp1846,
@ src/sha1.c:148:     R4(a, b, c, d, e, 75);
	.loc 1 148 5 view .LVU769
	str	r7, [sp, #140]	@ _773, block[0].l[11]
	add	r7, r7, r2	@ tmp1822, _773, tmp1688
@ src/sha1.c:149:     R4(e, a, b, c, d, 76);
	.loc 1 149 5 view .LVU770
	str	r4, [sp, #144]	@ _782, block[0].l[12]
	str	r7, [sp, #24]	@ tmp1822, %sfp
	add	r7, r8, r2	@ tmp1849, _800, tmp1688
	str	r7, [sp, #36]	@ tmp1849, %sfp
	ldr	r7, [sp, #28]	@ _665, %sfp
@ src/sha1.c:134:     R4(e, a, b, c, d, 61);
	.loc 1 134 5 view .LVU771
	add	r0, r0, ip, ror #27	@ d, _1201, e,
.LVL192:
	.loc 1 134 5 is_stmt 1 view .LVU772
	.loc 1 134 26 view .LVU773
	.loc 1 135 5 view .LVU774
	add	lr, r3, r2	@ tmp1723, _674, tmp1688
	ror	ip, ip, #2	@ e, e,
.LVL193:
	.loc 1 135 5 is_stmt 0 view .LVU775
	add	lr, lr, r1	@ tmp1725, tmp1723, a
	add	r3, r7, r2	@ tmp1714, _665, tmp1688
@ src/sha1.c:136:     R4(c, d, e, a, b, 63);
	.loc 1 136 5 view .LVU776
	eor	r1, r1, ip	@ tmp1712, a, e
.LVL194:
	.loc 1 136 5 view .LVU777
	add	r3, r3, fp	@ tmp1716, tmp1714, b
	eor	r1, r1, r0	@ tmp1713, tmp1712, d
	add	r1, r1, r3	@ _1189, tmp1713, tmp1716
@ src/sha1.c:152:     R4(b, c, d, e, a, 79);
	.loc 1 152 5 view .LVU778
	ldr	r3, [sp, #40]	@ _683, %sfp
@ src/sha1.c:135:     R4(d, e, a, b, c, 62);
	.loc 1 135 5 view .LVU779
	add	r6, r6, r0, ror #27	@ c, _1195, d,
.LVL195:
	.loc 1 135 5 is_stmt 1 view .LVU780
	.loc 1 135 26 view .LVU781
	.loc 1 136 5 view .LVU782
@ src/sha1.c:151:     R4(c, d, e, a, b, 78);
	.loc 1 151 5 is_stmt 0 view .LVU783
	str	r8, [sp, #152]	@ _800, block[0].l[14]
@ src/sha1.c:136:     R4(c, d, e, a, b, 63);
	.loc 1 136 5 view .LVU784
	ror	r0, r0, #2	@ d, d,
.LVL196:
	.loc 1 136 5 view .LVU785
	add	r8, r3, r2	@ tmp1732, _683, tmp1688
	add	r8, r8, ip	@ tmp1734, tmp1732, e
@ src/sha1.c:137:     R4(b, c, d, e, a, 64);
	.loc 1 137 5 view .LVU786
	eor	ip, ip, r0	@ tmp1721, e, d
.LVL197:
@ src/sha1.c:136:     R4(c, d, e, a, b, 63);
	.loc 1 136 5 view .LVU787
	add	r1, r1, r6, ror #27	@ b, _1189, c,
.LVL198:
	.loc 1 136 5 is_stmt 1 view .LVU788
	.loc 1 136 26 view .LVU789
	.loc 1 137 5 view .LVU790
	add	r10, r10, r2	@ tmp1741, _692, tmp1688
	eor	ip, ip, r6	@ tmp1722, tmp1721, c
	ror	r6, r6, #2	@ c, c,
.LVL199:
	.loc 1 137 5 is_stmt 0 view .LVU791
	add	r10, r10, r0	@ tmp1743, tmp1741, d
@ src/sha1.c:138:     R4(a, b, c, d, e, 65);
	.loc 1 138 5 view .LVU792
	eor	r0, r0, r6	@ tmp1730, d, c
.LVL200:
	.loc 1 138 5 view .LVU793
	eor	r0, r0, r1	@ tmp1731, tmp1730, b
	add	ip, ip, lr	@ _1183, tmp1722, tmp1725
	add	r0, r0, r8	@ _1177, tmp1731, tmp1734
	ldr	r8, [sp, #16]	@ tmp1750, %sfp
@ src/sha1.c:137:     R4(b, c, d, e, a, 64);
	.loc 1 137 5 view .LVU794
	add	ip, ip, r1, ror #27	@ a, _1183, b,
.LVL201:
	.loc 1 137 5 is_stmt 1 view .LVU795
	.loc 1 137 26 view .LVU796
	.loc 1 138 5 view .LVU797
	ror	r1, r1, #2	@ b, b,
.LVL202:
	.loc 1 138 5 is_stmt 0 view .LVU798
	add	r8, r8, r6	@ tmp1752, tmp1750, c
@ src/sha1.c:152:     R4(b, c, d, e, a, 79);
	.loc 1 152 5 view .LVU799
	eor	r7, r7, r3	@ tmp1853, _665, _683
@ src/sha1.c:139:     R4(e, a, b, c, d, 66);
	.loc 1 139 5 view .LVU800
	eor	r6, r6, r1	@ tmp1739, c, b
.LVL203:
	.loc 1 139 5 view .LVU801
	ldr	r3, [sp]	@ tmp1759, %sfp
@ src/sha1.c:138:     R4(a, b, c, d, e, 65);
	.loc 1 138 5 view .LVU802
	add	r0, r0, ip, ror #27	@ e, _1177, a,
.LVL204:
	.loc 1 138 5 is_stmt 1 view .LVU803
	.loc 1 138 26 view .LVU804
	.loc 1 139 5 view .LVU805
	eor	r6, r6, ip	@ tmp1740, tmp1739, a
	ror	ip, ip, #2	@ a, a,
.LVL205:
	.loc 1 139 5 is_stmt 0 view .LVU806
	add	fp, r3, r1	@ tmp1761, tmp1759, b
	add	r6, r6, r10	@ _1171, tmp1740, tmp1743
@ src/sha1.c:140:     R4(d, e, a, b, c, 67);
	.loc 1 140 5 view .LVU807
	eor	r1, r1, ip	@ tmp1748, b, a
.LVL206:
@ src/sha1.c:139:     R4(e, a, b, c, d, 66);
	.loc 1 139 5 view .LVU808
	add	r6, r6, r0, ror #27	@ d, _1171, e,
.LVL207:
	.loc 1 139 5 is_stmt 1 view .LVU809
	.loc 1 139 26 view .LVU810
	.loc 1 140 5 view .LVU811
	add	r5, r5, r2	@ tmp1768, _719, tmp1688
	eor	r1, r1, r0	@ tmp1749, tmp1748, e
	ror	r0, r0, #2	@ e, e,
.LVL208:
	.loc 1 140 5 is_stmt 0 view .LVU812
	add	r5, r5, ip	@ tmp1770, tmp1768, a
	add	r1, r1, r8	@ _1165, tmp1749, tmp1752
@ src/sha1.c:141:     R4(c, d, e, a, b, 68);
	.loc 1 141 5 view .LVU813
	eor	ip, ip, r0	@ tmp1757, a, e
.LVL209:
@ src/sha1.c:140:     R4(d, e, a, b, c, 67);
	.loc 1 140 5 view .LVU814
	add	r1, r1, r6, ror #27	@ c, _1165, d,
.LVL210:
	.loc 1 140 5 is_stmt 1 view .LVU815
	.loc 1 140 26 view .LVU816
	.loc 1 141 5 view .LVU817
@ src/sha1.c:152:     R4(b, c, d, e, a, 79);
	.loc 1 152 5 is_stmt 0 view .LVU818
	ldr	r3, [sp, #8]	@ _737, %sfp
	add	r9, r9, r2	@ tmp1777, _728, tmp1688
@ src/sha1.c:141:     R4(c, d, e, a, b, 68);
	.loc 1 141 5 view .LVU819
	eor	ip, ip, r6	@ tmp1758, tmp1757, d
	ror	r6, r6, #2	@ d, d,
.LVL211:
	.loc 1 141 5 view .LVU820
	add	r9, r9, r0	@ tmp1779, tmp1777, e
	add	ip, ip, fp	@ _1159, tmp1758, tmp1761
@ src/sha1.c:142:     R4(b, c, d, e, a, 69);
	.loc 1 142 5 view .LVU821
	eor	r0, r0, r6	@ tmp1766, e, d
.LVL212:
@ src/sha1.c:141:     R4(c, d, e, a, b, 68);
	.loc 1 141 5 view .LVU822
	add	ip, ip, r1, ror #27	@ b, _1159, c,
.LVL213:
	.loc 1 141 5 is_stmt 1 view .LVU823
	.loc 1 141 26 view .LVU824
	.loc 1 142 5 view .LVU825
	eor	r0, r0, r1	@ tmp1767, tmp1766, c
@ src/sha1.c:152:     R4(b, c, d, e, a, 79);
	.loc 1 152 5 is_stmt 0 view .LVU826
	eor	r7, r7, r3	@ tmp1854, tmp1853, _737
@ src/sha1.c:142:     R4(b, c, d, e, a, 69);
	.loc 1 142 5 view .LVU827
	ror	r1, r1, #2	@ c, c,
.LVL214:
	.loc 1 142 5 view .LVU828
	add	r3, r3, r2	@ tmp1786, _737, tmp1688
	ldr	fp, [sp, #20]	@ tmp1795, %sfp
	add	r3, r3, r6	@ tmp1788, tmp1786, d
	add	r0, r0, r5	@ _1153, tmp1767, tmp1770
@ src/sha1.c:143:     R4(a, b, c, d, e, 70);
	.loc 1 143 5 view .LVU829
	eor	r6, r6, r1	@ tmp1775, d, c
.LVL215:
@ src/sha1.c:142:     R4(b, c, d, e, a, 69);
	.loc 1 142 5 view .LVU830
	add	r0, r0, ip, ror #27	@ a, _1153, b,
.LVL216:
	.loc 1 142 5 is_stmt 1 view .LVU831
	.loc 1 142 26 view .LVU832
	.loc 1 143 5 view .LVU833
	eor	r6, r6, ip	@ tmp1776, tmp1775, b
	ror	ip, ip, #2	@ b, b,
.LVL217:
	.loc 1 143 5 is_stmt 0 view .LVU834
	add	fp, fp, r1	@ tmp1797, tmp1795, c
@ src/sha1.c:144:     R4(e, a, b, c, d, 71);
	.loc 1 144 5 view .LVU835
	eor	r1, r1, ip	@ tmp1784, c, b
.LVL218:
	.loc 1 144 5 view .LVU836
	eor	r1, r1, r0	@ tmp1785, tmp1784, a
	add	r9, r6, r9	@ _1147, tmp1776, tmp1779
	add	r1, r1, r3	@ _1141, tmp1785, tmp1788
	ldr	r3, [sp, #12]	@ tmp1804, %sfp
@ src/sha1.c:143:     R4(a, b, c, d, e, 70);
	.loc 1 143 5 view .LVU837
	add	r9, r9, r0, ror #27	@ e, _1147, a,
.LVL219:
	.loc 1 143 5 is_stmt 1 view .LVU838
	.loc 1 143 26 view .LVU839
	.loc 1 144 5 view .LVU840
	ror	r0, r0, #2	@ a, a,
.LVL220:
	.loc 1 144 5 is_stmt 0 view .LVU841
	add	r8, r3, ip	@ tmp1806, tmp1804, b
	ldr	r3, [sp, #4]	@ tmp1813, %sfp
@ src/sha1.c:145:     R4(d, e, a, b, c, 72);
	.loc 1 145 5 view .LVU842
	eor	ip, ip, r0	@ tmp1793, b, a
.LVL221:
@ src/sha1.c:144:     R4(e, a, b, c, d, 71);
	.loc 1 144 5 view .LVU843
	add	r1, r1, r9, ror #27	@ d, _1141, e,
.LVL222:
	.loc 1 144 5 is_stmt 1 view .LVU844
	.loc 1 144 26 view .LVU845
	.loc 1 145 5 view .LVU846
	eor	ip, ip, r9	@ tmp1794, tmp1793, e
	ror	r9, r9, #2	@ e, e,
.LVL223:
	.loc 1 145 5 is_stmt 0 view .LVU847
	add	lr, r3, r0	@ tmp1815, tmp1813, a
	ldr	r6, [sp, #24]	@ tmp1822, %sfp
	add	ip, ip, fp	@ _1135, tmp1794, tmp1797
@ src/sha1.c:146:     R4(c, d, e, a, b, 73);
	.loc 1 146 5 view .LVU848
	eor	r0, r0, r9	@ tmp1802, a, e
.LVL224:
@ src/sha1.c:145:     R4(d, e, a, b, c, 72);
	.loc 1 145 5 view .LVU849
	add	ip, ip, r1, ror #27	@ c, _1135, d,
.LVL225:
	.loc 1 145 5 is_stmt 1 view .LVU850
	.loc 1 145 26 view .LVU851
	.loc 1 146 5 view .LVU852
	eor	r0, r0, r1	@ tmp1803, tmp1802, d
	ror	r1, r1, #2	@ d, d,
.LVL226:
	.loc 1 146 5 is_stmt 0 view .LVU853
	add	r5, r6, r9	@ tmp1824, tmp1822, e
	add	r0, r0, r8	@ _1129, tmp1803, tmp1806
@ src/sha1.c:147:     R4(b, c, d, e, a, 74);
	.loc 1 147 5 view .LVU854
	eor	r9, r9, r1	@ tmp1811, e, d
.LVL227:
@ src/sha1.c:146:     R4(c, d, e, a, b, 73);
	.loc 1 146 5 view .LVU855
	add	r0, r0, ip, ror #27	@ b, _1129, c,
.LVL228:
	.loc 1 146 5 is_stmt 1 view .LVU856
	.loc 1 146 26 view .LVU857
	.loc 1 147 5 view .LVU858
	add	r2, r4, r2	@ tmp1831, _782, tmp1688
	eor	r9, r9, ip	@ tmp1812, tmp1811, c
	ror	ip, ip, #2	@ c, c,
.LVL229:
	.loc 1 147 5 is_stmt 0 view .LVU859
	ldr	r3, [sp, #32]	@ tmp1840, %sfp
	add	r9, r9, lr	@ _1123, tmp1812, tmp1815
	add	r2, r2, r1	@ tmp1833, tmp1831, d
@ src/sha1.c:148:     R4(a, b, c, d, e, 75);
	.loc 1 148 5 view .LVU860
	eor	r1, r1, ip	@ tmp1820, d, c
.LVL230:
@ src/sha1.c:147:     R4(b, c, d, e, a, 74);
	.loc 1 147 5 view .LVU861
	add	r9, r9, r0, ror #27	@ a, _1123, b,
.LVL231:
	.loc 1 147 5 is_stmt 1 view .LVU862
	.loc 1 147 26 view .LVU863
	.loc 1 148 5 view .LVU864
	eor	r1, r1, r0	@ tmp1821, tmp1820, b
	ror	r0, r0, #2	@ b, b,
.LVL232:
@ src/sha1.c:152:     R4(b, c, d, e, a, 79);
	.loc 1 152 5 is_stmt 0 view .LVU865
	eor	r7, r7, r4	@ tmp1855, tmp1854, _782
	add	r3, r3, ip	@ tmp1842, tmp1840, c
	ldr	r4, [sp, #36]	@ tmp1849, %sfp
	add	r1, r1, r5	@ _1117, tmp1821, tmp1824
@ src/sha1.c:149:     R4(e, a, b, c, d, 76);
	.loc 1 149 5 view .LVU866
	eor	ip, ip, r0	@ tmp1829, c, b
.LVL233:
@ src/sha1.c:148:     R4(a, b, c, d, e, 75);
	.loc 1 148 5 view .LVU867
	add	r1, r1, r9, ror #27	@ e, _1117, a,
.LVL234:
	.loc 1 148 5 is_stmt 1 view .LVU868
	.loc 1 148 26 view .LVU869
	.loc 1 149 5 view .LVU870
	eor	ip, ip, r9	@ tmp1830, tmp1829, a
	ror	r9, r9, #2	@ a, a,
.LVL235:
	.loc 1 149 5 is_stmt 0 view .LVU871
	add	r8, r4, r0	@ tmp1851, tmp1849, b
	add	r2, ip, r2	@ _1111, tmp1830, tmp1833
@ src/sha1.c:150:     R4(d, e, a, b, c, 77);
	.loc 1 150 5 view .LVU872
	eor	r0, r0, r9	@ tmp1838, b, a
.LVL236:
@ src/sha1.c:149:     R4(e, a, b, c, d, 76);
	.loc 1 149 5 view .LVU873
	add	r2, r2, r1, ror #27	@ d, _1111, e,
.LVL237:
	.loc 1 149 5 is_stmt 1 view .LVU874
	.loc 1 149 26 view .LVU875
	.loc 1 150 5 view .LVU876
	eor	r0, r0, r1	@ tmp1839, tmp1838, e
	add	r3, r0, r3	@ _1105, tmp1839, tmp1842
	add	r3, r3, r2, ror #27	@ c, _1105, d,
.LVL238:
	.loc 1 150 5 view .LVU877
@ src/sha1.c:154:     state[0] += a;
	.loc 1 154 14 is_stmt 0 view .LVU878
	ldr	fp, [sp, #44]	@ tmp1856, %sfp
@ src/sha1.c:156:     state[2] += c;
	.loc 1 156 14 view .LVU879
	ldr	r5, [sp, #80]	@ c, %sfp
	ldr	lr, [sp, #92]	@ state, %sfp
@ src/sha1.c:152:     R4(b, c, d, e, a, 79);
	.loc 1 152 5 view .LVU880
	ror	r7, r7, #31	@ _809, tmp1855,
@ src/sha1.c:156:     state[2] += c;
	.loc 1 156 14 view .LVU881
	add	ip, r5, r3, ror #2	@ tmp1867, c, c,
@ src/sha1.c:150:     R4(d, e, a, b, c, 77);
	.loc 1 150 5 view .LVU882
	ror	r1, r1, #2	@ e, e,
.LVL239:
	.loc 1 150 26 is_stmt 1 view .LVU883
	.loc 1 151 5 view .LVU884
@ src/sha1.c:154:     state[0] += a;
	.loc 1 154 14 is_stmt 0 view .LVU885
	add	r0, fp, r7	@ tmp1858, tmp1856, _809
	add	r0, r0, r9	@ tmp1859, tmp1858, a
@ src/sha1.c:156:     state[2] += c;
	.loc 1 156 14 view .LVU886
	str	ip, [lr, #8]	@ tmp1867, MEM[(uint32_t *)state_821(D) + 8B]
@ src/sha1.c:151:     R4(c, d, e, a, b, 78);
	.loc 1 151 5 view .LVU887
	eor	r9, r9, r1	@ tmp1847, a, e
.LVL240:
@ src/sha1.c:157:     state[3] += d;
	.loc 1 157 14 view .LVU888
	ldr	ip, [sp, #84]	@ d, %sfp
@ src/sha1.c:151:     R4(c, d, e, a, b, 78);
	.loc 1 151 5 view .LVU889
	eor	r9, r9, r2	@ tmp1848, tmp1847, d
	ror	r2, r2, #2	@ d, d,
.LVL241:
@ src/sha1.c:157:     state[3] += d;
	.loc 1 157 14 view .LVU890
	add	ip, ip, r2	@ tmp1868, d, d
	add	r8, r9, r8	@ _1099, tmp1848, tmp1851
@ src/sha1.c:152:     R4(b, c, d, e, a, 79);
	.loc 1 152 5 view .LVU891
	eor	r2, r2, r1	@ tmp1860, d, e
@ src/sha1.c:151:     R4(c, d, e, a, b, 78);
	.loc 1 151 5 view .LVU892
	add	r8, r8, r3, ror #27	@ b, _1099, c,
.LVL242:
	.loc 1 151 5 is_stmt 1 view .LVU893
	.loc 1 151 26 view .LVU894
	.loc 1 152 5 view .LVU895
	.loc 1 152 5 view .LVU896
	.loc 1 152 26 view .LVU897
	.loc 1 154 5 view .LVU898
@ src/sha1.c:157:     state[3] += d;
	.loc 1 157 14 is_stmt 0 view .LVU899
	str	ip, [lr, #12]	@ tmp1868, MEM[(uint32_t *)state_821(D) + 12B]
@ src/sha1.c:152:     R4(b, c, d, e, a, 79);
	.loc 1 152 5 view .LVU900
	eor	r3, r3, r2	@ tmp1861, c, tmp1860
.LVL243:
@ src/sha1.c:158:     state[4] += e;
	.loc 1 158 14 view .LVU901
	ldr	ip, [sp, #88]	@ e, %sfp
@ src/sha1.c:155:     state[1] += b;
	.loc 1 155 14 view .LVU902
	ldr	r2, [sp, #76]	@ b, %sfp
@ src/sha1.c:154:     state[0] += a;
	.loc 1 154 14 view .LVU903
	add	r3, r0, r3	@ tmp1862, tmp1859, tmp1861
@ src/sha1.c:162:     memset(block, '\0', sizeof(block));
	.loc 1 162 5 view .LVU904
	add	r0, sp, #96	@,,
@ src/sha1.c:158:     state[4] += e;
	.loc 1 158 14 view .LVU905
	add	r1, ip, r1	@ tmp1869, e, e
.LVL244:
@ src/sha1.c:155:     state[1] += b;
	.loc 1 155 14 view .LVU906
	add	ip, r2, r8	@ tmp1865, b, b
@ src/sha1.c:162:     memset(block, '\0', sizeof(block));
	.loc 1 162 5 view .LVU907
	mov	r2, #64	@,
@ src/sha1.c:154:     state[0] += a;
	.loc 1 154 14 view .LVU908
	add	r8, r3, r8, ror #27	@ tmp1864, tmp1862, b,
.LVL245:
@ src/sha1.c:158:     state[4] += e;
	.loc 1 158 14 view .LVU909
	str	r1, [lr, #16]	@ tmp1869, MEM[(uint32_t *)state_821(D) + 16B]
@ src/sha1.c:162:     memset(block, '\0', sizeof(block));
	.loc 1 162 5 view .LVU910
	mov	r1, #0	@,
@ src/sha1.c:155:     state[1] += b;
	.loc 1 155 14 view .LVU911
	stm	lr, {r8, ip}	@ state,,
	.loc 1 156 5 is_stmt 1 view .LVU912
	.loc 1 157 5 view .LVU913
	.loc 1 158 5 view .LVU914
	.loc 1 160 5 view .LVU915
.LVL246:
	.loc 1 162 5 view .LVU916
@ src/sha1.c:152:     R4(b, c, d, e, a, 79);
	.loc 1 152 5 is_stmt 0 view .LVU917
	str	r7, [sp, #156]	@ _809, block[0].l[15]
@ src/sha1.c:162:     memset(block, '\0', sizeof(block));
	.loc 1 162 5 view .LVU918
	bl	memset(PLT)	@
.LVL247:
@ src/sha1.c:164: }
	.loc 1 164 1 view .LVU919
	add	sp, sp, #164	@,,
	.cfi_def_cfa_offset 36
	@ sp needed	@
	pop	{r4, r5, r6, r7, r8, r9, r10, fp, pc}	@
	.cfi_endproc
.LFE3:
	.size	SHA1Transform, .-SHA1Transform
	.section	.text.SHA1Init,"ax",%progbits
	.align	2
	.global	SHA1Init
	.syntax unified
	.arm
	.fpu softvfp
	.type	SHA1Init, %function
SHA1Init:
.LVL248:
.LFB4:
	.loc 1 170 1 is_stmt 1 view -0
	.cfi_startproc
	@ args = 0, pretend = 0, frame = 0
	@ frame_needed = 0, uses_anonymous_args = 0
	@ link register save eliminated.
	.loc 1 172 5 view .LVU921
@ src/sha1.c:172:     context->state[0] = 0x67452301;
	.loc 1 172 23 is_stmt 0 view .LVU922
	movw	r3, #8961	@ tmp114,
@ src/sha1.c:173:     context->state[1] = 0xEFCDAB89;
	.loc 1 173 23 view .LVU923
	movw	ip, #43913	@ tmp115,
@ src/sha1.c:172:     context->state[0] = 0x67452301;
	.loc 1 172 23 view .LVU924
	movt	r3, 26437	@ tmp114,
@ src/sha1.c:175:     context->state[3] = 0x10325476;
	.loc 1 175 23 view .LVU925
	movw	r1, #21622	@ tmp117,
@ src/sha1.c:172:     context->state[0] = 0x67452301;
	.loc 1 172 23 view .LVU926
	str	r3, [r0]	@ tmp114, context_2(D)->state[0]
	.loc 1 173 5 is_stmt 1 view .LVU927
@ src/sha1.c:174:     context->state[2] = 0x98BADCFE;
	.loc 1 174 23 is_stmt 0 view .LVU928
	movw	r3, #56574	@ tmp116,
	movt	r3, 39098	@ tmp116,
@ src/sha1.c:176:     context->state[4] = 0xC3D2E1F0;
	.loc 1 176 23 view .LVU929
	movw	r2, #57840	@ tmp118,
@ src/sha1.c:173:     context->state[1] = 0xEFCDAB89;
	.loc 1 173 23 view .LVU930
	movt	ip, 61389	@ tmp115,
@ src/sha1.c:175:     context->state[3] = 0x10325476;
	.loc 1 175 23 view .LVU931
	movt	r1, 4146	@ tmp117,
@ src/sha1.c:176:     context->state[4] = 0xC3D2E1F0;
	.loc 1 176 23 view .LVU932
	movt	r2, 50130	@ tmp118,
@ src/sha1.c:174:     context->state[2] = 0x98BADCFE;
	.loc 1 174 23 view .LVU933
	str	r3, [r0, #8]	@ tmp116, context_2(D)->state[2]
@ src/sha1.c:177:     context->count[0] = context->count[1] = 0;
	.loc 1 177 43 view .LVU934
	mov	r3, #0	@ tmp119,
@ src/sha1.c:173:     context->state[1] = 0xEFCDAB89;
	.loc 1 173 23 view .LVU935
	str	ip, [r0, #4]	@ tmp115, context_2(D)->state[1]
	.loc 1 174 5 is_stmt 1 view .LVU936
	.loc 1 175 5 view .LVU937
@ src/sha1.c:175:     context->state[3] = 0x10325476;
	.loc 1 175 23 is_stmt 0 view .LVU938
	str	r1, [r0, #12]	@ tmp117, context_2(D)->state[3]
	.loc 1 176 5 is_stmt 1 view .LVU939
@ src/sha1.c:176:     context->state[4] = 0xC3D2E1F0;
	.loc 1 176 23 is_stmt 0 view .LVU940
	str	r2, [r0, #16]	@ tmp118, context_2(D)->state[4]
	.loc 1 177 5 is_stmt 1 view .LVU941
@ src/sha1.c:177:     context->count[0] = context->count[1] = 0;
	.loc 1 177 43 is_stmt 0 view .LVU942
	str	r3, [r0, #24]	@ tmp119, context_2(D)->count[1]
@ src/sha1.c:177:     context->count[0] = context->count[1] = 0;
	.loc 1 177 23 view .LVU943
	str	r3, [r0, #20]	@ tmp119, context_2(D)->count[0]
@ src/sha1.c:178: }
	.loc 1 178 1 view .LVU944
	bx	lr	@
	.cfi_endproc
.LFE4:
	.size	SHA1Init, .-SHA1Init
	.section	.text.SHA1Update,"ax",%progbits
	.align	2
	.global	SHA1Update
	.syntax unified
	.arm
	.fpu softvfp
	.type	SHA1Update, %function
SHA1Update:
.LVL249:
.LFB5:
	.loc 1 186 1 is_stmt 1 view -0
	.cfi_startproc
	@ args = 0, pretend = 0, frame = 0
	@ frame_needed = 0, uses_anonymous_args = 0
	.loc 1 187 5 view .LVU946
	.loc 1 188 5 view .LVU947
@ src/sha1.c:186: {
	.loc 1 186 1 is_stmt 0 view .LVU948
	push	{r4, r5, r6, r7, r8, lr}	@
	.cfi_def_cfa_offset 24
	.cfi_offset 4, -24
	.cfi_offset 5, -20
	.cfi_offset 6, -16
	.cfi_offset 7, -12
	.cfi_offset 8, -8
	.cfi_offset 14, -4
@ src/sha1.c:186: {
	.loc 1 186 1 view .LVU949
	mov	r5, r0	@ context, tmp157
@ src/sha1.c:188:     uint32_t j = context->count[0];
	.loc 1 188 14 view .LVU950
	ldr	r0, [r0, #20]	@ j, context_25(D)->count[0]
.LVL250:
	.loc 1 189 5 is_stmt 1 view .LVU951
@ src/sha1.c:186: {
	.loc 1 186 1 is_stmt 0 view .LVU952
	mov	r6, r2	@ len, tmp159
@ src/sha1.c:189:     if ((context->count[0] += len << 3) < j)
	.loc 1 189 35 view .LVU953
	lsl	r3, r2, #3	@ tmp143, len,
@ src/sha1.c:186: {
	.loc 1 186 1 view .LVU954
	mov	r7, r1	@ data, tmp158
	adds	r3, r3, r0	@ tmp144, tmp143, j
@ src/sha1.c:189:     if ((context->count[0] += len << 3) < j)
	.loc 1 189 28 view .LVU955
	str	r3, [r5, #20]	@ tmp144, context_25(D)->count[0]
@ src/sha1.c:190:         context->count[1]++;
	.loc 1 190 26 view .LVU956
	ldr	r3, [r5, #24]	@ context_25(D)->count[1], context_25(D)->count[1]
	.loc 1 190 9 is_stmt 1 view .LVU957
	.loc 1 191 5 view .LVU958
@ src/sha1.c:192:     j = (j >> 3) & 63;
	.loc 1 192 7 is_stmt 0 view .LVU959
	ubfx	r8, r0, #3, #6	@ j, j,,
@ src/sha1.c:190:         context->count[1]++;
	.loc 1 190 26 view .LVU960
	addcs	r3, r3, #1	@ _4, context_25(D)->count[1],
@ src/sha1.c:191:     context->count[1] += (len >> 29);
	.loc 1 191 23 view .LVU961
	add	r3, r3, r2, lsr #29	@ tmp147, _4, len,
	str	r3, [r5, #24]	@ tmp147, context_25(D)->count[1]
	.loc 1 192 5 is_stmt 1 view .LVU962
.LVL251:
	.loc 1 193 5 view .LVU963
@ src/sha1.c:193:     if ((j + len) > 63)
	.loc 1 193 12 is_stmt 0 view .LVU964
	add	r3, r2, r8	@ tmp148, len, j
@ src/sha1.c:193:     if ((j + len) > 63)
	.loc 1 193 8 view .LVU965
	cmp	r3, #63	@ tmp148,
	addls	r0, r8, #28	@ _54, j,
	bhi	.L16		@,
.LVL252:
.L12:
	.loc 1 205 5 is_stmt 1 view .LVU966
	add	r0, r5, r0	@, context, _54
	mov	r2, r6	@, len
	mov	r1, r7	@, data
@ src/sha1.c:206: }
	.loc 1 206 1 is_stmt 0 view .LVU967
	pop	{r4, r5, r6, r7, r8, lr}	@
	.cfi_remember_state
	.cfi_restore 14
	.cfi_restore 8
	.cfi_restore 7
	.cfi_restore 6
	.cfi_restore 5
	.cfi_restore 4
	.cfi_def_cfa_offset 0
.LVL253:
@ src/sha1.c:205:     memcpy(&context->buffer[j], &data[i], len - i);
	.loc 1 205 5 view .LVU968
	b	memcpy(PLT)	@
.LVL254:
.L16:
	.cfi_restore_state
	.loc 1 195 9 is_stmt 1 view .LVU969
@ src/sha1.c:195:         memcpy(&context->buffer[j], data, (i = 64 - j));
	.loc 1 195 46 is_stmt 0 view .LVU970
	rsb	r4, r8, #64	@ i, j,
.LVL255:
@ src/sha1.c:195:         memcpy(&context->buffer[j], data, (i = 64 - j));
	.loc 1 195 16 view .LVU971
	add	r0, r8, #28	@ tmp149, j,
@ src/sha1.c:195:         memcpy(&context->buffer[j], data, (i = 64 - j));
	.loc 1 195 9 view .LVU972
	add	r0, r5, r0	@, context, tmp149
	mov	r2, r4	@, i
.LVL256:
	.loc 1 195 9 view .LVU973
	bl	memcpy(PLT)	@
.LVL257:
	.loc 1 196 9 is_stmt 1 view .LVU974
	mov	r0, r5	@, context
	add	r1, r5, #28	@, context,
	bl	SHA1Transform(PLT)	@
.LVL258:
	.loc 1 197 9 view .LVU975
	.loc 1 197 16 view .LVU976
@ src/sha1.c:197:         for (; i + 63 < len; i += 64)
	.loc 1 197 18 is_stmt 0 view .LVU977
	rsb	r3, r8, #127	@ tmp152, j,
@ src/sha1.c:197:         for (; i + 63 < len; i += 64)
	.loc 1 197 9 view .LVU978
	cmp	r6, r3	@ len, tmp152
@ src/sha1.c:205:     memcpy(&context->buffer[j], &data[i], len - i);
	.loc 1 205 33 view .LVU979
	addls	r7, r7, r4	@ data, data, i
.LVL259:
@ src/sha1.c:205:     memcpy(&context->buffer[j], &data[i], len - i);
	.loc 1 205 47 view .LVU980
	subls	r0, r8, #64	@ tmp153, j,
	addls	r6, r6, r0	@ len, len, tmp153
.LVL260:
	.loc 1 205 47 view .LVU981
	movls	r0, #28	@ _54,
@ src/sha1.c:197:         for (; i + 63 < len; i += 64)
	.loc 1 197 9 view .LVU982
	bls	.L12		@,
.L11:
	.loc 1 199 13 is_stmt 1 discriminator 2 view .LVU983
	add	r1, r7, r4	@, data, i
	mov	r0, r5	@, context
	bl	SHA1Transform(PLT)	@
.LVL261:
	.loc 1 197 30 discriminator 2 view .LVU984
@ src/sha1.c:197:         for (; i + 63 < len; i += 64)
	.loc 1 197 9 is_stmt 0 discriminator 2 view .LVU985
	add	r3, r4, #127	@ tmp155, i,
@ src/sha1.c:197:         for (; i + 63 < len; i += 64)
	.loc 1 197 32 discriminator 2 view .LVU986
	add	r4, r4, #64	@ i, i,
.LVL262:
	.loc 1 197 16 is_stmt 1 discriminator 2 view .LVU987
@ src/sha1.c:197:         for (; i + 63 < len; i += 64)
	.loc 1 197 9 is_stmt 0 discriminator 2 view .LVU988
	cmp	r6, r3	@ len, tmp155
	bhi	.L11		@,
@ src/sha1.c:205:     memcpy(&context->buffer[j], &data[i], len - i);
	.loc 1 205 33 view .LVU989
	add	r7, r7, r4	@ data, data, i
@ src/sha1.c:205:     memcpy(&context->buffer[j], &data[i], len - i);
	.loc 1 205 47 view .LVU990
	mov	r0, #28	@ _54,
	sub	r6, r6, r4	@ len, len, i
	b	.L12		@
	.cfi_endproc
.LFE5:
	.size	SHA1Update, .-SHA1Update
	.section	.text.SHA1Final,"ax",%progbits
	.align	2
	.global	SHA1Final
	.syntax unified
	.arm
	.fpu softvfp
	.type	SHA1Final, %function
SHA1Final:
.LVL263:
.LFB6:
	.loc 1 215 1 is_stmt 1 view -0
	.cfi_startproc
	@ args = 0, pretend = 0, frame = 16
	@ frame_needed = 0, uses_anonymous_args = 0
	.loc 1 216 5 view .LVU992
	.loc 1 217 5 view .LVU993
	.loc 1 218 5 view .LVU994
	.loc 1 219 5 view .LVU995
	.loc 1 219 17 view .LVU996
@ src/sha1.c:215: {
	.loc 1 215 1 is_stmt 0 view .LVU997
	push	{r4, r5, r6, r7, r8, lr}	@
	.cfi_def_cfa_offset 24
	.cfi_offset 4, -24
	.cfi_offset 5, -20
	.cfi_offset 6, -16
	.cfi_offset 7, -12
	.cfi_offset 8, -8
	.cfi_offset 14, -4
	sub	sp, sp, #16	@,,
	.cfi_def_cfa_offset 40
	add	r5, sp, #8	@ tmp172,,
@ src/sha1.c:215: {
	.loc 1 215 1 view .LVU998
	mov	r6, r0	@ digest, tmp176
	mov	r4, r1	@ context, tmp177
	mov	r0, r5	@ ivtmp.43, tmp172
@ src/sha1.c:219:     for (i = 0; i < 8; i++)
	.loc 1 219 12 view .LVU999
	mov	r2, #0	@ i,
.LVL264:
.L18:
	.loc 1 221 9 is_stmt 1 discriminator 3 view .LVU1000
@ src/sha1.c:221:         finalcount[i] = (unsigned char) ((context->count[(i >= 4 ? 0 : 1)] >> ((3 - (i & 3)) * 8)) & 255);      /* Endian independent */
	.loc 1 221 83 is_stmt 0 discriminator 3 view .LVU1001
	mvn	r3, r2	@ tmp146, i
@ src/sha1.c:221:         finalcount[i] = (unsigned char) ((context->count[(i >= 4 ? 0 : 1)] >> ((3 - (i & 3)) * 8)) & 255);      /* Endian independent */
	.loc 1 221 70 discriminator 3 view .LVU1002
	cmp	r2, #3	@ i,
	movhi	r1, #0	@ tmp142,
	movls	r1, #1	@ tmp142,
@ src/sha1.c:221:         finalcount[i] = (unsigned char) ((context->count[(i >= 4 ? 0 : 1)] >> ((3 - (i & 3)) * 8)) & 255);      /* Endian independent */
	.loc 1 221 83 discriminator 3 view .LVU1003
	and	r3, r3, #3	@ tmp147, tmp146,
@ src/sha1.c:219:     for (i = 0; i < 8; i++)
	.loc 1 219 25 discriminator 3 view .LVU1004
	add	r2, r2, #1	@ i, i,
.LVL265:
@ src/sha1.c:221:         finalcount[i] = (unsigned char) ((context->count[(i >= 4 ? 0 : 1)] >> ((3 - (i & 3)) * 8)) & 255);      /* Endian independent */
	.loc 1 221 57 discriminator 3 view .LVU1005
	add	r1, r4, r1, lsl #2	@ tmp144, context, tmp142,
@ src/sha1.c:219:     for (i = 0; i < 8; i++)
	.loc 1 219 5 discriminator 3 view .LVU1006
	cmp	r2, #8	@ i,
@ src/sha1.c:221:         finalcount[i] = (unsigned char) ((context->count[(i >= 4 ? 0 : 1)] >> ((3 - (i & 3)) * 8)) & 255);      /* Endian independent */
	.loc 1 221 94 discriminator 3 view .LVU1007
	lsl	r3, r3, #3	@ tmp148, tmp147,
@ src/sha1.c:221:         finalcount[i] = (unsigned char) ((context->count[(i >= 4 ? 0 : 1)] >> ((3 - (i & 3)) * 8)) & 255);      /* Endian independent */
	.loc 1 221 76 discriminator 3 view .LVU1008
	ldr	r1, [r1, #20]	@ context_26(D)->count[_2], context_26(D)->count[_2]
	lsr	r3, r1, r3	@ tmp149, context_26(D)->count[_2], tmp148
@ src/sha1.c:221:         finalcount[i] = (unsigned char) ((context->count[(i >= 4 ? 0 : 1)] >> ((3 - (i & 3)) * 8)) & 255);      /* Endian independent */
	.loc 1 221 25 discriminator 3 view .LVU1009
	strb	r3, [r0], #1	@ tmp149, MEM[base: _22, offset: 0B]
	.loc 1 219 24 is_stmt 1 discriminator 3 view .LVU1010
.LVL266:
	.loc 1 219 17 discriminator 3 view .LVU1011
@ src/sha1.c:219:     for (i = 0; i < 8; i++)
	.loc 1 219 5 is_stmt 0 discriminator 3 view .LVU1012
	bne	.L18		@,
	.loc 1 223 5 is_stmt 1 view .LVU1013
@ src/sha1.c:224:     SHA1Update(context, &c, 1);
	.loc 1 224 5 is_stmt 0 view .LVU1014
	add	r7, sp, #7	@ tmp171,,
@ src/sha1.c:223:     c = 0200;
	.loc 1 223 7 view .LVU1015
	mvn	r3, #127	@ tmp152,
	strb	r3, [sp, #7]	@ tmp152, c
	.loc 1 224 5 is_stmt 1 view .LVU1016
	mov	r2, #1	@,
.LVL267:
	.loc 1 224 5 is_stmt 0 view .LVU1017
	mov	r1, r7	@, tmp171
	mov	r0, r4	@, context
	bl	SHA1Update(PLT)	@
.LVL268:
	.loc 1 225 5 is_stmt 1 view .LVU1018
	.loc 1 225 11 view .LVU1019
@ src/sha1.c:225:     while ((context->count[0] & 504) != 448)
	.loc 1 225 31 is_stmt 0 view .LVU1020
	ldr	r3, [r4, #20]	@ context_26(D)->count[0], context_26(D)->count[0]
	and	r3, r3, #504	@ tmp155, context_26(D)->count[0],
@ src/sha1.c:225:     while ((context->count[0] & 504) != 448)
	.loc 1 225 11 view .LVU1021
	cmp	r3, #448	@ tmp155,
	beq	.L19		@,
@ src/sha1.c:227:         c = 0000;
	.loc 1 227 11 view .LVU1022
	mov	r8, #0	@ tmp157,
.L20:
	.loc 1 227 9 is_stmt 1 view .LVU1023
@ src/sha1.c:227:         c = 0000;
	.loc 1 227 11 is_stmt 0 view .LVU1024
	strb	r8, [sp, #7]	@ tmp157, c
	.loc 1 228 9 is_stmt 1 view .LVU1025
	mov	r2, #1	@,
	mov	r1, r7	@, tmp171
	mov	r0, r4	@, context
	bl	SHA1Update(PLT)	@
.LVL269:
	.loc 1 225 11 view .LVU1026
@ src/sha1.c:225:     while ((context->count[0] & 504) != 448)
	.loc 1 225 31 is_stmt 0 view .LVU1027
	ldr	r3, [r4, #20]	@ context_26(D)->count[0], context_26(D)->count[0]
	and	r3, r3, #504	@ tmp160, context_26(D)->count[0],
@ src/sha1.c:225:     while ((context->count[0] & 504) != 448)
	.loc 1 225 11 view .LVU1028
	cmp	r3, #448	@ tmp160,
	bne	.L20		@,
.L19:
	.loc 1 230 5 is_stmt 1 view .LVU1029
	mov	r2, #8	@,
	mov	r1, r5	@, tmp172
	mov	r0, r4	@, context
	bl	SHA1Update(PLT)	@
.LVL270:
	.loc 1 231 5 view .LVU1030
	.loc 1 231 17 view .LVU1031
	sub	r1, r6, #1	@ ivtmp.33, digest,
@ src/sha1.c:231:     for (i = 0; i < 20; i++)
	.loc 1 231 12 is_stmt 0 view .LVU1032
	mov	r2, #0	@ i,
.LVL271:
.L21:
	.loc 1 233 9 is_stmt 1 discriminator 3 view .LVU1033
@ src/sha1.c:234:             ((context->state[i >> 2] >> ((3 - (i & 3)) * 8)) & 255);
	.loc 1 234 45 is_stmt 0 discriminator 3 view .LVU1034
	mvn	r3, r2	@ tmp164, i
@ src/sha1.c:234:             ((context->state[i >> 2] >> ((3 - (i & 3)) * 8)) & 255);
	.loc 1 234 32 discriminator 3 view .LVU1035
	lsr	r0, r2, #2	@ tmp163, i,
@ src/sha1.c:234:             ((context->state[i >> 2] >> ((3 - (i & 3)) * 8)) & 255);
	.loc 1 234 45 discriminator 3 view .LVU1036
	and	r3, r3, #3	@ tmp165, tmp164,
@ src/sha1.c:231:     for (i = 0; i < 20; i++)
	.loc 1 231 26 discriminator 3 view .LVU1037
	add	r2, r2, #1	@ i, i,
.LVL272:
@ src/sha1.c:234:             ((context->state[i >> 2] >> ((3 - (i & 3)) * 8)) & 255);
	.loc 1 234 38 discriminator 3 view .LVU1038
	ldr	ip, [r4, r0, lsl #2]	@ context_26(D)->state[_11], context_26(D)->state[_11]
@ src/sha1.c:231:     for (i = 0; i < 20; i++)
	.loc 1 231 5 discriminator 3 view .LVU1039
	cmp	r2, #20	@ i,
@ src/sha1.c:234:             ((context->state[i >> 2] >> ((3 - (i & 3)) * 8)) & 255);
	.loc 1 234 56 discriminator 3 view .LVU1040
	lsl	r3, r3, #3	@ tmp166, tmp165,
@ src/sha1.c:234:             ((context->state[i >> 2] >> ((3 - (i & 3)) * 8)) & 255);
	.loc 1 234 38 discriminator 3 view .LVU1041
	lsr	r3, ip, r3	@ tmp167, context_26(D)->state[_11], tmp166
@ src/sha1.c:233:         digest[i] = (unsigned char)
	.loc 1 233 21 discriminator 3 view .LVU1042
	strb	r3, [r1, #1]!	@ tmp167, MEM[base: _46, offset: 0B]
	.loc 1 231 25 is_stmt 1 discriminator 3 view .LVU1043
.LVL273:
	.loc 1 231 17 discriminator 3 view .LVU1044
@ src/sha1.c:231:     for (i = 0; i < 20; i++)
	.loc 1 231 5 is_stmt 0 discriminator 3 view .LVU1045
	bne	.L21		@,
	.loc 1 237 5 is_stmt 1 view .LVU1046
	mov	r2, #92	@,
.LVL274:
	.loc 1 237 5 is_stmt 0 view .LVU1047
	mov	r1, #0	@,
	mov	r0, r4	@, context
	bl	memset(PLT)	@
.LVL275:
	.loc 1 238 5 is_stmt 1 view .LVU1048
	mov	r2, #8	@,
	mov	r1, #0	@,
	mov	r0, r5	@, tmp172
	bl	memset(PLT)	@
.LVL276:
@ src/sha1.c:239: }
	.loc 1 239 1 is_stmt 0 view .LVU1049
	add	sp, sp, #16	@,,
	.cfi_def_cfa_offset 24
	@ sp needed	@
	pop	{r4, r5, r6, r7, r8, pc}	@
	.loc 1 239 1 view .LVU1050
	.cfi_endproc
.LFE6:
	.size	SHA1Final, .-SHA1Final
	.section	.text.SHA1,"ax",%progbits
	.align	2
	.global	SHA1
	.syntax unified
	.arm
	.fpu softvfp
	.type	SHA1, %function
SHA1:
.LVL277:
.LFB7:
	.loc 1 245 1 is_stmt 1 view -0
	.cfi_startproc
	@ args = 0, pretend = 0, frame = 96
	@ frame_needed = 0, uses_anonymous_args = 0
	.loc 1 245 1 is_stmt 0 view .LVU1052
	push	{r4, r5, r6, r7, lr}	@
	.cfi_def_cfa_offset 20
	.cfi_offset 4, -20
	.cfi_offset 5, -16
	.cfi_offset 6, -12
	.cfi_offset 7, -8
	.cfi_offset 14, -4
	sub	sp, sp, #100	@,,
	.cfi_def_cfa_offset 120
@ src/sha1.c:250:     SHA1Init(&ctx);
	.loc 1 250 5 view .LVU1053
	add	r6, sp, #4	@ tmp123,,
@ src/sha1.c:245: {
	.loc 1 245 1 view .LVU1054
	mov	r5, r2	@ len, tmp127
	mov	r7, r0	@ tmp125, hash_out
@ src/sha1.c:250:     SHA1Init(&ctx);
	.loc 1 250 5 view .LVU1055
	mov	r0, r6	@, tmp123
	.loc 1 247 5 is_stmt 1 view .LVU1056
	.loc 1 248 5 view .LVU1057
	.loc 1 250 5 view .LVU1058
@ src/sha1.c:245: {
	.loc 1 245 1 is_stmt 0 view .LVU1059
	mov	r4, r1	@ str, tmp126
@ src/sha1.c:250:     SHA1Init(&ctx);
	.loc 1 250 5 view .LVU1060
	bl	SHA1Init(PLT)	@
.LVL278:
	.loc 1 251 5 is_stmt 1 view .LVU1061
	.loc 1 251 16 view .LVU1062
@ src/sha1.c:251:     for (ii=0; ii<len; ii+=1)
	.loc 1 251 5 is_stmt 0 view .LVU1063
	cmp	r5, #0	@ len,
	beq	.L30		@,
	add	r5, r4, r5	@ _20, ivtmp.50, len
.LVL279:
.L31:
	.loc 1 252 9 is_stmt 1 discriminator 3 view .LVU1064
	mov	r2, #1	@,
	mov	r1, r4	@, ivtmp.50
@ src/sha1.c:251:     for (ii=0; ii<len; ii+=1)
	.loc 1 251 5 is_stmt 0 discriminator 3 view .LVU1065
	add	r4, r4, r2	@ ivtmp.50, ivtmp.50,
.LVL280:
@ src/sha1.c:252:         SHA1Update(&ctx, (const unsigned char*)str + ii, 1);
	.loc 1 252 9 discriminator 3 view .LVU1066
	mov	r0, r6	@, tmp123
	bl	SHA1Update(PLT)	@
.LVL281:
	.loc 1 251 24 is_stmt 1 discriminator 3 view .LVU1067
	.loc 1 251 16 discriminator 3 view .LVU1068
@ src/sha1.c:251:     for (ii=0; ii<len; ii+=1)
	.loc 1 251 5 is_stmt 0 discriminator 3 view .LVU1069
	cmp	r4, r5	@ ivtmp.50, _20
	bne	.L31		@,
.L30:
	.loc 1 253 5 is_stmt 1 view .LVU1070
	mov	r1, r6	@, tmp123
	mov	r0, r7	@, hash_out
	bl	SHA1Final(PLT)	@
.LVL282:
@ src/sha1.c:254: }
	.loc 1 254 1 is_stmt 0 view .LVU1071
	add	sp, sp, #100	@,,
	.cfi_def_cfa_offset 20
	@ sp needed	@
	pop	{r4, r5, r6, r7, pc}	@
	.loc 1 254 1 view .LVU1072
	.cfi_endproc
.LFE7:
	.size	SHA1, .-SHA1
	.text
.Letext0:
	.file 2 "/usr/include/newlib/machine/_default_types.h"
	.file 3 "/usr/include/newlib/sys/_stdint.h"
	.file 4 "src/sha1.h"
	.file 5 "src/memory.h"